	.text
	.syntax unified
	.eabi_attribute	67, "2.09"	@ Tag_conformance
	.cpu	cortex-m3
	.eabi_attribute	6, 10	@ Tag_CPU_arch
	.eabi_attribute	7, 77	@ Tag_CPU_arch_profile
	.eabi_attribute	8, 0	@ Tag_ARM_ISA_use
	.eabi_attribute	9, 2	@ Tag_THUMB_ISA_use
	.eabi_attribute	34, 1	@ Tag_CPU_unaligned_access
	.eabi_attribute	17, 1	@ Tag_ABI_PCS_GOT_use
	.eabi_attribute	20, 2	@ Tag_ABI_FP_denormal
	.eabi_attribute	21, 0	@ Tag_ABI_FP_exceptions
	.eabi_attribute	23, 1	@ Tag_ABI_FP_number_model
	.eabi_attribute	24, 1	@ Tag_ABI_align_needed
	.eabi_attribute	25, 1	@ Tag_ABI_align_preserved
	.eabi_attribute	38, 1	@ Tag_ABI_FP_16bit_format
	.eabi_attribute	18, 4	@ Tag_ABI_PCS_wchar_t
	.eabi_attribute	26, 2	@ Tag_ABI_enum_size
	.eabi_attribute	14, 0	@ Tag_ABI_PCS_R9_use
	.file	"app_task.c"
	.file	1 "D:\\20240115\\rafael-iot-sdk-das\\examples\\das_subg_thread\\keil" "../das_subg_thread/app_task.c"
	.file	2 "D:\\20240115\\rafael-iot-sdk-das\\examples\\das_subg_thread\\keil" "../../../components/platform/soc/rt582/rt582_freertos/Inc/queue.h"
	.file	3 "D:\\20240115\\rafael-iot-sdk-das\\examples\\das_subg_thread\\keil" "../../../components/platform/soc/rt582/rt582_freertos/Inc\\semphr.h"
	.file	4 "D:\\20240115\\rafael-iot-sdk-das\\examples\\das_subg_thread\\keil" "../../../components/network/thread/subg_openthread/include\\openthread/error.h"
	.file	5 "D:\\20240115\\rafael-iot-sdk-das\\examples\\das_subg_thread\\keil" "../../../components/network/thread/subg_openthread/include\\openthread/thread_ftd.h"
	.file	6 "D:\\20240115\\rafael-iot-sdk-das\\examples\\das_subg_thread\\keil" "../../../components/network/thread/subg_openthread/include\\openthread/instance.h"
	.file	7 "D:\\20240115\\rafael-iot-sdk-das\\examples\\das_subg_thread\\keil" "../../../components/network/thread/subg_openthread/include\\openthread/thread.h"
	.file	8 "D:\\20240115\\rafael-iot-sdk-das\\examples\\das_subg_thread\\keil" "../../../components/platform/soc/rt582/rt582_freertos/portable/GCC/ARM_CM3\\portmacro.h"
	.file	9 "C:\\Keil_v5\\ARM\\ARMCLANG\\Bin\\..\\include" "stdint.h"
	.section	.text.otrInitUser,"ax",%progbits
	.hidden	otrInitUser                     @ -- Begin function otrInitUser
	.globl	otrInitUser
	.p2align	2
	.type	otrInitUser,%function
	.code	16                              @ @otrInitUser
	.thumb_func
otrInitUser:
.Lfunc_begin0:
	.loc	1 129 0                         @ ../das_subg_thread/app_task.c:129:0
	.fnstart
	.cfi_sections .debug_frame
	.cfi_startproc
@ %bb.0:
	@DEBUG_VALUE: otrInitUser:instance <- $r0
	.save	{r4, r5, r6, r7, lr}
	push	{r4, r5, r6, r7, lr}
	.cfi_def_cfa_offset 20
	.cfi_offset lr, -4
	.cfi_offset r7, -8
	.cfi_offset r6, -12
	.cfi_offset r5, -16
	.cfi_offset r4, -20
	.pad	#124
	sub	sp, #124
	.cfi_def_cfa_offset 144
	mov	r4, r0
.Ltmp0:
	@DEBUG_VALUE: otrInitUser:instance <- $r4
	@DEBUG_VALUE: otrInitUser:instance <- $r4
	.loc	1 130 5 prologue_end            @ ../das_subg_thread/app_task.c:130:5
	bl	ota_bootloader_info_check
.Ltmp1:
	.loc	1 146 5                         @ ../das_subg_thread/app_task.c:146:5
	mov	r0, r4
	bl	otAppCliInit
.Ltmp2:
	.loc	1 0 5 is_stmt 0                 @ ../das_subg_thread/app_task.c:0:5
	mov	r5, sp
	.loc	1 150 5 is_stmt 1               @ ../das_subg_thread/app_task.c:150:5
	mov	r0, r5
	movs	r1, #120
	bl	__aeabi_memclr8
.Ltmp3:
	.loc	1 152 5                         @ ../das_subg_thread/app_task.c:152:5
	mov	r0, r4
	mov	r1, r5
	bl	otDatasetGetActive
.Ltmp4:
	.loc	1 159 47                        @ ../das_subg_thread/app_task.c:159:47
	ldrb.w	r0, [sp, #117]
	.loc	1 166 5                         @ ../das_subg_thread/app_task.c:166:5
	ldr	r2, .LCPI0_0
	.loc	1 159 47                        @ ../das_subg_thread/app_task.c:159:47
	orr	r0, r0, #1
	strb.w	r0, [sp, #117]
	movw	r0, #65281
	movt	r0, #4
	.loc	1 162 24                        @ ../das_subg_thread/app_task.c:162:24
	str	r0, [sp, #88]
	.loc	1 166 5                         @ ../das_subg_thread/app_task.c:166:5
	adr	r0, .LCPI0_0
	str	r2, [sp, #32]
	ldrd	r2, r3, [r0, #4]
	ldr	r0, [r0, #12]
	.loc	1 155 55                        @ ../das_subg_thread/app_task.c:155:55
	ldrb.w	r1, [sp, #116]
	.loc	1 166 5                         @ ../das_subg_thread/app_task.c:166:5
	str	r0, [sp, #44]
	movw	r0, #3328
	movt	r0, #184
	.loc	1 174 21                        @ ../das_subg_thread/app_task.c:174:21
	movw	r6, :lower16:otrInitUser.aNetworkName
	.loc	1 170 5                         @ ../das_subg_thread/app_task.c:170:5
	str.w	r0, [sp, #65]
	.loc	1 171 53                        @ ../das_subg_thread/app_task.c:171:53
	orr	r0, r1, #149
	.loc	1 174 21                        @ ../das_subg_thread/app_task.c:174:21
	movt	r6, :upper16:otrInitUser.aNetworkName
	movs	r7, #0
	.loc	1 171 53                        @ ../das_subg_thread/app_task.c:171:53
	strb.w	r0, [sp, #116]
	.loc	1 174 21                        @ ../das_subg_thread/app_task.c:174:21
	mov	r0, r6
	.loc	1 154 43                        @ ../das_subg_thread/app_task.c:154:43
	strd	r7, r7, [sp]
	.loc	1 166 5                         @ ../das_subg_thread/app_task.c:166:5
	strd	r2, r3, [sp, #36]
	.loc	1 170 5                         @ ../das_subg_thread/app_task.c:170:5
	str.w	r7, [sp, #69]
	.loc	1 174 21                        @ ../das_subg_thread/app_task.c:174:21
	bl	strlen
.Ltmp5:
	mov	r2, r0
.Ltmp6:
	@DEBUG_VALUE: otrInitUser:length <- $r2
	.loc	1 175 5                         @ ../das_subg_thread/app_task.c:175:5
	add.w	r0, r5, #48
	mov	r1, r6
	bl	__aeabi_memcpy4
.Ltmp7:
	.loc	1 176 51                        @ ../das_subg_thread/app_task.c:176:51
	ldrb.w	r0, [sp, #116]
	movs	r1, #253
	movt	r1, #47117
	.loc	1 179 55                        @ ../das_subg_thread/app_task.c:179:55
	orr	r0, r0, #40
	.loc	1 178 5                         @ ../das_subg_thread/app_task.c:178:5
	str.w	r1, [sp, #73]
	.loc	1 179 55                        @ ../das_subg_thread/app_task.c:179:55
	strb.w	r0, [sp, #116]
	.loc	1 182 5                         @ ../das_subg_thread/app_task.c:182:5
	mov	r0, r4
	mov	r1, r5
	.loc	1 178 5                         @ ../das_subg_thread/app_task.c:178:5
	str.w	r7, [sp, #77]
	.loc	1 182 5                         @ ../das_subg_thread/app_task.c:182:5
	bl	otDatasetSetActive
.Ltmp8:
	.loc	1 184 5                         @ ../das_subg_thread/app_task.c:184:5
	bl	otGetVersionString
.Ltmp9:
	mov	r1, r0
	movw	r0, :lower16:.L.str
	movt	r0, :upper16:.L.str
	bl	__2printf
.Ltmp10:
	.loc	1 186 5                         @ ../das_subg_thread/app_task.c:186:5
	mov	r0, r4
	bl	otThreadGetLinkMode
.Ltmp11:
	and	r5, r0, #1
	mov	r0, r4
	bl	otThreadGetLinkMode
.Ltmp12:
	ubfx	r6, r0, #1, #1
	mov	r0, r4
	bl	otThreadGetLinkMode
.Ltmp13:
	ubfx	r3, r0, #2, #1
	adr	r0, .LCPI0_1
	mov	r1, r5
	mov	r2, r6
	bl	__2printf
.Ltmp14:
	.loc	1 190 5                         @ ../das_subg_thread/app_task.c:190:5
	mov	r0, r4
	bl	otThreadGetNetworkName
.Ltmp15:
	mov	r1, r0
	adr	r0, .LCPI0_2
	bl	__2printf
.Ltmp16:
	.loc	1 191 5                         @ ../das_subg_thread/app_task.c:191:5
	mov	r0, r4
	bl	otLinkGetPanId
.Ltmp17:
	mov	r1, r0
	adr	r0, .LCPI0_3
	bl	__2printf
.Ltmp18:
	.loc	1 193 5                         @ ../das_subg_thread/app_task.c:193:5
	mov	r0, r4
	bl	otLinkGetChannel
.Ltmp19:
	mov	r1, r0
	adr	r0, .LCPI0_4
	bl	__2printf
.Ltmp20:
	.loc	1 195 5                         @ ../das_subg_thread/app_task.c:195:5
	movw	r1, :lower16:ot_stateChangeCallback
	movt	r1, :upper16:ot_stateChangeCallback
	mov	r0, r4
	mov	r2, r4
	bl	otSetStateChangedCallback
.Ltmp21:
	.loc	1 199 5                         @ ../das_subg_thread/app_task.c:199:5
	movw	r1, :lower16:app_udp_cb
	movt	r1, :upper16:app_udp_cb
	mov	r0, r4
	movw	r2, #5678
	bl	app_sockInit
.Ltmp22:
	.loc	1 202 5                         @ ../das_subg_thread/app_task.c:202:5
	mov	r0, r4
	bl	nwk_mgm_init
.Ltmp23:
	.loc	1 203 5                         @ ../das_subg_thread/app_task.c:203:5
	movw	r1, :lower16:nwk_mgm_neighbor_Change_Callback
	movt	r1, :upper16:nwk_mgm_neighbor_Change_Callback
	mov	r0, r4
	bl	otThreadRegisterNeighborTableCallback
.Ltmp24:
	.loc	1 205 5                         @ ../das_subg_thread/app_task.c:205:5
	mov	r0, r4
	bl	ota_init
.Ltmp25:
	.loc	1 207 5                         @ ../das_subg_thread/app_task.c:207:5
	mov	r0, r4
	bl	udf_Meter_init
.Ltmp26:
	.loc	1 209 5                         @ ../das_subg_thread/app_task.c:209:5
	mov	r0, r4
	movs	r1, #1
	bl	otIp6SetEnabled
.Ltmp27:
	.loc	1 210 5                         @ ../das_subg_thread/app_task.c:210:5
	mov	r0, r4
	movs	r1, #1
	bl	otThreadSetEnabled
.Ltmp28:
	.loc	1 211 1                         @ ../das_subg_thread/app_task.c:211:1
	add	sp, #124
	pop	{r4, r5, r6, r7, pc}
.Ltmp29:
	.p2align	2
@ %bb.1:
	.loc	1 0 1 is_stmt 0                 @ ../das_subg_thread/app_task.c:0:1
.LCPI0_0:
.L__const.otrInitUser.nwkkey:
	.ascii	"\376wD\212g)\376\253\253\376)g\212D\210\377"
.LCPI0_1:
.L.str.1:
	.asciz	"Link Mode           %d, %d, %d\r\n\000\000\000"
.LCPI0_2:
.L.str.2:
	.asciz	"Network name        : %s\r\n\000"
.LCPI0_3:
.L.str.3:
	.asciz	"PAN ID              : %x\r\n\000"
.LCPI0_4:
.L.str.4:
	.asciz	"channel             : %d\r\n\000"
.Lfunc_end0:
	.size	otrInitUser, .Lfunc_end0-otrInitUser
	.cfi_endproc
	.cantunwind
	.fnend
                                        @ -- End function
	.section	.text.ot_stateChangeCallback,"ax",%progbits
	.p2align	2                               @ -- Begin function ot_stateChangeCallback
	.type	ot_stateChangeCallback,%function
	.code	16                              @ @ot_stateChangeCallback
	.thumb_func
ot_stateChangeCallback:
.Lfunc_begin1:
	.loc	1 22 0 is_stmt 1                @ ../das_subg_thread/app_task.c:22:0
	.fnstart
	.cfi_startproc
@ %bb.0:
	@DEBUG_VALUE: ot_stateChangeCallback:flags <- $r0
	@DEBUG_VALUE: ot_stateChangeCallback:flags <- $r0
	@DEBUG_VALUE: ot_stateChangeCallback:p_context <- $r1
	.save	{r4, r5, r6, r7, r8, r9, r10, r11, lr}
	push.w	{r4, r5, r6, r7, r8, r9, r10, r11, lr}
	.cfi_def_cfa_offset 36
	.cfi_offset lr, -4
	.cfi_offset r11, -8
	.cfi_offset r10, -12
	.cfi_offset r9, -16
	.cfi_offset r8, -20
	.cfi_offset r7, -24
	.cfi_offset r6, -28
	.cfi_offset r5, -32
	.cfi_offset r4, -36
	.pad	#68
	sub	sp, #68
	.cfi_def_cfa_offset 104
.Ltmp30:
	@DEBUG_VALUE: ot_stateChangeCallback:instance <- $r1
	.loc	1 25 9 prologue_end             @ ../das_subg_thread/app_task.c:25:9
	lsls	r0, r0, #29
.Ltmp31:
	@DEBUG_VALUE: ot_stateChangeCallback:flags <- [DW_OP_LLVM_entry_value 1] $r0
	@DEBUG_VALUE: ot_stateChangeCallback:instance <- $r1
	@DEBUG_VALUE: ot_stateChangeCallback:p_context <- $r1
	bpl.w	.LBB1_5
.Ltmp32:
@ %bb.1:
	@DEBUG_VALUE: ot_stateChangeCallback:instance <- $r1
	@DEBUG_VALUE: ot_stateChangeCallback:p_context <- $r1
	@DEBUG_VALUE: ot_stateChangeCallback:flags <- [DW_OP_LLVM_entry_value 1] $r0
	.loc	1 28 29                         @ ../das_subg_thread/app_task.c:28:29
	mov	r0, r1
	mov	r4, r1
.Ltmp33:
	@DEBUG_VALUE: ot_stateChangeCallback:p_context <- $r4
	@DEBUG_VALUE: ot_stateChangeCallback:p_context <- $r4
	@DEBUG_VALUE: ot_stateChangeCallback:instance <- $r4
	bl	otThreadGetDeviceRole
.Ltmp34:
	@DEBUG_VALUE: role <- $r0
	.loc	1 29 9                          @ ../das_subg_thread/app_task.c:29:9
	cmp	r0, #0
	beq.w	.LBB1_5
.Ltmp35:
@ %bb.2:
	@DEBUG_VALUE: ot_stateChangeCallback:instance <- $r4
	@DEBUG_VALUE: ot_stateChangeCallback:p_context <- $r4
	@DEBUG_VALUE: role <- $r0
	@DEBUG_VALUE: ot_stateChangeCallback:flags <- [DW_OP_LLVM_entry_value 1] $r0
	cmp	r0, #3
	bne	.LBB1_4
.Ltmp36:
@ %bb.3:
	@DEBUG_VALUE: ot_stateChangeCallback:instance <- $r4
	@DEBUG_VALUE: ot_stateChangeCallback:p_context <- $r4
	@DEBUG_VALUE: role <- $r0
	@DEBUG_VALUE: ot_stateChangeCallback:flags <- [DW_OP_LLVM_entry_value 1] $r0
	.loc	1 35 13                         @ ../das_subg_thread/app_task.c:35:13
	bl	nwk_mgm_child_register_post
.Ltmp37:
.LBB1_4:
	@DEBUG_VALUE: ot_stateChangeCallback:instance <- $r4
	@DEBUG_VALUE: ot_stateChangeCallback:p_context <- $r4
	@DEBUG_VALUE: ot_stateChangeCallback:flags <- [DW_OP_LLVM_entry_value 1] $r0
	.loc	1 49 13                         @ ../das_subg_thread/app_task.c:49:13
	mov	r0, r4
	bl	otThreadGetDeviceRole
.Ltmp38:
	bl	otThreadDeviceRoleToString
.Ltmp39:
	mov	r1, r0
	adr	r0, .LCPI1_0
	bl	__2printf
.Ltmp40:
	.loc	1 51 29                         @ ../das_subg_thread/app_task.c:51:29
	mov	r0, r4
	bl	otLinkGetExtendedAddress
.Ltmp41:
	@DEBUG_VALUE: ot_stateChangeCallback:p <- $r0
	.loc	1 52 13                         @ ../das_subg_thread/app_task.c:52:13
	ldrb	r1, [r0]
	ldrb	r2, [r0, #1]
	ldrb	r3, [r0, #2]
	ldrb.w	r12, [r0, #3]
	ldrb.w	lr, [r0, #4]
	ldrb	r5, [r0, #5]
	ldrb	r6, [r0, #6]
	ldrb	r7, [r0, #7]
	movw	r0, :lower16:.L.str.6
.Ltmp42:
	movt	r0, :upper16:.L.str.6
	strd	r12, lr, [sp]
	strd	r5, r6, [sp, #8]
	str	r7, [sp, #16]
	bl	__2printf
.Ltmp43:
	.loc	1 55 29                         @ ../das_subg_thread/app_task.c:55:29
	mov	r0, r4
	bl	otThreadGetMeshLocalPrefix
.Ltmp44:
	@DEBUG_VALUE: ot_stateChangeCallback:p <- $r0
	.loc	1 56 13                         @ ../das_subg_thread/app_task.c:56:13
	ldrb	r1, [r0]
	ldrb	r2, [r0, #1]
	ldrb	r3, [r0, #2]
	ldrb	r7, [r0, #3]
	ldrb	r6, [r0, #4]
	ldrb	r5, [r0, #5]
	ldrb.w	r12, [r0, #6]
	ldrb.w	lr, [r0, #7]
	adr	r0, .LCPI1_1
.Ltmp45:
	strd	r7, r6, [sp]
	strd	r5, r12, [sp, #8]
	str.w	lr, [sp, #16]
	bl	__2printf
.Ltmp46:
	.loc	1 59 29                         @ ../das_subg_thread/app_task.c:59:29
	mov	r0, r4
	bl	otThreadGetLinkLocalIp6Address
.Ltmp47:
	@DEBUG_VALUE: ot_stateChangeCallback:p <- $r0
	.loc	1 60 13                         @ ../das_subg_thread/app_task.c:60:13
	ldrb	r1, [r0]
	ldrb	r7, [r0, #3]
	str	r1, [sp, #64]                   @ 4-byte Spill
	ldrb	r1, [r0, #1]
	ldrb	r6, [r0, #4]
	str	r1, [sp, #60]                   @ 4-byte Spill
	ldrb	r1, [r0, #2]
	ldrb.w	r11, [r0, #5]
	str	r1, [sp, #56]                   @ 4-byte Spill
	ldrb.w	r12, [r0, #6]
	ldrb.w	lr, [r0, #7]
	ldrb.w	r8, [r0, #8]
	ldrb.w	r9, [r0, #9]
	ldrb.w	r10, [r0, #10]
	ldrb	r5, [r0, #11]
	ldrb	r1, [r0, #12]
	ldrb	r2, [r0, #13]
	ldrb	r3, [r0, #14]
	ldrb	r0, [r0, #15]
.Ltmp48:
	strd	r5, r1, [sp, #32]
	str	r0, [sp, #48]
	add	r0, sp, #8
	strd	r2, r3, [sp, #40]
	stm.w	r0, {r11, r12, lr}
	movw	r0, :lower16:.L.str.8
	ldr	r1, [sp, #64]                   @ 4-byte Reload
	ldrd	r3, r2, [sp, #56]               @ 8-byte Folded Reload
	movt	r0, :upper16:.L.str.8
	strd	r7, r6, [sp]
	strd	r8, r9, [sp, #20]
	str.w	r10, [sp, #28]
	bl	__2printf
.Ltmp49:
	.loc	1 63 13                         @ ../das_subg_thread/app_task.c:63:13
	mov	r0, r4
	bl	otThreadGetRloc16
.Ltmp50:
	mov	r1, r0
	adr	r0, .LCPI1_2
	bl	__2printf
.Ltmp51:
	.loc	1 65 29                         @ ../das_subg_thread/app_task.c:65:29
	mov	r0, r4
	bl	otThreadGetRloc
.Ltmp52:
	@DEBUG_VALUE: ot_stateChangeCallback:p <- $r0
	.loc	1 66 13                         @ ../das_subg_thread/app_task.c:66:13
	ldrb	r1, [r0]
	ldrb	r3, [r0, #2]
	str	r1, [sp, #64]                   @ 4-byte Spill
	ldrb	r1, [r0, #1]
	ldrb	r7, [r0, #3]
	str	r1, [sp, #60]                   @ 4-byte Spill
	ldrb	r6, [r0, #4]
	ldrb.w	r11, [r0, #5]
	ldrb.w	r10, [r0, #6]
	ldrb.w	r12, [r0, #7]
	ldrb.w	lr, [r0, #8]
	ldrb.w	r8, [r0, #9]
	ldrb.w	r9, [r0, #10]
	ldrb	r4, [r0, #11]
.Ltmp53:
	@DEBUG_VALUE: ot_stateChangeCallback:p_context <- [DW_OP_LLVM_entry_value 1] $r1
	ldrb	r5, [r0, #12]
	ldrb	r1, [r0, #13]
	ldrb	r2, [r0, #14]
	ldrb	r0, [r0, #15]
.Ltmp54:
	strd	r1, r2, [sp, #40]
	str	r0, [sp, #48]
	movw	r0, :lower16:.L.str.10
	ldrd	r2, r1, [sp, #60]               @ 8-byte Folded Reload
	movt	r0, :upper16:.L.str.10
	strd	r4, r5, [sp, #32]
	strd	r7, r6, [sp]
	strd	r11, r10, [sp, #8]
	strd	r12, lr, [sp, #16]
	str.w	r8, [sp, #24]
	str.w	r9, [sp, #28]
	bl	__2printf
.Ltmp55:
.LBB1_5:
	@DEBUG_VALUE: ot_stateChangeCallback:flags <- [DW_OP_LLVM_entry_value 1] $r0
	.loc	1 70 1                          @ ../das_subg_thread/app_task.c:70:1
	add	sp, #68
	pop.w	{r4, r5, r6, r7, r8, r9, r10, r11, pc}
.Ltmp56:
	.p2align	2
@ %bb.6:
	.loc	1 0 1 is_stmt 0                 @ ../das_subg_thread/app_task.c:0:1
.LCPI1_0:
.L.str.5:
	.asciz	"Current role       : %s\r\n\000\000"
.LCPI1_1:
.L.str.7:
	.asciz	"Local Prefx        : %02x%02x:%02x%02x:%02x%02x:%02x%02x\r\n\000"
.LCPI1_2:
.L.str.9:
	.asciz	"Rloc16             : %x\r\n\000\000"
.Lfunc_end1:
	.size	ot_stateChangeCallback, .Lfunc_end1-ot_stateChangeCallback
	.cfi_endproc
	.cantunwind
	.fnend
                                        @ -- End function
	.section	.text.app_udp_cb,"ax",%progbits
	.p2align	2                               @ -- Begin function app_udp_cb
	.type	app_udp_cb,%function
	.code	16                              @ @app_udp_cb
	.thumb_func
app_udp_cb:
.Lfunc_begin2:
	.loc	1 73 0 is_stmt 1                @ ../das_subg_thread/app_task.c:73:0
	.fnstart
	.cfi_startproc
@ %bb.0:
	@DEBUG_VALUE: app_udp_cb:otMsg <- $r0
	@DEBUG_VALUE: app_udp_cb:otInfo <- $r1
	.save	{r4, r5, r6, r7, r8, lr}
	push.w	{r4, r5, r6, r7, r8, lr}
	.cfi_def_cfa_offset 24
	.cfi_offset lr, -4
	.cfi_offset r8, -8
	.cfi_offset r7, -12
	.cfi_offset r6, -16
	.cfi_offset r5, -20
	.cfi_offset r4, -24
	.pad	#56
	sub	sp, #56
	.cfi_def_cfa_offset 80
	mov	r8, r1
.Ltmp57:
	@DEBUG_VALUE: app_udp_cb:otInfo <- $r8
	mov	r7, r0
.Ltmp58:
	@DEBUG_VALUE: app_udp_cb:otMsg <- $r7
	@DEBUG_VALUE: app_udp_cb:is_multicast <- 0
	@DEBUG_VALUE: app_udp_cb:p <- 0
	@DEBUG_VALUE: app_udp_cb:otInfo <- $r8
	@DEBUG_VALUE: app_udp_cb:otMsg <- $r7
	.loc	1 78 28 prologue_end            @ ../das_subg_thread/app_task.c:78:28
	bl	otrGetInstance
.Ltmp59:
	@DEBUG_VALUE: app_udp_cb:instance <- undef
	.loc	1 81 35                         @ ../das_subg_thread/app_task.c:81:35
	add.w	r0, r8, #16
	add	r1, sp, #12
	.loc	1 81 5 is_stmt 0                @ ../das_subg_thread/app_task.c:81:5
	movs	r2, #40
	bl	otIp6AddressToString
.Ltmp60:
	.loc	1 82 11 is_stmt 1               @ ../das_subg_thread/app_task.c:82:11
	mov	r0, r7
	bl	otMessageGetLength
.Ltmp61:
	mov	r5, r0
	.loc	1 82 39 is_stmt 0               @ ../das_subg_thread/app_task.c:82:39
	mov	r0, r7
	bl	otMessageGetOffset
.Ltmp62:
	.loc	1 82 37                         @ ../das_subg_thread/app_task.c:82:37
	subs	r0, r5, r0
.Ltmp63:
	@DEBUG_VALUE: app_udp_cb:len <- $r0
	.loc	1 84 22 is_stmt 1               @ ../das_subg_thread/app_task.c:84:22
	uxth	r6, r0
	.loc	1 84 9 is_stmt 0                @ ../das_subg_thread/app_task.c:84:9
	mov	r0, r6
.Ltmp64:
	bl	pvPortMalloc
.Ltmp65:
	@DEBUG_VALUE: app_udp_cb:p <- $r0
	.loc	1 88 13 is_stmt 1               @ ../das_subg_thread/app_task.c:88:13
	cmp	r0, #0
.Ltmp66:
	.loc	1 84 7                          @ ../das_subg_thread/app_task.c:84:7
	str	r0, [sp, #52]
.Ltmp67:
	.loc	1 88 13                         @ ../das_subg_thread/app_task.c:88:13
	beq	.LBB2_9
.Ltmp68:
@ %bb.1:
	@DEBUG_VALUE: app_udp_cb:otInfo <- $r8
	@DEBUG_VALUE: app_udp_cb:otMsg <- $r7
	@DEBUG_VALUE: app_udp_cb:p <- $r0
	@DEBUG_VALUE: app_udp_cb:is_multicast <- 0
	.loc	1 93 9                          @ ../das_subg_thread/app_task.c:93:9
	mov	r1, r6
.Ltmp69:
	.loc	1 0 0 is_stmt 0                 @ ../das_subg_thread/app_task.c:0:0
	mov	r4, r0
.Ltmp70:
	@DEBUG_VALUE: app_udp_cb:p <- $r4
	.loc	1 93 9                          @ ../das_subg_thread/app_task.c:93:9
	bl	__aeabi_memclr
.Ltmp71:
	.loc	1 94 30 is_stmt 1               @ ../das_subg_thread/app_task.c:94:30
	mov	r0, r7
	bl	otMessageGetOffset
.Ltmp72:
	mov	r1, r0
	@DEBUG_VALUE: app_udp_cb:p <- $r4
	.loc	1 94 9 is_stmt 0                @ ../das_subg_thread/app_task.c:94:9
	mov	r0, r7
	mov	r2, r4
	mov	r3, r6
	bl	otMessageRead
.Ltmp73:
	.loc	1 96 9 is_stmt 1                @ ../das_subg_thread/app_task.c:96:9
	adr	r0, .LCPI2_0
	mov	r1, r6
	bl	__2printf
.Ltmp74:
	.loc	1 97 9                          @ ../das_subg_thread/app_task.c:97:9
	adr	r0, .LCPI2_1
	add	r1, sp, #12
	bl	__2printf
.Ltmp75:
	.loc	1 98 9                          @ ../das_subg_thread/app_task.c:98:9
	ldrh.w	r1, [r8, #32]
	adr	r0, .LCPI2_2
	bl	__2printf
.Ltmp76:
	.loc	1 100 9                         @ ../das_subg_thread/app_task.c:100:9
	adr	r0, .LCPI2_3
	adr	r1, .LCPI2_4
	bl	__2printf
.Ltmp77:
	@DEBUG_VALUE: i <- 0
	.loc	1 100 9 is_stmt 0               @ ../das_subg_thread/app_task.c:100:9
	cbz	r6, .LBB2_4
.Ltmp78:
@ %bb.2:
	@DEBUG_VALUE: app_udp_cb:otInfo <- $r8
	@DEBUG_VALUE: app_udp_cb:otMsg <- $r7
	@DEBUG_VALUE: app_udp_cb:p <- $r4
	@DEBUG_VALUE: i <- 0
	@DEBUG_VALUE: app_udp_cb:is_multicast <- 0
	.loc	1 0 9                           @ ../das_subg_thread/app_task.c:0:9
	adr	r7, .LCPI2_5
.Ltmp79:
	mov	r5, r4
.Ltmp80:
	.p2align	2
.LBB2_3:                                @ =>This Inner Loop Header: Depth=1
	@DEBUG_VALUE: app_udp_cb:otInfo <- $r8
	@DEBUG_VALUE: app_udp_cb:p <- $r4
	@DEBUG_VALUE: app_udp_cb:is_multicast <- 0
	@DEBUG_VALUE: app_udp_cb:p <- $r4
	@DEBUG_VALUE: i <- undef
	.loc	1 100 9                         @ ../das_subg_thread/app_task.c:100:9
	ldrb	r1, [r5], #1
	mov	r0, r7
	bl	__2printf
.Ltmp81:
	@DEBUG_VALUE: i <- [DW_OP_plus_uconst 1, DW_OP_stack_value] undef
	subs	r6, #1
.Ltmp82:
	.loc	1 100 9                         @ ../das_subg_thread/app_task.c:100:9
	bne	.LBB2_3
.Ltmp83:
.LBB2_4:
	@DEBUG_VALUE: app_udp_cb:otInfo <- $r8
	@DEBUG_VALUE: app_udp_cb:p <- $r4
	@DEBUG_VALUE: app_udp_cb:is_multicast <- 0
	.loc	1 100 9                         @ ../das_subg_thread/app_task.c:100:9
	adr	r0, .LCPI2_6
	bl	puts
.Ltmp84:
	@DEBUG_VALUE: app_udp_cb:p <- [DW_OP_plus_uconst 52, DW_OP_deref] $sp
	.loc	1 102 13 is_stmt 1              @ ../das_subg_thread/app_task.c:102:13
	movw	r1, :lower16:.L.str.18
	movt	r1, :upper16:.L.str.18
	add	r0, sp, #52
	movs	r2, #3
	bl	memcmp
.Ltmp85:
	.loc	1 102 13 is_stmt 0              @ ../das_subg_thread/app_task.c:102:13
	cbz	r0, .LBB2_8
.Ltmp86:
@ %bb.5:
	@DEBUG_VALUE: app_udp_cb:otInfo <- $r8
	@DEBUG_VALUE: app_udp_cb:p <- [DW_OP_plus_uconst 52, DW_OP_deref] $sp
	@DEBUG_VALUE: app_udp_cb:is_multicast <- 0
	.loc	1 104 17 is_stmt 1              @ ../das_subg_thread/app_task.c:104:17
	ldrb.w	r0, [r8]
.Ltmp87:
	.loc	1 104 17 is_stmt 0              @ ../das_subg_thread/app_task.c:104:17
	cmp	r0, #255
	bne	.LBB2_7
.Ltmp88:
@ %bb.6:
	@DEBUG_VALUE: app_udp_cb:otInfo <- $r8
	@DEBUG_VALUE: app_udp_cb:p <- [DW_OP_plus_uconst 52, DW_OP_deref] $sp
	@DEBUG_VALUE: app_udp_cb:is_multicast <- 0
	.loc	1 106 21 is_stmt 1              @ ../das_subg_thread/app_task.c:106:21
	ldrb.w	r0, [r8, #1]
	.loc	1 106 61 is_stmt 0              @ ../das_subg_thread/app_task.c:106:61
	and	r0, r0, #254
	cmp	r0, #2
	beq	.LBB2_8
.Ltmp89:
.LBB2_7:
	@DEBUG_VALUE: app_udp_cb:otInfo <- $r8
	@DEBUG_VALUE: app_udp_cb:p <- [DW_OP_plus_uconst 52, DW_OP_deref] $sp
	@DEBUG_VALUE: app_udp_cb:is_multicast <- 0
	@DEBUG_VALUE: app_udp_cb:p <- $r4
	@DEBUG_VALUE: app_udp_cb:is_multicast <- undef
	.loc	1 0 61                          @ ../das_subg_thread/app_task.c:0:61
	movs	r0, #75
.Ltmp90:
	.loc	1 113 17 is_stmt 1              @ ../das_subg_thread/app_task.c:113:17
	strb	r0, [r4, #2]
	movw	r0, #17217
	strh	r0, [r4]
	.loc	1 114 17                        @ ../das_subg_thread/app_task.c:114:17
	adr	r0, .LCPI2_7
	bl	puts
.Ltmp91:
	.loc	1 115 17                        @ ../das_subg_thread/app_task.c:115:17
	add.w	r7, r8, #16
	.loc	1 115 37 is_stmt 0              @ ../das_subg_thread/app_task.c:115:37
	ldrh.w	r0, [r8, #32]
	.loc	1 115 17                        @ ../das_subg_thread/app_task.c:115:17
	ldm	r7, {r1, r2, r3, r7}
	movs	r6, #3
	str	r6, [sp, #8]
	strd	r7, r4, [sp]
	bl	app_udpSend
.Ltmp92:
	.loc	1 116 17 is_stmt 1              @ ../das_subg_thread/app_task.c:116:17
	adr	r0, .LCPI2_8
	bl	puts
.Ltmp93:
.LBB2_8:
	@DEBUG_VALUE: app_udp_cb:otInfo <- $r8
	@DEBUG_VALUE: app_udp_cb:p <- $r4
	.loc	1 123 9                         @ ../das_subg_thread/app_task.c:123:9
	mov	r0, r4
	bl	vPortFree
.Ltmp94:
.LBB2_9:
	@DEBUG_VALUE: app_udp_cb:otInfo <- $r8
	.loc	1 125 1                         @ ../das_subg_thread/app_task.c:125:1
	add	sp, #56
	pop.w	{r4, r5, r6, r7, r8, pc}
.Ltmp95:
	.p2align	2
@ %bb.10:
	.loc	1 0 1 is_stmt 0                 @ ../das_subg_thread/app_task.c:0:1
.LCPI2_0:
.L.str.11:
	.asciz	"Received len     : %d \r\n\000\000\000"
.LCPI2_1:
.L.str.12:
	.asciz	"Received ip      : %s \r\n\000\000\000"
.LCPI2_2:
.L.str.13:
	.asciz	"Received port    : %d \r\n\000\000\000"
.LCPI2_3:
.L.str.14:
	.asciz	"%s:\r\n\000\000"
.LCPI2_4:
.L.str.15:
	.asciz	"Received Message \000\000"
.LCPI2_5:
.L.str.16:
	.asciz	"%02x \000\000"
.LCPI2_6:
.Lstr:
	.asciz	"\r\000\000"
.LCPI2_7:
.Lstr.21:
	.asciz	"check 1 \r\000\000"
.LCPI2_8:
.Lstr.22:
	.asciz	"check 2 \r\000\000"
.Lfunc_end2:
	.size	app_udp_cb, .Lfunc_end2-app_udp_cb
	.cfi_endproc
	.cantunwind
	.fnend
                                        @ -- End function
	.section	.text.app_task,"ax",%progbits
	.hidden	app_task                        @ -- Begin function app_task
	.globl	app_task
	.p2align	1
	.type	app_task,%function
	.code	16                              @ @app_task
	.thumb_func
app_task:
.Lfunc_begin3:
	.loc	1 215 0 is_stmt 1               @ ../das_subg_thread/app_task.c:215:0
	.fnstart
	.cfi_startproc
@ %bb.0:
	.loc	1 216 20 prologue_end           @ ../das_subg_thread/app_task.c:216:20
	movs	r0, #1
	movs	r1, #0
	movs	r2, #3
	bl	xQueueGenericCreate
.Ltmp96:
	.loc	1 216 18 is_stmt 0              @ ../das_subg_thread/app_task.c:216:18
	movw	r4, :lower16:appSemHandle
	movt	r4, :upper16:appSemHandle
	str	r0, [r4]
	.p2align	2
.LBB3_1:                                @ =>This Inner Loop Header: Depth=1
.Ltmp97:
	.loc	1 220 13 is_stmt 1              @ ../das_subg_thread/app_task.c:220:13
	movw	r1, #10000
	bl	xQueueSemaphoreTake
.Ltmp98:
	ldr	r0, [r4]
.Ltmp99:
	.loc	1 218 5                         @ ../das_subg_thread/app_task.c:218:5
	b	.LBB3_1
.Ltmp100:
.Lfunc_end3:
	.size	app_task, .Lfunc_end3-app_task
	.cfi_endproc
	.cantunwind
	.fnend
                                        @ -- End function
	.type	otrInitUser.aNetworkName,%object @ @otrInitUser.aNetworkName
	.section	.data.otrInitUser.aNetworkName,"aw",%progbits
	.p2align	2
otrInitUser.aNetworkName:
	.asciz	"Thread_RT58X"
	.size	otrInitUser.aNetworkName, 13

	.type	.L.str,%object                  @ @.str
	.section	.rodata.str1.1,"aMS",%progbits,1
.L.str:
	.asciz	"Thread version     : %s\r\n"
	.size	.L.str, 26

	.type	appSemHandle,%object            @ @appSemHandle
	.section	.bss.appSemHandle,"aw",%nobits
	.p2align	2
appSemHandle:
	.long	0
	.size	appSemHandle, 4

	.type	.L.str.6,%object                @ @.str.6
	.section	.rodata.str1.1,"aMS",%progbits,1
.L.str.6:
	.asciz	"Extend Address     : %02x%02x-%02x%02x-%02x%02x-%02x%02x\r\n"
	.size	.L.str.6, 59

	.type	.L.str.8,%object                @ @.str.8
.L.str.8:
	.asciz	"IPv6 Address       : %02x%02x:%02x%02x:%02x%02x:%02x%02x:%02x%02x:%02x%02x:%02x%02x:%02x%02x\r\n"
	.size	.L.str.8, 95

	.type	.L.str.10,%object               @ @.str.10
.L.str.10:
	.asciz	"Rloc               : %02x%02x:%02x%02x:%02x%02x:%02x%02x:%02x%02x:%02x%02x:%02x%02x:%02x%02x\r\n"
	.size	.L.str.10, 95

	.type	.L.str.18,%object               @ @.str.18
.L.str.18:
	.asciz	"ACK"
	.size	.L.str.18, 4

	.globl	_printf_percent
	.globl	_printf_flags
	.globl	_printf_widthprec
	.globl	_printf_pre_padding
	.globl	_printf_s
	.globl	_printf_x
	.globl	_printf_d
	.globl	_printf_int_dec
	.globl	_printf_longlong_hex
	.globl	_printf_str
	.hidden	_printf_percent
	.hidden	_printf_flags
	.hidden	_printf_widthprec
	.hidden	_printf_pre_padding
	.hidden	_printf_s
	.hidden	_printf_x
	.hidden	_printf_d
	.hidden	_printf_int_dec
	.hidden	_printf_longlong_hex
	.hidden	_printf_str
	.file	10 "D:\\20240115\\rafael-iot-sdk-das\\examples\\das_subg_thread\\keil" "../../../components/network/thread/subg_openthread/include\\openthread/dataset.h"
	.file	11 "D:\\20240115\\rafael-iot-sdk-das\\examples\\das_subg_thread\\keil" "../../../components/network/thread/subg_openthread/include\\openthread/ip6.h"
	.file	12 "D:\\20240115\\rafael-iot-sdk-das\\examples\\das_subg_thread\\keil" "../../../components/network/thread/subg_openthread/include\\openthread/platform/radio.h"
	.file	13 "C:\\Keil_v5\\ARM\\ARMCLANG\\Bin\\..\\include" "stddef.h"
	.file	14 "D:\\20240115\\rafael-iot-sdk-das\\examples\\das_subg_thread\\keil" "../../../components/network/thread/subg_openthread/include\\openthread/message.h"
	.section	".note.GNU-stack","",%progbits
	.eabi_attribute	30, 3	@ Tag_ABI_optimization_goals
	.ARM_attribute	16, 1	@ Tag_AV_eba