	.text
	.syntax unified
	.eabi_attribute	67, "2.09"	@ Tag_conformance
	.cpu	cortex-m3
	.eabi_attribute	6, 10	@ Tag_CPU_arch
	.eabi_attribute	7, 77	@ Tag_CPU_arch_profile
	.eabi_attribute	8, 0	@ Tag_ARM_ISA_use
	.eabi_attribute	9, 2	@ Tag_THUMB_ISA_use
	.eabi_attribute	34, 1	@ Tag_CPU_unaligned_access
	.eabi_attribute	17, 1	@ Tag_ABI_PCS_GOT_use
	.eabi_attribute	20, 2	@ Tag_ABI_FP_denormal
	.eabi_attribute	21, 0	@ Tag_ABI_FP_exceptions
	.eabi_attribute	23, 1	@ Tag_ABI_FP_number_model
	.eabi_attribute	24, 1	@ Tag_ABI_align_needed
	.eabi_attribute	25, 1	@ Tag_ABI_align_preserved
	.eabi_attribute	38, 1	@ Tag_ABI_FP_16bit_format
	.eabi_attribute	18, 4	@ Tag_ABI_PCS_wchar_t
	.eabi_attribute	26, 2	@ Tag_ABI_enum_size
	.eabi_attribute	14, 0	@ Tag_ABI_PCS_R9_use
	.file	"asn1parse.c"
	.file	1 "C:\\" "Keil_v5\\ARM\\ARMCLANG\\Bin\\..\\include\\stdio.h"
	.file	2 "C:\\Users\\testo\\Desktop\\rafael-iot-sdk-das -0515\\examples\\das_subg_thread\\keil" "../../../components/network/thread/subg_openthread/third_party/mbedtls/repo/library/asn1parse.c"
	.file	3 "C:\\Users\\testo\\Desktop\\rafael-iot-sdk-das -0515\\examples\\das_subg_thread\\keil" "../../../components/network/thread/subg_openthread/third_party/mbedtls/repo/include\\mbedtls/asn1.h"
	.section	.text.mbedtls_asn1_get_len,"ax",%progbits
	.hidden	mbedtls_asn1_get_len            @ -- Begin function mbedtls_asn1_get_len
	.globl	mbedtls_asn1_get_len
	.p2align	2
	.type	mbedtls_asn1_get_len,%function
	.code	16                              @ @mbedtls_asn1_get_len
	.thumb_func
mbedtls_asn1_get_len:
.Lfunc_begin0:
	.loc	2 48 0                          @ ../../../components/network/thread/subg_openthread/third_party/mbedtls/repo/library/asn1parse.c:48:0
	.fnstart
	.cfi_sections .debug_frame
	.cfi_startproc
@ %bb.0:
	@DEBUG_VALUE: mbedtls_asn1_get_len:p <- $r0
	@DEBUG_VALUE: mbedtls_asn1_get_len:p <- $r0
	@DEBUG_VALUE: mbedtls_asn1_get_len:end <- $r1
	@DEBUG_VALUE: mbedtls_asn1_get_len:len <- $r2
	.save	{r4, r5, r6, lr}
	push	{r4, r5, r6, lr}
	.cfi_def_cfa_offset 16
	.cfi_offset lr, -4
	.cfi_offset r6, -8
	.cfi_offset r5, -12
	.cfi_offset r4, -16
.Ltmp0:
	.loc	2 49 17 prologue_end            @ ../../../components/network/thread/subg_openthread/third_party/mbedtls/repo/library/asn1parse.c:49:17
	ldr	r6, [r0]
	@DEBUG_VALUE: mbedtls_asn1_get_len:end <- $r1
	.loc	2 49 15 is_stmt 0               @ ../../../components/network/thread/subg_openthread/third_party/mbedtls/repo/library/asn1parse.c:49:15
	subs	r3, r1, r6
.Ltmp1:
	.loc	2 49 9                          @ ../../../components/network/thread/subg_openthread/third_party/mbedtls/repo/library/asn1parse.c:49:9
	cmp	r3, #1
	@DEBUG_VALUE: mbedtls_asn1_get_len:len <- $r2
	blt	.LBB0_14
.Ltmp2:
@ %bb.1:
	@DEBUG_VALUE: mbedtls_asn1_get_len:len <- $r2
	@DEBUG_VALUE: mbedtls_asn1_get_len:end <- $r1
	@DEBUG_VALUE: mbedtls_asn1_get_len:p <- $r0
	.loc	2 52 11 is_stmt 1               @ ../../../components/network/thread/subg_openthread/third_party/mbedtls/repo/library/asn1parse.c:52:11
	ldrb	r4, [r6]
.Ltmp3:
	.loc	2 52 9 is_stmt 0                @ ../../../components/network/thread/subg_openthread/third_party/mbedtls/repo/library/asn1parse.c:52:9
	lsls	r5, r4, #24
	bmi	.LBB0_3
.Ltmp4:
@ %bb.2:
	@DEBUG_VALUE: mbedtls_asn1_get_len:len <- $r2
	@DEBUG_VALUE: mbedtls_asn1_get_len:end <- $r1
	@DEBUG_VALUE: mbedtls_asn1_get_len:p <- $r0
	.loc	2 53 21 is_stmt 1               @ ../../../components/network/thread/subg_openthread/third_party/mbedtls/repo/library/asn1parse.c:53:21
	add.w	lr, r6, #1
	str.w	lr, [r0]
	.loc	2 53 16 is_stmt 0               @ ../../../components/network/thread/subg_openthread/third_party/mbedtls/repo/library/asn1parse.c:53:16
	ldrb.w	r12, [r6]
	.loc	2 53 14                         @ ../../../components/network/thread/subg_openthread/third_party/mbedtls/repo/library/asn1parse.c:53:14
	str.w	r12, [r2]
	b	.LBB0_19
.Ltmp5:
.LBB0_3:
	@DEBUG_VALUE: mbedtls_asn1_get_len:len <- $r2
	@DEBUG_VALUE: mbedtls_asn1_get_len:end <- $r1
	@DEBUG_VALUE: mbedtls_asn1_get_len:p <- $r0
	.loc	2 56 21 is_stmt 1               @ ../../../components/network/thread/subg_openthread/third_party/mbedtls/repo/library/asn1parse.c:56:21
	and	r5, r4, #127
	.loc	2 56 9 is_stmt 0                @ ../../../components/network/thread/subg_openthread/third_party/mbedtls/repo/library/asn1parse.c:56:9
	sub.w	r12, r5, #1
	cmp.w	r12, #3
	bhi	.LBB0_12
.Ltmp6:
@ %bb.4:
	@DEBUG_VALUE: mbedtls_asn1_get_len:len <- $r2
	@DEBUG_VALUE: mbedtls_asn1_get_len:end <- $r1
	@DEBUG_VALUE: mbedtls_asn1_get_len:p <- $r0
	.loc	2 0 9                           @ ../../../components/network/thread/subg_openthread/third_party/mbedtls/repo/library/asn1parse.c:0:9
.LCPI0_0:
	tbb	[pc, r12]
.Ltmp7:
@ %bb.5:
.LJTI0_0:
	.byte	(.LBB0_6-(.LCPI0_0+4))/2
	.byte	(.LBB0_13-(.LCPI0_0+4))/2
	.byte	(.LBB0_8-(.LCPI0_0+4))/2
	.byte	(.LBB0_10-(.LCPI0_0+4))/2
	.p2align	1
.LBB0_6:
.Ltmp8:
	@DEBUG_VALUE: mbedtls_asn1_get_len:len <- $r2
	@DEBUG_VALUE: mbedtls_asn1_get_len:end <- $r1
	@DEBUG_VALUE: mbedtls_asn1_get_len:p <- $r0
	.loc	2 59 17 is_stmt 1               @ ../../../components/network/thread/subg_openthread/third_party/mbedtls/repo/library/asn1parse.c:59:17
	cmp	r3, #2
	blt	.LBB0_14
.Ltmp9:
@ %bb.7:
	@DEBUG_VALUE: mbedtls_asn1_get_len:len <- $r2
	@DEBUG_VALUE: mbedtls_asn1_get_len:end <- $r1
	@DEBUG_VALUE: mbedtls_asn1_get_len:p <- $r0
	.loc	2 62 20                         @ ../../../components/network/thread/subg_openthread/third_party/mbedtls/repo/library/asn1parse.c:62:20
	ldrb.w	r12, [r6, #1]
	.loc	2 63 18                         @ ../../../components/network/thread/subg_openthread/third_party/mbedtls/repo/library/asn1parse.c:63:18
	add.w	lr, r6, #2
	b	.LBB0_17
.Ltmp10:
.LBB0_8:
	@DEBUG_VALUE: mbedtls_asn1_get_len:len <- $r2
	@DEBUG_VALUE: mbedtls_asn1_get_len:end <- $r1
	@DEBUG_VALUE: mbedtls_asn1_get_len:p <- $r0
	.loc	2 75 17                         @ ../../../components/network/thread/subg_openthread/third_party/mbedtls/repo/library/asn1parse.c:75:17
	cmp	r3, #4
	blt	.LBB0_14
.Ltmp11:
@ %bb.9:
	@DEBUG_VALUE: mbedtls_asn1_get_len:len <- $r2
	@DEBUG_VALUE: mbedtls_asn1_get_len:end <- $r1
	@DEBUG_VALUE: mbedtls_asn1_get_len:p <- $r0
	.loc	2 79 30                         @ ../../../components/network/thread/subg_openthread/third_party/mbedtls/repo/library/asn1parse.c:79:30
	ldrb	r5, [r6, #2]
	.loc	2 78 30                         @ ../../../components/network/thread/subg_openthread/third_party/mbedtls/repo/library/asn1parse.c:78:30
	ldrb	r3, [r6, #1]
	.loc	2 79 48                         @ ../../../components/network/thread/subg_openthread/third_party/mbedtls/repo/library/asn1parse.c:79:48
	ldrb	r4, [r6, #3]
	.loc	2 79 38 is_stmt 0               @ ../../../components/network/thread/subg_openthread/third_party/mbedtls/repo/library/asn1parse.c:79:38
	lsls	r5, r5, #8
	.loc	2 78 46 is_stmt 1               @ ../../../components/network/thread/subg_openthread/third_party/mbedtls/repo/library/asn1parse.c:78:46
	orr.w	r3, r5, r3, lsl #16
	.loc	2 79 46                         @ ../../../components/network/thread/subg_openthread/third_party/mbedtls/repo/library/asn1parse.c:79:46
	add.w	r12, r3, r4
	.loc	2 78 18                         @ ../../../components/network/thread/subg_openthread/third_party/mbedtls/repo/library/asn1parse.c:78:18
	str.w	r12, [r2]
	.loc	2 80 18                         @ ../../../components/network/thread/subg_openthread/third_party/mbedtls/repo/library/asn1parse.c:80:18
	add.w	lr, r6, #4
	b	.LBB0_18
.Ltmp12:
.LBB0_10:
	@DEBUG_VALUE: mbedtls_asn1_get_len:len <- $r2
	@DEBUG_VALUE: mbedtls_asn1_get_len:end <- $r1
	@DEBUG_VALUE: mbedtls_asn1_get_len:p <- $r0
	.loc	2 84 17                         @ ../../../components/network/thread/subg_openthread/third_party/mbedtls/repo/library/asn1parse.c:84:17
	cmp	r3, #5
	blt	.LBB0_14
.Ltmp13:
@ %bb.11:
	@DEBUG_VALUE: mbedtls_asn1_get_len:len <- $r2
	@DEBUG_VALUE: mbedtls_asn1_get_len:end <- $r1
	@DEBUG_VALUE: mbedtls_asn1_get_len:p <- $r0
	.loc	2 88 46                         @ ../../../components/network/thread/subg_openthread/third_party/mbedtls/repo/library/asn1parse.c:88:46
	ldr.w	r3, [r6, #1]
	.loc	2 89 18                         @ ../../../components/network/thread/subg_openthread/third_party/mbedtls/repo/library/asn1parse.c:89:18
	add.w	lr, r6, #5
	b	.LBB0_16
.Ltmp14:
.LBB0_12:
	@DEBUG_VALUE: mbedtls_asn1_get_len:len <- $r2
	@DEBUG_VALUE: mbedtls_asn1_get_len:end <- $r1
	@DEBUG_VALUE: mbedtls_asn1_get_len:p <- $r0
	.loc	2 0 18 is_stmt 0                @ ../../../components/network/thread/subg_openthread/third_party/mbedtls/repo/library/asn1parse.c:0:18
	mvn	r0, #99
.Ltmp15:
	@DEBUG_VALUE: mbedtls_asn1_get_len:p <- [DW_OP_LLVM_entry_value 1] $r0
	pop	{r4, r5, r6, pc}
.Ltmp16:
.LBB0_13:
	@DEBUG_VALUE: mbedtls_asn1_get_len:len <- $r2
	@DEBUG_VALUE: mbedtls_asn1_get_len:end <- $r1
	@DEBUG_VALUE: mbedtls_asn1_get_len:p <- $r0
	.loc	2 67 17 is_stmt 1               @ ../../../components/network/thread/subg_openthread/third_party/mbedtls/repo/library/asn1parse.c:67:17
	cmp	r3, #3
	bge	.LBB0_15
.Ltmp17:
.LBB0_14:
	@DEBUG_VALUE: mbedtls_asn1_get_len:len <- $r2
	@DEBUG_VALUE: mbedtls_asn1_get_len:end <- $r1
	@DEBUG_VALUE: mbedtls_asn1_get_len:p <- $r0
	.loc	2 0 17 is_stmt 0                @ ../../../components/network/thread/subg_openthread/third_party/mbedtls/repo/library/asn1parse.c:0:17
	mvn	r0, #95
.Ltmp18:
	@DEBUG_VALUE: mbedtls_asn1_get_len:p <- [DW_OP_LLVM_entry_value 1] $r0
	pop	{r4, r5, r6, pc}
.Ltmp19:
.LBB0_15:
	@DEBUG_VALUE: mbedtls_asn1_get_len:len <- $r2
	@DEBUG_VALUE: mbedtls_asn1_get_len:end <- $r1
	@DEBUG_VALUE: mbedtls_asn1_get_len:p <- $r0
	.loc	2 70 45 is_stmt 1               @ ../../../components/network/thread/subg_openthread/third_party/mbedtls/repo/library/asn1parse.c:70:45
	ldrh.w	r3, [r6, #1]
	.loc	2 71 18                         @ ../../../components/network/thread/subg_openthread/third_party/mbedtls/repo/library/asn1parse.c:71:18
	add.w	lr, r6, #3
	.loc	2 70 45                         @ ../../../components/network/thread/subg_openthread/third_party/mbedtls/repo/library/asn1parse.c:70:45
	lsls	r3, r3, #16
.Ltmp20:
.LBB0_16:
	@DEBUG_VALUE: mbedtls_asn1_get_len:len <- $r2
	@DEBUG_VALUE: mbedtls_asn1_get_len:end <- $r1
	@DEBUG_VALUE: mbedtls_asn1_get_len:p <- $r0
	.loc	2 0 0 is_stmt 0                 @ ../../../components/network/thread/subg_openthread/third_party/mbedtls/repo/library/asn1parse.c:0:0
	rev.w	r12, r3
.Ltmp21:
.LBB0_17:
	@DEBUG_VALUE: mbedtls_asn1_get_len:len <- $r2
	@DEBUG_VALUE: mbedtls_asn1_get_len:end <- $r1
	@DEBUG_VALUE: mbedtls_asn1_get_len:p <- $r0
	str.w	r12, [r2]
.Ltmp22:
.LBB0_18:
	@DEBUG_VALUE: mbedtls_asn1_get_len:len <- $r2
	@DEBUG_VALUE: mbedtls_asn1_get_len:end <- $r1
	@DEBUG_VALUE: mbedtls_asn1_get_len:p <- $r0
	str.w	lr, [r0]
.Ltmp23:
.LBB0_19:
	@DEBUG_VALUE: mbedtls_asn1_get_len:len <- $r2
	@DEBUG_VALUE: mbedtls_asn1_get_len:end <- $r1
	@DEBUG_VALUE: mbedtls_asn1_get_len:p <- $r0
	.loc	2 97 31 is_stmt 1               @ ../../../components/network/thread/subg_openthread/third_party/mbedtls/repo/library/asn1parse.c:97:31
	sub.w	r1, r1, lr
.Ltmp24:
	@DEBUG_VALUE: mbedtls_asn1_get_len:end <- [DW_OP_LLVM_entry_value 1] $r1
	.loc	2 0 31 is_stmt 0                @ ../../../components/network/thread/subg_openthread/third_party/mbedtls/repo/library/asn1parse.c:0:31
	movs	r0, #0
.Ltmp25:
	@DEBUG_VALUE: mbedtls_asn1_get_len:p <- [DW_OP_LLVM_entry_value 1] $r0
	.loc	2 97 9                          @ ../../../components/network/thread/subg_openthread/third_party/mbedtls/repo/library/asn1parse.c:97:9
	cmp	r12, r1
	it	hi
	mvnhi	r0, #95
	.loc	2 0 0                           @ ../../../components/network/thread/subg_openthread/third_party/mbedtls/repo/library/asn1parse.c:0:0
	pop	{r4, r5, r6, pc}
.Ltmp26:
.Lfunc_end0:
	.size	mbedtls_asn1_get_len, .Lfunc_end0-mbedtls_asn1_get_len
	.cfi_endproc
	.cantunwind
	.fnend
                                        @ -- End function
	.section	.text.mbedtls_asn1_get_tag,"ax",%progbits
	.hidden	mbedtls_asn1_get_tag            @ -- Begin function mbedtls_asn1_get_tag
	.globl	mbedtls_asn1_get_tag
	.p2align	1
	.type	mbedtls_asn1_get_tag,%function
	.code	16                              @ @mbedtls_asn1_get_tag
	.thumb_func
mbedtls_asn1_get_tag:
.Lfunc_begin1:
	.loc	2 106 0 is_stmt 1               @ ../../../components/network/thread/subg_openthread/third_party/mbedtls/repo/library/asn1parse.c:106:0
	.fnstart
	.cfi_startproc
@ %bb.0:
	@DEBUG_VALUE: mbedtls_asn1_get_tag:p <- $r0
	@DEBUG_VALUE: mbedtls_asn1_get_tag:p <- $r0
	@DEBUG_VALUE: mbedtls_asn1_get_tag:end <- $r1
	@DEBUG_VALUE: mbedtls_asn1_get_tag:len <- $r2
	@DEBUG_VALUE: mbedtls_asn1_get_tag:tag <- $r3
	@DEBUG_VALUE: mbedtls_asn1_get_tag:tag <- $r3
	.save	{r7, lr}
	push	{r7, lr}
	.cfi_def_cfa_offset 8
	.cfi_offset lr, -4
	.cfi_offset r7, -8
.Ltmp27:
	.loc	2 107 17 prologue_end           @ ../../../components/network/thread/subg_openthread/third_party/mbedtls/repo/library/asn1parse.c:107:17
	ldr.w	r12, [r0]
	@DEBUG_VALUE: mbedtls_asn1_get_tag:end <- $r1
	.loc	2 107 15 is_stmt 0              @ ../../../components/network/thread/subg_openthread/third_party/mbedtls/repo/library/asn1parse.c:107:15
	sub.w	lr, r1, r12
.Ltmp28:
	.loc	2 107 9                         @ ../../../components/network/thread/subg_openthread/third_party/mbedtls/repo/library/asn1parse.c:107:9
	cmp.w	lr, #1
	@DEBUG_VALUE: mbedtls_asn1_get_tag:len <- $r2
	blt	.LBB1_3
.Ltmp29:
@ %bb.1:
	@DEBUG_VALUE: mbedtls_asn1_get_tag:tag <- $r3
	@DEBUG_VALUE: mbedtls_asn1_get_tag:len <- $r2
	@DEBUG_VALUE: mbedtls_asn1_get_tag:end <- $r1
	@DEBUG_VALUE: mbedtls_asn1_get_tag:p <- $r0
	.loc	2 110 9 is_stmt 1               @ ../../../components/network/thread/subg_openthread/third_party/mbedtls/repo/library/asn1parse.c:110:9
	ldrb.w	lr, [r12]
.Ltmp30:
	.loc	2 110 9 is_stmt 0               @ ../../../components/network/thread/subg_openthread/third_party/mbedtls/repo/library/asn1parse.c:110:9
	cmp	lr, r3
	itt	ne
	mvnne	r0, #97
.Ltmp31:
	@DEBUG_VALUE: mbedtls_asn1_get_tag:p <- [DW_OP_LLVM_entry_value 1] $r0
	.loc	2 116 1 is_stmt 1               @ ../../../components/network/thread/subg_openthread/third_party/mbedtls/repo/library/asn1parse.c:116:1
	popne	{r7, pc}
.Ltmp32:
.LBB1_2:
	@DEBUG_VALUE: mbedtls_asn1_get_tag:tag <- $r3
	@DEBUG_VALUE: mbedtls_asn1_get_tag:len <- $r2
	@DEBUG_VALUE: mbedtls_asn1_get_tag:end <- $r1
	@DEBUG_VALUE: mbedtls_asn1_get_tag:p <- [DW_OP_LLVM_entry_value 1] $r0
	.loc	2 113 9                         @ ../../../components/network/thread/subg_openthread/third_party/mbedtls/repo/library/asn1parse.c:113:9
	add.w	r3, r12, #1
.Ltmp33:
	@DEBUG_VALUE: mbedtls_asn1_get_tag:tag <- [DW_OP_LLVM_entry_value 1] $r3
	str	r3, [r0]
	.loc	2 115 13                        @ ../../../components/network/thread/subg_openthread/third_party/mbedtls/repo/library/asn1parse.c:115:13
	pop.w	{r7, lr}
.Ltmp34:
	b	mbedtls_asn1_get_len
.Ltmp35:
.LBB1_3:
	@DEBUG_VALUE: mbedtls_asn1_get_tag:tag <- $r3
	@DEBUG_VALUE: mbedtls_asn1_get_tag:len <- $r2
	@DEBUG_VALUE: mbedtls_asn1_get_tag:end <- $r1
	@DEBUG_VALUE: mbedtls_asn1_get_tag:p <- $r0
	.loc	2 0 13 is_stmt 0                @ ../../../components/network/thread/subg_openthread/third_party/mbedtls/repo/library/asn1parse.c:0:13
	mvn	r0, #95
.Ltmp36:
	@DEBUG_VALUE: mbedtls_asn1_get_tag:p <- [DW_OP_LLVM_entry_value 1] $r0
	.loc	2 116 1 is_stmt 1               @ ../../../components/network/thread/subg_openthread/third_party/mbedtls/repo/library/asn1parse.c:116:1
	pop	{r7, pc}
.Ltmp37:
.Lfunc_end1:
	.size	mbedtls_asn1_get_tag, .Lfunc_end1-mbedtls_asn1_get_tag
	.cfi_endproc
	.cantunwind
	.fnend
                                        @ -- End function
	.section	.text.mbedtls_asn1_get_bool,"ax",%progbits
	.hidden	mbedtls_asn1_get_bool           @ -- Begin function mbedtls_asn1_get_bool
	.globl	mbedtls_asn1_get_bool
	.p2align	1
	.type	mbedtls_asn1_get_bool,%function
	.code	16                              @ @mbedtls_asn1_get_bool
	.thumb_func
mbedtls_asn1_get_bool:
.Lfunc_begin2:
	.loc	2 121 0                         @ ../../../components/network/thread/subg_openthread/third_party/mbedtls/repo/library/asn1parse.c:121:0
	.fnstart
	.cfi_startproc
@ %bb.0:
	@DEBUG_VALUE: mbedtls_asn1_get_bool:p <- $r0
	@DEBUG_VALUE: mbedtls_asn1_get_bool:end <- $r1
	@DEBUG_VALUE: mbedtls_asn1_get_bool:val <- $r2
	.save	{r4, r5, r7, lr}
	push	{r4, r5, r7, lr}
	.cfi_def_cfa_offset 16
	.cfi_offset lr, -4
	.cfi_offset r7, -8
	.cfi_offset r5, -12
	.cfi_offset r4, -16
	.pad	#8
	sub	sp, #8
	.cfi_def_cfa_offset 24
	mov	r4, r0
.Ltmp38:
	@DEBUG_VALUE: mbedtls_asn1_get_tag:tag <- 1
	@DEBUG_VALUE: mbedtls_asn1_get_tag:len <- [DW_OP_plus_uconst 4, DW_OP_stack_value] $sp
	@DEBUG_VALUE: mbedtls_asn1_get_tag:end <- undef
	@DEBUG_VALUE: mbedtls_asn1_get_tag:p <- $r4
	@DEBUG_VALUE: mbedtls_asn1_get_bool:len <- [DW_OP_plus_uconst 4, DW_OP_deref] $sp
	@DEBUG_VALUE: mbedtls_asn1_get_bool:ret <- -110
	@DEBUG_VALUE: mbedtls_asn1_get_bool:p <- $r4
	.loc	2 107 17 prologue_end           @ ../../../components/network/thread/subg_openthread/third_party/mbedtls/repo/library/asn1parse.c:107:17
	ldr	r0, [r0]
	@DEBUG_VALUE: mbedtls_asn1_get_bool:end <- $r1
	.loc	2 107 15 is_stmt 0              @ ../../../components/network/thread/subg_openthread/third_party/mbedtls/repo/library/asn1parse.c:107:15
	subs	r3, r1, r0
.Ltmp39:
	.loc	2 107 9                         @ ../../../components/network/thread/subg_openthread/third_party/mbedtls/repo/library/asn1parse.c:107:9
	cmp	r3, #1
	@DEBUG_VALUE: mbedtls_asn1_get_bool:val <- $r2
	blt	.LBB2_5
.Ltmp40:
@ %bb.1:
	@DEBUG_VALUE: mbedtls_asn1_get_bool:p <- $r4
	@DEBUG_VALUE: mbedtls_asn1_get_tag:p <- $r4
	@DEBUG_VALUE: mbedtls_asn1_get_bool:val <- $r2
	@DEBUG_VALUE: mbedtls_asn1_get_bool:end <- $r1
	@DEBUG_VALUE: mbedtls_asn1_get_bool:len <- [DW_OP_plus_uconst 4, DW_OP_deref] $sp
	@DEBUG_VALUE: mbedtls_asn1_get_tag:len <- [DW_OP_plus_uconst 4, DW_OP_stack_value] $sp
	@DEBUG_VALUE: mbedtls_asn1_get_bool:ret <- -110
	@DEBUG_VALUE: mbedtls_asn1_get_tag:tag <- 1
	.loc	2 0 9                           @ ../../../components/network/thread/subg_openthread/third_party/mbedtls/repo/library/asn1parse.c:0:9
	mov	r5, r2
.Ltmp41:
	@DEBUG_VALUE: mbedtls_asn1_get_bool:val <- $r5
	@DEBUG_VALUE: mbedtls_asn1_get_bool:val <- $r5
	.loc	2 110 9 is_stmt 1               @ ../../../components/network/thread/subg_openthread/third_party/mbedtls/repo/library/asn1parse.c:110:9
	ldrb	r2, [r0]
.Ltmp42:
	.loc	2 110 9 is_stmt 0               @ ../../../components/network/thread/subg_openthread/third_party/mbedtls/repo/library/asn1parse.c:110:9
	cmp	r2, #1
	bne	.LBB2_6
.Ltmp43:
@ %bb.2:
	@DEBUG_VALUE: mbedtls_asn1_get_bool:val <- $r5
	@DEBUG_VALUE: mbedtls_asn1_get_bool:p <- $r4
	@DEBUG_VALUE: mbedtls_asn1_get_tag:p <- $r4
	@DEBUG_VALUE: mbedtls_asn1_get_bool:end <- $r1
	@DEBUG_VALUE: mbedtls_asn1_get_bool:len <- [DW_OP_plus_uconst 4, DW_OP_deref] $sp
	@DEBUG_VALUE: mbedtls_asn1_get_tag:len <- [DW_OP_plus_uconst 4, DW_OP_stack_value] $sp
	@DEBUG_VALUE: mbedtls_asn1_get_bool:ret <- -110
	@DEBUG_VALUE: mbedtls_asn1_get_tag:tag <- 1
	.loc	2 113 9 is_stmt 1               @ ../../../components/network/thread/subg_openthread/third_party/mbedtls/repo/library/asn1parse.c:113:9
	adds	r0, #1
	str	r0, [r4]
	add	r2, sp, #4
	.loc	2 115 13                        @ ../../../components/network/thread/subg_openthread/third_party/mbedtls/repo/library/asn1parse.c:115:13
	mov	r0, r4
	bl	mbedtls_asn1_get_len
.Ltmp44:
	@DEBUG_VALUE: mbedtls_asn1_get_bool:end <- [DW_OP_LLVM_entry_value 1] $r1
	@DEBUG_VALUE: mbedtls_asn1_get_bool:ret <- $r0
	.loc	2 125 9                         @ ../../../components/network/thread/subg_openthread/third_party/mbedtls/repo/library/asn1parse.c:125:9
	cbnz	r0, .LBB2_7
.Ltmp45:
@ %bb.3:
	@DEBUG_VALUE: mbedtls_asn1_get_bool:val <- $r5
	@DEBUG_VALUE: mbedtls_asn1_get_bool:p <- $r4
	@DEBUG_VALUE: mbedtls_asn1_get_bool:ret <- $r0
	@DEBUG_VALUE: mbedtls_asn1_get_bool:len <- [DW_OP_plus_uconst 4, DW_OP_deref] $sp
	@DEBUG_VALUE: mbedtls_asn1_get_bool:end <- [DW_OP_LLVM_entry_value 1] $r1
	.loc	2 128 9                         @ ../../../components/network/thread/subg_openthread/third_party/mbedtls/repo/library/asn1parse.c:128:9
	ldr	r0, [sp, #4]
.Ltmp46:
	@DEBUG_VALUE: mbedtls_asn1_get_bool:len <- $r0
	.loc	2 128 9 is_stmt 0               @ ../../../components/network/thread/subg_openthread/third_party/mbedtls/repo/library/asn1parse.c:128:9
	cmp	r0, #1
	bne	.LBB2_8
.Ltmp47:
@ %bb.4:
	@DEBUG_VALUE: mbedtls_asn1_get_bool:val <- $r5
	@DEBUG_VALUE: mbedtls_asn1_get_bool:p <- $r4
	@DEBUG_VALUE: mbedtls_asn1_get_bool:len <- $r0
	@DEBUG_VALUE: mbedtls_asn1_get_bool:end <- [DW_OP_LLVM_entry_value 1] $r1
	.loc	2 131 15 is_stmt 1              @ ../../../components/network/thread/subg_openthread/third_party/mbedtls/repo/library/asn1parse.c:131:15
	ldr	r0, [r4]
.Ltmp48:
	.loc	2 131 14 is_stmt 0              @ ../../../components/network/thread/subg_openthread/third_party/mbedtls/repo/library/asn1parse.c:131:14
	ldrb	r1, [r0], #1
	.loc	2 131 18                        @ ../../../components/network/thread/subg_openthread/third_party/mbedtls/repo/library/asn1parse.c:131:18
	cmp	r1, #0
	it	ne
	movne	r1, #1
	.loc	2 132 9 is_stmt 1               @ ../../../components/network/thread/subg_openthread/third_party/mbedtls/repo/library/asn1parse.c:132:9
	str	r0, [r4]
	movs	r0, #0
	.loc	2 131 10                        @ ../../../components/network/thread/subg_openthread/third_party/mbedtls/repo/library/asn1parse.c:131:10
	str	r1, [r5]
	b	.LBB2_7
.Ltmp49:
.LBB2_5:
	@DEBUG_VALUE: mbedtls_asn1_get_bool:p <- $r4
	@DEBUG_VALUE: mbedtls_asn1_get_tag:p <- $r4
	@DEBUG_VALUE: mbedtls_asn1_get_bool:val <- $r2
	@DEBUG_VALUE: mbedtls_asn1_get_bool:end <- $r1
	@DEBUG_VALUE: mbedtls_asn1_get_bool:len <- [DW_OP_plus_uconst 4, DW_OP_deref] $sp
	@DEBUG_VALUE: mbedtls_asn1_get_tag:len <- [DW_OP_plus_uconst 4, DW_OP_stack_value] $sp
	@DEBUG_VALUE: mbedtls_asn1_get_bool:ret <- -110
	@DEBUG_VALUE: mbedtls_asn1_get_tag:tag <- 1
	.loc	2 0 10 is_stmt 0                @ ../../../components/network/thread/subg_openthread/third_party/mbedtls/repo/library/asn1parse.c:0:10
	mvn	r0, #95
	b	.LBB2_7
.Ltmp50:
.LBB2_6:
	@DEBUG_VALUE: mbedtls_asn1_get_bool:val <- $r5
	@DEBUG_VALUE: mbedtls_asn1_get_bool:p <- $r4
	@DEBUG_VALUE: mbedtls_asn1_get_tag:p <- $r4
	@DEBUG_VALUE: mbedtls_asn1_get_bool:end <- $r1
	@DEBUG_VALUE: mbedtls_asn1_get_bool:len <- [DW_OP_plus_uconst 4, DW_OP_deref] $sp
	@DEBUG_VALUE: mbedtls_asn1_get_tag:len <- [DW_OP_plus_uconst 4, DW_OP_stack_value] $sp
	@DEBUG_VALUE: mbedtls_asn1_get_bool:ret <- -110
	@DEBUG_VALUE: mbedtls_asn1_get_tag:tag <- 1
	mvn	r0, #97
.Ltmp51:
.LBB2_7:
	@DEBUG_VALUE: mbedtls_asn1_get_bool:p <- $r4
	.loc	2 135 1 is_stmt 1               @ ../../../components/network/thread/subg_openthread/third_party/mbedtls/repo/library/asn1parse.c:135:1
	add	sp, #8
	pop	{r4, r5, r7, pc}
.Ltmp52:
.LBB2_8:
	@DEBUG_VALUE: mbedtls_asn1_get_bool:val <- $r5
	@DEBUG_VALUE: mbedtls_asn1_get_bool:p <- $r4
	@DEBUG_VALUE: mbedtls_asn1_get_bool:len <- $r0
	@DEBUG_VALUE: mbedtls_asn1_get_bool:end <- [DW_OP_LLVM_entry_value 1] $r1
	.loc	2 0 1 is_stmt 0                 @ ../../../components/network/thread/subg_openthread/third_party/mbedtls/repo/library/asn1parse.c:0:1
	mvn	r0, #99
.Ltmp53:
	b	.LBB2_7
.Lfunc_end2:
	.size	mbedtls_asn1_get_bool, .Lfunc_end2-mbedtls_asn1_get_bool
	.cfi_endproc
	.cantunwind
	.fnend
                                        @ -- End function
	.section	.text.mbedtls_asn1_get_int,"ax",%progbits
	.hidden	mbedtls_asn1_get_int            @ -- Begin function mbedtls_asn1_get_int
	.globl	mbedtls_asn1_get_int
	.p2align	1
	.type	mbedtls_asn1_get_int,%function
	.code	16                              @ @mbedtls_asn1_get_int
	.thumb_func
mbedtls_asn1_get_int:
.Lfunc_begin3:
	.loc	2 184 0 is_stmt 1               @ ../../../components/network/thread/subg_openthread/third_party/mbedtls/repo/library/asn1parse.c:184:0
	.fnstart
	.cfi_startproc
@ %bb.0:
	@DEBUG_VALUE: mbedtls_asn1_get_int:p <- $r0
	@DEBUG_VALUE: mbedtls_asn1_get_int:end <- $r1
	@DEBUG_VALUE: mbedtls_asn1_get_int:val <- $r2
	mov	r3, r2
.Ltmp54:
	@DEBUG_VALUE: mbedtls_asn1_get_int:val <- $r3
	@DEBUG_VALUE: mbedtls_asn1_get_int:end <- $r1
	@DEBUG_VALUE: mbedtls_asn1_get_int:end <- $r1
	@DEBUG_VALUE: mbedtls_asn1_get_int:p <- $r0
	@DEBUG_VALUE: mbedtls_asn1_get_int:p <- $r0
	.loc	2 185 13 prologue_end           @ ../../../components/network/thread/subg_openthread/third_party/mbedtls/repo/library/asn1parse.c:185:13
	movs	r2, #2
	@DEBUG_VALUE: mbedtls_asn1_get_int:val <- $r3
.Ltmp55:
	b	asn1_get_tagged_int
.Ltmp56:
.Lfunc_end3:
	.size	mbedtls_asn1_get_int, .Lfunc_end3-mbedtls_asn1_get_int
	.cfi_endproc
	.cantunwind
	.fnend
                                        @ -- End function
	.section	.text.asn1_get_tagged_int,"ax",%progbits
	.p2align	1                               @ -- Begin function asn1_get_tagged_int
	.type	asn1_get_tagged_int,%function
	.code	16                              @ @asn1_get_tagged_int
	.thumb_func
asn1_get_tagged_int:
.Lfunc_begin4:
	.loc	2 140 0                         @ ../../../components/network/thread/subg_openthread/third_party/mbedtls/repo/library/asn1parse.c:140:0
	.fnstart
	.cfi_startproc
@ %bb.0:
	@DEBUG_VALUE: asn1_get_tagged_int:p <- $r0
	@DEBUG_VALUE: asn1_get_tagged_int:end <- $r1
	@DEBUG_VALUE: asn1_get_tagged_int:tag <- $r2
	@DEBUG_VALUE: asn1_get_tagged_int:val <- $r3
	.save	{r4, r5, r7, lr}
	push	{r4, r5, r7, lr}
	.cfi_def_cfa_offset 16
	.cfi_offset lr, -4
	.cfi_offset r7, -8
	.cfi_offset r5, -12
	.cfi_offset r4, -16
	.pad	#8
	sub	sp, #8
	.cfi_def_cfa_offset 24
	mov	r5, r0
.Ltmp57:
	@DEBUG_VALUE: mbedtls_asn1_get_tag:tag <- undef
	@DEBUG_VALUE: mbedtls_asn1_get_tag:len <- [DW_OP_plus_uconst 4, DW_OP_stack_value] $sp
	@DEBUG_VALUE: mbedtls_asn1_get_tag:end <- undef
	@DEBUG_VALUE: mbedtls_asn1_get_tag:p <- $r5
	@DEBUG_VALUE: asn1_get_tagged_int:len <- [DW_OP_plus_uconst 4, DW_OP_deref] $sp
	@DEBUG_VALUE: asn1_get_tagged_int:ret <- -110
	@DEBUG_VALUE: asn1_get_tagged_int:val <- $r4
	@DEBUG_VALUE: asn1_get_tagged_int:p <- $r5
	.loc	2 107 17 prologue_end           @ ../../../components/network/thread/subg_openthread/third_party/mbedtls/repo/library/asn1parse.c:107:17
	ldr	r0, [r0]
	@DEBUG_VALUE: asn1_get_tagged_int:end <- $r1
	mov	r4, r3
.Ltmp58:
	.loc	2 107 15 is_stmt 0              @ ../../../components/network/thread/subg_openthread/third_party/mbedtls/repo/library/asn1parse.c:107:15
	subs	r3, r1, r0
.Ltmp59:
	.loc	2 107 9                         @ ../../../components/network/thread/subg_openthread/third_party/mbedtls/repo/library/asn1parse.c:107:9
	cmp	r3, #1
	@DEBUG_VALUE: asn1_get_tagged_int:tag <- $r2
	blt	.LBB4_14
.Ltmp60:
@ %bb.1:
	@DEBUG_VALUE: asn1_get_tagged_int:p <- $r5
	@DEBUG_VALUE: mbedtls_asn1_get_tag:p <- $r5
	@DEBUG_VALUE: asn1_get_tagged_int:tag <- $r2
	@DEBUG_VALUE: asn1_get_tagged_int:end <- $r1
	@DEBUG_VALUE: asn1_get_tagged_int:len <- [DW_OP_plus_uconst 4, DW_OP_deref] $sp
	@DEBUG_VALUE: mbedtls_asn1_get_tag:len <- [DW_OP_plus_uconst 4, DW_OP_stack_value] $sp
	@DEBUG_VALUE: asn1_get_tagged_int:ret <- -110
	.loc	2 110 9 is_stmt 1               @ ../../../components/network/thread/subg_openthread/third_party/mbedtls/repo/library/asn1parse.c:110:9
	ldrb	r3, [r0]
.Ltmp61:
	.loc	2 110 9 is_stmt 0               @ ../../../components/network/thread/subg_openthread/third_party/mbedtls/repo/library/asn1parse.c:110:9
	cmp	r3, r2
	bne	.LBB4_15
.Ltmp62:
@ %bb.2:
	@DEBUG_VALUE: asn1_get_tagged_int:p <- $r5
	@DEBUG_VALUE: mbedtls_asn1_get_tag:p <- $r5
	@DEBUG_VALUE: asn1_get_tagged_int:tag <- $r2
	@DEBUG_VALUE: asn1_get_tagged_int:end <- $r1
	@DEBUG_VALUE: asn1_get_tagged_int:len <- [DW_OP_plus_uconst 4, DW_OP_deref] $sp
	@DEBUG_VALUE: mbedtls_asn1_get_tag:len <- [DW_OP_plus_uconst 4, DW_OP_stack_value] $sp
	@DEBUG_VALUE: asn1_get_tagged_int:ret <- -110
	.loc	2 113 9 is_stmt 1               @ ../../../components/network/thread/subg_openthread/third_party/mbedtls/repo/library/asn1parse.c:113:9
	adds	r0, #1
	str	r0, [r5]
	add	r2, sp, #4
.Ltmp63:
	@DEBUG_VALUE: asn1_get_tagged_int:tag <- [DW_OP_LLVM_entry_value 1] $r2
	.loc	2 115 13                        @ ../../../components/network/thread/subg_openthread/third_party/mbedtls/repo/library/asn1parse.c:115:13
	mov	r0, r5
	bl	mbedtls_asn1_get_len
.Ltmp64:
	@DEBUG_VALUE: asn1_get_tagged_int:end <- [DW_OP_LLVM_entry_value 1] $r1
	@DEBUG_VALUE: asn1_get_tagged_int:ret <- $r0
	.loc	2 144 9                         @ ../../../components/network/thread/subg_openthread/third_party/mbedtls/repo/library/asn1parse.c:144:9
	cbnz	r0, .LBB4_16
.Ltmp65:
@ %bb.3:
	@DEBUG_VALUE: asn1_get_tagged_int:p <- $r5
	@DEBUG_VALUE: asn1_get_tagged_int:ret <- $r0
	@DEBUG_VALUE: asn1_get_tagged_int:len <- [DW_OP_plus_uconst 4, DW_OP_deref] $sp
	@DEBUG_VALUE: asn1_get_tagged_int:end <- [DW_OP_LLVM_entry_value 1] $r1
	@DEBUG_VALUE: asn1_get_tagged_int:tag <- [DW_OP_LLVM_entry_value 1] $r2
	.loc	2 151 9                         @ ../../../components/network/thread/subg_openthread/third_party/mbedtls/repo/library/asn1parse.c:151:9
	ldr	r1, [sp, #4]
.Ltmp66:
	@DEBUG_VALUE: asn1_get_tagged_int:len <- $r1
	.loc	2 151 9 is_stmt 0               @ ../../../components/network/thread/subg_openthread/third_party/mbedtls/repo/library/asn1parse.c:151:9
	cbz	r1, .LBB4_13
.Ltmp67:
@ %bb.4:
	@DEBUG_VALUE: asn1_get_tagged_int:p <- $r5
	@DEBUG_VALUE: asn1_get_tagged_int:len <- $r1
	@DEBUG_VALUE: asn1_get_tagged_int:ret <- $r0
	@DEBUG_VALUE: asn1_get_tagged_int:end <- [DW_OP_LLVM_entry_value 1] $r1
	@DEBUG_VALUE: asn1_get_tagged_int:tag <- [DW_OP_LLVM_entry_value 1] $r2
	.loc	2 154 12 is_stmt 1              @ ../../../components/network/thread/subg_openthread/third_party/mbedtls/repo/library/asn1parse.c:154:12
	ldr	r0, [r5]
.Ltmp68:
	.loc	2 154 11 is_stmt 0              @ ../../../components/network/thread/subg_openthread/third_party/mbedtls/repo/library/asn1parse.c:154:11
	ldrsb.w	r2, [r0]
.Ltmp69:
	.loc	2 154 9                         @ ../../../components/network/thread/subg_openthread/third_party/mbedtls/repo/library/asn1parse.c:154:9
	cmp	r2, #0
	bmi	.LBB4_13
.Ltmp70:
@ %bb.5:
	@DEBUG_VALUE: asn1_get_tagged_int:p <- $r5
	@DEBUG_VALUE: asn1_get_tagged_int:len <- $r1
	@DEBUG_VALUE: asn1_get_tagged_int:end <- [DW_OP_LLVM_entry_value 1] $r1
	@DEBUG_VALUE: asn1_get_tagged_int:tag <- [DW_OP_LLVM_entry_value 1] $r2
	.loc	2 0 0                           @ ../../../components/network/thread/subg_openthread/third_party/mbedtls/repo/library/asn1parse.c:0:0
	uxtb	r2, r2
	@DEBUG_VALUE: asn1_get_tagged_int:len <- $r1
	.loc	2 158 5 is_stmt 1               @ ../../../components/network/thread/subg_openthread/third_party/mbedtls/repo/library/asn1parse.c:158:5
	cbnz	r2, .LBB4_10
.Ltmp71:
@ %bb.6:
	@DEBUG_VALUE: asn1_get_tagged_int:p <- $r5
	@DEBUG_VALUE: asn1_get_tagged_int:len <- $r1
	@DEBUG_VALUE: asn1_get_tagged_int:end <- [DW_OP_LLVM_entry_value 1] $r1
	@DEBUG_VALUE: asn1_get_tagged_int:tag <- [DW_OP_LLVM_entry_value 1] $r2
	.loc	2 158 20 is_stmt 0              @ ../../../components/network/thread/subg_openthread/third_party/mbedtls/repo/library/asn1parse.c:158:20
	adds	r0, #1
.Ltmp72:
	.p2align	2
.LBB4_7:                                @ =>This Inner Loop Header: Depth=1
	@DEBUG_VALUE: asn1_get_tagged_int:p <- $r5
	@DEBUG_VALUE: asn1_get_tagged_int:len <- $r1
	@DEBUG_VALUE: asn1_get_tagged_int:end <- [DW_OP_LLVM_entry_value 1] $r1
	@DEBUG_VALUE: asn1_get_tagged_int:tag <- [DW_OP_LLVM_entry_value 1] $r2
	@DEBUG_VALUE: asn1_get_tagged_int:len <- $r1
	cmp	r1, #1
.Ltmp73:
	.loc	2 160 9 is_stmt 1               @ ../../../components/network/thread/subg_openthread/third_party/mbedtls/repo/library/asn1parse.c:160:9
	str	r0, [r5]
.Ltmp74:
	@DEBUG_VALUE: asn1_get_tagged_int:len <- undef
	.loc	2 158 20                        @ ../../../components/network/thread/subg_openthread/third_party/mbedtls/repo/library/asn1parse.c:158:20
	beq	.LBB4_17
.Ltmp75:
@ %bb.8:                                @   in Loop: Header=BB4_7 Depth=1
	@DEBUG_VALUE: asn1_get_tagged_int:p <- $r5
	@DEBUG_VALUE: asn1_get_tagged_int:end <- [DW_OP_LLVM_entry_value 1] $r1
	@DEBUG_VALUE: asn1_get_tagged_int:tag <- [DW_OP_LLVM_entry_value 1] $r2
	.loc	2 158 23 is_stmt 0              @ ../../../components/network/thread/subg_openthread/third_party/mbedtls/repo/library/asn1parse.c:158:23
	ldrb	r2, [r0], #1
.Ltmp76:
	@DEBUG_VALUE: asn1_get_tagged_int:len <- $r1
	.loc	2 0 0                           @ ../../../components/network/thread/subg_openthread/third_party/mbedtls/repo/library/asn1parse.c:0:0
	subs	r1, #1
.Ltmp77:
	@DEBUG_VALUE: asn1_get_tagged_int:len <- $r1
	.loc	2 158 5                         @ ../../../components/network/thread/subg_openthread/third_party/mbedtls/repo/library/asn1parse.c:158:5
	cmp	r2, #0
	beq	.LBB4_7
.Ltmp78:
@ %bb.9:
	@DEBUG_VALUE: asn1_get_tagged_int:p <- $r5
	@DEBUG_VALUE: asn1_get_tagged_int:len <- $r1
	@DEBUG_VALUE: asn1_get_tagged_int:end <- [DW_OP_LLVM_entry_value 1] $r1
	@DEBUG_VALUE: asn1_get_tagged_int:tag <- [DW_OP_LLVM_entry_value 1] $r2
	.loc	2 166 13 is_stmt 1              @ ../../../components/network/thread/subg_openthread/third_party/mbedtls/repo/library/asn1parse.c:166:13
	subs	r0, #1
.Ltmp79:
.LBB4_10:
	@DEBUG_VALUE: asn1_get_tagged_int:p <- $r5
	@DEBUG_VALUE: asn1_get_tagged_int:len <- $r1
	@DEBUG_VALUE: asn1_get_tagged_int:end <- [DW_OP_LLVM_entry_value 1] $r1
	@DEBUG_VALUE: asn1_get_tagged_int:tag <- [DW_OP_LLVM_entry_value 1] $r2
	@DEBUG_VALUE: asn1_get_tagged_int:len <- $r1
	.loc	2 166 9 is_stmt 0               @ ../../../components/network/thread/subg_openthread/third_party/mbedtls/repo/library/asn1parse.c:166:9
	cmp	r1, #4
	bhi	.LBB4_13
.Ltmp80:
@ %bb.11:
	@DEBUG_VALUE: asn1_get_tagged_int:p <- $r5
	@DEBUG_VALUE: asn1_get_tagged_int:len <- $r1
	@DEBUG_VALUE: asn1_get_tagged_int:end <- [DW_OP_LLVM_entry_value 1] $r1
	@DEBUG_VALUE: asn1_get_tagged_int:tag <- [DW_OP_LLVM_entry_value 1] $r2
	.loc	2 168 30 is_stmt 1              @ ../../../components/network/thread/subg_openthread/third_party/mbedtls/repo/library/asn1parse.c:168:30
	cmp	r1, #4
	bne	.LBB4_18
.Ltmp81:
@ %bb.12:
	@DEBUG_VALUE: asn1_get_tagged_int:p <- $r5
	@DEBUG_VALUE: asn1_get_tagged_int:len <- $r1
	@DEBUG_VALUE: asn1_get_tagged_int:end <- [DW_OP_LLVM_entry_value 1] $r1
	@DEBUG_VALUE: asn1_get_tagged_int:tag <- [DW_OP_LLVM_entry_value 1] $r2
	sxtb	r2, r2
	cmp.w	r2, #-1
	bgt	.LBB4_18
.Ltmp82:
.LBB4_13:
	@DEBUG_VALUE: asn1_get_tagged_int:p <- $r5
	@DEBUG_VALUE: asn1_get_tagged_int:len <- $r1
	@DEBUG_VALUE: asn1_get_tagged_int:end <- [DW_OP_LLVM_entry_value 1] $r1
	@DEBUG_VALUE: asn1_get_tagged_int:tag <- [DW_OP_LLVM_entry_value 1] $r2
	.loc	2 0 30 is_stmt 0                @ ../../../components/network/thread/subg_openthread/third_party/mbedtls/repo/library/asn1parse.c:0:30
	mvn	r0, #99
	b	.LBB4_16
.Ltmp83:
.LBB4_14:
	@DEBUG_VALUE: asn1_get_tagged_int:p <- $r5
	@DEBUG_VALUE: mbedtls_asn1_get_tag:p <- $r5
	@DEBUG_VALUE: asn1_get_tagged_int:tag <- $r2
	@DEBUG_VALUE: asn1_get_tagged_int:end <- $r1
	@DEBUG_VALUE: asn1_get_tagged_int:len <- [DW_OP_plus_uconst 4, DW_OP_deref] $sp
	@DEBUG_VALUE: mbedtls_asn1_get_tag:len <- [DW_OP_plus_uconst 4, DW_OP_stack_value] $sp
	@DEBUG_VALUE: asn1_get_tagged_int:ret <- -110
	mvn	r0, #95
	b	.LBB4_16
.Ltmp84:
.LBB4_15:
	@DEBUG_VALUE: asn1_get_tagged_int:p <- $r5
	@DEBUG_VALUE: mbedtls_asn1_get_tag:p <- $r5
	@DEBUG_VALUE: asn1_get_tagged_int:tag <- $r2
	@DEBUG_VALUE: asn1_get_tagged_int:end <- $r1
	@DEBUG_VALUE: asn1_get_tagged_int:len <- [DW_OP_plus_uconst 4, DW_OP_deref] $sp
	@DEBUG_VALUE: mbedtls_asn1_get_tag:len <- [DW_OP_plus_uconst 4, DW_OP_stack_value] $sp
	@DEBUG_VALUE: asn1_get_tagged_int:ret <- -110
	mvn	r0, #97
.Ltmp85:
.LBB4_16:
	@DEBUG_VALUE: asn1_get_tagged_int:p <- $r5
	.loc	2 179 1 is_stmt 1               @ ../../../components/network/thread/subg_openthread/third_party/mbedtls/repo/library/asn1parse.c:179:1
	add	sp, #8
	pop	{r4, r5, r7, pc}
.Ltmp86:
.LBB4_17:
	@DEBUG_VALUE: asn1_get_tagged_int:p <- $r5
	@DEBUG_VALUE: asn1_get_tagged_int:end <- [DW_OP_LLVM_entry_value 1] $r1
	@DEBUG_VALUE: asn1_get_tagged_int:tag <- [DW_OP_LLVM_entry_value 1] $r2
	.loc	2 0 1 is_stmt 0                 @ ../../../components/network/thread/subg_openthread/third_party/mbedtls/repo/library/asn1parse.c:0:1
	movs	r0, #0
	.loc	2 171 10 is_stmt 1              @ ../../../components/network/thread/subg_openthread/third_party/mbedtls/repo/library/asn1parse.c:171:10
	str	r0, [r4]
.Ltmp87:
	@DEBUG_VALUE: asn1_get_tagged_int:len <- [DW_OP_constu 1, DW_OP_minus, DW_OP_stack_value] 0
	.loc	2 0 10 is_stmt 0                @ ../../../components/network/thread/subg_openthread/third_party/mbedtls/repo/library/asn1parse.c:0:10
	b	.LBB4_16
.Ltmp88:
.LBB4_18:
	@DEBUG_VALUE: asn1_get_tagged_int:p <- $r5
	@DEBUG_VALUE: asn1_get_tagged_int:len <- $r1
	@DEBUG_VALUE: asn1_get_tagged_int:end <- [DW_OP_LLVM_entry_value 1] $r1
	@DEBUG_VALUE: asn1_get_tagged_int:tag <- [DW_OP_LLVM_entry_value 1] $r2
	.loc	2 172 15 is_stmt 1              @ ../../../components/network/thread/subg_openthread/third_party/mbedtls/repo/library/asn1parse.c:172:15
	subs	r3, r1, #1
.Ltmp89:
	@DEBUG_VALUE: asn1_get_tagged_int:len <- [DW_OP_constu 1, DW_OP_minus, DW_OP_stack_value] 0
	.loc	2 0 15 is_stmt 0                @ ../../../components/network/thread/subg_openthread/third_party/mbedtls/repo/library/asn1parse.c:0:15
	movs	r2, #0
	.loc	2 172 15                        @ ../../../components/network/thread/subg_openthread/third_party/mbedtls/repo/library/asn1parse.c:172:15
	str	r3, [sp, #4]
	.loc	2 172 5                         @ ../../../components/network/thread/subg_openthread/third_party/mbedtls/repo/library/asn1parse.c:172:5
	adds	r3, r0, #1
	.loc	2 171 10 is_stmt 1              @ ../../../components/network/thread/subg_openthread/third_party/mbedtls/repo/library/asn1parse.c:171:10
	str	r2, [r4]
.Ltmp90:
	@DEBUG_VALUE: asn1_get_tagged_int:len <- 0
	.p2align	2
.LBB4_19:                               @ =>This Inner Loop Header: Depth=1
	@DEBUG_VALUE: asn1_get_tagged_int:p <- $r5
	@DEBUG_VALUE: asn1_get_tagged_int:end <- [DW_OP_LLVM_entry_value 1] $r1
	@DEBUG_VALUE: asn1_get_tagged_int:tag <- [DW_OP_LLVM_entry_value 1] $r2
	.loc	2 174 32                        @ ../../../components/network/thread/subg_openthread/third_party/mbedtls/repo/library/asn1parse.c:174:32
	ldrb	r0, [r3, #-1]
	.loc	2 175 13                        @ ../../../components/network/thread/subg_openthread/third_party/mbedtls/repo/library/asn1parse.c:175:13
	str	r3, [r5]
.Ltmp91:
	@DEBUG_VALUE: asn1_get_tagged_int:len <- [DW_OP_constu 2, DW_OP_minus, DW_OP_stack_value] $r1
	.loc	2 174 30                        @ ../../../components/network/thread/subg_openthread/third_party/mbedtls/repo/library/asn1parse.c:174:30
	orr.w	r2, r0, r2, lsl #8
.Ltmp92:
	.loc	2 172 18                        @ ../../../components/network/thread/subg_openthread/third_party/mbedtls/repo/library/asn1parse.c:172:18
	adds	r3, #1
	subs	r1, #1
.Ltmp93:
	.loc	2 0 18 is_stmt 0                @ ../../../components/network/thread/subg_openthread/third_party/mbedtls/repo/library/asn1parse.c:0:18
	mov.w	r0, #0
.Ltmp94:
	.loc	2 174 14 is_stmt 1              @ ../../../components/network/thread/subg_openthread/third_party/mbedtls/repo/library/asn1parse.c:174:14
	str	r2, [r4]
.Ltmp95:
	.loc	2 172 5                         @ ../../../components/network/thread/subg_openthread/third_party/mbedtls/repo/library/asn1parse.c:172:5
	bne	.LBB4_19
	b	.LBB4_16
.Ltmp96:
.Lfunc_end4:
	.size	asn1_get_tagged_int, .Lfunc_end4-asn1_get_tagged_int
	.cfi_endproc
	.cantunwind
	.fnend
                                        @ -- End function
	.section	.text.mbedtls_asn1_get_enum,"ax",%progbits
	.hidden	mbedtls_asn1_get_enum           @ -- Begin function mbedtls_asn1_get_enum
	.globl	mbedtls_asn1_get_enum
	.p2align	1
	.type	mbedtls_asn1_get_enum,%function
	.code	16                              @ @mbedtls_asn1_get_enum
	.thumb_func
mbedtls_asn1_get_enum:
.Lfunc_begin5:
	.loc	2 191 0                         @ ../../../components/network/thread/subg_openthread/third_party/mbedtls/repo/library/asn1parse.c:191:0
	.fnstart
	.cfi_startproc
@ %bb.0:
	@DEBUG_VALUE: mbedtls_asn1_get_enum:p <- $r0
	@DEBUG_VALUE: mbedtls_asn1_get_enum:end <- $r1
	@DEBUG_VALUE: mbedtls_asn1_get_enum:val <- $r2
	mov	r3, r2
.Ltmp97:
	@DEBUG_VALUE: mbedtls_asn1_get_enum:val <- $r3
	@DEBUG_VALUE: mbedtls_asn1_get_enum:end <- $r1
	@DEBUG_VALUE: mbedtls_asn1_get_enum:end <- $r1
	@DEBUG_VALUE: mbedtls_asn1_get_enum:p <- $r0
	@DEBUG_VALUE: mbedtls_asn1_get_enum:p <- $r0
	.loc	2 192 13 prologue_end           @ ../../../components/network/thread/subg_openthread/third_party/mbedtls/repo/library/asn1parse.c:192:13
	movs	r2, #10
	@DEBUG_VALUE: mbedtls_asn1_get_enum:val <- $r3
.Ltmp98:
	b	asn1_get_tagged_int
.Ltmp99:
.Lfunc_end5:
	.size	mbedtls_asn1_get_enum, .Lfunc_end5-mbedtls_asn1_get_enum
	.cfi_endproc
	.cantunwind
	.fnend
                                        @ -- End function
	.section	.text.mbedtls_asn1_get_mpi,"ax",%progbits
	.hidden	mbedtls_asn1_get_mpi            @ -- Begin function mbedtls_asn1_get_mpi
	.globl	mbedtls_asn1_get_mpi
	.p2align	1
	.type	mbedtls_asn1_get_mpi,%function
	.code	16                              @ @mbedtls_asn1_get_mpi
	.thumb_func
mbedtls_asn1_get_mpi:
.Lfunc_begin6:
	.loc	2 199 0                         @ ../../../components/network/thread/subg_openthread/third_party/mbedtls/repo/library/asn1parse.c:199:0
	.fnstart
	.cfi_startproc
@ %bb.0:
	@DEBUG_VALUE: mbedtls_asn1_get_mpi:p <- $r0
	@DEBUG_VALUE: mbedtls_asn1_get_mpi:end <- $r1
	@DEBUG_VALUE: mbedtls_asn1_get_mpi:X <- $r2
	.save	{r4, r5, r6, lr}
	push	{r4, r5, r6, lr}
	.cfi_def_cfa_offset 16
	.cfi_offset lr, -4
	.cfi_offset r6, -8
	.cfi_offset r5, -12
	.cfi_offset r4, -16
	.pad	#8
	sub	sp, #8
	.cfi_def_cfa_offset 24
	mov	r4, r0
.Ltmp100:
	@DEBUG_VALUE: mbedtls_asn1_get_tag:tag <- 2
	@DEBUG_VALUE: mbedtls_asn1_get_tag:len <- [DW_OP_plus_uconst 4, DW_OP_stack_value] $sp
	@DEBUG_VALUE: mbedtls_asn1_get_tag:end <- undef
	@DEBUG_VALUE: mbedtls_asn1_get_tag:p <- $r4
	@DEBUG_VALUE: mbedtls_asn1_get_mpi:len <- [DW_OP_plus_uconst 4, DW_OP_deref] $sp
	@DEBUG_VALUE: mbedtls_asn1_get_mpi:ret <- -110
	@DEBUG_VALUE: mbedtls_asn1_get_mpi:p <- $r4
	.loc	2 107 17 prologue_end           @ ../../../components/network/thread/subg_openthread/third_party/mbedtls/repo/library/asn1parse.c:107:17
	ldr	r0, [r0]
	@DEBUG_VALUE: mbedtls_asn1_get_mpi:end <- $r1
	.loc	2 107 15 is_stmt 0              @ ../../../components/network/thread/subg_openthread/third_party/mbedtls/repo/library/asn1parse.c:107:15
	subs	r3, r1, r0
.Ltmp101:
	.loc	2 107 9                         @ ../../../components/network/thread/subg_openthread/third_party/mbedtls/repo/library/asn1parse.c:107:9
	cmp	r3, #1
	@DEBUG_VALUE: mbedtls_asn1_get_mpi:X <- $r2
	blt	.LBB6_4
.Ltmp102:
@ %bb.1:
	@DEBUG_VALUE: mbedtls_asn1_get_mpi:p <- $r4
	@DEBUG_VALUE: mbedtls_asn1_get_tag:p <- $r4
	@DEBUG_VALUE: mbedtls_asn1_get_mpi:X <- $r2
	@DEBUG_VALUE: mbedtls_asn1_get_mpi:end <- $r1
	@DEBUG_VALUE: mbedtls_asn1_get_mpi:len <- [DW_OP_plus_uconst 4, DW_OP_deref] $sp
	@DEBUG_VALUE: mbedtls_asn1_get_tag:len <- [DW_OP_plus_uconst 4, DW_OP_stack_value] $sp
	@DEBUG_VALUE: mbedtls_asn1_get_mpi:ret <- -110
	@DEBUG_VALUE: mbedtls_asn1_get_tag:tag <- 2
	.loc	2 0 9                           @ ../../../components/network/thread/subg_openthread/third_party/mbedtls/repo/library/asn1parse.c:0:9
	mov	r5, r2
.Ltmp103:
	@DEBUG_VALUE: mbedtls_asn1_get_mpi:X <- $r5
	@DEBUG_VALUE: mbedtls_asn1_get_mpi:X <- $r5
	.loc	2 110 9 is_stmt 1               @ ../../../components/network/thread/subg_openthread/third_party/mbedtls/repo/library/asn1parse.c:110:9
	ldrb	r2, [r0]
.Ltmp104:
	.loc	2 110 9 is_stmt 0               @ ../../../components/network/thread/subg_openthread/third_party/mbedtls/repo/library/asn1parse.c:110:9
	cmp	r2, #2
	bne	.LBB6_5
.Ltmp105:
@ %bb.2:
	@DEBUG_VALUE: mbedtls_asn1_get_mpi:X <- $r5
	@DEBUG_VALUE: mbedtls_asn1_get_mpi:p <- $r4
	@DEBUG_VALUE: mbedtls_asn1_get_tag:p <- $r4
	@DEBUG_VALUE: mbedtls_asn1_get_mpi:end <- $r1
	@DEBUG_VALUE: mbedtls_asn1_get_mpi:len <- [DW_OP_plus_uconst 4, DW_OP_deref] $sp
	@DEBUG_VALUE: mbedtls_asn1_get_tag:len <- [DW_OP_plus_uconst 4, DW_OP_stack_value] $sp
	@DEBUG_VALUE: mbedtls_asn1_get_mpi:ret <- -110
	@DEBUG_VALUE: mbedtls_asn1_get_tag:tag <- 2
	.loc	2 113 9 is_stmt 1               @ ../../../components/network/thread/subg_openthread/third_party/mbedtls/repo/library/asn1parse.c:113:9
	adds	r0, #1
	str	r0, [r4]
	add	r2, sp, #4
	.loc	2 115 13                        @ ../../../components/network/thread/subg_openthread/third_party/mbedtls/repo/library/asn1parse.c:115:13
	mov	r0, r4
	bl	mbedtls_asn1_get_len
.Ltmp106:
	@DEBUG_VALUE: mbedtls_asn1_get_mpi:end <- [DW_OP_LLVM_entry_value 1] $r1
	@DEBUG_VALUE: mbedtls_asn1_get_mpi:ret <- $r0
	.loc	2 203 9                         @ ../../../components/network/thread/subg_openthread/third_party/mbedtls/repo/library/asn1parse.c:203:9
	cbnz	r0, .LBB6_6
.Ltmp107:
@ %bb.3:
	@DEBUG_VALUE: mbedtls_asn1_get_mpi:X <- $r5
	@DEBUG_VALUE: mbedtls_asn1_get_mpi:p <- $r4
	@DEBUG_VALUE: mbedtls_asn1_get_mpi:ret <- $r0
	@DEBUG_VALUE: mbedtls_asn1_get_mpi:len <- [DW_OP_plus_uconst 4, DW_OP_deref] $sp
	@DEBUG_VALUE: mbedtls_asn1_get_mpi:end <- [DW_OP_LLVM_entry_value 1] $r1
	.loc	2 206 43                        @ ../../../components/network/thread/subg_openthread/third_party/mbedtls/repo/library/asn1parse.c:206:43
	ldr	r6, [sp, #4]
.Ltmp108:
	@DEBUG_VALUE: mbedtls_asn1_get_mpi:len <- $r6
	.loc	2 206 39 is_stmt 0              @ ../../../components/network/thread/subg_openthread/third_party/mbedtls/repo/library/asn1parse.c:206:39
	ldr	r1, [r4]
	.loc	2 206 11                        @ ../../../components/network/thread/subg_openthread/third_party/mbedtls/repo/library/asn1parse.c:206:11
	mov	r0, r5
.Ltmp109:
	mov	r2, r6
	bl	mbedtls_mpi_read_binary
.Ltmp110:
	.loc	2 208 8 is_stmt 1               @ ../../../components/network/thread/subg_openthread/third_party/mbedtls/repo/library/asn1parse.c:208:8
	ldr	r1, [r4]
.Ltmp111:
	@DEBUG_VALUE: mbedtls_asn1_get_mpi:ret <- $r0
	add	r1, r6
	str	r1, [r4]
	b	.LBB6_6
.Ltmp112:
.LBB6_4:
	@DEBUG_VALUE: mbedtls_asn1_get_mpi:p <- $r4
	@DEBUG_VALUE: mbedtls_asn1_get_tag:p <- $r4
	@DEBUG_VALUE: mbedtls_asn1_get_mpi:X <- $r2
	@DEBUG_VALUE: mbedtls_asn1_get_mpi:end <- $r1
	@DEBUG_VALUE: mbedtls_asn1_get_mpi:len <- [DW_OP_plus_uconst 4, DW_OP_deref] $sp
	@DEBUG_VALUE: mbedtls_asn1_get_tag:len <- [DW_OP_plus_uconst 4, DW_OP_stack_value] $sp
	@DEBUG_VALUE: mbedtls_asn1_get_mpi:ret <- -110
	@DEBUG_VALUE: mbedtls_asn1_get_tag:tag <- 2
	.loc	2 0 8 is_stmt 0                 @ ../../../components/network/thread/subg_openthread/third_party/mbedtls/repo/library/asn1parse.c:0:8
	mvn	r0, #95
	b	.LBB6_6
.Ltmp113:
.LBB6_5:
	@DEBUG_VALUE: mbedtls_asn1_get_mpi:X <- $r5
	@DEBUG_VALUE: mbedtls_asn1_get_mpi:p <- $r4
	@DEBUG_VALUE: mbedtls_asn1_get_tag:p <- $r4
	@DEBUG_VALUE: mbedtls_asn1_get_mpi:end <- $r1
	@DEBUG_VALUE: mbedtls_asn1_get_mpi:len <- [DW_OP_plus_uconst 4, DW_OP_deref] $sp
	@DEBUG_VALUE: mbedtls_asn1_get_tag:len <- [DW_OP_plus_uconst 4, DW_OP_stack_value] $sp
	@DEBUG_VALUE: mbedtls_asn1_get_mpi:ret <- -110
	@DEBUG_VALUE: mbedtls_asn1_get_tag:tag <- 2
	mvn	r0, #97
.Ltmp114:
.LBB6_6:
	@DEBUG_VALUE: mbedtls_asn1_get_mpi:p <- $r4
	.loc	2 211 1 is_stmt 1               @ ../../../components/network/thread/subg_openthread/third_party/mbedtls/repo/library/asn1parse.c:211:1
	add	sp, #8
	pop	{r4, r5, r6, pc}
.Ltmp115:
.Lfunc_end6:
	.size	mbedtls_asn1_get_mpi, .Lfunc_end6-mbedtls_asn1_get_mpi
	.cfi_endproc
	.cantunwind
	.fnend
                                        @ -- End function
	.section	.text.mbedtls_asn1_get_bitstring,"ax",%progbits
	.hidden	mbedtls_asn1_get_bitstring      @ -- Begin function mbedtls_asn1_get_bitstring
	.globl	mbedtls_asn1_get_bitstring
	.p2align	1
	.type	mbedtls_asn1_get_bitstring,%function
	.code	16                              @ @mbedtls_asn1_get_bitstring
	.thumb_func
mbedtls_asn1_get_bitstring:
.Lfunc_begin7:
	.loc	2 216 0                         @ ../../../components/network/thread/subg_openthread/third_party/mbedtls/repo/library/asn1parse.c:216:0
	.fnstart
	.cfi_startproc
@ %bb.0:
	@DEBUG_VALUE: mbedtls_asn1_get_bitstring:p <- $r0
	@DEBUG_VALUE: mbedtls_asn1_get_bitstring:end <- $r1
	@DEBUG_VALUE: mbedtls_asn1_get_bitstring:bs <- $r2
	@DEBUG_VALUE: mbedtls_asn1_get_tag:p <- $r0
	@DEBUG_VALUE: mbedtls_asn1_get_tag:end <- $r1
	@DEBUG_VALUE: mbedtls_asn1_get_tag:len <- $r2
	.save	{r4, r5, r6, lr}
	push	{r4, r5, r6, lr}
	.cfi_def_cfa_offset 16
	.cfi_offset lr, -4
	.cfi_offset r6, -8
	.cfi_offset r5, -12
	.cfi_offset r4, -16
	mov	r4, r0
.Ltmp116:
	@DEBUG_VALUE: mbedtls_asn1_get_tag:tag <- 3
	@DEBUG_VALUE: mbedtls_asn1_get_bitstring:ret <- -110
	@DEBUG_VALUE: mbedtls_asn1_get_tag:p <- $r4
	@DEBUG_VALUE: mbedtls_asn1_get_bitstring:p <- $r4
	.loc	2 107 17 prologue_end           @ ../../../components/network/thread/subg_openthread/third_party/mbedtls/repo/library/asn1parse.c:107:17
	ldr	r0, [r0]
	mov	r5, r1
.Ltmp117:
	@DEBUG_VALUE: mbedtls_asn1_get_tag:end <- $r5
	@DEBUG_VALUE: mbedtls_asn1_get_bitstring:end <- $r5
	.loc	2 107 15 is_stmt 0              @ ../../../components/network/thread/subg_openthread/third_party/mbedtls/repo/library/asn1parse.c:107:15
	subs	r1, r1, r0
.Ltmp118:
	.loc	2 107 9                         @ ../../../components/network/thread/subg_openthread/third_party/mbedtls/repo/library/asn1parse.c:107:9
	cmp	r1, #1
	@DEBUG_VALUE: mbedtls_asn1_get_tag:len <- $r2
	@DEBUG_VALUE: mbedtls_asn1_get_bitstring:bs <- $r2
	blt	.LBB7_7
.Ltmp119:
@ %bb.1:
	@DEBUG_VALUE: mbedtls_asn1_get_bitstring:end <- $r5
	@DEBUG_VALUE: mbedtls_asn1_get_tag:end <- $r5
	@DEBUG_VALUE: mbedtls_asn1_get_bitstring:p <- $r4
	@DEBUG_VALUE: mbedtls_asn1_get_tag:p <- $r4
	@DEBUG_VALUE: mbedtls_asn1_get_tag:len <- $r2
	@DEBUG_VALUE: mbedtls_asn1_get_bitstring:bs <- $r2
	@DEBUG_VALUE: mbedtls_asn1_get_bitstring:ret <- -110
	@DEBUG_VALUE: mbedtls_asn1_get_tag:tag <- 3
	@DEBUG_VALUE: mbedtls_asn1_get_bitstring:bs <- $r2
	@DEBUG_VALUE: mbedtls_asn1_get_tag:len <- $r2
	.loc	2 110 9 is_stmt 1               @ ../../../components/network/thread/subg_openthread/third_party/mbedtls/repo/library/asn1parse.c:110:9
	ldrb	r1, [r0]
.Ltmp120:
	.loc	2 110 9 is_stmt 0               @ ../../../components/network/thread/subg_openthread/third_party/mbedtls/repo/library/asn1parse.c:110:9
	cmp	r1, #3
	itt	ne
	mvnne	r0, #97
.Ltmp121:
	.loc	2 0 0                           @ ../../../components/network/thread/subg_openthread/third_party/mbedtls/repo/library/asn1parse.c:0:0
	popne	{r4, r5, r6, pc}
.Ltmp122:
.LBB7_2:
	@DEBUG_VALUE: mbedtls_asn1_get_tag:len <- $r2
	@DEBUG_VALUE: mbedtls_asn1_get_bitstring:bs <- $r2
	@DEBUG_VALUE: mbedtls_asn1_get_bitstring:ret <- -110
	@DEBUG_VALUE: mbedtls_asn1_get_tag:tag <- 3
	.loc	2 113 9 is_stmt 1               @ ../../../components/network/thread/subg_openthread/third_party/mbedtls/repo/library/asn1parse.c:113:9
	adds	r0, #1
	str	r0, [r4]
	.loc	2 115 13                        @ ../../../components/network/thread/subg_openthread/third_party/mbedtls/repo/library/asn1parse.c:115:13
	mov	r0, r4
	mov	r1, r5
	mov	r6, r2
.Ltmp123:
	@DEBUG_VALUE: mbedtls_asn1_get_tag:len <- $r6
	@DEBUG_VALUE: mbedtls_asn1_get_bitstring:bs <- $r6
	bl	mbedtls_asn1_get_len
.Ltmp124:
	@DEBUG_VALUE: mbedtls_asn1_get_bitstring:ret <- $r0
	.loc	2 220 9                         @ ../../../components/network/thread/subg_openthread/third_party/mbedtls/repo/library/asn1parse.c:220:9
	cbz	r0, .LBB7_4
.Ltmp125:
@ %bb.3:
	@DEBUG_VALUE: mbedtls_asn1_get_bitstring:bs <- $r6
	@DEBUG_VALUE: mbedtls_asn1_get_tag:len <- $r6
	@DEBUG_VALUE: mbedtls_asn1_get_bitstring:ret <- $r0
	@DEBUG_VALUE: mbedtls_asn1_get_tag:tag <- 3
	.loc	2 0 0 is_stmt 0                 @ ../../../components/network/thread/subg_openthread/third_party/mbedtls/repo/library/asn1parse.c:0:0
	pop	{r4, r5, r6, pc}
.Ltmp126:
.LBB7_4:
	@DEBUG_VALUE: mbedtls_asn1_get_bitstring:bs <- $r6
	@DEBUG_VALUE: mbedtls_asn1_get_bitstring:ret <- $r0
	.loc	2 224 13 is_stmt 1              @ ../../../components/network/thread/subg_openthread/third_party/mbedtls/repo/library/asn1parse.c:224:13
	ldr	r0, [r6]
.Ltmp127:
	.loc	2 224 9 is_stmt 0               @ ../../../components/network/thread/subg_openthread/third_party/mbedtls/repo/library/asn1parse.c:224:9
	cbz	r0, .LBB7_7
.Ltmp128:
@ %bb.5:
	@DEBUG_VALUE: mbedtls_asn1_get_bitstring:bs <- $r6
	.loc	2 226 13 is_stmt 1              @ ../../../components/network/thread/subg_openthread/third_party/mbedtls/repo/library/asn1parse.c:226:13
	subs	r0, #1
	.loc	2 229 24                        @ ../../../components/network/thread/subg_openthread/third_party/mbedtls/repo/library/asn1parse.c:229:24
	ldr	r1, [r4]
	.loc	2 226 13                        @ ../../../components/network/thread/subg_openthread/third_party/mbedtls/repo/library/asn1parse.c:226:13
	str	r0, [r6]
	.loc	2 229 23                        @ ../../../components/network/thread/subg_openthread/third_party/mbedtls/repo/library/asn1parse.c:229:23
	ldrb	r2, [r1]
	.loc	2 230 9                         @ ../../../components/network/thread/subg_openthread/third_party/mbedtls/repo/library/asn1parse.c:230:9
	cmp	r2, #7
	.loc	2 229 21                        @ ../../../components/network/thread/subg_openthread/third_party/mbedtls/repo/library/asn1parse.c:229:21
	strb	r2, [r6, #4]
	itt	hi
	mvnhi	r0, #99
	.loc	2 0 0 is_stmt 0                 @ ../../../components/network/thread/subg_openthread/third_party/mbedtls/repo/library/asn1parse.c:0:0
	pophi	{r4, r5, r6, pc}
.Ltmp129:
.LBB7_6:
	.loc	2 232 9 is_stmt 1               @ ../../../components/network/thread/subg_openthread/third_party/mbedtls/repo/library/asn1parse.c:232:9
	adds	r1, #1
	str	r1, [r4]
	.loc	2 235 11                        @ ../../../components/network/thread/subg_openthread/third_party/mbedtls/repo/library/asn1parse.c:235:11
	str	r1, [r6, #8]
	.loc	2 236 8                         @ ../../../components/network/thread/subg_openthread/third_party/mbedtls/repo/library/asn1parse.c:236:8
	ldr	r1, [r4]
	add	r1, r0
	.loc	2 238 9                         @ ../../../components/network/thread/subg_openthread/third_party/mbedtls/repo/library/asn1parse.c:238:9
	subs	r0, r1, r5
	it	ne
	mvnne	r0, #101
	.loc	2 236 8                         @ ../../../components/network/thread/subg_openthread/third_party/mbedtls/repo/library/asn1parse.c:236:8
	str	r1, [r4]
	.loc	2 0 0 is_stmt 0                 @ ../../../components/network/thread/subg_openthread/third_party/mbedtls/repo/library/asn1parse.c:0:0
	pop	{r4, r5, r6, pc}
.LBB7_7:
	mvn	r0, #95
	pop	{r4, r5, r6, pc}
.Ltmp130:
.Lfunc_end7:
	.size	mbedtls_asn1_get_bitstring, .Lfunc_end7-mbedtls_asn1_get_bitstring
	.cfi_endproc
	.cantunwind
	.fnend
                                        @ -- End function
	.section	.text.mbedtls_asn1_traverse_sequence_of,"ax",%progbits
	.hidden	mbedtls_asn1_traverse_sequence_of @ -- Begin function mbedtls_asn1_traverse_sequence_of
	.globl	mbedtls_asn1_traverse_sequence_of
	.p2align	1
	.type	mbedtls_asn1_traverse_sequence_of,%function
	.code	16                              @ @mbedtls_asn1_traverse_sequence_of
	.thumb_func
mbedtls_asn1_traverse_sequence_of:
.Lfunc_begin8:
	.loc	2 256 0 is_stmt 1               @ ../../../components/network/thread/subg_openthread/third_party/mbedtls/repo/library/asn1parse.c:256:0
	.fnstart
	.cfi_startproc
@ %bb.0:
	@DEBUG_VALUE: mbedtls_asn1_traverse_sequence_of:p <- $r0
	@DEBUG_VALUE: mbedtls_asn1_traverse_sequence_of:end <- $r1
	@DEBUG_VALUE: mbedtls_asn1_traverse_sequence_of:tag_must_mask <- $r2
	@DEBUG_VALUE: mbedtls_asn1_traverse_sequence_of:tag_must_val <- $r3
	.save	{r4, r5, r6, r7, r8, r9, r10, r11, lr}
	push.w	{r4, r5, r6, r7, r8, r9, r10, r11, lr}
	.cfi_def_cfa_offset 36
	.cfi_offset lr, -4
	.cfi_offset r11, -8
	.cfi_offset r10, -12
	.cfi_offset r9, -16
	.cfi_offset r8, -20
	.cfi_offset r7, -24
	.cfi_offset r6, -28
	.cfi_offset r5, -32
	.cfi_offset r4, -36
	.pad	#4
	sub	sp, #4
	.cfi_def_cfa_offset 40
	mov	r5, r0
.Ltmp131:
	@DEBUG_VALUE: mbedtls_asn1_get_tag:tag <- 48
	@DEBUG_VALUE: mbedtls_asn1_get_tag:len <- $sp
	@DEBUG_VALUE: mbedtls_asn1_traverse_sequence_of:len <- [DW_OP_deref] $sp
	@DEBUG_VALUE: mbedtls_asn1_get_tag:p <- $r5
	@DEBUG_VALUE: mbedtls_asn1_get_tag:end <- undef
	@DEBUG_VALUE: mbedtls_asn1_traverse_sequence_of:tag_may_val <- undef
	@DEBUG_VALUE: mbedtls_asn1_traverse_sequence_of:tag_may_mask <- undef
	@DEBUG_VALUE: mbedtls_asn1_traverse_sequence_of:ctx <- [DW_OP_plus_uconst 52] [$sp+0]
	@DEBUG_VALUE: mbedtls_asn1_traverse_sequence_of:cb <- [DW_OP_plus_uconst 48] [$sp+0]
	@DEBUG_VALUE: mbedtls_asn1_traverse_sequence_of:tag_must_val <- $r3
	@DEBUG_VALUE: mbedtls_asn1_traverse_sequence_of:tag_must_mask <- undef
	@DEBUG_VALUE: mbedtls_asn1_traverse_sequence_of:p <- $r5
	.loc	2 107 17 prologue_end           @ ../../../components/network/thread/subg_openthread/third_party/mbedtls/repo/library/asn1parse.c:107:17
	ldr	r0, [r0]
	mov	r6, r1
.Ltmp132:
	@DEBUG_VALUE: mbedtls_asn1_traverse_sequence_of:end <- $r6
	.loc	2 107 15 is_stmt 0              @ ../../../components/network/thread/subg_openthread/third_party/mbedtls/repo/library/asn1parse.c:107:15
	subs	r1, r1, r0
.Ltmp133:
	.loc	2 107 9                         @ ../../../components/network/thread/subg_openthread/third_party/mbedtls/repo/library/asn1parse.c:107:9
	cmp	r1, #1
.Ltmp134:
	@DEBUG_VALUE: mbedtls_asn1_traverse_sequence_of:tag_must_mask <- $r2
	blt	.LBB8_5
.Ltmp135:
@ %bb.1:
	@DEBUG_VALUE: mbedtls_asn1_traverse_sequence_of:end <- $r6
	@DEBUG_VALUE: mbedtls_asn1_traverse_sequence_of:p <- $r5
	@DEBUG_VALUE: mbedtls_asn1_get_tag:p <- $r5
	@DEBUG_VALUE: mbedtls_asn1_traverse_sequence_of:tag_must_val <- $r3
	@DEBUG_VALUE: mbedtls_asn1_traverse_sequence_of:tag_must_mask <- $r2
	@DEBUG_VALUE: mbedtls_asn1_traverse_sequence_of:cb <- [DW_OP_plus_uconst 48] [$sp+0]
	@DEBUG_VALUE: mbedtls_asn1_traverse_sequence_of:ctx <- [DW_OP_plus_uconst 52] [$sp+0]
	@DEBUG_VALUE: mbedtls_asn1_traverse_sequence_of:len <- [DW_OP_deref] $sp
	@DEBUG_VALUE: mbedtls_asn1_get_tag:len <- $sp
	@DEBUG_VALUE: mbedtls_asn1_get_tag:tag <- 48
	@DEBUG_VALUE: mbedtls_asn1_traverse_sequence_of:tag_must_val <- $r3
	@DEBUG_VALUE: mbedtls_asn1_traverse_sequence_of:tag_must_mask <- $r2
	.loc	2 110 9 is_stmt 1               @ ../../../components/network/thread/subg_openthread/third_party/mbedtls/repo/library/asn1parse.c:110:9
	ldrb	r1, [r0]
.Ltmp136:
	.loc	2 110 9 is_stmt 0               @ ../../../components/network/thread/subg_openthread/third_party/mbedtls/repo/library/asn1parse.c:110:9
	cmp	r1, #48
	bne	.LBB8_15
.Ltmp137:
@ %bb.2:
	@DEBUG_VALUE: mbedtls_asn1_traverse_sequence_of:end <- $r6
	@DEBUG_VALUE: mbedtls_asn1_traverse_sequence_of:p <- $r5
	@DEBUG_VALUE: mbedtls_asn1_get_tag:p <- $r5
	@DEBUG_VALUE: mbedtls_asn1_traverse_sequence_of:tag_must_val <- $r3
	@DEBUG_VALUE: mbedtls_asn1_traverse_sequence_of:tag_must_mask <- $r2
	@DEBUG_VALUE: mbedtls_asn1_traverse_sequence_of:cb <- [DW_OP_plus_uconst 48] [$sp+0]
	@DEBUG_VALUE: mbedtls_asn1_traverse_sequence_of:ctx <- [DW_OP_plus_uconst 52] [$sp+0]
	@DEBUG_VALUE: mbedtls_asn1_traverse_sequence_of:len <- [DW_OP_deref] $sp
	@DEBUG_VALUE: mbedtls_asn1_get_tag:len <- $sp
	@DEBUG_VALUE: mbedtls_asn1_get_tag:tag <- 48
	.loc	2 113 9 is_stmt 1               @ ../../../components/network/thread/subg_openthread/third_party/mbedtls/repo/library/asn1parse.c:113:9
	adds	r0, #1
	mov	r11, r2
.Ltmp138:
	@DEBUG_VALUE: mbedtls_asn1_traverse_sequence_of:tag_must_mask <- $r11
	@DEBUG_VALUE: mbedtls_asn1_traverse_sequence_of:tag_must_mask <- $r11
	str	r0, [r5]
	mov	r2, sp
	.loc	2 115 13                        @ ../../../components/network/thread/subg_openthread/third_party/mbedtls/repo/library/asn1parse.c:115:13
	mov	r0, r5
	mov	r1, r6
	mov	r10, r3
.Ltmp139:
	@DEBUG_VALUE: mbedtls_asn1_traverse_sequence_of:tag_must_val <- $r10
	@DEBUG_VALUE: mbedtls_asn1_traverse_sequence_of:tag_must_val <- $r10
	bl	mbedtls_asn1_get_len
.Ltmp140:
	@DEBUG_VALUE: mbedtls_asn1_traverse_sequence_of:ret <- $r0
	.loc	2 261 9                         @ ../../../components/network/thread/subg_openthread/third_party/mbedtls/repo/library/asn1parse.c:261:9
	cbnz	r0, .LBB8_16
.Ltmp141:
@ %bb.3:
	@DEBUG_VALUE: mbedtls_asn1_traverse_sequence_of:tag_must_mask <- $r11
	@DEBUG_VALUE: mbedtls_asn1_traverse_sequence_of:tag_must_val <- $r10
	@DEBUG_VALUE: mbedtls_asn1_traverse_sequence_of:end <- $r6
	@DEBUG_VALUE: mbedtls_asn1_traverse_sequence_of:p <- $r5
	@DEBUG_VALUE: mbedtls_asn1_traverse_sequence_of:ret <- $r0
	@DEBUG_VALUE: mbedtls_asn1_traverse_sequence_of:cb <- [DW_OP_plus_uconst 48] [$sp+0]
	@DEBUG_VALUE: mbedtls_asn1_traverse_sequence_of:ctx <- [DW_OP_plus_uconst 52] [$sp+0]
	@DEBUG_VALUE: mbedtls_asn1_traverse_sequence_of:len <- [DW_OP_deref] $sp
	.loc	2 267 9                         @ ../../../components/network/thread/subg_openthread/third_party/mbedtls/repo/library/asn1parse.c:267:9
	ldr	r1, [r5]
	.loc	2 267 14 is_stmt 0              @ ../../../components/network/thread/subg_openthread/third_party/mbedtls/repo/library/asn1parse.c:267:14
	ldr	r0, [sp]
.Ltmp142:
	@DEBUG_VALUE: mbedtls_asn1_traverse_sequence_of:len <- $r0
	.loc	2 267 12                        @ ../../../components/network/thread/subg_openthread/third_party/mbedtls/repo/library/asn1parse.c:267:12
	add	r0, r1
.Ltmp143:
	.loc	2 267 9                         @ ../../../components/network/thread/subg_openthread/third_party/mbedtls/repo/library/asn1parse.c:267:9
	cmp	r0, r6
	beq	.LBB8_6
.Ltmp144:
@ %bb.4:
	@DEBUG_VALUE: mbedtls_asn1_traverse_sequence_of:tag_must_mask <- $r11
	@DEBUG_VALUE: mbedtls_asn1_traverse_sequence_of:tag_must_val <- $r10
	@DEBUG_VALUE: mbedtls_asn1_traverse_sequence_of:end <- $r6
	@DEBUG_VALUE: mbedtls_asn1_traverse_sequence_of:p <- $r5
	@DEBUG_VALUE: mbedtls_asn1_traverse_sequence_of:cb <- [DW_OP_plus_uconst 48] [$sp+0]
	@DEBUG_VALUE: mbedtls_asn1_traverse_sequence_of:ctx <- [DW_OP_plus_uconst 52] [$sp+0]
	.loc	2 0 9                           @ ../../../components/network/thread/subg_openthread/third_party/mbedtls/repo/library/asn1parse.c:0:9
	mvn	r0, #101
	b	.LBB8_16
.Ltmp145:
.LBB8_5:
	@DEBUG_VALUE: mbedtls_asn1_traverse_sequence_of:end <- $r6
	@DEBUG_VALUE: mbedtls_asn1_traverse_sequence_of:p <- $r5
	@DEBUG_VALUE: mbedtls_asn1_get_tag:p <- $r5
	@DEBUG_VALUE: mbedtls_asn1_traverse_sequence_of:tag_must_val <- $r3
	@DEBUG_VALUE: mbedtls_asn1_traverse_sequence_of:tag_must_mask <- $r2
	@DEBUG_VALUE: mbedtls_asn1_traverse_sequence_of:cb <- [DW_OP_plus_uconst 48] [$sp+0]
	@DEBUG_VALUE: mbedtls_asn1_traverse_sequence_of:ctx <- [DW_OP_plus_uconst 52] [$sp+0]
	@DEBUG_VALUE: mbedtls_asn1_traverse_sequence_of:len <- [DW_OP_deref] $sp
	@DEBUG_VALUE: mbedtls_asn1_get_tag:len <- $sp
	@DEBUG_VALUE: mbedtls_asn1_get_tag:tag <- 48
	mvn	r0, #95
	b	.LBB8_16
.Ltmp146:
.LBB8_6:
	@DEBUG_VALUE: mbedtls_asn1_traverse_sequence_of:tag_must_mask <- $r11
	@DEBUG_VALUE: mbedtls_asn1_traverse_sequence_of:tag_must_val <- $r10
	@DEBUG_VALUE: mbedtls_asn1_traverse_sequence_of:end <- $r6
	@DEBUG_VALUE: mbedtls_asn1_traverse_sequence_of:p <- $r5
	@DEBUG_VALUE: mbedtls_asn1_traverse_sequence_of:cb <- [DW_OP_plus_uconst 48] [$sp+0]
	@DEBUG_VALUE: mbedtls_asn1_traverse_sequence_of:ctx <- [DW_OP_plus_uconst 52] [$sp+0]
	.loc	2 270 5 is_stmt 1               @ ../../../components/network/thread/subg_openthread/third_party/mbedtls/repo/library/asn1parse.c:270:5
	cmp	r1, r6
	bhs	.LBB8_17
.Ltmp147:
@ %bb.7:
	@DEBUG_VALUE: mbedtls_asn1_traverse_sequence_of:tag_must_mask <- $r11
	@DEBUG_VALUE: mbedtls_asn1_traverse_sequence_of:tag_must_val <- $r10
	@DEBUG_VALUE: mbedtls_asn1_traverse_sequence_of:end <- $r6
	@DEBUG_VALUE: mbedtls_asn1_traverse_sequence_of:p <- $r5
	@DEBUG_VALUE: mbedtls_asn1_traverse_sequence_of:cb <- [DW_OP_plus_uconst 48] [$sp+0]
	@DEBUG_VALUE: mbedtls_asn1_traverse_sequence_of:ctx <- [DW_OP_plus_uconst 52] [$sp+0]
	.loc	2 0 5 is_stmt 0                 @ ../../../components/network/thread/subg_openthread/third_party/mbedtls/repo/library/asn1parse.c:0:5
	ldr.w	r8, [sp, #48]
	mov	r9, sp
.Ltmp148:
	.p2align	2
.LBB8_8:                                @ =>This Inner Loop Header: Depth=1
	@DEBUG_VALUE: mbedtls_asn1_traverse_sequence_of:tag_must_mask <- $r11
	@DEBUG_VALUE: mbedtls_asn1_traverse_sequence_of:tag_must_val <- $r10
	@DEBUG_VALUE: mbedtls_asn1_traverse_sequence_of:end <- $r6
	@DEBUG_VALUE: mbedtls_asn1_traverse_sequence_of:p <- $r5
	@DEBUG_VALUE: mbedtls_asn1_traverse_sequence_of:cb <- [DW_OP_plus_uconst 48] [$sp+0]
	@DEBUG_VALUE: mbedtls_asn1_traverse_sequence_of:ctx <- [DW_OP_plus_uconst 52] [$sp+0]
	.loc	2 272 40 is_stmt 1              @ ../../../components/network/thread/subg_openthread/third_party/mbedtls/repo/library/asn1parse.c:272:40
	adds	r0, r1, #1
	str	r0, [r5]
	.loc	2 272 35 is_stmt 0              @ ../../../components/network/thread/subg_openthread/third_party/mbedtls/repo/library/asn1parse.c:272:35
	ldrb	r4, [r1]
.Ltmp149:
	@DEBUG_VALUE: tag <- undef
	.loc	2 274 19 is_stmt 1              @ ../../../components/network/thread/subg_openthread/third_party/mbedtls/repo/library/asn1parse.c:274:19
	and.w	r0, r4, r11
.Ltmp150:
	.loc	2 274 13 is_stmt 0              @ ../../../components/network/thread/subg_openthread/third_party/mbedtls/repo/library/asn1parse.c:274:13
	cmp	r0, r10
	bne	.LBB8_15
.Ltmp151:
@ %bb.9:                                @   in Loop: Header=BB8_8 Depth=1
	@DEBUG_VALUE: mbedtls_asn1_traverse_sequence_of:tag_must_mask <- $r11
	@DEBUG_VALUE: mbedtls_asn1_traverse_sequence_of:tag_must_val <- $r10
	@DEBUG_VALUE: mbedtls_asn1_traverse_sequence_of:end <- $r6
	@DEBUG_VALUE: mbedtls_asn1_traverse_sequence_of:p <- $r5
	@DEBUG_VALUE: mbedtls_asn1_traverse_sequence_of:cb <- [DW_OP_plus_uconst 48] [$sp+0]
	@DEBUG_VALUE: mbedtls_asn1_traverse_sequence_of:ctx <- [DW_OP_plus_uconst 52] [$sp+0]
	@DEBUG_VALUE: mbedtls_asn1_traverse_sequence_of:len <- [DW_OP_deref] $sp
	.loc	2 277 21 is_stmt 1              @ ../../../components/network/thread/subg_openthread/third_party/mbedtls/repo/library/asn1parse.c:277:21
	mov	r0, r5
	mov	r1, r6
	mov	r2, r9
	bl	mbedtls_asn1_get_len
.Ltmp152:
	@DEBUG_VALUE: mbedtls_asn1_traverse_sequence_of:ret <- $r0
	.loc	2 277 13 is_stmt 0              @ ../../../components/network/thread/subg_openthread/third_party/mbedtls/repo/library/asn1parse.c:277:13
	cbnz	r0, .LBB8_16
.Ltmp153:
@ %bb.10:                               @   in Loop: Header=BB8_8 Depth=1
	@DEBUG_VALUE: mbedtls_asn1_traverse_sequence_of:tag_must_mask <- $r11
	@DEBUG_VALUE: mbedtls_asn1_traverse_sequence_of:tag_must_val <- $r10
	@DEBUG_VALUE: mbedtls_asn1_traverse_sequence_of:end <- $r6
	@DEBUG_VALUE: mbedtls_asn1_traverse_sequence_of:p <- $r5
	@DEBUG_VALUE: mbedtls_asn1_traverse_sequence_of:ret <- $r0
	@DEBUG_VALUE: mbedtls_asn1_traverse_sequence_of:cb <- [DW_OP_plus_uconst 48] [$sp+0]
	@DEBUG_VALUE: mbedtls_asn1_traverse_sequence_of:ctx <- [DW_OP_plus_uconst 52] [$sp+0]
	@DEBUG_VALUE: mbedtls_asn1_traverse_sequence_of:len <- [DW_OP_deref] $sp
	.loc	2 280 13 is_stmt 1              @ ../../../components/network/thread/subg_openthread/third_party/mbedtls/repo/library/asn1parse.c:280:13
	cmp.w	r8, #0
	beq	.LBB8_13
.Ltmp154:
@ %bb.11:                               @   in Loop: Header=BB8_8 Depth=1
	@DEBUG_VALUE: mbedtls_asn1_traverse_sequence_of:tag_must_mask <- $r11
	@DEBUG_VALUE: mbedtls_asn1_traverse_sequence_of:tag_must_val <- $r10
	@DEBUG_VALUE: mbedtls_asn1_traverse_sequence_of:end <- $r6
	@DEBUG_VALUE: mbedtls_asn1_traverse_sequence_of:p <- $r5
	@DEBUG_VALUE: mbedtls_asn1_traverse_sequence_of:ret <- $r0
	@DEBUG_VALUE: mbedtls_asn1_traverse_sequence_of:cb <- [DW_OP_plus_uconst 48] [$sp+0]
	@DEBUG_VALUE: mbedtls_asn1_traverse_sequence_of:ctx <- [DW_OP_plus_uconst 52] [$sp+0]
	@DEBUG_VALUE: mbedtls_asn1_traverse_sequence_of:len <- [DW_OP_deref] $sp
	.loc	2 0 0 is_stmt 0                 @ ../../../components/network/thread/subg_openthread/third_party/mbedtls/repo/library/asn1parse.c:0:0
	ldr	r0, [sp, #40]
.Ltmp155:
	.loc	2 280 13                        @ ../../../components/network/thread/subg_openthread/third_party/mbedtls/repo/library/asn1parse.c:280:13
	ldr	r1, [sp, #44]
	.loc	2 0 0                           @ ../../../components/network/thread/subg_openthread/third_party/mbedtls/repo/library/asn1parse.c:0:0
	ands	r0, r4
	.loc	2 280 13                        @ ../../../components/network/thread/subg_openthread/third_party/mbedtls/repo/library/asn1parse.c:280:13
	cmp	r0, r1
	bne	.LBB8_13
.Ltmp156:
@ %bb.12:                               @   in Loop: Header=BB8_8 Depth=1
	@DEBUG_VALUE: mbedtls_asn1_traverse_sequence_of:tag_must_mask <- $r11
	@DEBUG_VALUE: mbedtls_asn1_traverse_sequence_of:tag_must_val <- $r10
	@DEBUG_VALUE: mbedtls_asn1_traverse_sequence_of:end <- $r6
	@DEBUG_VALUE: mbedtls_asn1_traverse_sequence_of:p <- $r5
	@DEBUG_VALUE: mbedtls_asn1_traverse_sequence_of:cb <- [DW_OP_plus_uconst 48] [$sp+0]
	@DEBUG_VALUE: mbedtls_asn1_traverse_sequence_of:ctx <- [DW_OP_plus_uconst 52] [$sp+0]
	@DEBUG_VALUE: mbedtls_asn1_traverse_sequence_of:len <- [DW_OP_deref] $sp
	.loc	2 284 41 is_stmt 1              @ ../../../components/network/thread/subg_openthread/third_party/mbedtls/repo/library/asn1parse.c:284:41
	ldr	r7, [sp]
.Ltmp157:
	@DEBUG_VALUE: mbedtls_asn1_traverse_sequence_of:len <- $r7
	.loc	2 284 37 is_stmt 0              @ ../../../components/network/thread/subg_openthread/third_party/mbedtls/repo/library/asn1parse.c:284:37
	ldr	r2, [r5]
	.loc	2 284 23                        @ ../../../components/network/thread/subg_openthread/third_party/mbedtls/repo/library/asn1parse.c:284:23
	ldr	r0, [sp, #52]
	mov	r1, r4
	mov	r3, r7
	blx	r8
.Ltmp158:
	@DEBUG_VALUE: mbedtls_asn1_traverse_sequence_of:ret <- $r0
	.loc	2 0 23                          @ ../../../components/network/thread/subg_openthread/third_party/mbedtls/repo/library/asn1parse.c:0:23
	cbz	r0, .LBB8_14
	b	.LBB8_16
.Ltmp159:
.LBB8_13:                               @   in Loop: Header=BB8_8 Depth=1
	@DEBUG_VALUE: mbedtls_asn1_traverse_sequence_of:tag_must_mask <- $r11
	@DEBUG_VALUE: mbedtls_asn1_traverse_sequence_of:tag_must_val <- $r10
	@DEBUG_VALUE: mbedtls_asn1_traverse_sequence_of:end <- $r6
	@DEBUG_VALUE: mbedtls_asn1_traverse_sequence_of:p <- $r5
	@DEBUG_VALUE: mbedtls_asn1_traverse_sequence_of:cb <- [DW_OP_plus_uconst 48] [$sp+0]
	@DEBUG_VALUE: mbedtls_asn1_traverse_sequence_of:ctx <- [DW_OP_plus_uconst 52] [$sp+0]
	@DEBUG_VALUE: mbedtls_asn1_traverse_sequence_of:len <- [DW_OP_deref] $sp
	.loc	2 290 15 is_stmt 1              @ ../../../components/network/thread/subg_openthread/third_party/mbedtls/repo/library/asn1parse.c:290:15
	ldr	r7, [sp]
.Ltmp160:
.LBB8_14:                               @   in Loop: Header=BB8_8 Depth=1
	@DEBUG_VALUE: mbedtls_asn1_traverse_sequence_of:tag_must_mask <- $r11
	@DEBUG_VALUE: mbedtls_asn1_traverse_sequence_of:tag_must_val <- $r10
	@DEBUG_VALUE: mbedtls_asn1_traverse_sequence_of:end <- $r6
	@DEBUG_VALUE: mbedtls_asn1_traverse_sequence_of:p <- $r5
	@DEBUG_VALUE: mbedtls_asn1_traverse_sequence_of:cb <- [DW_OP_plus_uconst 48] [$sp+0]
	@DEBUG_VALUE: mbedtls_asn1_traverse_sequence_of:ctx <- [DW_OP_plus_uconst 52] [$sp+0]
	@DEBUG_VALUE: mbedtls_asn1_traverse_sequence_of:len <- $r7
	.loc	2 290 12 is_stmt 0              @ ../../../components/network/thread/subg_openthread/third_party/mbedtls/repo/library/asn1parse.c:290:12
	ldr	r0, [r5]
	adds	r1, r0, r7
.Ltmp161:
	.loc	2 270 5 is_stmt 1               @ ../../../components/network/thread/subg_openthread/third_party/mbedtls/repo/library/asn1parse.c:270:5
	cmp	r1, r6
	mov.w	r0, #0
.Ltmp162:
	.loc	2 290 12                        @ ../../../components/network/thread/subg_openthread/third_party/mbedtls/repo/library/asn1parse.c:290:12
	str	r1, [r5]
.Ltmp163:
	.loc	2 270 5                         @ ../../../components/network/thread/subg_openthread/third_party/mbedtls/repo/library/asn1parse.c:270:5
	blo	.LBB8_8
	b	.LBB8_16
.Ltmp164:
.LBB8_15:
	@DEBUG_VALUE: mbedtls_asn1_traverse_sequence_of:end <- $r6
	@DEBUG_VALUE: mbedtls_asn1_traverse_sequence_of:p <- $r5
	@DEBUG_VALUE: mbedtls_asn1_traverse_sequence_of:cb <- [DW_OP_plus_uconst 48] [$sp+0]
	@DEBUG_VALUE: mbedtls_asn1_traverse_sequence_of:ctx <- [DW_OP_plus_uconst 52] [$sp+0]
	.loc	2 0 5 is_stmt 0                 @ ../../../components/network/thread/subg_openthread/third_party/mbedtls/repo/library/asn1parse.c:0:5
	mvn	r0, #97
.Ltmp165:
.LBB8_16:
	@DEBUG_VALUE: mbedtls_asn1_traverse_sequence_of:end <- $r6
	@DEBUG_VALUE: mbedtls_asn1_traverse_sequence_of:p <- $r5
	@DEBUG_VALUE: mbedtls_asn1_traverse_sequence_of:cb <- [DW_OP_plus_uconst 48] [$sp+0]
	@DEBUG_VALUE: mbedtls_asn1_traverse_sequence_of:ctx <- [DW_OP_plus_uconst 52] [$sp+0]
	.loc	2 294 1 is_stmt 1               @ ../../../components/network/thread/subg_openthread/third_party/mbedtls/repo/library/asn1parse.c:294:1
	add	sp, #4
	pop.w	{r4, r5, r6, r7, r8, r9, r10, r11, pc}
.Ltmp166:
.LBB8_17:
	@DEBUG_VALUE: mbedtls_asn1_traverse_sequence_of:tag_must_mask <- $r11
	@DEBUG_VALUE: mbedtls_asn1_traverse_sequence_of:tag_must_val <- $r10
	@DEBUG_VALUE: mbedtls_asn1_traverse_sequence_of:end <- $r6
	@DEBUG_VALUE: mbedtls_asn1_traverse_sequence_of:p <- $r5
	@DEBUG_VALUE: mbedtls_asn1_traverse_sequence_of:cb <- [DW_OP_plus_uconst 48] [$sp+0]
	@DEBUG_VALUE: mbedtls_asn1_traverse_sequence_of:ctx <- [DW_OP_plus_uconst 52] [$sp+0]
	.loc	2 0 1 is_stmt 0                 @ ../../../components/network/thread/subg_openthread/third_party/mbedtls/repo/library/asn1parse.c:0:1
	movs	r0, #0
	b	.LBB8_16
.Lfunc_end8:
	.size	mbedtls_asn1_traverse_sequence_of, .Lfunc_end8-mbedtls_asn1_traverse_sequence_of
	.cfi_endproc
	.cantunwind
	.fnend
                                        @ -- End function
	.section	.text.mbedtls_asn1_get_bitstring_null,"ax",%progbits
	.hidden	mbedtls_asn1_get_bitstring_null @ -- Begin function mbedtls_asn1_get_bitstring_null
	.globl	mbedtls_asn1_get_bitstring_null
	.p2align	1
	.type	mbedtls_asn1_get_bitstring_null,%function
	.code	16                              @ @mbedtls_asn1_get_bitstring_null
	.thumb_func
mbedtls_asn1_get_bitstring_null:
.Lfunc_begin9:
	.loc	2 301 0 is_stmt 1               @ ../../../components/network/thread/subg_openthread/third_party/mbedtls/repo/library/asn1parse.c:301:0
	.fnstart
	.cfi_startproc
@ %bb.0:
	@DEBUG_VALUE: mbedtls_asn1_get_bitstring_null:p <- $r0
	@DEBUG_VALUE: mbedtls_asn1_get_bitstring_null:end <- $r1
	@DEBUG_VALUE: mbedtls_asn1_get_bitstring_null:len <- $r2
	@DEBUG_VALUE: mbedtls_asn1_get_tag:p <- $r0
	@DEBUG_VALUE: mbedtls_asn1_get_tag:end <- $r1
	@DEBUG_VALUE: mbedtls_asn1_get_tag:len <- $r2
	.save	{r4, r5, r7, lr}
	push	{r4, r5, r7, lr}
	.cfi_def_cfa_offset 16
	.cfi_offset lr, -4
	.cfi_offset r7, -8
	.cfi_offset r5, -12
	.cfi_offset r4, -16
	mov	r4, r0
.Ltmp167:
	@DEBUG_VALUE: mbedtls_asn1_get_tag:tag <- 3
	@DEBUG_VALUE: mbedtls_asn1_get_bitstring_null:ret <- -110
	@DEBUG_VALUE: mbedtls_asn1_get_tag:p <- $r4
	@DEBUG_VALUE: mbedtls_asn1_get_bitstring_null:p <- $r4
	.loc	2 107 17 prologue_end           @ ../../../components/network/thread/subg_openthread/third_party/mbedtls/repo/library/asn1parse.c:107:17
	ldr	r0, [r0]
	@DEBUG_VALUE: mbedtls_asn1_get_tag:end <- $r1
	@DEBUG_VALUE: mbedtls_asn1_get_bitstring_null:end <- $r1
	.loc	2 107 15 is_stmt 0              @ ../../../components/network/thread/subg_openthread/third_party/mbedtls/repo/library/asn1parse.c:107:15
	subs	r3, r1, r0
.Ltmp168:
	.loc	2 107 9                         @ ../../../components/network/thread/subg_openthread/third_party/mbedtls/repo/library/asn1parse.c:107:9
	cmp	r3, #1
	@DEBUG_VALUE: mbedtls_asn1_get_tag:len <- $r2
	@DEBUG_VALUE: mbedtls_asn1_get_bitstring_null:len <- $r2
	blt	.LBB9_4
.Ltmp169:
@ %bb.1:
	@DEBUG_VALUE: mbedtls_asn1_get_bitstring_null:p <- $r4
	@DEBUG_VALUE: mbedtls_asn1_get_tag:p <- $r4
	@DEBUG_VALUE: mbedtls_asn1_get_tag:len <- $r2
	@DEBUG_VALUE: mbedtls_asn1_get_bitstring_null:len <- $r2
	@DEBUG_VALUE: mbedtls_asn1_get_tag:end <- $r1
	@DEBUG_VALUE: mbedtls_asn1_get_bitstring_null:end <- $r1
	@DEBUG_VALUE: mbedtls_asn1_get_bitstring_null:ret <- -110
	@DEBUG_VALUE: mbedtls_asn1_get_tag:tag <- 3
	.loc	2 0 9                           @ ../../../components/network/thread/subg_openthread/third_party/mbedtls/repo/library/asn1parse.c:0:9
	mov	r5, r2
.Ltmp170:
	@DEBUG_VALUE: mbedtls_asn1_get_bitstring_null:len <- $r5
	@DEBUG_VALUE: mbedtls_asn1_get_bitstring_null:len <- $r5
	@DEBUG_VALUE: mbedtls_asn1_get_tag:len <- $r5
	.loc	2 110 9 is_stmt 1               @ ../../../components/network/thread/subg_openthread/third_party/mbedtls/repo/library/asn1parse.c:110:9
	ldrb	r2, [r0]
.Ltmp171:
	.loc	2 110 9 is_stmt 0               @ ../../../components/network/thread/subg_openthread/third_party/mbedtls/repo/library/asn1parse.c:110:9
	cmp	r2, #3
	itt	ne
	mvnne	r0, #97
.Ltmp172:
	.loc	2 316 1 is_stmt 1               @ ../../../components/network/thread/subg_openthread/third_party/mbedtls/repo/library/asn1parse.c:316:1
	popne	{r4, r5, r7, pc}
.Ltmp173:
.LBB9_2:
	@DEBUG_VALUE: mbedtls_asn1_get_tag:end <- $r1
	@DEBUG_VALUE: mbedtls_asn1_get_bitstring_null:end <- $r1
	@DEBUG_VALUE: mbedtls_asn1_get_bitstring_null:ret <- -110
	@DEBUG_VALUE: mbedtls_asn1_get_tag:tag <- 3
	.loc	2 113 9                         @ ../../../components/network/thread/subg_openthread/third_party/mbedtls/repo/library/asn1parse.c:113:9
	adds	r0, #1
	str	r0, [r4]
	.loc	2 115 13                        @ ../../../components/network/thread/subg_openthread/third_party/mbedtls/repo/library/asn1parse.c:115:13
	mov	r0, r4
	mov	r2, r5
	bl	mbedtls_asn1_get_len
.Ltmp174:
	@DEBUG_VALUE: mbedtls_asn1_get_bitstring_null:end <- [DW_OP_LLVM_entry_value 1] $r1
	@DEBUG_VALUE: mbedtls_asn1_get_bitstring_null:ret <- $r0
	.loc	2 304 9                         @ ../../../components/network/thread/subg_openthread/third_party/mbedtls/repo/library/asn1parse.c:304:9
	cbz	r0, .LBB9_5
.Ltmp175:
@ %bb.3:
	@DEBUG_VALUE: mbedtls_asn1_get_bitstring_null:ret <- $r0
	@DEBUG_VALUE: mbedtls_asn1_get_bitstring_null:end <- [DW_OP_LLVM_entry_value 1] $r1
	.loc	2 316 1                         @ ../../../components/network/thread/subg_openthread/third_party/mbedtls/repo/library/asn1parse.c:316:1
	pop	{r4, r5, r7, pc}
.Ltmp176:
.LBB9_4:
	@DEBUG_VALUE: mbedtls_asn1_get_bitstring_null:p <- $r4
	@DEBUG_VALUE: mbedtls_asn1_get_bitstring_null:len <- $r2
	@DEBUG_VALUE: mbedtls_asn1_get_bitstring_null:end <- $r1
	@DEBUG_VALUE: mbedtls_asn1_get_bitstring_null:ret <- -110
	.loc	2 0 1 is_stmt 0                 @ ../../../components/network/thread/subg_openthread/third_party/mbedtls/repo/library/asn1parse.c:0:1
	mvn	r0, #95
	.loc	2 316 1                         @ ../../../components/network/thread/subg_openthread/third_party/mbedtls/repo/library/asn1parse.c:316:1
	pop	{r4, r5, r7, pc}
.Ltmp177:
.LBB9_5:
	@DEBUG_VALUE: mbedtls_asn1_get_bitstring_null:ret <- $r0
	@DEBUG_VALUE: mbedtls_asn1_get_bitstring_null:end <- [DW_OP_LLVM_entry_value 1] $r1
	.loc	2 307 9 is_stmt 1               @ ../../../components/network/thread/subg_openthread/third_party/mbedtls/repo/library/asn1parse.c:307:9
	ldr	r0, [r5]
.Ltmp178:
	.loc	2 307 9 is_stmt 0               @ ../../../components/network/thread/subg_openthread/third_party/mbedtls/repo/library/asn1parse.c:307:9
	cbz	r0, .LBB9_7
.Ltmp179:
@ %bb.6:
	@DEBUG_VALUE: mbedtls_asn1_get_bitstring_null:end <- [DW_OP_LLVM_entry_value 1] $r1
	.loc	2 309 5 is_stmt 1               @ ../../../components/network/thread/subg_openthread/third_party/mbedtls/repo/library/asn1parse.c:309:5
	subs	r1, r0, #1
.Ltmp180:
	.loc	2 311 10                        @ ../../../components/network/thread/subg_openthread/third_party/mbedtls/repo/library/asn1parse.c:311:10
	ldr	r0, [r4]
.Ltmp181:
	.loc	2 309 5                         @ ../../../components/network/thread/subg_openthread/third_party/mbedtls/repo/library/asn1parse.c:309:5
	str	r1, [r5]
.Ltmp182:
	.loc	2 311 9                         @ ../../../components/network/thread/subg_openthread/third_party/mbedtls/repo/library/asn1parse.c:311:9
	ldrb	r1, [r0]
.Ltmp183:
	.loc	2 311 9 is_stmt 0               @ ../../../components/network/thread/subg_openthread/third_party/mbedtls/repo/library/asn1parse.c:311:9
	cbz	r1, .LBB9_8
.Ltmp184:
.LBB9_7:
	@DEBUG_VALUE: mbedtls_asn1_get_bitstring_null:end <- [DW_OP_LLVM_entry_value 1] $r1
	.loc	2 0 9                           @ ../../../components/network/thread/subg_openthread/third_party/mbedtls/repo/library/asn1parse.c:0:9
	mvn	r0, #103
	.loc	2 316 1 is_stmt 1               @ ../../../components/network/thread/subg_openthread/third_party/mbedtls/repo/library/asn1parse.c:316:1
	pop	{r4, r5, r7, pc}
.Ltmp185:
.LBB9_8:
	@DEBUG_VALUE: mbedtls_asn1_get_bitstring_null:end <- [DW_OP_LLVM_entry_value 1] $r1
	.loc	2 313 5                         @ ../../../components/network/thread/subg_openthread/third_party/mbedtls/repo/library/asn1parse.c:313:5
	adds	r0, #1
	str	r0, [r4]
	movs	r0, #0
	.loc	2 316 1                         @ ../../../components/network/thread/subg_openthread/third_party/mbedtls/repo/library/asn1parse.c:316:1
	pop	{r4, r5, r7, pc}
.Ltmp186:
.Lfunc_end9:
	.size	mbedtls_asn1_get_bitstring_null, .Lfunc_end9-mbedtls_asn1_get_bitstring_null
	.cfi_endproc
	.cantunwind
	.fnend
                                        @ -- End function
	.section	.text.mbedtls_asn1_sequence_free,"ax",%progbits
	.hidden	mbedtls_asn1_sequence_free      @ -- Begin function mbedtls_asn1_sequence_free
	.globl	mbedtls_asn1_sequence_free
	.p2align	1
	.type	mbedtls_asn1_sequence_free,%function
	.code	16                              @ @mbedtls_asn1_sequence_free
	.thumb_func
mbedtls_asn1_sequence_free:
.Lfunc_begin10:
	.loc	2 319 0                         @ ../../../components/network/thread/subg_openthread/third_party/mbedtls/repo/library/asn1parse.c:319:0
	.fnstart
	.cfi_startproc
@ %bb.0:
	@DEBUG_VALUE: mbedtls_asn1_sequence_free:seq <- $r0
	@DEBUG_VALUE: mbedtls_asn1_sequence_free:seq <- $r0
	.save	{r4, r5, r7, lr}
	push	{r4, r5, r7, lr}
	.cfi_def_cfa_offset 16
	.cfi_offset lr, -4
	.cfi_offset r7, -8
	.cfi_offset r5, -12
	.cfi_offset r4, -16
.Ltmp187:
	.loc	2 320 5 prologue_end            @ ../../../components/network/thread/subg_openthread/third_party/mbedtls/repo/library/asn1parse.c:320:5
	cbz	r0, .LBB10_3
.Ltmp188:
@ %bb.1:
	@DEBUG_VALUE: mbedtls_asn1_sequence_free:seq <- $r0
	.loc	2 0 5 is_stmt 0                 @ ../../../components/network/thread/subg_openthread/third_party/mbedtls/repo/library/asn1parse.c:0:5
	mov	r4, r0
.Ltmp189:
	@DEBUG_VALUE: mbedtls_asn1_sequence_free:seq <- $r4
	@DEBUG_VALUE: mbedtls_asn1_sequence_free:seq <- $r4
	.p2align	2
.LBB10_2:                               @ =>This Inner Loop Header: Depth=1
	@DEBUG_VALUE: mbedtls_asn1_sequence_free:seq <- $r4
	@DEBUG_VALUE: mbedtls_asn1_sequence_free:seq <- $r4
	.loc	2 322 44 is_stmt 1              @ ../../../components/network/thread/subg_openthread/third_party/mbedtls/repo/library/asn1parse.c:322:44
	ldr	r5, [r4, #12]
.Ltmp190:
	@DEBUG_VALUE: next <- $r5
	.loc	2 323 9                         @ ../../../components/network/thread/subg_openthread/third_party/mbedtls/repo/library/asn1parse.c:323:9
	mov	r0, r4
	movs	r1, #16
	bl	mbedtls_platform_zeroize
.Ltmp191:
	.loc	2 324 9                         @ ../../../components/network/thread/subg_openthread/third_party/mbedtls/repo/library/asn1parse.c:324:9
	mov	r0, r4
	bl	mbedtls_free
.Ltmp192:
	@DEBUG_VALUE: mbedtls_asn1_sequence_free:seq <- $r5
	.loc	2 320 5                         @ ../../../components/network/thread/subg_openthread/third_party/mbedtls/repo/library/asn1parse.c:320:5
	cmp	r5, #0
	mov	r4, r5
.Ltmp193:
	@DEBUG_VALUE: next <- $r4
	@DEBUG_VALUE: next <- $r4
	@DEBUG_VALUE: next <- $r4
	@DEBUG_VALUE: mbedtls_asn1_sequence_free:seq <- $r4
	bne	.LBB10_2
.Ltmp194:
.LBB10_3:
	.loc	2 327 1                         @ ../../../components/network/thread/subg_openthread/third_party/mbedtls/repo/library/asn1parse.c:327:1
	pop	{r4, r5, r7, pc}
.Ltmp195:
.Lfunc_end10:
	.size	mbedtls_asn1_sequence_free, .Lfunc_end10-mbedtls_asn1_sequence_free
	.cfi_endproc
	.cantunwind
	.fnend
                                        @ -- End function
	.section	.text.mbedtls_asn1_get_sequence_of,"ax",%progbits
	.hidden	mbedtls_asn1_get_sequence_of    @ -- Begin function mbedtls_asn1_get_sequence_of
	.globl	mbedtls_asn1_get_sequence_of
	.p2align	1
	.type	mbedtls_asn1_get_sequence_of,%function
	.code	16                              @ @mbedtls_asn1_get_sequence_of
	.thumb_func
mbedtls_asn1_get_sequence_of:
.Lfunc_begin11:
	.loc	2 371 0                         @ ../../../components/network/thread/subg_openthread/third_party/mbedtls/repo/library/asn1parse.c:371:0
	.fnstart
	.cfi_startproc
@ %bb.0:
	@DEBUG_VALUE: mbedtls_asn1_get_sequence_of:p <- $r0
	@DEBUG_VALUE: mbedtls_asn1_get_sequence_of:p <- $r0
	@DEBUG_VALUE: mbedtls_asn1_get_sequence_of:end <- $r1
	@DEBUG_VALUE: mbedtls_asn1_get_sequence_of:end <- $r1
	@DEBUG_VALUE: mbedtls_asn1_get_sequence_of:cur <- $r2
	@DEBUG_VALUE: mbedtls_asn1_get_sequence_of:cur <- $r2
	@DEBUG_VALUE: mbedtls_asn1_get_sequence_of:tag <- $r3
	@DEBUG_VALUE: mbedtls_asn1_get_sequence_of:tag <- $r3
	.save	{r7, lr}
	push	{r7, lr}
	.cfi_def_cfa_offset 8
	.cfi_offset lr, -4
	.cfi_offset r7, -8
	.pad	#24
	sub	sp, #24
	.cfi_def_cfa_offset 32
	mov.w	r12, #0
.Ltmp196:
	.loc	2 372 44 prologue_end           @ ../../../components/network/thread/subg_openthread/third_party/mbedtls/repo/library/asn1parse.c:372:44
	strd	r3, r2, [sp, #16]
	.loc	2 373 5                         @ ../../../components/network/thread/subg_openthread/third_party/mbedtls/repo/library/asn1parse.c:373:5
	strd	r12, r12, [r2]
	strd	r12, r12, [r2, #8]
	.loc	2 374 13                        @ ../../../components/network/thread/subg_openthread/third_party/mbedtls/repo/library/asn1parse.c:374:13
	movw	r2, :lower16:asn1_get_sequence_of_cb
.Ltmp197:
	@DEBUG_VALUE: mbedtls_asn1_get_sequence_of:cur <- [DW_OP_LLVM_entry_value 1] $r2
	movt	r2, :upper16:asn1_get_sequence_of_cb
	add.w	lr, sp, #16
	str	r2, [sp, #8]
	uxtb	r3, r3
.Ltmp198:
	@DEBUG_VALUE: mbedtls_asn1_get_sequence_of:tag <- [DW_OP_LLVM_entry_value 1] $r3
	@DEBUG_VALUE: mbedtls_asn1_get_sequence_of:end <- $r1
	@DEBUG_VALUE: mbedtls_asn1_get_sequence_of:p <- $r0
	movs	r2, #255
	strd	r12, r12, [sp]
	str.w	lr, [sp, #12]
	bl	mbedtls_asn1_traverse_sequence_of
.Ltmp199:
	@DEBUG_VALUE: mbedtls_asn1_get_sequence_of:end <- [DW_OP_LLVM_entry_value 1] $r1
	@DEBUG_VALUE: mbedtls_asn1_get_sequence_of:p <- [DW_OP_LLVM_entry_value 1] $r0
	.loc	2 374 5 is_stmt 0               @ ../../../components/network/thread/subg_openthread/third_party/mbedtls/repo/library/asn1parse.c:374:5
	add	sp, #24
	pop	{r7, pc}
.Ltmp200:
.Lfunc_end11:
	.size	mbedtls_asn1_get_sequence_of, .Lfunc_end11-mbedtls_asn1_get_sequence_of
	.cfi_endproc
	.cantunwind
	.fnend
                                        @ -- End function
	.section	.text.asn1_get_sequence_of_cb,"ax",%progbits
	.p2align	1                               @ -- Begin function asn1_get_sequence_of_cb
	.type	asn1_get_sequence_of_cb,%function
	.code	16                              @ @asn1_get_sequence_of_cb
	.thumb_func
asn1_get_sequence_of_cb:
.Lfunc_begin12:
	.loc	2 339 0 is_stmt 1               @ ../../../components/network/thread/subg_openthread/third_party/mbedtls/repo/library/asn1parse.c:339:0
	.fnstart
	.cfi_startproc
@ %bb.0:
	@DEBUG_VALUE: asn1_get_sequence_of_cb:ctx <- $r0
	@DEBUG_VALUE: asn1_get_sequence_of_cb:tag <- $r1
	@DEBUG_VALUE: asn1_get_sequence_of_cb:start <- $r2
	@DEBUG_VALUE: asn1_get_sequence_of_cb:len <- $r3
	.save	{r4, r5, r6, r7, r8, lr}
	push.w	{r4, r5, r6, r7, r8, lr}
	.cfi_def_cfa_offset 24
	.cfi_offset lr, -4
	.cfi_offset r8, -8
	.cfi_offset r7, -12
	.cfi_offset r6, -16
	.cfi_offset r5, -20
	.cfi_offset r4, -24
.Ltmp201:
	@DEBUG_VALUE: asn1_get_sequence_of_cb:cb_ctx <- $r0
	.loc	2 343 17 prologue_end           @ ../../../components/network/thread/subg_openthread/third_party/mbedtls/repo/library/asn1parse.c:343:17
	ldr	r5, [r0, #4]
.Ltmp202:
	@DEBUG_VALUE: asn1_get_sequence_of_cb:cur <- $r5
	.loc	2 0 17 is_stmt 0                @ ../../../components/network/thread/subg_openthread/third_party/mbedtls/repo/library/asn1parse.c:0:17
	mov	r4, r0
.Ltmp203:
	@DEBUG_VALUE: asn1_get_sequence_of_cb:ctx <- $r4
	@DEBUG_VALUE: asn1_get_sequence_of_cb:cb_ctx <- $r4
	@DEBUG_VALUE: asn1_get_sequence_of_cb:ctx <- $r4
	.loc	2 345 18 is_stmt 1              @ ../../../components/network/thread/subg_openthread/third_party/mbedtls/repo/library/asn1parse.c:345:18
	ldr	r0, [r5, #8]
	mov	r6, r3
.Ltmp204:
	@DEBUG_VALUE: asn1_get_sequence_of_cb:len <- $r6
	@DEBUG_VALUE: asn1_get_sequence_of_cb:len <- $r6
	.loc	2 0 18 is_stmt 0                @ ../../../components/network/thread/subg_openthread/third_party/mbedtls/repo/library/asn1parse.c:0:18
	mov	r8, r2
.Ltmp205:
	@DEBUG_VALUE: asn1_get_sequence_of_cb:start <- $r8
	@DEBUG_VALUE: asn1_get_sequence_of_cb:start <- $r8
	mov	r7, r1
.Ltmp206:
	@DEBUG_VALUE: asn1_get_sequence_of_cb:tag <- $r7
	@DEBUG_VALUE: asn1_get_sequence_of_cb:tag <- $r7
	.loc	2 345 9                         @ ../../../components/network/thread/subg_openthread/third_party/mbedtls/repo/library/asn1parse.c:345:9
	cbz	r0, .LBB12_3
.Ltmp207:
@ %bb.1:
	@DEBUG_VALUE: asn1_get_sequence_of_cb:start <- $r8
	@DEBUG_VALUE: asn1_get_sequence_of_cb:tag <- $r7
	@DEBUG_VALUE: asn1_get_sequence_of_cb:len <- $r6
	@DEBUG_VALUE: asn1_get_sequence_of_cb:cur <- $r5
	@DEBUG_VALUE: asn1_get_sequence_of_cb:cb_ctx <- $r4
	@DEBUG_VALUE: asn1_get_sequence_of_cb:ctx <- $r4
	.loc	2 348 13 is_stmt 1              @ ../../../components/network/thread/subg_openthread/third_party/mbedtls/repo/library/asn1parse.c:348:13
	movs	r0, #1
	movs	r1, #16
	bl	mbedtls_calloc
.Ltmp208:
	.loc	2 347 19                        @ ../../../components/network/thread/subg_openthread/third_party/mbedtls/repo/library/asn1parse.c:347:19
	str	r0, [r5, #12]
	.loc	2 350 13                        @ ../../../components/network/thread/subg_openthread/third_party/mbedtls/repo/library/asn1parse.c:350:13
	cbz	r0, .LBB12_4
.Ltmp209:
@ %bb.2:
	@DEBUG_VALUE: asn1_get_sequence_of_cb:start <- $r8
	@DEBUG_VALUE: asn1_get_sequence_of_cb:tag <- $r7
	@DEBUG_VALUE: asn1_get_sequence_of_cb:len <- $r6
	@DEBUG_VALUE: asn1_get_sequence_of_cb:cur <- $r5
	@DEBUG_VALUE: asn1_get_sequence_of_cb:cb_ctx <- $r4
	@DEBUG_VALUE: asn1_get_sequence_of_cb:ctx <- $r4
	@DEBUG_VALUE: asn1_get_sequence_of_cb:cur <- $r0
	.loc	2 0 0 is_stmt 0                 @ ../../../components/network/thread/subg_openthread/third_party/mbedtls/repo/library/asn1parse.c:0:0
	mov	r5, r0
.Ltmp210:
	@DEBUG_VALUE: asn1_get_sequence_of_cb:cur <- $r5
	@DEBUG_VALUE: asn1_get_sequence_of_cb:cur <- $r5
.LBB12_3:
	@DEBUG_VALUE: asn1_get_sequence_of_cb:start <- $r8
	@DEBUG_VALUE: asn1_get_sequence_of_cb:tag <- $r7
	@DEBUG_VALUE: asn1_get_sequence_of_cb:len <- $r6
	@DEBUG_VALUE: asn1_get_sequence_of_cb:cur <- $r5
	@DEBUG_VALUE: asn1_get_sequence_of_cb:cb_ctx <- $r4
	@DEBUG_VALUE: asn1_get_sequence_of_cb:ctx <- $r4
	@DEBUG_VALUE: asn1_get_sequence_of_cb:cur <- $r5
	movs	r0, #0
	.loc	2 358 18 is_stmt 1              @ ../../../components/network/thread/subg_openthread/third_party/mbedtls/repo/library/asn1parse.c:358:18
	strd	r7, r6, [r5]
	.loc	2 356 16                        @ ../../../components/network/thread/subg_openthread/third_party/mbedtls/repo/library/asn1parse.c:356:16
	str.w	r8, [r5, #8]
	.loc	2 360 17                        @ ../../../components/network/thread/subg_openthread/third_party/mbedtls/repo/library/asn1parse.c:360:17
	str	r5, [r4, #4]
	.loc	2 362 1                         @ ../../../components/network/thread/subg_openthread/third_party/mbedtls/repo/library/asn1parse.c:362:1
	pop.w	{r4, r5, r6, r7, r8, pc}
.Ltmp211:
.LBB12_4:
	@DEBUG_VALUE: asn1_get_sequence_of_cb:start <- $r8
	@DEBUG_VALUE: asn1_get_sequence_of_cb:tag <- $r7
	@DEBUG_VALUE: asn1_get_sequence_of_cb:len <- $r6
	@DEBUG_VALUE: asn1_get_sequence_of_cb:cur <- $r5
	@DEBUG_VALUE: asn1_get_sequence_of_cb:cb_ctx <- $r4
	@DEBUG_VALUE: asn1_get_sequence_of_cb:ctx <- $r4
	.loc	2 0 1 is_stmt 0                 @ ../../../components/network/thread/subg_openthread/third_party/mbedtls/repo/library/asn1parse.c:0:1
	mvn	r0, #105
	.loc	2 362 1                         @ ../../../components/network/thread/subg_openthread/third_party/mbedtls/repo/library/asn1parse.c:362:1
	pop.w	{r4, r5, r6, r7, r8, pc}
.Ltmp212:
.Lfunc_end12:
	.size	asn1_get_sequence_of_cb, .Lfunc_end12-asn1_get_sequence_of_cb
	.cfi_endproc
	.cantunwind
	.fnend
                                        @ -- End function
	.section	.text.mbedtls_asn1_get_alg,"ax",%progbits
	.hidden	mbedtls_asn1_get_alg            @ -- Begin function mbedtls_asn1_get_alg
	.globl	mbedtls_asn1_get_alg
	.p2align	1
	.type	mbedtls_asn1_get_alg,%function
	.code	16                              @ @mbedtls_asn1_get_alg
	.thumb_func
mbedtls_asn1_get_alg:
.Lfunc_begin13:
	.loc	2 382 0 is_stmt 1               @ ../../../components/network/thread/subg_openthread/third_party/mbedtls/repo/library/asn1parse.c:382:0
	.fnstart
	.cfi_startproc
@ %bb.0:
	@DEBUG_VALUE: mbedtls_asn1_get_alg:p <- $r0
	@DEBUG_VALUE: mbedtls_asn1_get_alg:end <- $r1
	@DEBUG_VALUE: mbedtls_asn1_get_alg:alg <- $r2
	@DEBUG_VALUE: mbedtls_asn1_get_alg:params <- $r3
	.save	{r4, r5, r6, r7, lr}
	push	{r4, r5, r6, r7, lr}
	.cfi_def_cfa_offset 20
	.cfi_offset lr, -4
	.cfi_offset r7, -8
	.cfi_offset r6, -12
	.cfi_offset r5, -16
	.cfi_offset r4, -20
	.pad	#4
	sub	sp, #4
	.cfi_def_cfa_offset 24
	mov	r5, r0
.Ltmp213:
	@DEBUG_VALUE: mbedtls_asn1_get_tag:tag <- 48
	@DEBUG_VALUE: mbedtls_asn1_get_tag:len <- $sp
	@DEBUG_VALUE: mbedtls_asn1_get_tag:end <- undef
	@DEBUG_VALUE: mbedtls_asn1_get_tag:p <- $r5
	@DEBUG_VALUE: mbedtls_asn1_get_alg:len <- [DW_OP_deref] $sp
	@DEBUG_VALUE: mbedtls_asn1_get_alg:ret <- -110
	@DEBUG_VALUE: mbedtls_asn1_get_alg:params <- $r3
	@DEBUG_VALUE: mbedtls_asn1_get_alg:p <- $r5
	.loc	2 107 17 prologue_end           @ ../../../components/network/thread/subg_openthread/third_party/mbedtls/repo/library/asn1parse.c:107:17
	ldr	r0, [r0]
	mov	r7, r1
.Ltmp214:
	@DEBUG_VALUE: mbedtls_asn1_get_alg:end <- $r7
	.loc	2 107 15 is_stmt 0              @ ../../../components/network/thread/subg_openthread/third_party/mbedtls/repo/library/asn1parse.c:107:15
	subs	r1, r1, r0
.Ltmp215:
	.loc	2 107 9                         @ ../../../components/network/thread/subg_openthread/third_party/mbedtls/repo/library/asn1parse.c:107:9
	cmp	r1, #1
	@DEBUG_VALUE: mbedtls_asn1_get_alg:alg <- $r2
	blt	.LBB13_10
.Ltmp216:
@ %bb.1:
	@DEBUG_VALUE: mbedtls_asn1_get_alg:end <- $r7
	@DEBUG_VALUE: mbedtls_asn1_get_alg:p <- $r5
	@DEBUG_VALUE: mbedtls_asn1_get_tag:p <- $r5
	@DEBUG_VALUE: mbedtls_asn1_get_alg:params <- $r3
	@DEBUG_VALUE: mbedtls_asn1_get_alg:alg <- $r2
	@DEBUG_VALUE: mbedtls_asn1_get_alg:len <- [DW_OP_deref] $sp
	@DEBUG_VALUE: mbedtls_asn1_get_tag:len <- $sp
	@DEBUG_VALUE: mbedtls_asn1_get_alg:ret <- -110
	@DEBUG_VALUE: mbedtls_asn1_get_tag:tag <- 48
	@DEBUG_VALUE: mbedtls_asn1_get_alg:params <- $r3
	@DEBUG_VALUE: mbedtls_asn1_get_alg:alg <- $r2
	.loc	2 110 9 is_stmt 1               @ ../../../components/network/thread/subg_openthread/third_party/mbedtls/repo/library/asn1parse.c:110:9
	ldrb	r1, [r0]
.Ltmp217:
	.loc	2 110 9 is_stmt 0               @ ../../../components/network/thread/subg_openthread/third_party/mbedtls/repo/library/asn1parse.c:110:9
	cmp	r1, #48
	bne	.LBB13_11
.Ltmp218:
@ %bb.2:
	@DEBUG_VALUE: mbedtls_asn1_get_alg:end <- $r7
	@DEBUG_VALUE: mbedtls_asn1_get_alg:p <- $r5
	@DEBUG_VALUE: mbedtls_asn1_get_tag:p <- $r5
	@DEBUG_VALUE: mbedtls_asn1_get_alg:params <- $r3
	@DEBUG_VALUE: mbedtls_asn1_get_alg:alg <- $r2
	@DEBUG_VALUE: mbedtls_asn1_get_alg:len <- [DW_OP_deref] $sp
	@DEBUG_VALUE: mbedtls_asn1_get_tag:len <- $sp
	@DEBUG_VALUE: mbedtls_asn1_get_alg:ret <- -110
	@DEBUG_VALUE: mbedtls_asn1_get_tag:tag <- 48
	.loc	2 113 9 is_stmt 1               @ ../../../components/network/thread/subg_openthread/third_party/mbedtls/repo/library/asn1parse.c:113:9
	adds	r0, #1
	mov	r6, r2
.Ltmp219:
	@DEBUG_VALUE: mbedtls_asn1_get_alg:alg <- $r6
	@DEBUG_VALUE: mbedtls_asn1_get_alg:alg <- $r6
	str	r0, [r5]
	mov	r2, sp
	.loc	2 115 13                        @ ../../../components/network/thread/subg_openthread/third_party/mbedtls/repo/library/asn1parse.c:115:13
	mov	r0, r5
	mov	r1, r7
	mov	r4, r3
.Ltmp220:
	@DEBUG_VALUE: mbedtls_asn1_get_alg:params <- $r4
	@DEBUG_VALUE: mbedtls_asn1_get_alg:params <- $r4
	bl	mbedtls_asn1_get_len
.Ltmp221:
	@DEBUG_VALUE: mbedtls_asn1_get_alg:ret <- $r0
	.loc	2 386 9                         @ ../../../components/network/thread/subg_openthread/third_party/mbedtls/repo/library/asn1parse.c:386:9
	cbnz	r0, .LBB13_12
.Ltmp222:
@ %bb.3:
	@DEBUG_VALUE: mbedtls_asn1_get_alg:end <- $r7
	@DEBUG_VALUE: mbedtls_asn1_get_alg:alg <- $r6
	@DEBUG_VALUE: mbedtls_asn1_get_alg:p <- $r5
	@DEBUG_VALUE: mbedtls_asn1_get_alg:params <- $r4
	@DEBUG_VALUE: mbedtls_asn1_get_alg:ret <- $r0
	@DEBUG_VALUE: mbedtls_asn1_get_alg:len <- [DW_OP_deref] $sp
	.loc	2 390 17                        @ ../../../components/network/thread/subg_openthread/third_party/mbedtls/repo/library/asn1parse.c:390:17
	ldr	r0, [r5]
.Ltmp223:
	.loc	2 390 15 is_stmt 0              @ ../../../components/network/thread/subg_openthread/third_party/mbedtls/repo/library/asn1parse.c:390:15
	subs	r1, r7, r0
.Ltmp224:
	.loc	2 390 9                         @ ../../../components/network/thread/subg_openthread/third_party/mbedtls/repo/library/asn1parse.c:390:9
	cmp	r1, #1
	blt	.LBB13_10
.Ltmp225:
@ %bb.4:
	@DEBUG_VALUE: mbedtls_asn1_get_alg:end <- $r7
	@DEBUG_VALUE: mbedtls_asn1_get_alg:alg <- $r6
	@DEBUG_VALUE: mbedtls_asn1_get_alg:p <- $r5
	@DEBUG_VALUE: mbedtls_asn1_get_alg:params <- $r4
	@DEBUG_VALUE: mbedtls_asn1_get_alg:len <- [DW_OP_deref] $sp
	.loc	2 393 16 is_stmt 1              @ ../../../components/network/thread/subg_openthread/third_party/mbedtls/repo/library/asn1parse.c:393:16
	ldrb	r3, [r0]
	.loc	2 394 16                        @ ../../../components/network/thread/subg_openthread/third_party/mbedtls/repo/library/asn1parse.c:394:16
	ldr	r1, [sp]
.Ltmp226:
	@DEBUG_VALUE: mbedtls_asn1_get_tag:len <- undef
	@DEBUG_VALUE: mbedtls_asn1_get_tag:end <- undef
	@DEBUG_VALUE: mbedtls_asn1_get_alg:len <- $r1
	@DEBUG_VALUE: mbedtls_asn1_get_alg:end <- undef
	.loc	2 393 14                        @ ../../../components/network/thread/subg_openthread/third_party/mbedtls/repo/library/asn1parse.c:393:14
	mov	r2, r6
.Ltmp227:
	@DEBUG_VALUE: mbedtls_asn1_get_tag:tag <- 6
	@DEBUG_VALUE: mbedtls_asn1_get_tag:p <- $r5
	.loc	2 107 9                         @ ../../../components/network/thread/subg_openthread/third_party/mbedtls/repo/library/asn1parse.c:107:9
	cmp	r1, #1
.Ltmp228:
	.loc	2 393 14                        @ ../../../components/network/thread/subg_openthread/third_party/mbedtls/repo/library/asn1parse.c:393:14
	str	r3, [r2], #4
	@DEBUG_VALUE: mbedtls_asn1_get_tag:p <- $r5
	@DEBUG_VALUE: mbedtls_asn1_get_tag:tag <- 6
.Ltmp229:
	.loc	2 107 9                         @ ../../../components/network/thread/subg_openthread/third_party/mbedtls/repo/library/asn1parse.c:107:9
	blt	.LBB13_10
.Ltmp230:
@ %bb.5:
	@DEBUG_VALUE: mbedtls_asn1_get_alg:alg <- $r6
	@DEBUG_VALUE: mbedtls_asn1_get_tag:p <- $r5
	@DEBUG_VALUE: mbedtls_asn1_get_alg:p <- $r5
	@DEBUG_VALUE: mbedtls_asn1_get_alg:params <- $r4
	@DEBUG_VALUE: mbedtls_asn1_get_alg:len <- $r1
	@DEBUG_VALUE: mbedtls_asn1_get_tag:tag <- 6
	@DEBUG_VALUE: mbedtls_asn1_get_alg:end <- undef
	@DEBUG_VALUE: mbedtls_asn1_get_tag:end <- undef
	.loc	2 110 9                         @ ../../../components/network/thread/subg_openthread/third_party/mbedtls/repo/library/asn1parse.c:110:9
	ldrb	r3, [r0]
.Ltmp231:
	.loc	2 110 9 is_stmt 0               @ ../../../components/network/thread/subg_openthread/third_party/mbedtls/repo/library/asn1parse.c:110:9
	cmp	r3, #6
	bne	.LBB13_11
.Ltmp232:
@ %bb.6:
	@DEBUG_VALUE: mbedtls_asn1_get_alg:alg <- $r6
	@DEBUG_VALUE: mbedtls_asn1_get_tag:p <- $r5
	@DEBUG_VALUE: mbedtls_asn1_get_alg:p <- $r5
	@DEBUG_VALUE: mbedtls_asn1_get_alg:params <- $r4
	@DEBUG_VALUE: mbedtls_asn1_get_alg:len <- $r1
	@DEBUG_VALUE: mbedtls_asn1_get_tag:tag <- 6
	.loc	2 0 0                           @ ../../../components/network/thread/subg_openthread/third_party/mbedtls/repo/library/asn1parse.c:0:0
	adds	r7, r0, r1
.Ltmp233:
	@DEBUG_VALUE: mbedtls_asn1_get_tag:end <- $r7
	@DEBUG_VALUE: mbedtls_asn1_get_alg:end <- $r7
	.loc	2 113 9 is_stmt 1               @ ../../../components/network/thread/subg_openthread/third_party/mbedtls/repo/library/asn1parse.c:113:9
	adds	r0, #1
	str	r0, [r5]
	.loc	2 115 13                        @ ../../../components/network/thread/subg_openthread/third_party/mbedtls/repo/library/asn1parse.c:115:13
	mov	r0, r5
	mov	r1, r7
.Ltmp234:
	bl	mbedtls_asn1_get_len
.Ltmp235:
	@DEBUG_VALUE: mbedtls_asn1_get_alg:ret <- $r0
	.loc	2 396 9                         @ ../../../components/network/thread/subg_openthread/third_party/mbedtls/repo/library/asn1parse.c:396:9
	cbnz	r0, .LBB13_12
.Ltmp236:
@ %bb.7:
	@DEBUG_VALUE: mbedtls_asn1_get_alg:end <- $r7
	@DEBUG_VALUE: mbedtls_asn1_get_alg:alg <- $r6
	@DEBUG_VALUE: mbedtls_asn1_get_alg:p <- $r5
	@DEBUG_VALUE: mbedtls_asn1_get_alg:params <- $r4
	@DEBUG_VALUE: mbedtls_asn1_get_alg:ret <- $r0
	.loc	2 399 14                        @ ../../../components/network/thread/subg_openthread/third_party/mbedtls/repo/library/asn1parse.c:399:14
	ldr	r0, [r5]
.Ltmp237:
	.loc	2 399 12 is_stmt 0              @ ../../../components/network/thread/subg_openthread/third_party/mbedtls/repo/library/asn1parse.c:399:12
	str	r0, [r6, #8]
	.loc	2 400 16 is_stmt 1              @ ../../../components/network/thread/subg_openthread/third_party/mbedtls/repo/library/asn1parse.c:400:16
	ldr	r0, [r6, #4]
	.loc	2 400 8 is_stmt 0               @ ../../../components/network/thread/subg_openthread/third_party/mbedtls/repo/library/asn1parse.c:400:8
	ldr	r1, [r5]
	add	r0, r1
	.loc	2 402 9 is_stmt 1               @ ../../../components/network/thread/subg_openthread/third_party/mbedtls/repo/library/asn1parse.c:402:9
	cmp	r0, r7
	.loc	2 400 8                         @ ../../../components/network/thread/subg_openthread/third_party/mbedtls/repo/library/asn1parse.c:400:8
	str	r0, [r5]
	.loc	2 402 9                         @ ../../../components/network/thread/subg_openthread/third_party/mbedtls/repo/library/asn1parse.c:402:9
	beq	.LBB13_13
.Ltmp238:
@ %bb.8:
	@DEBUG_VALUE: mbedtls_asn1_get_alg:end <- $r7
	@DEBUG_VALUE: mbedtls_asn1_get_alg:alg <- $r6
	@DEBUG_VALUE: mbedtls_asn1_get_alg:p <- $r5
	@DEBUG_VALUE: mbedtls_asn1_get_alg:params <- $r4
	.loc	2 408 19                        @ ../../../components/network/thread/subg_openthread/third_party/mbedtls/repo/library/asn1parse.c:408:19
	ldrb	r1, [r0], #1
	.loc	2 408 17 is_stmt 0              @ ../../../components/network/thread/subg_openthread/third_party/mbedtls/repo/library/asn1parse.c:408:17
	mov	r2, r4
	str	r1, [r2], #4
	.loc	2 409 9 is_stmt 1               @ ../../../components/network/thread/subg_openthread/third_party/mbedtls/repo/library/asn1parse.c:409:9
	str	r0, [r5]
.Ltmp239:
	.loc	2 411 17                        @ ../../../components/network/thread/subg_openthread/third_party/mbedtls/repo/library/asn1parse.c:411:17
	mov	r0, r5
	mov	r1, r7
	bl	mbedtls_asn1_get_len
.Ltmp240:
	@DEBUG_VALUE: mbedtls_asn1_get_alg:ret <- $r0
	.loc	2 411 9 is_stmt 0               @ ../../../components/network/thread/subg_openthread/third_party/mbedtls/repo/library/asn1parse.c:411:9
	cbnz	r0, .LBB13_12
.Ltmp241:
@ %bb.9:
	@DEBUG_VALUE: mbedtls_asn1_get_alg:end <- $r7
	@DEBUG_VALUE: mbedtls_asn1_get_alg:alg <- $r6
	@DEBUG_VALUE: mbedtls_asn1_get_alg:p <- $r5
	@DEBUG_VALUE: mbedtls_asn1_get_alg:params <- $r4
	@DEBUG_VALUE: mbedtls_asn1_get_alg:ret <- $r0
	.loc	2 414 17 is_stmt 1              @ ../../../components/network/thread/subg_openthread/third_party/mbedtls/repo/library/asn1parse.c:414:17
	ldr	r0, [r5]
.Ltmp242:
	.loc	2 414 15 is_stmt 0              @ ../../../components/network/thread/subg_openthread/third_party/mbedtls/repo/library/asn1parse.c:414:15
	str	r0, [r4, #8]
	.loc	2 415 19 is_stmt 1              @ ../../../components/network/thread/subg_openthread/third_party/mbedtls/repo/library/asn1parse.c:415:19
	ldr	r0, [r4, #4]
	.loc	2 415 8 is_stmt 0               @ ../../../components/network/thread/subg_openthread/third_party/mbedtls/repo/library/asn1parse.c:415:8
	ldr	r1, [r5]
	add	r0, r1
	str	r0, [r5]
	.loc	2 417 9 is_stmt 1               @ ../../../components/network/thread/subg_openthread/third_party/mbedtls/repo/library/asn1parse.c:417:9
	subs	r0, r0, r7
	it	ne
	mvnne	r0, #101
	b	.LBB13_12
.Ltmp243:
.LBB13_10:
	@DEBUG_VALUE: mbedtls_asn1_get_alg:p <- $r5
	.loc	2 0 9 is_stmt 0                 @ ../../../components/network/thread/subg_openthread/third_party/mbedtls/repo/library/asn1parse.c:0:9
	mvn	r0, #95
	b	.LBB13_12
.Ltmp244:
.LBB13_11:
	@DEBUG_VALUE: mbedtls_asn1_get_alg:p <- $r5
	mvn	r0, #97
.Ltmp245:
.LBB13_12:
	@DEBUG_VALUE: mbedtls_asn1_get_alg:p <- $r5
	.loc	2 421 1 is_stmt 1               @ ../../../components/network/thread/subg_openthread/third_party/mbedtls/repo/library/asn1parse.c:421:1
	add	sp, #4
	pop	{r4, r5, r6, r7, pc}
.Ltmp246:
.LBB13_13:
	@DEBUG_VALUE: mbedtls_asn1_get_alg:end <- $r7
	@DEBUG_VALUE: mbedtls_asn1_get_alg:alg <- $r6
	@DEBUG_VALUE: mbedtls_asn1_get_alg:p <- $r5
	@DEBUG_VALUE: mbedtls_asn1_get_alg:params <- $r4
	.loc	2 404 9                         @ ../../../components/network/thread/subg_openthread/third_party/mbedtls/repo/library/asn1parse.c:404:9
	mov	r0, r4
	movs	r1, #12
	bl	mbedtls_platform_zeroize
.Ltmp247:
	.loc	2 0 9 is_stmt 0                 @ ../../../components/network/thread/subg_openthread/third_party/mbedtls/repo/library/asn1parse.c:0:9
	movs	r0, #0
	b	.LBB13_12
.Ltmp248:
.Lfunc_end13:
	.size	mbedtls_asn1_get_alg, .Lfunc_end13-mbedtls_asn1_get_alg
	.cfi_endproc
	.cantunwind
	.fnend
                                        @ -- End function
	.section	.text.mbedtls_asn1_get_alg_null,"ax",%progbits
	.hidden	mbedtls_asn1_get_alg_null       @ -- Begin function mbedtls_asn1_get_alg_null
	.globl	mbedtls_asn1_get_alg_null
	.p2align	1
	.type	mbedtls_asn1_get_alg_null,%function
	.code	16                              @ @mbedtls_asn1_get_alg_null
	.thumb_func
mbedtls_asn1_get_alg_null:
.Lfunc_begin14:
	.loc	2 426 0 is_stmt 1               @ ../../../components/network/thread/subg_openthread/third_party/mbedtls/repo/library/asn1parse.c:426:0
	.fnstart
	.cfi_startproc
@ %bb.0:
	@DEBUG_VALUE: mbedtls_asn1_get_alg_null:p <- $r0
	@DEBUG_VALUE: mbedtls_asn1_get_alg_null:end <- $r1
	@DEBUG_VALUE: mbedtls_asn1_get_alg_null:alg <- $r2
	.save	{r7, lr}
	push	{r7, lr}
	.cfi_def_cfa_offset 8
	.cfi_offset lr, -4
	.cfi_offset r7, -8
	.pad	#16
	sub	sp, #16
	.cfi_def_cfa_offset 24
	movs	r3, #0
.Ltmp249:
	@DEBUG_VALUE: mbedtls_asn1_get_alg_null:ret <- -110
	@DEBUG_VALUE: mbedtls_asn1_get_alg_null:alg <- $r2
	@DEBUG_VALUE: mbedtls_asn1_get_alg_null:end <- $r1
	@DEBUG_VALUE: mbedtls_asn1_get_alg_null:p <- $r0
	.loc	2 430 5 prologue_end            @ ../../../components/network/thread/subg_openthread/third_party/mbedtls/repo/library/asn1parse.c:430:5
	str	r3, [sp, #12]
	strd	r3, r3, [sp, #4]
	add	r3, sp, #4
	@DEBUG_VALUE: mbedtls_asn1_get_alg_null:alg <- $r2
	@DEBUG_VALUE: mbedtls_asn1_get_alg_null:end <- $r1
	@DEBUG_VALUE: mbedtls_asn1_get_alg_null:p <- $r0
.Ltmp250:
	.loc	2 432 17                        @ ../../../components/network/thread/subg_openthread/third_party/mbedtls/repo/library/asn1parse.c:432:17
	bl	mbedtls_asn1_get_alg
.Ltmp251:
	@DEBUG_VALUE: mbedtls_asn1_get_alg_null:alg <- [DW_OP_LLVM_entry_value 1] $r2
	@DEBUG_VALUE: mbedtls_asn1_get_alg_null:end <- [DW_OP_LLVM_entry_value 1] $r1
	@DEBUG_VALUE: mbedtls_asn1_get_alg_null:p <- [DW_OP_LLVM_entry_value 1] $r0
	@DEBUG_VALUE: mbedtls_asn1_get_alg_null:ret <- $r0
	.loc	2 432 9 is_stmt 0               @ ../../../components/network/thread/subg_openthread/third_party/mbedtls/repo/library/asn1parse.c:432:9
	cbnz	r0, .LBB14_5
.Ltmp252:
@ %bb.1:
	@DEBUG_VALUE: mbedtls_asn1_get_alg_null:ret <- $r0
	@DEBUG_VALUE: mbedtls_asn1_get_alg_null:alg <- [DW_OP_LLVM_entry_value 1] $r2
	@DEBUG_VALUE: mbedtls_asn1_get_alg_null:end <- [DW_OP_LLVM_entry_value 1] $r1
	@DEBUG_VALUE: mbedtls_asn1_get_alg_null:p <- [DW_OP_LLVM_entry_value 1] $r0
	.loc	2 435 18 is_stmt 1              @ ../../../components/network/thread/subg_openthread/third_party/mbedtls/repo/library/asn1parse.c:435:18
	ldr	r0, [sp, #4]
.Ltmp253:
	.loc	2 435 43 is_stmt 0              @ ../../../components/network/thread/subg_openthread/third_party/mbedtls/repo/library/asn1parse.c:435:43
	cmp	r0, #5
	beq	.LBB14_3
.Ltmp254:
@ %bb.2:
	@DEBUG_VALUE: mbedtls_asn1_get_alg_null:alg <- [DW_OP_LLVM_entry_value 1] $r2
	@DEBUG_VALUE: mbedtls_asn1_get_alg_null:end <- [DW_OP_LLVM_entry_value 1] $r1
	@DEBUG_VALUE: mbedtls_asn1_get_alg_null:p <- [DW_OP_LLVM_entry_value 1] $r0
	cbnz	r0, .LBB14_4
.Ltmp255:
.LBB14_3:
	@DEBUG_VALUE: mbedtls_asn1_get_alg_null:alg <- [DW_OP_LLVM_entry_value 1] $r2
	@DEBUG_VALUE: mbedtls_asn1_get_alg_null:end <- [DW_OP_LLVM_entry_value 1] $r1
	@DEBUG_VALUE: mbedtls_asn1_get_alg_null:p <- [DW_OP_LLVM_entry_value 1] $r0
	.loc	2 435 74                        @ ../../../components/network/thread/subg_openthread/third_party/mbedtls/repo/library/asn1parse.c:435:74
	ldr	r0, [sp, #8]
.Ltmp256:
	.loc	2 435 9                         @ ../../../components/network/thread/subg_openthread/third_party/mbedtls/repo/library/asn1parse.c:435:9
	cmp	r0, #0
	it	ne
	mvnne	r0, #103
	b	.LBB14_5
.Ltmp257:
.LBB14_4:
	@DEBUG_VALUE: mbedtls_asn1_get_alg_null:alg <- [DW_OP_LLVM_entry_value 1] $r2
	@DEBUG_VALUE: mbedtls_asn1_get_alg_null:end <- [DW_OP_LLVM_entry_value 1] $r1
	@DEBUG_VALUE: mbedtls_asn1_get_alg_null:p <- [DW_OP_LLVM_entry_value 1] $r0
	.loc	2 0 9                           @ ../../../components/network/thread/subg_openthread/third_party/mbedtls/repo/library/asn1parse.c:0:9
	mvn	r0, #103
.Ltmp258:
.LBB14_5:
	@DEBUG_VALUE: mbedtls_asn1_get_alg_null:alg <- [DW_OP_LLVM_entry_value 1] $r2
	@DEBUG_VALUE: mbedtls_asn1_get_alg_null:end <- [DW_OP_LLVM_entry_value 1] $r1
	@DEBUG_VALUE: mbedtls_asn1_get_alg_null:p <- [DW_OP_LLVM_entry_value 1] $r0
	.loc	2 439 1 is_stmt 1               @ ../../../components/network/thread/subg_openthread/third_party/mbedtls/repo/library/asn1parse.c:439:1
	add	sp, #16
	pop	{r7, pc}
.Ltmp259:
.Lfunc_end14:
	.size	mbedtls_asn1_get_alg_null, .Lfunc_end14-mbedtls_asn1_get_alg_null
	.cfi_endproc
	.cantunwind
	.fnend
                                        @ -- End function
	.section	.text.mbedtls_asn1_free_named_data,"ax",%progbits
	.hidden	mbedtls_asn1_free_named_data    @ -- Begin function mbedtls_asn1_free_named_data
	.globl	mbedtls_asn1_free_named_data
	.p2align	1
	.type	mbedtls_asn1_free_named_data,%function
	.code	16                              @ @mbedtls_asn1_free_named_data
	.thumb_func
mbedtls_asn1_free_named_data:
.Lfunc_begin15:
	.loc	2 442 0                         @ ../../../components/network/thread/subg_openthread/third_party/mbedtls/repo/library/asn1parse.c:442:0
	.fnstart
	.cfi_startproc
@ %bb.0:
	@DEBUG_VALUE: mbedtls_asn1_free_named_data:cur <- $r0
	@DEBUG_VALUE: mbedtls_asn1_free_named_data:cur <- $r0
	.loc	2 443 9 prologue_end            @ ../../../components/network/thread/subg_openthread/third_party/mbedtls/repo/library/asn1parse.c:443:9
	cbz	r0, .LBB15_2
.Ltmp260:
@ %bb.1:
	@DEBUG_VALUE: mbedtls_asn1_free_named_data:cur <- $r0
	.save	{r4, lr}
	push	{r4, lr}
	.cfi_def_cfa_offset 8
	.cfi_offset lr, -4
	.cfi_offset r4, -8
	mov	r4, r0
.Ltmp261:
	@DEBUG_VALUE: mbedtls_asn1_free_named_data:cur <- $r4
	.loc	2 446 28                        @ ../../../components/network/thread/subg_openthread/third_party/mbedtls/repo/library/asn1parse.c:446:28
	ldr	r0, [r0, #8]
	.loc	2 446 5 is_stmt 0               @ ../../../components/network/thread/subg_openthread/third_party/mbedtls/repo/library/asn1parse.c:446:5
	bl	mbedtls_free
.Ltmp262:
	.loc	2 447 28 is_stmt 1              @ ../../../components/network/thread/subg_openthread/third_party/mbedtls/repo/library/asn1parse.c:447:28
	ldr	r0, [r4, #20]
	.loc	2 447 5 is_stmt 0               @ ../../../components/network/thread/subg_openthread/third_party/mbedtls/repo/library/asn1parse.c:447:5
	bl	mbedtls_free
.Ltmp263:
	.loc	2 449 5 is_stmt 1               @ ../../../components/network/thread/subg_openthread/third_party/mbedtls/repo/library/asn1parse.c:449:5
	mov	r0, r4
	movs	r1, #32
	pop.w	{r4, lr}
.Ltmp264:
	@DEBUG_VALUE: mbedtls_asn1_free_named_data:cur <- [DW_OP_LLVM_entry_value 1] $r0
	b	mbedtls_platform_zeroize
.Ltmp265:
.LBB15_2:
	@DEBUG_VALUE: mbedtls_asn1_free_named_data:cur <- $r0
	.loc	2 450 1                         @ ../../../components/network/thread/subg_openthread/third_party/mbedtls/repo/library/asn1parse.c:450:1
	bx	lr
.Ltmp266:
.Lfunc_end15:
	.size	mbedtls_asn1_free_named_data, .Lfunc_end15-mbedtls_asn1_free_named_data
	.cfi_endproc
	.file	4 "C:\\Users\\testo\\Desktop\\rafael-iot-sdk-das -0515\\examples\\das_subg_thread\\keil" "../../../components/network/thread/subg_openthread/third_party/mbedtls/repo/include\\mbedtls/platform_util.h"
	.cantunwind
	.fnend
                                        @ -- End function
	.section	.text.mbedtls_asn1_free_named_data_list,"ax",%progbits
	.hidden	mbedtls_asn1_free_named_data_list @ -- Begin function mbedtls_asn1_free_named_data_list
	.globl	mbedtls_asn1_free_named_data_list
	.p2align	1
	.type	mbedtls_asn1_free_named_data_list,%function
	.code	16                              @ @mbedtls_asn1_free_named_data_list
	.thumb_func
mbedtls_asn1_free_named_data_list:
.Lfunc_begin16:
	.loc	2 453 0                         @ ../../../components/network/thread/subg_openthread/third_party/mbedtls/repo/library/asn1parse.c:453:0
	.fnstart
	.cfi_startproc
@ %bb.0:
	@DEBUG_VALUE: mbedtls_asn1_free_named_data_list:head <- $r0
	@DEBUG_VALUE: mbedtls_asn1_free_named_data_list:head <- $r0
	.save	{r4, r5, r7, lr}
	push	{r4, r5, r7, lr}
	.cfi_def_cfa_offset 16
	.cfi_offset lr, -4
	.cfi_offset r7, -8
	.cfi_offset r5, -12
	.cfi_offset r4, -16
.Ltmp267:
	.loc	2 456 20 prologue_end           @ ../../../components/network/thread/subg_openthread/third_party/mbedtls/repo/library/asn1parse.c:456:20
	ldr	r5, [r0]
.Ltmp268:
	@DEBUG_VALUE: mbedtls_asn1_free_named_data_list:cur <- $r5
	.loc	2 456 5 is_stmt 0               @ ../../../components/network/thread/subg_openthread/third_party/mbedtls/repo/library/asn1parse.c:456:5
	cbz	r5, .LBB16_3
.Ltmp269:
@ %bb.1:
	@DEBUG_VALUE: mbedtls_asn1_free_named_data_list:cur <- $r5
	@DEBUG_VALUE: mbedtls_asn1_free_named_data_list:head <- $r0
	.loc	2 0 5                           @ ../../../components/network/thread/subg_openthread/third_party/mbedtls/repo/library/asn1parse.c:0:5
	mov	r4, r0
.Ltmp270:
	@DEBUG_VALUE: mbedtls_asn1_free_named_data_list:head <- $r4
	@DEBUG_VALUE: mbedtls_asn1_free_named_data_list:head <- $r4
	.p2align	2
.LBB16_2:                               @ =>This Inner Loop Header: Depth=1
	@DEBUG_VALUE: mbedtls_asn1_free_named_data_list:cur <- $r5
	@DEBUG_VALUE: mbedtls_asn1_free_named_data_list:head <- $r4
	.loc	2 458 22 is_stmt 1              @ ../../../components/network/thread/subg_openthread/third_party/mbedtls/repo/library/asn1parse.c:458:22
	ldr	r0, [r5, #24]
	.loc	2 458 15 is_stmt 0              @ ../../../components/network/thread/subg_openthread/third_party/mbedtls/repo/library/asn1parse.c:458:15
	str	r0, [r4]
	.loc	2 459 9 is_stmt 1               @ ../../../components/network/thread/subg_openthread/third_party/mbedtls/repo/library/asn1parse.c:459:9
	mov	r0, r5
	bl	mbedtls_asn1_free_named_data
.Ltmp271:
	.loc	2 460 9                         @ ../../../components/network/thread/subg_openthread/third_party/mbedtls/repo/library/asn1parse.c:460:9
	mov	r0, r5
	bl	mbedtls_free
.Ltmp272:
	.loc	2 456 20                        @ ../../../components/network/thread/subg_openthread/third_party/mbedtls/repo/library/asn1parse.c:456:20
	ldr	r5, [r4]
.Ltmp273:
	@DEBUG_VALUE: mbedtls_asn1_free_named_data_list:cur <- $r5
	.loc	2 456 5 is_stmt 0               @ ../../../components/network/thread/subg_openthread/third_party/mbedtls/repo/library/asn1parse.c:456:5
	cmp	r5, #0
	bne	.LBB16_2
.Ltmp274:
.LBB16_3:
	@DEBUG_VALUE: mbedtls_asn1_free_named_data_list:cur <- $r5
	.loc	2 462 1 is_stmt 1               @ ../../../components/network/thread/subg_openthread/third_party/mbedtls/repo/library/asn1parse.c:462:1
	pop	{r4, r5, r7, pc}
.Ltmp275:
.Lfunc_end16:
	.size	mbedtls_asn1_free_named_data_list, .Lfunc_end16-mbedtls_asn1_free_named_data_list
	.cfi_endproc
	.cantunwind
	.fnend
                                        @ -- End function
	.section	.text.mbedtls_asn1_find_named_data,"ax",%progbits
	.hidden	mbedtls_asn1_find_named_data    @ -- Begin function mbedtls_asn1_find_named_data
	.globl	mbedtls_asn1_find_named_data
	.p2align	1
	.type	mbedtls_asn1_find_named_data,%function
	.code	16                              @ @mbedtls_asn1_find_named_data
	.thumb_func
mbedtls_asn1_find_named_data:
.Lfunc_begin17:
	.loc	2 466 0                         @ ../../../components/network/thread/subg_openthread/third_party/mbedtls/repo/library/asn1parse.c:466:0
	.fnstart
	.cfi_startproc
@ %bb.0:
	@DEBUG_VALUE: mbedtls_asn1_find_named_data:list <- $r0
	@DEBUG_VALUE: mbedtls_asn1_find_named_data:oid <- $r1
	@DEBUG_VALUE: mbedtls_asn1_find_named_data:len <- $r2
	@DEBUG_VALUE: mbedtls_asn1_find_named_data:len <- $r2
	@DEBUG_VALUE: mbedtls_asn1_find_named_data:list <- $r0
	.save	{r4, r5, r6, lr}
	push	{r4, r5, r6, lr}
	.cfi_def_cfa_offset 16
	.cfi_offset lr, -4
	.cfi_offset r6, -8
	.cfi_offset r5, -12
	.cfi_offset r4, -16
	@DEBUG_VALUE: mbedtls_asn1_find_named_data:oid <- $r1
.Ltmp276:
	.loc	2 467 5 prologue_end            @ ../../../components/network/thread/subg_openthread/third_party/mbedtls/repo/library/asn1parse.c:467:5
	cbz	r0, .LBB17_5
.Ltmp277:
@ %bb.1:
	@DEBUG_VALUE: mbedtls_asn1_find_named_data:len <- $r2
	@DEBUG_VALUE: mbedtls_asn1_find_named_data:oid <- $r1
	@DEBUG_VALUE: mbedtls_asn1_find_named_data:list <- $r0
	.loc	2 0 5 is_stmt 0                 @ ../../../components/network/thread/subg_openthread/third_party/mbedtls/repo/library/asn1parse.c:0:5
	mov	r5, r2
.Ltmp278:
	@DEBUG_VALUE: mbedtls_asn1_find_named_data:len <- $r5
	@DEBUG_VALUE: mbedtls_asn1_find_named_data:len <- $r5
	mov	r4, r0
.Ltmp279:
	@DEBUG_VALUE: mbedtls_asn1_find_named_data:list <- $r4
	@DEBUG_VALUE: mbedtls_asn1_find_named_data:list <- $r4
	mov	r6, r1
.Ltmp280:
	@DEBUG_VALUE: mbedtls_asn1_find_named_data:oid <- $r6
	@DEBUG_VALUE: mbedtls_asn1_find_named_data:oid <- $r6
	.p2align	2
.LBB17_2:                               @ =>This Inner Loop Header: Depth=1
	@DEBUG_VALUE: mbedtls_asn1_find_named_data:oid <- $r6
	@DEBUG_VALUE: mbedtls_asn1_find_named_data:len <- $r5
	@DEBUG_VALUE: mbedtls_asn1_find_named_data:list <- $r4
	@DEBUG_VALUE: mbedtls_asn1_find_named_data:list <- $r4
	.loc	2 469 23 is_stmt 1              @ ../../../components/network/thread/subg_openthread/third_party/mbedtls/repo/library/asn1parse.c:469:23
	ldr	r0, [r4, #4]
	.loc	2 469 34 is_stmt 0              @ ../../../components/network/thread/subg_openthread/third_party/mbedtls/repo/library/asn1parse.c:469:34
	cmp	r0, r5
	bne	.LBB17_4
.Ltmp281:
@ %bb.3:                                @   in Loop: Header=BB17_2 Depth=1
	@DEBUG_VALUE: mbedtls_asn1_find_named_data:oid <- $r6
	@DEBUG_VALUE: mbedtls_asn1_find_named_data:len <- $r5
	@DEBUG_VALUE: mbedtls_asn1_find_named_data:list <- $r4
	.loc	2 470 31 is_stmt 1              @ ../../../components/network/thread/subg_openthread/third_party/mbedtls/repo/library/asn1parse.c:470:31
	ldr	r0, [r4, #8]
	.loc	2 470 13 is_stmt 0              @ ../../../components/network/thread/subg_openthread/third_party/mbedtls/repo/library/asn1parse.c:470:13
	mov	r1, r6
	mov	r2, r5
	bl	memcmp
.Ltmp282:
	.loc	2 469 13 is_stmt 1              @ ../../../components/network/thread/subg_openthread/third_party/mbedtls/repo/library/asn1parse.c:469:13
	cbz	r0, .LBB17_6
.Ltmp283:
.LBB17_4:                               @   in Loop: Header=BB17_2 Depth=1
	@DEBUG_VALUE: mbedtls_asn1_find_named_data:oid <- $r6
	@DEBUG_VALUE: mbedtls_asn1_find_named_data:len <- $r5
	@DEBUG_VALUE: mbedtls_asn1_find_named_data:list <- $r4
	.loc	2 475 22                        @ ../../../components/network/thread/subg_openthread/third_party/mbedtls/repo/library/asn1parse.c:475:22
	ldr	r4, [r4, #24]
.Ltmp284:
	@DEBUG_VALUE: mbedtls_asn1_find_named_data:list <- $r4
	.loc	2 467 5                         @ ../../../components/network/thread/subg_openthread/third_party/mbedtls/repo/library/asn1parse.c:467:5
	cmp	r4, #0
	bne	.LBB17_2
.Ltmp285:
.LBB17_5:
	.loc	2 0 5 is_stmt 0                 @ ../../../components/network/thread/subg_openthread/third_party/mbedtls/repo/library/asn1parse.c:0:5
	movs	r4, #0
.LBB17_6:
	.loc	2 478 5 is_stmt 1               @ ../../../components/network/thread/subg_openthread/third_party/mbedtls/repo/library/asn1parse.c:478:5
	mov	r0, r4
	pop	{r4, r5, r6, pc}
.Ltmp286:
.Lfunc_end17:
	.size	mbedtls_asn1_find_named_data, .Lfunc_end17-mbedtls_asn1_find_named_data
	.cfi_endproc
	.cantunwind
	.fnend
                                        @ -- End function
	.file	5 "C:\\Users\\testo\\Desktop\\rafael-iot-sdk-das -0515\\examples\\das_subg_thread\\keil" "../../../components/network/thread/subg_openthread/third_party/mbedtls/repo/include\\mbedtls/bignum.h"
	.file	6 "C:\\" "Keil_v5\\ARM\\ARMCLANG\\Bin\\..\\include\\stdint.h"
	.section	".note.GNU-stack","",%progbits
	.eabi_attribute	30, 3	@ Tag_ABI_optimization_goals
	.ARM_attribute	16, 1	@ Tag_AV_eba