	.text
	.syntax unified
	.eabi_attribute	67, "2.09"	@ Tag_conformance
	.cpu	cortex-m3
	.eabi_attribute	6, 10	@ Tag_CPU_arch
	.eabi_attribute	7, 77	@ Tag_CPU_arch_profile
	.eabi_attribute	8, 0	@ Tag_ARM_ISA_use
	.eabi_attribute	9, 2	@ Tag_THUMB_ISA_use
	.eabi_attribute	34, 1	@ Tag_CPU_unaligned_access
	.eabi_attribute	17, 1	@ Tag_ABI_PCS_GOT_use
	.eabi_attribute	20, 2	@ Tag_ABI_FP_denormal
	.eabi_attribute	21, 0	@ Tag_ABI_FP_exceptions
	.eabi_attribute	23, 1	@ Tag_ABI_FP_number_model
	.eabi_attribute	24, 1	@ Tag_ABI_align_needed
	.eabi_attribute	25, 1	@ Tag_ABI_align_preserved
	.eabi_attribute	38, 1	@ Tag_ABI_FP_16bit_format
	.eabi_attribute	18, 4	@ Tag_ABI_PCS_wchar_t
	.eabi_attribute	26, 2	@ Tag_ABI_enum_size
	.eabi_attribute	14, 0	@ Tag_ABI_PCS_R9_use
	.file	"bignum.c"
	.file	1 "C:\\" "Keil_v5\\ARM\\ARMCLANG\\Bin\\..\\include\\stdint.h"
	.file	2 "C:\\Users\\testo\\Desktop\\rafael-iot-sdk-das -0515\\examples\\das_subg_thread\\keil" "../../../components/network/thread/subg_openthread/third_party/mbedtls/repo/include\\mbedtls/bignum.h"
	.file	3 "C:\\" "Keil_v5\\ARM\\ARMCLANG\\Bin\\..\\include\\stdio.h"
	.section	.text.mbedtls_mpi_init,"ax",%progbits
	.hidden	mbedtls_mpi_init                @ -- Begin function mbedtls_mpi_init
	.globl	mbedtls_mpi_init
	.p2align	1
	.type	mbedtls_mpi_init,%function
	.code	16                              @ @mbedtls_mpi_init
	.thumb_func
mbedtls_mpi_init:
.Lfunc_begin0:
	.file	4 "C:\\Users\\testo\\Desktop\\rafael-iot-sdk-das -0515\\examples\\das_subg_thread\\keil" "../../../components/network/thread/subg_openthread/third_party/mbedtls/repo/library/bignum.c"
	.loc	4 87 0                          @ ../../../components/network/thread/subg_openthread/third_party/mbedtls/repo/library/bignum.c:87:0
	.fnstart
	.cfi_sections .debug_frame
	.cfi_startproc
@ %bb.0:
	@DEBUG_VALUE: mbedtls_mpi_init:X <- $r0
	movs	r1, #1
	movs	r2, #0
	@DEBUG_VALUE: mbedtls_mpi_init:X <- $r0
.Ltmp0:
	.loc	4 90 10 prologue_end            @ ../../../components/network/thread/subg_openthread/third_party/mbedtls/repo/library/bignum.c:90:10
	strd	r1, r2, [r0]
	.loc	4 92 10                         @ ../../../components/network/thread/subg_openthread/third_party/mbedtls/repo/library/bignum.c:92:10
	str	r2, [r0, #8]
	.loc	4 93 1                          @ ../../../components/network/thread/subg_openthread/third_party/mbedtls/repo/library/bignum.c:93:1
	bx	lr
.Ltmp1:
.Lfunc_end0:
	.size	mbedtls_mpi_init, .Lfunc_end0-mbedtls_mpi_init
	.cfi_endproc
	.cantunwind
	.fnend
                                        @ -- End function
	.section	.text.mbedtls_mpi_free,"ax",%progbits
	.hidden	mbedtls_mpi_free                @ -- Begin function mbedtls_mpi_free
	.globl	mbedtls_mpi_free
	.p2align	1
	.type	mbedtls_mpi_free,%function
	.code	16                              @ @mbedtls_mpi_free
	.thumb_func
mbedtls_mpi_free:
.Lfunc_begin1:
	.loc	4 99 0                          @ ../../../components/network/thread/subg_openthread/third_party/mbedtls/repo/library/bignum.c:99:0
	.fnstart
	.cfi_startproc
@ %bb.0:
	@DEBUG_VALUE: mbedtls_mpi_free:X <- $r0
	@DEBUG_VALUE: mbedtls_mpi_free:X <- $r0
	.loc	4 100 9 prologue_end            @ ../../../components/network/thread/subg_openthread/third_party/mbedtls/repo/library/bignum.c:100:9
	cbz	r0, .LBB1_4
.Ltmp2:
@ %bb.1:
	@DEBUG_VALUE: mbedtls_mpi_free:X <- $r0
	.save	{r4, lr}
	push	{r4, lr}
	.cfi_def_cfa_offset 8
	.cfi_offset lr, -4
	.cfi_offset r4, -8
	mov	r4, r0
.Ltmp3:
	@DEBUG_VALUE: mbedtls_mpi_free:X <- $r4
	.loc	4 103 12                        @ ../../../components/network/thread/subg_openthread/third_party/mbedtls/repo/library/bignum.c:103:12
	ldr	r0, [r0, #8]
.Ltmp4:
	.loc	4 103 9 is_stmt 0               @ ../../../components/network/thread/subg_openthread/third_party/mbedtls/repo/library/bignum.c:103:9
	cbz	r0, .LBB1_3
.Ltmp5:
@ %bb.2:
	@DEBUG_VALUE: mbedtls_mpi_free:X <- $r4
	.loc	4 105 39 is_stmt 1              @ ../../../components/network/thread/subg_openthread/third_party/mbedtls/repo/library/bignum.c:105:39
	ldr	r1, [r4, #4]
.Ltmp6:
	@DEBUG_VALUE: mbedtls_mpi_zeroize:v <- $r0
	@DEBUG_VALUE: mbedtls_mpi_zeroize:n <- $r1
	.loc	4 80 38                         @ ../../../components/network/thread/subg_openthread/third_party/mbedtls/repo/library/bignum.c:80:38
	lsls	r1, r1, #2
.Ltmp7:
	.loc	4 80 5 is_stmt 0                @ ../../../components/network/thread/subg_openthread/third_party/mbedtls/repo/library/bignum.c:80:5
	bl	mbedtls_platform_zeroize
.Ltmp8:
	.loc	4 106 26 is_stmt 1              @ ../../../components/network/thread/subg_openthread/third_party/mbedtls/repo/library/bignum.c:106:26
	ldr	r0, [r4, #8]
	.loc	4 106 9 is_stmt 0               @ ../../../components/network/thread/subg_openthread/third_party/mbedtls/repo/library/bignum.c:106:9
	bl	mbedtls_free
.Ltmp9:
.LBB1_3:
	@DEBUG_VALUE: mbedtls_mpi_free:X <- $r4
	.loc	4 0 9                           @ ../../../components/network/thread/subg_openthread/third_party/mbedtls/repo/library/bignum.c:0:9
	movs	r0, #1
	movs	r1, #0
	.loc	4 109 10 is_stmt 1              @ ../../../components/network/thread/subg_openthread/third_party/mbedtls/repo/library/bignum.c:109:10
	strd	r0, r1, [r4]
	.loc	4 111 10                        @ ../../../components/network/thread/subg_openthread/third_party/mbedtls/repo/library/bignum.c:111:10
	str	r1, [r4, #8]
	pop.w	{r4, lr}
.Ltmp10:
	@DEBUG_VALUE: mbedtls_mpi_free:X <- [DW_OP_LLVM_entry_value 1] $r0
.LBB1_4:
	.loc	4 112 1                         @ ../../../components/network/thread/subg_openthread/third_party/mbedtls/repo/library/bignum.c:112:1
	bx	lr
.Ltmp11:
.Lfunc_end1:
	.size	mbedtls_mpi_free, .Lfunc_end1-mbedtls_mpi_free
	.cfi_endproc
	.cantunwind
	.fnend
                                        @ -- End function
	.section	.text.mbedtls_mpi_grow,"ax",%progbits
	.hidden	mbedtls_mpi_grow                @ -- Begin function mbedtls_mpi_grow
	.globl	mbedtls_mpi_grow
	.p2align	1
	.type	mbedtls_mpi_grow,%function
	.code	16                              @ @mbedtls_mpi_grow
	.thumb_func
mbedtls_mpi_grow:
.Lfunc_begin2:
	.loc	4 118 0                         @ ../../../components/network/thread/subg_openthread/third_party/mbedtls/repo/library/bignum.c:118:0
	.fnstart
	.cfi_startproc
@ %bb.0:
	@DEBUG_VALUE: mbedtls_mpi_grow:X <- $r0
	@DEBUG_VALUE: mbedtls_mpi_grow:nblimbs <- $r1
	.save	{r4, r5, r6, lr}
	push	{r4, r5, r6, lr}
	.cfi_def_cfa_offset 16
	.cfi_offset lr, -4
	.cfi_offset r6, -8
	.cfi_offset r5, -12
	.cfi_offset r4, -16
	mov	r4, r1
.Ltmp12:
	@DEBUG_VALUE: mbedtls_mpi_grow:nblimbs <- $r4
	movw	r1, #10000
	@DEBUG_VALUE: mbedtls_mpi_grow:nblimbs <- $r4
.Ltmp13:
	.loc	4 122 9 prologue_end            @ ../../../components/network/thread/subg_openthread/third_party/mbedtls/repo/library/bignum.c:122:9
	cmp	r4, r1
	@DEBUG_VALUE: mbedtls_mpi_grow:X <- $r0
	bls	.LBB2_2
.Ltmp14:
.LBB2_1:
	@DEBUG_VALUE: mbedtls_mpi_grow:nblimbs <- $r4
	.loc	4 0 9 is_stmt 0                 @ ../../../components/network/thread/subg_openthread/third_party/mbedtls/repo/library/bignum.c:0:9
	mvn	r0, #15
	.loc	4 142 1 is_stmt 1               @ ../../../components/network/thread/subg_openthread/third_party/mbedtls/repo/library/bignum.c:142:1
	pop	{r4, r5, r6, pc}
.Ltmp15:
.LBB2_2:
	@DEBUG_VALUE: mbedtls_mpi_grow:nblimbs <- $r4
	@DEBUG_VALUE: mbedtls_mpi_grow:X <- $r0
	.loc	4 0 1 is_stmt 0                 @ ../../../components/network/thread/subg_openthread/third_party/mbedtls/repo/library/bignum.c:0:1
	mov	r5, r0
.Ltmp16:
	@DEBUG_VALUE: mbedtls_mpi_grow:X <- $r5
	.loc	4 125 12 is_stmt 1              @ ../../../components/network/thread/subg_openthread/third_party/mbedtls/repo/library/bignum.c:125:12
	ldr	r0, [r0, #4]
.Ltmp17:
	.loc	4 125 9 is_stmt 0               @ ../../../components/network/thread/subg_openthread/third_party/mbedtls/repo/library/bignum.c:125:9
	cmp	r0, r4
	bhs	.LBB2_7
.Ltmp18:
@ %bb.3:
	@DEBUG_VALUE: mbedtls_mpi_grow:X <- $r5
	@DEBUG_VALUE: mbedtls_mpi_grow:nblimbs <- $r4
	.loc	4 127 38 is_stmt 1              @ ../../../components/network/thread/subg_openthread/third_party/mbedtls/repo/library/bignum.c:127:38
	mov	r0, r4
	movs	r1, #4
	bl	mbedtls_calloc
.Ltmp19:
	@DEBUG_VALUE: mbedtls_mpi_grow:p <- $r0
	.loc	4 127 13 is_stmt 0              @ ../../../components/network/thread/subg_openthread/third_party/mbedtls/repo/library/bignum.c:127:13
	cmp	r0, #0
	beq	.LBB2_1
.Ltmp20:
@ %bb.4:
	@DEBUG_VALUE: mbedtls_mpi_grow:X <- $r5
	@DEBUG_VALUE: mbedtls_mpi_grow:nblimbs <- $r4
	@DEBUG_VALUE: mbedtls_mpi_grow:p <- $r0
	.loc	4 130 16 is_stmt 1              @ ../../../components/network/thread/subg_openthread/third_party/mbedtls/repo/library/bignum.c:130:16
	ldr	r1, [r5, #8]
.Ltmp21:
	.loc	4 0 0 is_stmt 0                 @ ../../../components/network/thread/subg_openthread/third_party/mbedtls/repo/library/bignum.c:0:0
	mov	r6, r0
.Ltmp22:
	@DEBUG_VALUE: mbedtls_mpi_grow:p <- $r6
	@DEBUG_VALUE: mbedtls_mpi_grow:p <- $r6
	.loc	4 130 13                        @ ../../../components/network/thread/subg_openthread/third_party/mbedtls/repo/library/bignum.c:130:13
	cbz	r1, .LBB2_6
.Ltmp23:
@ %bb.5:
	@DEBUG_VALUE: mbedtls_mpi_grow:p <- $r6
	@DEBUG_VALUE: mbedtls_mpi_grow:X <- $r5
	@DEBUG_VALUE: mbedtls_mpi_grow:nblimbs <- $r4
	.loc	4 132 33 is_stmt 1              @ ../../../components/network/thread/subg_openthread/third_party/mbedtls/repo/library/bignum.c:132:33
	ldr	r0, [r5, #4]
	.loc	4 132 35 is_stmt 0              @ ../../../components/network/thread/subg_openthread/third_party/mbedtls/repo/library/bignum.c:132:35
	lsls	r2, r0, #2
	.loc	4 132 13                        @ ../../../components/network/thread/subg_openthread/third_party/mbedtls/repo/library/bignum.c:132:13
	mov	r0, r6
	bl	__aeabi_memcpy4
.Ltmp24:
	@DEBUG_VALUE: mbedtls_mpi_zeroize:v <- undef
	@DEBUG_VALUE: mbedtls_mpi_zeroize:n <- undef
	.loc	4 133 43 is_stmt 1              @ ../../../components/network/thread/subg_openthread/third_party/mbedtls/repo/library/bignum.c:133:43
	ldrd	r1, r0, [r5, #4]
.Ltmp25:
	.loc	4 80 38                         @ ../../../components/network/thread/subg_openthread/third_party/mbedtls/repo/library/bignum.c:80:38
	lsls	r1, r1, #2
	.loc	4 80 5 is_stmt 0                @ ../../../components/network/thread/subg_openthread/third_party/mbedtls/repo/library/bignum.c:80:5
	bl	mbedtls_platform_zeroize
.Ltmp26:
	.loc	4 134 30 is_stmt 1              @ ../../../components/network/thread/subg_openthread/third_party/mbedtls/repo/library/bignum.c:134:30
	ldr	r0, [r5, #8]
	.loc	4 134 13 is_stmt 0              @ ../../../components/network/thread/subg_openthread/third_party/mbedtls/repo/library/bignum.c:134:13
	bl	mbedtls_free
.Ltmp27:
.LBB2_6:
	@DEBUG_VALUE: mbedtls_mpi_grow:p <- $r6
	@DEBUG_VALUE: mbedtls_mpi_grow:X <- $r5
	@DEBUG_VALUE: mbedtls_mpi_grow:nblimbs <- $r4
	.loc	4 137 14 is_stmt 1              @ ../../../components/network/thread/subg_openthread/third_party/mbedtls/repo/library/bignum.c:137:14
	strd	r4, r6, [r5, #4]
.Ltmp28:
.LBB2_7:
	@DEBUG_VALUE: mbedtls_mpi_grow:X <- $r5
	@DEBUG_VALUE: mbedtls_mpi_grow:nblimbs <- $r4
	.loc	4 0 14 is_stmt 0                @ ../../../components/network/thread/subg_openthread/third_party/mbedtls/repo/library/bignum.c:0:14
	movs	r0, #0
	.loc	4 142 1 is_stmt 1               @ ../../../components/network/thread/subg_openthread/third_party/mbedtls/repo/library/bignum.c:142:1
	pop	{r4, r5, r6, pc}
.Ltmp29:
.Lfunc_end2:
	.size	mbedtls_mpi_grow, .Lfunc_end2-mbedtls_mpi_grow
	.cfi_endproc
	.cantunwind
	.fnend
                                        @ -- End function
	.section	.text.mbedtls_mpi_shrink,"ax",%progbits
	.hidden	mbedtls_mpi_shrink              @ -- Begin function mbedtls_mpi_shrink
	.globl	mbedtls_mpi_shrink
	.p2align	1
	.type	mbedtls_mpi_shrink,%function
	.code	16                              @ @mbedtls_mpi_shrink
	.thumb_func
mbedtls_mpi_shrink:
.Lfunc_begin3:
	.loc	4 149 0                         @ ../../../components/network/thread/subg_openthread/third_party/mbedtls/repo/library/bignum.c:149:0
	.fnstart
	.cfi_startproc
@ %bb.0:
	@DEBUG_VALUE: mbedtls_mpi_shrink:X <- $r0
	@DEBUG_VALUE: mbedtls_mpi_shrink:nblimbs <- $r1
	.save	{r4, r5, r6, lr}
	push	{r4, r5, r6, lr}
	.cfi_def_cfa_offset 16
	.cfi_offset lr, -4
	.cfi_offset r6, -8
	.cfi_offset r5, -12
	.cfi_offset r4, -16
	movw	r2, #10000
	@DEBUG_VALUE: mbedtls_mpi_shrink:nblimbs <- $r1
.Ltmp30:
	.loc	4 154 9 prologue_end            @ ../../../components/network/thread/subg_openthread/third_party/mbedtls/repo/library/bignum.c:154:9
	cmp	r1, r2
	@DEBUG_VALUE: mbedtls_mpi_shrink:X <- $r0
	bls	.LBB3_2
.Ltmp31:
.LBB3_1:
	.loc	4 0 9 is_stmt 0                 @ ../../../components/network/thread/subg_openthread/third_party/mbedtls/repo/library/bignum.c:0:9
	mvn	r0, #15
	.loc	4 184 1 is_stmt 1               @ ../../../components/network/thread/subg_openthread/third_party/mbedtls/repo/library/bignum.c:184:1
	pop	{r4, r5, r6, pc}
.LBB3_2:
.Ltmp32:
	@DEBUG_VALUE: mbedtls_mpi_shrink:nblimbs <- $r1
	@DEBUG_VALUE: mbedtls_mpi_shrink:X <- $r0
	.loc	4 0 1 is_stmt 0                 @ ../../../components/network/thread/subg_openthread/third_party/mbedtls/repo/library/bignum.c:0:1
	mov	r4, r0
.Ltmp33:
	@DEBUG_VALUE: mbedtls_mpi_shrink:X <- $r4
	.loc	4 158 12 is_stmt 1              @ ../../../components/network/thread/subg_openthread/third_party/mbedtls/repo/library/bignum.c:158:12
	ldr	r0, [r0, #4]
.Ltmp34:
	.loc	4 158 9 is_stmt 0               @ ../../../components/network/thread/subg_openthread/third_party/mbedtls/repo/library/bignum.c:158:9
	cmp	r0, r1
	bls	.LBB3_10
.Ltmp35:
@ %bb.3:
	@DEBUG_VALUE: mbedtls_mpi_shrink:X <- $r4
	@DEBUG_VALUE: mbedtls_mpi_shrink:nblimbs <- $r1
	.loc	4 162 5 is_stmt 1               @ ../../../components/network/thread/subg_openthread/third_party/mbedtls/repo/library/bignum.c:162:5
	subs	r2, r0, #1
.Ltmp36:
	.p2align	2
.LBB3_4:                                @ =>This Inner Loop Header: Depth=1
	@DEBUG_VALUE: mbedtls_mpi_shrink:X <- $r4
	@DEBUG_VALUE: mbedtls_mpi_shrink:nblimbs <- $r1
	.loc	4 0 5 is_stmt 0                 @ ../../../components/network/thread/subg_openthread/third_party/mbedtls/repo/library/bignum.c:0:5
	mov	r0, r2
.Ltmp37:
	@DEBUG_VALUE: mbedtls_mpi_shrink:i <- $r0
	.loc	4 162 5                         @ ../../../components/network/thread/subg_openthread/third_party/mbedtls/repo/library/bignum.c:162:5
	cbz	r2, .LBB3_6
.Ltmp38:
@ %bb.5:                                @   in Loop: Header=BB3_4 Depth=1
	@DEBUG_VALUE: mbedtls_mpi_shrink:X <- $r4
	@DEBUG_VALUE: mbedtls_mpi_shrink:nblimbs <- $r1
	@DEBUG_VALUE: mbedtls_mpi_shrink:i <- $r0
	.loc	4 163 16 is_stmt 1              @ ../../../components/network/thread/subg_openthread/third_party/mbedtls/repo/library/bignum.c:163:16
	ldr	r2, [r4, #8]
	.loc	4 163 13 is_stmt 0              @ ../../../components/network/thread/subg_openthread/third_party/mbedtls/repo/library/bignum.c:163:13
	ldr.w	r2, [r2, r0, lsl #2]
.Ltmp39:
	.loc	4 163 13                        @ ../../../components/network/thread/subg_openthread/third_party/mbedtls/repo/library/bignum.c:163:13
	cmp	r2, #0
	sub.w	r2, r0, #1
	beq	.LBB3_4
.Ltmp40:
.LBB3_6:
	@DEBUG_VALUE: mbedtls_mpi_shrink:X <- $r4
	@DEBUG_VALUE: mbedtls_mpi_shrink:nblimbs <- $r1
	@DEBUG_VALUE: mbedtls_mpi_shrink:i <- $r0
	@DEBUG_VALUE: mbedtls_mpi_shrink:i <- undef
	.loc	4 167 11 is_stmt 1              @ ../../../components/network/thread/subg_openthread/third_party/mbedtls/repo/library/bignum.c:167:11
	adds	r5, r0, #1
.Ltmp41:
	.loc	4 167 9 is_stmt 0               @ ../../../components/network/thread/subg_openthread/third_party/mbedtls/repo/library/bignum.c:167:9
	cmp	r5, r1
	it	lo
	movlo	r5, r1
.Ltmp42:
	@DEBUG_VALUE: mbedtls_mpi_shrink:nblimbs <- $r5
	@DEBUG_VALUE: mbedtls_mpi_shrink:i <- $r5
	.loc	4 170 34 is_stmt 1              @ ../../../components/network/thread/subg_openthread/third_party/mbedtls/repo/library/bignum.c:170:34
	mov	r0, r5
	movs	r1, #4
	bl	mbedtls_calloc
.Ltmp43:
	@DEBUG_VALUE: mbedtls_mpi_shrink:p <- $r0
	.loc	4 170 9 is_stmt 0               @ ../../../components/network/thread/subg_openthread/third_party/mbedtls/repo/library/bignum.c:170:9
	cmp	r0, #0
	beq	.LBB3_1
.Ltmp44:
@ %bb.7:
	@DEBUG_VALUE: mbedtls_mpi_shrink:i <- $r5
	@DEBUG_VALUE: mbedtls_mpi_shrink:nblimbs <- $r5
	@DEBUG_VALUE: mbedtls_mpi_shrink:X <- $r4
	@DEBUG_VALUE: mbedtls_mpi_shrink:p <- $r0
	.loc	4 173 12 is_stmt 1              @ ../../../components/network/thread/subg_openthread/third_party/mbedtls/repo/library/bignum.c:173:12
	ldr	r1, [r4, #8]
.Ltmp45:
	.loc	4 0 0 is_stmt 0                 @ ../../../components/network/thread/subg_openthread/third_party/mbedtls/repo/library/bignum.c:0:0
	mov	r6, r0
.Ltmp46:
	@DEBUG_VALUE: mbedtls_mpi_shrink:p <- $r6
	@DEBUG_VALUE: mbedtls_mpi_shrink:p <- $r6
	.loc	4 173 9                         @ ../../../components/network/thread/subg_openthread/third_party/mbedtls/repo/library/bignum.c:173:9
	cbz	r1, .LBB3_9
.Ltmp47:
@ %bb.8:
	@DEBUG_VALUE: mbedtls_mpi_shrink:p <- $r6
	@DEBUG_VALUE: mbedtls_mpi_shrink:i <- $r5
	@DEBUG_VALUE: mbedtls_mpi_shrink:nblimbs <- $r5
	@DEBUG_VALUE: mbedtls_mpi_shrink:X <- $r4
	.loc	4 175 28 is_stmt 1              @ ../../../components/network/thread/subg_openthread/third_party/mbedtls/repo/library/bignum.c:175:28
	lsls	r2, r5, #2
	.loc	4 175 9 is_stmt 0               @ ../../../components/network/thread/subg_openthread/third_party/mbedtls/repo/library/bignum.c:175:9
	mov	r0, r6
	bl	__aeabi_memcpy4
.Ltmp48:
	@DEBUG_VALUE: mbedtls_mpi_zeroize:v <- undef
	@DEBUG_VALUE: mbedtls_mpi_zeroize:n <- undef
	.loc	4 176 39 is_stmt 1              @ ../../../components/network/thread/subg_openthread/third_party/mbedtls/repo/library/bignum.c:176:39
	ldrd	r1, r0, [r4, #4]
.Ltmp49:
	.loc	4 80 38                         @ ../../../components/network/thread/subg_openthread/third_party/mbedtls/repo/library/bignum.c:80:38
	lsls	r1, r1, #2
	.loc	4 80 5 is_stmt 0                @ ../../../components/network/thread/subg_openthread/third_party/mbedtls/repo/library/bignum.c:80:5
	bl	mbedtls_platform_zeroize
.Ltmp50:
	.loc	4 177 26 is_stmt 1              @ ../../../components/network/thread/subg_openthread/third_party/mbedtls/repo/library/bignum.c:177:26
	ldr	r0, [r4, #8]
	.loc	4 177 9 is_stmt 0               @ ../../../components/network/thread/subg_openthread/third_party/mbedtls/repo/library/bignum.c:177:9
	bl	mbedtls_free
.Ltmp51:
.LBB3_9:
	@DEBUG_VALUE: mbedtls_mpi_shrink:p <- $r6
	@DEBUG_VALUE: mbedtls_mpi_shrink:i <- $r5
	@DEBUG_VALUE: mbedtls_mpi_shrink:nblimbs <- $r5
	@DEBUG_VALUE: mbedtls_mpi_shrink:X <- $r4
	.loc	4 0 9                           @ ../../../components/network/thread/subg_openthread/third_party/mbedtls/repo/library/bignum.c:0:9
	movs	r0, #0
	.loc	4 180 10 is_stmt 1              @ ../../../components/network/thread/subg_openthread/third_party/mbedtls/repo/library/bignum.c:180:10
	strd	r5, r6, [r4, #4]
	.loc	4 184 1                         @ ../../../components/network/thread/subg_openthread/third_party/mbedtls/repo/library/bignum.c:184:1
	pop	{r4, r5, r6, pc}
.Ltmp52:
.LBB3_10:
	@DEBUG_VALUE: mbedtls_mpi_shrink:X <- $r4
	@DEBUG_VALUE: mbedtls_mpi_shrink:nblimbs <- $r1
	.loc	4 159 17                        @ ../../../components/network/thread/subg_openthread/third_party/mbedtls/repo/library/bignum.c:159:17
	mov	r0, r4
	pop.w	{r4, r5, r6, lr}
.Ltmp53:
	@DEBUG_VALUE: mbedtls_mpi_shrink:X <- [DW_OP_LLVM_entry_value 1] $r0
	b	mbedtls_mpi_grow
.Ltmp54:
.Lfunc_end3:
	.size	mbedtls_mpi_shrink, .Lfunc_end3-mbedtls_mpi_shrink
	.cfi_endproc
	.cantunwind
	.fnend
                                        @ -- End function
	.section	.text.mbedtls_mpi_copy,"ax",%progbits
	.hidden	mbedtls_mpi_copy                @ -- Begin function mbedtls_mpi_copy
	.globl	mbedtls_mpi_copy
	.p2align	1
	.type	mbedtls_mpi_copy,%function
	.code	16                              @ @mbedtls_mpi_copy
	.thumb_func
mbedtls_mpi_copy:
.Lfunc_begin4:
	.loc	4 217 0                         @ ../../../components/network/thread/subg_openthread/third_party/mbedtls/repo/library/bignum.c:217:0
	.fnstart
	.cfi_startproc
@ %bb.0:
	@DEBUG_VALUE: mbedtls_mpi_copy:X <- $r0
	@DEBUG_VALUE: mbedtls_mpi_copy:Y <- $r1
	@DEBUG_VALUE: mbedtls_mpi_copy:Y <- $r1
	@DEBUG_VALUE: mbedtls_mpi_copy:X <- $r0
	.save	{r4, r5, r6, lr}
	push	{r4, r5, r6, lr}
	.cfi_def_cfa_offset 16
	.cfi_offset lr, -4
	.cfi_offset r6, -8
	.cfi_offset r5, -12
	.cfi_offset r4, -16
.Ltmp55:
	@DEBUG_VALUE: mbedtls_mpi_copy:ret <- 0
	.loc	4 223 9 prologue_end            @ ../../../components/network/thread/subg_openthread/third_party/mbedtls/repo/library/bignum.c:223:9
	cmp	r0, r1
	beq	.LBB4_11
.Ltmp56:
@ %bb.1:
	@DEBUG_VALUE: mbedtls_mpi_copy:Y <- $r1
	@DEBUG_VALUE: mbedtls_mpi_copy:X <- $r0
	@DEBUG_VALUE: mbedtls_mpi_copy:ret <- 0
	.loc	4 0 9 is_stmt 0                 @ ../../../components/network/thread/subg_openthread/third_party/mbedtls/repo/library/bignum.c:0:9
	mov	r4, r0
.Ltmp57:
	@DEBUG_VALUE: mbedtls_mpi_copy:X <- $r4
	@DEBUG_VALUE: mbedtls_mpi_copy:X <- $r4
	.loc	4 226 12 is_stmt 1              @ ../../../components/network/thread/subg_openthread/third_party/mbedtls/repo/library/bignum.c:226:12
	ldr	r0, [r1, #4]
	mov	r5, r1
.Ltmp58:
	@DEBUG_VALUE: mbedtls_mpi_copy:Y <- $r5
	@DEBUG_VALUE: mbedtls_mpi_copy:Y <- $r5
	.loc	4 226 9 is_stmt 0               @ ../../../components/network/thread/subg_openthread/third_party/mbedtls/repo/library/bignum.c:226:9
	cbz	r0, .LBB4_7
.Ltmp59:
@ %bb.2:
	@DEBUG_VALUE: mbedtls_mpi_copy:Y <- $r5
	@DEBUG_VALUE: mbedtls_mpi_copy:X <- $r4
	@DEBUG_VALUE: mbedtls_mpi_copy:ret <- 0
	.loc	4 236 5 is_stmt 1               @ ../../../components/network/thread/subg_openthread/third_party/mbedtls/repo/library/bignum.c:236:5
	lsls	r1, r0, #2
	rsbs	r0, r0, #0
.Ltmp60:
	.p2align	2
.LBB4_3:                                @ =>This Inner Loop Header: Depth=1
	@DEBUG_VALUE: mbedtls_mpi_copy:Y <- $r5
	@DEBUG_VALUE: mbedtls_mpi_copy:X <- $r4
	@DEBUG_VALUE: mbedtls_mpi_copy:ret <- 0
	.loc	4 0 5 is_stmt 0                 @ ../../../components/network/thread/subg_openthread/third_party/mbedtls/repo/library/bignum.c:0:5
	mov	r2, r0
.Ltmp61:
	@DEBUG_VALUE: mbedtls_mpi_copy:i <- [DW_OP_constu 1, DW_OP_minus, DW_OP_stack_value] undef
	.loc	4 236 5                         @ ../../../components/network/thread/subg_openthread/third_party/mbedtls/repo/library/bignum.c:236:5
	adds	r0, #1
	mov	r6, r1
	beq	.LBB4_5
.Ltmp62:
@ %bb.4:                                @   in Loop: Header=BB4_3 Depth=1
	@DEBUG_VALUE: mbedtls_mpi_copy:Y <- $r5
	@DEBUG_VALUE: mbedtls_mpi_copy:X <- $r4
	@DEBUG_VALUE: mbedtls_mpi_copy:ret <- 0
	.loc	4 237 16 is_stmt 1              @ ../../../components/network/thread/subg_openthread/third_party/mbedtls/repo/library/bignum.c:237:16
	ldr	r1, [r5, #8]
	.loc	4 237 13 is_stmt 0              @ ../../../components/network/thread/subg_openthread/third_party/mbedtls/repo/library/bignum.c:237:13
	add	r1, r6
	ldr	r1, [r1, #-4]
.Ltmp63:
	.loc	4 237 13                        @ ../../../components/network/thread/subg_openthread/third_party/mbedtls/repo/library/bignum.c:237:13
	cmp	r1, #0
	sub.w	r1, r6, #4
	beq	.LBB4_3
.Ltmp64:
.LBB4_5:
	@DEBUG_VALUE: mbedtls_mpi_copy:Y <- $r5
	@DEBUG_VALUE: mbedtls_mpi_copy:X <- $r4
	@DEBUG_VALUE: mbedtls_mpi_copy:ret <- 0
	@DEBUG_VALUE: mbedtls_mpi_copy:i <- undef
	.loc	4 243 12 is_stmt 1              @ ../../../components/network/thread/subg_openthread/third_party/mbedtls/repo/library/bignum.c:243:12
	ldr	r3, [r4, #4]
.Ltmp65:
	.loc	4 241 15                        @ ../../../components/network/thread/subg_openthread/third_party/mbedtls/repo/library/bignum.c:241:15
	ldr	r0, [r5]
.Ltmp66:
	.loc	4 243 14                        @ ../../../components/network/thread/subg_openthread/third_party/mbedtls/repo/library/bignum.c:243:14
	rsbs	r1, r2, #0
.Ltmp67:
	.loc	4 243 9 is_stmt 0               @ ../../../components/network/thread/subg_openthread/third_party/mbedtls/repo/library/bignum.c:243:9
	cmp	r3, r1
	.loc	4 241 10 is_stmt 1              @ ../../../components/network/thread/subg_openthread/third_party/mbedtls/repo/library/bignum.c:241:10
	str	r0, [r4]
	bhs	.LBB4_9
.Ltmp68:
@ %bb.6:
	@DEBUG_VALUE: mbedtls_mpi_copy:Y <- $r5
	@DEBUG_VALUE: mbedtls_mpi_copy:X <- $r4
	@DEBUG_VALUE: mbedtls_mpi_copy:ret <- 0
	.loc	4 245 9                         @ ../../../components/network/thread/subg_openthread/third_party/mbedtls/repo/library/bignum.c:245:9
	mov	r0, r4
	bl	mbedtls_mpi_grow
.Ltmp69:
	@DEBUG_VALUE: mbedtls_mpi_copy:ret <- $r0
	.loc	4 245 9 is_stmt 0               @ ../../../components/network/thread/subg_openthread/third_party/mbedtls/repo/library/bignum.c:245:9
	cmp	r0, #0
.Ltmp70:
	.loc	4 257 1 is_stmt 1               @ ../../../components/network/thread/subg_openthread/third_party/mbedtls/repo/library/bignum.c:257:1
	it	ne
	popne	{r4, r5, r6, pc}
.Ltmp71:
	.loc	4 0 1 is_stmt 0                 @ ../../../components/network/thread/subg_openthread/third_party/mbedtls/repo/library/bignum.c:0:1
	b	.LBB4_10
.Ltmp72:
.LBB4_7:
	@DEBUG_VALUE: mbedtls_mpi_copy:Y <- $r5
	@DEBUG_VALUE: mbedtls_mpi_copy:X <- $r4
	@DEBUG_VALUE: mbedtls_mpi_copy:ret <- 0
	.loc	4 228 16 is_stmt 1              @ ../../../components/network/thread/subg_openthread/third_party/mbedtls/repo/library/bignum.c:228:16
	ldr	r1, [r4, #4]
.Ltmp73:
	.loc	4 228 13 is_stmt 0              @ ../../../components/network/thread/subg_openthread/third_party/mbedtls/repo/library/bignum.c:228:13
	cbz	r1, .LBB4_11
.Ltmp74:
@ %bb.8:
	@DEBUG_VALUE: mbedtls_mpi_copy:Y <- $r5
	@DEBUG_VALUE: mbedtls_mpi_copy:X <- $r4
	@DEBUG_VALUE: mbedtls_mpi_copy:ret <- 0
	.loc	4 0 13                          @ ../../../components/network/thread/subg_openthread/third_party/mbedtls/repo/library/bignum.c:0:13
	movs	r0, #1
.Ltmp75:
	.loc	4 230 18 is_stmt 1              @ ../../../components/network/thread/subg_openthread/third_party/mbedtls/repo/library/bignum.c:230:18
	str	r0, [r4]
	.loc	4 231 24                        @ ../../../components/network/thread/subg_openthread/third_party/mbedtls/repo/library/bignum.c:231:24
	ldr	r0, [r4, #8]
	.loc	4 231 35 is_stmt 0              @ ../../../components/network/thread/subg_openthread/third_party/mbedtls/repo/library/bignum.c:231:35
	lsls	r1, r1, #2
	.loc	4 231 13                        @ ../../../components/network/thread/subg_openthread/third_party/mbedtls/repo/library/bignum.c:231:13
	bl	__aeabi_memclr4
.Ltmp76:
	.loc	4 0 13                          @ ../../../components/network/thread/subg_openthread/third_party/mbedtls/repo/library/bignum.c:0:13
	b	.LBB4_11
.Ltmp77:
.LBB4_9:
	@DEBUG_VALUE: mbedtls_mpi_copy:Y <- $r5
	@DEBUG_VALUE: mbedtls_mpi_copy:X <- $r4
	@DEBUG_VALUE: mbedtls_mpi_copy:ret <- 0
	.loc	4 249 20 is_stmt 1              @ ../../../components/network/thread/subg_openthread/third_party/mbedtls/repo/library/bignum.c:249:20
	ldr	r0, [r4, #8]
	.loc	4 249 43 is_stmt 0              @ ../../../components/network/thread/subg_openthread/third_party/mbedtls/repo/library/bignum.c:249:43
	adds	r1, r3, r2
	.loc	4 249 37                        @ ../../../components/network/thread/subg_openthread/third_party/mbedtls/repo/library/bignum.c:249:37
	add	r0, r6
	.loc	4 249 43                        @ ../../../components/network/thread/subg_openthread/third_party/mbedtls/repo/library/bignum.c:249:43
	lsls	r1, r1, #2
	.loc	4 249 9                         @ ../../../components/network/thread/subg_openthread/third_party/mbedtls/repo/library/bignum.c:249:9
	bl	__aeabi_memclr4
.Ltmp78:
.LBB4_10:
	@DEBUG_VALUE: mbedtls_mpi_copy:ret <- 0
	.loc	4 252 16 is_stmt 1              @ ../../../components/network/thread/subg_openthread/third_party/mbedtls/repo/library/bignum.c:252:16
	ldr	r0, [r4, #8]
	.loc	4 252 22 is_stmt 0              @ ../../../components/network/thread/subg_openthread/third_party/mbedtls/repo/library/bignum.c:252:22
	ldr	r1, [r5, #8]
	.loc	4 252 5                         @ ../../../components/network/thread/subg_openthread/third_party/mbedtls/repo/library/bignum.c:252:5
	mov	r2, r6
	bl	__aeabi_memcpy4
.Ltmp79:
.LBB4_11:
	@DEBUG_VALUE: mbedtls_mpi_copy:ret <- 0
	.loc	4 0 5                           @ ../../../components/network/thread/subg_openthread/third_party/mbedtls/repo/library/bignum.c:0:5
	movs	r0, #0
	.loc	4 257 1 is_stmt 1               @ ../../../components/network/thread/subg_openthread/third_party/mbedtls/repo/library/bignum.c:257:1
	pop	{r4, r5, r6, pc}
.Ltmp80:
.Lfunc_end4:
	.size	mbedtls_mpi_copy, .Lfunc_end4-mbedtls_mpi_copy
	.cfi_endproc
	.cantunwind
	.fnend
                                        @ -- End function
	.section	.text.mbedtls_mpi_swap,"ax",%progbits
	.hidden	mbedtls_mpi_swap                @ -- Begin function mbedtls_mpi_swap
	.globl	mbedtls_mpi_swap
	.p2align	1
	.type	mbedtls_mpi_swap,%function
	.code	16                              @ @mbedtls_mpi_swap
	.thumb_func
mbedtls_mpi_swap:
.Lfunc_begin5:
	.loc	4 263 0                         @ ../../../components/network/thread/subg_openthread/third_party/mbedtls/repo/library/bignum.c:263:0
	.fnstart
	.cfi_startproc
@ %bb.0:
	@DEBUG_VALUE: mbedtls_mpi_swap:X <- $r0
	@DEBUG_VALUE: mbedtls_mpi_swap:X <- $r0
	@DEBUG_VALUE: mbedtls_mpi_swap:Y <- $r1
	@DEBUG_VALUE: mbedtls_mpi_swap:Y <- $r1
	.save	{r4, r5, r7, lr}
	push	{r4, r5, r7, lr}
	.cfi_def_cfa_offset 16
	.cfi_offset lr, -4
	.cfi_offset r7, -8
	.cfi_offset r5, -12
	.cfi_offset r4, -16
	.pad	#12
	sub	sp, #12
	.cfi_def_cfa_offset 28
.Ltmp81:
	.loc	4 268 5 prologue_end            @ ../../../components/network/thread/subg_openthread/third_party/mbedtls/repo/library/bignum.c:268:5
	ldrd	lr, r3, [r0]
	ldr.w	r12, [r0, #8]
	.loc	4 269 5                         @ ../../../components/network/thread/subg_openthread/third_party/mbedtls/repo/library/bignum.c:269:5
	ldm.w	r1, {r2, r4, r5}
	stm	r0!, {r2, r4, r5}
.Ltmp82:
	@DEBUG_VALUE: mbedtls_mpi_swap:X <- [DW_OP_LLVM_entry_value 1] $r0
	.loc	4 270 5                         @ ../../../components/network/thread/subg_openthread/third_party/mbedtls/repo/library/bignum.c:270:5
	strd	lr, r3, [r1]
	str.w	r12, [r1, #8]
	.loc	4 271 1                         @ ../../../components/network/thread/subg_openthread/third_party/mbedtls/repo/library/bignum.c:271:1
	add	sp, #12
	pop	{r4, r5, r7, pc}
.Ltmp83:
.Lfunc_end5:
	.size	mbedtls_mpi_swap, .Lfunc_end5-mbedtls_mpi_swap
	.cfi_endproc
	.cantunwind
	.fnend
                                        @ -- End function
	.section	.text.mbedtls_mpi_lset,"ax",%progbits
	.hidden	mbedtls_mpi_lset                @ -- Begin function mbedtls_mpi_lset
	.globl	mbedtls_mpi_lset
	.p2align	1
	.type	mbedtls_mpi_lset,%function
	.code	16                              @ @mbedtls_mpi_lset
	.thumb_func
mbedtls_mpi_lset:
.Lfunc_begin6:
	.loc	4 277 0                         @ ../../../components/network/thread/subg_openthread/third_party/mbedtls/repo/library/bignum.c:277:0
	.fnstart
	.cfi_startproc
@ %bb.0:
	@DEBUG_VALUE: mbedtls_mpi_lset:X <- $r0
	@DEBUG_VALUE: mbedtls_mpi_lset:z <- $r1
	.save	{r4, r5, r6, lr}
	push	{r4, r5, r6, lr}
	.cfi_def_cfa_offset 16
	.cfi_offset lr, -4
	.cfi_offset r6, -8
	.cfi_offset r5, -12
	.cfi_offset r4, -16
	mov	r5, r1
.Ltmp84:
	@DEBUG_VALUE: mbedtls_mpi_lset:z <- $r5
	.loc	4 281 5 prologue_end            @ ../../../components/network/thread/subg_openthread/third_party/mbedtls/repo/library/bignum.c:281:5
	movs	r1, #1
	mov	r4, r0
.Ltmp85:
	@DEBUG_VALUE: mbedtls_mpi_lset:ret <- -110
	@DEBUG_VALUE: mbedtls_mpi_lset:z <- $r5
	@DEBUG_VALUE: mbedtls_mpi_lset:X <- $r4
	bl	mbedtls_mpi_grow
.Ltmp86:
	mov	r6, r0
.Ltmp87:
	@DEBUG_VALUE: mbedtls_mpi_lset:ret <- $r6
	.loc	4 281 5 is_stmt 0               @ ../../../components/network/thread/subg_openthread/third_party/mbedtls/repo/library/bignum.c:281:5
	cbnz	r0, .LBB6_4
.Ltmp88:
@ %bb.1:
	@DEBUG_VALUE: mbedtls_mpi_lset:ret <- $r6
	@DEBUG_VALUE: mbedtls_mpi_lset:z <- $r5
	@DEBUG_VALUE: mbedtls_mpi_lset:X <- $r4
	.loc	4 282 25 is_stmt 1              @ ../../../components/network/thread/subg_openthread/third_party/mbedtls/repo/library/bignum.c:282:25
	ldrd	r1, r0, [r4, #4]
	.loc	4 282 27 is_stmt 0              @ ../../../components/network/thread/subg_openthread/third_party/mbedtls/repo/library/bignum.c:282:27
	lsls	r1, r1, #2
	.loc	4 282 5                         @ ../../../components/network/thread/subg_openthread/third_party/mbedtls/repo/library/bignum.c:282:5
	bl	__aeabi_memclr4
.Ltmp89:
	.loc	4 284 15 is_stmt 1              @ ../../../components/network/thread/subg_openthread/third_party/mbedtls/repo/library/bignum.c:284:15
	cmp	r5, #0
	mov	r0, r5
	bpl	.LBB6_3
.Ltmp90:
@ %bb.2:
	@DEBUG_VALUE: mbedtls_mpi_lset:ret <- $r6
	@DEBUG_VALUE: mbedtls_mpi_lset:z <- $r5
	@DEBUG_VALUE: mbedtls_mpi_lset:X <- $r4
	rsbs	r0, r5, #0
.Ltmp91:
.LBB6_3:
	@DEBUG_VALUE: mbedtls_mpi_lset:ret <- $r6
	@DEBUG_VALUE: mbedtls_mpi_lset:z <- $r5
	@DEBUG_VALUE: mbedtls_mpi_lset:X <- $r4
	.loc	4 284 8 is_stmt 0               @ ../../../components/network/thread/subg_openthread/third_party/mbedtls/repo/library/bignum.c:284:8
	ldr	r1, [r4, #8]
	.loc	4 285 15 is_stmt 1              @ ../../../components/network/thread/subg_openthread/third_party/mbedtls/repo/library/bignum.c:285:15
	cmp	r5, #0
	.loc	4 284 13                        @ ../../../components/network/thread/subg_openthread/third_party/mbedtls/repo/library/bignum.c:284:13
	str	r0, [r1]
	mov.w	r0, #1
	.loc	4 285 15                        @ ../../../components/network/thread/subg_openthread/third_party/mbedtls/repo/library/bignum.c:285:15
	it	mi
	movmi.w	r0, #-1
	.loc	4 285 13 is_stmt 0              @ ../../../components/network/thread/subg_openthread/third_party/mbedtls/repo/library/bignum.c:285:13
	str	r0, [r4]
.Ltmp92:
.LBB6_4:
	@DEBUG_VALUE: mbedtls_mpi_lset:ret <- $r6
	@DEBUG_VALUE: mbedtls_mpi_lset:z <- $r5
	@DEBUG_VALUE: mbedtls_mpi_lset:X <- $r4
	@DEBUG_LABEL: mbedtls_mpi_lset:cleanup
	.loc	4 289 5 is_stmt 1               @ ../../../components/network/thread/subg_openthread/third_party/mbedtls/repo/library/bignum.c:289:5
	mov	r0, r6
	pop	{r4, r5, r6, pc}
.Ltmp93:
.Lfunc_end6:
	.size	mbedtls_mpi_lset, .Lfunc_end6-mbedtls_mpi_lset
	.cfi_endproc
	.cantunwind
	.fnend
                                        @ -- End function
	.section	.text.mbedtls_mpi_get_bit,"ax",%progbits
	.hidden	mbedtls_mpi_get_bit             @ -- Begin function mbedtls_mpi_get_bit
	.globl	mbedtls_mpi_get_bit
	.p2align	1
	.type	mbedtls_mpi_get_bit,%function
	.code	16                              @ @mbedtls_mpi_get_bit
	.thumb_func
mbedtls_mpi_get_bit:
.Lfunc_begin7:
	.loc	4 296 0                         @ ../../../components/network/thread/subg_openthread/third_party/mbedtls/repo/library/bignum.c:296:0
	.fnstart
	.cfi_startproc
@ %bb.0:
	@DEBUG_VALUE: mbedtls_mpi_get_bit:X <- $r0
	@DEBUG_VALUE: mbedtls_mpi_get_bit:X <- $r0
	@DEBUG_VALUE: mbedtls_mpi_get_bit:pos <- $r1
	.loc	4 299 12 prologue_end           @ ../../../components/network/thread/subg_openthread/third_party/mbedtls/repo/library/bignum.c:299:12
	ldr	r2, [r0, #4]
.Ltmp94:
	@DEBUG_VALUE: mbedtls_mpi_get_bit:pos <- $r1
	.loc	4 299 9 is_stmt 0               @ ../../../components/network/thread/subg_openthread/third_party/mbedtls/repo/library/bignum.c:299:9
	cmp.w	r1, r2, lsl #5
	itt	hs
	movhs	r0, #0
.Ltmp95:
	@DEBUG_VALUE: mbedtls_mpi_get_bit:X <- [DW_OP_LLVM_entry_value 1] $r0
	.loc	4 303 1 is_stmt 1               @ ../../../components/network/thread/subg_openthread/third_party/mbedtls/repo/library/bignum.c:303:1
	bxhs	lr
.Ltmp96:
.LBB7_1:
	@DEBUG_VALUE: mbedtls_mpi_get_bit:pos <- $r1
	@DEBUG_VALUE: mbedtls_mpi_get_bit:X <- [DW_OP_LLVM_entry_value 1] $r0
	.loc	4 302 18                        @ ../../../components/network/thread/subg_openthread/third_party/mbedtls/repo/library/bignum.c:302:18
	ldr	r0, [r0, #8]
	.loc	4 302 24 is_stmt 0              @ ../../../components/network/thread/subg_openthread/third_party/mbedtls/repo/library/bignum.c:302:24
	lsrs	r2, r1, #5
	.loc	4 302 15                        @ ../../../components/network/thread/subg_openthread/third_party/mbedtls/repo/library/bignum.c:302:15
	ldr.w	r0, [r0, r2, lsl #2]
	.loc	4 302 40                        @ ../../../components/network/thread/subg_openthread/third_party/mbedtls/repo/library/bignum.c:302:40
	and	r1, r1, #31
.Ltmp97:
	@DEBUG_VALUE: mbedtls_mpi_get_bit:pos <- [DW_OP_LLVM_entry_value 1] $r1
	.loc	4 302 31                        @ ../../../components/network/thread/subg_openthread/third_party/mbedtls/repo/library/bignum.c:302:31
	lsrs	r0, r1
	.loc	4 302 50                        @ ../../../components/network/thread/subg_openthread/third_party/mbedtls/repo/library/bignum.c:302:50
	and	r0, r0, #1
	.loc	4 303 1 is_stmt 1               @ ../../../components/network/thread/subg_openthread/third_party/mbedtls/repo/library/bignum.c:303:1
	bx	lr
.Ltmp98:
.Lfunc_end7:
	.size	mbedtls_mpi_get_bit, .Lfunc_end7-mbedtls_mpi_get_bit
	.cfi_endproc
	.cantunwind
	.fnend
                                        @ -- End function
	.section	.text.mbedtls_mpi_set_bit,"ax",%progbits
	.hidden	mbedtls_mpi_set_bit             @ -- Begin function mbedtls_mpi_set_bit
	.globl	mbedtls_mpi_set_bit
	.p2align	1
	.type	mbedtls_mpi_set_bit,%function
	.code	16                              @ @mbedtls_mpi_set_bit
	.thumb_func
mbedtls_mpi_set_bit:
.Lfunc_begin8:
	.loc	4 313 0                         @ ../../../components/network/thread/subg_openthread/third_party/mbedtls/repo/library/bignum.c:313:0
	.fnstart
	.cfi_startproc
@ %bb.0:
	@DEBUG_VALUE: mbedtls_mpi_set_bit:X <- $r0
	@DEBUG_VALUE: mbedtls_mpi_set_bit:pos <- $r1
	@DEBUG_VALUE: mbedtls_mpi_set_bit:val <- $r2
	@DEBUG_VALUE: mbedtls_mpi_set_bit:val <- $r2
	@DEBUG_VALUE: mbedtls_mpi_set_bit:pos <- $r1
	.save	{r4, r5, r6, r7, lr}
	push	{r4, r5, r6, r7, lr}
	.cfi_def_cfa_offset 20
	.cfi_offset lr, -4
	.cfi_offset r7, -8
	.cfi_offset r6, -12
	.cfi_offset r5, -16
	.cfi_offset r4, -20
	.pad	#4
	sub	sp, #4
	.cfi_def_cfa_offset 24
.Ltmp99:
	.loc	4 319 18 prologue_end           @ ../../../components/network/thread/subg_openthread/third_party/mbedtls/repo/library/bignum.c:319:18
	cmp	r2, #1
.Ltmp100:
	@DEBUG_VALUE: mbedtls_mpi_set_bit:idx <- undef
	@DEBUG_VALUE: mbedtls_mpi_set_bit:off <- undef
	@DEBUG_VALUE: mbedtls_mpi_set_bit:ret <- 0
	@DEBUG_VALUE: mbedtls_mpi_set_bit:X <- $r0
	bhi	.LBB8_6
.Ltmp101:
@ %bb.1:
	@DEBUG_VALUE: mbedtls_mpi_set_bit:val <- $r2
	@DEBUG_VALUE: mbedtls_mpi_set_bit:pos <- $r1
	@DEBUG_VALUE: mbedtls_mpi_set_bit:X <- $r0
	@DEBUG_VALUE: mbedtls_mpi_set_bit:ret <- 0
	.loc	4 0 18 is_stmt 0                @ ../../../components/network/thread/subg_openthread/third_party/mbedtls/repo/library/bignum.c:0:18
	mov	r5, r0
.Ltmp102:
	@DEBUG_VALUE: mbedtls_mpi_set_bit:X <- $r5
	.loc	4 322 12 is_stmt 1              @ ../../../components/network/thread/subg_openthread/third_party/mbedtls/repo/library/bignum.c:322:12
	ldr	r0, [r0, #4]
	mov	r4, r2
.Ltmp103:
	@DEBUG_VALUE: mbedtls_mpi_set_bit:val <- $r4
	@DEBUG_VALUE: mbedtls_mpi_set_bit:val <- $r4
	.loc	4 0 12 is_stmt 0                @ ../../../components/network/thread/subg_openthread/third_party/mbedtls/repo/library/bignum.c:0:12
	mov	r6, r1
.Ltmp104:
	@DEBUG_VALUE: mbedtls_mpi_set_bit:pos <- $r6
	.loc	4 322 9                         @ ../../../components/network/thread/subg_openthread/third_party/mbedtls/repo/library/bignum.c:322:9
	cmp.w	r1, r0, lsl #5
	.loc	4 0 0                           @ ../../../components/network/thread/subg_openthread/third_party/mbedtls/repo/library/bignum.c:0:0
	lsr.w	r7, r1, #5
.Ltmp105:
	@DEBUG_VALUE: mbedtls_mpi_set_bit:idx <- undef
	@DEBUG_VALUE: mbedtls_mpi_set_bit:off <- $r7
	.loc	4 322 9                         @ ../../../components/network/thread/subg_openthread/third_party/mbedtls/repo/library/bignum.c:322:9
	blo	.LBB8_4
.Ltmp106:
@ %bb.2:
	@DEBUG_VALUE: mbedtls_mpi_set_bit:off <- $r7
	@DEBUG_VALUE: mbedtls_mpi_set_bit:pos <- $r6
	@DEBUG_VALUE: mbedtls_mpi_set_bit:X <- $r5
	@DEBUG_VALUE: mbedtls_mpi_set_bit:val <- $r4
	@DEBUG_VALUE: mbedtls_mpi_set_bit:ret <- 0
	.loc	4 324 13 is_stmt 1              @ ../../../components/network/thread/subg_openthread/third_party/mbedtls/repo/library/bignum.c:324:13
	cbz	r4, .LBB8_5
.Ltmp107:
@ %bb.3:
	@DEBUG_VALUE: mbedtls_mpi_set_bit:off <- $r7
	@DEBUG_VALUE: mbedtls_mpi_set_bit:pos <- $r6
	@DEBUG_VALUE: mbedtls_mpi_set_bit:X <- $r5
	@DEBUG_VALUE: mbedtls_mpi_set_bit:val <- $r4
	@DEBUG_VALUE: mbedtls_mpi_set_bit:ret <- 0
	.loc	4 327 9                         @ ../../../components/network/thread/subg_openthread/third_party/mbedtls/repo/library/bignum.c:327:9
	adds	r1, r7, #1
	mov	r0, r5
	bl	mbedtls_mpi_grow
.Ltmp108:
	@DEBUG_VALUE: mbedtls_mpi_set_bit:ret <- $r0
	.loc	4 327 9 is_stmt 0               @ ../../../components/network/thread/subg_openthread/third_party/mbedtls/repo/library/bignum.c:327:9
	cbnz	r0, .LBB8_7
.Ltmp109:
.LBB8_4:
	@DEBUG_VALUE: mbedtls_mpi_set_bit:off <- $r7
	@DEBUG_VALUE: mbedtls_mpi_set_bit:pos <- $r6
	@DEBUG_VALUE: mbedtls_mpi_set_bit:X <- $r5
	@DEBUG_VALUE: mbedtls_mpi_set_bit:val <- $r4
	.loc	4 330 8 is_stmt 1               @ ../../../components/network/thread/subg_openthread/third_party/mbedtls/repo/library/bignum.c:330:8
	ldr	r1, [r5, #8]
	.loc	4 0 0 is_stmt 0                 @ ../../../components/network/thread/subg_openthread/third_party/mbedtls/repo/library/bignum.c:0:0
	and	r0, r6, #31
.Ltmp110:
	@DEBUG_VALUE: mbedtls_mpi_set_bit:idx <- $r0
	@DEBUG_VALUE: mbedtls_mpi_set_bit:ret <- 0
	movs	r2, #1
	.loc	4 330 15                        @ ../../../components/network/thread/subg_openthread/third_party/mbedtls/repo/library/bignum.c:330:15
	ldr.w	r3, [r1, r7, lsl #2]
	.loc	4 330 45                        @ ../../../components/network/thread/subg_openthread/third_party/mbedtls/repo/library/bignum.c:330:45
	lsls	r2, r0
	.loc	4 330 15                        @ ../../../components/network/thread/subg_openthread/third_party/mbedtls/repo/library/bignum.c:330:15
	bic.w	r2, r3, r2
	.loc	4 331 41 is_stmt 1              @ ../../../components/network/thread/subg_openthread/third_party/mbedtls/repo/library/bignum.c:331:41
	lsl.w	r0, r4, r0
.Ltmp111:
	.loc	4 331 15 is_stmt 0              @ ../../../components/network/thread/subg_openthread/third_party/mbedtls/repo/library/bignum.c:331:15
	orrs	r0, r2
	str.w	r0, [r1, r7, lsl #2]
.Ltmp112:
.LBB8_5:
	@DEBUG_VALUE: mbedtls_mpi_set_bit:off <- $r7
	@DEBUG_VALUE: mbedtls_mpi_set_bit:pos <- $r6
	@DEBUG_VALUE: mbedtls_mpi_set_bit:X <- $r5
	@DEBUG_VALUE: mbedtls_mpi_set_bit:val <- $r4
	@DEBUG_VALUE: mbedtls_mpi_set_bit:ret <- 0
	.loc	4 0 15                          @ ../../../components/network/thread/subg_openthread/third_party/mbedtls/repo/library/bignum.c:0:15
	movs	r0, #0
	b	.LBB8_7
.Ltmp113:
.LBB8_6:
	@DEBUG_VALUE: mbedtls_mpi_set_bit:val <- $r2
	@DEBUG_VALUE: mbedtls_mpi_set_bit:pos <- $r1
	@DEBUG_VALUE: mbedtls_mpi_set_bit:X <- $r0
	@DEBUG_VALUE: mbedtls_mpi_set_bit:ret <- 0
	mvn	r0, #3
.Ltmp114:
	@DEBUG_VALUE: mbedtls_mpi_set_bit:X <- [DW_OP_LLVM_entry_value 1] $r0
.LBB8_7:
	.loc	4 336 1 is_stmt 1               @ ../../../components/network/thread/subg_openthread/third_party/mbedtls/repo/library/bignum.c:336:1
	add	sp, #4
	pop	{r4, r5, r6, r7, pc}
.Ltmp115:
.Lfunc_end8:
	.size	mbedtls_mpi_set_bit, .Lfunc_end8-mbedtls_mpi_set_bit
	.cfi_endproc
	.cantunwind
	.fnend
                                        @ -- End function
	.section	.text.mbedtls_mpi_lsb,"ax",%progbits
	.hidden	mbedtls_mpi_lsb                 @ -- Begin function mbedtls_mpi_lsb
	.globl	mbedtls_mpi_lsb
	.p2align	1
	.type	mbedtls_mpi_lsb,%function
	.code	16                              @ @mbedtls_mpi_lsb
	.thumb_func
mbedtls_mpi_lsb:
.Lfunc_begin9:
	.loc	4 342 0                         @ ../../../components/network/thread/subg_openthread/third_party/mbedtls/repo/library/bignum.c:342:0
	.fnstart
	.cfi_startproc
@ %bb.0:
	@DEBUG_VALUE: mbedtls_mpi_lsb:X <- $r0
	@DEBUG_VALUE: mbedtls_mpi_lsb:X <- $r0
	.save	{r4, r5, r7, lr}
	push	{r4, r5, r7, lr}
	.cfi_def_cfa_offset 16
	.cfi_offset lr, -4
	.cfi_offset r7, -8
	.cfi_offset r5, -12
	.cfi_offset r4, -16
.Ltmp116:
	@DEBUG_VALUE: mbedtls_mpi_lsb:count <- 0
	@DEBUG_VALUE: mbedtls_mpi_lsb:i <- 0
	.loc	4 346 24 prologue_end           @ ../../../components/network/thread/subg_openthread/third_party/mbedtls/repo/library/bignum.c:346:24
	ldr	r1, [r0, #4]
.Ltmp117:
	.loc	4 346 5 is_stmt 0               @ ../../../components/network/thread/subg_openthread/third_party/mbedtls/repo/library/bignum.c:346:5
	cbz	r1, .LBB9_6
.Ltmp118:
@ %bb.1:
	@DEBUG_VALUE: mbedtls_mpi_lsb:X <- $r0
	@DEBUG_VALUE: mbedtls_mpi_lsb:i <- 0
	@DEBUG_VALUE: mbedtls_mpi_lsb:count <- 0
	.loc	4 0 5                           @ ../../../components/network/thread/subg_openthread/third_party/mbedtls/repo/library/bignum.c:0:5
	ldr.w	r12, [r0, #8]
	movs	r2, #0
	movs	r3, #0
.Ltmp119:
.LBB9_2:                                @ =>This Loop Header: Depth=1
                                        @     Child Loop BB9_3 Depth 2
	@DEBUG_VALUE: mbedtls_mpi_lsb:count <- $r2
	@DEBUG_VALUE: mbedtls_mpi_lsb:i <- $r3
	@DEBUG_VALUE: mbedtls_mpi_lsb:j <- 0
	ldr.w	r0, [r12, r3, lsl #2]
.Ltmp120:
	@DEBUG_VALUE: mbedtls_mpi_lsb:X <- [DW_OP_LLVM_entry_value 1] $r0
	.loc	4 347 9 is_stmt 1               @ ../../../components/network/thread/subg_openthread/third_party/mbedtls/repo/library/bignum.c:347:9
	add.w	lr, r2, #32
	movs	r4, #0
.Ltmp121:
	.p2align	2
.LBB9_3:                                @   Parent Loop BB9_2 Depth=1
                                        @ =>  This Inner Loop Header: Depth=2
	@DEBUG_VALUE: mbedtls_mpi_lsb:i <- $r3
	@DEBUG_VALUE: mbedtls_mpi_lsb:count <- undef
	@DEBUG_VALUE: mbedtls_mpi_lsb:j <- $r4
	.loc	4 348 17                        @ ../../../components/network/thread/subg_openthread/third_party/mbedtls/repo/library/bignum.c:348:17
	lsr.w	r5, r0, r4
	lsls	r5, r5, #31
	bne	.LBB9_7
.Ltmp122:
@ %bb.4:                                @   in Loop: Header=BB9_3 Depth=2
	@DEBUG_VALUE: mbedtls_mpi_lsb:j <- $r4
	@DEBUG_VALUE: mbedtls_mpi_lsb:i <- $r3
	.loc	4 347 31                        @ ../../../components/network/thread/subg_openthread/third_party/mbedtls/repo/library/bignum.c:347:31
	adds	r4, #1
.Ltmp123:
	@DEBUG_VALUE: mbedtls_mpi_lsb:j <- $r4
	@DEBUG_VALUE: mbedtls_mpi_lsb:count <- [DW_OP_plus_uconst 1, DW_OP_stack_value] undef
	.loc	4 347 9 is_stmt 0               @ ../../../components/network/thread/subg_openthread/third_party/mbedtls/repo/library/bignum.c:347:9
	cmp	r4, #32
	bne	.LBB9_3
.Ltmp124:
@ %bb.5:                                @   in Loop: Header=BB9_2 Depth=1
	@DEBUG_VALUE: mbedtls_mpi_lsb:j <- $r4
	@DEBUG_VALUE: mbedtls_mpi_lsb:i <- $r3
	.loc	4 346 28 is_stmt 1              @ ../../../components/network/thread/subg_openthread/third_party/mbedtls/repo/library/bignum.c:346:28
	adds	r3, #1
.Ltmp125:
	@DEBUG_VALUE: mbedtls_mpi_lsb:i <- $r3
	@DEBUG_VALUE: mbedtls_mpi_lsb:count <- $lr
	.loc	4 346 5 is_stmt 0               @ ../../../components/network/thread/subg_openthread/third_party/mbedtls/repo/library/bignum.c:346:5
	cmp	r3, r1
	mov	r2, lr
.Ltmp126:
	@DEBUG_VALUE: mbedtls_mpi_lsb:count <- $r2
	blo	.LBB9_2
.Ltmp127:
.LBB9_6:
	.loc	4 0 5                           @ ../../../components/network/thread/subg_openthread/third_party/mbedtls/repo/library/bignum.c:0:5
	movs	r0, #0
	.loc	4 352 1 is_stmt 1               @ ../../../components/network/thread/subg_openthread/third_party/mbedtls/repo/library/bignum.c:352:1
	pop	{r4, r5, r7, pc}
.LBB9_7:
.Ltmp128:
	@DEBUG_VALUE: mbedtls_mpi_lsb:j <- $r4
	@DEBUG_VALUE: mbedtls_mpi_lsb:i <- $r3
	adds	r0, r2, r4
	pop	{r4, r5, r7, pc}
.Ltmp129:
.Lfunc_end9:
	.size	mbedtls_mpi_lsb, .Lfunc_end9-mbedtls_mpi_lsb
	.cfi_endproc
	.cantunwind
	.fnend
                                        @ -- End function
	.section	.text.mbedtls_mpi_bitlen,"ax",%progbits
	.hidden	mbedtls_mpi_bitlen              @ -- Begin function mbedtls_mpi_bitlen
	.globl	mbedtls_mpi_bitlen
	.p2align	1
	.type	mbedtls_mpi_bitlen,%function
	.code	16                              @ @mbedtls_mpi_bitlen
	.thumb_func
mbedtls_mpi_bitlen:
.Lfunc_begin10:
	.loc	4 376 0                         @ ../../../components/network/thread/subg_openthread/third_party/mbedtls/repo/library/bignum.c:376:0
	.fnstart
	.cfi_startproc
@ %bb.0:
	@DEBUG_VALUE: mbedtls_mpi_bitlen:X <- $r0
	@DEBUG_VALUE: mbedtls_mpi_bitlen:X <- $r0
	.loc	4 379 12 prologue_end           @ ../../../components/network/thread/subg_openthread/third_party/mbedtls/repo/library/bignum.c:379:12
	ldr	r1, [r0, #4]
.Ltmp130:
	.loc	4 379 9 is_stmt 0               @ ../../../components/network/thread/subg_openthread/third_party/mbedtls/repo/library/bignum.c:379:9
	cbz	r1, .LBB10_4
.Ltmp131:
@ %bb.1:
	@DEBUG_VALUE: mbedtls_mpi_bitlen:X <- $r0
	.loc	4 0 9                           @ ../../../components/network/thread/subg_openthread/third_party/mbedtls/repo/library/bignum.c:0:9
	ldr	r2, [r0, #8]
	movs	r0, #32
.Ltmp132:
	@DEBUG_VALUE: mbedtls_mpi_bitlen:X <- [DW_OP_LLVM_entry_value 1] $r0
	.loc	4 382 5 is_stmt 1               @ ../../../components/network/thread/subg_openthread/third_party/mbedtls/repo/library/bignum.c:382:5
	add.w	r12, r0, r1, lsl #5
	subs	r3, r1, #1
.Ltmp133:
	.p2align	2
.LBB10_2:                               @ =>This Inner Loop Header: Depth=1
	@DEBUG_VALUE: mbedtls_mpi_bitlen:X <- [DW_OP_LLVM_entry_value 1] $r0
	@DEBUG_VALUE: mbedtls_mpi_bitlen:i <- $r3
	cbz	r3, .LBB10_5
.Ltmp134:
@ %bb.3:                                @   in Loop: Header=BB10_2 Depth=1
	@DEBUG_VALUE: mbedtls_mpi_bitlen:i <- $r3
	@DEBUG_VALUE: mbedtls_mpi_bitlen:X <- [DW_OP_LLVM_entry_value 1] $r0
	.loc	4 383 13                        @ ../../../components/network/thread/subg_openthread/third_party/mbedtls/repo/library/bignum.c:383:13
	ldr.w	r1, [r2, r3, lsl #2]
.Ltmp135:
	.loc	4 383 13 is_stmt 0              @ ../../../components/network/thread/subg_openthread/third_party/mbedtls/repo/library/bignum.c:383:13
	sub.w	r12, r12, #32
	cmp	r1, #0
	sub.w	r3, r3, #1
.Ltmp136:
	beq	.LBB10_2
	b	.LBB10_6
.Ltmp137:
.LBB10_4:
	@DEBUG_VALUE: mbedtls_mpi_bitlen:X <- $r0
	.loc	4 0 13                          @ ../../../components/network/thread/subg_openthread/third_party/mbedtls/repo/library/bignum.c:0:13
	movs	r0, #0
.Ltmp138:
	@DEBUG_VALUE: mbedtls_mpi_bitlen:X <- [DW_OP_LLVM_entry_value 1] $r0
	.loc	4 389 1 is_stmt 1               @ ../../../components/network/thread/subg_openthread/third_party/mbedtls/repo/library/bignum.c:389:1
	bx	lr
.Ltmp139:
.LBB10_5:
	@DEBUG_VALUE: mbedtls_mpi_bitlen:i <- $r3
	@DEBUG_VALUE: mbedtls_mpi_bitlen:X <- [DW_OP_LLVM_entry_value 1] $r0
	.loc	4 386 28                        @ ../../../components/network/thread/subg_openthread/third_party/mbedtls/repo/library/bignum.c:386:28
	ldr	r1, [r2]
	mov.w	r12, #32
.Ltmp140:
.LBB10_6:
	@DEBUG_VALUE: mbedtls_mpi_bitlen:X <- [DW_OP_LLVM_entry_value 1] $r0
	@DEBUG_VALUE: mbedtls_clz:x <- $r1
	@DEBUG_VALUE: mbedtls_clz:mask <- -2147483648
	@DEBUG_VALUE: mbedtls_clz:j <- 0
	.loc	4 362 5                         @ ../../../components/network/thread/subg_openthread/third_party/mbedtls/repo/library/bignum.c:362:5
	cmp	r1, #0
	bmi	.LBB10_11
.Ltmp141:
@ %bb.7:
	@DEBUG_VALUE: mbedtls_clz:x <- $r1
	@DEBUG_VALUE: mbedtls_clz:j <- 0
	@DEBUG_VALUE: mbedtls_clz:mask <- -2147483648
	@DEBUG_VALUE: mbedtls_mpi_bitlen:X <- [DW_OP_LLVM_entry_value 1] $r0
	.loc	4 0 5 is_stmt 0                 @ ../../../components/network/thread/subg_openthread/third_party/mbedtls/repo/library/bignum.c:0:5
	movs	r3, #0
	mov.w	r2, #-2147483648
.Ltmp142:
	.p2align	2
.LBB10_8:                               @ =>This Inner Loop Header: Depth=1
	@DEBUG_VALUE: mbedtls_clz:x <- $r1
	@DEBUG_VALUE: mbedtls_mpi_bitlen:X <- [DW_OP_LLVM_entry_value 1] $r0
	@DEBUG_VALUE: mbedtls_clz:mask <- undef
	@DEBUG_VALUE: mbedtls_clz:j <- $r3
	.loc	4 362 5                         @ ../../../components/network/thread/subg_openthread/third_party/mbedtls/repo/library/bignum.c:362:5
	cmp	r3, #30
.Ltmp143:
	.loc	4 362 27                        @ ../../../components/network/thread/subg_openthread/third_party/mbedtls/repo/library/bignum.c:362:27
	add.w	r0, r3, #1
.Ltmp144:
	@DEBUG_VALUE: mbedtls_clz:j <- $r0
	.loc	4 362 5                         @ ../../../components/network/thread/subg_openthread/third_party/mbedtls/repo/library/bignum.c:362:5
	bhi	.LBB10_10
.Ltmp145:
@ %bb.9:                                @   in Loop: Header=BB10_8 Depth=1
	@DEBUG_VALUE: mbedtls_clz:x <- $r1
	@DEBUG_VALUE: mbedtls_clz:j <- $r0
	@DEBUG_VALUE: mbedtls_mpi_bitlen:X <- [DW_OP_LLVM_entry_value 1] $r0
	.loc	4 0 5                           @ ../../../components/network/thread/subg_openthread/third_party/mbedtls/repo/library/bignum.c:0:5
	and.w	r3, r1, r2, lsr #1
	lsrs	r2, r2, #1
.Ltmp146:
	@DEBUG_VALUE: mbedtls_clz:mask <- $r2
	.loc	4 362 5                         @ ../../../components/network/thread/subg_openthread/third_party/mbedtls/repo/library/bignum.c:362:5
	cmp	r3, #0
	@DEBUG_VALUE: mbedtls_clz:mask <- $r2
	mov	r3, r0
	beq	.LBB10_8
.Ltmp147:
.LBB10_10:
	@DEBUG_VALUE: mbedtls_mpi_bitlen:X <- [DW_OP_LLVM_entry_value 1] $r0
	.loc	4 388 17 is_stmt 1              @ ../../../components/network/thread/subg_openthread/third_party/mbedtls/repo/library/bignum.c:388:17
	rsbs	r0, r0, #0
	b	.LBB10_12
.Ltmp148:
.LBB10_11:
	@DEBUG_VALUE: mbedtls_clz:x <- $r1
	@DEBUG_VALUE: mbedtls_clz:j <- 0
	@DEBUG_VALUE: mbedtls_clz:mask <- -2147483648
	@DEBUG_VALUE: mbedtls_mpi_bitlen:X <- [DW_OP_LLVM_entry_value 1] $r0
	.loc	4 0 17 is_stmt 0                @ ../../../components/network/thread/subg_openthread/third_party/mbedtls/repo/library/bignum.c:0:17
	movs	r0, #0
.Ltmp149:
.LBB10_12:
	@DEBUG_VALUE: mbedtls_mpi_bitlen:X <- [DW_OP_LLVM_entry_value 1] $r0
	@DEBUG_VALUE: mbedtls_mpi_bitlen:j <- undef
	.loc	4 388 25                        @ ../../../components/network/thread/subg_openthread/third_party/mbedtls/repo/library/bignum.c:388:25
	add	r0, r12
	.loc	4 389 1 is_stmt 1               @ ../../../components/network/thread/subg_openthread/third_party/mbedtls/repo/library/bignum.c:389:1
	bx	lr
.Ltmp150:
.Lfunc_end10:
	.size	mbedtls_mpi_bitlen, .Lfunc_end10-mbedtls_mpi_bitlen
	.cfi_endproc
	.cantunwind
	.fnend
                                        @ -- End function
	.section	.text.mbedtls_mpi_size,"ax",%progbits
	.hidden	mbedtls_mpi_size                @ -- Begin function mbedtls_mpi_size
	.globl	mbedtls_mpi_size
	.p2align	1
	.type	mbedtls_mpi_size,%function
	.code	16                              @ @mbedtls_mpi_size
	.thumb_func
mbedtls_mpi_size:
.Lfunc_begin11:
	.loc	4 395 0                         @ ../../../components/network/thread/subg_openthread/third_party/mbedtls/repo/library/bignum.c:395:0
	.fnstart
	.cfi_startproc
@ %bb.0:
	@DEBUG_VALUE: mbedtls_mpi_size:X <- $r0
	@DEBUG_VALUE: mbedtls_mpi_size:X <- $r0
	@DEBUG_VALUE: mbedtls_mpi_size:X <- $r0
	.save	{r7, lr}
	push	{r7, lr}
	.cfi_def_cfa_offset 8
	.cfi_offset lr, -4
	.cfi_offset r7, -8
.Ltmp151:
	.loc	4 396 15 prologue_end           @ ../../../components/network/thread/subg_openthread/third_party/mbedtls/repo/library/bignum.c:396:15
	bl	mbedtls_mpi_bitlen
.Ltmp152:
	@DEBUG_VALUE: mbedtls_mpi_size:X <- [DW_OP_LLVM_entry_value 1] $r0
	.loc	4 396 39 is_stmt 0              @ ../../../components/network/thread/subg_openthread/third_party/mbedtls/repo/library/bignum.c:396:39
	adds	r0, #7
	.loc	4 396 45                        @ ../../../components/network/thread/subg_openthread/third_party/mbedtls/repo/library/bignum.c:396:45
	lsrs	r0, r0, #3
	.loc	4 396 5                         @ ../../../components/network/thread/subg_openthread/third_party/mbedtls/repo/library/bignum.c:396:5
	pop	{r7, pc}
.Ltmp153:
.Lfunc_end11:
	.size	mbedtls_mpi_size, .Lfunc_end11-mbedtls_mpi_size
	.cfi_endproc
	.cantunwind
	.fnend
                                        @ -- End function
	.section	.text.mbedtls_mpi_read_string,"ax",%progbits
	.hidden	mbedtls_mpi_read_string         @ -- Begin function mbedtls_mpi_read_string
	.globl	mbedtls_mpi_read_string
	.p2align	1
	.type	mbedtls_mpi_read_string,%function
	.code	16                              @ @mbedtls_mpi_read_string
	.thumb_func
mbedtls_mpi_read_string:
.Lfunc_begin12:
	.loc	4 420 0 is_stmt 1               @ ../../../components/network/thread/subg_openthread/third_party/mbedtls/repo/library/bignum.c:420:0
	.fnstart
	.cfi_startproc
@ %bb.0:
	@DEBUG_VALUE: mbedtls_mpi_read_string:X <- $r0
	@DEBUG_VALUE: mbedtls_mpi_read_string:radix <- $r1
	@DEBUG_VALUE: mbedtls_mpi_read_string:s <- $r2
	.save	{r4, r5, r6, r7, r8, r9, r10, r11, lr}
	push.w	{r4, r5, r6, r7, r8, r9, r10, r11, lr}
	.cfi_def_cfa_offset 36
	.cfi_offset lr, -4
	.cfi_offset r11, -8
	.cfi_offset r10, -12
	.cfi_offset r9, -16
	.cfi_offset r8, -20
	.cfi_offset r7, -24
	.cfi_offset r6, -28
	.cfi_offset r5, -32
	.cfi_offset r4, -36
	.pad	#36
	sub	sp, #36
	.cfi_def_cfa_offset 72
	mov	r7, r1
	@DEBUG_VALUE: mbedtls_mpi_read_string:s <- $r2
.Ltmp154:
	@DEBUG_VALUE: mbedtls_mpi_read_string:radix <- $r7
	.loc	4 429 19 prologue_end           @ ../../../components/network/thread/subg_openthread/third_party/mbedtls/repo/library/bignum.c:429:19
	subs	r1, #2
	cmp	r1, #14
.Ltmp155:
	@DEBUG_VALUE: mbedtls_mpi_read_string:sign <- 1
	@DEBUG_VALUE: mbedtls_mpi_read_string:ret <- -110
	@DEBUG_VALUE: mbedtls_mpi_read_string:X <- $r0
	bls	.LBB12_2
.Ltmp156:
.LBB12_1:
	@DEBUG_VALUE: mbedtls_mpi_read_string:radix <- $r7
	@DEBUG_VALUE: mbedtls_mpi_read_string:ret <- -110
	.loc	4 0 19 is_stmt 0                @ ../../../components/network/thread/subg_openthread/third_party/mbedtls/repo/library/bignum.c:0:19
	mvn	r4, #3
	b	.LBB12_27
.Ltmp157:
.LBB12_2:
	@DEBUG_VALUE: mbedtls_mpi_read_string:radix <- $r7
	@DEBUG_VALUE: mbedtls_mpi_read_string:s <- $r2
	@DEBUG_VALUE: mbedtls_mpi_read_string:X <- $r0
	@DEBUG_VALUE: mbedtls_mpi_read_string:ret <- -110
	@DEBUG_VALUE: mbedtls_mpi_read_string:sign <- 1
	.loc	4 434 9 is_stmt 1               @ ../../../components/network/thread/subg_openthread/third_party/mbedtls/repo/library/bignum.c:434:9
	ldrb.w	r11, [r2]
	mov	r8, r0
.Ltmp158:
	@DEBUG_VALUE: mbedtls_mpi_read_string:X <- $r8
	@DEBUG_VALUE: mbedtls_mpi_read_string:X <- $r8
	.loc	4 0 9 is_stmt 0                 @ ../../../components/network/thread/subg_openthread/third_party/mbedtls/repo/library/bignum.c:0:9
	movs	r0, #1
.Ltmp159:
	@DEBUG_VALUE: mbedtls_mpi_init:X <- [DW_OP_plus_uconst 4, DW_OP_stack_value] $sp
	mov	r6, r2
.Ltmp160:
	@DEBUG_VALUE: mbedtls_mpi_read_string:s <- $r6
	@DEBUG_VALUE: mbedtls_mpi_read_string:s <- $r6
	.loc	4 90 10 is_stmt 1               @ ../../../components/network/thread/subg_openthread/third_party/mbedtls/repo/library/bignum.c:90:10
	str	r0, [sp, #4]
	movs	r0, #0
.Ltmp161:
	.loc	4 434 9                         @ ../../../components/network/thread/subg_openthread/third_party/mbedtls/repo/library/bignum.c:434:9
	cmp.w	r11, #0
.Ltmp162:
	.loc	4 91 10                         @ ../../../components/network/thread/subg_openthread/third_party/mbedtls/repo/library/bignum.c:91:10
	str	r0, [sp, #8]
	@DEBUG_VALUE: mbedtls_mpi_init:X <- [DW_OP_plus_uconst 4, DW_OP_stack_value] $sp
	.loc	4 92 10                         @ ../../../components/network/thread/subg_openthread/third_party/mbedtls/repo/library/bignum.c:92:10
	str	r0, [sp, #12]
.Ltmp163:
	@DEBUG_VALUE: mbedtls_mpi_init:X <- [DW_OP_plus_uconst 4, DW_OP_stack_value] $sp
	.loc	4 434 9                         @ ../../../components/network/thread/subg_openthread/third_party/mbedtls/repo/library/bignum.c:434:9
	beq	.LBB12_11
.Ltmp164:
@ %bb.3:
	@DEBUG_VALUE: mbedtls_mpi_read_string:X <- $r8
	@DEBUG_VALUE: mbedtls_mpi_read_string:radix <- $r7
	@DEBUG_VALUE: mbedtls_mpi_read_string:s <- $r6
	@DEBUG_VALUE: mbedtls_mpi_read_string:ret <- -110
	@DEBUG_VALUE: mbedtls_mpi_read_string:sign <- 1
	.loc	4 440 9                         @ ../../../components/network/thread/subg_openthread/third_party/mbedtls/repo/library/bignum.c:440:9
	cmp.w	r11, #45
	it	eq
	addeq	r6, #1
.Ltmp165:
	@DEBUG_VALUE: mbedtls_mpi_read_string:s <- [DW_OP_LLVM_entry_value 1] $r2
	@DEBUG_VALUE: mbedtls_mpi_read_string:sign <- undef
	@DEBUG_VALUE: mbedtls_mpi_read_string:s <- $r6
	.loc	4 446 12                        @ ../../../components/network/thread/subg_openthread/third_party/mbedtls/repo/library/bignum.c:446:12
	mov	r0, r6
	bl	strlen
.Ltmp166:
	.loc	4 448 9                         @ ../../../components/network/thread/subg_openthread/third_party/mbedtls/repo/library/bignum.c:448:9
	cmp	r7, #16
	.loc	4 446 12                        @ ../../../components/network/thread/subg_openthread/third_party/mbedtls/repo/library/bignum.c:446:12
	mov	r5, r0
.Ltmp167:
	@DEBUG_VALUE: mbedtls_mpi_read_string:slen <- $r5
	.loc	4 448 9                         @ ../../../components/network/thread/subg_openthread/third_party/mbedtls/repo/library/bignum.c:448:9
	bne	.LBB12_12
.Ltmp168:
@ %bb.4:
	@DEBUG_VALUE: mbedtls_mpi_read_string:X <- $r8
	@DEBUG_VALUE: mbedtls_mpi_read_string:radix <- $r7
	@DEBUG_VALUE: mbedtls_mpi_read_string:s <- $r6
	@DEBUG_VALUE: mbedtls_mpi_read_string:slen <- $r5
	@DEBUG_VALUE: mbedtls_mpi_read_string:ret <- -110
	.loc	4 0 9 is_stmt 0                 @ ../../../components/network/thread/subg_openthread/third_party/mbedtls/repo/library/bignum.c:0:9
	movs	r0, #0
.Ltmp169:
	.loc	4 450 13 is_stmt 1              @ ../../../components/network/thread/subg_openthread/third_party/mbedtls/repo/library/bignum.c:450:13
	cmp.w	r0, r5, lsr #30
	bne	.LBB12_1
.Ltmp170:
@ %bb.5:
	@DEBUG_VALUE: mbedtls_mpi_read_string:X <- $r8
	@DEBUG_VALUE: mbedtls_mpi_read_string:radix <- $r7
	@DEBUG_VALUE: mbedtls_mpi_read_string:s <- $r6
	@DEBUG_VALUE: mbedtls_mpi_read_string:slen <- $r5
	@DEBUG_VALUE: mbedtls_mpi_read_string:ret <- -110
	.loc	4 453 13                        @ ../../../components/network/thread/subg_openthread/third_party/mbedtls/repo/library/bignum.c:453:13
	lsrs	r1, r5, #3
	movs	r0, #1
	lsls	r2, r5, #29
	it	ne
	addne.w	r1, r0, r5, lsr #3
.Ltmp171:
	@DEBUG_VALUE: mbedtls_mpi_read_string:n <- $r1
	.loc	4 455 9                         @ ../../../components/network/thread/subg_openthread/third_party/mbedtls/repo/library/bignum.c:455:9
	mov	r0, r8
	bl	mbedtls_mpi_grow
.Ltmp172:
	mov	r4, r0
.Ltmp173:
	@DEBUG_VALUE: mbedtls_mpi_read_string:ret <- $r4
	.loc	4 455 9 is_stmt 0               @ ../../../components/network/thread/subg_openthread/third_party/mbedtls/repo/library/bignum.c:455:9
	cmp	r0, #0
	bne.w	.LBB12_26
.Ltmp174:
@ %bb.6:
	@DEBUG_VALUE: mbedtls_mpi_read_string:X <- $r8
	@DEBUG_VALUE: mbedtls_mpi_read_string:radix <- $r7
	@DEBUG_VALUE: mbedtls_mpi_read_string:s <- $r6
	@DEBUG_VALUE: mbedtls_mpi_read_string:slen <- $r5
	@DEBUG_VALUE: mbedtls_mpi_read_string:ret <- $r4
	@DEBUG_VALUE: mbedtls_mpi_lset:X <- $r8
	@DEBUG_VALUE: mbedtls_mpi_lset:z <- 0
	@DEBUG_VALUE: mbedtls_mpi_lset:ret <- -110
	.loc	4 281 5 is_stmt 1               @ ../../../components/network/thread/subg_openthread/third_party/mbedtls/repo/library/bignum.c:281:5
	mov	r0, r8
	movs	r1, #1
	movs	r7, #1
.Ltmp175:
	bl	mbedtls_mpi_grow
.Ltmp176:
	mov	r4, r0
.Ltmp177:
	@DEBUG_VALUE: mbedtls_mpi_lset:ret <- $r4
	.loc	4 281 5 is_stmt 0               @ ../../../components/network/thread/subg_openthread/third_party/mbedtls/repo/library/bignum.c:281:5
	cmp	r0, #0
	bne.w	.LBB12_26
.Ltmp178:
@ %bb.7:
	@DEBUG_VALUE: mbedtls_mpi_lset:X <- $r8
	@DEBUG_VALUE: mbedtls_mpi_read_string:X <- $r8
	@DEBUG_VALUE: mbedtls_mpi_read_string:s <- $r6
	@DEBUG_VALUE: mbedtls_mpi_read_string:slen <- $r5
	@DEBUG_VALUE: mbedtls_mpi_lset:ret <- $r4
	@DEBUG_VALUE: mbedtls_mpi_lset:z <- 0
	.loc	4 282 25 is_stmt 1              @ ../../../components/network/thread/subg_openthread/third_party/mbedtls/repo/library/bignum.c:282:25
	ldrd	r1, r0, [r8, #4]
	.loc	4 282 27 is_stmt 0              @ ../../../components/network/thread/subg_openthread/third_party/mbedtls/repo/library/bignum.c:282:27
	lsls	r1, r1, #2
	.loc	4 282 5                         @ ../../../components/network/thread/subg_openthread/third_party/mbedtls/repo/library/bignum.c:282:5
	bl	__aeabi_memclr4
.Ltmp179:
	.loc	4 284 8 is_stmt 1               @ ../../../components/network/thread/subg_openthread/third_party/mbedtls/repo/library/bignum.c:284:8
	ldr.w	r0, [r8, #8]
	movs	r1, #0
.Ltmp180:
	.loc	4 458 9                         @ ../../../components/network/thread/subg_openthread/third_party/mbedtls/repo/library/bignum.c:458:9
	cmp	r5, #0
.Ltmp181:
	.loc	4 284 13                        @ ../../../components/network/thread/subg_openthread/third_party/mbedtls/repo/library/bignum.c:284:13
	str	r1, [r0]
.Ltmp182:
	@DEBUG_LABEL: mbedtls_mpi_lset:cleanup
	.loc	4 285 13                        @ ../../../components/network/thread/subg_openthread/third_party/mbedtls/repo/library/bignum.c:285:13
	str.w	r7, [r8]
.Ltmp183:
	@DEBUG_VALUE: mbedtls_mpi_read_string:i <- $r5
	@DEBUG_VALUE: mbedtls_mpi_read_string:j <- 0
	@DEBUG_VALUE: mbedtls_mpi_read_string:ret <- 0
	.loc	4 458 9                         @ ../../../components/network/thread/subg_openthread/third_party/mbedtls/repo/library/bignum.c:458:9
	beq	.LBB12_21
.Ltmp184:
@ %bb.8:
	@DEBUG_VALUE: mbedtls_mpi_read_string:X <- $r8
	@DEBUG_VALUE: mbedtls_mpi_read_string:s <- $r6
	@DEBUG_VALUE: mbedtls_mpi_read_string:i <- $r5
	@DEBUG_VALUE: mbedtls_mpi_read_string:slen <- $r5
	@DEBUG_VALUE: mbedtls_mpi_read_string:j <- 0
	@DEBUG_VALUE: mbedtls_mpi_read_string:ret <- 0
	subs	r7, r6, #1
	movs	r6, #0
.Ltmp185:
	.loc	4 0 9 is_stmt 0                 @ ../../../components/network/thread/subg_openthread/third_party/mbedtls/repo/library/bignum.c:0:9
	add.w	r9, sp, #16
	mov.w	r10, #0
.Ltmp186:
.LBB12_9:                               @ =>This Inner Loop Header: Depth=1
	@DEBUG_VALUE: mbedtls_mpi_read_string:X <- $r8
	@DEBUG_VALUE: mbedtls_mpi_read_string:slen <- $r5
	@DEBUG_VALUE: mbedtls_mpi_read_string:ret <- 0
	@DEBUG_VALUE: mbedtls_mpi_read_string:j <- $r10
	@DEBUG_VALUE: mbedtls_mpi_read_string:i <- undef
	.loc	4 460 13 is_stmt 1              @ ../../../components/network/thread/subg_openthread/third_party/mbedtls/repo/library/bignum.c:460:13
	ldrb	r2, [r7, r5]
.Ltmp187:
	@DEBUG_VALUE: mbedtls_mpi_read_string:d <- [DW_OP_plus_uconst 16, DW_OP_deref] $sp
	mov	r0, r9
	movs	r1, #16
	bl	mpi_get_digit
.Ltmp188:
	@DEBUG_VALUE: mbedtls_mpi_read_string:ret <- $r0
	.loc	4 460 13 is_stmt 0              @ ../../../components/network/thread/subg_openthread/third_party/mbedtls/repo/library/bignum.c:460:13
	cmp	r0, #0
	bne	.LBB12_25
.Ltmp189:
@ %bb.10:                               @   in Loop: Header=BB12_9 Depth=1
	@DEBUG_VALUE: mbedtls_mpi_read_string:j <- $r10
	@DEBUG_VALUE: mbedtls_mpi_read_string:X <- $r8
	@DEBUG_VALUE: mbedtls_mpi_read_string:slen <- $r5
	@DEBUG_VALUE: mbedtls_mpi_read_string:ret <- $r0
	@DEBUG_VALUE: mbedtls_mpi_read_string:d <- [DW_OP_plus_uconst 16, DW_OP_deref] $sp
	.loc	4 461 16 is_stmt 1              @ ../../../components/network/thread/subg_openthread/third_party/mbedtls/repo/library/bignum.c:461:16
	ldr.w	r2, [r8, #8]
	.loc	4 461 20 is_stmt 0              @ ../../../components/network/thread/subg_openthread/third_party/mbedtls/repo/library/bignum.c:461:20
	mvn	r3, #3
	.loc	4 461 38                        @ ../../../components/network/thread/subg_openthread/third_party/mbedtls/repo/library/bignum.c:461:38
	ldr	r0, [sp, #16]
.Ltmp190:
	@DEBUG_VALUE: mbedtls_mpi_read_string:d <- $r0
	.loc	4 461 20                        @ ../../../components/network/thread/subg_openthread/third_party/mbedtls/repo/library/bignum.c:461:20
	and.w	r3, r3, r10, lsr #1
	.loc	4 461 65                        @ ../../../components/network/thread/subg_openthread/third_party/mbedtls/repo/library/bignum.c:461:65
	and	r1, r6, #28
	.loc	4 461 35                        @ ../../../components/network/thread/subg_openthread/third_party/mbedtls/repo/library/bignum.c:461:35
	ldr	r4, [r2, r3]
	.loc	4 461 40                        @ ../../../components/network/thread/subg_openthread/third_party/mbedtls/repo/library/bignum.c:461:40
	lsls	r0, r1
.Ltmp191:
	.loc	4 458 44 is_stmt 1              @ ../../../components/network/thread/subg_openthread/third_party/mbedtls/repo/library/bignum.c:458:44
	add.w	r10, r10, #1
.Ltmp192:
	@DEBUG_VALUE: mbedtls_mpi_read_string:j <- $r10
	@DEBUG_VALUE: mbedtls_mpi_read_string:ret <- 0
	.loc	4 461 35                        @ ../../../components/network/thread/subg_openthread/third_party/mbedtls/repo/library/bignum.c:461:35
	orrs	r0, r4
.Ltmp193:
	.loc	4 458 33                        @ ../../../components/network/thread/subg_openthread/third_party/mbedtls/repo/library/bignum.c:458:33
	adds	r6, #4
.Ltmp194:
	.loc	4 458 9 is_stmt 0               @ ../../../components/network/thread/subg_openthread/third_party/mbedtls/repo/library/bignum.c:458:9
	cmp	r5, r10
.Ltmp195:
	.loc	4 458 33                        @ ../../../components/network/thread/subg_openthread/third_party/mbedtls/repo/library/bignum.c:458:33
	sub.w	r7, r7, #1
.Ltmp196:
	.loc	4 461 35 is_stmt 1              @ ../../../components/network/thread/subg_openthread/third_party/mbedtls/repo/library/bignum.c:461:35
	str	r0, [r2, r3]
.Ltmp197:
	@DEBUG_VALUE: mbedtls_mpi_read_string:i <- [DW_OP_constu 1, DW_OP_minus, DW_OP_stack_value] undef
	.loc	4 458 9                         @ ../../../components/network/thread/subg_openthread/third_party/mbedtls/repo/library/bignum.c:458:9
	bne	.LBB12_9
	b	.LBB12_21
.Ltmp198:
.LBB12_11:
	@DEBUG_VALUE: mbedtls_mpi_read_string:X <- $r8
	@DEBUG_VALUE: mbedtls_mpi_read_string:radix <- $r7
	@DEBUG_VALUE: mbedtls_mpi_read_string:s <- $r6
	@DEBUG_VALUE: mbedtls_mpi_read_string:ret <- -110
	@DEBUG_VALUE: mbedtls_mpi_read_string:sign <- 1
	.loc	4 436 9                         @ ../../../components/network/thread/subg_openthread/third_party/mbedtls/repo/library/bignum.c:436:9
	mov	r0, r8
	bl	mbedtls_mpi_free
.Ltmp199:
	.loc	4 0 9 is_stmt 0                 @ ../../../components/network/thread/subg_openthread/third_party/mbedtls/repo/library/bignum.c:0:9
	movs	r4, #0
	b	.LBB12_27
.Ltmp200:
.LBB12_12:
	@DEBUG_VALUE: mbedtls_mpi_read_string:X <- $r8
	@DEBUG_VALUE: mbedtls_mpi_read_string:radix <- $r7
	@DEBUG_VALUE: mbedtls_mpi_read_string:s <- $r6
	@DEBUG_VALUE: mbedtls_mpi_read_string:slen <- $r5
	@DEBUG_VALUE: mbedtls_mpi_read_string:ret <- -110
	@DEBUG_VALUE: mbedtls_mpi_lset:X <- $r8
	@DEBUG_VALUE: mbedtls_mpi_lset:z <- 0
	@DEBUG_VALUE: mbedtls_mpi_lset:ret <- -110
	.loc	4 281 5 is_stmt 1               @ ../../../components/network/thread/subg_openthread/third_party/mbedtls/repo/library/bignum.c:281:5
	mov	r0, r8
	movs	r1, #1
	mov.w	r9, #1
	bl	mbedtls_mpi_grow
.Ltmp201:
	mov	r4, r0
.Ltmp202:
	@DEBUG_VALUE: mbedtls_mpi_lset:ret <- $r4
	.loc	4 281 5 is_stmt 0               @ ../../../components/network/thread/subg_openthread/third_party/mbedtls/repo/library/bignum.c:281:5
	cmp	r0, #0
	bne	.LBB12_26
.Ltmp203:
@ %bb.13:
	@DEBUG_VALUE: mbedtls_mpi_lset:X <- $r8
	@DEBUG_VALUE: mbedtls_mpi_read_string:X <- $r8
	@DEBUG_VALUE: mbedtls_mpi_read_string:radix <- $r7
	@DEBUG_VALUE: mbedtls_mpi_read_string:s <- $r6
	@DEBUG_VALUE: mbedtls_mpi_read_string:slen <- $r5
	@DEBUG_VALUE: mbedtls_mpi_lset:ret <- $r4
	@DEBUG_VALUE: mbedtls_mpi_lset:z <- 0
	@DEBUG_VALUE: mbedtls_mpi_read_string:ret <- -110
	.loc	4 282 25 is_stmt 1              @ ../../../components/network/thread/subg_openthread/third_party/mbedtls/repo/library/bignum.c:282:25
	ldrd	r1, r0, [r8, #4]
	.loc	4 282 27 is_stmt 0              @ ../../../components/network/thread/subg_openthread/third_party/mbedtls/repo/library/bignum.c:282:27
	lsls	r1, r1, #2
	.loc	4 282 5                         @ ../../../components/network/thread/subg_openthread/third_party/mbedtls/repo/library/bignum.c:282:5
	bl	__aeabi_memclr4
.Ltmp204:
	.loc	4 284 8 is_stmt 1               @ ../../../components/network/thread/subg_openthread/third_party/mbedtls/repo/library/bignum.c:284:8
	ldr.w	r0, [r8, #8]
	movs	r1, #0
	.loc	4 284 13 is_stmt 0              @ ../../../components/network/thread/subg_openthread/third_party/mbedtls/repo/library/bignum.c:284:13
	str	r1, [r0]
.Ltmp205:
	@DEBUG_LABEL: mbedtls_mpi_lset:cleanup
	.loc	4 285 13 is_stmt 1              @ ../../../components/network/thread/subg_openthread/third_party/mbedtls/repo/library/bignum.c:285:13
	str.w	r9, [r8]
.Ltmp206:
	@DEBUG_VALUE: mbedtls_mpi_read_string:i <- 0
	@DEBUG_VALUE: mbedtls_mpi_read_string:ret <- 0
	.loc	4 468 9                         @ ../../../components/network/thread/subg_openthread/third_party/mbedtls/repo/library/bignum.c:468:9
	cbz	r5, .LBB12_21
.Ltmp207:
@ %bb.14:
	@DEBUG_VALUE: mbedtls_mpi_lset:X <- $r8
	@DEBUG_VALUE: mbedtls_mpi_read_string:X <- $r8
	@DEBUG_VALUE: mbedtls_mpi_read_string:radix <- $r7
	@DEBUG_VALUE: mbedtls_mpi_read_string:s <- $r6
	@DEBUG_VALUE: mbedtls_mpi_read_string:slen <- $r5
	@DEBUG_VALUE: mbedtls_mpi_lset:ret <- $r4
	@DEBUG_VALUE: mbedtls_mpi_read_string:ret <- 0
	@DEBUG_VALUE: mbedtls_mpi_read_string:i <- 0
	@DEBUG_VALUE: mbedtls_mpi_lset:z <- 0
	.loc	4 0 9 is_stmt 0                 @ ../../../components/network/thread/subg_openthread/third_party/mbedtls/repo/library/bignum.c:0:9
	add.w	r9, sp, #16
	add.w	r10, sp, #4
.Ltmp208:
	.p2align	2
.LBB12_15:                              @ =>This Inner Loop Header: Depth=1
	@DEBUG_VALUE: mbedtls_mpi_read_string:X <- $r8
	@DEBUG_VALUE: mbedtls_mpi_read_string:radix <- $r7
	@DEBUG_VALUE: mbedtls_mpi_read_string:ret <- 0
	@DEBUG_VALUE: mbedtls_mpi_read_string:i <- undef
	.loc	4 470 13 is_stmt 1              @ ../../../components/network/thread/subg_openthread/third_party/mbedtls/repo/library/bignum.c:470:13
	ldrb	r2, [r6]
.Ltmp209:
	@DEBUG_VALUE: mbedtls_mpi_read_string:d <- [DW_OP_plus_uconst 16, DW_OP_deref] $sp
	mov	r0, r9
	mov	r1, r7
	bl	mpi_get_digit
.Ltmp210:
	@DEBUG_VALUE: mbedtls_mpi_read_string:ret <- $r0
	.loc	4 470 13 is_stmt 0              @ ../../../components/network/thread/subg_openthread/third_party/mbedtls/repo/library/bignum.c:470:13
	cbnz	r0, .LBB12_25
.Ltmp211:
@ %bb.16:                               @   in Loop: Header=BB12_15 Depth=1
	@DEBUG_VALUE: mbedtls_mpi_read_string:X <- $r8
	@DEBUG_VALUE: mbedtls_mpi_read_string:radix <- $r7
	@DEBUG_VALUE: mbedtls_mpi_read_string:ret <- $r0
	@DEBUG_VALUE: mbedtls_mpi_read_string:d <- [DW_OP_plus_uconst 16, DW_OP_deref] $sp
	.loc	4 471 13 is_stmt 1              @ ../../../components/network/thread/subg_openthread/third_party/mbedtls/repo/library/bignum.c:471:13
	mov	r0, r10
.Ltmp212:
	mov	r1, r8
	mov	r2, r7
	bl	mbedtls_mpi_mul_int
.Ltmp213:
	@DEBUG_VALUE: mbedtls_mpi_read_string:ret <- $r0
	.loc	4 471 13 is_stmt 0              @ ../../../components/network/thread/subg_openthread/third_party/mbedtls/repo/library/bignum.c:471:13
	cbnz	r0, .LBB12_25
.Ltmp214:
@ %bb.17:                               @   in Loop: Header=BB12_15 Depth=1
	@DEBUG_VALUE: mbedtls_mpi_read_string:X <- $r8
	@DEBUG_VALUE: mbedtls_mpi_read_string:radix <- $r7
	@DEBUG_VALUE: mbedtls_mpi_read_string:ret <- $r0
	@DEBUG_VALUE: mbedtls_mpi_read_string:d <- [DW_OP_plus_uconst 16, DW_OP_deref] $sp
	.loc	4 472 13 is_stmt 1              @ ../../../components/network/thread/subg_openthread/third_party/mbedtls/repo/library/bignum.c:472:13
	ldr	r0, [sp, #16]
.Ltmp215:
	@DEBUG_VALUE: mbedtls_mpi_add_int:A <- [DW_OP_plus_uconst 4, DW_OP_stack_value] $sp
	@DEBUG_VALUE: mbedtls_mpi_add_int:X <- $r8
	@DEBUG_VALUE: mbedtls_mpi_add_int:b <- $r0
	@DEBUG_VALUE: mbedtls_mpi_read_string:d <- $r0
	.loc	4 1340 12                       @ ../../../components/network/thread/subg_openthread/third_party/mbedtls/repo/library/bignum.c:1340:12
	cmp	r0, #0
	mov	r1, r0
	bpl	.LBB12_19
.Ltmp216:
@ %bb.18:                               @   in Loop: Header=BB12_15 Depth=1
	@DEBUG_VALUE: mbedtls_mpi_add_int:X <- $r8
	@DEBUG_VALUE: mbedtls_mpi_read_string:X <- $r8
	@DEBUG_VALUE: mbedtls_mpi_read_string:radix <- $r7
	@DEBUG_VALUE: mbedtls_mpi_read_string:d <- $r0
	@DEBUG_VALUE: mbedtls_mpi_add_int:b <- $r0
	@DEBUG_VALUE: mbedtls_mpi_add_int:A <- [DW_OP_plus_uconst 4, DW_OP_stack_value] $sp
	rsbs	r1, r0, #0
.Ltmp217:
.LBB12_19:                              @   in Loop: Header=BB12_15 Depth=1
	@DEBUG_VALUE: mbedtls_mpi_add_int:X <- $r8
	@DEBUG_VALUE: mbedtls_mpi_read_string:X <- $r8
	@DEBUG_VALUE: mbedtls_mpi_read_string:radix <- $r7
	@DEBUG_VALUE: mbedtls_mpi_read_string:d <- $r0
	@DEBUG_VALUE: mbedtls_mpi_add_int:b <- $r0
	@DEBUG_VALUE: mbedtls_mpi_add_int:A <- [DW_OP_plus_uconst 4, DW_OP_stack_value] $sp
	.loc	4 1341 11                       @ ../../../components/network/thread/subg_openthread/third_party/mbedtls/repo/library/bignum.c:1341:11
	cmp	r0, #0
	mov.w	r0, #1
.Ltmp218:
	.loc	4 1340 10                       @ ../../../components/network/thread/subg_openthread/third_party/mbedtls/repo/library/bignum.c:1340:10
	str	r1, [sp, #20]
	.loc	4 1341 11                       @ ../../../components/network/thread/subg_openthread/third_party/mbedtls/repo/library/bignum.c:1341:11
	it	mi
	movmi.w	r0, #-1
	.loc	4 1341 9 is_stmt 0              @ ../../../components/network/thread/subg_openthread/third_party/mbedtls/repo/library/bignum.c:1341:9
	str	r0, [sp, #24]
	.loc	4 1342 9 is_stmt 1              @ ../../../components/network/thread/subg_openthread/third_party/mbedtls/repo/library/bignum.c:1342:9
	movs	r0, #1
	str	r0, [sp, #28]
	.loc	4 1343 9                        @ ../../../components/network/thread/subg_openthread/third_party/mbedtls/repo/library/bignum.c:1343:9
	add	r0, sp, #20
	str	r0, [sp, #32]
	.loc	4 1345 13                       @ ../../../components/network/thread/subg_openthread/third_party/mbedtls/repo/library/bignum.c:1345:13
	mov	r0, r8
	mov	r1, r10
	add	r2, sp, #24
	bl	mbedtls_mpi_add_mpi
.Ltmp219:
	@DEBUG_VALUE: mbedtls_mpi_read_string:i <- [DW_OP_plus_uconst 1, DW_OP_stack_value] undef
	@DEBUG_VALUE: mbedtls_mpi_read_string:ret <- $r0
	.loc	4 472 13                        @ ../../../components/network/thread/subg_openthread/third_party/mbedtls/repo/library/bignum.c:472:13
	cbnz	r0, .LBB12_25
.Ltmp220:
@ %bb.20:                               @   in Loop: Header=BB12_15 Depth=1
	@DEBUG_VALUE: mbedtls_mpi_read_string:X <- $r8
	@DEBUG_VALUE: mbedtls_mpi_read_string:radix <- $r7
	@DEBUG_VALUE: mbedtls_mpi_read_string:ret <- $r0
	@DEBUG_VALUE: mbedtls_mpi_read_string:ret <- 0
	@DEBUG_VALUE: mbedtls_mpi_read_string:i <- [DW_OP_plus_uconst 1, DW_OP_stack_value] undef
	.loc	4 468 23                        @ ../../../components/network/thread/subg_openthread/third_party/mbedtls/repo/library/bignum.c:468:23
	subs	r5, #1
	add.w	r6, r6, #1
.Ltmp221:
	.loc	4 468 9 is_stmt 0               @ ../../../components/network/thread/subg_openthread/third_party/mbedtls/repo/library/bignum.c:468:9
	bne	.LBB12_15
.Ltmp222:
.LBB12_21:
	@DEBUG_VALUE: mbedtls_mpi_read_string:X <- $r8
	@DEBUG_VALUE: mbedtls_mpi_read_string:ret <- 0
	@DEBUG_VALUE: mbedtls_mpi_read_string:ret <- 0
	.loc	4 476 18 is_stmt 1              @ ../../../components/network/thread/subg_openthread/third_party/mbedtls/repo/library/bignum.c:476:18
	cmp.w	r11, #45
	bne	.LBB12_24
.Ltmp223:
@ %bb.22:
	@DEBUG_VALUE: mbedtls_mpi_read_string:X <- $r8
	@DEBUG_VALUE: mbedtls_mpi_read_string:ret <- 0
	.loc	4 476 21 is_stmt 0              @ ../../../components/network/thread/subg_openthread/third_party/mbedtls/repo/library/bignum.c:476:21
	mov	r0, r8
	bl	mbedtls_mpi_bitlen
.Ltmp224:
	.loc	4 476 9                         @ ../../../components/network/thread/subg_openthread/third_party/mbedtls/repo/library/bignum.c:476:9
	cbz	r0, .LBB12_24
.Ltmp225:
@ %bb.23:
	@DEBUG_VALUE: mbedtls_mpi_read_string:X <- $r8
	@DEBUG_VALUE: mbedtls_mpi_read_string:ret <- 0
	.loc	4 0 9                           @ ../../../components/network/thread/subg_openthread/third_party/mbedtls/repo/library/bignum.c:0:9
	mov.w	r0, #-1
.Ltmp226:
	.loc	4 477 14 is_stmt 1              @ ../../../components/network/thread/subg_openthread/third_party/mbedtls/repo/library/bignum.c:477:14
	str.w	r0, [r8]
.Ltmp227:
.LBB12_24:
	@DEBUG_VALUE: mbedtls_mpi_read_string:X <- $r8
	@DEBUG_VALUE: mbedtls_mpi_read_string:ret <- 0
	.loc	4 0 14 is_stmt 0                @ ../../../components/network/thread/subg_openthread/third_party/mbedtls/repo/library/bignum.c:0:14
	movs	r4, #0
	b	.LBB12_26
.Ltmp228:
.LBB12_25:
	@DEBUG_VALUE: mbedtls_mpi_read_string:X <- $r8
	@DEBUG_VALUE: mbedtls_mpi_read_string:ret <- $r0
	mov	r4, r0
.Ltmp229:
	@DEBUG_VALUE: mbedtls_mpi_read_string:ret <- $r4
	@DEBUG_VALUE: mbedtls_mpi_read_string:ret <- $r4
	@DEBUG_VALUE: mbedtls_mpi_read_string:ret <- $r4
.LBB12_26:
	@DEBUG_VALUE: mbedtls_mpi_read_string:X <- $r8
	@DEBUG_VALUE: mbedtls_mpi_read_string:ret <- $r4
	@DEBUG_LABEL: mbedtls_mpi_read_string:cleanup
	add	r0, sp, #4
	.loc	4 481 5 is_stmt 1               @ ../../../components/network/thread/subg_openthread/third_party/mbedtls/repo/library/bignum.c:481:5
	bl	mbedtls_mpi_free
.Ltmp230:
.LBB12_27:
	.loc	4 484 1                         @ ../../../components/network/thread/subg_openthread/third_party/mbedtls/repo/library/bignum.c:484:1
	mov	r0, r4
	add	sp, #36
	pop.w	{r4, r5, r6, r7, r8, r9, r10, r11, pc}
.Ltmp231:
.Lfunc_end12:
	.size	mbedtls_mpi_read_string, .Lfunc_end12-mbedtls_mpi_read_string
	.cfi_endproc
	.cantunwind
	.fnend
                                        @ -- End function
	.section	.text.mpi_get_digit,"ax",%progbits
	.p2align	1                               @ -- Begin function mpi_get_digit
	.type	mpi_get_digit,%function
	.code	16                              @ @mpi_get_digit
	.thumb_func
mpi_get_digit:
.Lfunc_begin13:
	.loc	4 403 0                         @ ../../../components/network/thread/subg_openthread/third_party/mbedtls/repo/library/bignum.c:403:0
	.fnstart
	.cfi_startproc
@ %bb.0:
	@DEBUG_VALUE: mpi_get_digit:d <- $r0
	@DEBUG_VALUE: mpi_get_digit:radix <- $r1
	@DEBUG_VALUE: mpi_get_digit:c <- $r2
	.save	{r7, lr}
	push	{r7, lr}
	.cfi_def_cfa_offset 8
	.cfi_offset lr, -4
	.cfi_offset r7, -8
.Ltmp232:
	.loc	4 406 19 prologue_end           @ ../../../components/network/thread/subg_openthread/third_party/mbedtls/repo/library/bignum.c:406:19
	sub.w	r3, r2, #48
	mov	r12, r0
.Ltmp233:
	@DEBUG_VALUE: mpi_get_digit:c <- $r2
	@DEBUG_VALUE: mpi_get_digit:radix <- $r1
	@DEBUG_VALUE: mpi_get_digit:d <- $r12
	.loc	4 407 19                        @ ../../../components/network/thread/subg_openthread/third_party/mbedtls/repo/library/bignum.c:407:19
	sub.w	lr, r2, #65
.Ltmp234:
	.loc	4 410 9                         @ ../../../components/network/thread/subg_openthread/third_party/mbedtls/repo/library/bignum.c:410:9
	cmp	r3, #10
.Ltmp235:
	.loc	4 408 19                        @ ../../../components/network/thread/subg_openthread/third_party/mbedtls/repo/library/bignum.c:408:19
	sub.w	r0, r2, #97
.Ltmp236:
	.loc	4 410 9                         @ ../../../components/network/thread/subg_openthread/third_party/mbedtls/repo/library/bignum.c:410:9
	it	hs
	cmphs	r0, #6
	bhs	.LBB13_3
.Ltmp237:
.LBB13_1:
	@DEBUG_VALUE: mpi_get_digit:d <- $r12
	@DEBUG_VALUE: mpi_get_digit:c <- $r2
	@DEBUG_VALUE: mpi_get_digit:radix <- $r1
	.loc	4 407 19                        @ ../../../components/network/thread/subg_openthread/third_party/mbedtls/repo/library/bignum.c:407:19
	cmp.w	lr, #6
	it	lo
	sublo.w	r3, r2, #55
.Ltmp238:
	.loc	4 408 19                        @ ../../../components/network/thread/subg_openthread/third_party/mbedtls/repo/library/bignum.c:408:19
	cmp	r0, #6
	it	lo
	sublo.w	r3, r2, #87
.Ltmp239:
.LBB13_2:
	@DEBUG_VALUE: mpi_get_digit:d <- $r12
	@DEBUG_VALUE: mpi_get_digit:c <- $r2
	@DEBUG_VALUE: mpi_get_digit:radix <- $r1
	.loc	4 0 19 is_stmt 0                @ ../../../components/network/thread/subg_openthread/third_party/mbedtls/repo/library/bignum.c:0:19
	mvn	r0, #5
	.loc	4 410 9 is_stmt 1               @ ../../../components/network/thread/subg_openthread/third_party/mbedtls/repo/library/bignum.c:410:9
	cmp	r3, r1
	it	lo
	movlo	r0, #0
	.loc	4 0 0 is_stmt 0                 @ ../../../components/network/thread/subg_openthread/third_party/mbedtls/repo/library/bignum.c:0:0
	str.w	r3, [r12]
	.loc	4 414 1 is_stmt 1               @ ../../../components/network/thread/subg_openthread/third_party/mbedtls/repo/library/bignum.c:414:1
	pop	{r7, pc}
.Ltmp240:
.LBB13_3:
	@DEBUG_VALUE: mpi_get_digit:d <- $r12
	@DEBUG_VALUE: mpi_get_digit:c <- $r2
	@DEBUG_VALUE: mpi_get_digit:radix <- $r1
	.loc	4 410 9                         @ ../../../components/network/thread/subg_openthread/third_party/mbedtls/repo/library/bignum.c:410:9
	cmp.w	lr, #5
	bls	.LBB13_1
.Ltmp241:
@ %bb.4:
	@DEBUG_VALUE: mpi_get_digit:d <- $r12
	@DEBUG_VALUE: mpi_get_digit:c <- $r2
	@DEBUG_VALUE: mpi_get_digit:radix <- $r1
	.loc	4 0 9 is_stmt 0                 @ ../../../components/network/thread/subg_openthread/third_party/mbedtls/repo/library/bignum.c:0:9
	movs	r3, #255
	b	.LBB13_2
.Lfunc_end13:
	.size	mpi_get_digit, .Lfunc_end13-mpi_get_digit
	.cfi_endproc
	.cantunwind
	.fnend
                                        @ -- End function
	.section	.text.mbedtls_mpi_mul_int,"ax",%progbits
	.hidden	mbedtls_mpi_mul_int             @ -- Begin function mbedtls_mpi_mul_int
	.globl	mbedtls_mpi_mul_int
	.p2align	1
	.type	mbedtls_mpi_mul_int,%function
	.code	16                              @ @mbedtls_mpi_mul_int
	.thumb_func
mbedtls_mpi_mul_int:
.Lfunc_begin14:
	.loc	4 1510 0 is_stmt 1              @ ../../../components/network/thread/subg_openthread/third_party/mbedtls/repo/library/bignum.c:1510:0
	.fnstart
	.cfi_startproc
@ %bb.0:
	@DEBUG_VALUE: mbedtls_mpi_mul_int:X <- $r0
	@DEBUG_VALUE: mbedtls_mpi_mul_int:A <- $r1
	@DEBUG_VALUE: mbedtls_mpi_mul_int:b <- $r2
	.save	{r4, r5, r6, r7, lr}
	push	{r4, r5, r6, r7, lr}
	.cfi_def_cfa_offset 20
	.cfi_offset lr, -4
	.cfi_offset r7, -8
	.cfi_offset r6, -12
	.cfi_offset r5, -16
	.cfi_offset r4, -20
	.pad	#4
	sub	sp, #4
	.cfi_def_cfa_offset 24
	mov	r6, r1
.Ltmp242:
	@DEBUG_VALUE: mbedtls_mpi_mul_int:b <- $r5
	@DEBUG_VALUE: mbedtls_mpi_mul_int:A <- $r6
	.loc	4 1515 19 prologue_end          @ ../../../components/network/thread/subg_openthread/third_party/mbedtls/repo/library/bignum.c:1515:19
	ldr	r1, [r1, #4]
.Ltmp243:
	@DEBUG_VALUE: mbedtls_mpi_mul_int:n <- $r1
	.loc	4 0 19 is_stmt 0                @ ../../../components/network/thread/subg_openthread/third_party/mbedtls/repo/library/bignum.c:0:19
	mov	r5, r2
.Ltmp244:
	mov	r4, r0
.Ltmp245:
	@DEBUG_VALUE: mbedtls_mpi_mul_int:X <- $r4
	@DEBUG_VALUE: mbedtls_mpi_mul_int:X <- $r4
	.loc	4 1516 5 is_stmt 1              @ ../../../components/network/thread/subg_openthread/third_party/mbedtls/repo/library/bignum.c:1516:5
	subs	r7, r1, #1
.Ltmp246:
	.p2align	2
.LBB14_1:                               @ =>This Inner Loop Header: Depth=1
	@DEBUG_VALUE: mbedtls_mpi_mul_int:A <- $r6
	@DEBUG_VALUE: mbedtls_mpi_mul_int:X <- $r4
	@DEBUG_VALUE: mbedtls_mpi_mul_int:n <- [DW_OP_plus_uconst 1, DW_OP_stack_value] $r7
	.loc	4 1516 18 is_stmt 0             @ ../../../components/network/thread/subg_openthread/third_party/mbedtls/repo/library/bignum.c:1516:18
	adds	r0, r7, #1
	beq	.LBB14_7
.Ltmp247:
@ %bb.2:                                @   in Loop: Header=BB14_1 Depth=1
	@DEBUG_VALUE: mbedtls_mpi_mul_int:n <- [DW_OP_plus_uconst 1, DW_OP_stack_value] $r7
	@DEBUG_VALUE: mbedtls_mpi_mul_int:A <- $r6
	@DEBUG_VALUE: mbedtls_mpi_mul_int:X <- $r4
	.loc	4 1516 24                       @ ../../../components/network/thread/subg_openthread/third_party/mbedtls/repo/library/bignum.c:1516:24
	ldr	r0, [r6, #8]
	.loc	4 1516 21                       @ ../../../components/network/thread/subg_openthread/third_party/mbedtls/repo/library/bignum.c:1516:21
	ldr.w	r0, [r0, r7, lsl #2]
	.loc	4 1516 5                        @ ../../../components/network/thread/subg_openthread/third_party/mbedtls/repo/library/bignum.c:1516:5
	subs	r7, #1
.Ltmp248:
	cmp	r0, #0
	beq	.LBB14_1
.Ltmp249:
@ %bb.3:
	@DEBUG_VALUE: mbedtls_mpi_mul_int:A <- $r6
	@DEBUG_VALUE: mbedtls_mpi_mul_int:X <- $r4
	.loc	4 1521 16 is_stmt 1             @ ../../../components/network/thread/subg_openthread/third_party/mbedtls/repo/library/bignum.c:1521:16
	cbz	r5, .LBB14_7
.Ltmp250:
@ %bb.4:
	@DEBUG_VALUE: mbedtls_mpi_mul_int:A <- $r6
	@DEBUG_VALUE: mbedtls_mpi_mul_int:X <- $r4
	@DEBUG_VALUE: mbedtls_mpi_mul_int:ret <- -110
	.loc	4 1536 5                        @ ../../../components/network/thread/subg_openthread/third_party/mbedtls/repo/library/bignum.c:1536:5
	adds	r1, r7, #3
	mov	r0, r4
	bl	mbedtls_mpi_grow
.Ltmp251:
	@DEBUG_VALUE: mbedtls_mpi_mul_int:ret <- $r0
	.loc	4 1536 5 is_stmt 0              @ ../../../components/network/thread/subg_openthread/third_party/mbedtls/repo/library/bignum.c:1536:5
	cbnz	r0, .LBB14_9
.Ltmp252:
@ %bb.5:
	@DEBUG_VALUE: mbedtls_mpi_mul_int:A <- $r6
	@DEBUG_VALUE: mbedtls_mpi_mul_int:X <- $r4
	@DEBUG_VALUE: mbedtls_mpi_mul_int:ret <- $r0
	.loc	4 1537 5 is_stmt 1              @ ../../../components/network/thread/subg_openthread/third_party/mbedtls/repo/library/bignum.c:1537:5
	mov	r0, r4
.Ltmp253:
	mov	r1, r6
	bl	mbedtls_mpi_copy
.Ltmp254:
	@DEBUG_VALUE: mbedtls_mpi_mul_int:ret <- $r0
	.loc	4 1537 5 is_stmt 0              @ ../../../components/network/thread/subg_openthread/third_party/mbedtls/repo/library/bignum.c:1537:5
	cbnz	r0, .LBB14_9
.Ltmp255:
@ %bb.6:
	@DEBUG_VALUE: mbedtls_mpi_mul_int:A <- $r6
	@DEBUG_VALUE: mbedtls_mpi_mul_int:X <- $r4
	@DEBUG_VALUE: mbedtls_mpi_mul_int:ret <- $r0
	.loc	4 1538 24 is_stmt 1             @ ../../../components/network/thread/subg_openthread/third_party/mbedtls/repo/library/bignum.c:1538:24
	ldr	r1, [r6, #8]
	.loc	4 1538 30 is_stmt 0             @ ../../../components/network/thread/subg_openthread/third_party/mbedtls/repo/library/bignum.c:1538:30
	ldr	r2, [r4, #8]
	.loc	4 0 0                           @ ../../../components/network/thread/subg_openthread/third_party/mbedtls/repo/library/bignum.c:0:0
	adds	r0, r7, #2
.Ltmp256:
	.loc	4 1538 35                       @ ../../../components/network/thread/subg_openthread/third_party/mbedtls/repo/library/bignum.c:1538:35
	subs	r3, r5, #1
	.loc	4 1538 5                        @ ../../../components/network/thread/subg_openthread/third_party/mbedtls/repo/library/bignum.c:1538:5
	bl	mpi_mul_hlp
.Ltmp257:
	.loc	4 0 5                           @ ../../../components/network/thread/subg_openthread/third_party/mbedtls/repo/library/bignum.c:0:5
	movs	r0, #0
	b	.LBB14_9
.Ltmp258:
.LBB14_7:
	@DEBUG_VALUE: mbedtls_mpi_mul_int:A <- $r6
	@DEBUG_VALUE: mbedtls_mpi_mul_int:X <- $r4
	@DEBUG_VALUE: mbedtls_mpi_lset:X <- $r4
	@DEBUG_VALUE: mbedtls_mpi_lset:z <- 0
	@DEBUG_VALUE: mbedtls_mpi_lset:ret <- -110
	.loc	4 281 5 is_stmt 1               @ ../../../components/network/thread/subg_openthread/third_party/mbedtls/repo/library/bignum.c:281:5
	mov	r0, r4
	movs	r1, #1
	movs	r5, #1
	bl	mbedtls_mpi_grow
.Ltmp259:
	@DEBUG_VALUE: mbedtls_mpi_lset:ret <- $r0
	.loc	4 281 5 is_stmt 0               @ ../../../components/network/thread/subg_openthread/third_party/mbedtls/repo/library/bignum.c:281:5
	cbnz	r0, .LBB14_9
.Ltmp260:
@ %bb.8:
	@DEBUG_VALUE: mbedtls_mpi_mul_int:A <- $r6
	@DEBUG_VALUE: mbedtls_mpi_lset:X <- $r4
	@DEBUG_VALUE: mbedtls_mpi_mul_int:X <- $r4
	@DEBUG_VALUE: mbedtls_mpi_lset:ret <- $r0
	@DEBUG_VALUE: mbedtls_mpi_lset:z <- 0
	.loc	4 282 25 is_stmt 1              @ ../../../components/network/thread/subg_openthread/third_party/mbedtls/repo/library/bignum.c:282:25
	ldrd	r1, r0, [r4, #4]
.Ltmp261:
	.loc	4 282 27 is_stmt 0              @ ../../../components/network/thread/subg_openthread/third_party/mbedtls/repo/library/bignum.c:282:27
	lsls	r1, r1, #2
	.loc	4 282 5                         @ ../../../components/network/thread/subg_openthread/third_party/mbedtls/repo/library/bignum.c:282:5
	bl	__aeabi_memclr4
.Ltmp262:
	.loc	4 284 8 is_stmt 1               @ ../../../components/network/thread/subg_openthread/third_party/mbedtls/repo/library/bignum.c:284:8
	ldr	r1, [r4, #8]
	movs	r0, #0
	.loc	4 284 13 is_stmt 0              @ ../../../components/network/thread/subg_openthread/third_party/mbedtls/repo/library/bignum.c:284:13
	str	r0, [r1]
	.loc	4 285 13 is_stmt 1              @ ../../../components/network/thread/subg_openthread/third_party/mbedtls/repo/library/bignum.c:285:13
	str	r5, [r4]
.Ltmp263:
.LBB14_9:
	@DEBUG_VALUE: mbedtls_mpi_mul_int:A <- $r6
	@DEBUG_VALUE: mbedtls_mpi_mul_int:X <- $r4
	.loc	4 1542 1                        @ ../../../components/network/thread/subg_openthread/third_party/mbedtls/repo/library/bignum.c:1542:1
	add	sp, #4
	pop	{r4, r5, r6, r7, pc}
.Ltmp264:
.Lfunc_end14:
	.size	mbedtls_mpi_mul_int, .Lfunc_end14-mbedtls_mpi_mul_int
	.cfi_endproc
	.cantunwind
	.fnend
                                        @ -- End function
	.section	.text.mbedtls_mpi_add_int,"ax",%progbits
	.hidden	mbedtls_mpi_add_int             @ -- Begin function mbedtls_mpi_add_int
	.globl	mbedtls_mpi_add_int
	.p2align	1
	.type	mbedtls_mpi_add_int,%function
	.code	16                              @ @mbedtls_mpi_add_int
	.thumb_func
mbedtls_mpi_add_int:
.Lfunc_begin15:
	.loc	4 1334 0                        @ ../../../components/network/thread/subg_openthread/third_party/mbedtls/repo/library/bignum.c:1334:0
	.fnstart
	.cfi_startproc
@ %bb.0:
	@DEBUG_VALUE: mbedtls_mpi_add_int:X <- $r0
	@DEBUG_VALUE: mbedtls_mpi_add_int:X <- $r0
	@DEBUG_VALUE: mbedtls_mpi_add_int:A <- $r1
	@DEBUG_VALUE: mbedtls_mpi_add_int:A <- $r1
	@DEBUG_VALUE: mbedtls_mpi_add_int:b <- $r2
	@DEBUG_VALUE: mbedtls_mpi_add_int:b <- $r2
	.loc	4 1340 12 prologue_end          @ ../../../components/network/thread/subg_openthread/third_party/mbedtls/repo/library/bignum.c:1340:12
	cmp	r2, #0
	mov	r3, r2
	bpl	.LBB15_2
.Ltmp265:
@ %bb.1:
	@DEBUG_VALUE: mbedtls_mpi_add_int:b <- $r2
	@DEBUG_VALUE: mbedtls_mpi_add_int:A <- $r1
	@DEBUG_VALUE: mbedtls_mpi_add_int:X <- $r0
	rsbs	r3, r2, #0
.Ltmp266:
.LBB15_2:
	@DEBUG_VALUE: mbedtls_mpi_add_int:b <- $r2
	@DEBUG_VALUE: mbedtls_mpi_add_int:A <- $r1
	@DEBUG_VALUE: mbedtls_mpi_add_int:X <- $r0
	.save	{r7, lr}
	push	{r7, lr}
	.cfi_def_cfa_offset 8
	.cfi_offset lr, -4
	.cfi_offset r7, -8
	.pad	#16
	sub	sp, #16
	.cfi_def_cfa_offset 24
	.loc	4 1341 11                       @ ../../../components/network/thread/subg_openthread/third_party/mbedtls/repo/library/bignum.c:1341:11
	cmp	r2, #0
	mov.w	r2, #1
.Ltmp267:
	@DEBUG_VALUE: mbedtls_mpi_add_int:b <- [DW_OP_LLVM_entry_value 1] $r2
	.loc	4 1340 10                       @ ../../../components/network/thread/subg_openthread/third_party/mbedtls/repo/library/bignum.c:1340:10
	str	r3, [sp]
	mov.w	r3, #1
	.loc	4 1341 11                       @ ../../../components/network/thread/subg_openthread/third_party/mbedtls/repo/library/bignum.c:1341:11
	it	mi
	movmi.w	r2, #-1
	.loc	4 1341 9 is_stmt 0              @ ../../../components/network/thread/subg_openthread/third_party/mbedtls/repo/library/bignum.c:1341:9
	strd	r2, r3, [sp, #4]
	mov	r2, sp
	.loc	4 1343 9 is_stmt 1              @ ../../../components/network/thread/subg_openthread/third_party/mbedtls/repo/library/bignum.c:1343:9
	str	r2, [sp, #12]
	add	r2, sp, #4
	@DEBUG_VALUE: mbedtls_mpi_add_int:A <- $r1
	@DEBUG_VALUE: mbedtls_mpi_add_int:X <- $r0
	.loc	4 1345 13                       @ ../../../components/network/thread/subg_openthread/third_party/mbedtls/repo/library/bignum.c:1345:13
	bl	mbedtls_mpi_add_mpi
.Ltmp268:
	@DEBUG_VALUE: mbedtls_mpi_add_int:A <- [DW_OP_LLVM_entry_value 1] $r1
	@DEBUG_VALUE: mbedtls_mpi_add_int:X <- [DW_OP_LLVM_entry_value 1] $r0
	.loc	4 1345 5 is_stmt 0              @ ../../../components/network/thread/subg_openthread/third_party/mbedtls/repo/library/bignum.c:1345:5
	add	sp, #16
	pop	{r7, pc}
.Ltmp269:
.Lfunc_end15:
	.size	mbedtls_mpi_add_int, .Lfunc_end15-mbedtls_mpi_add_int
	.cfi_endproc
	.cantunwind
	.fnend
                                        @ -- End function
	.section	.text.mbedtls_mpi_write_string,"ax",%progbits
	.hidden	mbedtls_mpi_write_string        @ -- Begin function mbedtls_mpi_write_string
	.globl	mbedtls_mpi_write_string
	.p2align	1
	.type	mbedtls_mpi_write_string,%function
	.code	16                              @ @mbedtls_mpi_write_string
	.thumb_func
mbedtls_mpi_write_string:
.Lfunc_begin16:
	.loc	4 530 0 is_stmt 1               @ ../../../components/network/thread/subg_openthread/third_party/mbedtls/repo/library/bignum.c:530:0
	.fnstart
	.cfi_startproc
@ %bb.0:
	@DEBUG_VALUE: mbedtls_mpi_write_string:X <- $r0
	@DEBUG_VALUE: mbedtls_mpi_write_string:radix <- $r1
	@DEBUG_VALUE: mbedtls_mpi_write_string:buf <- $r2
	@DEBUG_VALUE: mbedtls_mpi_write_string:buflen <- $r3
	.save	{r4, r5, r6, r7, r8, r9, r10, r11, lr}
	push.w	{r4, r5, r6, r7, r8, r9, r10, r11, lr}
	.cfi_def_cfa_offset 36
	.cfi_offset lr, -4
	.cfi_offset r11, -8
	.cfi_offset r10, -12
	.cfi_offset r9, -16
	.cfi_offset r8, -20
	.cfi_offset r7, -24
	.cfi_offset r6, -28
	.cfi_offset r5, -32
	.cfi_offset r4, -36
	.pad	#36
	sub	sp, #36
	.cfi_def_cfa_offset 72
	mov	r6, r1
.Ltmp270:
	@DEBUG_VALUE: mbedtls_mpi_write_string:olen <- [DW_OP_plus_uconst 72] [$sp+0]
	@DEBUG_VALUE: mbedtls_mpi_write_string:buflen <- $r3
	@DEBUG_VALUE: mbedtls_mpi_write_string:buf <- $r2
	@DEBUG_VALUE: mbedtls_mpi_write_string:radix <- $r6
	.loc	4 539 19 prologue_end           @ ../../../components/network/thread/subg_openthread/third_party/mbedtls/repo/library/bignum.c:539:19
	subs	r1, #2
	cmp	r1, #14
.Ltmp271:
	@DEBUG_VALUE: mbedtls_mpi_write_string:ret <- 0
	@DEBUG_VALUE: mbedtls_mpi_write_string:X <- $r0
	bls	.LBB16_2
.Ltmp272:
@ %bb.1:
	@DEBUG_VALUE: mbedtls_mpi_write_string:radix <- $r6
	@DEBUG_VALUE: mbedtls_mpi_write_string:buflen <- $r3
	@DEBUG_VALUE: mbedtls_mpi_write_string:buf <- $r2
	@DEBUG_VALUE: mbedtls_mpi_write_string:X <- $r0
	@DEBUG_VALUE: mbedtls_mpi_write_string:olen <- [DW_OP_plus_uconst 72] [$sp+0]
	@DEBUG_VALUE: mbedtls_mpi_write_string:ret <- 0
	.loc	4 0 19 is_stmt 0                @ ../../../components/network/thread/subg_openthread/third_party/mbedtls/repo/library/bignum.c:0:19
	mvn	r7, #3
	b	.LBB16_28
.Ltmp273:
.LBB16_2:
	@DEBUG_VALUE: mbedtls_mpi_write_string:radix <- $r6
	@DEBUG_VALUE: mbedtls_mpi_write_string:buflen <- $r3
	@DEBUG_VALUE: mbedtls_mpi_write_string:buf <- $r2
	@DEBUG_VALUE: mbedtls_mpi_write_string:X <- $r0
	@DEBUG_VALUE: mbedtls_mpi_write_string:olen <- [DW_OP_plus_uconst 72] [$sp+0]
	@DEBUG_VALUE: mbedtls_mpi_write_string:ret <- 0
	ldr.w	r10, [sp, #72]
	mov	r4, r3
.Ltmp274:
	@DEBUG_VALUE: mbedtls_mpi_write_string:buflen <- $r4
	@DEBUG_VALUE: mbedtls_mpi_write_string:buflen <- $r4
	mov	r8, r2
.Ltmp275:
	@DEBUG_VALUE: mbedtls_mpi_write_string:buf <- $r8
	@DEBUG_VALUE: mbedtls_mpi_write_string:buf <- $r8
	mov	r9, r0
.Ltmp276:
	@DEBUG_VALUE: mbedtls_mpi_write_string:X <- $r9
	.loc	4 542 9 is_stmt 1               @ ../../../components/network/thread/subg_openthread/third_party/mbedtls/repo/library/bignum.c:542:9
	bl	mbedtls_mpi_bitlen
.Ltmp277:
	@DEBUG_VALUE: mbedtls_mpi_write_string:n <- $r0
	.loc	4 543 15                        @ ../../../components/network/thread/subg_openthread/third_party/mbedtls/repo/library/bignum.c:543:15
	movs	r1, #0
	cmp	r6, #3
	it	gt
	movgt	r1, #1
.Ltmp278:
	.loc	4 543 9 is_stmt 0               @ ../../../components/network/thread/subg_openthread/third_party/mbedtls/repo/library/bignum.c:543:9
	lsrs	r0, r1
.Ltmp279:
	@DEBUG_VALUE: mbedtls_mpi_write_string:n <- $r0
	.loc	4 547 15 is_stmt 1              @ ../../../components/network/thread/subg_openthread/third_party/mbedtls/repo/library/bignum.c:547:15
	movs	r1, #0
	cmp	r6, #15
	it	gt
	movgt	r1, #1
.Ltmp280:
	.loc	4 547 9 is_stmt 0               @ ../../../components/network/thread/subg_openthread/third_party/mbedtls/repo/library/bignum.c:547:9
	lsrs	r0, r1
.Ltmp281:
	@DEBUG_VALUE: mbedtls_mpi_write_string:n <- [DW_OP_plus_uconst 2, DW_OP_stack_value] $r0
	.loc	4 553 7 is_stmt 1               @ ../../../components/network/thread/subg_openthread/third_party/mbedtls/repo/library/bignum.c:553:7
	adds	r0, #3
.Ltmp282:
	@DEBUG_VALUE: mbedtls_mpi_write_string:n <- $r0
	.loc	4 554 14                        @ ../../../components/network/thread/subg_openthread/third_party/mbedtls/repo/library/bignum.c:554:14
	and	r1, r0, #1
	.loc	4 554 7 is_stmt 0               @ ../../../components/network/thread/subg_openthread/third_party/mbedtls/repo/library/bignum.c:554:7
	add	r1, r0
.Ltmp283:
	@DEBUG_VALUE: mbedtls_mpi_write_string:n <- $r1
	.loc	4 557 9 is_stmt 1               @ ../../../components/network/thread/subg_openthread/third_party/mbedtls/repo/library/bignum.c:557:9
	cmp	r1, r4
	mov.w	r0, #0
	bls	.LBB16_4
.Ltmp284:
@ %bb.3:
	@DEBUG_VALUE: mbedtls_mpi_write_string:X <- $r9
	@DEBUG_VALUE: mbedtls_mpi_write_string:buf <- $r8
	@DEBUG_VALUE: mbedtls_mpi_write_string:radix <- $r6
	@DEBUG_VALUE: mbedtls_mpi_write_string:buflen <- $r4
	@DEBUG_VALUE: mbedtls_mpi_write_string:n <- $r1
	@DEBUG_VALUE: mbedtls_mpi_write_string:olen <- [DW_OP_plus_uconst 72] [$sp+0]
	@DEBUG_VALUE: mbedtls_mpi_write_string:ret <- 0
	.loc	4 559 15                        @ ../../../components/network/thread/subg_openthread/third_party/mbedtls/repo/library/bignum.c:559:15
	str.w	r1, [r10]
	mvn	r7, #7
	b	.LBB16_28
.Ltmp285:
.LBB16_4:
	@DEBUG_VALUE: mbedtls_mpi_write_string:X <- $r9
	@DEBUG_VALUE: mbedtls_mpi_write_string:buf <- $r8
	@DEBUG_VALUE: mbedtls_mpi_write_string:radix <- $r6
	@DEBUG_VALUE: mbedtls_mpi_write_string:buflen <- $r4
	@DEBUG_VALUE: mbedtls_mpi_write_string:n <- $r1
	@DEBUG_VALUE: mbedtls_mpi_write_string:olen <- [DW_OP_plus_uconst 72] [$sp+0]
	@DEBUG_VALUE: mbedtls_mpi_write_string:ret <- 0
	@DEBUG_VALUE: mbedtls_mpi_write_string:p <- $r8
	.loc	4 0 15 is_stmt 0                @ ../../../components/network/thread/subg_openthread/third_party/mbedtls/repo/library/bignum.c:0:15
	movs	r1, #1
.Ltmp286:
	@DEBUG_VALUE: mbedtls_mpi_init:X <- [DW_OP_plus_uconst 4, DW_OP_stack_value] $sp
	.loc	4 90 10 is_stmt 1               @ ../../../components/network/thread/subg_openthread/third_party/mbedtls/repo/library/bignum.c:90:10
	str	r1, [sp, #4]
.Ltmp287:
	.loc	4 566 12                        @ ../../../components/network/thread/subg_openthread/third_party/mbedtls/repo/library/bignum.c:566:12
	ldr.w	r1, [r9]
.Ltmp288:
	.loc	4 91 10                         @ ../../../components/network/thread/subg_openthread/third_party/mbedtls/repo/library/bignum.c:91:10
	str	r0, [sp, #8]
.Ltmp289:
	@DEBUG_VALUE: mbedtls_mpi_init:X <- [DW_OP_plus_uconst 4, DW_OP_stack_value] $sp
	.loc	4 566 9                         @ ../../../components/network/thread/subg_openthread/third_party/mbedtls/repo/library/bignum.c:566:9
	adds	r1, #1
.Ltmp290:
	.loc	4 92 10                         @ ../../../components/network/thread/subg_openthread/third_party/mbedtls/repo/library/bignum.c:92:10
	str	r0, [sp, #12]
.Ltmp291:
	@DEBUG_VALUE: mbedtls_mpi_init:X <- [DW_OP_plus_uconst 4, DW_OP_stack_value] $sp
	.loc	4 566 9                         @ ../../../components/network/thread/subg_openthread/third_party/mbedtls/repo/library/bignum.c:566:9
	beq	.LBB16_6
.Ltmp292:
@ %bb.5:
	@DEBUG_VALUE: mbedtls_mpi_write_string:X <- $r9
	@DEBUG_VALUE: mbedtls_mpi_write_string:p <- $r8
	@DEBUG_VALUE: mbedtls_mpi_write_string:buf <- $r8
	@DEBUG_VALUE: mbedtls_mpi_write_string:radix <- $r6
	@DEBUG_VALUE: mbedtls_mpi_write_string:buflen <- $r4
	@DEBUG_VALUE: mbedtls_mpi_init:X <- [DW_OP_plus_uconst 4, DW_OP_stack_value] $sp
	@DEBUG_VALUE: mbedtls_mpi_write_string:olen <- [DW_OP_plus_uconst 72] [$sp+0]
	@DEBUG_VALUE: mbedtls_mpi_write_string:ret <- 0
	.loc	4 0 0 is_stmt 0                 @ ../../../components/network/thread/subg_openthread/third_party/mbedtls/repo/library/bignum.c:0:0
	mov	r5, r8
	b	.LBB16_7
.Ltmp293:
.LBB16_6:
	@DEBUG_VALUE: mbedtls_mpi_write_string:X <- $r9
	@DEBUG_VALUE: mbedtls_mpi_write_string:p <- $r8
	@DEBUG_VALUE: mbedtls_mpi_write_string:buf <- $r8
	@DEBUG_VALUE: mbedtls_mpi_write_string:radix <- $r6
	@DEBUG_VALUE: mbedtls_mpi_write_string:buflen <- $r4
	@DEBUG_VALUE: mbedtls_mpi_write_string:olen <- [DW_OP_plus_uconst 72] [$sp+0]
	@DEBUG_VALUE: mbedtls_mpi_write_string:ret <- 0
	@DEBUG_VALUE: mbedtls_mpi_write_string:p <- $r8
	movs	r0, #45
.Ltmp294:
	.loc	4 568 14 is_stmt 1              @ ../../../components/network/thread/subg_openthread/third_party/mbedtls/repo/library/bignum.c:568:14
	mov	r5, r8
	strb	r0, [r5], #1
.Ltmp295:
	@DEBUG_VALUE: mbedtls_mpi_write_string:p <- $r5
	.loc	4 569 15                        @ ../../../components/network/thread/subg_openthread/third_party/mbedtls/repo/library/bignum.c:569:15
	subs	r4, #1
.Ltmp296:
	@DEBUG_VALUE: mbedtls_mpi_write_string:buflen <- [DW_OP_LLVM_entry_value 1] $r3
	@DEBUG_VALUE: mbedtls_mpi_write_string:buflen <- $r4
.LBB16_7:
	@DEBUG_VALUE: mbedtls_mpi_write_string:X <- $r9
	@DEBUG_VALUE: mbedtls_mpi_write_string:buf <- $r8
	@DEBUG_VALUE: mbedtls_mpi_write_string:radix <- $r6
	@DEBUG_VALUE: mbedtls_mpi_write_string:buflen <- $r4
	@DEBUG_VALUE: mbedtls_mpi_write_string:olen <- [DW_OP_plus_uconst 72] [$sp+0]
	@DEBUG_VALUE: mbedtls_mpi_write_string:ret <- 0
	@DEBUG_VALUE: mbedtls_mpi_write_string:buflen <- $r4
	.loc	4 572 9                         @ ../../../components/network/thread/subg_openthread/third_party/mbedtls/repo/library/bignum.c:572:9
	cmp	r6, #16
	bne	.LBB16_18
.Ltmp297:
@ %bb.8:
	@DEBUG_VALUE: mbedtls_mpi_write_string:X <- $r9
	@DEBUG_VALUE: mbedtls_mpi_write_string:buf <- $r8
	@DEBUG_VALUE: mbedtls_mpi_write_string:radix <- $r6
	@DEBUG_VALUE: mbedtls_mpi_write_string:buflen <- $r4
	@DEBUG_VALUE: mbedtls_mpi_write_string:olen <- [DW_OP_plus_uconst 72] [$sp+0]
	@DEBUG_VALUE: mbedtls_mpi_write_string:ret <- 0
	.loc	4 577 21                        @ ../../../components/network/thread/subg_openthread/third_party/mbedtls/repo/library/bignum.c:577:21
	ldr.w	r0, [r9, #4]
.Ltmp298:
	@DEBUG_VALUE: k <- 0
	@DEBUG_VALUE: i <- $r0
	.loc	4 577 9 is_stmt 0               @ ../../../components/network/thread/subg_openthread/third_party/mbedtls/repo/library/bignum.c:577:9
	cbz	r0, .LBB16_17
.Ltmp299:
@ %bb.9:
	@DEBUG_VALUE: mbedtls_mpi_write_string:X <- $r9
	@DEBUG_VALUE: mbedtls_mpi_write_string:buf <- $r8
	@DEBUG_VALUE: mbedtls_mpi_write_string:radix <- $r6
	@DEBUG_VALUE: mbedtls_mpi_write_string:buflen <- $r4
	@DEBUG_VALUE: i <- $r0
	@DEBUG_VALUE: mbedtls_mpi_write_string:olen <- [DW_OP_plus_uconst 72] [$sp+0]
	@DEBUG_VALUE: k <- 0
	@DEBUG_VALUE: mbedtls_mpi_write_string:ret <- 0
	.loc	4 0 9                           @ ../../../components/network/thread/subg_openthread/third_party/mbedtls/repo/library/bignum.c:0:9
	movw	r12, :lower16:.L.str
	movs	r2, #0
	movt	r12, :upper16:.L.str
.Ltmp300:
	.p2align	2
.LBB16_10:                              @ =>This Loop Header: Depth=1
                                        @     Child Loop BB16_11 Depth 2
	@DEBUG_VALUE: mbedtls_mpi_write_string:X <- $r9
	@DEBUG_VALUE: mbedtls_mpi_write_string:buf <- $r8
	@DEBUG_VALUE: i <- $r0
	@DEBUG_VALUE: mbedtls_mpi_write_string:olen <- [DW_OP_plus_uconst 72] [$sp+0]
	@DEBUG_VALUE: mbedtls_mpi_write_string:ret <- 0
	@DEBUG_VALUE: i <- $r0
	@DEBUG_VALUE: k <- $r2
	@DEBUG_VALUE: j <- 4
	subs	r3, r0, #1
	movs	r6, #24
	mvn	r4, #1
.Ltmp301:
	.p2align	2
.LBB16_11:                              @   Parent Loop BB16_10 Depth=1
                                        @ =>  This Inner Loop Header: Depth=2
	@DEBUG_VALUE: mbedtls_mpi_write_string:X <- $r9
	@DEBUG_VALUE: mbedtls_mpi_write_string:buf <- $r8
	@DEBUG_VALUE: k <- $r2
	@DEBUG_VALUE: i <- $r0
	@DEBUG_VALUE: mbedtls_mpi_write_string:olen <- [DW_OP_plus_uconst 72] [$sp+0]
	@DEBUG_VALUE: mbedtls_mpi_write_string:ret <- 0
	@DEBUG_VALUE: k <- $r2
	@DEBUG_VALUE: j <- undef
	.loc	4 581 26 is_stmt 1              @ ../../../components/network/thread/subg_openthread/third_party/mbedtls/repo/library/bignum.c:581:26
	ldr.w	r1, [r9, #8]
.Ltmp302:
	.loc	4 583 28                        @ ../../../components/network/thread/subg_openthread/third_party/mbedtls/repo/library/bignum.c:583:28
	cmp	r0, r4
.Ltmp303:
	.loc	4 581 23                        @ ../../../components/network/thread/subg_openthread/third_party/mbedtls/repo/library/bignum.c:581:23
	ldr.w	r1, [r1, r3, lsl #2]
	.loc	4 581 35 is_stmt 0              @ ../../../components/network/thread/subg_openthread/third_party/mbedtls/repo/library/bignum.c:581:35
	lsr.w	r1, r1, r6
	.loc	4 581 58                        @ ../../../components/network/thread/subg_openthread/third_party/mbedtls/repo/library/bignum.c:581:58
	uxtb	r7, r1
.Ltmp304:
	@DEBUG_VALUE: c <- $r7
	.loc	4 583 28 is_stmt 1              @ ../../../components/network/thread/subg_openthread/third_party/mbedtls/repo/library/bignum.c:583:28
	beq	.LBB16_14
.Ltmp305:
@ %bb.12:                               @   in Loop: Header=BB16_11 Depth=2
	@DEBUG_VALUE: mbedtls_mpi_write_string:X <- $r9
	@DEBUG_VALUE: mbedtls_mpi_write_string:buf <- $r8
	@DEBUG_VALUE: c <- $r7
	@DEBUG_VALUE: k <- $r2
	@DEBUG_VALUE: i <- $r0
	@DEBUG_VALUE: mbedtls_mpi_write_string:olen <- [DW_OP_plus_uconst 72] [$sp+0]
	@DEBUG_VALUE: mbedtls_mpi_write_string:ret <- 0
	.loc	4 0 28 is_stmt 0                @ ../../../components/network/thread/subg_openthread/third_party/mbedtls/repo/library/bignum.c:0:28
	orrs	r2, r7
.Ltmp306:
	.loc	4 583 28                        @ ../../../components/network/thread/subg_openthread/third_party/mbedtls/repo/library/bignum.c:583:28
	bne	.LBB16_14
.Ltmp307:
@ %bb.13:                               @   in Loop: Header=BB16_11 Depth=2
	@DEBUG_VALUE: mbedtls_mpi_write_string:X <- $r9
	@DEBUG_VALUE: mbedtls_mpi_write_string:buf <- $r8
	@DEBUG_VALUE: c <- $r7
	@DEBUG_VALUE: i <- $r0
	@DEBUG_VALUE: mbedtls_mpi_write_string:olen <- [DW_OP_plus_uconst 72] [$sp+0]
	@DEBUG_VALUE: mbedtls_mpi_write_string:ret <- 0
	.loc	4 0 28                          @ ../../../components/network/thread/subg_openthread/third_party/mbedtls/repo/library/bignum.c:0:28
	movs	r2, #0
	b	.LBB16_15
.Ltmp308:
	.p2align	2
.LBB16_14:                              @   in Loop: Header=BB16_11 Depth=2
	@DEBUG_VALUE: mbedtls_mpi_write_string:X <- $r9
	@DEBUG_VALUE: mbedtls_mpi_write_string:buf <- $r8
	@DEBUG_VALUE: c <- $r7
	@DEBUG_VALUE: i <- $r0
	@DEBUG_VALUE: mbedtls_mpi_write_string:olen <- [DW_OP_plus_uconst 72] [$sp+0]
	@DEBUG_VALUE: mbedtls_mpi_write_string:ret <- 0
	.loc	4 586 48 is_stmt 1              @ ../../../components/network/thread/subg_openthread/third_party/mbedtls/repo/library/bignum.c:586:48
	lsrs	r2, r7, #4
	.loc	4 587 48                        @ ../../../components/network/thread/subg_openthread/third_party/mbedtls/repo/library/bignum.c:587:48
	and	r1, r1, #15
	.loc	4 586 26                        @ ../../../components/network/thread/subg_openthread/third_party/mbedtls/repo/library/bignum.c:586:26
	ldrb.w	r2, [r12, r2]
.Ltmp309:
	@DEBUG_VALUE: mbedtls_mpi_write_string:p <- [DW_OP_plus_uconst 1, DW_OP_stack_value] $r5
	.loc	4 587 26                        @ ../../../components/network/thread/subg_openthread/third_party/mbedtls/repo/library/bignum.c:587:26
	ldrb.w	r1, [r12, r1]
	.loc	4 586 24                        @ ../../../components/network/thread/subg_openthread/third_party/mbedtls/repo/library/bignum.c:586:24
	strb	r2, [r5]
	.loc	4 587 24                        @ ../../../components/network/thread/subg_openthread/third_party/mbedtls/repo/library/bignum.c:587:24
	strb	r1, [r5, #1]
	.loc	4 587 20 is_stmt 0              @ ../../../components/network/thread/subg_openthread/third_party/mbedtls/repo/library/bignum.c:587:20
	adds	r5, #2
.Ltmp310:
	@DEBUG_VALUE: mbedtls_mpi_write_string:p <- $r5
	.loc	4 0 20                          @ ../../../components/network/thread/subg_openthread/third_party/mbedtls/repo/library/bignum.c:0:20
	movs	r2, #1
.Ltmp311:
	@DEBUG_VALUE: k <- 1
	@DEBUG_VALUE: mbedtls_mpi_write_string:p <- $r5
.LBB16_15:                              @   in Loop: Header=BB16_11 Depth=2
	@DEBUG_VALUE: mbedtls_mpi_write_string:X <- $r9
	@DEBUG_VALUE: mbedtls_mpi_write_string:buf <- $r8
	@DEBUG_VALUE: c <- $r7
	@DEBUG_VALUE: i <- $r0
	@DEBUG_VALUE: mbedtls_mpi_write_string:olen <- [DW_OP_plus_uconst 72] [$sp+0]
	@DEBUG_VALUE: mbedtls_mpi_write_string:ret <- 0
	@DEBUG_VALUE: k <- $r2
	@DEBUG_VALUE: j <- [DW_OP_constu 1, DW_OP_minus, DW_OP_stack_value] undef
	.loc	4 579 29 is_stmt 1              @ ../../../components/network/thread/subg_openthread/third_party/mbedtls/repo/library/bignum.c:579:29
	subs	r6, #8
.Ltmp312:
	.loc	4 579 13 is_stmt 0              @ ../../../components/network/thread/subg_openthread/third_party/mbedtls/repo/library/bignum.c:579:13
	adds.w	r1, r6, #8
.Ltmp313:
	.loc	4 579 29                        @ ../../../components/network/thread/subg_openthread/third_party/mbedtls/repo/library/bignum.c:579:29
	add.w	r4, r4, #1
.Ltmp314:
	.loc	4 579 13                        @ ../../../components/network/thread/subg_openthread/third_party/mbedtls/repo/library/bignum.c:579:13
	bne	.LBB16_11
.Ltmp315:
@ %bb.16:                               @   in Loop: Header=BB16_10 Depth=1
	@DEBUG_VALUE: mbedtls_mpi_write_string:X <- $r9
	@DEBUG_VALUE: mbedtls_mpi_write_string:buf <- $r8
	@DEBUG_VALUE: c <- $r7
	@DEBUG_VALUE: k <- $r2
	@DEBUG_VALUE: i <- $r0
	@DEBUG_VALUE: mbedtls_mpi_write_string:olen <- [DW_OP_plus_uconst 72] [$sp+0]
	@DEBUG_VALUE: mbedtls_mpi_write_string:ret <- 0
	@DEBUG_VALUE: i <- $r3
	@DEBUG_VALUE: k <- $r2
	.loc	4 577 9 is_stmt 1               @ ../../../components/network/thread/subg_openthread/third_party/mbedtls/repo/library/bignum.c:577:9
	cmp	r3, #0
	mov	r0, r3
.Ltmp316:
	@DEBUG_VALUE: i <- $r0
	bne	.LBB16_10
.Ltmp317:
.LBB16_17:
	@DEBUG_VALUE: mbedtls_mpi_write_string:buf <- $r8
	@DEBUG_VALUE: mbedtls_mpi_write_string:olen <- [DW_OP_plus_uconst 72] [$sp+0]
	@DEBUG_VALUE: mbedtls_mpi_write_string:ret <- 0
	@DEBUG_VALUE: mbedtls_mpi_write_string:ret <- 0
	@DEBUG_VALUE: mbedtls_mpi_write_string:p <- undef
	.loc	4 603 15                        @ ../../../components/network/thread/subg_openthread/third_party/mbedtls/repo/library/bignum.c:603:15
	sub.w	r0, r5, r8
	movs	r7, #0
	adds	r0, #1
	.loc	4 602 10                        @ ../../../components/network/thread/subg_openthread/third_party/mbedtls/repo/library/bignum.c:602:10
	strb	r7, [r5]
	.loc	4 603 11                        @ ../../../components/network/thread/subg_openthread/third_party/mbedtls/repo/library/bignum.c:603:11
	str.w	r0, [r10]
	b	.LBB16_27
.Ltmp318:
.LBB16_18:
	@DEBUG_VALUE: mbedtls_mpi_write_string:X <- $r9
	@DEBUG_VALUE: mbedtls_mpi_write_string:buf <- $r8
	@DEBUG_VALUE: mbedtls_mpi_write_string:radix <- $r6
	@DEBUG_VALUE: mbedtls_mpi_write_string:buflen <- $r4
	@DEBUG_VALUE: mbedtls_mpi_write_string:olen <- [DW_OP_plus_uconst 72] [$sp+0]
	@DEBUG_VALUE: mbedtls_mpi_write_string:ret <- 0
	.loc	4 0 11 is_stmt 0                @ ../../../components/network/thread/subg_openthread/third_party/mbedtls/repo/library/bignum.c:0:11
	add	r0, sp, #4
.Ltmp319:
	.loc	4 594 9 is_stmt 1               @ ../../../components/network/thread/subg_openthread/third_party/mbedtls/repo/library/bignum.c:594:9
	mov	r1, r9
	bl	mbedtls_mpi_copy
.Ltmp320:
	mov	r7, r0
.Ltmp321:
	@DEBUG_VALUE: mbedtls_mpi_write_string:ret <- $r7
	.loc	4 594 9 is_stmt 0               @ ../../../components/network/thread/subg_openthread/third_party/mbedtls/repo/library/bignum.c:594:9
	cmp	r0, #0
	bne	.LBB16_27
.Ltmp322:
@ %bb.19:
	@DEBUG_VALUE: mbedtls_mpi_write_string:X <- $r9
	@DEBUG_VALUE: mbedtls_mpi_write_string:buf <- $r8
	@DEBUG_VALUE: mbedtls_mpi_write_string:ret <- $r7
	@DEBUG_VALUE: mbedtls_mpi_write_string:radix <- $r6
	@DEBUG_VALUE: mbedtls_mpi_write_string:buflen <- $r4
	@DEBUG_VALUE: mbedtls_mpi_write_string:olen <- [DW_OP_plus_uconst 72] [$sp+0]
	.loc	4 596 15 is_stmt 1              @ ../../../components/network/thread/subg_openthread/third_party/mbedtls/repo/library/bignum.c:596:15
	ldr	r0, [sp, #4]
.Ltmp323:
	.loc	4 495 22                        @ ../../../components/network/thread/subg_openthread/third_party/mbedtls/repo/library/bignum.c:495:22
	add.w	r11, r5, r4
.Ltmp324:
	@DEBUG_VALUE: mpi_write_hlp:p_end <- $r11
	.loc	4 596 13                        @ ../../../components/network/thread/subg_openthread/third_party/mbedtls/repo/library/bignum.c:596:13
	adds	r0, #1
	itt	eq
	moveq	r0, #1
.Ltmp325:
	.loc	4 597 17                        @ ../../../components/network/thread/subg_openthread/third_party/mbedtls/repo/library/bignum.c:597:17
	streq	r0, [sp, #4]
.Ltmp326:
	@DEBUG_VALUE: mpi_write_hlp:X <- [DW_OP_plus_uconst 4, DW_OP_stack_value] $sp
	@DEBUG_VALUE: mpi_write_hlp:radix <- $r6
	@DEBUG_VALUE: mpi_write_hlp:p <- undef
	@DEBUG_VALUE: mpi_write_hlp:buflen <- $r4
	@DEBUG_VALUE: mpi_write_hlp:ret <- -110
	@DEBUG_VALUE: mpi_write_hlp:length <- 0
	.loc	4 497 5                         @ ../../../components/network/thread/subg_openthread/third_party/mbedtls/repo/library/bignum.c:497:5
	rsbs	r0, r4, #0
	add	r4, sp, #4
.Ltmp327:
	.loc	4 0 5 is_stmt 0                 @ ../../../components/network/thread/subg_openthread/third_party/mbedtls/repo/library/bignum.c:0:5
	mov.w	r10, #1
	mov.w	r9, #0
.Ltmp328:
	@DEBUG_VALUE: mbedtls_mpi_write_string:X <- [DW_OP_LLVM_entry_value 1] $r0
	str	r0, [sp]                        @ 4-byte Spill
.Ltmp329:
	.p2align	2
.LBB16_20:                              @ =>This Inner Loop Header: Depth=1
	@DEBUG_VALUE: mpi_write_hlp:p_end <- $r11
	@DEBUG_VALUE: mbedtls_mpi_write_string:buf <- $r8
	@DEBUG_VALUE: mbedtls_mpi_write_string:ret <- $r7
	@DEBUG_VALUE: mpi_write_hlp:radix <- $r6
	@DEBUG_VALUE: mbedtls_mpi_write_string:radix <- $r6
	@DEBUG_VALUE: mpi_write_hlp:X <- [DW_OP_plus_uconst 4, DW_OP_stack_value] $sp
	@DEBUG_VALUE: mbedtls_mpi_write_string:olen <- [DW_OP_plus_uconst 72] [$sp+0]
	@DEBUG_VALUE: mbedtls_mpi_write_string:X <- [DW_OP_LLVM_entry_value 1] $r0
	@DEBUG_VALUE: mpi_write_hlp:length <- undef
	@DEBUG_VALUE: mpi_write_hlp:p_end <- $r11
	.loc	4 499 13 is_stmt 1              @ ../../../components/network/thread/subg_openthread/third_party/mbedtls/repo/library/bignum.c:499:13
	ldr	r0, [sp]                        @ 4-byte Reload
	cmp	r0, r9
	beq	.LBB16_26
.Ltmp330:
@ %bb.21:                               @   in Loop: Header=BB16_20 Depth=1
	@DEBUG_VALUE: mpi_write_hlp:p_end <- $r11
	@DEBUG_VALUE: mbedtls_mpi_write_string:buf <- $r8
	@DEBUG_VALUE: mbedtls_mpi_write_string:ret <- $r7
	@DEBUG_VALUE: mpi_write_hlp:radix <- $r6
	@DEBUG_VALUE: mbedtls_mpi_write_string:radix <- $r6
	@DEBUG_VALUE: mpi_write_hlp:X <- [DW_OP_plus_uconst 4, DW_OP_stack_value] $sp
	@DEBUG_VALUE: mbedtls_mpi_write_string:olen <- [DW_OP_plus_uconst 72] [$sp+0]
	@DEBUG_VALUE: mbedtls_mpi_write_string:X <- [DW_OP_LLVM_entry_value 1] $r0
	@DEBUG_VALUE: mpi_write_hlp:r <- [DW_OP_plus_uconst 16, DW_OP_deref] $sp
	.loc	4 504 9                         @ ../../../components/network/thread/subg_openthread/third_party/mbedtls/repo/library/bignum.c:504:9
	add	r0, sp, #16
	mov	r1, r4
	mov	r2, r6
	bl	mbedtls_mpi_mod_int
.Ltmp331:
	@DEBUG_VALUE: mpi_write_hlp:ret <- $r0
	.loc	4 504 9 is_stmt 0               @ ../../../components/network/thread/subg_openthread/third_party/mbedtls/repo/library/bignum.c:504:9
	cbnz	r0, .LBB16_25
.Ltmp332:
@ %bb.22:                               @   in Loop: Header=BB16_20 Depth=1
	@DEBUG_VALUE: mpi_write_hlp:p_end <- $r11
	@DEBUG_VALUE: mbedtls_mpi_write_string:buf <- $r8
	@DEBUG_VALUE: mbedtls_mpi_write_string:ret <- $r7
	@DEBUG_VALUE: mpi_write_hlp:radix <- $r6
	@DEBUG_VALUE: mbedtls_mpi_write_string:radix <- $r6
	@DEBUG_VALUE: mpi_write_hlp:ret <- $r0
	@DEBUG_VALUE: mpi_write_hlp:r <- [DW_OP_plus_uconst 16, DW_OP_deref] $sp
	@DEBUG_VALUE: mpi_write_hlp:X <- [DW_OP_plus_uconst 4, DW_OP_stack_value] $sp
	@DEBUG_VALUE: mbedtls_mpi_write_string:olen <- [DW_OP_plus_uconst 72] [$sp+0]
	@DEBUG_VALUE: mbedtls_mpi_write_string:X <- [DW_OP_LLVM_entry_value 1] $r0
	@DEBUG_VALUE: mbedtls_mpi_div_int:Q <- [DW_OP_plus_uconst 4, DW_OP_stack_value] $sp
	@DEBUG_VALUE: mbedtls_mpi_div_int:R <- 0
	@DEBUG_VALUE: mbedtls_mpi_div_int:A <- [DW_OP_plus_uconst 4, DW_OP_stack_value] $sp
	@DEBUG_VALUE: mbedtls_mpi_div_int:b <- $r6
	.loc	4 1782 9 is_stmt 1              @ ../../../components/network/thread/subg_openthread/third_party/mbedtls/repo/library/bignum.c:1782:9
	add	r0, sp, #20
.Ltmp333:
	str	r0, [sp, #32]
	.loc	4 1784 13                       @ ../../../components/network/thread/subg_openthread/third_party/mbedtls/repo/library/bignum.c:1784:13
	mov	r0, r4
	movs	r1, #0
	mov	r2, r4
	add	r3, sp, #24
	.loc	4 1779 10                       @ ../../../components/network/thread/subg_openthread/third_party/mbedtls/repo/library/bignum.c:1779:10
	strd	r6, r10, [sp, #20]
	.loc	4 1781 9                        @ ../../../components/network/thread/subg_openthread/third_party/mbedtls/repo/library/bignum.c:1781:9
	str.w	r10, [sp, #28]
	.loc	4 1784 13                       @ ../../../components/network/thread/subg_openthread/third_party/mbedtls/repo/library/bignum.c:1784:13
	bl	mbedtls_mpi_div_mpi
.Ltmp334:
	@DEBUG_VALUE: mpi_write_hlp:ret <- $r0
	.loc	4 505 9                         @ ../../../components/network/thread/subg_openthread/third_party/mbedtls/repo/library/bignum.c:505:9
	cbnz	r0, .LBB16_25
.Ltmp335:
@ %bb.23:                               @   in Loop: Header=BB16_20 Depth=1
	@DEBUG_VALUE: mpi_write_hlp:p_end <- $r11
	@DEBUG_VALUE: mbedtls_mpi_write_string:buf <- $r8
	@DEBUG_VALUE: mbedtls_mpi_write_string:ret <- $r7
	@DEBUG_VALUE: mpi_write_hlp:radix <- $r6
	@DEBUG_VALUE: mbedtls_mpi_write_string:radix <- $r6
	@DEBUG_VALUE: mpi_write_hlp:ret <- $r0
	@DEBUG_VALUE: mpi_write_hlp:r <- [DW_OP_plus_uconst 16, DW_OP_deref] $sp
	@DEBUG_VALUE: mpi_write_hlp:X <- [DW_OP_plus_uconst 4, DW_OP_stack_value] $sp
	@DEBUG_VALUE: mbedtls_mpi_write_string:olen <- [DW_OP_plus_uconst 72] [$sp+0]
	@DEBUG_VALUE: mbedtls_mpi_write_string:X <- [DW_OP_LLVM_entry_value 1] $r0
	.loc	4 509 13                        @ ../../../components/network/thread/subg_openthread/third_party/mbedtls/repo/library/bignum.c:509:13
	ldr	r0, [sp, #16]
.Ltmp336:
	@DEBUG_VALUE: mpi_write_hlp:r <- $r0
	.loc	4 1109 13                       @ ../../../components/network/thread/subg_openthread/third_party/mbedtls/repo/library/bignum.c:1109:13
	add	r1, sp, #24
.Ltmp337:
	.loc	4 509 13                        @ ../../../components/network/thread/subg_openthread/third_party/mbedtls/repo/library/bignum.c:509:13
	cmp	r0, #9
.Ltmp338:
	.loc	4 512 26                        @ ../../../components/network/thread/subg_openthread/third_party/mbedtls/repo/library/bignum.c:512:26
	ite	hi
	addhi	r0, #55
.Ltmp339:
	.loc	4 510 26                        @ ../../../components/network/thread/subg_openthread/third_party/mbedtls/repo/library/bignum.c:510:26
	addls	r0, #48
	.loc	4 0 0 is_stmt 0                 @ ../../../components/network/thread/subg_openthread/third_party/mbedtls/repo/library/bignum.c:0:0
	strb	r0, [r11, #-1]!
.Ltmp340:
	@DEBUG_VALUE: mpi_write_hlp:p_end <- $r11
	@DEBUG_VALUE: mpi_write_hlp:length <- [DW_OP_plus_uconst 1, DW_OP_stack_value] undef
	@DEBUG_VALUE: mpi_write_hlp:p_end <- $r11
	@DEBUG_VALUE: mbedtls_mpi_cmp_int:X <- [DW_OP_plus_uconst 4, DW_OP_stack_value] $sp
	@DEBUG_VALUE: mbedtls_mpi_cmp_int:z <- 0
	.loc	4 1104 9 is_stmt 1              @ ../../../components/network/thread/subg_openthread/third_party/mbedtls/repo/library/bignum.c:1104:9
	movs	r0, #0
	strd	r0, r10, [sp, #20]
	.loc	4 1107 9                        @ ../../../components/network/thread/subg_openthread/third_party/mbedtls/repo/library/bignum.c:1107:9
	add	r0, sp, #20
	str	r0, [sp, #32]
	.loc	4 1109 13                       @ ../../../components/network/thread/subg_openthread/third_party/mbedtls/repo/library/bignum.c:1109:13
	mov	r0, r4
	.loc	4 1106 9                        @ ../../../components/network/thread/subg_openthread/third_party/mbedtls/repo/library/bignum.c:1106:9
	str.w	r10, [sp, #28]
	.loc	4 1109 13                       @ ../../../components/network/thread/subg_openthread/third_party/mbedtls/repo/library/bignum.c:1109:13
	bl	mbedtls_mpi_cmp_mpi
.Ltmp341:
	.loc	4 515 5                         @ ../../../components/network/thread/subg_openthread/third_party/mbedtls/repo/library/bignum.c:515:5
	cmp	r0, #0
	sub.w	r9, r9, #1
	bne	.LBB16_20
.Ltmp342:
@ %bb.24:
	@DEBUG_VALUE: mpi_write_hlp:p_end <- $r11
	@DEBUG_VALUE: mbedtls_mpi_write_string:buf <- $r8
	@DEBUG_VALUE: mbedtls_mpi_write_string:ret <- $r7
	@DEBUG_VALUE: mpi_write_hlp:radix <- $r6
	@DEBUG_VALUE: mbedtls_mpi_write_string:radix <- $r6
	@DEBUG_VALUE: mpi_write_hlp:X <- [DW_OP_plus_uconst 4, DW_OP_stack_value] $sp
	@DEBUG_VALUE: mbedtls_mpi_write_string:olen <- [DW_OP_plus_uconst 72] [$sp+0]
	@DEBUG_VALUE: mbedtls_mpi_write_string:X <- [DW_OP_LLVM_entry_value 1] $r0
	.loc	4 517 5                         @ ../../../components/network/thread/subg_openthread/third_party/mbedtls/repo/library/bignum.c:517:5
	rsb.w	r2, r9, #0
	mov	r0, r5
	mov	r1, r11
	bl	__aeabi_memmove
.Ltmp343:
	.loc	4 0 5 is_stmt 0                 @ ../../../components/network/thread/subg_openthread/third_party/mbedtls/repo/library/bignum.c:0:5
	ldr.w	r10, [sp, #72]
	.loc	4 523 1 is_stmt 1               @ ../../../components/network/thread/subg_openthread/third_party/mbedtls/repo/library/bignum.c:523:1
	sub.w	r5, r5, r9
.Ltmp344:
	@DEBUG_VALUE: mbedtls_mpi_write_string:ret <- 0
	.loc	4 0 1 is_stmt 0                 @ ../../../components/network/thread/subg_openthread/third_party/mbedtls/repo/library/bignum.c:0:1
	b	.LBB16_17
.Ltmp345:
.LBB16_25:
	@DEBUG_VALUE: mpi_write_hlp:p_end <- $r11
	@DEBUG_VALUE: mbedtls_mpi_write_string:buf <- $r8
	@DEBUG_VALUE: mbedtls_mpi_write_string:ret <- $r7
	@DEBUG_VALUE: mpi_write_hlp:radix <- $r6
	@DEBUG_VALUE: mbedtls_mpi_write_string:radix <- $r6
	@DEBUG_VALUE: mpi_write_hlp:ret <- $r0
	@DEBUG_VALUE: mpi_write_hlp:r <- [DW_OP_plus_uconst 16, DW_OP_deref] $sp
	@DEBUG_VALUE: mpi_write_hlp:X <- [DW_OP_plus_uconst 4, DW_OP_stack_value] $sp
	@DEBUG_VALUE: mbedtls_mpi_write_string:olen <- [DW_OP_plus_uconst 72] [$sp+0]
	@DEBUG_VALUE: mbedtls_mpi_write_string:X <- [DW_OP_LLVM_entry_value 1] $r0
	mov	r7, r0
.Ltmp346:
	@DEBUG_VALUE: mpi_write_hlp:ret <- $r7
	@DEBUG_VALUE: mpi_write_hlp:ret <- $r7
	b	.LBB16_27
.Ltmp347:
.LBB16_26:
	@DEBUG_VALUE: mpi_write_hlp:p_end <- $r11
	@DEBUG_VALUE: mbedtls_mpi_write_string:buf <- $r8
	@DEBUG_VALUE: mbedtls_mpi_write_string:ret <- $r7
	@DEBUG_VALUE: mpi_write_hlp:radix <- $r6
	@DEBUG_VALUE: mbedtls_mpi_write_string:radix <- $r6
	@DEBUG_VALUE: mpi_write_hlp:X <- [DW_OP_plus_uconst 4, DW_OP_stack_value] $sp
	@DEBUG_VALUE: mbedtls_mpi_write_string:olen <- [DW_OP_plus_uconst 72] [$sp+0]
	@DEBUG_VALUE: mbedtls_mpi_write_string:X <- [DW_OP_LLVM_entry_value 1] $r0
	mvn	r7, #7
.Ltmp348:
.LBB16_27:
	@DEBUG_VALUE: mbedtls_mpi_write_string:buf <- $r8
	@DEBUG_VALUE: mbedtls_mpi_write_string:olen <- [DW_OP_plus_uconst 72] [$sp+0]
	@DEBUG_VALUE: mbedtls_mpi_write_string:ret <- $r7
	@DEBUG_LABEL: mbedtls_mpi_write_string:cleanup
	add	r0, sp, #4
	.loc	4 607 5 is_stmt 1               @ ../../../components/network/thread/subg_openthread/third_party/mbedtls/repo/library/bignum.c:607:5
	bl	mbedtls_mpi_free
.Ltmp349:
.LBB16_28:
	@DEBUG_VALUE: mbedtls_mpi_write_string:olen <- [DW_OP_plus_uconst 72] [$sp+0]
	.loc	4 610 1                         @ ../../../components/network/thread/subg_openthread/third_party/mbedtls/repo/library/bignum.c:610:1
	mov	r0, r7
	add	sp, #36
	pop.w	{r4, r5, r6, r7, r8, r9, r10, r11, pc}
.Ltmp350:
.Lfunc_end16:
	.size	mbedtls_mpi_write_string, .Lfunc_end16-mbedtls_mpi_write_string
	.cfi_endproc
	.cantunwind
	.fnend
                                        @ -- End function
	.section	.text.mbedtls_mpi_read_binary_le,"ax",%progbits
	.hidden	mbedtls_mpi_read_binary_le      @ -- Begin function mbedtls_mpi_read_binary_le
	.globl	mbedtls_mpi_read_binary_le
	.p2align	1
	.type	mbedtls_mpi_read_binary_le,%function
	.code	16                              @ @mbedtls_mpi_read_binary_le
	.thumb_func
mbedtls_mpi_read_binary_le:
.Lfunc_begin17:
	.loc	4 791 0                         @ ../../../components/network/thread/subg_openthread/third_party/mbedtls/repo/library/bignum.c:791:0
	.fnstart
	.cfi_startproc
@ %bb.0:
	@DEBUG_VALUE: mbedtls_mpi_read_binary_le:X <- $r0
	@DEBUG_VALUE: mbedtls_mpi_read_binary_le:buf <- $r1
	@DEBUG_VALUE: mbedtls_mpi_read_binary_le:buflen <- $r2
	.save	{r4, r5, r6, r7, r8, r9, lr}
	push.w	{r4, r5, r6, r7, r8, r9, lr}
	.cfi_def_cfa_offset 28
	.cfi_offset lr, -4
	.cfi_offset r9, -8
	.cfi_offset r8, -12
	.cfi_offset r7, -16
	.cfi_offset r6, -20
	.cfi_offset r5, -24
	.cfi_offset r4, -28
	.pad	#4
	sub	sp, #4
	.cfi_def_cfa_offset 32
	mov	r8, r1
.Ltmp351:
	@DEBUG_VALUE: mbedtls_mpi_read_binary_le:buf <- $r8
	mov	r6, r0
.Ltmp352:
	@DEBUG_VALUE: mbedtls_mpi_read_binary_le:X <- $r6
	@DEBUG_VALUE: mbedtls_mpi_read_binary_le:ret <- -110
	@DEBUG_VALUE: mbedtls_mpi_read_binary_le:buflen <- $r9
	@DEBUG_VALUE: mbedtls_mpi_read_binary_le:buf <- $r8
	@DEBUG_VALUE: mbedtls_mpi_read_binary_le:X <- $r6
	.loc	4 794 26 prologue_end           @ ../../../components/network/thread/subg_openthread/third_party/mbedtls/repo/library/bignum.c:794:26
	lsrs	r1, r2, #2
	movs	r0, #1
	mov	r9, r2
.Ltmp353:
	lsls	r2, r2, #30
	it	ne
	addne.w	r1, r0, r9, lsr #2
.Ltmp354:
	@DEBUG_VALUE: mbedtls_mpi_read_binary_le:limbs <- $r1
	.loc	4 797 5                         @ ../../../components/network/thread/subg_openthread/third_party/mbedtls/repo/library/bignum.c:797:5
	mov	r0, r6
	bl	mbedtls_mpi_resize_clear
.Ltmp355:
	@DEBUG_VALUE: mbedtls_mpi_read_binary_le:i <- 0
	@DEBUG_VALUE: mbedtls_mpi_read_binary_le:ret <- $r0
	.loc	4 797 5 is_stmt 0               @ ../../../components/network/thread/subg_openthread/third_party/mbedtls/repo/library/bignum.c:797:5
	cbnz	r0, .LBB17_4
.Ltmp356:
@ %bb.1:
	@DEBUG_VALUE: mbedtls_mpi_read_binary_le:buf <- $r8
	@DEBUG_VALUE: mbedtls_mpi_read_binary_le:X <- $r6
	@DEBUG_VALUE: mbedtls_mpi_read_binary_le:ret <- $r0
	@DEBUG_VALUE: mbedtls_mpi_read_binary_le:i <- 0
	cmp.w	r9, #0
	beq	.LBB17_4
.Ltmp357:
@ %bb.2:
	@DEBUG_VALUE: mbedtls_mpi_read_binary_le:buf <- $r8
	@DEBUG_VALUE: mbedtls_mpi_read_binary_le:X <- $r6
	@DEBUG_VALUE: mbedtls_mpi_read_binary_le:ret <- $r0
	@DEBUG_VALUE: mbedtls_mpi_read_binary_le:i <- 0
	.loc	4 0 5                           @ ../../../components/network/thread/subg_openthread/third_party/mbedtls/repo/library/bignum.c:0:5
	ldr	r1, [r6, #8]
	movs	r2, #0
	movs	r3, #0
.Ltmp358:
	.p2align	2
.LBB17_3:                               @ =>This Inner Loop Header: Depth=1
	@DEBUG_VALUE: mbedtls_mpi_read_binary_le:buf <- $r8
	@DEBUG_VALUE: mbedtls_mpi_read_binary_le:ret <- $r0
	@DEBUG_VALUE: mbedtls_mpi_read_binary_le:i <- $r3
	.loc	4 800 46 is_stmt 1              @ ../../../components/network/thread/subg_openthread/third_party/mbedtls/repo/library/bignum.c:800:46
	ldrb.w	r6, [r8, r3]
	.loc	4 800 16 is_stmt 0              @ ../../../components/network/thread/subg_openthread/third_party/mbedtls/repo/library/bignum.c:800:16
	bic	r7, r3, #3
	.loc	4 800 68                        @ ../../../components/network/thread/subg_openthread/third_party/mbedtls/repo/library/bignum.c:800:68
	and	r5, r2, #24
	.loc	4 800 23                        @ ../../../components/network/thread/subg_openthread/third_party/mbedtls/repo/library/bignum.c:800:23
	ldr	r4, [r1, r7]
	.loc	4 800 54                        @ ../../../components/network/thread/subg_openthread/third_party/mbedtls/repo/library/bignum.c:800:54
	lsls	r6, r5
	.loc	4 799 30 is_stmt 1              @ ../../../components/network/thread/subg_openthread/third_party/mbedtls/repo/library/bignum.c:799:30
	adds	r3, #1
.Ltmp359:
	@DEBUG_VALUE: mbedtls_mpi_read_binary_le:i <- $r3
	.loc	4 800 23                        @ ../../../components/network/thread/subg_openthread/third_party/mbedtls/repo/library/bignum.c:800:23
	orrs	r6, r4
.Ltmp360:
	.loc	4 799 5                         @ ../../../components/network/thread/subg_openthread/third_party/mbedtls/repo/library/bignum.c:799:5
	cmp	r9, r3
.Ltmp361:
	.loc	4 799 19 is_stmt 0              @ ../../../components/network/thread/subg_openthread/third_party/mbedtls/repo/library/bignum.c:799:19
	add.w	r2, r2, #8
	.loc	4 800 23 is_stmt 1              @ ../../../components/network/thread/subg_openthread/third_party/mbedtls/repo/library/bignum.c:800:23
	str	r6, [r1, r7]
.Ltmp362:
	.loc	4 799 5                         @ ../../../components/network/thread/subg_openthread/third_party/mbedtls/repo/library/bignum.c:799:5
	bne	.LBB17_3
.Ltmp363:
.LBB17_4:
	@DEBUG_VALUE: mbedtls_mpi_read_binary_le:buf <- $r8
	@DEBUG_VALUE: mbedtls_mpi_read_binary_le:ret <- $r0
	@DEBUG_LABEL: mbedtls_mpi_read_binary_le:cleanup
	.loc	4 809 5                         @ ../../../components/network/thread/subg_openthread/third_party/mbedtls/repo/library/bignum.c:809:5
	add	sp, #4
	pop.w	{r4, r5, r6, r7, r8, r9, pc}
.Ltmp364:
.Lfunc_end17:
	.size	mbedtls_mpi_read_binary_le, .Lfunc_end17-mbedtls_mpi_read_binary_le
	.cfi_endproc
	.cantunwind
	.fnend
                                        @ -- End function
	.section	.text.mbedtls_mpi_resize_clear,"ax",%progbits
	.p2align	1                               @ -- Begin function mbedtls_mpi_resize_clear
	.type	mbedtls_mpi_resize_clear,%function
	.code	16                              @ @mbedtls_mpi_resize_clear
	.thumb_func
mbedtls_mpi_resize_clear:
.Lfunc_begin18:
	.loc	4 188 0                         @ ../../../components/network/thread/subg_openthread/third_party/mbedtls/repo/library/bignum.c:188:0
	.fnstart
	.cfi_startproc
@ %bb.0:
	@DEBUG_VALUE: mbedtls_mpi_resize_clear:X <- $r0
	@DEBUG_VALUE: mbedtls_mpi_resize_clear:limbs <- $r1
	@DEBUG_VALUE: mbedtls_mpi_resize_clear:limbs <- $r1
	.save	{r4, r5, r7, lr}
	push	{r4, r5, r7, lr}
	.cfi_def_cfa_offset 16
	.cfi_offset lr, -4
	.cfi_offset r7, -8
	.cfi_offset r5, -12
	.cfi_offset r4, -16
	mov	r4, r0
.Ltmp365:
	@DEBUG_VALUE: mbedtls_mpi_resize_clear:X <- $r4
	@DEBUG_VALUE: mbedtls_mpi_resize_clear:X <- $r4
	.loc	4 189 9 prologue_end            @ ../../../components/network/thread/subg_openthread/third_party/mbedtls/repo/library/bignum.c:189:9
	cbz	r1, .LBB18_3
.Ltmp366:
@ %bb.1:
	@DEBUG_VALUE: mbedtls_mpi_resize_clear:X <- $r4
	@DEBUG_VALUE: mbedtls_mpi_resize_clear:limbs <- $r1
	.loc	4 194 17                        @ ../../../components/network/thread/subg_openthread/third_party/mbedtls/repo/library/bignum.c:194:17
	ldr	r0, [r4, #4]
	mov	r5, r1
.Ltmp367:
	@DEBUG_VALUE: mbedtls_mpi_resize_clear:limbs <- $r5
	.loc	4 194 14 is_stmt 0              @ ../../../components/network/thread/subg_openthread/third_party/mbedtls/repo/library/bignum.c:194:14
	cmp	r0, r1
	bne	.LBB18_5
.Ltmp368:
@ %bb.2:
	@DEBUG_VALUE: mbedtls_mpi_resize_clear:limbs <- $r5
	@DEBUG_VALUE: mbedtls_mpi_resize_clear:X <- $r4
	.loc	4 196 20 is_stmt 1              @ ../../../components/network/thread/subg_openthread/third_party/mbedtls/repo/library/bignum.c:196:20
	ldr	r0, [r4, #8]
	.loc	4 196 32 is_stmt 0              @ ../../../components/network/thread/subg_openthread/third_party/mbedtls/repo/library/bignum.c:196:32
	lsls	r1, r5, #2
	.loc	4 196 9                         @ ../../../components/network/thread/subg_openthread/third_party/mbedtls/repo/library/bignum.c:196:9
	bl	__aeabi_memclr4
.Ltmp369:
	.loc	4 0 9                           @ ../../../components/network/thread/subg_openthread/third_party/mbedtls/repo/library/bignum.c:0:9
	movs	r0, #1
	.loc	4 197 14 is_stmt 1              @ ../../../components/network/thread/subg_openthread/third_party/mbedtls/repo/library/bignum.c:197:14
	str	r0, [r4]
	b	.LBB18_4
.Ltmp370:
.LBB18_3:
	@DEBUG_VALUE: mbedtls_mpi_resize_clear:X <- $r4
	@DEBUG_VALUE: mbedtls_mpi_resize_clear:limbs <- $r1
	.loc	4 191 9                         @ ../../../components/network/thread/subg_openthread/third_party/mbedtls/repo/library/bignum.c:191:9
	mov	r0, r4
	bl	mbedtls_mpi_free
.Ltmp371:
	@DEBUG_VALUE: mbedtls_mpi_resize_clear:limbs <- [DW_OP_LLVM_entry_value 1] $r1
.LBB18_4:
	@DEBUG_VALUE: mbedtls_mpi_resize_clear:X <- $r4
	.loc	4 205 1                         @ ../../../components/network/thread/subg_openthread/third_party/mbedtls/repo/library/bignum.c:205:1
	movs	r0, #0
	pop	{r4, r5, r7, pc}
.Ltmp372:
.LBB18_5:
	@DEBUG_VALUE: mbedtls_mpi_resize_clear:limbs <- $r5
	@DEBUG_VALUE: mbedtls_mpi_resize_clear:X <- $r4
	.loc	4 202 9                         @ ../../../components/network/thread/subg_openthread/third_party/mbedtls/repo/library/bignum.c:202:9
	mov	r0, r4
	bl	mbedtls_mpi_free
.Ltmp373:
	.loc	4 203 17                        @ ../../../components/network/thread/subg_openthread/third_party/mbedtls/repo/library/bignum.c:203:17
	mov	r0, r4
	mov	r1, r5
	pop.w	{r4, r5, r7, lr}
.Ltmp374:
	@DEBUG_VALUE: mbedtls_mpi_resize_clear:limbs <- [DW_OP_LLVM_entry_value 1] $r1
	@DEBUG_VALUE: mbedtls_mpi_resize_clear:X <- [DW_OP_LLVM_entry_value 1] $r0
	b	mbedtls_mpi_grow
.Ltmp375:
.Lfunc_end18:
	.size	mbedtls_mpi_resize_clear, .Lfunc_end18-mbedtls_mpi_resize_clear
	.cfi_endproc
	.cantunwind
	.fnend
                                        @ -- End function
	.section	.text.mbedtls_mpi_read_binary,"ax",%progbits
	.hidden	mbedtls_mpi_read_binary         @ -- Begin function mbedtls_mpi_read_binary
	.globl	mbedtls_mpi_read_binary
	.p2align	1
	.type	mbedtls_mpi_read_binary,%function
	.code	16                              @ @mbedtls_mpi_read_binary
	.thumb_func
mbedtls_mpi_read_binary:
.Lfunc_begin19:
	.loc	4 816 0                         @ ../../../components/network/thread/subg_openthread/third_party/mbedtls/repo/library/bignum.c:816:0
	.fnstart
	.cfi_startproc
@ %bb.0:
	@DEBUG_VALUE: mbedtls_mpi_read_binary:X <- $r0
	@DEBUG_VALUE: mbedtls_mpi_read_binary:buf <- $r1
	@DEBUG_VALUE: mbedtls_mpi_read_binary:buflen <- $r2
	.save	{r4, r5, r6, r7, r8, r9, lr}
	push.w	{r4, r5, r6, r7, r8, r9, lr}
	.cfi_def_cfa_offset 28
	.cfi_offset lr, -4
	.cfi_offset r9, -8
	.cfi_offset r8, -12
	.cfi_offset r7, -16
	.cfi_offset r6, -20
	.cfi_offset r5, -24
	.cfi_offset r4, -28
	.pad	#4
	sub	sp, #4
	.cfi_def_cfa_offset 32
.Ltmp376:
	.loc	4 818 29 prologue_end           @ ../../../components/network/thread/subg_openthread/third_party/mbedtls/repo/library/bignum.c:818:29
	ands	r4, r2, #3
	it	ne
	movne	r4, #1
	add.w	r7, r4, r2, lsr #2
.Ltmp377:
	@DEBUG_VALUE: mbedtls_mpi_read_binary:overhead <- undef
	@DEBUG_VALUE: mbedtls_mpi_read_binary:limbs <- $r7
	.loc	4 0 29 is_stmt 0                @ ../../../components/network/thread/subg_openthread/third_party/mbedtls/repo/library/bignum.c:0:29
	mov	r8, r1
.Ltmp378:
	@DEBUG_VALUE: mbedtls_mpi_read_binary:buf <- $r8
	.loc	4 826 5 is_stmt 1               @ ../../../components/network/thread/subg_openthread/third_party/mbedtls/repo/library/bignum.c:826:5
	mov	r1, r7
	mov	r5, r2
.Ltmp379:
	@DEBUG_VALUE: mbedtls_mpi_read_binary:buflen <- $r5
	.loc	4 0 5 is_stmt 0                 @ ../../../components/network/thread/subg_openthread/third_party/mbedtls/repo/library/bignum.c:0:5
	mov	r6, r0
.Ltmp380:
	@DEBUG_VALUE: mbedtls_mpi_read_binary:ret <- -110
	@DEBUG_VALUE: mbedtls_mpi_read_binary:buflen <- $r5
	@DEBUG_VALUE: mbedtls_mpi_read_binary:buf <- $r8
	@DEBUG_VALUE: mbedtls_mpi_read_binary:X <- $r6
	.loc	4 826 5                         @ ../../../components/network/thread/subg_openthread/third_party/mbedtls/repo/library/bignum.c:826:5
	bl	mbedtls_mpi_resize_clear
.Ltmp381:
	mov	r9, r0
.Ltmp382:
	@DEBUG_VALUE: mbedtls_mpi_read_binary:ret <- $r9
	.loc	4 826 5                         @ ../../../components/network/thread/subg_openthread/third_party/mbedtls/repo/library/bignum.c:826:5
	cbz	r5, .LBB19_5
.Ltmp383:
@ %bb.1:
	@DEBUG_VALUE: mbedtls_mpi_read_binary:ret <- $r9
	@DEBUG_VALUE: mbedtls_mpi_read_binary:buf <- $r8
	@DEBUG_VALUE: mbedtls_mpi_read_binary:limbs <- $r7
	@DEBUG_VALUE: mbedtls_mpi_read_binary:X <- $r6
	@DEBUG_VALUE: mbedtls_mpi_read_binary:buflen <- $r5
	cmp.w	r9, #0
	bne	.LBB19_5
.Ltmp384:
@ %bb.2:
	@DEBUG_VALUE: mbedtls_mpi_read_binary:ret <- $r9
	@DEBUG_VALUE: mbedtls_mpi_read_binary:buf <- $r8
	@DEBUG_VALUE: mbedtls_mpi_read_binary:limbs <- $r7
	@DEBUG_VALUE: mbedtls_mpi_read_binary:X <- $r6
	@DEBUG_VALUE: mbedtls_mpi_read_binary:buflen <- $r5
	.loc	4 832 34 is_stmt 1              @ ../../../components/network/thread/subg_openthread/third_party/mbedtls/repo/library/bignum.c:832:34
	ldr	r0, [r6, #8]
.Ltmp385:
	@DEBUG_VALUE: mbedtls_mpi_read_binary:Xp <- $r0
	.loc	4 819 45                        @ ../../../components/network/thread/subg_openthread/third_party/mbedtls/repo/library/bignum.c:819:45
	rsb	r1, r5, r7, lsl #2
.Ltmp386:
	@DEBUG_VALUE: mbedtls_mpi_read_binary:overhead <- $r1
	.loc	4 833 20                        @ ../../../components/network/thread/subg_openthread/third_party/mbedtls/repo/library/bignum.c:833:20
	add	r0, r1
.Ltmp387:
	.loc	4 833 9 is_stmt 0               @ ../../../components/network/thread/subg_openthread/third_party/mbedtls/repo/library/bignum.c:833:9
	mov	r1, r8
.Ltmp388:
	mov	r2, r5
	bl	__aeabi_memcpy
.Ltmp389:
	@DEBUG_VALUE: mpi_bigendian_to_host:cur_limb_left <- undef
	@DEBUG_VALUE: mpi_bigendian_to_host:cur_limb_right <- undef
	@DEBUG_VALUE: mpi_bigendian_to_host:limbs <- $r7
	@DEBUG_VALUE: mpi_bigendian_to_host:p <- undef
	.loc	4 761 9 is_stmt 1               @ ../../../components/network/thread/subg_openthread/third_party/mbedtls/repo/library/bignum.c:761:9
	cbz	r7, .LBB19_5
.Ltmp390:
@ %bb.3:
	@DEBUG_VALUE: mbedtls_mpi_read_binary:ret <- $r9
	@DEBUG_VALUE: mbedtls_mpi_read_binary:buf <- $r8
	@DEBUG_VALUE: mpi_bigendian_to_host:limbs <- $r7
	@DEBUG_VALUE: mbedtls_mpi_read_binary:limbs <- $r7
	@DEBUG_VALUE: mbedtls_mpi_read_binary:X <- $r6
	@DEBUG_VALUE: mbedtls_mpi_read_binary:buflen <- $r5
	.loc	4 0 0 is_stmt 0                 @ ../../../components/network/thread/subg_openthread/third_party/mbedtls/repo/library/bignum.c:0:0
	lsrs	r1, r5, #2
.Ltmp391:
	ldr	r0, [r6, #8]
.Ltmp392:
	@DEBUG_VALUE: mpi_bigendian_to_host:cur_limb_left <- $r0
	@DEBUG_VALUE: mpi_bigendian_to_host:cur_limb_right <- undef
	@DEBUG_VALUE: mpi_bigendian_to_host:p <- $r0
	.loc	4 773 5 is_stmt 1               @ ../../../components/network/thread/subg_openthread/third_party/mbedtls/repo/library/bignum.c:773:5
	add	r1, r4
	add.w	r1, r0, r1, lsl #2
	subs	r1, #8
.Ltmp393:
	.p2align	2
.LBB19_4:                               @ =>This Inner Loop Header: Depth=1
	@DEBUG_VALUE: mbedtls_mpi_read_binary:ret <- $r9
	@DEBUG_VALUE: mbedtls_mpi_read_binary:buf <- $r8
	@DEBUG_VALUE: mpi_bigendian_to_host:limbs <- $r7
	@DEBUG_VALUE: mbedtls_mpi_read_binary:limbs <- $r7
	@DEBUG_VALUE: mbedtls_mpi_read_binary:X <- $r6
	@DEBUG_VALUE: mbedtls_mpi_read_binary:buflen <- $r5
	@DEBUG_VALUE: mpi_bigendian_to_host:cur_limb_left <- $r0
	@DEBUG_VALUE: mpi_bigendian_to_host:cur_limb_right <- undef
	@DEBUG_VALUE: mpi_bigendian_to_host:cur_limb_left <- $r0
	.loc	4 781 55                        @ ../../../components/network/thread/subg_openthread/third_party/mbedtls/repo/library/bignum.c:781:55
	ldr	r3, [r1, #4]
	@DEBUG_VALUE: mpi_uint_bigendian_to_host:x <- $r2
	.loc	4 780 55                        @ ../../../components/network/thread/subg_openthread/third_party/mbedtls/repo/library/bignum.c:780:55
	ldr	r2, [r0]
.Ltmp394:
	.loc	4 744 21                        @ ../../../components/network/thread/subg_openthread/third_party/mbedtls/repo/library/bignum.c:744:21
	rev	r3, r3
.Ltmp395:
	.loc	4 744 21 is_stmt 0              @ ../../../components/network/thread/subg_openthread/third_party/mbedtls/repo/library/bignum.c:744:21
	rev	r2, r2
.Ltmp396:
	@DEBUG_VALUE: tmp <- $r2
	@DEBUG_VALUE: mpi_uint_bigendian_to_host:x <- $r3
	.loc	4 781 25 is_stmt 1              @ ../../../components/network/thread/subg_openthread/third_party/mbedtls/repo/library/bignum.c:781:25
	str	r3, [r0], #4
.Ltmp397:
	.loc	4 782 25                        @ ../../../components/network/thread/subg_openthread/third_party/mbedtls/repo/library/bignum.c:782:25
	str	r2, [r1, #4]
.Ltmp398:
	@DEBUG_VALUE: mpi_bigendian_to_host:cur_limb_left <- $r0
	@DEBUG_VALUE: mpi_bigendian_to_host:cur_limb_right <- $r1
	.loc	4 773 5                         @ ../../../components/network/thread/subg_openthread/third_party/mbedtls/repo/library/bignum.c:773:5
	cmp	r0, r1
.Ltmp399:
	.loc	4 774 24                        @ ../../../components/network/thread/subg_openthread/third_party/mbedtls/repo/library/bignum.c:774:24
	sub.w	r1, r1, #4
.Ltmp400:
	.loc	4 773 5                         @ ../../../components/network/thread/subg_openthread/third_party/mbedtls/repo/library/bignum.c:773:5
	bls	.LBB19_4
.Ltmp401:
.LBB19_5:
	@DEBUG_VALUE: mbedtls_mpi_read_binary:ret <- $r9
	@DEBUG_VALUE: mbedtls_mpi_read_binary:buf <- $r8
	@DEBUG_VALUE: mbedtls_mpi_read_binary:limbs <- $r7
	@DEBUG_VALUE: mbedtls_mpi_read_binary:X <- $r6
	@DEBUG_VALUE: mbedtls_mpi_read_binary:buflen <- $r5
	@DEBUG_LABEL: mbedtls_mpi_read_binary:cleanup
	.loc	4 845 5                         @ ../../../components/network/thread/subg_openthread/third_party/mbedtls/repo/library/bignum.c:845:5
	mov	r0, r9
	add	sp, #4
	pop.w	{r4, r5, r6, r7, r8, r9, pc}
.Ltmp402:
.Lfunc_end19:
	.size	mbedtls_mpi_read_binary, .Lfunc_end19-mbedtls_mpi_read_binary
	.cfi_endproc
	.cantunwind
	.fnend
                                        @ -- End function
	.section	.text.mbedtls_mpi_write_binary_le,"ax",%progbits
	.hidden	mbedtls_mpi_write_binary_le     @ -- Begin function mbedtls_mpi_write_binary_le
	.globl	mbedtls_mpi_write_binary_le
	.p2align	1
	.type	mbedtls_mpi_write_binary_le,%function
	.code	16                              @ @mbedtls_mpi_write_binary_le
	.thumb_func
mbedtls_mpi_write_binary_le:
.Lfunc_begin20:
	.loc	4 853 0                         @ ../../../components/network/thread/subg_openthread/third_party/mbedtls/repo/library/bignum.c:853:0
	.fnstart
	.cfi_startproc
@ %bb.0:
	@DEBUG_VALUE: mbedtls_mpi_write_binary_le:X <- $r0
	@DEBUG_VALUE: mbedtls_mpi_write_binary_le:X <- $r0
	@DEBUG_VALUE: mbedtls_mpi_write_binary_le:buf <- $r1
	@DEBUG_VALUE: mbedtls_mpi_write_binary_le:buflen <- $r2
	@DEBUG_VALUE: mbedtls_mpi_write_binary_le:buflen <- $r2
	.save	{r4, r5, r6, lr}
	push	{r4, r5, r6, lr}
	.cfi_def_cfa_offset 16
	.cfi_offset lr, -4
	.cfi_offset r6, -8
	.cfi_offset r5, -12
	.cfi_offset r4, -16
.Ltmp403:
	.loc	4 854 30 prologue_end           @ ../../../components/network/thread/subg_openthread/third_party/mbedtls/repo/library/bignum.c:854:30
	ldr	r3, [r0, #4]
	@DEBUG_VALUE: mbedtls_mpi_write_binary_le:buf <- $r1
	.loc	4 854 32 is_stmt 0              @ ../../../components/network/thread/subg_openthread/third_party/mbedtls/repo/library/bignum.c:854:32
	lsl.w	r12, r3, #2
.Ltmp404:
	@DEBUG_VALUE: mbedtls_mpi_write_binary_le:stored_bytes <- $r12
	.loc	4 858 9 is_stmt 1               @ ../../../components/network/thread/subg_openthread/third_party/mbedtls/repo/library/bignum.c:858:9
	cmp.w	r2, r3, lsl #2
.Ltmp405:
	.loc	4 0 0 is_stmt 0                 @ ../../../components/network/thread/subg_openthread/third_party/mbedtls/repo/library/bignum.c:0:0
	mov	lr, r12
.Ltmp406:
	.loc	4 858 9                         @ ../../../components/network/thread/subg_openthread/third_party/mbedtls/repo/library/bignum.c:858:9
	bhi	.LBB20_6
.Ltmp407:
@ %bb.1:
	@DEBUG_VALUE: mbedtls_mpi_write_binary_le:stored_bytes <- $r12
	@DEBUG_VALUE: mbedtls_mpi_write_binary_le:buflen <- $r2
	@DEBUG_VALUE: mbedtls_mpi_write_binary_le:buf <- $r1
	@DEBUG_VALUE: mbedtls_mpi_write_binary_le:X <- $r0
	@DEBUG_VALUE: mbedtls_mpi_write_binary_le:i <- $r2
	.loc	4 868 9 is_stmt 1               @ ../../../components/network/thread/subg_openthread/third_party/mbedtls/repo/library/bignum.c:868:9
	cmp	r12, r2
.Ltmp408:
	.loc	4 0 0 is_stmt 0                 @ ../../../components/network/thread/subg_openthread/third_party/mbedtls/repo/library/bignum.c:0:0
	mov	lr, r2
.Ltmp409:
	.loc	4 868 9                         @ ../../../components/network/thread/subg_openthread/third_party/mbedtls/repo/library/bignum.c:868:9
	bls	.LBB20_6
.Ltmp410:
@ %bb.2:
	@DEBUG_VALUE: mbedtls_mpi_write_binary_le:stored_bytes <- $r12
	@DEBUG_VALUE: mbedtls_mpi_write_binary_le:i <- $r2
	@DEBUG_VALUE: mbedtls_mpi_write_binary_le:buflen <- $r2
	@DEBUG_VALUE: mbedtls_mpi_write_binary_le:buf <- $r1
	@DEBUG_VALUE: mbedtls_mpi_write_binary_le:X <- $r0
	.loc	4 0 9                           @ ../../../components/network/thread/subg_openthread/third_party/mbedtls/repo/library/bignum.c:0:9
	ldr.w	lr, [r0, #8]
	.loc	4 868 9                         @ ../../../components/network/thread/subg_openthread/third_party/mbedtls/repo/library/bignum.c:868:9
	lsls	r3, r2, #3
	mov	r4, r2
.Ltmp411:
	.p2align	2
.LBB20_3:                               @ =>This Inner Loop Header: Depth=1
	@DEBUG_VALUE: mbedtls_mpi_write_binary_le:stored_bytes <- $r12
	@DEBUG_VALUE: mbedtls_mpi_write_binary_le:buflen <- $r2
	@DEBUG_VALUE: mbedtls_mpi_write_binary_le:buf <- $r1
	@DEBUG_VALUE: mbedtls_mpi_write_binary_le:X <- $r0
	@DEBUG_VALUE: mbedtls_mpi_write_binary_le:i <- $r4
	.loc	4 870 17 is_stmt 1              @ ../../../components/network/thread/subg_openthread/third_party/mbedtls/repo/library/bignum.c:870:17
	bic	r5, r4, #3
	ldr.w	r5, [lr, r5]
	and	r6, r3, #24
.Ltmp412:
	@DEBUG_VALUE: mbedtls_mpi_write_binary_le:i <- undef
	.loc	4 870 17 is_stmt 0              @ ../../../components/network/thread/subg_openthread/third_party/mbedtls/repo/library/bignum.c:870:17
	lsrs	r5, r6
	lsls	r5, r5, #24
	bne	.LBB20_12
.Ltmp413:
@ %bb.4:                                @   in Loop: Header=BB20_3 Depth=1
	@DEBUG_VALUE: mbedtls_mpi_write_binary_le:stored_bytes <- $r12
	@DEBUG_VALUE: mbedtls_mpi_write_binary_le:buflen <- $r2
	@DEBUG_VALUE: mbedtls_mpi_write_binary_le:buf <- $r1
	@DEBUG_VALUE: mbedtls_mpi_write_binary_le:X <- $r0
	.loc	4 0 0                           @ ../../../components/network/thread/subg_openthread/third_party/mbedtls/repo/library/bignum.c:0:0
	adds	r4, #1
.Ltmp414:
	@DEBUG_VALUE: mbedtls_mpi_write_binary_le:i <- $r4
	.loc	4 868 9 is_stmt 1               @ ../../../components/network/thread/subg_openthread/third_party/mbedtls/repo/library/bignum.c:868:9
	cmp	r12, r4
.Ltmp415:
	.loc	4 868 35 is_stmt 0              @ ../../../components/network/thread/subg_openthread/third_party/mbedtls/repo/library/bignum.c:868:35
	add.w	r3, r3, #8
.Ltmp416:
	.loc	4 868 9                         @ ../../../components/network/thread/subg_openthread/third_party/mbedtls/repo/library/bignum.c:868:9
	bne	.LBB20_3
.Ltmp417:
@ %bb.5:
	@DEBUG_VALUE: mbedtls_mpi_write_binary_le:stored_bytes <- $r12
	@DEBUG_VALUE: mbedtls_mpi_write_binary_le:i <- $r4
	@DEBUG_VALUE: mbedtls_mpi_write_binary_le:buflen <- $r2
	@DEBUG_VALUE: mbedtls_mpi_write_binary_le:buf <- $r1
	@DEBUG_VALUE: mbedtls_mpi_write_binary_le:X <- $r0
	.loc	4 0 0                           @ ../../../components/network/thread/subg_openthread/third_party/mbedtls/repo/library/bignum.c:0:0
	mov	lr, r2
.Ltmp418:
.LBB20_6:
	@DEBUG_VALUE: mbedtls_mpi_write_binary_le:stored_bytes <- $r12
	@DEBUG_VALUE: mbedtls_mpi_write_binary_le:buflen <- $r2
	@DEBUG_VALUE: mbedtls_mpi_write_binary_le:buf <- $r1
	@DEBUG_VALUE: mbedtls_mpi_write_binary_le:X <- $r0
	@DEBUG_VALUE: mbedtls_mpi_write_binary_le:i <- 0
	@DEBUG_VALUE: mbedtls_mpi_write_binary_le:bytes_to_copy <- $lr
	.loc	4 875 5 is_stmt 1               @ ../../../components/network/thread/subg_openthread/third_party/mbedtls/repo/library/bignum.c:875:5
	cmp.w	lr, #0
	beq	.LBB20_9
.Ltmp419:
@ %bb.7:
	@DEBUG_VALUE: mbedtls_mpi_write_binary_le:stored_bytes <- $r12
	@DEBUG_VALUE: mbedtls_mpi_write_binary_le:buflen <- $r2
	@DEBUG_VALUE: mbedtls_mpi_write_binary_le:buf <- $r1
	@DEBUG_VALUE: mbedtls_mpi_write_binary_le:X <- $r0
	@DEBUG_VALUE: mbedtls_mpi_write_binary_le:bytes_to_copy <- $lr
	@DEBUG_VALUE: mbedtls_mpi_write_binary_le:i <- 0
	.loc	4 0 5 is_stmt 0                 @ ../../../components/network/thread/subg_openthread/third_party/mbedtls/repo/library/bignum.c:0:5
	movs	r3, #0
	movs	r4, #0
.Ltmp420:
	.p2align	2
.LBB20_8:                               @ =>This Inner Loop Header: Depth=1
	@DEBUG_VALUE: mbedtls_mpi_write_binary_le:stored_bytes <- $r12
	@DEBUG_VALUE: mbedtls_mpi_write_binary_le:buflen <- $r2
	@DEBUG_VALUE: mbedtls_mpi_write_binary_le:buf <- $r1
	@DEBUG_VALUE: mbedtls_mpi_write_binary_le:X <- $r0
	@DEBUG_VALUE: mbedtls_mpi_write_binary_le:bytes_to_copy <- $lr
	@DEBUG_VALUE: mbedtls_mpi_write_binary_le:i <- $r4
	.loc	4 876 18 is_stmt 1              @ ../../../components/network/thread/subg_openthread/third_party/mbedtls/repo/library/bignum.c:876:18
	ldr	r5, [r0, #8]
	bic	r6, r4, #3
	ldr	r5, [r5, r6]
	and	r6, r3, #24
	lsrs	r5, r6
	.loc	4 876 16 is_stmt 0              @ ../../../components/network/thread/subg_openthread/third_party/mbedtls/repo/library/bignum.c:876:16
	strb	r5, [r1, r4]
	.loc	4 875 37 is_stmt 1              @ ../../../components/network/thread/subg_openthread/third_party/mbedtls/repo/library/bignum.c:875:37
	adds	r4, #1
.Ltmp421:
	@DEBUG_VALUE: mbedtls_mpi_write_binary_le:i <- $r4
	.loc	4 875 5 is_stmt 0               @ ../../../components/network/thread/subg_openthread/third_party/mbedtls/repo/library/bignum.c:875:5
	cmp	lr, r4
.Ltmp422:
	.loc	4 875 19                        @ ../../../components/network/thread/subg_openthread/third_party/mbedtls/repo/library/bignum.c:875:19
	add.w	r3, r3, #8
.Ltmp423:
	.loc	4 875 5                         @ ../../../components/network/thread/subg_openthread/third_party/mbedtls/repo/library/bignum.c:875:5
	bne	.LBB20_8
.Ltmp424:
.LBB20_9:
	@DEBUG_VALUE: mbedtls_mpi_write_binary_le:stored_bytes <- $r12
	@DEBUG_VALUE: mbedtls_mpi_write_binary_le:buflen <- $r2
	@DEBUG_VALUE: mbedtls_mpi_write_binary_le:buf <- $r1
	@DEBUG_VALUE: mbedtls_mpi_write_binary_le:X <- $r0
	@DEBUG_VALUE: mbedtls_mpi_write_binary_le:bytes_to_copy <- $lr
	.loc	4 878 9 is_stmt 1               @ ../../../components/network/thread/subg_openthread/third_party/mbedtls/repo/library/bignum.c:878:9
	cmp	r12, r2
	bhs	.LBB20_11
.Ltmp425:
@ %bb.10:
	@DEBUG_VALUE: mbedtls_mpi_write_binary_le:stored_bytes <- $r12
	@DEBUG_VALUE: mbedtls_mpi_write_binary_le:buflen <- $r2
	@DEBUG_VALUE: mbedtls_mpi_write_binary_le:buf <- $r1
	@DEBUG_VALUE: mbedtls_mpi_write_binary_le:X <- $r0
	@DEBUG_VALUE: mbedtls_mpi_write_binary_le:bytes_to_copy <- $lr
	.loc	4 881 21                        @ ../../../components/network/thread/subg_openthread/third_party/mbedtls/repo/library/bignum.c:881:21
	add.w	r0, r1, r12
.Ltmp426:
	@DEBUG_VALUE: mbedtls_mpi_write_binary_le:X <- [DW_OP_LLVM_entry_value 1] $r0
	.loc	4 881 47 is_stmt 0              @ ../../../components/network/thread/subg_openthread/third_party/mbedtls/repo/library/bignum.c:881:47
	sub.w	r1, r2, r12
.Ltmp427:
	@DEBUG_VALUE: mbedtls_mpi_write_binary_le:buf <- [DW_OP_LLVM_entry_value 1] $r1
	.loc	4 881 9                         @ ../../../components/network/thread/subg_openthread/third_party/mbedtls/repo/library/bignum.c:881:9
	bl	__aeabi_memclr
.Ltmp428:
.LBB20_11:
	.loc	4 0 9                           @ ../../../components/network/thread/subg_openthread/third_party/mbedtls/repo/library/bignum.c:0:9
	movs	r0, #0
	.loc	4 885 1 is_stmt 1               @ ../../../components/network/thread/subg_openthread/third_party/mbedtls/repo/library/bignum.c:885:1
	pop	{r4, r5, r6, pc}
.LBB20_12:
.Ltmp429:
	@DEBUG_VALUE: mbedtls_mpi_write_binary_le:stored_bytes <- $r12
	@DEBUG_VALUE: mbedtls_mpi_write_binary_le:buflen <- $r2
	@DEBUG_VALUE: mbedtls_mpi_write_binary_le:buf <- $r1
	@DEBUG_VALUE: mbedtls_mpi_write_binary_le:X <- $r0
	.loc	4 0 1 is_stmt 0                 @ ../../../components/network/thread/subg_openthread/third_party/mbedtls/repo/library/bignum.c:0:1
	mvn	r0, #7
.Ltmp430:
	@DEBUG_VALUE: mbedtls_mpi_write_binary_le:X <- [DW_OP_LLVM_entry_value 1] $r0
	.loc	4 885 1                         @ ../../../components/network/thread/subg_openthread/third_party/mbedtls/repo/library/bignum.c:885:1
	pop	{r4, r5, r6, pc}
.Ltmp431:
.Lfunc_end20:
	.size	mbedtls_mpi_write_binary_le, .Lfunc_end20-mbedtls_mpi_write_binary_le
	.cfi_endproc
	.cantunwind
	.fnend
                                        @ -- End function
	.section	.text.mbedtls_mpi_write_binary,"ax",%progbits
	.hidden	mbedtls_mpi_write_binary        @ -- Begin function mbedtls_mpi_write_binary
	.globl	mbedtls_mpi_write_binary
	.p2align	1
	.type	mbedtls_mpi_write_binary,%function
	.code	16                              @ @mbedtls_mpi_write_binary
	.thumb_func
mbedtls_mpi_write_binary:
.Lfunc_begin21:
	.loc	4 892 0 is_stmt 1               @ ../../../components/network/thread/subg_openthread/third_party/mbedtls/repo/library/bignum.c:892:0
	.fnstart
	.cfi_startproc
@ %bb.0:
	@DEBUG_VALUE: mbedtls_mpi_write_binary:X <- $r0
	@DEBUG_VALUE: mbedtls_mpi_write_binary:buf <- $r1
	@DEBUG_VALUE: mbedtls_mpi_write_binary:buflen <- $r2
	.save	{r4, r5, r6, r7, lr}
	push	{r4, r5, r6, r7, lr}
	.cfi_def_cfa_offset 20
	.cfi_offset lr, -4
	.cfi_offset r7, -8
	.cfi_offset r6, -12
	.cfi_offset r5, -16
	.cfi_offset r4, -20
	.pad	#4
	sub	sp, #4
	.cfi_def_cfa_offset 24
	mov	r4, r0
	@DEBUG_VALUE: mbedtls_mpi_write_binary:buflen <- $r2
.Ltmp432:
	@DEBUG_VALUE: mbedtls_mpi_write_binary:X <- $r4
	.loc	4 901 23 prologue_end           @ ../../../components/network/thread/subg_openthread/third_party/mbedtls/repo/library/bignum.c:901:23
	ldr	r0, [r0, #4]
	@DEBUG_VALUE: mbedtls_mpi_write_binary:buf <- $r1
	.loc	4 903 9                         @ ../../../components/network/thread/subg_openthread/third_party/mbedtls/repo/library/bignum.c:903:9
	cmp.w	r2, r0, lsl #2
	.loc	4 901 25                        @ ../../../components/network/thread/subg_openthread/third_party/mbedtls/repo/library/bignum.c:901:25
	lsl.w	r7, r0, #2
.Ltmp433:
	@DEBUG_VALUE: mbedtls_mpi_write_binary:stored_bytes <- $r7
	.loc	4 903 9                         @ ../../../components/network/thread/subg_openthread/third_party/mbedtls/repo/library/bignum.c:903:9
	bls	.LBB21_2
.Ltmp434:
@ %bb.1:
	@DEBUG_VALUE: mbedtls_mpi_write_binary:stored_bytes <- $r7
	@DEBUG_VALUE: mbedtls_mpi_write_binary:X <- $r4
	@DEBUG_VALUE: mbedtls_mpi_write_binary:buflen <- $r2
	@DEBUG_VALUE: mbedtls_mpi_write_binary:buf <- $r1
	@DEBUG_VALUE: mbedtls_mpi_write_binary:bytes_to_copy <- $r7
	.loc	4 911 17                        @ ../../../components/network/thread/subg_openthread/third_party/mbedtls/repo/library/bignum.c:911:17
	adds	r0, r1, r2
	.loc	4 912 32                        @ ../../../components/network/thread/subg_openthread/third_party/mbedtls/repo/library/bignum.c:912:32
	subs	r2, r2, r7
.Ltmp435:
	@DEBUG_VALUE: mbedtls_mpi_write_binary:buflen <- [DW_OP_LLVM_entry_value 1] $r2
	.loc	4 911 26                        @ ../../../components/network/thread/subg_openthread/third_party/mbedtls/repo/library/bignum.c:911:26
	subs	r6, r0, r7
.Ltmp436:
	@DEBUG_VALUE: mbedtls_mpi_write_binary:p <- $r6
	.loc	4 912 9                         @ ../../../components/network/thread/subg_openthread/third_party/mbedtls/repo/library/bignum.c:912:9
	mov	r0, r1
	mov	r1, r2
.Ltmp437:
	@DEBUG_VALUE: mbedtls_mpi_write_binary:buf <- [DW_OP_LLVM_entry_value 1] $r1
	bl	__aeabi_memclr
.Ltmp438:
	.loc	4 0 0 is_stmt 0                 @ ../../../components/network/thread/subg_openthread/third_party/mbedtls/repo/library/bignum.c:0:0
	mov	r2, r7
.Ltmp439:
	@DEBUG_VALUE: mbedtls_mpi_write_binary:bytes_to_copy <- $r2
	mov	r1, r6
.Ltmp440:
	@DEBUG_VALUE: mbedtls_mpi_write_binary:p <- $r1
	b	.LBB21_6
.Ltmp441:
.LBB21_2:
	@DEBUG_VALUE: mbedtls_mpi_write_binary:stored_bytes <- $r7
	@DEBUG_VALUE: mbedtls_mpi_write_binary:X <- $r4
	@DEBUG_VALUE: mbedtls_mpi_write_binary:buflen <- $r2
	@DEBUG_VALUE: mbedtls_mpi_write_binary:buf <- $r1
	@DEBUG_VALUE: mbedtls_mpi_write_binary:i <- $r2
	.loc	4 920 9 is_stmt 1               @ ../../../components/network/thread/subg_openthread/third_party/mbedtls/repo/library/bignum.c:920:9
	cmp	r7, r2
	bls	.LBB21_6
.Ltmp442:
@ %bb.3:
	@DEBUG_VALUE: mbedtls_mpi_write_binary:stored_bytes <- $r7
	@DEBUG_VALUE: mbedtls_mpi_write_binary:X <- $r4
	@DEBUG_VALUE: mbedtls_mpi_write_binary:i <- $r2
	@DEBUG_VALUE: mbedtls_mpi_write_binary:buflen <- $r2
	@DEBUG_VALUE: mbedtls_mpi_write_binary:buf <- $r1
	.loc	4 0 9 is_stmt 0                 @ ../../../components/network/thread/subg_openthread/third_party/mbedtls/repo/library/bignum.c:0:9
	ldr.w	r12, [r4, #8]
	.loc	4 920 9                         @ ../../../components/network/thread/subg_openthread/third_party/mbedtls/repo/library/bignum.c:920:9
	lsls	r3, r2, #3
	mov	r0, r2
.Ltmp443:
	.p2align	2
.LBB21_4:                               @ =>This Inner Loop Header: Depth=1
	@DEBUG_VALUE: mbedtls_mpi_write_binary:stored_bytes <- $r7
	@DEBUG_VALUE: mbedtls_mpi_write_binary:X <- $r4
	@DEBUG_VALUE: mbedtls_mpi_write_binary:buflen <- $r2
	@DEBUG_VALUE: mbedtls_mpi_write_binary:buf <- $r1
	@DEBUG_VALUE: mbedtls_mpi_write_binary:i <- $r0
	.loc	4 922 17 is_stmt 1              @ ../../../components/network/thread/subg_openthread/third_party/mbedtls/repo/library/bignum.c:922:17
	bic	r6, r0, #3
	ldr.w	r6, [r12, r6]
	and	r5, r3, #24
.Ltmp444:
	@DEBUG_VALUE: mbedtls_mpi_write_binary:i <- undef
	.loc	4 922 17 is_stmt 0              @ ../../../components/network/thread/subg_openthread/third_party/mbedtls/repo/library/bignum.c:922:17
	lsrs	r6, r5
	lsls	r6, r6, #24
	bne	.LBB21_11
.Ltmp445:
@ %bb.5:                                @   in Loop: Header=BB21_4 Depth=1
	@DEBUG_VALUE: mbedtls_mpi_write_binary:stored_bytes <- $r7
	@DEBUG_VALUE: mbedtls_mpi_write_binary:X <- $r4
	@DEBUG_VALUE: mbedtls_mpi_write_binary:buflen <- $r2
	@DEBUG_VALUE: mbedtls_mpi_write_binary:buf <- $r1
	.loc	4 0 0                           @ ../../../components/network/thread/subg_openthread/third_party/mbedtls/repo/library/bignum.c:0:0
	adds	r0, #1
.Ltmp446:
	@DEBUG_VALUE: mbedtls_mpi_write_binary:i <- $r0
	.loc	4 920 9 is_stmt 1               @ ../../../components/network/thread/subg_openthread/third_party/mbedtls/repo/library/bignum.c:920:9
	cmp	r7, r0
.Ltmp447:
	.loc	4 920 35 is_stmt 0              @ ../../../components/network/thread/subg_openthread/third_party/mbedtls/repo/library/bignum.c:920:35
	add.w	r3, r3, #8
.Ltmp448:
	.loc	4 920 9                         @ ../../../components/network/thread/subg_openthread/third_party/mbedtls/repo/library/bignum.c:920:9
	bne	.LBB21_4
.Ltmp449:
.LBB21_6:
	@DEBUG_VALUE: mbedtls_mpi_write_binary:stored_bytes <- $r7
	@DEBUG_VALUE: mbedtls_mpi_write_binary:X <- $r4
	@DEBUG_VALUE: mbedtls_mpi_write_binary:i <- 0
	@DEBUG_VALUE: mbedtls_mpi_write_binary:bytes_to_copy <- $r2
	@DEBUG_VALUE: mbedtls_mpi_write_binary:p <- $r1
	.loc	4 927 5 is_stmt 1               @ ../../../components/network/thread/subg_openthread/third_party/mbedtls/repo/library/bignum.c:927:5
	cbz	r2, .LBB21_9
.Ltmp450:
@ %bb.7:
	@DEBUG_VALUE: mbedtls_mpi_write_binary:stored_bytes <- $r7
	@DEBUG_VALUE: mbedtls_mpi_write_binary:X <- $r4
	@DEBUG_VALUE: mbedtls_mpi_write_binary:bytes_to_copy <- $r2
	@DEBUG_VALUE: mbedtls_mpi_write_binary:p <- $r1
	@DEBUG_VALUE: mbedtls_mpi_write_binary:i <- 0
	subs	r0, r1, #1
	movs	r1, #0
.Ltmp451:
	.loc	4 0 5 is_stmt 0                 @ ../../../components/network/thread/subg_openthread/third_party/mbedtls/repo/library/bignum.c:0:5
	movs	r3, #0
.Ltmp452:
	.p2align	2
.LBB21_8:                               @ =>This Inner Loop Header: Depth=1
	@DEBUG_VALUE: mbedtls_mpi_write_binary:X <- $r4
	@DEBUG_VALUE: mbedtls_mpi_write_binary:i <- $r3
	.loc	4 928 36 is_stmt 1              @ ../../../components/network/thread/subg_openthread/third_party/mbedtls/repo/library/bignum.c:928:36
	ldr	r7, [r4, #8]
	bic	r6, r3, #3
	ldr	r7, [r7, r6]
	and	r6, r1, #24
	lsrs	r7, r6
	.loc	4 928 34 is_stmt 0              @ ../../../components/network/thread/subg_openthread/third_party/mbedtls/repo/library/bignum.c:928:34
	strb	r7, [r0, r2]
	.loc	4 927 37 is_stmt 1              @ ../../../components/network/thread/subg_openthread/third_party/mbedtls/repo/library/bignum.c:927:37
	adds	r3, #1
.Ltmp453:
	@DEBUG_VALUE: mbedtls_mpi_write_binary:i <- $r3
	.loc	4 927 19 is_stmt 0              @ ../../../components/network/thread/subg_openthread/third_party/mbedtls/repo/library/bignum.c:927:19
	subs	r2, #1
	add.w	r1, r1, #8
.Ltmp454:
	.loc	4 927 5                         @ ../../../components/network/thread/subg_openthread/third_party/mbedtls/repo/library/bignum.c:927:5
	bne	.LBB21_8
.Ltmp455:
.LBB21_9:
	@DEBUG_VALUE: mbedtls_mpi_write_binary:X <- $r4
	.loc	4 0 5                           @ ../../../components/network/thread/subg_openthread/third_party/mbedtls/repo/library/bignum.c:0:5
	movs	r0, #0
.Ltmp456:
.LBB21_10:
	@DEBUG_VALUE: mbedtls_mpi_write_binary:X <- $r4
	.loc	4 931 1 is_stmt 1               @ ../../../components/network/thread/subg_openthread/third_party/mbedtls/repo/library/bignum.c:931:1
	add	sp, #4
	pop	{r4, r5, r6, r7, pc}
.Ltmp457:
.LBB21_11:
	@DEBUG_VALUE: mbedtls_mpi_write_binary:stored_bytes <- $r7
	@DEBUG_VALUE: mbedtls_mpi_write_binary:X <- $r4
	@DEBUG_VALUE: mbedtls_mpi_write_binary:buflen <- $r2
	@DEBUG_VALUE: mbedtls_mpi_write_binary:buf <- $r1
	.loc	4 0 1 is_stmt 0                 @ ../../../components/network/thread/subg_openthread/third_party/mbedtls/repo/library/bignum.c:0:1
	mvn	r0, #7
	b	.LBB21_10
.Lfunc_end21:
	.size	mbedtls_mpi_write_binary, .Lfunc_end21-mbedtls_mpi_write_binary
	.cfi_endproc
	.cantunwind
	.fnend
                                        @ -- End function
	.section	.text.mbedtls_mpi_shift_l,"ax",%progbits
	.hidden	mbedtls_mpi_shift_l             @ -- Begin function mbedtls_mpi_shift_l
	.globl	mbedtls_mpi_shift_l
	.p2align	1
	.type	mbedtls_mpi_shift_l,%function
	.code	16                              @ @mbedtls_mpi_shift_l
	.thumb_func
mbedtls_mpi_shift_l:
.Lfunc_begin22:
	.loc	4 937 0 is_stmt 1               @ ../../../components/network/thread/subg_openthread/third_party/mbedtls/repo/library/bignum.c:937:0
	.fnstart
	.cfi_startproc
@ %bb.0:
	@DEBUG_VALUE: mbedtls_mpi_shift_l:X <- $r0
	@DEBUG_VALUE: mbedtls_mpi_shift_l:count <- $r1
	.save	{r4, r5, r6, r7, lr}
	push	{r4, r5, r6, r7, lr}
	.cfi_def_cfa_offset 20
	.cfi_offset lr, -4
	.cfi_offset r7, -8
	.cfi_offset r6, -12
	.cfi_offset r5, -16
	.cfi_offset r4, -20
	.pad	#4
	sub	sp, #4
	.cfi_def_cfa_offset 24
	mov	r5, r1
.Ltmp458:
	@DEBUG_VALUE: mbedtls_mpi_shift_l:count <- $r5
	mov	r4, r0
.Ltmp459:
	@DEBUG_VALUE: mbedtls_mpi_shift_l:t1 <- undef
	@DEBUG_VALUE: mbedtls_mpi_shift_l:v0 <- undef
	@DEBUG_VALUE: mbedtls_mpi_shift_l:r0 <- 0
	@DEBUG_VALUE: mbedtls_mpi_shift_l:ret <- -110
	@DEBUG_VALUE: mbedtls_mpi_shift_l:count <- $r5
	@DEBUG_VALUE: mbedtls_mpi_shift_l:X <- $r4
	.loc	4 946 9 prologue_end            @ ../../../components/network/thread/subg_openthread/third_party/mbedtls/repo/library/bignum.c:946:9
	bl	mbedtls_mpi_bitlen
.Ltmp460:
	.loc	4 948 12                        @ ../../../components/network/thread/subg_openthread/third_party/mbedtls/repo/library/bignum.c:948:12
	ldr	r1, [r4, #4]
.Ltmp461:
	.loc	4 946 33                        @ ../../../components/network/thread/subg_openthread/third_party/mbedtls/repo/library/bignum.c:946:33
	add	r0, r5
.Ltmp462:
	@DEBUG_VALUE: mbedtls_mpi_shift_l:i <- $r0
	.loc	4 948 9                         @ ../../../components/network/thread/subg_openthread/third_party/mbedtls/repo/library/bignum.c:948:9
	cmp.w	r0, r1, lsl #5
	bls	.LBB22_2
.Ltmp463:
@ %bb.1:
	@DEBUG_VALUE: mbedtls_mpi_shift_l:count <- $r5
	@DEBUG_VALUE: mbedtls_mpi_shift_l:X <- $r4
	@DEBUG_VALUE: mbedtls_mpi_shift_l:i <- $r0
	@DEBUG_VALUE: mbedtls_mpi_shift_l:ret <- -110
	@DEBUG_VALUE: mbedtls_mpi_shift_l:r0 <- 0
	.loc	4 949 9                         @ ../../../components/network/thread/subg_openthread/third_party/mbedtls/repo/library/bignum.c:949:9
	lsrs	r1, r0, #5
	movs	r2, #1
	lsls	r3, r0, #27
	it	ne
	addne.w	r1, r2, r0, lsr #5
	mov	r0, r4
.Ltmp464:
	bl	mbedtls_mpi_grow
.Ltmp465:
	@DEBUG_VALUE: mbedtls_mpi_shift_l:ret <- $r0
	.loc	4 949 9 is_stmt 0               @ ../../../components/network/thread/subg_openthread/third_party/mbedtls/repo/library/bignum.c:949:9
	cbnz	r0, .LBB22_14
.Ltmp466:
.LBB22_2:
	@DEBUG_VALUE: mbedtls_mpi_shift_l:count <- $r5
	@DEBUG_VALUE: mbedtls_mpi_shift_l:X <- $r4
	@DEBUG_VALUE: mbedtls_mpi_shift_l:r0 <- 0
	.loc	4 0 0                           @ ../../../components/network/thread/subg_openthread/third_party/mbedtls/repo/library/bignum.c:0:0
	lsrs	r6, r5, #5
.Ltmp467:
	@DEBUG_VALUE: mbedtls_mpi_shift_l:v0 <- $r6
	and	r7, r5, #31
.Ltmp468:
	@DEBUG_VALUE: mbedtls_mpi_shift_l:t1 <- $r7
	@DEBUG_VALUE: mbedtls_mpi_shift_l:ret <- 0
	.loc	4 956 9 is_stmt 1               @ ../../../components/network/thread/subg_openthread/third_party/mbedtls/repo/library/bignum.c:956:9
	beq	.LBB22_9
.Ltmp469:
@ %bb.3:
	@DEBUG_VALUE: mbedtls_mpi_shift_l:t1 <- $r7
	@DEBUG_VALUE: mbedtls_mpi_shift_l:v0 <- $r6
	@DEBUG_VALUE: mbedtls_mpi_shift_l:count <- $r5
	@DEBUG_VALUE: mbedtls_mpi_shift_l:X <- $r4
	@DEBUG_VALUE: mbedtls_mpi_shift_l:ret <- 0
	@DEBUG_VALUE: mbedtls_mpi_shift_l:r0 <- 0
	.loc	4 958 21                        @ ../../../components/network/thread/subg_openthread/third_party/mbedtls/repo/library/bignum.c:958:21
	ldr	r0, [r4, #4]
.Ltmp470:
	@DEBUG_VALUE: mbedtls_mpi_shift_l:i <- $r0
	.loc	4 958 9 is_stmt 0               @ ../../../components/network/thread/subg_openthread/third_party/mbedtls/repo/library/bignum.c:958:9
	cmp	r0, r6
	bls	.LBB22_6
.Ltmp471:
@ %bb.4:
	@DEBUG_VALUE: mbedtls_mpi_shift_l:t1 <- $r7
	@DEBUG_VALUE: mbedtls_mpi_shift_l:v0 <- $r6
	@DEBUG_VALUE: mbedtls_mpi_shift_l:count <- $r5
	@DEBUG_VALUE: mbedtls_mpi_shift_l:X <- $r4
	@DEBUG_VALUE: mbedtls_mpi_shift_l:i <- $r0
	@DEBUG_VALUE: mbedtls_mpi_shift_l:ret <- 0
	@DEBUG_VALUE: mbedtls_mpi_shift_l:r0 <- 0
	.loc	4 0 9                           @ ../../../components/network/thread/subg_openthread/third_party/mbedtls/repo/library/bignum.c:0:9
	ldr	r2, [r4, #8]
	mvns	r1, r6
	.loc	4 958 9                         @ ../../../components/network/thread/subg_openthread/third_party/mbedtls/repo/library/bignum.c:958:9
	add.w	r1, r2, r1, lsl #2
	subs	r3, r2, #4
.Ltmp472:
	.p2align	2
.LBB22_5:                               @ =>This Inner Loop Header: Depth=1
	@DEBUG_VALUE: mbedtls_mpi_shift_l:t1 <- $r7
	@DEBUG_VALUE: mbedtls_mpi_shift_l:v0 <- $r6
	@DEBUG_VALUE: mbedtls_mpi_shift_l:X <- $r4
	@DEBUG_VALUE: mbedtls_mpi_shift_l:ret <- 0
	@DEBUG_VALUE: mbedtls_mpi_shift_l:r0 <- 0
	@DEBUG_VALUE: mbedtls_mpi_shift_l:i <- $r0
	.loc	4 959 27 is_stmt 1              @ ../../../components/network/thread/subg_openthread/third_party/mbedtls/repo/library/bignum.c:959:27
	ldr.w	r5, [r1, r0, lsl #2]
	.loc	4 959 20 is_stmt 0              @ ../../../components/network/thread/subg_openthread/third_party/mbedtls/repo/library/bignum.c:959:20
	subs	r2, r0, #1
	.loc	4 959 25                        @ ../../../components/network/thread/subg_openthread/third_party/mbedtls/repo/library/bignum.c:959:25
	str.w	r5, [r3, r0, lsl #2]
.Ltmp473:
	@DEBUG_VALUE: mbedtls_mpi_shift_l:i <- $r2
	.loc	4 958 9 is_stmt 1               @ ../../../components/network/thread/subg_openthread/third_party/mbedtls/repo/library/bignum.c:958:9
	cmp	r2, r6
	mov	r0, r2
	bhi	.LBB22_5
	b	.LBB22_7
.Ltmp474:
.LBB22_6:
	@DEBUG_VALUE: mbedtls_mpi_shift_l:t1 <- $r7
	@DEBUG_VALUE: mbedtls_mpi_shift_l:v0 <- $r6
	@DEBUG_VALUE: mbedtls_mpi_shift_l:count <- $r5
	@DEBUG_VALUE: mbedtls_mpi_shift_l:X <- $r4
	@DEBUG_VALUE: mbedtls_mpi_shift_l:i <- $r0
	@DEBUG_VALUE: mbedtls_mpi_shift_l:ret <- 0
	@DEBUG_VALUE: mbedtls_mpi_shift_l:r0 <- 0
	.loc	4 0 0 is_stmt 0                 @ ../../../components/network/thread/subg_openthread/third_party/mbedtls/repo/library/bignum.c:0:0
	mov	r2, r0
.Ltmp475:
.LBB22_7:
	@DEBUG_VALUE: mbedtls_mpi_shift_l:t1 <- $r7
	@DEBUG_VALUE: mbedtls_mpi_shift_l:v0 <- $r6
	@DEBUG_VALUE: mbedtls_mpi_shift_l:X <- $r4
	@DEBUG_VALUE: mbedtls_mpi_shift_l:ret <- 0
	@DEBUG_VALUE: mbedtls_mpi_shift_l:r0 <- 0
	@DEBUG_VALUE: mbedtls_mpi_shift_l:i <- $r2
	.loc	4 961 9 is_stmt 1               @ ../../../components/network/thread/subg_openthread/third_party/mbedtls/repo/library/bignum.c:961:9
	cbz	r2, .LBB22_9
.Ltmp476:
@ %bb.8:
	@DEBUG_VALUE: mbedtls_mpi_shift_l:t1 <- $r7
	@DEBUG_VALUE: mbedtls_mpi_shift_l:v0 <- $r6
	@DEBUG_VALUE: mbedtls_mpi_shift_l:X <- $r4
	@DEBUG_VALUE: mbedtls_mpi_shift_l:i <- $r2
	@DEBUG_VALUE: mbedtls_mpi_shift_l:ret <- 0
	@DEBUG_VALUE: mbedtls_mpi_shift_l:r0 <- 0
	.loc	4 0 9 is_stmt 0                 @ ../../../components/network/thread/subg_openthread/third_party/mbedtls/repo/library/bignum.c:0:9
	ldr	r0, [r4, #8]
	.loc	4 961 9                         @ ../../../components/network/thread/subg_openthread/third_party/mbedtls/repo/library/bignum.c:961:9
	lsls	r1, r2, #2
.Ltmp477:
	.loc	4 962 25 is_stmt 1              @ ../../../components/network/thread/subg_openthread/third_party/mbedtls/repo/library/bignum.c:962:25
	bl	__aeabi_memclr4
.Ltmp478:
	@DEBUG_VALUE: mbedtls_mpi_shift_l:i <- [DW_OP_constu 1, DW_OP_minus, DW_OP_stack_value] undef
.LBB22_9:
	@DEBUG_VALUE: mbedtls_mpi_shift_l:t1 <- $r7
	@DEBUG_VALUE: mbedtls_mpi_shift_l:v0 <- $r6
	@DEBUG_VALUE: mbedtls_mpi_shift_l:X <- $r4
	@DEBUG_VALUE: mbedtls_mpi_shift_l:ret <- 0
	@DEBUG_VALUE: mbedtls_mpi_shift_l:r0 <- 0
	.loc	4 0 25 is_stmt 0                @ ../../../components/network/thread/subg_openthread/third_party/mbedtls/repo/library/bignum.c:0:25
	cbz	r7, .LBB22_13
.Ltmp479:
@ %bb.10:
	@DEBUG_VALUE: mbedtls_mpi_shift_l:t1 <- $r7
	@DEBUG_VALUE: mbedtls_mpi_shift_l:v0 <- $r6
	@DEBUG_VALUE: mbedtls_mpi_shift_l:X <- $r4
	@DEBUG_VALUE: mbedtls_mpi_shift_l:ret <- 0
	@DEBUG_VALUE: mbedtls_mpi_shift_l:r0 <- 0
	@DEBUG_VALUE: mbedtls_mpi_shift_l:r0 <- 0
	@DEBUG_VALUE: mbedtls_mpi_shift_l:i <- $r6
	.loc	4 970 29 is_stmt 1              @ ../../../components/network/thread/subg_openthread/third_party/mbedtls/repo/library/bignum.c:970:29
	ldr	r0, [r4, #4]
.Ltmp480:
	.loc	4 970 9 is_stmt 0               @ ../../../components/network/thread/subg_openthread/third_party/mbedtls/repo/library/bignum.c:970:9
	cmp	r6, r0
	bhs	.LBB22_13
.Ltmp481:
@ %bb.11:
	@DEBUG_VALUE: mbedtls_mpi_shift_l:t1 <- $r7
	@DEBUG_VALUE: mbedtls_mpi_shift_l:i <- $r6
	@DEBUG_VALUE: mbedtls_mpi_shift_l:v0 <- $r6
	@DEBUG_VALUE: mbedtls_mpi_shift_l:X <- $r4
	@DEBUG_VALUE: mbedtls_mpi_shift_l:ret <- 0
	@DEBUG_VALUE: mbedtls_mpi_shift_l:r0 <- 0
	@DEBUG_VALUE: mbedtls_mpi_shift_l:i <- $r6
	.loc	4 0 9                           @ ../../../components/network/thread/subg_openthread/third_party/mbedtls/repo/library/bignum.c:0:9
	ldr	r0, [r4, #8]
	rsb.w	r1, r7, #32
	movs	r2, #0
.Ltmp482:
	.p2align	2
.LBB22_12:                              @ =>This Inner Loop Header: Depth=1
	@DEBUG_VALUE: mbedtls_mpi_shift_l:t1 <- $r7
	@DEBUG_VALUE: mbedtls_mpi_shift_l:i <- $r6
	@DEBUG_VALUE: mbedtls_mpi_shift_l:X <- $r4
	@DEBUG_VALUE: mbedtls_mpi_shift_l:ret <- 0
	@DEBUG_VALUE: mbedtls_mpi_shift_l:r0 <- $r2
	@DEBUG_VALUE: mbedtls_mpi_shift_l:i <- $r6
	.loc	4 972 18 is_stmt 1              @ ../../../components/network/thread/subg_openthread/third_party/mbedtls/repo/library/bignum.c:972:18
	ldr.w	r3, [r0, r6, lsl #2]
	.loc	4 973 21                        @ ../../../components/network/thread/subg_openthread/third_party/mbedtls/repo/library/bignum.c:973:21
	lsl.w	r5, r3, r7
	.loc	4 974 21                        @ ../../../components/network/thread/subg_openthread/third_party/mbedtls/repo/library/bignum.c:974:21
	orrs	r2, r5
.Ltmp483:
	str.w	r2, [r0, r6, lsl #2]
.Ltmp484:
	@DEBUG_VALUE: mbedtls_mpi_shift_l:r0 <- undef
	.loc	4 970 29                        @ ../../../components/network/thread/subg_openthread/third_party/mbedtls/repo/library/bignum.c:970:29
	ldr	r2, [r4, #4]
.Ltmp485:
	.loc	4 972 26                        @ ../../../components/network/thread/subg_openthread/third_party/mbedtls/repo/library/bignum.c:972:26
	lsrs	r3, r1
.Ltmp486:
	@DEBUG_VALUE: mbedtls_mpi_shift_l:r1 <- $r3
	.loc	4 970 33                        @ ../../../components/network/thread/subg_openthread/third_party/mbedtls/repo/library/bignum.c:970:33
	adds	r6, #1
.Ltmp487:
	@DEBUG_VALUE: mbedtls_mpi_shift_l:i <- $r6
	.loc	4 970 9 is_stmt 0               @ ../../../components/network/thread/subg_openthread/third_party/mbedtls/repo/library/bignum.c:970:9
	cmp	r6, r2
	mov	r2, r3
.Ltmp488:
	@DEBUG_VALUE: mbedtls_mpi_shift_l:r1 <- $r2
	.loc	4 0 9                           @ ../../../components/network/thread/subg_openthread/third_party/mbedtls/repo/library/bignum.c:0:9
	blo	.LBB22_12
.Ltmp489:
.LBB22_13:
	@DEBUG_VALUE: mbedtls_mpi_shift_l:t1 <- $r7
	@DEBUG_VALUE: mbedtls_mpi_shift_l:X <- $r4
	@DEBUG_VALUE: mbedtls_mpi_shift_l:ret <- 0
	movs	r0, #0
.Ltmp490:
.LBB22_14:
	@DEBUG_VALUE: mbedtls_mpi_shift_l:X <- $r4
	@DEBUG_VALUE: mbedtls_mpi_shift_l:ret <- $r0
	@DEBUG_LABEL: mbedtls_mpi_shift_l:cleanup
	.loc	4 981 5 is_stmt 1               @ ../../../components/network/thread/subg_openthread/third_party/mbedtls/repo/library/bignum.c:981:5
	add	sp, #4
	pop	{r4, r5, r6, r7, pc}
.Ltmp491:
.Lfunc_end22:
	.size	mbedtls_mpi_shift_l, .Lfunc_end22-mbedtls_mpi_shift_l
	.cfi_endproc
	.cantunwind
	.fnend
                                        @ -- End function
	.section	.text.mbedtls_mpi_shift_r,"ax",%progbits
	.hidden	mbedtls_mpi_shift_r             @ -- Begin function mbedtls_mpi_shift_r
	.globl	mbedtls_mpi_shift_r
	.p2align	1
	.type	mbedtls_mpi_shift_r,%function
	.code	16                              @ @mbedtls_mpi_shift_r
	.thumb_func
mbedtls_mpi_shift_r:
.Lfunc_begin23:
	.loc	4 988 0                         @ ../../../components/network/thread/subg_openthread/third_party/mbedtls/repo/library/bignum.c:988:0
	.fnstart
	.cfi_startproc
@ %bb.0:
	@DEBUG_VALUE: mbedtls_mpi_shift_r:X <- $r0
	@DEBUG_VALUE: mbedtls_mpi_shift_r:count <- $r1
	.save	{r4, r5, r7, lr}
	push	{r4, r5, r7, lr}
	.cfi_def_cfa_offset 16
	.cfi_offset lr, -4
	.cfi_offset r7, -8
	.cfi_offset r5, -12
	.cfi_offset r4, -16
.Ltmp492:
	.loc	4 996 17 prologue_end           @ ../../../components/network/thread/subg_openthread/third_party/mbedtls/repo/library/bignum.c:996:17
	ldr	r3, [r0, #4]
	@DEBUG_VALUE: mbedtls_mpi_shift_r:count <- $r1
	mov	r4, r0
.Ltmp493:
	@DEBUG_VALUE: mbedtls_mpi_shift_r:X <- $r4
	@DEBUG_VALUE: mbedtls_mpi_shift_r:v1 <- undef
	@DEBUG_VALUE: mbedtls_mpi_shift_r:v0 <- undef
	@DEBUG_VALUE: mbedtls_mpi_shift_r:r0 <- 0
	@DEBUG_VALUE: mbedtls_mpi_shift_r:X <- $r4
	.loc	4 996 19 is_stmt 0              @ ../../../components/network/thread/subg_openthread/third_party/mbedtls/repo/library/bignum.c:996:19
	cmp.w	r3, r1, lsr #5
	blo	.LBB23_3
.Ltmp494:
@ %bb.1:
	@DEBUG_VALUE: mbedtls_mpi_shift_r:X <- $r4
	@DEBUG_VALUE: mbedtls_mpi_shift_r:count <- $r1
	@DEBUG_VALUE: mbedtls_mpi_shift_r:r0 <- 0
	.loc	4 0 0                           @ ../../../components/network/thread/subg_openthread/third_party/mbedtls/repo/library/bignum.c:0:0
	ands	r12, r1, #31
.Ltmp495:
	@DEBUG_VALUE: mbedtls_mpi_shift_r:v1 <- $r12
	lsr.w	r1, r1, #5
.Ltmp496:
	@DEBUG_VALUE: mbedtls_mpi_shift_r:count <- [DW_OP_LLVM_entry_value 1] $r1
	@DEBUG_VALUE: mbedtls_mpi_shift_r:v0 <- $r1
	.loc	4 996 35                        @ ../../../components/network/thread/subg_openthread/third_party/mbedtls/repo/library/bignum.c:996:35
	beq	.LBB23_6
.Ltmp497:
@ %bb.2:
	@DEBUG_VALUE: mbedtls_mpi_shift_r:v1 <- $r12
	@DEBUG_VALUE: mbedtls_mpi_shift_r:X <- $r4
	@DEBUG_VALUE: mbedtls_mpi_shift_r:v0 <- $r1
	@DEBUG_VALUE: mbedtls_mpi_shift_r:count <- [DW_OP_LLVM_entry_value 1] $r1
	@DEBUG_VALUE: mbedtls_mpi_shift_r:r0 <- 0
	cmp	r1, r3
	bne	.LBB23_6
.Ltmp498:
.LBB23_3:
	@DEBUG_VALUE: mbedtls_mpi_shift_r:X <- $r4
	@DEBUG_VALUE: mbedtls_mpi_shift_r:r0 <- 0
	@DEBUG_VALUE: mbedtls_mpi_lset:X <- $r4
	@DEBUG_VALUE: mbedtls_mpi_lset:z <- 0
	@DEBUG_VALUE: mbedtls_mpi_lset:ret <- -110
	.loc	4 281 5 is_stmt 1               @ ../../../components/network/thread/subg_openthread/third_party/mbedtls/repo/library/bignum.c:281:5
	mov	r0, r4
	movs	r1, #1
	movs	r5, #1
	bl	mbedtls_mpi_grow
.Ltmp499:
	@DEBUG_VALUE: mbedtls_mpi_lset:ret <- $r0
	.loc	4 281 5 is_stmt 0               @ ../../../components/network/thread/subg_openthread/third_party/mbedtls/repo/library/bignum.c:281:5
	cbz	r0, .LBB23_5
.Ltmp500:
.LBB23_4:
	@DEBUG_VALUE: mbedtls_mpi_shift_r:X <- $r4
	@DEBUG_VALUE: mbedtls_mpi_shift_r:r0 <- 0
	.loc	4 1026 1 is_stmt 1              @ ../../../components/network/thread/subg_openthread/third_party/mbedtls/repo/library/bignum.c:1026:1
	pop	{r4, r5, r7, pc}
.Ltmp501:
.LBB23_5:
	@DEBUG_VALUE: mbedtls_mpi_lset:X <- $r4
	@DEBUG_VALUE: mbedtls_mpi_shift_r:X <- $r4
	@DEBUG_VALUE: mbedtls_mpi_lset:ret <- $r0
	@DEBUG_VALUE: mbedtls_mpi_lset:z <- 0
	@DEBUG_VALUE: mbedtls_mpi_shift_r:r0 <- 0
	.loc	4 282 25                        @ ../../../components/network/thread/subg_openthread/third_party/mbedtls/repo/library/bignum.c:282:25
	ldrd	r1, r0, [r4, #4]
.Ltmp502:
	.loc	4 282 27 is_stmt 0              @ ../../../components/network/thread/subg_openthread/third_party/mbedtls/repo/library/bignum.c:282:27
	lsls	r1, r1, #2
	.loc	4 282 5                         @ ../../../components/network/thread/subg_openthread/third_party/mbedtls/repo/library/bignum.c:282:5
	bl	__aeabi_memclr4
.Ltmp503:
	.loc	4 284 8 is_stmt 1               @ ../../../components/network/thread/subg_openthread/third_party/mbedtls/repo/library/bignum.c:284:8
	ldr	r1, [r4, #8]
	movs	r0, #0
	.loc	4 284 13 is_stmt 0              @ ../../../components/network/thread/subg_openthread/third_party/mbedtls/repo/library/bignum.c:284:13
	str	r0, [r1]
	.loc	4 285 13 is_stmt 1              @ ../../../components/network/thread/subg_openthread/third_party/mbedtls/repo/library/bignum.c:285:13
	str	r5, [r4]
.Ltmp504:
	.loc	4 1026 1                        @ ../../../components/network/thread/subg_openthread/third_party/mbedtls/repo/library/bignum.c:1026:1
	pop	{r4, r5, r7, pc}
.Ltmp505:
.LBB23_6:
	@DEBUG_VALUE: mbedtls_mpi_shift_r:v1 <- $r12
	@DEBUG_VALUE: mbedtls_mpi_shift_r:X <- $r4
	@DEBUG_VALUE: mbedtls_mpi_shift_r:v0 <- $r1
	@DEBUG_VALUE: mbedtls_mpi_shift_r:count <- [DW_OP_LLVM_entry_value 1] $r1
	@DEBUG_VALUE: mbedtls_mpi_shift_r:r0 <- 0
	.loc	4 1002 9                        @ ../../../components/network/thread/subg_openthread/third_party/mbedtls/repo/library/bignum.c:1002:9
	cbz	r1, .LBB23_14
.Ltmp506:
@ %bb.7:
	@DEBUG_VALUE: mbedtls_mpi_shift_r:v1 <- $r12
	@DEBUG_VALUE: mbedtls_mpi_shift_r:X <- $r4
	@DEBUG_VALUE: mbedtls_mpi_shift_r:v0 <- $r1
	@DEBUG_VALUE: mbedtls_mpi_shift_r:count <- [DW_OP_LLVM_entry_value 1] $r1
	@DEBUG_VALUE: mbedtls_mpi_shift_r:r0 <- 0
	@DEBUG_VALUE: mbedtls_mpi_shift_r:i <- 0
	.loc	4 1004 9                        @ ../../../components/network/thread/subg_openthread/third_party/mbedtls/repo/library/bignum.c:1004:9
	cmp	r1, r3
	bne	.LBB23_9
.Ltmp507:
@ %bb.8:
	@DEBUG_VALUE: mbedtls_mpi_shift_r:v1 <- $r12
	@DEBUG_VALUE: mbedtls_mpi_shift_r:X <- $r4
	@DEBUG_VALUE: mbedtls_mpi_shift_r:v0 <- $r1
	@DEBUG_VALUE: mbedtls_mpi_shift_r:i <- 0
	@DEBUG_VALUE: mbedtls_mpi_shift_r:count <- [DW_OP_LLVM_entry_value 1] $r1
	@DEBUG_VALUE: mbedtls_mpi_shift_r:r0 <- 0
	.loc	4 0 9 is_stmt 0                 @ ../../../components/network/thread/subg_openthread/third_party/mbedtls/repo/library/bignum.c:0:9
	movs	r0, #0
.Ltmp508:
	.loc	4 1007 23 is_stmt 1             @ ../../../components/network/thread/subg_openthread/third_party/mbedtls/repo/library/bignum.c:1007:23
	mov	r3, r1
	b	.LBB23_11
.Ltmp509:
.LBB23_9:
	@DEBUG_VALUE: mbedtls_mpi_shift_r:v1 <- $r12
	@DEBUG_VALUE: mbedtls_mpi_shift_r:X <- $r4
	@DEBUG_VALUE: mbedtls_mpi_shift_r:v0 <- $r1
	@DEBUG_VALUE: mbedtls_mpi_shift_r:i <- 0
	@DEBUG_VALUE: mbedtls_mpi_shift_r:count <- [DW_OP_LLVM_entry_value 1] $r1
	@DEBUG_VALUE: mbedtls_mpi_shift_r:r0 <- 0
	.loc	4 0 23 is_stmt 0                @ ../../../components/network/thread/subg_openthread/third_party/mbedtls/repo/library/bignum.c:0:23
	ldr	r2, [r4, #8]
	movs	r0, #0
.Ltmp510:
	.loc	4 1004 9 is_stmt 1              @ ../../../components/network/thread/subg_openthread/third_party/mbedtls/repo/library/bignum.c:1004:9
	add.w	lr, r2, r1, lsl #2
.Ltmp511:
	.p2align	2
.LBB23_10:                              @ =>This Inner Loop Header: Depth=1
	@DEBUG_VALUE: mbedtls_mpi_shift_r:v1 <- $r12
	@DEBUG_VALUE: mbedtls_mpi_shift_r:X <- $r4
	@DEBUG_VALUE: mbedtls_mpi_shift_r:v0 <- $r1
	@DEBUG_VALUE: mbedtls_mpi_shift_r:count <- [DW_OP_LLVM_entry_value 1] $r1
	@DEBUG_VALUE: mbedtls_mpi_shift_r:r0 <- 0
	@DEBUG_VALUE: mbedtls_mpi_shift_r:i <- $r0
	.loc	4 1005 23                       @ ../../../components/network/thread/subg_openthread/third_party/mbedtls/repo/library/bignum.c:1005:23
	ldr.w	r3, [lr, r0, lsl #2]
	.loc	4 1005 21 is_stmt 0             @ ../../../components/network/thread/subg_openthread/third_party/mbedtls/repo/library/bignum.c:1005:21
	str.w	r3, [r2, r0, lsl #2]
	.loc	4 1004 28 is_stmt 1             @ ../../../components/network/thread/subg_openthread/third_party/mbedtls/repo/library/bignum.c:1004:28
	ldr	r3, [r4, #4]
	.loc	4 1004 37 is_stmt 0             @ ../../../components/network/thread/subg_openthread/third_party/mbedtls/repo/library/bignum.c:1004:37
	adds	r0, #1
.Ltmp512:
	@DEBUG_VALUE: mbedtls_mpi_shift_r:i <- $r0
	.loc	4 1004 30                       @ ../../../components/network/thread/subg_openthread/third_party/mbedtls/repo/library/bignum.c:1004:30
	subs	r5, r3, r1
.Ltmp513:
	.loc	4 1004 9                        @ ../../../components/network/thread/subg_openthread/third_party/mbedtls/repo/library/bignum.c:1004:9
	cmp	r0, r5
	blo	.LBB23_10
.Ltmp514:
.LBB23_11:
	@DEBUG_VALUE: mbedtls_mpi_shift_r:v1 <- $r12
	@DEBUG_VALUE: mbedtls_mpi_shift_r:X <- $r4
	@DEBUG_VALUE: mbedtls_mpi_shift_r:v0 <- $r1
	@DEBUG_VALUE: mbedtls_mpi_shift_r:count <- [DW_OP_LLVM_entry_value 1] $r1
	@DEBUG_VALUE: mbedtls_mpi_shift_r:r0 <- 0
	@DEBUG_VALUE: mbedtls_mpi_shift_r:i <- $r0
	.loc	4 1007 9 is_stmt 1              @ ../../../components/network/thread/subg_openthread/third_party/mbedtls/repo/library/bignum.c:1007:9
	cmp	r0, r3
	bhs	.LBB23_14
.Ltmp515:
@ %bb.12:
	@DEBUG_VALUE: mbedtls_mpi_shift_r:v1 <- $r12
	@DEBUG_VALUE: mbedtls_mpi_shift_r:X <- $r4
	@DEBUG_VALUE: mbedtls_mpi_shift_r:v0 <- $r1
	@DEBUG_VALUE: mbedtls_mpi_shift_r:i <- $r0
	@DEBUG_VALUE: mbedtls_mpi_shift_r:count <- [DW_OP_LLVM_entry_value 1] $r1
	@DEBUG_VALUE: mbedtls_mpi_shift_r:r0 <- 0
	.loc	4 0 9 is_stmt 0                 @ ../../../components/network/thread/subg_openthread/third_party/mbedtls/repo/library/bignum.c:0:9
	ldr	r1, [r4, #8]
.Ltmp516:
	movs	r2, #0
.Ltmp517:
	.p2align	2
.LBB23_13:                              @ =>This Inner Loop Header: Depth=1
	@DEBUG_VALUE: mbedtls_mpi_shift_r:v1 <- $r12
	@DEBUG_VALUE: mbedtls_mpi_shift_r:X <- $r4
	@DEBUG_VALUE: mbedtls_mpi_shift_r:i <- $r0
	@DEBUG_VALUE: mbedtls_mpi_shift_r:count <- [DW_OP_LLVM_entry_value 1] $r1
	@DEBUG_VALUE: mbedtls_mpi_shift_r:r0 <- 0
	@DEBUG_VALUE: mbedtls_mpi_shift_r:i <- $r0
	.loc	4 1008 21 is_stmt 1             @ ../../../components/network/thread/subg_openthread/third_party/mbedtls/repo/library/bignum.c:1008:21
	str.w	r2, [r1, r0, lsl #2]
	.loc	4 1007 23                       @ ../../../components/network/thread/subg_openthread/third_party/mbedtls/repo/library/bignum.c:1007:23
	ldr	r3, [r4, #4]
	.loc	4 1007 27 is_stmt 0             @ ../../../components/network/thread/subg_openthread/third_party/mbedtls/repo/library/bignum.c:1007:27
	adds	r0, #1
.Ltmp518:
	@DEBUG_VALUE: mbedtls_mpi_shift_r:i <- $r0
	.loc	4 1007 9                        @ ../../../components/network/thread/subg_openthread/third_party/mbedtls/repo/library/bignum.c:1007:9
	cmp	r0, r3
	blo	.LBB23_13
.Ltmp519:
.LBB23_14:
	@DEBUG_VALUE: mbedtls_mpi_shift_r:v1 <- $r12
	@DEBUG_VALUE: mbedtls_mpi_shift_r:X <- $r4
	@DEBUG_VALUE: mbedtls_mpi_shift_r:count <- [DW_OP_LLVM_entry_value 1] $r1
	@DEBUG_VALUE: mbedtls_mpi_shift_r:r0 <- 0
	.loc	4 1014 9 is_stmt 1              @ ../../../components/network/thread/subg_openthread/third_party/mbedtls/repo/library/bignum.c:1014:9
	cmp.w	r12, #0
	mov.w	r0, #0
.Ltmp520:
	@DEBUG_VALUE: mbedtls_mpi_shift_r:i <- $r3
	@DEBUG_VALUE: mbedtls_mpi_shift_r:r0 <- 0
	it	ne
	cmpne	r3, #0
	beq	.LBB23_4
.Ltmp521:
@ %bb.15:
	@DEBUG_VALUE: mbedtls_mpi_shift_r:v1 <- $r12
	@DEBUG_VALUE: mbedtls_mpi_shift_r:X <- $r4
	@DEBUG_VALUE: mbedtls_mpi_shift_r:i <- $r3
	@DEBUG_VALUE: mbedtls_mpi_shift_r:count <- [DW_OP_LLVM_entry_value 1] $r1
	@DEBUG_VALUE: mbedtls_mpi_shift_r:r0 <- 0
	.loc	4 0 9 is_stmt 0                 @ ../../../components/network/thread/subg_openthread/third_party/mbedtls/repo/library/bignum.c:0:9
	ldr	r1, [r4, #8]
	rsb.w	r0, r12, #32
.Ltmp522:
	.loc	4 1016 9 is_stmt 1              @ ../../../components/network/thread/subg_openthread/third_party/mbedtls/repo/library/bignum.c:1016:9
	subs	r1, #4
	movs	r2, #0
.Ltmp523:
	.p2align	2
.LBB23_16:                              @ =>This Inner Loop Header: Depth=1
	@DEBUG_VALUE: mbedtls_mpi_shift_r:v1 <- $r12
	@DEBUG_VALUE: mbedtls_mpi_shift_r:count <- [DW_OP_LLVM_entry_value 1] $r1
	@DEBUG_VALUE: mbedtls_mpi_shift_r:r0 <- $r2
	@DEBUG_VALUE: mbedtls_mpi_shift_r:i <- $r3
	.loc	4 1018 18                       @ ../../../components/network/thread/subg_openthread/third_party/mbedtls/repo/library/bignum.c:1018:18
	ldr.w	r5, [r1, r3, lsl #2]
	.loc	4 1019 25                       @ ../../../components/network/thread/subg_openthread/third_party/mbedtls/repo/library/bignum.c:1019:25
	lsr.w	r4, r5, r12
	.loc	4 1020 25                       @ ../../../components/network/thread/subg_openthread/third_party/mbedtls/repo/library/bignum.c:1020:25
	orrs	r2, r4
.Ltmp524:
	str.w	r2, [r1, r3, lsl #2]
.Ltmp525:
	@DEBUG_VALUE: mbedtls_mpi_shift_r:i <- undef
	@DEBUG_VALUE: mbedtls_mpi_shift_r:r0 <- undef
	.loc	4 1018 25                       @ ../../../components/network/thread/subg_openthread/third_party/mbedtls/repo/library/bignum.c:1018:25
	subs	r3, #1
	.loc	4 1018 30 is_stmt 0             @ ../../../components/network/thread/subg_openthread/third_party/mbedtls/repo/library/bignum.c:1018:30
	lsl.w	r2, r5, r0
.Ltmp526:
	@DEBUG_VALUE: mbedtls_mpi_shift_r:r1 <- $r2
	@DEBUG_VALUE: mbedtls_mpi_shift_r:r1 <- $r2
	.loc	4 0 30                          @ ../../../components/network/thread/subg_openthread/third_party/mbedtls/repo/library/bignum.c:0:30
	bne	.LBB23_16
.Ltmp527:
@ %bb.17:
	@DEBUG_VALUE: mbedtls_mpi_shift_r:v1 <- $r12
	@DEBUG_VALUE: mbedtls_mpi_shift_r:r1 <- $r2
	@DEBUG_VALUE: mbedtls_mpi_shift_r:count <- [DW_OP_LLVM_entry_value 1] $r1
	movs	r0, #0
	.loc	4 1026 1 is_stmt 1              @ ../../../components/network/thread/subg_openthread/third_party/mbedtls/repo/library/bignum.c:1026:1
	pop	{r4, r5, r7, pc}
.Ltmp528:
.Lfunc_end23:
	.size	mbedtls_mpi_shift_r, .Lfunc_end23-mbedtls_mpi_shift_r
	.cfi_endproc
	.cantunwind
	.fnend
                                        @ -- End function
	.section	.text.mbedtls_mpi_cmp_abs,"ax",%progbits
	.hidden	mbedtls_mpi_cmp_abs             @ -- Begin function mbedtls_mpi_cmp_abs
	.globl	mbedtls_mpi_cmp_abs
	.p2align	1
	.type	mbedtls_mpi_cmp_abs,%function
	.code	16                              @ @mbedtls_mpi_cmp_abs
	.thumb_func
mbedtls_mpi_cmp_abs:
.Lfunc_begin24:
	.loc	4 1032 0                        @ ../../../components/network/thread/subg_openthread/third_party/mbedtls/repo/library/bignum.c:1032:0
	.fnstart
	.cfi_startproc
@ %bb.0:
	@DEBUG_VALUE: mbedtls_mpi_cmp_abs:X <- $r0
	@DEBUG_VALUE: mbedtls_mpi_cmp_abs:X <- $r0
	@DEBUG_VALUE: mbedtls_mpi_cmp_abs:Y <- $r1
	.save	{r4, lr}
	push	{r4, lr}
	.cfi_def_cfa_offset 8
	.cfi_offset lr, -4
	.cfi_offset r4, -8
.Ltmp529:
	.loc	4 1037 17 prologue_end          @ ../../../components/network/thread/subg_openthread/third_party/mbedtls/repo/library/bignum.c:1037:17
	ldr	r2, [r0, #4]
.Ltmp530:
	@DEBUG_VALUE: mbedtls_mpi_cmp_abs:i <- $r2
	@DEBUG_VALUE: mbedtls_mpi_cmp_abs:Y <- $r1
	.loc	4 1037 10 is_stmt 0             @ ../../../components/network/thread/subg_openthread/third_party/mbedtls/repo/library/bignum.c:1037:10
	subs	r3, r2, #1
.Ltmp531:
	.p2align	2
.LBB24_1:                               @ =>This Inner Loop Header: Depth=1
	@DEBUG_VALUE: mbedtls_mpi_cmp_abs:Y <- $r1
	@DEBUG_VALUE: mbedtls_mpi_cmp_abs:X <- $r0
	.loc	4 0 0                           @ ../../../components/network/thread/subg_openthread/third_party/mbedtls/repo/library/bignum.c:0:0
	mov	r2, r3
.Ltmp532:
	@DEBUG_VALUE: mbedtls_mpi_cmp_abs:i <- [DW_OP_plus_uconst 1, DW_OP_stack_value] $r2
	.loc	4 1037 5                        @ ../../../components/network/thread/subg_openthread/third_party/mbedtls/repo/library/bignum.c:1037:5
	adds.w	r12, r3, #1
	beq	.LBB24_3
.Ltmp533:
@ %bb.2:                                @   in Loop: Header=BB24_1 Depth=1
	@DEBUG_VALUE: mbedtls_mpi_cmp_abs:i <- [DW_OP_plus_uconst 1, DW_OP_stack_value] $r2
	@DEBUG_VALUE: mbedtls_mpi_cmp_abs:Y <- $r1
	@DEBUG_VALUE: mbedtls_mpi_cmp_abs:X <- $r0
	.loc	4 1038 16 is_stmt 1             @ ../../../components/network/thread/subg_openthread/third_party/mbedtls/repo/library/bignum.c:1038:16
	ldr	r3, [r0, #8]
	.loc	4 1038 13 is_stmt 0             @ ../../../components/network/thread/subg_openthread/third_party/mbedtls/repo/library/bignum.c:1038:13
	ldr.w	r3, [r3, r2, lsl #2]
.Ltmp534:
	.loc	4 1038 13                       @ ../../../components/network/thread/subg_openthread/third_party/mbedtls/repo/library/bignum.c:1038:13
	cmp	r3, #0
	sub.w	r3, r2, #1
	beq	.LBB24_1
.Ltmp535:
.LBB24_3:
	@DEBUG_VALUE: mbedtls_mpi_cmp_abs:i <- [DW_OP_plus_uconst 1, DW_OP_stack_value] $r2
	@DEBUG_VALUE: mbedtls_mpi_cmp_abs:Y <- $r1
	@DEBUG_VALUE: mbedtls_mpi_cmp_abs:X <- $r0
	.loc	4 1041 17 is_stmt 1             @ ../../../components/network/thread/subg_openthread/third_party/mbedtls/repo/library/bignum.c:1041:17
	ldr	r3, [r1, #4]
.Ltmp536:
	@DEBUG_VALUE: mbedtls_mpi_cmp_abs:j <- $r3
	.loc	4 1041 10 is_stmt 0             @ ../../../components/network/thread/subg_openthread/third_party/mbedtls/repo/library/bignum.c:1041:10
	subs	r3, #1
.Ltmp537:
	.p2align	2
.LBB24_4:                               @ =>This Inner Loop Header: Depth=1
	@DEBUG_VALUE: mbedtls_mpi_cmp_abs:i <- [DW_OP_plus_uconst 1, DW_OP_stack_value] $r2
	@DEBUG_VALUE: mbedtls_mpi_cmp_abs:Y <- $r1
	@DEBUG_VALUE: mbedtls_mpi_cmp_abs:X <- $r0
	@DEBUG_VALUE: mbedtls_mpi_cmp_abs:j <- [DW_OP_plus_uconst 1, DW_OP_stack_value] $r3
	.loc	4 1041 5                        @ ../../../components/network/thread/subg_openthread/third_party/mbedtls/repo/library/bignum.c:1041:5
	adds.w	lr, r3, #1
	beq	.LBB24_6
.Ltmp538:
@ %bb.5:                                @   in Loop: Header=BB24_4 Depth=1
	@DEBUG_VALUE: mbedtls_mpi_cmp_abs:j <- [DW_OP_plus_uconst 1, DW_OP_stack_value] $r3
	@DEBUG_VALUE: mbedtls_mpi_cmp_abs:i <- [DW_OP_plus_uconst 1, DW_OP_stack_value] $r2
	@DEBUG_VALUE: mbedtls_mpi_cmp_abs:Y <- $r1
	@DEBUG_VALUE: mbedtls_mpi_cmp_abs:X <- $r0
	.loc	4 1042 16 is_stmt 1             @ ../../../components/network/thread/subg_openthread/third_party/mbedtls/repo/library/bignum.c:1042:16
	ldr	r4, [r1, #8]
	.loc	4 1042 13 is_stmt 0             @ ../../../components/network/thread/subg_openthread/third_party/mbedtls/repo/library/bignum.c:1042:13
	ldr.w	r4, [r4, r3, lsl #2]
.Ltmp539:
	.loc	4 1042 13                       @ ../../../components/network/thread/subg_openthread/third_party/mbedtls/repo/library/bignum.c:1042:13
	subs	r3, #1
.Ltmp540:
	cmp	r4, #0
	beq	.LBB24_4
.Ltmp541:
.LBB24_6:
	@DEBUG_VALUE: mbedtls_mpi_cmp_abs:i <- [DW_OP_plus_uconst 1, DW_OP_stack_value] $r2
	@DEBUG_VALUE: mbedtls_mpi_cmp_abs:Y <- $r1
	@DEBUG_VALUE: mbedtls_mpi_cmp_abs:X <- $r0
	.loc	4 1045 16 is_stmt 1             @ ../../../components/network/thread/subg_openthread/third_party/mbedtls/repo/library/bignum.c:1045:16
	orrs.w	r3, lr, r12
	beq	.LBB24_14
.Ltmp542:
@ %bb.7:
	@DEBUG_VALUE: mbedtls_mpi_cmp_abs:i <- [DW_OP_plus_uconst 1, DW_OP_stack_value] $r2
	@DEBUG_VALUE: mbedtls_mpi_cmp_abs:Y <- $r1
	@DEBUG_VALUE: mbedtls_mpi_cmp_abs:X <- $r0
	.loc	4 1048 9                        @ ../../../components/network/thread/subg_openthread/third_party/mbedtls/repo/library/bignum.c:1048:9
	cmp	r12, lr
	bls	.LBB24_9
.Ltmp543:
.LBB24_8:
	@DEBUG_VALUE: mbedtls_mpi_cmp_abs:Y <- $r1
	@DEBUG_VALUE: mbedtls_mpi_cmp_abs:X <- $r0
	.loc	4 0 9 is_stmt 0                 @ ../../../components/network/thread/subg_openthread/third_party/mbedtls/repo/library/bignum.c:0:9
	movs	r0, #1
.Ltmp544:
	@DEBUG_VALUE: mbedtls_mpi_cmp_abs:X <- [DW_OP_LLVM_entry_value 1] $r0
	.loc	4 1058 1 is_stmt 1              @ ../../../components/network/thread/subg_openthread/third_party/mbedtls/repo/library/bignum.c:1058:1
	pop	{r4, pc}
.Ltmp545:
.LBB24_9:
	@DEBUG_VALUE: mbedtls_mpi_cmp_abs:i <- [DW_OP_plus_uconst 1, DW_OP_stack_value] $r2
	@DEBUG_VALUE: mbedtls_mpi_cmp_abs:Y <- $r1
	@DEBUG_VALUE: mbedtls_mpi_cmp_abs:X <- $r0
	.loc	4 1049 9                        @ ../../../components/network/thread/subg_openthread/third_party/mbedtls/repo/library/bignum.c:1049:9
	cmp	lr, r12
	bls	.LBB24_11
.Ltmp546:
.LBB24_10:
	@DEBUG_VALUE: mbedtls_mpi_cmp_abs:Y <- $r1
	@DEBUG_VALUE: mbedtls_mpi_cmp_abs:X <- $r0
	.loc	4 0 9 is_stmt 0                 @ ../../../components/network/thread/subg_openthread/third_party/mbedtls/repo/library/bignum.c:0:9
	mov.w	r0, #-1
.Ltmp547:
	@DEBUG_VALUE: mbedtls_mpi_cmp_abs:X <- [DW_OP_LLVM_entry_value 1] $r0
	.loc	4 1058 1 is_stmt 1              @ ../../../components/network/thread/subg_openthread/third_party/mbedtls/repo/library/bignum.c:1058:1
	pop	{r4, pc}
.Ltmp548:
	.p2align	2
.LBB24_11:                              @ =>This Inner Loop Header: Depth=1
	@DEBUG_VALUE: mbedtls_mpi_cmp_abs:Y <- $r1
	@DEBUG_VALUE: mbedtls_mpi_cmp_abs:X <- $r0
	@DEBUG_VALUE: mbedtls_mpi_cmp_abs:i <- undef
	.loc	4 1051 5                        @ ../../../components/network/thread/subg_openthread/third_party/mbedtls/repo/library/bignum.c:1051:5
	adds	r3, r2, #1
	beq	.LBB24_14
.Ltmp549:
@ %bb.12:                               @   in Loop: Header=BB24_11 Depth=1
	@DEBUG_VALUE: mbedtls_mpi_cmp_abs:Y <- $r1
	@DEBUG_VALUE: mbedtls_mpi_cmp_abs:X <- $r0
	.loc	4 1053 16                       @ ../../../components/network/thread/subg_openthread/third_party/mbedtls/repo/library/bignum.c:1053:16
	ldr	r3, [r0, #8]
	.loc	4 1053 30 is_stmt 0             @ ../../../components/network/thread/subg_openthread/third_party/mbedtls/repo/library/bignum.c:1053:30
	ldr	r4, [r1, #8]
	.loc	4 1053 13                       @ ../../../components/network/thread/subg_openthread/third_party/mbedtls/repo/library/bignum.c:1053:13
	ldr.w	r12, [r3, r2, lsl #2]
	.loc	4 1053 27                       @ ../../../components/network/thread/subg_openthread/third_party/mbedtls/repo/library/bignum.c:1053:27
	ldr.w	r3, [r4, r2, lsl #2]
.Ltmp550:
	.loc	4 1053 13                       @ ../../../components/network/thread/subg_openthread/third_party/mbedtls/repo/library/bignum.c:1053:13
	cmp	r12, r3
	bhi	.LBB24_8
.Ltmp551:
@ %bb.13:                               @   in Loop: Header=BB24_11 Depth=1
	@DEBUG_VALUE: mbedtls_mpi_cmp_abs:Y <- $r1
	@DEBUG_VALUE: mbedtls_mpi_cmp_abs:X <- $r0
	.loc	4 1054 13 is_stmt 1             @ ../../../components/network/thread/subg_openthread/third_party/mbedtls/repo/library/bignum.c:1054:13
	cmp	r12, r3
	sub.w	r2, r2, #1
	bhs	.LBB24_11
	b	.LBB24_10
.Ltmp552:
.LBB24_14:
	@DEBUG_VALUE: mbedtls_mpi_cmp_abs:Y <- $r1
	@DEBUG_VALUE: mbedtls_mpi_cmp_abs:X <- $r0
	.loc	4 0 13 is_stmt 0                @ ../../../components/network/thread/subg_openthread/third_party/mbedtls/repo/library/bignum.c:0:13
	movs	r0, #0
.Ltmp553:
	@DEBUG_VALUE: mbedtls_mpi_cmp_abs:X <- [DW_OP_LLVM_entry_value 1] $r0
	.loc	4 1058 1 is_stmt 1              @ ../../../components/network/thread/subg_openthread/third_party/mbedtls/repo/library/bignum.c:1058:1
	pop	{r4, pc}
.Ltmp554:
.Lfunc_end24:
	.size	mbedtls_mpi_cmp_abs, .Lfunc_end24-mbedtls_mpi_cmp_abs
	.cfi_endproc
	.cantunwind
	.fnend
                                        @ -- End function
	.section	.text.mbedtls_mpi_cmp_mpi,"ax",%progbits
	.hidden	mbedtls_mpi_cmp_mpi             @ -- Begin function mbedtls_mpi_cmp_mpi
	.globl	mbedtls_mpi_cmp_mpi
	.p2align	1
	.type	mbedtls_mpi_cmp_mpi,%function
	.code	16                              @ @mbedtls_mpi_cmp_mpi
	.thumb_func
mbedtls_mpi_cmp_mpi:
.Lfunc_begin25:
	.loc	4 1064 0                        @ ../../../components/network/thread/subg_openthread/third_party/mbedtls/repo/library/bignum.c:1064:0
	.fnstart
	.cfi_startproc
@ %bb.0:
	@DEBUG_VALUE: mbedtls_mpi_cmp_mpi:X <- $r0
	@DEBUG_VALUE: mbedtls_mpi_cmp_mpi:X <- $r0
	@DEBUG_VALUE: mbedtls_mpi_cmp_mpi:Y <- $r1
	.save	{r4, lr}
	push	{r4, lr}
	.cfi_def_cfa_offset 8
	.cfi_offset lr, -4
	.cfi_offset r4, -8
.Ltmp555:
	.loc	4 1069 17 prologue_end          @ ../../../components/network/thread/subg_openthread/third_party/mbedtls/repo/library/bignum.c:1069:17
	ldr	r2, [r0, #4]
.Ltmp556:
	@DEBUG_VALUE: mbedtls_mpi_cmp_mpi:i <- $r2
	@DEBUG_VALUE: mbedtls_mpi_cmp_mpi:Y <- $r1
	.loc	4 1069 10 is_stmt 0             @ ../../../components/network/thread/subg_openthread/third_party/mbedtls/repo/library/bignum.c:1069:10
	subs	r2, #1
.Ltmp557:
	.p2align	2
.LBB25_1:                               @ =>This Inner Loop Header: Depth=1
	@DEBUG_VALUE: mbedtls_mpi_cmp_mpi:Y <- $r1
	@DEBUG_VALUE: mbedtls_mpi_cmp_mpi:X <- $r0
	.loc	4 0 0                           @ ../../../components/network/thread/subg_openthread/third_party/mbedtls/repo/library/bignum.c:0:0
	mov	lr, r2
.Ltmp558:
	@DEBUG_VALUE: mbedtls_mpi_cmp_mpi:i <- [DW_OP_plus_uconst 1, DW_OP_stack_value] $lr
	.loc	4 1069 5                        @ ../../../components/network/thread/subg_openthread/third_party/mbedtls/repo/library/bignum.c:1069:5
	adds.w	r12, r2, #1
	beq	.LBB25_3
.Ltmp559:
@ %bb.2:                                @   in Loop: Header=BB25_1 Depth=1
	@DEBUG_VALUE: mbedtls_mpi_cmp_mpi:Y <- $r1
	@DEBUG_VALUE: mbedtls_mpi_cmp_mpi:X <- $r0
	@DEBUG_VALUE: mbedtls_mpi_cmp_mpi:i <- [DW_OP_plus_uconst 1, DW_OP_stack_value] $lr
	.loc	4 1070 16 is_stmt 1             @ ../../../components/network/thread/subg_openthread/third_party/mbedtls/repo/library/bignum.c:1070:16
	ldr	r2, [r0, #8]
	.loc	4 1070 13 is_stmt 0             @ ../../../components/network/thread/subg_openthread/third_party/mbedtls/repo/library/bignum.c:1070:13
	ldr.w	r2, [r2, lr, lsl #2]
.Ltmp560:
	.loc	4 1070 13                       @ ../../../components/network/thread/subg_openthread/third_party/mbedtls/repo/library/bignum.c:1070:13
	cmp	r2, #0
	sub.w	r2, lr, #1
	beq	.LBB25_1
.Ltmp561:
.LBB25_3:
	@DEBUG_VALUE: mbedtls_mpi_cmp_mpi:Y <- $r1
	@DEBUG_VALUE: mbedtls_mpi_cmp_mpi:X <- $r0
	@DEBUG_VALUE: mbedtls_mpi_cmp_mpi:i <- [DW_OP_plus_uconst 1, DW_OP_stack_value] $lr
	.loc	4 1073 17 is_stmt 1             @ ../../../components/network/thread/subg_openthread/third_party/mbedtls/repo/library/bignum.c:1073:17
	ldr	r2, [r1, #4]
.Ltmp562:
	@DEBUG_VALUE: mbedtls_mpi_cmp_mpi:j <- $r2
	.loc	4 1073 10 is_stmt 0             @ ../../../components/network/thread/subg_openthread/third_party/mbedtls/repo/library/bignum.c:1073:10
	subs	r3, r2, #1
.Ltmp563:
	.p2align	2
.LBB25_4:                               @ =>This Inner Loop Header: Depth=1
	@DEBUG_VALUE: mbedtls_mpi_cmp_mpi:Y <- $r1
	@DEBUG_VALUE: mbedtls_mpi_cmp_mpi:X <- $r0
	@DEBUG_VALUE: mbedtls_mpi_cmp_mpi:i <- [DW_OP_plus_uconst 1, DW_OP_stack_value] $lr
	@DEBUG_VALUE: mbedtls_mpi_cmp_mpi:j <- [DW_OP_plus_uconst 1, DW_OP_stack_value] $r3
	.loc	4 1073 5                        @ ../../../components/network/thread/subg_openthread/third_party/mbedtls/repo/library/bignum.c:1073:5
	adds	r2, r3, #1
	beq	.LBB25_6
.Ltmp564:
@ %bb.5:                                @   in Loop: Header=BB25_4 Depth=1
	@DEBUG_VALUE: mbedtls_mpi_cmp_mpi:j <- [DW_OP_plus_uconst 1, DW_OP_stack_value] $r3
	@DEBUG_VALUE: mbedtls_mpi_cmp_mpi:Y <- $r1
	@DEBUG_VALUE: mbedtls_mpi_cmp_mpi:X <- $r0
	@DEBUG_VALUE: mbedtls_mpi_cmp_mpi:i <- [DW_OP_plus_uconst 1, DW_OP_stack_value] $lr
	.loc	4 1074 16 is_stmt 1             @ ../../../components/network/thread/subg_openthread/third_party/mbedtls/repo/library/bignum.c:1074:16
	ldr	r4, [r1, #8]
	.loc	4 1074 13 is_stmt 0             @ ../../../components/network/thread/subg_openthread/third_party/mbedtls/repo/library/bignum.c:1074:13
	ldr.w	r4, [r4, r3, lsl #2]
.Ltmp565:
	.loc	4 1074 13                       @ ../../../components/network/thread/subg_openthread/third_party/mbedtls/repo/library/bignum.c:1074:13
	subs	r3, #1
.Ltmp566:
	cmp	r4, #0
	beq	.LBB25_4
.Ltmp567:
.LBB25_6:
	@DEBUG_VALUE: mbedtls_mpi_cmp_mpi:Y <- $r1
	@DEBUG_VALUE: mbedtls_mpi_cmp_mpi:X <- $r0
	@DEBUG_VALUE: mbedtls_mpi_cmp_mpi:i <- [DW_OP_plus_uconst 1, DW_OP_stack_value] $lr
	.loc	4 1077 16 is_stmt 1             @ ../../../components/network/thread/subg_openthread/third_party/mbedtls/repo/library/bignum.c:1077:16
	orrs.w	r3, r2, r12
	beq	.LBB25_21
.Ltmp568:
@ %bb.7:
	@DEBUG_VALUE: mbedtls_mpi_cmp_mpi:Y <- $r1
	@DEBUG_VALUE: mbedtls_mpi_cmp_mpi:X <- $r0
	@DEBUG_VALUE: mbedtls_mpi_cmp_mpi:i <- [DW_OP_plus_uconst 1, DW_OP_stack_value] $lr
	.loc	4 1080 9                        @ ../../../components/network/thread/subg_openthread/third_party/mbedtls/repo/library/bignum.c:1080:9
	cmp	r12, r2
	bls	.LBB25_9
.Ltmp569:
@ %bb.8:
	@DEBUG_VALUE: mbedtls_mpi_cmp_mpi:Y <- $r1
	@DEBUG_VALUE: mbedtls_mpi_cmp_mpi:X <- $r0
	@DEBUG_VALUE: mbedtls_mpi_cmp_mpi:i <- [DW_OP_plus_uconst 1, DW_OP_stack_value] $lr
	.loc	4 1080 29 is_stmt 0             @ ../../../components/network/thread/subg_openthread/third_party/mbedtls/repo/library/bignum.c:1080:29
	ldr	r2, [r0]
	b	.LBB25_22
.Ltmp570:
.LBB25_9:
	@DEBUG_VALUE: mbedtls_mpi_cmp_mpi:Y <- $r1
	@DEBUG_VALUE: mbedtls_mpi_cmp_mpi:X <- $r0
	@DEBUG_VALUE: mbedtls_mpi_cmp_mpi:i <- [DW_OP_plus_uconst 1, DW_OP_stack_value] $lr
	.loc	4 1081 9 is_stmt 1              @ ../../../components/network/thread/subg_openthread/third_party/mbedtls/repo/library/bignum.c:1081:9
	cmp	r2, r12
	bls	.LBB25_11
.Ltmp571:
@ %bb.10:
	@DEBUG_VALUE: mbedtls_mpi_cmp_mpi:Y <- $r1
	@DEBUG_VALUE: mbedtls_mpi_cmp_mpi:X <- $r0
	@DEBUG_VALUE: mbedtls_mpi_cmp_mpi:i <- [DW_OP_plus_uconst 1, DW_OP_stack_value] $lr
	.loc	4 1081 29 is_stmt 0             @ ../../../components/network/thread/subg_openthread/third_party/mbedtls/repo/library/bignum.c:1081:29
	ldr	r0, [r1]
.Ltmp572:
	@DEBUG_VALUE: mbedtls_mpi_cmp_mpi:X <- [DW_OP_LLVM_entry_value 1] $r0
	.loc	4 1081 25                       @ ../../../components/network/thread/subg_openthread/third_party/mbedtls/repo/library/bignum.c:1081:25
	rsbs	r2, r0, #0
	b	.LBB25_22
.Ltmp573:
.LBB25_11:
	@DEBUG_VALUE: mbedtls_mpi_cmp_mpi:Y <- $r1
	@DEBUG_VALUE: mbedtls_mpi_cmp_mpi:X <- $r0
	@DEBUG_VALUE: mbedtls_mpi_cmp_mpi:i <- [DW_OP_plus_uconst 1, DW_OP_stack_value] $lr
	.loc	4 1083 12 is_stmt 1             @ ../../../components/network/thread/subg_openthread/third_party/mbedtls/repo/library/bignum.c:1083:12
	ldr	r2, [r0]
.Ltmp574:
	.loc	4 0 0 is_stmt 0                 @ ../../../components/network/thread/subg_openthread/third_party/mbedtls/repo/library/bignum.c:0:0
	ldr	r3, [r1]
.Ltmp575:
	.loc	4 1083 18                       @ ../../../components/network/thread/subg_openthread/third_party/mbedtls/repo/library/bignum.c:1083:18
	cmp	r2, #1
	blt	.LBB25_14
.Ltmp576:
@ %bb.12:
	@DEBUG_VALUE: mbedtls_mpi_cmp_mpi:Y <- $r1
	@DEBUG_VALUE: mbedtls_mpi_cmp_mpi:X <- $r0
	@DEBUG_VALUE: mbedtls_mpi_cmp_mpi:i <- [DW_OP_plus_uconst 1, DW_OP_stack_value] $lr
	.loc	4 1083 9                        @ ../../../components/network/thread/subg_openthread/third_party/mbedtls/repo/library/bignum.c:1083:9
	cmp	r3, #0
	bpl	.LBB25_17
.Ltmp577:
@ %bb.13:
	@DEBUG_VALUE: mbedtls_mpi_cmp_mpi:Y <- $r1
	@DEBUG_VALUE: mbedtls_mpi_cmp_mpi:X <- $r0
	@DEBUG_VALUE: mbedtls_mpi_cmp_mpi:i <- [DW_OP_plus_uconst 1, DW_OP_stack_value] $lr
	.loc	4 0 9                           @ ../../../components/network/thread/subg_openthread/third_party/mbedtls/repo/library/bignum.c:0:9
	movs	r2, #1
	b	.LBB25_22
.Ltmp578:
.LBB25_14:
	@DEBUG_VALUE: mbedtls_mpi_cmp_mpi:Y <- $r1
	@DEBUG_VALUE: mbedtls_mpi_cmp_mpi:X <- $r0
	@DEBUG_VALUE: mbedtls_mpi_cmp_mpi:i <- [DW_OP_plus_uconst 1, DW_OP_stack_value] $lr
	.loc	4 1084 18 is_stmt 1             @ ../../../components/network/thread/subg_openthread/third_party/mbedtls/repo/library/bignum.c:1084:18
	cbz	r2, .LBB25_17
.Ltmp579:
@ %bb.15:
	@DEBUG_VALUE: mbedtls_mpi_cmp_mpi:Y <- $r1
	@DEBUG_VALUE: mbedtls_mpi_cmp_mpi:X <- $r0
	@DEBUG_VALUE: mbedtls_mpi_cmp_mpi:i <- [DW_OP_plus_uconst 1, DW_OP_stack_value] $lr
	cmp	r3, #0
	ble	.LBB25_17
.Ltmp580:
@ %bb.16:
	@DEBUG_VALUE: mbedtls_mpi_cmp_mpi:Y <- $r1
	@DEBUG_VALUE: mbedtls_mpi_cmp_mpi:X <- $r0
	@DEBUG_VALUE: mbedtls_mpi_cmp_mpi:i <- [DW_OP_plus_uconst 1, DW_OP_stack_value] $lr
	.loc	4 0 18 is_stmt 0                @ ../../../components/network/thread/subg_openthread/third_party/mbedtls/repo/library/bignum.c:0:18
	mov.w	r2, #-1
	b	.LBB25_22
.Ltmp581:
	.p2align	2
.LBB25_17:                              @ =>This Inner Loop Header: Depth=1
	@DEBUG_VALUE: mbedtls_mpi_cmp_mpi:Y <- $r1
	@DEBUG_VALUE: mbedtls_mpi_cmp_mpi:X <- $r0
	@DEBUG_VALUE: mbedtls_mpi_cmp_mpi:i <- undef
	.loc	4 1086 5 is_stmt 1              @ ../../../components/network/thread/subg_openthread/third_party/mbedtls/repo/library/bignum.c:1086:5
	adds.w	r3, lr, #1
	beq	.LBB25_21
.Ltmp582:
@ %bb.18:                               @   in Loop: Header=BB25_17 Depth=1
	@DEBUG_VALUE: mbedtls_mpi_cmp_mpi:Y <- $r1
	@DEBUG_VALUE: mbedtls_mpi_cmp_mpi:X <- $r0
	.loc	4 1088 16                       @ ../../../components/network/thread/subg_openthread/third_party/mbedtls/repo/library/bignum.c:1088:16
	ldr	r3, [r0, #8]
	.loc	4 1088 30 is_stmt 0             @ ../../../components/network/thread/subg_openthread/third_party/mbedtls/repo/library/bignum.c:1088:30
	ldr	r4, [r1, #8]
	.loc	4 1088 13                       @ ../../../components/network/thread/subg_openthread/third_party/mbedtls/repo/library/bignum.c:1088:13
	ldr.w	r3, [r3, lr, lsl #2]
	.loc	4 1088 27                       @ ../../../components/network/thread/subg_openthread/third_party/mbedtls/repo/library/bignum.c:1088:27
	ldr.w	r4, [r4, lr, lsl #2]
.Ltmp583:
	.loc	4 1088 13                       @ ../../../components/network/thread/subg_openthread/third_party/mbedtls/repo/library/bignum.c:1088:13
	cmp	r3, r4
	bhi	.LBB25_22
.Ltmp584:
@ %bb.19:                               @   in Loop: Header=BB25_17 Depth=1
	@DEBUG_VALUE: mbedtls_mpi_cmp_mpi:Y <- $r1
	@DEBUG_VALUE: mbedtls_mpi_cmp_mpi:X <- $r0
	.loc	4 1089 13 is_stmt 1             @ ../../../components/network/thread/subg_openthread/third_party/mbedtls/repo/library/bignum.c:1089:13
	sub.w	lr, lr, #1
	bhs	.LBB25_17
.Ltmp585:
@ %bb.20:
	@DEBUG_VALUE: mbedtls_mpi_cmp_mpi:Y <- $r1
	@DEBUG_VALUE: mbedtls_mpi_cmp_mpi:X <- $r0
	.loc	4 1089 49 is_stmt 0             @ ../../../components/network/thread/subg_openthread/third_party/mbedtls/repo/library/bignum.c:1089:49
	rsbs	r2, r2, #0
	b	.LBB25_22
.Ltmp586:
.LBB25_21:
	@DEBUG_VALUE: mbedtls_mpi_cmp_mpi:Y <- $r1
	@DEBUG_VALUE: mbedtls_mpi_cmp_mpi:X <- $r0
	.loc	4 0 49                          @ ../../../components/network/thread/subg_openthread/third_party/mbedtls/repo/library/bignum.c:0:49
	movs	r2, #0
.Ltmp587:
.LBB25_22:
	@DEBUG_VALUE: mbedtls_mpi_cmp_mpi:Y <- $r1
	.loc	4 1093 1 is_stmt 1              @ ../../../components/network/thread/subg_openthread/third_party/mbedtls/repo/library/bignum.c:1093:1
	mov	r0, r2
	pop	{r4, pc}
.Ltmp588:
.Lfunc_end25:
	.size	mbedtls_mpi_cmp_mpi, .Lfunc_end25-mbedtls_mpi_cmp_mpi
	.cfi_endproc
	.cantunwind
	.fnend
                                        @ -- End function
	.section	.text.mbedtls_mpi_cmp_int,"ax",%progbits
	.hidden	mbedtls_mpi_cmp_int             @ -- Begin function mbedtls_mpi_cmp_int
	.globl	mbedtls_mpi_cmp_int
	.p2align	1
	.type	mbedtls_mpi_cmp_int,%function
	.code	16                              @ @mbedtls_mpi_cmp_int
	.thumb_func
mbedtls_mpi_cmp_int:
.Lfunc_begin26:
	.loc	4 1099 0                        @ ../../../components/network/thread/subg_openthread/third_party/mbedtls/repo/library/bignum.c:1099:0
	.fnstart
	.cfi_startproc
@ %bb.0:
	@DEBUG_VALUE: mbedtls_mpi_cmp_int:X <- $r0
	@DEBUG_VALUE: mbedtls_mpi_cmp_int:X <- $r0
	@DEBUG_VALUE: mbedtls_mpi_cmp_int:z <- $r1
	@DEBUG_VALUE: mbedtls_mpi_cmp_int:z <- $r1
	.loc	4 1104 11 prologue_end          @ ../../../components/network/thread/subg_openthread/third_party/mbedtls/repo/library/bignum.c:1104:11
	cmp	r1, #0
	mov	r2, r1
	bpl	.LBB26_2
.Ltmp589:
@ %bb.1:
	@DEBUG_VALUE: mbedtls_mpi_cmp_int:z <- $r1
	@DEBUG_VALUE: mbedtls_mpi_cmp_int:X <- $r0
	rsbs	r2, r1, #0
.Ltmp590:
.LBB26_2:
	@DEBUG_VALUE: mbedtls_mpi_cmp_int:z <- $r1
	@DEBUG_VALUE: mbedtls_mpi_cmp_int:X <- $r0
	.save	{r7, lr}
	push	{r7, lr}
	.cfi_def_cfa_offset 8
	.cfi_offset lr, -4
	.cfi_offset r7, -8
	.pad	#16
	sub	sp, #16
	.cfi_def_cfa_offset 24
	.loc	4 1105 11                       @ ../../../components/network/thread/subg_openthread/third_party/mbedtls/repo/library/bignum.c:1105:11
	cmp	r1, #0
	mov.w	r1, #1
.Ltmp591:
	@DEBUG_VALUE: mbedtls_mpi_cmp_int:z <- [DW_OP_LLVM_entry_value 1] $r1
	.loc	4 1104 9                        @ ../../../components/network/thread/subg_openthread/third_party/mbedtls/repo/library/bignum.c:1104:9
	str	r2, [sp]
	mov.w	r2, #1
	.loc	4 1105 11                       @ ../../../components/network/thread/subg_openthread/third_party/mbedtls/repo/library/bignum.c:1105:11
	it	mi
	movmi.w	r1, #-1
	.loc	4 1105 9 is_stmt 0              @ ../../../components/network/thread/subg_openthread/third_party/mbedtls/repo/library/bignum.c:1105:9
	strd	r1, r2, [sp, #4]
	mov	r1, sp
	.loc	4 1107 9 is_stmt 1              @ ../../../components/network/thread/subg_openthread/third_party/mbedtls/repo/library/bignum.c:1107:9
	str	r1, [sp, #12]
	add	r1, sp, #4
	@DEBUG_VALUE: mbedtls_mpi_cmp_int:X <- $r0
	.loc	4 1109 13                       @ ../../../components/network/thread/subg_openthread/third_party/mbedtls/repo/library/bignum.c:1109:13
	bl	mbedtls_mpi_cmp_mpi
.Ltmp592:
	@DEBUG_VALUE: mbedtls_mpi_cmp_int:X <- [DW_OP_LLVM_entry_value 1] $r0
	.loc	4 1109 5 is_stmt 0              @ ../../../components/network/thread/subg_openthread/third_party/mbedtls/repo/library/bignum.c:1109:5
	add	sp, #16
	pop	{r7, pc}
.Ltmp593:
.Lfunc_end26:
	.size	mbedtls_mpi_cmp_int, .Lfunc_end26-mbedtls_mpi_cmp_int
	.cfi_endproc
	.cantunwind
	.fnend
                                        @ -- End function
	.section	.text.mbedtls_mpi_add_abs,"ax",%progbits
	.hidden	mbedtls_mpi_add_abs             @ -- Begin function mbedtls_mpi_add_abs
	.globl	mbedtls_mpi_add_abs
	.p2align	1
	.type	mbedtls_mpi_add_abs,%function
	.code	16                              @ @mbedtls_mpi_add_abs
	.thumb_func
mbedtls_mpi_add_abs:
.Lfunc_begin27:
	.loc	4 1116 0 is_stmt 1              @ ../../../components/network/thread/subg_openthread/third_party/mbedtls/repo/library/bignum.c:1116:0
	.fnstart
	.cfi_startproc
@ %bb.0:
	@DEBUG_VALUE: mbedtls_mpi_add_abs:X <- $r0
	@DEBUG_VALUE: mbedtls_mpi_add_abs:A <- $r1
	@DEBUG_VALUE: mbedtls_mpi_add_abs:B <- $r2
	.save	{r4, r5, r6, r7, r8, r9, lr}
	push.w	{r4, r5, r6, r7, r8, r9, lr}
	.cfi_def_cfa_offset 28
	.cfi_offset lr, -4
	.cfi_offset r9, -8
	.cfi_offset r8, -12
	.cfi_offset r7, -16
	.cfi_offset r6, -20
	.cfi_offset r5, -24
	.cfi_offset r4, -28
	.pad	#4
	sub	sp, #4
	.cfi_def_cfa_offset 32
	mov	r6, r2
.Ltmp594:
	.loc	4 1124 9 prologue_end           @ ../../../components/network/thread/subg_openthread/third_party/mbedtls/repo/library/bignum.c:1124:9
	cmp	r0, r2
	mov	r8, r0
.Ltmp595:
	@DEBUG_VALUE: mbedtls_mpi_add_abs:ret <- -110
	@DEBUG_VALUE: mbedtls_mpi_add_abs:B <- $r6
	@DEBUG_VALUE: mbedtls_mpi_add_abs:A <- $r1
	@DEBUG_VALUE: mbedtls_mpi_add_abs:X <- $r8
	itt	eq
	moveq	r6, r1
.Ltmp596:
	@DEBUG_VALUE: mbedtls_mpi_add_abs:B <- $r6
	moveq	r1, r0
.Ltmp597:
	@DEBUG_VALUE: mbedtls_mpi_add_abs:A <- [DW_OP_LLVM_entry_value 1] $r1
	@DEBUG_VALUE: mbedtls_mpi_add_abs:A <- $r1
	.loc	4 1129 9                        @ ../../../components/network/thread/subg_openthread/third_party/mbedtls/repo/library/bignum.c:1129:9
	cmp	r1, r0
	beq	.LBB27_2
.Ltmp598:
@ %bb.1:
	@DEBUG_VALUE: mbedtls_mpi_add_abs:X <- $r8
	@DEBUG_VALUE: mbedtls_mpi_add_abs:B <- $r6
	@DEBUG_VALUE: mbedtls_mpi_add_abs:A <- $r1
	@DEBUG_VALUE: mbedtls_mpi_add_abs:ret <- -110
	.loc	4 1130 9                        @ ../../../components/network/thread/subg_openthread/third_party/mbedtls/repo/library/bignum.c:1130:9
	mov	r0, r8
	bl	mbedtls_mpi_copy
.Ltmp599:
	@DEBUG_VALUE: mbedtls_mpi_add_abs:A <- [DW_OP_LLVM_entry_value 1] $r1
	@DEBUG_VALUE: mbedtls_mpi_add_abs:ret <- $r0
	.loc	4 1130 9 is_stmt 0              @ ../../../components/network/thread/subg_openthread/third_party/mbedtls/repo/library/bignum.c:1130:9
	cmp	r0, #0
	bne	.LBB27_15
.Ltmp600:
.LBB27_2:
	@DEBUG_VALUE: mbedtls_mpi_add_abs:X <- $r8
	@DEBUG_VALUE: mbedtls_mpi_add_abs:B <- $r6
	.loc	4 0 9                           @ ../../../components/network/thread/subg_openthread/third_party/mbedtls/repo/library/bignum.c:0:9
	movs	r0, #1
.Ltmp601:
	.loc	4 1137 17 is_stmt 1             @ ../../../components/network/thread/subg_openthread/third_party/mbedtls/repo/library/bignum.c:1137:17
	ldr	r1, [r6, #4]
.Ltmp602:
	@DEBUG_VALUE: mbedtls_mpi_add_abs:j <- $r1
	.loc	4 1135 10                       @ ../../../components/network/thread/subg_openthread/third_party/mbedtls/repo/library/bignum.c:1135:10
	str.w	r0, [r8]
	mvn	r0, #3
.Ltmp603:
	.loc	4 1137 10                       @ ../../../components/network/thread/subg_openthread/third_party/mbedtls/repo/library/bignum.c:1137:10
	add.w	r0, r0, r1, lsl #2
	rsbs	r1, r1, #0
.Ltmp604:
	.p2align	2
.LBB27_3:                               @ =>This Inner Loop Header: Depth=1
	@DEBUG_VALUE: mbedtls_mpi_add_abs:X <- $r8
	@DEBUG_VALUE: mbedtls_mpi_add_abs:B <- $r6
	.loc	4 0 0 is_stmt 0                 @ ../../../components/network/thread/subg_openthread/third_party/mbedtls/repo/library/bignum.c:0:0
	mov	r4, r1
.Ltmp605:
	@DEBUG_VALUE: mbedtls_mpi_add_abs:j <- undef
	mov	r7, r0
	.loc	4 1137 5                        @ ../../../components/network/thread/subg_openthread/third_party/mbedtls/repo/library/bignum.c:1137:5
	cbz	r1, .LBB27_5
.Ltmp606:
@ %bb.4:                                @   in Loop: Header=BB27_3 Depth=1
	@DEBUG_VALUE: mbedtls_mpi_add_abs:X <- $r8
	@DEBUG_VALUE: mbedtls_mpi_add_abs:B <- $r6
	.loc	4 1138 16 is_stmt 1             @ ../../../components/network/thread/subg_openthread/third_party/mbedtls/repo/library/bignum.c:1138:16
	ldr	r0, [r6, #8]
	.loc	4 1138 13 is_stmt 0             @ ../../../components/network/thread/subg_openthread/third_party/mbedtls/repo/library/bignum.c:1138:13
	ldr	r1, [r0, r7]
.Ltmp607:
	.loc	4 1138 13                       @ ../../../components/network/thread/subg_openthread/third_party/mbedtls/repo/library/bignum.c:1138:13
	subs	r0, r7, #4
	cmp	r1, #0
	add.w	r1, r4, #1
	beq	.LBB27_3
.Ltmp608:
.LBB27_5:
	@DEBUG_VALUE: mbedtls_mpi_add_abs:X <- $r8
	@DEBUG_VALUE: mbedtls_mpi_add_abs:B <- $r6
	.loc	4 1141 5 is_stmt 1              @ ../../../components/network/thread/subg_openthread/third_party/mbedtls/repo/library/bignum.c:1141:5
	rsb.w	r9, r4, #0
	mov	r0, r8
	mov	r1, r9
	bl	mbedtls_mpi_grow
.Ltmp609:
	@DEBUG_VALUE: mbedtls_mpi_add_abs:ret <- $r0
	.loc	4 1141 5 is_stmt 0              @ ../../../components/network/thread/subg_openthread/third_party/mbedtls/repo/library/bignum.c:1141:5
	cbnz	r0, .LBB27_15
.Ltmp610:
@ %bb.6:
	@DEBUG_VALUE: mbedtls_mpi_add_abs:X <- $r8
	@DEBUG_VALUE: mbedtls_mpi_add_abs:B <- $r6
	@DEBUG_VALUE: mbedtls_mpi_add_abs:ret <- $r0
	@DEBUG_VALUE: mbedtls_mpi_add_abs:o <- undef
	@DEBUG_VALUE: mbedtls_mpi_add_abs:p <- undef
	@DEBUG_VALUE: mbedtls_mpi_add_abs:c <- 0
	@DEBUG_VALUE: mbedtls_mpi_add_abs:i <- 0
	.loc	4 0 5                           @ ../../../components/network/thread/subg_openthread/third_party/mbedtls/repo/library/bignum.c:0:5
	mov.w	r0, #0
.Ltmp611:
	.loc	4 1148 5 is_stmt 1              @ ../../../components/network/thread/subg_openthread/third_party/mbedtls/repo/library/bignum.c:1148:5
	cbz	r4, .LBB27_15
.Ltmp612:
@ %bb.7:
	@DEBUG_VALUE: mbedtls_mpi_add_abs:X <- $r8
	@DEBUG_VALUE: mbedtls_mpi_add_abs:B <- $r6
	@DEBUG_VALUE: mbedtls_mpi_add_abs:i <- 0
	@DEBUG_VALUE: mbedtls_mpi_add_abs:c <- 0
	.loc	4 1143 22                       @ ../../../components/network/thread/subg_openthread/third_party/mbedtls/repo/library/bignum.c:1143:22
	ldr.w	r1, [r8, #8]
.Ltmp613:
	@DEBUG_VALUE: mbedtls_mpi_add_abs:p <- $r1
	.loc	4 1143 12 is_stmt 0             @ ../../../components/network/thread/subg_openthread/third_party/mbedtls/repo/library/bignum.c:1143:12
	ldr.w	r12, [r6, #8]
.Ltmp614:
	@DEBUG_VALUE: mbedtls_mpi_add_abs:o <- $r12
	.loc	4 0 0                           @ ../../../components/network/thread/subg_openthread/third_party/mbedtls/repo/library/bignum.c:0:0
	adds	r7, #4
	movs	r6, #0
.Ltmp615:
	movs	r3, #0
.Ltmp616:
	.p2align	2
.LBB27_8:                               @ =>This Inner Loop Header: Depth=1
	@DEBUG_VALUE: mbedtls_mpi_add_abs:X <- $r8
	@DEBUG_VALUE: mbedtls_mpi_add_abs:o <- undef
	@DEBUG_VALUE: mbedtls_mpi_add_abs:p <- $r1
	@DEBUG_VALUE: mbedtls_mpi_add_abs:c <- $r6
	@DEBUG_VALUE: mbedtls_mpi_add_abs:i <- $r3
	.loc	4 1151 12 is_stmt 1             @ ../../../components/network/thread/subg_openthread/third_party/mbedtls/repo/library/bignum.c:1151:12
	ldr	r4, [r1]
	.loc	4 1150 14                       @ ../../../components/network/thread/subg_openthread/third_party/mbedtls/repo/library/bignum.c:1150:14
	ldr.w	r5, [r12, r3, lsl #2]
.Ltmp617:
	@DEBUG_VALUE: mbedtls_mpi_add_abs:tmp <- $r5
	.loc	4 1151 12                       @ ../../../components/network/thread/subg_openthread/third_party/mbedtls/repo/library/bignum.c:1151:12
	adds	r2, r4, r6
.Ltmp618:
	@DEBUG_VALUE: mbedtls_mpi_add_abs:c <- undef
	.loc	4 1152 12                       @ ../../../components/network/thread/subg_openthread/third_party/mbedtls/repo/library/bignum.c:1152:12
	adds	r2, r2, r5
	adc	r5, r0, #0
.Ltmp619:
	.loc	4 1151 12                       @ ../../../components/network/thread/subg_openthread/third_party/mbedtls/repo/library/bignum.c:1151:12
	adds	r6, r6, r4
.Ltmp620:
	.loc	4 1148 25                       @ ../../../components/network/thread/subg_openthread/third_party/mbedtls/repo/library/bignum.c:1148:25
	add.w	r3, r3, #1
.Ltmp621:
	@DEBUG_VALUE: mbedtls_mpi_add_abs:i <- $r3
	@DEBUG_VALUE: mbedtls_mpi_add_abs:p <- undef
	@DEBUG_VALUE: mbedtls_mpi_add_abs:o <- [DW_OP_plus_uconst 4, DW_OP_stack_value] undef
	.loc	4 1152 22                       @ ../../../components/network/thread/subg_openthread/third_party/mbedtls/repo/library/bignum.c:1152:22
	adc	r6, r5, #0
.Ltmp622:
	@DEBUG_VALUE: mbedtls_mpi_add_abs:c <- $r6
	.loc	4 1148 5                        @ ../../../components/network/thread/subg_openthread/third_party/mbedtls/repo/library/bignum.c:1148:5
	cmp	r9, r3
.Ltmp623:
	.loc	4 1152 12                       @ ../../../components/network/thread/subg_openthread/third_party/mbedtls/repo/library/bignum.c:1152:12
	str	r2, [r1], #4
.Ltmp624:
	.loc	4 1148 5                        @ ../../../components/network/thread/subg_openthread/third_party/mbedtls/repo/library/bignum.c:1148:5
	bne	.LBB27_8
.Ltmp625:
@ %bb.9:
	@DEBUG_VALUE: mbedtls_mpi_add_abs:X <- $r8
	@DEBUG_VALUE: mbedtls_mpi_add_abs:c <- $r6
	@DEBUG_VALUE: mbedtls_mpi_add_abs:i <- $r3
	@DEBUG_VALUE: mbedtls_mpi_add_abs:ret <- 0
	@DEBUG_VALUE: mbedtls_mpi_add_abs:p <- $r1
	@DEBUG_VALUE: mbedtls_mpi_add_abs:c <- $r6
	@DEBUG_VALUE: mbedtls_mpi_add_abs:i <- undef
	.loc	4 1155 5                        @ ../../../components/network/thread/subg_openthread/third_party/mbedtls/repo/library/bignum.c:1155:5
	cbz	r6, .LBB27_14
.Ltmp626:
	.p2align	2
.LBB27_10:                              @ =>This Inner Loop Header: Depth=1
	@DEBUG_VALUE: mbedtls_mpi_add_abs:X <- $r8
	@DEBUG_VALUE: mbedtls_mpi_add_abs:p <- $r1
	@DEBUG_VALUE: mbedtls_mpi_add_abs:ret <- 0
	.loc	4 1157 21                       @ ../../../components/network/thread/subg_openthread/third_party/mbedtls/repo/library/bignum.c:1157:21
	ldr.w	r0, [r8, #4]
.Ltmp627:
	@DEBUG_VALUE: mbedtls_mpi_add_abs:i <- $r9
	@DEBUG_VALUE: mbedtls_mpi_add_abs:c <- $r6
	@DEBUG_VALUE: mbedtls_mpi_add_abs:p <- $r1
	.loc	4 1157 13 is_stmt 0             @ ../../../components/network/thread/subg_openthread/third_party/mbedtls/repo/library/bignum.c:1157:13
	cmp	r9, r0
	.loc	4 0 0                           @ ../../../components/network/thread/subg_openthread/third_party/mbedtls/repo/library/bignum.c:0:0
	add.w	r9, r9, #1
.Ltmp628:
	.loc	4 1157 13                       @ ../../../components/network/thread/subg_openthread/third_party/mbedtls/repo/library/bignum.c:1157:13
	blo	.LBB27_13
.Ltmp629:
@ %bb.11:                               @   in Loop: Header=BB27_10 Depth=1
	@DEBUG_VALUE: mbedtls_mpi_add_abs:X <- $r8
	@DEBUG_VALUE: mbedtls_mpi_add_abs:c <- $r6
	@DEBUG_VALUE: mbedtls_mpi_add_abs:p <- $r1
	@DEBUG_VALUE: mbedtls_mpi_add_abs:ret <- 0
	.loc	4 1159 13 is_stmt 1             @ ../../../components/network/thread/subg_openthread/third_party/mbedtls/repo/library/bignum.c:1159:13
	mov	r0, r8
	mov	r1, r9
.Ltmp630:
	bl	mbedtls_mpi_grow
.Ltmp631:
	@DEBUG_VALUE: mbedtls_mpi_add_abs:ret <- $r0
	.loc	4 1159 13 is_stmt 0             @ ../../../components/network/thread/subg_openthread/third_party/mbedtls/repo/library/bignum.c:1159:13
	cbnz	r0, .LBB27_15
.Ltmp632:
@ %bb.12:                               @   in Loop: Header=BB27_10 Depth=1
	@DEBUG_VALUE: mbedtls_mpi_add_abs:X <- $r8
	@DEBUG_VALUE: mbedtls_mpi_add_abs:c <- $r6
	@DEBUG_VALUE: mbedtls_mpi_add_abs:ret <- $r0
	.loc	4 1160 20 is_stmt 1             @ ../../../components/network/thread/subg_openthread/third_party/mbedtls/repo/library/bignum.c:1160:20
	ldr.w	r0, [r8, #8]
.Ltmp633:
	@DEBUG_VALUE: mbedtls_mpi_add_abs:p <- undef
	.loc	4 1161 9                        @ ../../../components/network/thread/subg_openthread/third_party/mbedtls/repo/library/bignum.c:1161:9
	adds	r1, r0, r7
.Ltmp634:
.LBB27_13:                              @   in Loop: Header=BB27_10 Depth=1
	@DEBUG_VALUE: mbedtls_mpi_add_abs:X <- $r8
	@DEBUG_VALUE: mbedtls_mpi_add_abs:c <- $r6
	@DEBUG_VALUE: mbedtls_mpi_add_abs:ret <- 0
	@DEBUG_VALUE: mbedtls_mpi_add_abs:p <- $r1
	.loc	4 1163 12                       @ ../../../components/network/thread/subg_openthread/third_party/mbedtls/repo/library/bignum.c:1163:12
	ldr	r0, [r1]
.Ltmp635:
	.loc	4 1155 5                        @ ../../../components/network/thread/subg_openthread/third_party/mbedtls/repo/library/bignum.c:1155:5
	adds	r7, #4
.Ltmp636:
	.loc	4 1163 12                       @ ../../../components/network/thread/subg_openthread/third_party/mbedtls/repo/library/bignum.c:1163:12
	adds	r0, r0, r6
	str	r0, [r1], #4
.Ltmp637:
	@DEBUG_VALUE: mbedtls_mpi_add_abs:i <- $r9
	@DEBUG_VALUE: mbedtls_mpi_add_abs:c <- undef
	@DEBUG_VALUE: mbedtls_mpi_add_abs:p <- $r1
	.loc	4 0 12 is_stmt 0                @ ../../../components/network/thread/subg_openthread/third_party/mbedtls/repo/library/bignum.c:0:12
	mov.w	r6, #1
.Ltmp638:
	.loc	4 1155 5 is_stmt 1              @ ../../../components/network/thread/subg_openthread/third_party/mbedtls/repo/library/bignum.c:1155:5
	bhs	.LBB27_10
.Ltmp639:
.LBB27_14:
	@DEBUG_VALUE: mbedtls_mpi_add_abs:X <- $r8
	@DEBUG_VALUE: mbedtls_mpi_add_abs:p <- $r1
	@DEBUG_VALUE: mbedtls_mpi_add_abs:ret <- 0
	.loc	4 0 5 is_stmt 0                 @ ../../../components/network/thread/subg_openthread/third_party/mbedtls/repo/library/bignum.c:0:5
	movs	r0, #0
.Ltmp640:
.LBB27_15:
	@DEBUG_VALUE: mbedtls_mpi_add_abs:X <- $r8
	@DEBUG_VALUE: mbedtls_mpi_add_abs:ret <- $r0
	@DEBUG_LABEL: mbedtls_mpi_add_abs:cleanup
	.loc	4 1168 5 is_stmt 1              @ ../../../components/network/thread/subg_openthread/third_party/mbedtls/repo/library/bignum.c:1168:5
	add	sp, #4
	pop.w	{r4, r5, r6, r7, r8, r9, pc}
.Ltmp641:
.Lfunc_end27:
	.size	mbedtls_mpi_add_abs, .Lfunc_end27-mbedtls_mpi_add_abs
	.cfi_endproc
	.cantunwind
	.fnend
                                        @ -- End function
	.section	.text.mbedtls_mpi_sub_abs,"ax",%progbits
	.hidden	mbedtls_mpi_sub_abs             @ -- Begin function mbedtls_mpi_sub_abs
	.globl	mbedtls_mpi_sub_abs
	.p2align	1
	.type	mbedtls_mpi_sub_abs,%function
	.code	16                              @ @mbedtls_mpi_sub_abs
	.thumb_func
mbedtls_mpi_sub_abs:
.Lfunc_begin28:
	.loc	4 1209 0                        @ ../../../components/network/thread/subg_openthread/third_party/mbedtls/repo/library/bignum.c:1209:0
	.fnstart
	.cfi_startproc
@ %bb.0:
	@DEBUG_VALUE: mbedtls_mpi_sub_abs:X <- $r0
	@DEBUG_VALUE: mbedtls_mpi_sub_abs:A <- $r1
	@DEBUG_VALUE: mbedtls_mpi_sub_abs:B <- $r2
	.save	{r4, r5, r6, r7, r8, r9, lr}
	push.w	{r4, r5, r6, r7, r8, r9, lr}
	.cfi_def_cfa_offset 28
	.cfi_offset lr, -4
	.cfi_offset r9, -8
	.cfi_offset r8, -12
	.cfi_offset r7, -16
	.cfi_offset r6, -20
	.cfi_offset r5, -24
	.cfi_offset r4, -28
	.pad	#4
	sub	sp, #4
	.cfi_def_cfa_offset 32
	mov	r9, r1
.Ltmp642:
	@DEBUG_VALUE: mbedtls_mpi_sub_abs:A <- $r9
	@DEBUG_VALUE: mbedtls_mpi_sub_abs:B <- $r5
	@DEBUG_VALUE: mbedtls_mpi_sub_abs:A <- $r9
	.loc	4 1217 17 prologue_end          @ ../../../components/network/thread/subg_openthread/third_party/mbedtls/repo/library/bignum.c:1217:17
	ldr	r1, [r2, #4]
.Ltmp643:
	@DEBUG_VALUE: mbedtls_mpi_sub_abs:n <- $r1
	.loc	4 0 17 is_stmt 0                @ ../../../components/network/thread/subg_openthread/third_party/mbedtls/repo/library/bignum.c:0:17
	mov	r5, r2
.Ltmp644:
	mov	r8, r0
.Ltmp645:
	@DEBUG_VALUE: mbedtls_mpi_sub_abs:X <- $r8
	@DEBUG_VALUE: mbedtls_mpi_sub_abs:ret <- -110
	@DEBUG_VALUE: mbedtls_mpi_sub_abs:X <- $r8
	.loc	4 1217 10                       @ ../../../components/network/thread/subg_openthread/third_party/mbedtls/repo/library/bignum.c:1217:10
	subs	r0, r1, #1
.Ltmp646:
	.p2align	2
.LBB28_1:                               @ =>This Inner Loop Header: Depth=1
	@DEBUG_VALUE: mbedtls_mpi_sub_abs:A <- $r9
	@DEBUG_VALUE: mbedtls_mpi_sub_abs:X <- $r8
	@DEBUG_VALUE: mbedtls_mpi_sub_abs:ret <- -110
	@DEBUG_VALUE: mbedtls_mpi_sub_abs:n <- [DW_OP_plus_uconst 1, DW_OP_stack_value] $r0
	.loc	4 1217 5                        @ ../../../components/network/thread/subg_openthread/third_party/mbedtls/repo/library/bignum.c:1217:5
	adds	r4, r0, #1
	beq	.LBB28_5
.Ltmp647:
@ %bb.2:                                @   in Loop: Header=BB28_1 Depth=1
	@DEBUG_VALUE: mbedtls_mpi_sub_abs:A <- $r9
	@DEBUG_VALUE: mbedtls_mpi_sub_abs:X <- $r8
	@DEBUG_VALUE: mbedtls_mpi_sub_abs:n <- [DW_OP_plus_uconst 1, DW_OP_stack_value] $r0
	@DEBUG_VALUE: mbedtls_mpi_sub_abs:ret <- -110
	.loc	4 1218 16 is_stmt 1             @ ../../../components/network/thread/subg_openthread/third_party/mbedtls/repo/library/bignum.c:1218:16
	ldr	r1, [r5, #8]
	.loc	4 1218 13 is_stmt 0             @ ../../../components/network/thread/subg_openthread/third_party/mbedtls/repo/library/bignum.c:1218:13
	ldr.w	r1, [r1, r0, lsl #2]
.Ltmp648:
	.loc	4 1218 13                       @ ../../../components/network/thread/subg_openthread/third_party/mbedtls/repo/library/bignum.c:1218:13
	subs	r0, #1
.Ltmp649:
	cmp	r1, #0
	beq	.LBB28_1
.Ltmp650:
@ %bb.3:
	@DEBUG_VALUE: mbedtls_mpi_sub_abs:A <- $r9
	@DEBUG_VALUE: mbedtls_mpi_sub_abs:X <- $r8
	@DEBUG_VALUE: mbedtls_mpi_sub_abs:ret <- -110
	.loc	4 1220 16 is_stmt 1             @ ../../../components/network/thread/subg_openthread/third_party/mbedtls/repo/library/bignum.c:1220:16
	mov	r6, r9
	ldr	r1, [r6, #4]!
	.loc	4 1220 11 is_stmt 0             @ ../../../components/network/thread/subg_openthread/third_party/mbedtls/repo/library/bignum.c:1220:11
	adds	r7, r0, #2
.Ltmp651:
	.loc	4 1220 9                        @ ../../../components/network/thread/subg_openthread/third_party/mbedtls/repo/library/bignum.c:1220:9
	cmp	r7, r1
	bls	.LBB28_6
.Ltmp652:
.LBB28_4:
	@DEBUG_VALUE: mbedtls_mpi_sub_abs:A <- $r9
	@DEBUG_VALUE: mbedtls_mpi_sub_abs:X <- $r8
	.loc	4 0 9                           @ ../../../components/network/thread/subg_openthread/third_party/mbedtls/repo/library/bignum.c:0:9
	mvn	r0, #9
	b	.LBB28_24
.Ltmp653:
.LBB28_5:
	@DEBUG_VALUE: mbedtls_mpi_sub_abs:A <- $r9
	@DEBUG_VALUE: mbedtls_mpi_sub_abs:X <- $r8
	@DEBUG_VALUE: mbedtls_mpi_sub_abs:n <- [DW_OP_plus_uconst 1, DW_OP_stack_value] $r0
	@DEBUG_VALUE: mbedtls_mpi_sub_abs:ret <- -110
	.loc	4 1220 16                       @ ../../../components/network/thread/subg_openthread/third_party/mbedtls/repo/library/bignum.c:1220:16
	mov	r6, r9
	ldr	r1, [r6, #4]!
	movs	r7, #0
.Ltmp654:
.LBB28_6:
	@DEBUG_VALUE: mbedtls_mpi_sub_abs:A <- $r9
	@DEBUG_VALUE: mbedtls_mpi_sub_abs:X <- $r8
	@DEBUG_VALUE: mbedtls_mpi_sub_abs:ret <- -110
	.loc	4 1227 5 is_stmt 1              @ ../../../components/network/thread/subg_openthread/third_party/mbedtls/repo/library/bignum.c:1227:5
	mov	r0, r8
	bl	mbedtls_mpi_grow
.Ltmp655:
	@DEBUG_VALUE: mbedtls_mpi_sub_abs:ret <- $r0
	.loc	4 1227 5 is_stmt 0              @ ../../../components/network/thread/subg_openthread/third_party/mbedtls/repo/library/bignum.c:1227:5
	cmp	r0, #0
	bne	.LBB28_24
.Ltmp656:
@ %bb.7:
	@DEBUG_VALUE: mbedtls_mpi_sub_abs:A <- $r9
	@DEBUG_VALUE: mbedtls_mpi_sub_abs:X <- $r8
	@DEBUG_VALUE: mbedtls_mpi_sub_abs:ret <- $r0
	.loc	4 1232 12 is_stmt 1             @ ../../../components/network/thread/subg_openthread/third_party/mbedtls/repo/library/bignum.c:1232:12
	ldr	r2, [r6]
.Ltmp657:
	.loc	4 1232 9 is_stmt 0              @ ../../../components/network/thread/subg_openthread/third_party/mbedtls/repo/library/bignum.c:1232:9
	cmp	r2, r7
	bls	.LBB28_9
.Ltmp658:
@ %bb.8:
	@DEBUG_VALUE: mbedtls_mpi_sub_abs:A <- $r9
	@DEBUG_VALUE: mbedtls_mpi_sub_abs:X <- $r8
	@DEBUG_VALUE: mbedtls_mpi_sub_abs:ret <- $r0
	.loc	4 1233 20 is_stmt 1             @ ../../../components/network/thread/subg_openthread/third_party/mbedtls/repo/library/bignum.c:1233:20
	ldr.w	r0, [r8, #8]
.Ltmp659:
	.loc	4 1233 30 is_stmt 0             @ ../../../components/network/thread/subg_openthread/third_party/mbedtls/repo/library/bignum.c:1233:30
	ldr.w	r1, [r9, #8]
	.loc	4 1233 44                       @ ../../../components/network/thread/subg_openthread/third_party/mbedtls/repo/library/bignum.c:1233:44
	subs	r2, r2, r7
	.loc	4 1233 22                       @ ../../../components/network/thread/subg_openthread/third_party/mbedtls/repo/library/bignum.c:1233:22
	add.w	r0, r0, r7, lsl #2
	.loc	4 1233 32                       @ ../../../components/network/thread/subg_openthread/third_party/mbedtls/repo/library/bignum.c:1233:32
	add.w	r1, r1, r7, lsl #2
	.loc	4 1233 50                       @ ../../../components/network/thread/subg_openthread/third_party/mbedtls/repo/library/bignum.c:1233:50
	lsls	r2, r2, #2
	.loc	4 1233 9                        @ ../../../components/network/thread/subg_openthread/third_party/mbedtls/repo/library/bignum.c:1233:9
	bl	__aeabi_memcpy4
.Ltmp660:
	.loc	4 1234 19 is_stmt 1             @ ../../../components/network/thread/subg_openthread/third_party/mbedtls/repo/library/bignum.c:1234:19
	ldr.w	r2, [r9, #4]
.Ltmp661:
.LBB28_9:
	@DEBUG_VALUE: mbedtls_mpi_sub_abs:A <- $r9
	@DEBUG_VALUE: mbedtls_mpi_sub_abs:X <- $r8
	.loc	4 1234 12 is_stmt 0             @ ../../../components/network/thread/subg_openthread/third_party/mbedtls/repo/library/bignum.c:1234:12
	ldr.w	r1, [r8, #4]
.Ltmp662:
	.loc	4 1234 9                        @ ../../../components/network/thread/subg_openthread/third_party/mbedtls/repo/library/bignum.c:1234:9
	cmp	r1, r2
	bls	.LBB28_11
.Ltmp663:
@ %bb.10:
	@DEBUG_VALUE: mbedtls_mpi_sub_abs:A <- $r9
	@DEBUG_VALUE: mbedtls_mpi_sub_abs:X <- $r8
	.loc	4 1235 20 is_stmt 1             @ ../../../components/network/thread/subg_openthread/third_party/mbedtls/repo/library/bignum.c:1235:20
	ldr.w	r0, [r8, #8]
	.loc	4 1235 40 is_stmt 0             @ ../../../components/network/thread/subg_openthread/third_party/mbedtls/repo/library/bignum.c:1235:40
	subs	r1, r1, r2
	.loc	4 1235 22                       @ ../../../components/network/thread/subg_openthread/third_party/mbedtls/repo/library/bignum.c:1235:22
	add.w	r0, r0, r2, lsl #2
	.loc	4 1235 49                       @ ../../../components/network/thread/subg_openthread/third_party/mbedtls/repo/library/bignum.c:1235:49
	lsls	r1, r1, #2
	.loc	4 1235 9                        @ ../../../components/network/thread/subg_openthread/third_party/mbedtls/repo/library/bignum.c:1235:9
	bl	__aeabi_memclr4
.Ltmp664:
.LBB28_11:
	@DEBUG_VALUE: mbedtls_mpi_sub_abs:A <- $r9
	@DEBUG_VALUE: mbedtls_mpi_sub_abs:X <- $r8
	@DEBUG_VALUE: mpi_sub_hlp:r <- undef
	@DEBUG_VALUE: mpi_sub_hlp:n <- undef
	@DEBUG_VALUE: mpi_sub_hlp:d <- undef
	@DEBUG_VALUE: mpi_sub_hlp:l <- undef
	@DEBUG_VALUE: mpi_sub_hlp:c <- 0
	@DEBUG_VALUE: mpi_sub_hlp:i <- 0
	.loc	4 0 9                           @ ../../../components/network/thread/subg_openthread/third_party/mbedtls/repo/library/bignum.c:0:9
	cbz	r4, .LBB28_23
.Ltmp665:
@ %bb.12:
	@DEBUG_VALUE: mbedtls_mpi_sub_abs:A <- $r9
	@DEBUG_VALUE: mbedtls_mpi_sub_abs:X <- $r8
	@DEBUG_VALUE: mpi_sub_hlp:i <- 0
	@DEBUG_VALUE: mpi_sub_hlp:c <- 0
	ldr.w	r0, [r8, #8]
	@DEBUG_VALUE: mpi_sub_hlp:d <- $r0
	ldr.w	r1, [r9, #8]
	@DEBUG_VALUE: mpi_sub_hlp:l <- $r1
	ldr	r2, [r5, #8]
	@DEBUG_VALUE: mpi_sub_hlp:r <- $r2
	movs	r3, #0
	movs	r5, #0
.Ltmp666:
	.p2align	2
.LBB28_13:                              @ =>This Inner Loop Header: Depth=1
	@DEBUG_VALUE: mbedtls_mpi_sub_abs:A <- $r9
	@DEBUG_VALUE: mbedtls_mpi_sub_abs:X <- $r8
	@DEBUG_VALUE: mpi_sub_hlp:r <- $r2
	@DEBUG_VALUE: mpi_sub_hlp:l <- $r1
	@DEBUG_VALUE: mpi_sub_hlp:d <- $r0
	@DEBUG_VALUE: mpi_sub_hlp:c <- $r5
	@DEBUG_VALUE: mpi_sub_hlp:i <- $r3
	.loc	4 1198 15 is_stmt 1             @ ../../../components/network/thread/subg_openthread/third_party/mbedtls/repo/library/bignum.c:1198:15
	ldr.w	r4, [r1, r3, lsl #2]
	.loc	4 1198 20 is_stmt 0             @ ../../../components/network/thread/subg_openthread/third_party/mbedtls/repo/library/bignum.c:1198:20
	movs	r6, #0
	cmp	r4, r5
	.loc	4 1198 40                       @ ../../../components/network/thread/subg_openthread/third_party/mbedtls/repo/library/bignum.c:1198:40
	sub.w	r5, r4, r5
.Ltmp667:
	@DEBUG_VALUE: mpi_sub_hlp:t <- $r5
	.loc	4 1199 19 is_stmt 1             @ ../../../components/network/thread/subg_openthread/third_party/mbedtls/repo/library/bignum.c:1199:19
	ldr.w	r4, [r2, r3, lsl #2]
	.loc	4 1198 20                       @ ../../../components/network/thread/subg_openthread/third_party/mbedtls/repo/library/bignum.c:1198:20
	it	lo
	movlo	r6, #1
.Ltmp668:
	@DEBUG_VALUE: mpi_sub_hlp:z <- $r6
	.loc	4 1199 26                       @ ../../../components/network/thread/subg_openthread/third_party/mbedtls/repo/library/bignum.c:1199:26
	cmp	r5, r4
	.loc	4 1199 40 is_stmt 0             @ ../../../components/network/thread/subg_openthread/third_party/mbedtls/repo/library/bignum.c:1199:40
	sub.w	r5, r5, r4
.Ltmp669:
	.loc	4 1199 26                       @ ../../../components/network/thread/subg_openthread/third_party/mbedtls/repo/library/bignum.c:1199:26
	it	lo
	addlo	r6, #1
.Ltmp670:
	@DEBUG_VALUE: mpi_sub_hlp:c <- $r6
	.loc	4 1199 36                       @ ../../../components/network/thread/subg_openthread/third_party/mbedtls/repo/library/bignum.c:1199:36
	str.w	r5, [r0, r3, lsl #2]
.Ltmp671:
	.loc	4 1196 25 is_stmt 1             @ ../../../components/network/thread/subg_openthread/third_party/mbedtls/repo/library/bignum.c:1196:25
	adds	r3, #1
.Ltmp672:
	@DEBUG_VALUE: mpi_sub_hlp:i <- $r3
	.loc	4 1196 5 is_stmt 0              @ ../../../components/network/thread/subg_openthread/third_party/mbedtls/repo/library/bignum.c:1196:5
	cmp	r7, r3
	mov	r5, r6
	bne	.LBB28_13
.Ltmp673:
@ %bb.14:
	@DEBUG_VALUE: mbedtls_mpi_sub_abs:A <- $r9
	@DEBUG_VALUE: mbedtls_mpi_sub_abs:X <- $r8
	@DEBUG_VALUE: mbedtls_mpi_sub_abs:carry <- undef
	.loc	4 0 5                           @ ../../../components/network/thread/subg_openthread/third_party/mbedtls/repo/library/bignum.c:0:5
	cbz	r6, .LBB28_23
.Ltmp674:
@ %bb.15:
	@DEBUG_VALUE: mbedtls_mpi_sub_abs:A <- $r9
	@DEBUG_VALUE: mbedtls_mpi_sub_abs:X <- $r8
	@DEBUG_VALUE: mbedtls_mpi_sub_abs:n <- undef
	.loc	4 1241 23 is_stmt 1             @ ../../../components/network/thread/subg_openthread/third_party/mbedtls/repo/library/bignum.c:1241:23
	ldr.w	r1, [r8, #4]
	.loc	4 1241 25 is_stmt 0             @ ../../../components/network/thread/subg_openthread/third_party/mbedtls/repo/library/bignum.c:1241:25
	cmp	r7, r1
	bhs	.LBB28_21
.Ltmp675:
@ %bb.16:
	@DEBUG_VALUE: mbedtls_mpi_sub_abs:A <- $r9
	@DEBUG_VALUE: mbedtls_mpi_sub_abs:X <- $r8
	@DEBUG_VALUE: mbedtls_mpi_sub_abs:n <- $r7
	.loc	4 1241 28                       @ ../../../components/network/thread/subg_openthread/third_party/mbedtls/repo/library/bignum.c:1241:28
	ldr.w	r2, [r0, r7, lsl #2]
	cbnz	r2, .LBB28_21
.Ltmp676:
@ %bb.17:
	@DEBUG_VALUE: mbedtls_mpi_sub_abs:A <- $r9
	@DEBUG_VALUE: mbedtls_mpi_sub_abs:X <- $r8
	@DEBUG_VALUE: mbedtls_mpi_sub_abs:n <- $r7
	.loc	4 0 28                          @ ../../../components/network/thread/subg_openthread/third_party/mbedtls/repo/library/bignum.c:0:28
	mov.w	r2, #-1
.Ltmp677:
	.p2align	2
.LBB28_18:                              @ =>This Inner Loop Header: Depth=1
	@DEBUG_VALUE: mbedtls_mpi_sub_abs:A <- $r9
	@DEBUG_VALUE: mbedtls_mpi_sub_abs:X <- $r8
	@DEBUG_VALUE: mbedtls_mpi_sub_abs:n <- $r7
	.loc	4 1242 13 is_stmt 1             @ ../../../components/network/thread/subg_openthread/third_party/mbedtls/repo/library/bignum.c:1242:13
	str.w	r2, [r0, r7, lsl #2]
	.loc	4 1241 23                       @ ../../../components/network/thread/subg_openthread/third_party/mbedtls/repo/library/bignum.c:1241:23
	ldr.w	r1, [r8, #4]
	.loc	4 1241 43 is_stmt 0             @ ../../../components/network/thread/subg_openthread/third_party/mbedtls/repo/library/bignum.c:1241:43
	adds	r3, r7, #1
.Ltmp678:
	@DEBUG_VALUE: mbedtls_mpi_sub_abs:n <- $r3
	.loc	4 1241 25                       @ ../../../components/network/thread/subg_openthread/third_party/mbedtls/repo/library/bignum.c:1241:25
	cmp	r3, r1
	bhs	.LBB28_20
.Ltmp679:
@ %bb.19:                               @   in Loop: Header=BB28_18 Depth=1
	@DEBUG_VALUE: mbedtls_mpi_sub_abs:A <- $r9
	@DEBUG_VALUE: mbedtls_mpi_sub_abs:X <- $r8
	@DEBUG_VALUE: mbedtls_mpi_sub_abs:n <- $r3
	@DEBUG_VALUE: mbedtls_mpi_sub_abs:n <- $r3
	.loc	4 1241 28                       @ ../../../components/network/thread/subg_openthread/third_party/mbedtls/repo/library/bignum.c:1241:28
	add.w	r7, r0, r7, lsl #2
	ldr	r7, [r7, #4]
.Ltmp680:
	.loc	4 1241 9                        @ ../../../components/network/thread/subg_openthread/third_party/mbedtls/repo/library/bignum.c:1241:9
	cmp	r7, #0
	mov	r7, r3
	beq	.LBB28_18
.Ltmp681:
.LBB28_20:
	@DEBUG_VALUE: mbedtls_mpi_sub_abs:A <- $r9
	@DEBUG_VALUE: mbedtls_mpi_sub_abs:X <- $r8
	@DEBUG_VALUE: mbedtls_mpi_sub_abs:n <- $r3
	.loc	4 0 0                           @ ../../../components/network/thread/subg_openthread/third_party/mbedtls/repo/library/bignum.c:0:0
	mov	r7, r3
.Ltmp682:
	@DEBUG_VALUE: mbedtls_mpi_sub_abs:n <- $r7
.LBB28_21:
	@DEBUG_VALUE: mbedtls_mpi_sub_abs:A <- $r9
	@DEBUG_VALUE: mbedtls_mpi_sub_abs:X <- $r8
	.loc	4 1245 13 is_stmt 1             @ ../../../components/network/thread/subg_openthread/third_party/mbedtls/repo/library/bignum.c:1245:13
	cmp	r7, r1
	beq	.LBB28_4
.Ltmp683:
@ %bb.22:
	@DEBUG_VALUE: mbedtls_mpi_sub_abs:A <- $r9
	@DEBUG_VALUE: mbedtls_mpi_sub_abs:X <- $r8
	.loc	4 1250 9                        @ ../../../components/network/thread/subg_openthread/third_party/mbedtls/repo/library/bignum.c:1250:9
	ldr.w	r1, [r0, r7, lsl #2]
	subs	r1, #1
	str.w	r1, [r0, r7, lsl #2]
.Ltmp684:
.LBB28_23:
	@DEBUG_VALUE: mbedtls_mpi_sub_abs:A <- $r9
	@DEBUG_VALUE: mbedtls_mpi_sub_abs:X <- $r8
	.loc	4 0 9 is_stmt 0                 @ ../../../components/network/thread/subg_openthread/third_party/mbedtls/repo/library/bignum.c:0:9
	movs	r0, #1
	.loc	4 1254 10 is_stmt 1             @ ../../../components/network/thread/subg_openthread/third_party/mbedtls/repo/library/bignum.c:1254:10
	str.w	r0, [r8]
	movs	r0, #0
.Ltmp685:
.LBB28_24:
	@DEBUG_VALUE: mbedtls_mpi_sub_abs:A <- $r9
	@DEBUG_VALUE: mbedtls_mpi_sub_abs:X <- $r8
	@DEBUG_VALUE: mbedtls_mpi_sub_abs:ret <- $r0
	@DEBUG_LABEL: mbedtls_mpi_sub_abs:cleanup
	.loc	4 1257 5                        @ ../../../components/network/thread/subg_openthread/third_party/mbedtls/repo/library/bignum.c:1257:5
	add	sp, #4
	pop.w	{r4, r5, r6, r7, r8, r9, pc}
.Ltmp686:
.Lfunc_end28:
	.size	mbedtls_mpi_sub_abs, .Lfunc_end28-mbedtls_mpi_sub_abs
	.cfi_endproc
	.cantunwind
	.fnend
                                        @ -- End function
	.section	.text.mbedtls_mpi_add_mpi,"ax",%progbits
	.hidden	mbedtls_mpi_add_mpi             @ -- Begin function mbedtls_mpi_add_mpi
	.globl	mbedtls_mpi_add_mpi
	.p2align	1
	.type	mbedtls_mpi_add_mpi,%function
	.code	16                              @ @mbedtls_mpi_add_mpi
	.thumb_func
mbedtls_mpi_add_mpi:
.Lfunc_begin29:
	.loc	4 1264 0                        @ ../../../components/network/thread/subg_openthread/third_party/mbedtls/repo/library/bignum.c:1264:0
	.fnstart
	.cfi_startproc
@ %bb.0:
	@DEBUG_VALUE: mbedtls_mpi_add_mpi:X <- $r0
	@DEBUG_VALUE: mbedtls_mpi_add_mpi:A <- $r1
	@DEBUG_VALUE: mbedtls_mpi_add_mpi:B <- $r2
	.save	{r4, r5, r6, r7, lr}
	push	{r4, r5, r6, r7, lr}
	.cfi_def_cfa_offset 20
	.cfi_offset lr, -4
	.cfi_offset r7, -8
	.cfi_offset r6, -12
	.cfi_offset r5, -16
	.cfi_offset r4, -20
	.pad	#4
	sub	sp, #4
	.cfi_def_cfa_offset 24
	mov	r6, r1
.Ltmp687:
	@DEBUG_VALUE: mbedtls_mpi_add_mpi:B <- $r5
	@DEBUG_VALUE: mbedtls_mpi_add_mpi:A <- $r6
	.loc	4 1270 12 prologue_end          @ ../../../components/network/thread/subg_openthread/third_party/mbedtls/repo/library/bignum.c:1270:12
	ldr	r7, [r1]
.Ltmp688:
	@DEBUG_VALUE: mbedtls_mpi_add_mpi:s <- $r7
	.loc	4 1271 19                       @ ../../../components/network/thread/subg_openthread/third_party/mbedtls/repo/library/bignum.c:1271:19
	ldr	r1, [r2]
	mov	r5, r2
.Ltmp689:
	.loc	4 1271 14 is_stmt 0             @ ../../../components/network/thread/subg_openthread/third_party/mbedtls/repo/library/bignum.c:1271:14
	muls	r1, r7, r1
.Ltmp690:
	.loc	4 1271 9                        @ ../../../components/network/thread/subg_openthread/third_party/mbedtls/repo/library/bignum.c:1271:9
	cmp.w	r1, #-1
	mov	r4, r0
.Ltmp691:
	@DEBUG_VALUE: mbedtls_mpi_add_mpi:X <- $r4
	@DEBUG_VALUE: mbedtls_mpi_add_mpi:X <- $r4
	ble	.LBB29_2
.Ltmp692:
@ %bb.1:
	@DEBUG_VALUE: mbedtls_mpi_add_mpi:s <- $r7
	@DEBUG_VALUE: mbedtls_mpi_add_mpi:A <- $r6
	@DEBUG_VALUE: mbedtls_mpi_add_mpi:X <- $r4
	.loc	4 1286 9 is_stmt 1              @ ../../../components/network/thread/subg_openthread/third_party/mbedtls/repo/library/bignum.c:1286:9
	mov	r0, r4
	mov	r1, r6
	mov	r2, r5
	bl	mbedtls_mpi_add_abs
.Ltmp693:
	@DEBUG_VALUE: mbedtls_mpi_add_mpi:ret <- $r0
	.loc	4 0 9 is_stmt 0                 @ ../../../components/network/thread/subg_openthread/third_party/mbedtls/repo/library/bignum.c:0:9
	b	.LBB29_4
.Ltmp694:
.LBB29_2:
	@DEBUG_VALUE: mbedtls_mpi_add_mpi:s <- $r7
	@DEBUG_VALUE: mbedtls_mpi_add_mpi:A <- $r6
	@DEBUG_VALUE: mbedtls_mpi_add_mpi:X <- $r4
	.loc	4 1273 13 is_stmt 1             @ ../../../components/network/thread/subg_openthread/third_party/mbedtls/repo/library/bignum.c:1273:13
	mov	r0, r6
	mov	r1, r5
	bl	mbedtls_mpi_cmp_abs
.Ltmp695:
	.loc	4 1273 13 is_stmt 0             @ ../../../components/network/thread/subg_openthread/third_party/mbedtls/repo/library/bignum.c:1273:13
	cmp	r0, #0
	bmi	.LBB29_8
.Ltmp696:
@ %bb.3:
	@DEBUG_VALUE: mbedtls_mpi_add_mpi:s <- $r7
	@DEBUG_VALUE: mbedtls_mpi_add_mpi:A <- $r6
	@DEBUG_VALUE: mbedtls_mpi_add_mpi:X <- $r4
	.loc	4 1275 13 is_stmt 1             @ ../../../components/network/thread/subg_openthread/third_party/mbedtls/repo/library/bignum.c:1275:13
	mov	r0, r4
	mov	r1, r6
	mov	r2, r5
	bl	mbedtls_mpi_sub_abs
.Ltmp697:
	@DEBUG_VALUE: mbedtls_mpi_add_mpi:ret <- $r0
.LBB29_4:
	@DEBUG_VALUE: mbedtls_mpi_add_mpi:s <- $r7
	@DEBUG_VALUE: mbedtls_mpi_add_mpi:A <- $r6
	@DEBUG_VALUE: mbedtls_mpi_add_mpi:X <- $r4
	@DEBUG_VALUE: mbedtls_mpi_add_mpi:ret <- $r0
	.loc	4 0 0 is_stmt 0                 @ ../../../components/network/thread/subg_openthread/third_party/mbedtls/repo/library/bignum.c:0:0
	cbnz	r0, .LBB29_7
.Ltmp698:
@ %bb.5:
	@DEBUG_VALUE: mbedtls_mpi_add_mpi:s <- $r7
	@DEBUG_VALUE: mbedtls_mpi_add_mpi:A <- $r6
	@DEBUG_VALUE: mbedtls_mpi_add_mpi:X <- $r4
	@DEBUG_VALUE: mbedtls_mpi_add_mpi:ret <- $r0
	str	r7, [r4]
.Ltmp699:
.LBB29_6:
	@DEBUG_VALUE: mbedtls_mpi_add_mpi:s <- $r7
	@DEBUG_VALUE: mbedtls_mpi_add_mpi:A <- $r6
	@DEBUG_VALUE: mbedtls_mpi_add_mpi:X <- $r4
	movs	r0, #0
.Ltmp700:
.LBB29_7:
	@DEBUG_VALUE: mbedtls_mpi_add_mpi:s <- $r7
	@DEBUG_VALUE: mbedtls_mpi_add_mpi:A <- $r6
	@DEBUG_VALUE: mbedtls_mpi_add_mpi:X <- $r4
	@DEBUG_VALUE: mbedtls_mpi_add_mpi:ret <- $r0
	@DEBUG_LABEL: mbedtls_mpi_add_mpi:cleanup
	.loc	4 1292 5 is_stmt 1              @ ../../../components/network/thread/subg_openthread/third_party/mbedtls/repo/library/bignum.c:1292:5
	add	sp, #4
	pop	{r4, r5, r6, r7, pc}
.Ltmp701:
.LBB29_8:
	@DEBUG_VALUE: mbedtls_mpi_add_mpi:s <- $r7
	@DEBUG_VALUE: mbedtls_mpi_add_mpi:A <- $r6
	@DEBUG_VALUE: mbedtls_mpi_add_mpi:X <- $r4
	.loc	4 1280 13                       @ ../../../components/network/thread/subg_openthread/third_party/mbedtls/repo/library/bignum.c:1280:13
	mov	r0, r4
	mov	r1, r5
	mov	r2, r6
	bl	mbedtls_mpi_sub_abs
.Ltmp702:
	@DEBUG_VALUE: mbedtls_mpi_add_mpi:ret <- $r0
	.loc	4 1280 13 is_stmt 0             @ ../../../components/network/thread/subg_openthread/third_party/mbedtls/repo/library/bignum.c:1280:13
	cmp	r0, #0
	bne	.LBB29_7
.Ltmp703:
@ %bb.9:
	@DEBUG_VALUE: mbedtls_mpi_add_mpi:s <- $r7
	@DEBUG_VALUE: mbedtls_mpi_add_mpi:A <- $r6
	@DEBUG_VALUE: mbedtls_mpi_add_mpi:X <- $r4
	@DEBUG_VALUE: mbedtls_mpi_add_mpi:ret <- $r0
	.loc	4 1281 20 is_stmt 1             @ ../../../components/network/thread/subg_openthread/third_party/mbedtls/repo/library/bignum.c:1281:20
	rsbs	r0, r7, #0
.Ltmp704:
	.loc	4 1281 18 is_stmt 0             @ ../../../components/network/thread/subg_openthread/third_party/mbedtls/repo/library/bignum.c:1281:18
	str	r0, [r4]
	b	.LBB29_6
.Ltmp705:
.Lfunc_end29:
	.size	mbedtls_mpi_add_mpi, .Lfunc_end29-mbedtls_mpi_add_mpi
	.cfi_endproc
	.cantunwind
	.fnend
                                        @ -- End function
	.section	.text.mbedtls_mpi_sub_mpi,"ax",%progbits
	.hidden	mbedtls_mpi_sub_mpi             @ -- Begin function mbedtls_mpi_sub_mpi
	.globl	mbedtls_mpi_sub_mpi
	.p2align	1
	.type	mbedtls_mpi_sub_mpi,%function
	.code	16                              @ @mbedtls_mpi_sub_mpi
	.thumb_func
mbedtls_mpi_sub_mpi:
.Lfunc_begin30:
	.loc	4 1299 0 is_stmt 1              @ ../../../components/network/thread/subg_openthread/third_party/mbedtls/repo/library/bignum.c:1299:0
	.fnstart
	.cfi_startproc
@ %bb.0:
	@DEBUG_VALUE: mbedtls_mpi_sub_mpi:X <- $r0
	@DEBUG_VALUE: mbedtls_mpi_sub_mpi:A <- $r1
	@DEBUG_VALUE: mbedtls_mpi_sub_mpi:B <- $r2
	.save	{r4, r5, r6, r7, lr}
	push	{r4, r5, r6, r7, lr}
	.cfi_def_cfa_offset 20
	.cfi_offset lr, -4
	.cfi_offset r7, -8
	.cfi_offset r6, -12
	.cfi_offset r5, -16
	.cfi_offset r4, -20
	.pad	#4
	sub	sp, #4
	.cfi_def_cfa_offset 24
	mov	r6, r1
.Ltmp706:
	@DEBUG_VALUE: mbedtls_mpi_sub_mpi:B <- $r5
	@DEBUG_VALUE: mbedtls_mpi_sub_mpi:A <- $r6
	.loc	4 1305 12 prologue_end          @ ../../../components/network/thread/subg_openthread/third_party/mbedtls/repo/library/bignum.c:1305:12
	ldr	r7, [r1]
.Ltmp707:
	@DEBUG_VALUE: mbedtls_mpi_sub_mpi:s <- $r7
	.loc	4 1306 19                       @ ../../../components/network/thread/subg_openthread/third_party/mbedtls/repo/library/bignum.c:1306:19
	ldr	r1, [r2]
	mov	r5, r2
.Ltmp708:
	.loc	4 1306 14 is_stmt 0             @ ../../../components/network/thread/subg_openthread/third_party/mbedtls/repo/library/bignum.c:1306:14
	muls	r1, r7, r1
.Ltmp709:
	.loc	4 1306 9                        @ ../../../components/network/thread/subg_openthread/third_party/mbedtls/repo/library/bignum.c:1306:9
