	.text
	.syntax unified
	.eabi_attribute	67, "2.09"	@ Tag_conformance
	.cpu	cortex-m3
	.eabi_attribute	6, 10	@ Tag_CPU_arch
	.eabi_attribute	7, 77	@ Tag_CPU_arch_profile
	.eabi_attribute	8, 0	@ Tag_ARM_ISA_use
	.eabi_attribute	9, 2	@ Tag_THUMB_ISA_use
	.eabi_attribute	34, 1	@ Tag_CPU_unaligned_access
	.eabi_attribute	17, 1	@ Tag_ABI_PCS_GOT_use
	.eabi_attribute	20, 2	@ Tag_ABI_FP_denormal
	.eabi_attribute	21, 0	@ Tag_ABI_FP_exceptions
	.eabi_attribute	23, 1	@ Tag_ABI_FP_number_model
	.eabi_attribute	24, 1	@ Tag_ABI_align_needed
	.eabi_attribute	25, 1	@ Tag_ABI_align_preserved
	.eabi_attribute	38, 1	@ Tag_ABI_FP_16bit_format
	.eabi_attribute	18, 4	@ Tag_ABI_PCS_wchar_t
	.eabi_attribute	26, 2	@ Tag_ABI_enum_size
	.eabi_attribute	14, 0	@ Tag_ABI_PCS_R9_use
	.file	"cli_network_data.cpp"
	.file	1 "D:\\20240115\\rafael-iot-sdk-das\\examples\\das_subg_thread\\keil" "../../../components/network/thread/subg_openthread/src\\cli/cli_output.hpp"
	.file	2 "C:\\Keil_v5\\ARM\\ARMCLANG\\Bin\\..\\include" "stdint.h"
	.file	3 "D:\\20240115\\rafael-iot-sdk-das\\examples\\das_subg_thread\\keil" "../../../components/network/thread/subg_openthread/src/core\\common/instance.hpp"
	.file	4 "D:\\20240115\\rafael-iot-sdk-das\\examples\\das_subg_thread\\keil" "../../../components/network/thread/subg_openthread/include\\openthread/instance.h"
	.file	5 "C:\\Keil_v5\\ARM\\ARMCLANG\\Bin\\..\\include" "stdarg.h"
	.file	6 "D:\\20240115\\rafael-iot-sdk-das\\examples\\das_subg_thread\\keil" "../../../components/network/thread/subg_openthread/include\\openthread/cli.h"
	.file	7 "D:\\20240115\\rafael-iot-sdk-das\\examples\\das_subg_thread\\keil" "../../../components/network/thread/subg_openthread/include\\openthread/platform/radio.h"
	.file	8 "D:\\20240115\\rafael-iot-sdk-das\\examples\\das_subg_thread\\keil" "../../../components/network/thread/subg_openthread/include\\openthread/ip6.h"
	.file	9 "D:\\20240115\\rafael-iot-sdk-das\\examples\\das_subg_thread\\keil" "../../../components/network/thread/subg_openthread/src/core\\utils/parse_cmdline.hpp"
	.file	10 "D:\\20240115\\rafael-iot-sdk-das\\examples\\das_subg_thread\\keil" "../../../components/network/thread/subg_openthread/include\\openthread/error.h"
	.file	11 "D:\\20240115\\rafael-iot-sdk-das\\examples\\das_subg_thread\\keil" "../../../components/network/thread/subg_openthread/include\\openthread/nat64.h"
	.file	12 "D:\\20240115\\rafael-iot-sdk-das\\examples\\das_subg_thread\\keil" "../../../components/network/thread/subg_openthread/src\\cli/cli_network_data.hpp"
	.file	13 "D:\\20240115\\rafael-iot-sdk-das\\examples\\das_subg_thread\\keil" "../../../components/network/thread/subg_openthread/include\\openthread/netdata.h"
	.file	14 "D:\\20240115\\rafael-iot-sdk-das\\examples\\das_subg_thread\\keil" "../../../components/network/thread/subg_openthread/src/cli/cli_network_data.cpp"
	.file	15 "C:\\Keil_v5\\ARM\\ARMCLANG\\Bin\\..\\include" "stdlib.h"
	.file	16 "C:\\Keil_v5\\ARM\\ARMCLANG\\Bin\\..\\include" "stdio.h"
	.file	17 "C:\\Keil_v5\\ARM\\ARMCLANG\\Bin\\..\\include" "string.h"
	.file	18 "C:\\Keil_v5\\ARM\\ARMCLANG\\Bin\\..\\include" "stddef.h"
	.file	19 "C:\\Keil_v5\\ARM\\ARMCLANG\\Bin\\..\\include\\libcxx" "__nullptr"
	.file	20 "C:\\Keil_v5\\ARM\\ARMCLANG\\Bin\\..\\include\\libcxx" "stddef.h"
	.file	21 "C:\\Keil_v5\\ARM\\ARMCLANG\\Bin\\..\\include" "ctype.h"
	.file	22 "D:\\20240115\\rafael-iot-sdk-das\\examples\\das_subg_thread\\keil" "../../../components/network/thread/subg_openthread/src/core\\common/encoding.hpp"
	.file	23 "D:\\20240115\\rafael-iot-sdk-das\\examples\\das_subg_thread\\keil" "../../../components/network/thread/subg_openthread/src/core\\net/ip6_address.hpp"
	.file	24 "D:\\20240115\\rafael-iot-sdk-das\\examples\\das_subg_thread\\keil" "../../../components/network/thread/subg_openthread/src/core\\mac/mac_frame.hpp"
	.file	25 "D:\\20240115\\rafael-iot-sdk-das\\examples\\das_subg_thread\\keil" "../../../components/network/thread/subg_openthread/src/core\\net/ip6_headers.hpp"
	.file	26 "D:\\20240115\\rafael-iot-sdk-das\\examples\\das_subg_thread\\keil" "../../../components/network/thread/subg_openthread/src/core\\net/icmp6.hpp"
	.file	27 "D:\\20240115\\rafael-iot-sdk-das\\examples\\das_subg_thread\\keil" "../../../components/network/thread/subg_openthread/src/core\\net/ip6.hpp"
	.file	28 "D:\\20240115\\rafael-iot-sdk-das\\examples\\das_subg_thread\\keil" "../../../components/network/thread/subg_openthread/src/core\\coap/coap_message.hpp"
	.file	29 "D:\\20240115\\rafael-iot-sdk-das\\examples\\das_subg_thread\\keil" "../../../components/network/thread/subg_openthread/src/core\\common/tlvs.hpp"
	.file	30 "D:\\20240115\\rafael-iot-sdk-das\\examples\\das_subg_thread\\keil" "../../../components/network/thread/subg_openthread/src/core\\meshcop/timestamp.hpp"
	.file	31 "D:\\20240115\\rafael-iot-sdk-das\\examples\\das_subg_thread\\keil" "../../../components/network/thread/subg_openthread/src/core\\meshcop/meshcop_tlvs.hpp"
	.file	32 "D:\\20240115\\rafael-iot-sdk-das\\examples\\das_subg_thread\\keil" "../../../components/network/thread/subg_openthread/src/core\\thread/lowpan.hpp"
	.file	33 "D:\\20240115\\rafael-iot-sdk-das\\examples\\das_subg_thread\\keil" "../../../components/network/thread/subg_openthread/src/core\\thread/mle_tlvs.hpp"
	.file	34 "D:\\20240115\\rafael-iot-sdk-das\\examples\\das_subg_thread\\keil" "../../../components/network/thread/subg_openthread/src/core\\thread/thread_tlvs.hpp"
	.file	35 "D:\\20240115\\rafael-iot-sdk-das\\examples\\das_subg_thread\\keil" "../../../components/network/thread/subg_openthread/src/core\\thread/network_data_tlvs.hpp"
	.file	36 "D:\\20240115\\rafael-iot-sdk-das\\examples\\das_subg_thread\\keil" "../../../components/network/thread/subg_openthread/src/core\\net/ip4_types.hpp"
	.file	37 "D:\\20240115\\rafael-iot-sdk-das\\examples\\das_subg_thread\\keil" "../../../components/network/thread/subg_openthread/src/core\\thread/network_data_service.hpp"
	.file	38 "D:\\20240115\\rafael-iot-sdk-das\\examples\\das_subg_thread\\keil" "../../../components/network/thread/subg_openthread/src/core\\thread/network_diagnostic_tlvs.hpp"
	.section	.text._ZN2ot3Cli11NetworkData19PrefixFlagsToStringERK20otBorderRouterConfigRA17_c,"ax",%progbits
	.hidden	_ZN2ot3Cli11NetworkData19PrefixFlagsToStringERK20otBorderRouterConfigRA17_c @ -- Begin function _ZN2ot3Cli11NetworkData19PrefixFlagsToStringERK20otBorderRouterConfigRA17_c
	.globl	_ZN2ot3Cli11NetworkData19PrefixFlagsToStringERK20otBorderRouterConfigRA17_c
	.p2align	1
	.type	_ZN2ot3Cli11NetworkData19PrefixFlagsToStringERK20otBorderRouterConfigRA17_c,%function
	.code	16                              @ @_ZN2ot3Cli11NetworkData19PrefixFlagsToStringERK20otBorderRouterConfigRA17_c
	.thumb_func
_ZN2ot3Cli11NetworkData19PrefixFlagsToStringERK20otBorderRouterConfigRA17_c:
.Lfunc_begin0:
	.loc	14 47 0                         @ ../../../components/network/thread/subg_openthread/src/cli/cli_network_data.cpp:47:0
	.fnstart
	.cfi_sections .debug_frame
	.cfi_startproc
@ %bb.0:
	@DEBUG_VALUE: PrefixFlagsToString:aConfig <- $r0
	@DEBUG_VALUE: PrefixFlagsToString:aConfig <- $r0
	@DEBUG_VALUE: PrefixFlagsToString:aString <- $r1
	@DEBUG_VALUE: PrefixFlagsToString:flagsPtr <- undef
	.loc	14 50 17 prologue_end           @ ../../../components/network/thread/subg_openthread/src/cli/cli_network_data.cpp:50:17
	ldrb	r2, [r0, #17]
.Ltmp0:
	.loc	14 50 9 is_stmt 0               @ ../../../components/network/thread/subg_openthread/src/cli/cli_network_data.cpp:50:9
	lsls	r3, r2, #29
	@DEBUG_VALUE: PrefixFlagsToString:aString <- $r1
	bpl	.LBB0_2
.Ltmp1:
@ %bb.1:
	@DEBUG_VALUE: PrefixFlagsToString:aString <- $r1
	@DEBUG_VALUE: PrefixFlagsToString:aConfig <- $r0
	.loc	14 0 9                          @ ../../../components/network/thread/subg_openthread/src/cli/cli_network_data.cpp:0:9
	movs	r2, #112
.Ltmp2:
	.loc	14 52 21 is_stmt 1              @ ../../../components/network/thread/subg_openthread/src/cli/cli_network_data.cpp:52:21
	strb	r2, [r1], #1
.Ltmp3:
	@DEBUG_VALUE: PrefixFlagsToString:aString <- [DW_OP_LLVM_entry_value 1] $r1
	@DEBUG_VALUE: PrefixFlagsToString:flagsPtr <- $r1
	.loc	14 55 17                        @ ../../../components/network/thread/subg_openthread/src/cli/cli_network_data.cpp:55:17
	ldrb	r2, [r0, #17]
.Ltmp4:
.LBB0_2:
	@DEBUG_VALUE: PrefixFlagsToString:aConfig <- $r0
	@DEBUG_VALUE: PrefixFlagsToString:flagsPtr <- $r1
	.loc	14 55 9 is_stmt 0               @ ../../../components/network/thread/subg_openthread/src/cli/cli_network_data.cpp:55:9
	lsls	r3, r2, #28
	bpl	.LBB0_4
.Ltmp5:
@ %bb.3:
	@DEBUG_VALUE: PrefixFlagsToString:flagsPtr <- $r1
	@DEBUG_VALUE: PrefixFlagsToString:aConfig <- $r0
	.loc	14 0 9                          @ ../../../components/network/thread/subg_openthread/src/cli/cli_network_data.cpp:0:9
	movs	r2, #97
.Ltmp6:
	.loc	14 57 21 is_stmt 1              @ ../../../components/network/thread/subg_openthread/src/cli/cli_network_data.cpp:57:21
	strb	r2, [r1], #1
.Ltmp7:
	@DEBUG_VALUE: PrefixFlagsToString:flagsPtr <- $r1
	.loc	14 60 17                        @ ../../../components/network/thread/subg_openthread/src/cli/cli_network_data.cpp:60:17
	ldrb	r2, [r0, #17]
.Ltmp8:
.LBB0_4:
	@DEBUG_VALUE: PrefixFlagsToString:flagsPtr <- $r1
	@DEBUG_VALUE: PrefixFlagsToString:aConfig <- $r0
	@DEBUG_VALUE: PrefixFlagsToString:flagsPtr <- $r1
	.loc	14 60 9 is_stmt 0               @ ../../../components/network/thread/subg_openthread/src/cli/cli_network_data.cpp:60:9
	lsls	r3, r2, #27
	bpl	.LBB0_6
.Ltmp9:
@ %bb.5:
	@DEBUG_VALUE: PrefixFlagsToString:flagsPtr <- $r1
	@DEBUG_VALUE: PrefixFlagsToString:aConfig <- $r0
	.loc	14 0 9                          @ ../../../components/network/thread/subg_openthread/src/cli/cli_network_data.cpp:0:9
	movs	r2, #100
.Ltmp10:
	.loc	14 62 21 is_stmt 1              @ ../../../components/network/thread/subg_openthread/src/cli/cli_network_data.cpp:62:21
	strb	r2, [r1], #1
.Ltmp11:
	@DEBUG_VALUE: PrefixFlagsToString:flagsPtr <- $r1
	.loc	14 65 17                        @ ../../../components/network/thread/subg_openthread/src/cli/cli_network_data.cpp:65:17
	ldrb	r2, [r0, #17]
.Ltmp12:
.LBB0_6:
	@DEBUG_VALUE: PrefixFlagsToString:flagsPtr <- $r1
	@DEBUG_VALUE: PrefixFlagsToString:aConfig <- $r0
	@DEBUG_VALUE: PrefixFlagsToString:flagsPtr <- $r1
	.loc	14 65 9 is_stmt 0               @ ../../../components/network/thread/subg_openthread/src/cli/cli_network_data.cpp:65:9
	lsls	r3, r2, #26
	bpl	.LBB0_8
.Ltmp13:
@ %bb.7:
	@DEBUG_VALUE: PrefixFlagsToString:flagsPtr <- $r1
	@DEBUG_VALUE: PrefixFlagsToString:aConfig <- $r0
	.loc	14 0 9                          @ ../../../components/network/thread/subg_openthread/src/cli/cli_network_data.cpp:0:9
	movs	r2, #99
.Ltmp14:
	.loc	14 67 21 is_stmt 1              @ ../../../components/network/thread/subg_openthread/src/cli/cli_network_data.cpp:67:21
	strb	r2, [r1], #1
.Ltmp15:
	@DEBUG_VALUE: PrefixFlagsToString:flagsPtr <- $r1
	.loc	14 70 17                        @ ../../../components/network/thread/subg_openthread/src/cli/cli_network_data.cpp:70:17
	ldrb	r2, [r0, #17]
.Ltmp16:
.LBB0_8:
	@DEBUG_VALUE: PrefixFlagsToString:flagsPtr <- $r1
	@DEBUG_VALUE: PrefixFlagsToString:aConfig <- $r0
	@DEBUG_VALUE: PrefixFlagsToString:flagsPtr <- $r1
	.loc	14 70 9 is_stmt 0               @ ../../../components/network/thread/subg_openthread/src/cli/cli_network_data.cpp:70:9
	lsls	r3, r2, #25
	bpl	.LBB0_10
.Ltmp17:
@ %bb.9:
	@DEBUG_VALUE: PrefixFlagsToString:flagsPtr <- $r1
	@DEBUG_VALUE: PrefixFlagsToString:aConfig <- $r0
	.loc	14 0 9                          @ ../../../components/network/thread/subg_openthread/src/cli/cli_network_data.cpp:0:9
	movs	r2, #114
.Ltmp18:
	.loc	14 72 21 is_stmt 1              @ ../../../components/network/thread/subg_openthread/src/cli/cli_network_data.cpp:72:21
	strb	r2, [r1], #1
.Ltmp19:
	@DEBUG_VALUE: PrefixFlagsToString:flagsPtr <- $r1
	.loc	14 75 17                        @ ../../../components/network/thread/subg_openthread/src/cli/cli_network_data.cpp:75:17
	ldrb	r2, [r0, #17]
.Ltmp20:
.LBB0_10:
	@DEBUG_VALUE: PrefixFlagsToString:flagsPtr <- $r1
	@DEBUG_VALUE: PrefixFlagsToString:aConfig <- $r0
	@DEBUG_VALUE: PrefixFlagsToString:flagsPtr <- $r1
	sxtb	r2, r2
.Ltmp21:
	.loc	14 75 9 is_stmt 0               @ ../../../components/network/thread/subg_openthread/src/cli/cli_network_data.cpp:75:9
	cmp.w	r2, #-1
	itt	le
	movle	r2, #111
.Ltmp22:
	.loc	14 77 21 is_stmt 1              @ ../../../components/network/thread/subg_openthread/src/cli/cli_network_data.cpp:77:21
	strble	r2, [r1], #1
.Ltmp23:
	@DEBUG_VALUE: PrefixFlagsToString:flagsPtr <- $r1
	.loc	14 80 17                        @ ../../../components/network/thread/subg_openthread/src/cli/cli_network_data.cpp:80:17
	ldrb	r2, [r0, #18]
.Ltmp24:
	.loc	14 80 9 is_stmt 0               @ ../../../components/network/thread/subg_openthread/src/cli/cli_network_data.cpp:80:9
	lsls	r3, r2, #31
	beq	.LBB0_12
.Ltmp25:
@ %bb.11:
	@DEBUG_VALUE: PrefixFlagsToString:flagsPtr <- $r1
	@DEBUG_VALUE: PrefixFlagsToString:aConfig <- $r0
	.loc	14 0 9                          @ ../../../components/network/thread/subg_openthread/src/cli/cli_network_data.cpp:0:9
	movs	r2, #115
.Ltmp26:
	.loc	14 82 21 is_stmt 1              @ ../../../components/network/thread/subg_openthread/src/cli/cli_network_data.cpp:82:21
	strb	r2, [r1], #1
.Ltmp27:
	@DEBUG_VALUE: PrefixFlagsToString:flagsPtr <- $r1
	.loc	14 85 17                        @ ../../../components/network/thread/subg_openthread/src/cli/cli_network_data.cpp:85:17
	ldrb	r2, [r0, #18]
.Ltmp28:
.LBB0_12:
	@DEBUG_VALUE: PrefixFlagsToString:flagsPtr <- $r1
	@DEBUG_VALUE: PrefixFlagsToString:aConfig <- $r0
	@DEBUG_VALUE: PrefixFlagsToString:flagsPtr <- $r1
	.loc	14 85 9 is_stmt 0               @ ../../../components/network/thread/subg_openthread/src/cli/cli_network_data.cpp:85:9
	lsls	r3, r2, #30
	bpl	.LBB0_14
.Ltmp29:
@ %bb.13:
	@DEBUG_VALUE: PrefixFlagsToString:flagsPtr <- $r1
	@DEBUG_VALUE: PrefixFlagsToString:aConfig <- $r0
	.loc	14 0 9                          @ ../../../components/network/thread/subg_openthread/src/cli/cli_network_data.cpp:0:9
	movs	r2, #110
.Ltmp30:
	.loc	14 87 21 is_stmt 1              @ ../../../components/network/thread/subg_openthread/src/cli/cli_network_data.cpp:87:21
	strb	r2, [r1], #1
.Ltmp31:
	@DEBUG_VALUE: PrefixFlagsToString:flagsPtr <- $r1
	.loc	14 90 17                        @ ../../../components/network/thread/subg_openthread/src/cli/cli_network_data.cpp:90:17
	ldrb	r2, [r0, #18]
.Ltmp32:
.LBB0_14:
	@DEBUG_VALUE: PrefixFlagsToString:flagsPtr <- $r1
	@DEBUG_VALUE: PrefixFlagsToString:aConfig <- $r0
	@DEBUG_VALUE: PrefixFlagsToString:flagsPtr <- $r1
	.loc	14 90 9 is_stmt 0               @ ../../../components/network/thread/subg_openthread/src/cli/cli_network_data.cpp:90:9
	lsls	r0, r2, #29
.Ltmp33:
	@DEBUG_VALUE: PrefixFlagsToString:aConfig <- [DW_OP_LLVM_entry_value 1] $r0
	.loc	14 0 9                          @ ../../../components/network/thread/subg_openthread/src/cli/cli_network_data.cpp:0:9
	itt	mi
	movmi	r0, #68
.Ltmp34:
	.loc	14 92 21 is_stmt 1              @ ../../../components/network/thread/subg_openthread/src/cli/cli_network_data.cpp:92:21
	strbmi	r0, [r1], #1
.Ltmp35:
	@DEBUG_VALUE: PrefixFlagsToString:flagsPtr <- $r1
	.loc	14 0 21 is_stmt 0               @ ../../../components/network/thread/subg_openthread/src/cli/cli_network_data.cpp:0:21
	movs	r0, #0
.Ltmp36:
	.loc	14 95 15 is_stmt 1              @ ../../../components/network/thread/subg_openthread/src/cli/cli_network_data.cpp:95:15
	strb	r0, [r1]
	.loc	14 96 1                         @ ../../../components/network/thread/subg_openthread/src/cli/cli_network_data.cpp:96:1
	bx	lr
.Ltmp37:
.Lfunc_end0:
	.size	_ZN2ot3Cli11NetworkData19PrefixFlagsToStringERK20otBorderRouterConfigRA17_c, .Lfunc_end0-_ZN2ot3Cli11NetworkData19PrefixFlagsToStringERK20otBorderRouterConfigRA17_c
	.cfi_endproc
	.cantunwind
	.fnend
                                        @ -- End function
	.section	.text._ZN2ot3Cli11NetworkData12OutputPrefixERK20otBorderRouterConfig,"ax",%progbits
	.hidden	_ZN2ot3Cli11NetworkData12OutputPrefixERK20otBorderRouterConfig @ -- Begin function _ZN2ot3Cli11NetworkData12OutputPrefixERK20otBorderRouterConfig
	.globl	_ZN2ot3Cli11NetworkData12OutputPrefixERK20otBorderRouterConfig
	.p2align	1
	.type	_ZN2ot3Cli11NetworkData12OutputPrefixERK20otBorderRouterConfig,%function
	.code	16                              @ @_ZN2ot3Cli11NetworkData12OutputPrefixERK20otBorderRouterConfig
	.thumb_func
_ZN2ot3Cli11NetworkData12OutputPrefixERK20otBorderRouterConfig:
.Lfunc_begin1:
	.loc	14 99 0                         @ ../../../components/network/thread/subg_openthread/src/cli/cli_network_data.cpp:99:0
	.fnstart
	.cfi_startproc
@ %bb.0:
	@DEBUG_VALUE: OutputPrefix:this <- $r0
	@DEBUG_VALUE: OutputPrefix:aConfig <- $r1
	.save	{r4, r5, r7, lr}
	push	{r4, r5, r7, lr}
	.cfi_def_cfa_offset 16
	.cfi_offset lr, -4
	.cfi_offset r7, -8
	.cfi_offset r5, -12
	.cfi_offset r4, -16
	.pad	#24
	sub	sp, #24
	.cfi_def_cfa_offset 40
	mov	r5, r1
	mov	r4, r0
.Ltmp38:
	@DEBUG_VALUE: OutputPrefix:aConfig <- $r5
	@DEBUG_VALUE: OutputPrefix:this <- $r4
	.loc	14 102 5 prologue_end           @ ../../../components/network/thread/subg_openthread/src/cli/cli_network_data.cpp:102:5
	bl	_ZN2ot3Cli6Output15OutputIp6PrefixERK11otIp6Prefix
.Ltmp39:
	.loc	14 0 5 is_stmt 0                @ ../../../components/network/thread/subg_openthread/src/cli/cli_network_data.cpp:0:5
	add.w	r1, sp, #7
	.loc	14 104 5 is_stmt 1              @ ../../../components/network/thread/subg_openthread/src/cli/cli_network_data.cpp:104:5
	mov	r0, r5
	bl	_ZN2ot3Cli11NetworkData19PrefixFlagsToStringERK20otBorderRouterConfigRA17_c
.Ltmp40:
	.loc	14 106 9                        @ ../../../components/network/thread/subg_openthread/src/cli/cli_network_data.cpp:106:9
	ldrb.w	r0, [sp, #7]
.Ltmp41:
	.loc	14 106 9 is_stmt 0              @ ../../../components/network/thread/subg_openthread/src/cli/cli_network_data.cpp:106:9
	cbz	r0, .LBB1_2
.Ltmp42:
@ %bb.1:
	@DEBUG_VALUE: OutputPrefix:aConfig <- $r5
	@DEBUG_VALUE: OutputPrefix:this <- $r4
	.loc	14 108 9 is_stmt 1              @ ../../../components/network/thread/subg_openthread/src/cli/cli_network_data.cpp:108:9
	movw	r1, :lower16:.L.str
	movt	r1, :upper16:.L.str
	add.w	r2, sp, #7
	mov	r0, r4
	bl	_ZN2ot3Cli6Output12OutputFormatEPKcz
.Ltmp43:
.LBB1_2:
	@DEBUG_VALUE: OutputPrefix:aConfig <- $r5
	@DEBUG_VALUE: OutputPrefix:this <- $r4
	.loc	14 111 68                       @ ../../../components/network/thread/subg_openthread/src/cli/cli_network_data.cpp:111:68
	ldrb	r0, [r5, #17]
	sbfx	r0, r0, #0, #2
	.loc	14 111 28 is_stmt 0             @ ../../../components/network/thread/subg_openthread/src/cli/cli_network_data.cpp:111:28
	bl	_ZN2ot3Cli11Interpreter18PreferenceToStringEi
.Ltmp44:
	.loc	14 111 90                       @ ../../../components/network/thread/subg_openthread/src/cli/cli_network_data.cpp:111:90
	ldrh	r3, [r5, #20]
	.loc	14 111 5                        @ ../../../components/network/thread/subg_openthread/src/cli/cli_network_data.cpp:111:5
	movw	r1, :lower16:.L.str.1
	.loc	14 111 28                       @ ../../../components/network/thread/subg_openthread/src/cli/cli_network_data.cpp:111:28
	mov	r2, r0
	.loc	14 111 5                        @ ../../../components/network/thread/subg_openthread/src/cli/cli_network_data.cpp:111:5
	movt	r1, :upper16:.L.str.1
	mov	r0, r4
	bl	_ZN2ot3Cli6Output10OutputLineEPKcz
.Ltmp45:
	.loc	14 112 1 is_stmt 1              @ ../../../components/network/thread/subg_openthread/src/cli/cli_network_data.cpp:112:1
	add	sp, #24
	pop	{r4, r5, r7, pc}
.Ltmp46:
.Lfunc_end1:
	.size	_ZN2ot3Cli11NetworkData12OutputPrefixERK20otBorderRouterConfig, .Lfunc_end1-_ZN2ot3Cli11NetworkData12OutputPrefixERK20otBorderRouterConfig
	.cfi_endproc
	.cantunwind
	.fnend
                                        @ -- End function
	.section	.text._ZN2ot3Cli11NetworkData18RouteFlagsToStringERK21otExternalRouteConfigRA17_c,"ax",%progbits
	.hidden	_ZN2ot3Cli11NetworkData18RouteFlagsToStringERK21otExternalRouteConfigRA17_c @ -- Begin function _ZN2ot3Cli11NetworkData18RouteFlagsToStringERK21otExternalRouteConfigRA17_c
	.globl	_ZN2ot3Cli11NetworkData18RouteFlagsToStringERK21otExternalRouteConfigRA17_c
	.p2align	1
	.type	_ZN2ot3Cli11NetworkData18RouteFlagsToStringERK21otExternalRouteConfigRA17_c,%function
	.code	16                              @ @_ZN2ot3Cli11NetworkData18RouteFlagsToStringERK21otExternalRouteConfigRA17_c
	.thumb_func
_ZN2ot3Cli11NetworkData18RouteFlagsToStringERK21otExternalRouteConfigRA17_c:
.Lfunc_begin2:
	.loc	14 115 0                        @ ../../../components/network/thread/subg_openthread/src/cli/cli_network_data.cpp:115:0
	.fnstart
	.cfi_startproc
@ %bb.0:
	@DEBUG_VALUE: RouteFlagsToString:aConfig <- $r0
	@DEBUG_VALUE: RouteFlagsToString:aConfig <- $r0
	@DEBUG_VALUE: RouteFlagsToString:aString <- $r1
	@DEBUG_VALUE: RouteFlagsToString:flagsPtr <- undef
	.loc	14 118 17 prologue_end          @ ../../../components/network/thread/subg_openthread/src/cli/cli_network_data.cpp:118:17
	ldrb	r2, [r0, #20]
.Ltmp47:
	.loc	14 118 9 is_stmt 0              @ ../../../components/network/thread/subg_openthread/src/cli/cli_network_data.cpp:118:9
	lsls	r3, r2, #28
	@DEBUG_VALUE: RouteFlagsToString:aString <- $r1
	bpl	.LBB2_2
.Ltmp48:
@ %bb.1:
	@DEBUG_VALUE: RouteFlagsToString:aString <- $r1
	@DEBUG_VALUE: RouteFlagsToString:aConfig <- $r0
	.loc	14 0 9                          @ ../../../components/network/thread/subg_openthread/src/cli/cli_network_data.cpp:0:9
	movs	r2, #115
.Ltmp49:
	.loc	14 120 21 is_stmt 1             @ ../../../components/network/thread/subg_openthread/src/cli/cli_network_data.cpp:120:21
	strb	r2, [r1], #1
.Ltmp50:
	@DEBUG_VALUE: RouteFlagsToString:aString <- [DW_OP_LLVM_entry_value 1] $r1
	@DEBUG_VALUE: RouteFlagsToString:flagsPtr <- $r1
	.loc	14 123 17                       @ ../../../components/network/thread/subg_openthread/src/cli/cli_network_data.cpp:123:17
	ldrb	r2, [r0, #20]
.Ltmp51:
.LBB2_2:
	@DEBUG_VALUE: RouteFlagsToString:aConfig <- $r0
	@DEBUG_VALUE: RouteFlagsToString:flagsPtr <- $r1
	.loc	14 123 9 is_stmt 0              @ ../../../components/network/thread/subg_openthread/src/cli/cli_network_data.cpp:123:9
	lsls	r0, r2, #29
.Ltmp52:
	@DEBUG_VALUE: RouteFlagsToString:aConfig <- [DW_OP_LLVM_entry_value 1] $r0
	.loc	14 0 9                          @ ../../../components/network/thread/subg_openthread/src/cli/cli_network_data.cpp:0:9
	itt	mi
	movmi	r0, #110
.Ltmp53:
	.loc	14 125 21 is_stmt 1             @ ../../../components/network/thread/subg_openthread/src/cli/cli_network_data.cpp:125:21
	strbmi	r0, [r1], #1
.Ltmp54:
	@DEBUG_VALUE: RouteFlagsToString:flagsPtr <- $r1
	.loc	14 0 21 is_stmt 0               @ ../../../components/network/thread/subg_openthread/src/cli/cli_network_data.cpp:0:21
	movs	r0, #0
.Ltmp55:
	.loc	14 128 15 is_stmt 1             @ ../../../components/network/thread/subg_openthread/src/cli/cli_network_data.cpp:128:15
	strb	r0, [r1]
	.loc	14 129 1                        @ ../../../components/network/thread/subg_openthread/src/cli/cli_network_data.cpp:129:1
	bx	lr
.Ltmp56:
.Lfunc_end2:
	.size	_ZN2ot3Cli11NetworkData18RouteFlagsToStringERK21otExternalRouteConfigRA17_c, .Lfunc_end2-_ZN2ot3Cli11NetworkData18RouteFlagsToStringERK21otExternalRouteConfigRA17_c
	.cfi_endproc
	.cantunwind
	.fnend
                                        @ -- End function
	.section	.text._ZN2ot3Cli11NetworkData11OutputRouteERK21otExternalRouteConfig,"ax",%progbits
	.hidden	_ZN2ot3Cli11NetworkData11OutputRouteERK21otExternalRouteConfig @ -- Begin function _ZN2ot3Cli11NetworkData11OutputRouteERK21otExternalRouteConfig
	.globl	_ZN2ot3Cli11NetworkData11OutputRouteERK21otExternalRouteConfig
	.p2align	1
	.type	_ZN2ot3Cli11NetworkData11OutputRouteERK21otExternalRouteConfig,%function
	.code	16                              @ @_ZN2ot3Cli11NetworkData11OutputRouteERK21otExternalRouteConfig
	.thumb_func
_ZN2ot3Cli11NetworkData11OutputRouteERK21otExternalRouteConfig:
.Lfunc_begin3:
	.loc	14 132 0                        @ ../../../components/network/thread/subg_openthread/src/cli/cli_network_data.cpp:132:0
	.fnstart
	.cfi_startproc
@ %bb.0:
	@DEBUG_VALUE: OutputRoute:this <- $r0
	@DEBUG_VALUE: OutputRoute:aConfig <- $r1
	.save	{r4, r5, r6, lr}
	push	{r4, r5, r6, lr}
	.cfi_def_cfa_offset 16
	.cfi_offset lr, -4
	.cfi_offset r6, -8
	.cfi_offset r5, -12
	.cfi_offset r4, -16
	.pad	#24
	sub	sp, #24
	.cfi_def_cfa_offset 40
	mov	r5, r1
	mov	r4, r0
	add.w	r6, sp, #7
.Ltmp57:
	@DEBUG_VALUE: OutputRoute:aConfig <- $r5
	@DEBUG_VALUE: OutputRoute:this <- $r4
	.loc	14 135 5 prologue_end           @ ../../../components/network/thread/subg_openthread/src/cli/cli_network_data.cpp:135:5
	bl	_ZN2ot3Cli6Output15OutputIp6PrefixERK11otIp6Prefix
.Ltmp58:
	@DEBUG_VALUE: RouteFlagsToString:aString <- [DW_OP_plus_uconst 7, DW_OP_stack_value] $sp
	@DEBUG_VALUE: RouteFlagsToString:aConfig <- $r5
	@DEBUG_VALUE: RouteFlagsToString:flagsPtr <- [DW_OP_plus_uconst 7, DW_OP_stack_value] $sp
	.loc	14 118 17                       @ ../../../components/network/thread/subg_openthread/src/cli/cli_network_data.cpp:118:17
	ldrb	r0, [r5, #20]
.Ltmp59:
	.loc	14 118 9 is_stmt 0              @ ../../../components/network/thread/subg_openthread/src/cli/cli_network_data.cpp:118:9
	lsls	r1, r0, #28
.Ltmp60:
	.loc	14 120 18 is_stmt 1             @ ../../../components/network/thread/subg_openthread/src/cli/cli_network_data.cpp:120:18
	ittt	mi
	addmi	r6, #1
.Ltmp61:
	@DEBUG_VALUE: RouteFlagsToString:flagsPtr <- $r6
	.loc	14 0 18 is_stmt 0               @ ../../../components/network/thread/subg_openthread/src/cli/cli_network_data.cpp:0:18
	movmi	r1, #115
	.loc	14 120 21                       @ ../../../components/network/thread/subg_openthread/src/cli/cli_network_data.cpp:120:21
	strbmi.w	r1, [sp, #7]
.Ltmp62:
	@DEBUG_VALUE: RouteFlagsToString:flagsPtr <- $r6
	.loc	14 123 9 is_stmt 1              @ ../../../components/network/thread/subg_openthread/src/cli/cli_network_data.cpp:123:9
	lsls	r0, r0, #29
	itt	mi
	movmi	r0, #110
.Ltmp63:
	.loc	14 125 21                       @ ../../../components/network/thread/subg_openthread/src/cli/cli_network_data.cpp:125:21
	strbmi	r0, [r6], #1
.Ltmp64:
	@DEBUG_VALUE: RouteFlagsToString:flagsPtr <- $r6
	.loc	14 0 21 is_stmt 0               @ ../../../components/network/thread/subg_openthread/src/cli/cli_network_data.cpp:0:21
	movs	r0, #0
.Ltmp65:
	.loc	14 128 15 is_stmt 1             @ ../../../components/network/thread/subg_openthread/src/cli/cli_network_data.cpp:128:15
	strb	r0, [r6]
.Ltmp66:
	.loc	14 139 9                        @ ../../../components/network/thread/subg_openthread/src/cli/cli_network_data.cpp:139:9
	ldrb.w	r0, [sp, #7]
.Ltmp67:
	.loc	14 139 9 is_stmt 0              @ ../../../components/network/thread/subg_openthread/src/cli/cli_network_data.cpp:139:9
	cbz	r0, .LBB3_2
.Ltmp68:
@ %bb.1:
	@DEBUG_VALUE: OutputRoute:aConfig <- $r5
	@DEBUG_VALUE: OutputRoute:this <- $r4
	.loc	14 141 9 is_stmt 1              @ ../../../components/network/thread/subg_openthread/src/cli/cli_network_data.cpp:141:9
	movw	r1, :lower16:.L.str
	movt	r1, :upper16:.L.str
	add.w	r2, sp, #7
	mov	r0, r4
	bl	_ZN2ot3Cli6Output12OutputFormatEPKcz
.Ltmp69:
.LBB3_2:
	@DEBUG_VALUE: OutputRoute:aConfig <- $r5
	@DEBUG_VALUE: OutputRoute:this <- $r4
	.loc	14 144 68                       @ ../../../components/network/thread/subg_openthread/src/cli/cli_network_data.cpp:144:68
	ldrb	r0, [r5, #20]
	sbfx	r0, r0, #0, #2
	.loc	14 144 28 is_stmt 0             @ ../../../components/network/thread/subg_openthread/src/cli/cli_network_data.cpp:144:28
	bl	_ZN2ot3Cli11Interpreter18PreferenceToStringEi
.Ltmp70:
	.loc	14 144 90                       @ ../../../components/network/thread/subg_openthread/src/cli/cli_network_data.cpp:144:90
	ldrh	r3, [r5, #18]
	.loc	14 144 5                        @ ../../../components/network/thread/subg_openthread/src/cli/cli_network_data.cpp:144:5
	movw	r1, :lower16:.L.str.1
	.loc	14 144 28                       @ ../../../components/network/thread/subg_openthread/src/cli/cli_network_data.cpp:144:28
	mov	r2, r0
	.loc	14 144 5                        @ ../../../components/network/thread/subg_openthread/src/cli/cli_network_data.cpp:144:5
	movt	r1, :upper16:.L.str.1
	mov	r0, r4
	bl	_ZN2ot3Cli6Output10OutputLineEPKcz
.Ltmp71:
	.loc	14 145 1 is_stmt 1              @ ../../../components/network/thread/subg_openthread/src/cli/cli_network_data.cpp:145:1
	add	sp, #24
	pop	{r4, r5, r6, pc}
.Ltmp72:
.Lfunc_end3:
	.size	_ZN2ot3Cli11NetworkData11OutputRouteERK21otExternalRouteConfig, .Lfunc_end3-_ZN2ot3Cli11NetworkData11OutputRouteERK21otExternalRouteConfig
	.cfi_endproc
	.cantunwind
	.fnend
                                        @ -- End function
	.section	.text._ZN2ot3Cli11NetworkData13OutputServiceERK15otServiceConfig,"ax",%progbits
	.hidden	_ZN2ot3Cli11NetworkData13OutputServiceERK15otServiceConfig @ -- Begin function _ZN2ot3Cli11NetworkData13OutputServiceERK15otServiceConfig
	.globl	_ZN2ot3Cli11NetworkData13OutputServiceERK15otServiceConfig
	.p2align	2
	.type	_ZN2ot3Cli11NetworkData13OutputServiceERK15otServiceConfig,%function
	.code	16                              @ @_ZN2ot3Cli11NetworkData13OutputServiceERK15otServiceConfig
	.thumb_func
_ZN2ot3Cli11NetworkData13OutputServiceERK15otServiceConfig:
.Lfunc_begin4:
	.loc	14 148 0                        @ ../../../components/network/thread/subg_openthread/src/cli/cli_network_data.cpp:148:0
	.fnstart
	.cfi_startproc
@ %bb.0:
	@DEBUG_VALUE: OutputService:this <- $r0
	@DEBUG_VALUE: OutputService:aConfig <- $r1
	.save	{r4, r5, r7, lr}
	push	{r4, r5, r7, lr}
	.cfi_def_cfa_offset 16
	.cfi_offset lr, -4
	.cfi_offset r7, -8
	.cfi_offset r5, -12
	.cfi_offset r4, -16
.Ltmp73:
	.loc	14 149 42 prologue_end          @ ../../../components/network/thread/subg_openthread/src/cli/cli_network_data.cpp:149:42
	ldr	r2, [r1, #4]
	mov	r4, r1
.Ltmp74:
	@DEBUG_VALUE: OutputService:aConfig <- $r4
	@DEBUG_VALUE: OutputService:aConfig <- $r4
	.loc	14 149 5 is_stmt 0              @ ../../../components/network/thread/subg_openthread/src/cli/cli_network_data.cpp:149:5
	adr	r1, .LCPI4_0
	mov	r5, r0
.Ltmp75:
	@DEBUG_VALUE: OutputService:this <- $r5
	bl	_ZN2ot3Cli6Output12OutputFormatEPKcz
.Ltmp76:
	.loc	14 150 47 is_stmt 1             @ ../../../components/network/thread/subg_openthread/src/cli/cli_network_data.cpp:150:47
	ldrb	r2, [r4, #8]
	.loc	14 150 17 is_stmt 0             @ ../../../components/network/thread/subg_openthread/src/cli/cli_network_data.cpp:150:17
	add.w	r1, r4, #9
	.loc	14 150 5                        @ ../../../components/network/thread/subg_openthread/src/cli/cli_network_data.cpp:150:5
	mov	r0, r5
	bl	_ZN2ot3Cli6Output11OutputBytesEPKht
.Ltmp77:
	.loc	14 151 5 is_stmt 1              @ ../../../components/network/thread/subg_openthread/src/cli/cli_network_data.cpp:151:5
	adr	r1, .LCPI4_1
	mov	r0, r5
	bl	_ZN2ot3Cli6Output12OutputFormatEPKcz
.Ltmp78:
	.loc	14 152 74                       @ ../../../components/network/thread/subg_openthread/src/cli/cli_network_data.cpp:152:74
	ldrb.w	r2, [r4, #263]
	.loc	14 152 17 is_stmt 0             @ ../../../components/network/thread/subg_openthread/src/cli/cli_network_data.cpp:152:17
	add.w	r1, r4, #264
	.loc	14 152 5                        @ ../../../components/network/thread/subg_openthread/src/cli/cli_network_data.cpp:152:5
	mov	r0, r5
	bl	_ZN2ot3Cli6Output11OutputBytesEPKht
.Ltmp79:
	.loc	14 154 31 is_stmt 1             @ ../../../components/network/thread/subg_openthread/src/cli/cli_network_data.cpp:154:31
	ldrb.w	r0, [r4, #262]
.Ltmp80:
	.loc	14 154 9 is_stmt 0              @ ../../../components/network/thread/subg_openthread/src/cli/cli_network_data.cpp:154:9
	lsls	r0, r0, #31
	beq	.LBB4_2
.Ltmp81:
@ %bb.1:
	@DEBUG_VALUE: OutputService:this <- $r5
	@DEBUG_VALUE: OutputService:aConfig <- $r4
	.loc	14 156 9 is_stmt 1              @ ../../../components/network/thread/subg_openthread/src/cli/cli_network_data.cpp:156:9
	adr	r1, .LCPI4_2
	mov	r0, r5
	bl	_ZN2ot3Cli6Output12OutputFormatEPKcz
.Ltmp82:
.LBB4_2:
	@DEBUG_VALUE: OutputService:this <- $r5
	@DEBUG_VALUE: OutputService:aConfig <- $r4
	.loc	14 159 47                       @ ../../../components/network/thread/subg_openthread/src/cli/cli_network_data.cpp:159:47
	ldrh.w	r2, [r4, #512]
	.loc	14 159 5 is_stmt 0              @ ../../../components/network/thread/subg_openthread/src/cli/cli_network_data.cpp:159:5
	adr	r1, .LCPI4_3
	mov	r0, r5
	pop.w	{r4, r5, r7, lr}
.Ltmp83:
	@DEBUG_VALUE: OutputService:this <- [DW_OP_LLVM_entry_value 1] $r0
	@DEBUG_VALUE: OutputService:aConfig <- [DW_OP_LLVM_entry_value 1] $r1
	b	_ZN2ot3Cli6Output10OutputLineEPKcz
.Ltmp84:
	.p2align	2
@ %bb.3:
	.loc	14 0 5                          @ ../../../components/network/thread/subg_openthread/src/cli/cli_network_data.cpp:0:5
.LCPI4_0:
.L.str.2:
	.asciz	"%lu \000\000\000"
.LCPI4_1:
.L.str.3:
	.asciz	" \000\000"
.LCPI4_2:
.L.str.4:
	.asciz	" s\000"
.LCPI4_3:
.L.str.5:
	.asciz	" %04x\000\000"
.Lfunc_end4:
	.size	_ZN2ot3Cli11NetworkData13OutputServiceERK15otServiceConfig, .Lfunc_end4-_ZN2ot3Cli11NetworkData13OutputServiceERK15otServiceConfig
	.cfi_endproc
	.cantunwind
	.fnend
                                        @ -- End function
	.section	.text._ZN2ot3Cli11NetworkData7ProcessILy112625398707738EEE7otErrorPNS_5Utils13CmdLineParser3ArgE,"ax",%progbits
	.hidden	_ZN2ot3Cli11NetworkData7ProcessILy112625398707738EEE7otErrorPNS_5Utils13CmdLineParser3ArgE @ -- Begin function _ZN2ot3Cli11NetworkData7ProcessILy112625398707738EEE7otErrorPNS_5Utils13CmdLineParser3ArgE
	.globl	_ZN2ot3Cli11NetworkData7ProcessILy112625398707738EEE7otErrorPNS_5Utils13CmdLineParser3ArgE
	.p2align	1
	.type	_ZN2ot3Cli11NetworkData7ProcessILy112625398707738EEE7otErrorPNS_5Utils13CmdLineParser3ArgE,%function
	.code	16                              @ @_ZN2ot3Cli11NetworkData7ProcessILy112625398707738EEE7otErrorPNS_5Utils13CmdLineParser3ArgE
	.thumb_func
_ZN2ot3Cli11NetworkData7ProcessILy112625398707738EEE7otErrorPNS_5Utils13CmdLineParser3ArgE:
.Lfunc_begin5:
	.loc	14 173 0 is_stmt 1              @ ../../../components/network/thread/subg_openthread/src/cli/cli_network_data.cpp:173:0
	.fnstart
	.cfi_startproc
@ %bb.0:
	@DEBUG_VALUE: Process<112625398707738>:this <- $r0
	@DEBUG_VALUE: Process<112625398707738>:aArgs <- $r1
	@DEBUG_VALUE: Process<112625398707738>:aArgs <- $r1
	@DEBUG_VALUE: IsEmpty:this <- $r1
	@DEBUG_VALUE: IsEmpty:this <- $r1
	.save	{r4, lr}
	push	{r4, lr}
	.cfi_def_cfa_offset 8
	.cfi_offset lr, -4
	.cfi_offset r4, -8
.Ltmp85:
	.loc	9 321 40 prologue_end           @ ../../../components/network/thread/subg_openthread/src/core\utils/parse_cmdline.hpp:321:40
	ldr	r1, [r1]
.Ltmp86:
	@DEBUG_VALUE: Process<112625398707738>:aArgs <- [DW_OP_LLVM_entry_value 1] $r1
	@DEBUG_VALUE: Process<112625398707738>:error <- 0
	@DEBUG_VALUE: Process<112625398707738>:this <- $r0
	.loc	14 176 5                        @ ../../../components/network/thread/subg_openthread/src/cli/cli_network_data.cpp:176:5
	cbz	r1, .LBB5_2
.Ltmp87:
@ %bb.1:
	@DEBUG_VALUE: Process<112625398707738>:this <- $r0
	@DEBUG_VALUE: Process<112625398707738>:error <- 0
	@DEBUG_VALUE: Process<112625398707738>:aArgs <- [DW_OP_LLVM_entry_value 1] $r1
	.loc	14 0 5 is_stmt 0                @ ../../../components/network/thread/subg_openthread/src/cli/cli_network_data.cpp:0:5
	movs	r0, #7
.Ltmp88:
	@DEBUG_VALUE: Process<112625398707738>:this <- [DW_OP_LLVM_entry_value 1] $r0
	@DEBUG_VALUE: Process<112625398707738>:error <- $r0
	@DEBUG_LABEL: Process<112625398707738>:exit
	.loc	14 180 5 is_stmt 1              @ ../../../components/network/thread/subg_openthread/src/cli/cli_network_data.cpp:180:5
	pop	{r4, pc}
.Ltmp89:
.LBB5_2:
	@DEBUG_VALUE: Process<112625398707738>:this <- $r0
	@DEBUG_VALUE: Process<112625398707738>:error <- 0
	@DEBUG_VALUE: Process<112625398707738>:aArgs <- [DW_OP_LLVM_entry_value 1] $r1
	.loc	14 0 5 is_stmt 0                @ ../../../components/network/thread/subg_openthread/src/cli/cli_network_data.cpp:0:5
	mov	r4, r0
.Ltmp90:
	@DEBUG_VALUE: Process<112625398707738>:this <- $r4
	@DEBUG_VALUE: GetInstancePtr:this <- $r4
	.loc	1 204 47 is_stmt 1              @ ../../../components/network/thread/subg_openthread/src\cli/cli_output.hpp:204:47
	ldr	r0, [r0]
.Ltmp91:
	.loc	14 177 22                       @ ../../../components/network/thread/subg_openthread/src/cli/cli_network_data.cpp:177:22
	bl	otNetDataGetLength
.Ltmp92:
	.loc	14 177 5 is_stmt 0              @ ../../../components/network/thread/subg_openthread/src/cli/cli_network_data.cpp:177:5
	movw	r1, :lower16:.L.str.6
	.loc	14 177 22                       @ ../../../components/network/thread/subg_openthread/src/cli/cli_network_data.cpp:177:22
	mov	r2, r0
	.loc	14 177 5                        @ ../../../components/network/thread/subg_openthread/src/cli/cli_network_data.cpp:177:5
	movt	r1, :upper16:.L.str.6
	mov	r0, r4
	bl	_ZN2ot3Cli6Output10OutputLineEPKcz
.Ltmp93:
	.loc	14 0 5                          @ ../../../components/network/thread/subg_openthread/src/cli/cli_network_data.cpp:0:5
	movs	r0, #0
.Ltmp94:
	@DEBUG_VALUE: Process<112625398707738>:error <- $r0
	@DEBUG_LABEL: Process<112625398707738>:exit
	.loc	14 180 5 is_stmt 1              @ ../../../components/network/thread/subg_openthread/src/cli/cli_network_data.cpp:180:5
	pop	{r4, pc}
.Ltmp95:
.Lfunc_end5:
	.size	_ZN2ot3Cli11NetworkData7ProcessILy112625398707738EEE7otErrorPNS_5Utils13CmdLineParser3ArgE, .Lfunc_end5-_ZN2ot3Cli11NetworkData7ProcessILy112625398707738EEE7otErrorPNS_5Utils13CmdLineParser3ArgE
	.cfi_endproc
	.cantunwind
	.fnend
                                        @ -- End function
	.section	.text._ZN2ot3Cli11NetworkData7ProcessILy4362819052862294378EEE7otErrorPNS_5Utils13CmdLineParser3ArgE,"ax",%progbits
	.hidden	_ZN2ot3Cli11NetworkData7ProcessILy4362819052862294378EEE7otErrorPNS_5Utils13CmdLineParser3ArgE @ -- Begin function _ZN2ot3Cli11NetworkData7ProcessILy4362819052862294378EEE7otErrorPNS_5Utils13CmdLineParser3ArgE
	.globl	_ZN2ot3Cli11NetworkData7ProcessILy4362819052862294378EEE7otErrorPNS_5Utils13CmdLineParser3ArgE
	.p2align	2
	.type	_ZN2ot3Cli11NetworkData7ProcessILy4362819052862294378EEE7otErrorPNS_5Utils13CmdLineParser3ArgE,%function
	.code	16                              @ @_ZN2ot3Cli11NetworkData7ProcessILy4362819052862294378EEE7otErrorPNS_5Utils13CmdLineParser3ArgE
	.thumb_func
_ZN2ot3Cli11NetworkData7ProcessILy4362819052862294378EEE7otErrorPNS_5Utils13CmdLineParser3ArgE:
.Lfunc_begin6:
	.loc	14 184 0                        @ ../../../components/network/thread/subg_openthread/src/cli/cli_network_data.cpp:184:0
	.fnstart
	.cfi_startproc
@ %bb.0:
	@DEBUG_VALUE: Process<4362819052862294378>:this <- $r0
	@DEBUG_VALUE: Process<4362819052862294378>:aArgs <- $r1
	@DEBUG_VALUE: Process<4362819052862294378>:aArgs <- $r1
	@DEBUG_VALUE: IsEmpty:this <- $r1
	@DEBUG_VALUE: IsEmpty:this <- $r1
	.save	{r4, lr}
	push	{r4, lr}
	.cfi_def_cfa_offset 8
	.cfi_offset lr, -4
	.cfi_offset r4, -8
.Ltmp96:
	.loc	9 321 40 prologue_end           @ ../../../components/network/thread/subg_openthread/src/core\utils/parse_cmdline.hpp:321:40
	ldr	r2, [r1]
	mov	r4, r0
.Ltmp97:
	@DEBUG_VALUE: Process<4362819052862294378>:this <- $r4
	@DEBUG_VALUE: Process<4362819052862294378>:error <- 0
	@DEBUG_VALUE: Process<4362819052862294378>:this <- $r4
	.loc	14 197 9                        @ ../../../components/network/thread/subg_openthread/src/cli/cli_network_data.cpp:197:9
	cbz	r2, .LBB6_3
.Ltmp98:
@ %bb.1:
	@DEBUG_VALUE: Process<4362819052862294378>:this <- $r4
	@DEBUG_VALUE: Process<4362819052862294378>:aArgs <- $r1
	@DEBUG_VALUE: Process<4362819052862294378>:error <- 0
	.loc	14 210 23                       @ ../../../components/network/thread/subg_openthread/src/cli/cli_network_data.cpp:210:23
	adr	r2, .LCPI6_0
	mov	r0, r1
	mov	r1, r2
.Ltmp99:
	@DEBUG_VALUE: Process<4362819052862294378>:aArgs <- [DW_OP_LLVM_entry_value 1] $r1
	bl	_ZNK2ot5Utils13CmdLineParser3ArgeqEPKc
.Ltmp100:
	.loc	14 210 14 is_stmt 0             @ ../../../components/network/thread/subg_openthread/src/cli/cli_network_data.cpp:210:14
	cbz	r0, .LBB6_5
.Ltmp101:
@ %bb.2:
	@DEBUG_VALUE: Process<4362819052862294378>:this <- $r4
	@DEBUG_VALUE: Process<4362819052862294378>:aArgs <- [DW_OP_LLVM_entry_value 1] $r1
	@DEBUG_VALUE: Process<4362819052862294378>:error <- 0
	@DEBUG_VALUE: GetInstancePtr:this <- $r4
	.loc	1 204 47 is_stmt 1              @ ../../../components/network/thread/subg_openthread/src\cli/cli_output.hpp:204:47
	ldr	r0, [r4]
.Ltmp102:
	.loc	14 212 9                        @ ../../../components/network/thread/subg_openthread/src/cli/cli_network_data.cpp:212:9
	bl	otNetDataResetMaxLength
.Ltmp103:
	.loc	14 0 9 is_stmt 0                @ ../../../components/network/thread/subg_openthread/src/cli/cli_network_data.cpp:0:9
	b	.LBB6_4
.Ltmp104:
.LBB6_3:
	@DEBUG_VALUE: Process<4362819052862294378>:this <- $r4
	@DEBUG_VALUE: Process<4362819052862294378>:aArgs <- $r1
	@DEBUG_VALUE: Process<4362819052862294378>:error <- 0
	@DEBUG_VALUE: GetInstancePtr:this <- $r4
	.loc	1 204 47 is_stmt 1              @ ../../../components/network/thread/subg_openthread/src\cli/cli_output.hpp:204:47
	ldr	r0, [r4]
.Ltmp105:
	.loc	14 199 26                       @ ../../../components/network/thread/subg_openthread/src/cli/cli_network_data.cpp:199:26
	bl	otNetDataGetMaxLength
.Ltmp106:
	@DEBUG_VALUE: Process<4362819052862294378>:aArgs <- [DW_OP_LLVM_entry_value 1] $r1
	.loc	14 199 9 is_stmt 0              @ ../../../components/network/thread/subg_openthread/src/cli/cli_network_data.cpp:199:9
	movw	r1, :lower16:.L.str.6
	.loc	14 199 26                       @ ../../../components/network/thread/subg_openthread/src/cli/cli_network_data.cpp:199:26
	mov	r2, r0
	.loc	14 199 9                        @ ../../../components/network/thread/subg_openthread/src/cli/cli_network_data.cpp:199:9
	movt	r1, :upper16:.L.str.6
	mov	r0, r4
	bl	_ZN2ot3Cli6Output10OutputLineEPKcz
.Ltmp107:
.LBB6_4:
	@DEBUG_VALUE: Process<4362819052862294378>:this <- $r4
	@DEBUG_VALUE: Process<4362819052862294378>:aArgs <- [DW_OP_LLVM_entry_value 1] $r1
	@DEBUG_VALUE: Process<4362819052862294378>:error <- 0
	.loc	14 0 9                          @ ../../../components/network/thread/subg_openthread/src/cli/cli_network_data.cpp:0:9
	movs	r0, #0
.Ltmp108:
	@DEBUG_VALUE: Process<4362819052862294378>:error <- $r0
	.loc	14 219 5 is_stmt 1              @ ../../../components/network/thread/subg_openthread/src/cli/cli_network_data.cpp:219:5
	pop	{r4, pc}
.Ltmp109:
.LBB6_5:
	@DEBUG_VALUE: Process<4362819052862294378>:this <- $r4
	@DEBUG_VALUE: Process<4362819052862294378>:aArgs <- [DW_OP_LLVM_entry_value 1] $r1
	@DEBUG_VALUE: Process<4362819052862294378>:error <- 0
	.loc	14 0 5 is_stmt 0                @ ../../../components/network/thread/subg_openthread/src/cli/cli_network_data.cpp:0:5
	movs	r0, #7
.Ltmp110:
	@DEBUG_VALUE: Process<4362819052862294378>:error <- $r0
	.loc	14 219 5                        @ ../../../components/network/thread/subg_openthread/src/cli/cli_network_data.cpp:219:5
	pop	{r4, pc}
.Ltmp111:
	.p2align	2
@ %bb.6:
	.loc	14 0 5                          @ ../../../components/network/thread/subg_openthread/src/cli/cli_network_data.cpp:0:5
.LCPI6_0:
.L.str.7:
	.asciz	"reset\000\000"
.Lfunc_end6:
	.size	_ZN2ot3Cli11NetworkData7ProcessILy4362819052862294378EEE7otErrorPNS_5Utils13CmdLineParser3ArgE, .Lfunc_end6-_ZN2ot3Cli11NetworkData7ProcessILy4362819052862294378EEE7otErrorPNS_5Utils13CmdLineParser3ArgE
	.cfi_endproc
	.cantunwind
	.fnend
                                        @ -- End function
	.section	.text._ZN2ot3Cli11NetworkData7ProcessILy3328099188798998309EEE7otErrorPNS_5Utils13CmdLineParser3ArgE,"ax",%progbits
	.hidden	_ZN2ot3Cli11NetworkData7ProcessILy3328099188798998309EEE7otErrorPNS_5Utils13CmdLineParser3ArgE @ -- Begin function _ZN2ot3Cli11NetworkData7ProcessILy3328099188798998309EEE7otErrorPNS_5Utils13CmdLineParser3ArgE
	.globl	_ZN2ot3Cli11NetworkData7ProcessILy3328099188798998309EEE7otErrorPNS_5Utils13CmdLineParser3ArgE
	.p2align	2
	.type	_ZN2ot3Cli11NetworkData7ProcessILy3328099188798998309EEE7otErrorPNS_5Utils13CmdLineParser3ArgE,%function
	.code	16                              @ @_ZN2ot3Cli11NetworkData7ProcessILy3328099188798998309EEE7otErrorPNS_5Utils13CmdLineParser3ArgE
	.thumb_func
_ZN2ot3Cli11NetworkData7ProcessILy3328099188798998309EEE7otErrorPNS_5Utils13CmdLineParser3ArgE:
.Lfunc_begin7:
	.loc	14 452 0 is_stmt 1              @ ../../../components/network/thread/subg_openthread/src/cli/cli_network_data.cpp:452:0
	.fnstart
	.cfi_startproc
@ %bb.0:
	@DEBUG_VALUE: Process<3328099188798998309>:this <- $r0
	@DEBUG_VALUE: Process<3328099188798998309>:aArgs <- $r1
	.save	{r4, r5, r7, lr}
	push	{r4, r5, r7, lr}
	.cfi_def_cfa_offset 16
	.cfi_offset lr, -4
	.cfi_offset r7, -8
	.cfi_offset r5, -12
	.cfi_offset r4, -16
	.pad	#24
	sub	sp, #24
	.cfi_def_cfa_offset 40
	mov	r5, r1
.Ltmp112:
	@DEBUG_VALUE: Process<3328099188798998309>:aArgs <- $r5
	mov	r4, r0
.Ltmp113:
	@DEBUG_VALUE: Process<3328099188798998309>:this <- $r4
	@DEBUG_VALUE: Process<3328099188798998309>:aArgs <- $r5
	@DEBUG_VALUE: Process<3328099188798998309>:this <- $r4
	.loc	14 457 5 prologue_end           @ ../../../components/network/thread/subg_openthread/src/cli/cli_network_data.cpp:457:5
	adr	r1, .LCPI7_0
	mov	r0, r5
	bl	_ZNK2ot5Utils13CmdLineParser3ArgeqEPKc
.Ltmp114:
	.loc	14 457 5 is_stmt 0              @ ../../../components/network/thread/subg_openthread/src/cli/cli_network_data.cpp:457:5
	cbz	r0, .LBB7_6
.Ltmp115:
@ %bb.1:
	@DEBUG_VALUE: Process<3328099188798998309>:aArgs <- $r5
	@DEBUG_VALUE: Process<3328099188798998309>:this <- $r4
	.loc	14 459 47 is_stmt 1             @ ../../../components/network/thread/subg_openthread/src/cli/cli_network_data.cpp:459:47
	adds	r5, #4
.Ltmp116:
	.loc	14 0 47 is_stmt 0               @ ../../../components/network/thread/subg_openthread/src/cli/cli_network_data.cpp:0:47
	mov	r1, sp
	.loc	14 459 13                       @ ../../../components/network/thread/subg_openthread/src/cli/cli_network_data.cpp:459:13
	mov	r0, r5
	bl	_ZN2ot3Cli11Interpreter20ParseJoinerDiscernerERNS_5Utils13CmdLineParser3ArgER17otJoinerDiscerner
.Ltmp117:
	@DEBUG_VALUE: Process<3328099188798998309>:error <- $r0
	.loc	14 461 9 is_stmt 1              @ ../../../components/network/thread/subg_openthread/src/cli/cli_network_data.cpp:461:9
	cmp	r0, #23
	bne	.LBB7_3
.Ltmp118:
@ %bb.2:
	@DEBUG_VALUE: Process<3328099188798998309>:this <- $r4
	@DEBUG_VALUE: Process<3328099188798998309>:error <- $r0
	.loc	14 0 9 is_stmt 0                @ ../../../components/network/thread/subg_openthread/src/cli/cli_network_data.cpp:0:9
	movs	r1, #0
.Ltmp119:
	.loc	9 560 48 is_stmt 1              @ ../../../components/network/thread/subg_openthread/src/core\utils/parse_cmdline.hpp:560:48
	ldr	r0, [r5]
.Ltmp120:
	.loc	14 463 27                       @ ../../../components/network/thread/subg_openthread/src/cli/cli_network_data.cpp:463:27
	strb.w	r1, [sp, #8]
.Ltmp121:
	@DEBUG_VALUE: ParseAsHexString:aSize <- 8
	@DEBUG_VALUE: ParseAsHexString:this <- undef
	@DEBUG_VALUE: ParseAsHexString<8>:aBuffer <- [DW_OP_plus_uconst 16, DW_OP_stack_value] $sp
	@DEBUG_VALUE: ParseAsHexString<8>:this <- undef
	.loc	14 0 27 is_stmt 0               @ ../../../components/network/thread/subg_openthread/src/cli/cli_network_data.cpp:0:27
	add	r1, sp, #16
.Ltmp122:
	.loc	9 560 16 is_stmt 1              @ ../../../components/network/thread/subg_openthread/src/core\utils/parse_cmdline.hpp:560:16
	movs	r2, #8
	bl	_ZN2ot5Utils13CmdLineParser16ParseAsHexStringEPKcPht
.Ltmp123:
	@DEBUG_VALUE: ParseAsHexString:aBuffer <- [DW_OP_plus_uconst 16, DW_OP_stack_value] $sp
	@DEBUG_VALUE: Process<3328099188798998309>:error <- $r0
.LBB7_3:
	@DEBUG_VALUE: Process<3328099188798998309>:this <- $r4
	@DEBUG_VALUE: Process<3328099188798998309>:error <- $r0
	@DEBUG_VALUE: Process<3328099188798998309>:error <- $r0
	.loc	14 467 5                        @ ../../../components/network/thread/subg_openthread/src/cli/cli_network_data.cpp:467:5
	cbnz	r0, .LBB7_7
.Ltmp124:
@ %bb.4:
	@DEBUG_VALUE: Process<3328099188798998309>:this <- $r4
	@DEBUG_VALUE: Process<3328099188798998309>:error <- $r0
	.loc	14 485 19                       @ ../../../components/network/thread/subg_openthread/src/cli/cli_network_data.cpp:485:19
	ldrb.w	r1, [sp, #8]
.Ltmp125:
	@DEBUG_VALUE: GetInstancePtr:this <- $r4
	@DEBUG_VALUE: GetInstancePtr:this <- $r4
	.loc	14 0 0 is_stmt 0                @ ../../../components/network/thread/subg_openthread/src/cli/cli_network_data.cpp:0:0
	ldr	r0, [r4]
.Ltmp126:
	.loc	14 485 9                        @ ../../../components/network/thread/subg_openthread/src/cli/cli_network_data.cpp:485:9
	cbz	r1, .LBB7_8
.Ltmp127:
@ %bb.5:
	@DEBUG_VALUE: Process<3328099188798998309>:this <- $r4
	.loc	14 0 9                          @ ../../../components/network/thread/subg_openthread/src/cli/cli_network_data.cpp:0:9
	mov	r1, sp
.Ltmp128:
	.loc	14 487 17 is_stmt 1             @ ../../../components/network/thread/subg_openthread/src/cli/cli_network_data.cpp:487:17
	bl	otNetDataSteeringDataCheckJoinerWithDiscerner
.Ltmp129:
	@DEBUG_VALUE: Process<3328099188798998309>:error <- $r0
	.loc	14 0 17 is_stmt 0               @ ../../../components/network/thread/subg_openthread/src/cli/cli_network_data.cpp:0:17
	b	.LBB7_7
.Ltmp130:
.LBB7_6:
	@DEBUG_VALUE: Process<3328099188798998309>:aArgs <- $r5
	@DEBUG_VALUE: Process<3328099188798998309>:this <- $r4
	movs	r0, #7
.Ltmp131:
.LBB7_7:
	@DEBUG_VALUE: Process<3328099188798998309>:this <- $r4
	@DEBUG_VALUE: Process<3328099188798998309>:error <- $r0
	@DEBUG_LABEL: Process<3328099188798998309>:exit
	.loc	14 507 5 is_stmt 1              @ ../../../components/network/thread/subg_openthread/src/cli/cli_network_data.cpp:507:5
	add	sp, #24
	pop	{r4, r5, r7, pc}
.Ltmp132:
.LBB7_8:
	@DEBUG_VALUE: Process<3328099188798998309>:this <- $r4
	.loc	14 0 5 is_stmt 0                @ ../../../components/network/thread/subg_openthread/src/cli/cli_network_data.cpp:0:5
	add	r1, sp, #16
.Ltmp133:
	.loc	14 503 17 is_stmt 1             @ ../../../components/network/thread/subg_openthread/src/cli/cli_network_data.cpp:503:17
	bl	otNetDataSteeringDataCheckJoiner
.Ltmp134:
	@DEBUG_VALUE: Process<3328099188798998309>:error <- $r0
	.loc	14 0 17 is_stmt 0               @ ../../../components/network/thread/subg_openthread/src/cli/cli_network_data.cpp:0:17
	b	.LBB7_7
.Ltmp135:
	.p2align	2
@ %bb.9:
.LCPI7_0:
.L.str.8:
	.asciz	"check\000\000"
.Lfunc_end7:
	.size	_ZN2ot3Cli11NetworkData7ProcessILy3328099188798998309EEE7otErrorPNS_5Utils13CmdLineParser3ArgE, .Lfunc_end7-_ZN2ot3Cli11NetworkData7ProcessILy3328099188798998309EEE7otErrorPNS_5Utils13CmdLineParser3ArgE
	.cfi_endproc
	.cantunwind
	.fnend
                                        @ -- End function
	.section	.text._ZN2ot3Cli11NetworkData13GetNextPrefixEPjP20otBorderRouterConfigb,"ax",%progbits
	.hidden	_ZN2ot3Cli11NetworkData13GetNextPrefixEPjP20otBorderRouterConfigb @ -- Begin function _ZN2ot3Cli11NetworkData13GetNextPrefixEPjP20otBorderRouterConfigb
	.globl	_ZN2ot3Cli11NetworkData13GetNextPrefixEPjP20otBorderRouterConfigb
	.p2align	1
	.type	_ZN2ot3Cli11NetworkData13GetNextPrefixEPjP20otBorderRouterConfigb,%function
	.code	16                              @ @_ZN2ot3Cli11NetworkData13GetNextPrefixEPjP20otBorderRouterConfigb
	.thumb_func
_ZN2ot3Cli11NetworkData13GetNextPrefixEPjP20otBorderRouterConfigb:
.Lfunc_begin8:
	.loc	14 511 0 is_stmt 1              @ ../../../components/network/thread/subg_openthread/src/cli/cli_network_data.cpp:511:0
	.fnstart
	.cfi_startproc
@ %bb.0:
	@DEBUG_VALUE: GetNextPrefix:this <- $r0
	@DEBUG_VALUE: GetNextPrefix:aIterator <- $r1
	@DEBUG_VALUE: GetNextPrefix:aIterator <- $r1
	@DEBUG_VALUE: GetNextPrefix:aConfig <- $r2
	@DEBUG_VALUE: GetNextPrefix:aConfig <- $r2
	@DEBUG_VALUE: GetNextPrefix:aLocal <- [DW_OP_LLVM_convert 1 7, DW_OP_LLVM_convert 8 7, DW_OP_stack_value] $r3
	@DEBUG_VALUE: GetNextPrefix:aLocal <- [DW_OP_LLVM_convert 1 7, DW_OP_LLVM_convert 8 7, DW_OP_stack_value] $r3
	@DEBUG_VALUE: GetNextPrefix:this <- $r0
	.loc	14 514 9 prologue_end           @ ../../../components/network/thread/subg_openthread/src/cli/cli_network_data.cpp:514:9
	cbz	r3, .LBB8_2
.Ltmp136:
@ %bb.1:
	@DEBUG_VALUE: GetNextPrefix:aLocal <- [DW_OP_LLVM_convert 1 7, DW_OP_LLVM_convert 8 7, DW_OP_stack_value] $r3
	@DEBUG_VALUE: GetNextPrefix:aConfig <- $r2
	@DEBUG_VALUE: GetNextPrefix:aIterator <- $r1
	@DEBUG_VALUE: GetNextPrefix:this <- $r0
	@DEBUG_VALUE: GetNextPrefix:error <- 23
	.loc	14 527 5                        @ ../../../components/network/thread/subg_openthread/src/cli/cli_network_data.cpp:527:5
	movs	r0, #23
.Ltmp137:
	@DEBUG_VALUE: GetNextPrefix:this <- [DW_OP_LLVM_entry_value 1] $r0
	bx	lr
.Ltmp138:
.LBB8_2:
	@DEBUG_VALUE: GetNextPrefix:aLocal <- [DW_OP_LLVM_convert 1 7, DW_OP_LLVM_convert 8 7, DW_OP_stack_value] $r3
	@DEBUG_VALUE: GetNextPrefix:aConfig <- $r2
	@DEBUG_VALUE: GetNextPrefix:aIterator <- $r1
	@DEBUG_VALUE: GetNextPrefix:this <- $r0
	@DEBUG_VALUE: GetInstancePtr:this <- $r0
	.loc	1 204 47                        @ ../../../components/network/thread/subg_openthread/src\cli/cli_output.hpp:204:47
	ldr	r0, [r0]
.Ltmp139:
	@DEBUG_VALUE: GetNextPrefix:this <- [DW_OP_LLVM_entry_value 1] $r0
	.loc	14 524 17                       @ ../../../components/network/thread/subg_openthread/src/cli/cli_network_data.cpp:524:17
	b	otNetDataGetNextOnMeshPrefix
.Ltmp140:
.Lfunc_end8:
	.size	_ZN2ot3Cli11NetworkData13GetNextPrefixEPjP20otBorderRouterConfigb, .Lfunc_end8-_ZN2ot3Cli11NetworkData13GetNextPrefixEPjP20otBorderRouterConfigb
	.cfi_endproc
	.cantunwind
	.fnend
                                        @ -- End function
	.section	.text._ZN2ot3Cli11NetworkData14OutputPrefixesEb,"ax",%progbits
	.hidden	_ZN2ot3Cli11NetworkData14OutputPrefixesEb @ -- Begin function _ZN2ot3Cli11NetworkData14OutputPrefixesEb
	.globl	_ZN2ot3Cli11NetworkData14OutputPrefixesEb
	.p2align	2
	.type	_ZN2ot3Cli11NetworkData14OutputPrefixesEb,%function
	.code	16                              @ @_ZN2ot3Cli11NetworkData14OutputPrefixesEb
	.thumb_func
_ZN2ot3Cli11NetworkData14OutputPrefixesEb:
.Lfunc_begin9:
	.loc	14 531 0                        @ ../../../components/network/thread/subg_openthread/src/cli/cli_network_data.cpp:531:0
	.fnstart
	.cfi_startproc
@ %bb.0:
	@DEBUG_VALUE: OutputPrefixes:this <- $r0
	@DEBUG_VALUE: OutputPrefixes:aLocal <- [DW_OP_LLVM_convert 1 7, DW_OP_LLVM_convert 8 7, DW_OP_stack_value] $r1
	.save	{r4, r5, r6, lr}
	push	{r4, r5, r6, lr}
	.cfi_def_cfa_offset 16
	.cfi_offset lr, -4
	.cfi_offset r6, -8
	.cfi_offset r5, -12
	.cfi_offset r4, -16
	.pad	#32
	sub	sp, #32
	.cfi_def_cfa_offset 48
	mov	r4, r0
.Ltmp141:
	@DEBUG_VALUE: OutputPrefixes:this <- $r4
	movs	r0, #0
.Ltmp142:
	@DEBUG_VALUE: OutputPrefixes:iterator <- 0
	@DEBUG_VALUE: OutputPrefixes:aLocal <- [DW_OP_LLVM_convert 1 7, DW_OP_LLVM_convert 8 7, DW_OP_stack_value] $r5
	@DEBUG_VALUE: OutputPrefixes:this <- $r4
	mov	r5, r1
.Ltmp143:
	.loc	14 532 27 prologue_end          @ ../../../components/network/thread/subg_openthread/src/cli/cli_network_data.cpp:532:27
	str	r0, [sp, #28]
	.loc	14 535 5                        @ ../../../components/network/thread/subg_openthread/src/cli/cli_network_data.cpp:535:5
	adr	r1, .LCPI9_0
	mov	r0, r4
	bl	_ZN2ot3Cli6Output10OutputLineEPKcz
.Ltmp144:
	@DEBUG_VALUE: GetNextPrefix:aLocal <- [DW_OP_LLVM_convert 1 7, DW_OP_LLVM_convert 8 7, DW_OP_stack_value] $r5
	@DEBUG_VALUE: GetNextPrefix:aConfig <- [DW_OP_plus_uconst 4, DW_OP_stack_value] $sp
	@DEBUG_VALUE: GetNextPrefix:aIterator <- [DW_OP_plus_uconst 28, DW_OP_stack_value] $sp
	@DEBUG_VALUE: GetNextPrefix:this <- $r4
	@DEBUG_VALUE: OutputPrefixes:iterator <- [DW_OP_plus_uconst 28, DW_OP_deref] $sp
	.loc	14 514 9                        @ ../../../components/network/thread/subg_openthread/src/cli/cli_network_data.cpp:514:9
	cbnz	r5, .LBB9_4
.Ltmp145:
@ %bb.1:
	@DEBUG_VALUE: GetNextPrefix:aLocal <- [DW_OP_LLVM_convert 1 7, DW_OP_LLVM_convert 8 7, DW_OP_stack_value] $r5
	@DEBUG_VALUE: GetNextPrefix:this <- $r4
	@DEBUG_VALUE: OutputPrefixes:this <- $r4
	@DEBUG_VALUE: OutputPrefixes:iterator <- [DW_OP_plus_uconst 28, DW_OP_deref] $sp
	@DEBUG_VALUE: GetNextPrefix:aIterator <- [DW_OP_plus_uconst 28, DW_OP_stack_value] $sp
	@DEBUG_VALUE: GetNextPrefix:aConfig <- [DW_OP_plus_uconst 4, DW_OP_stack_value] $sp
	@DEBUG_VALUE: GetInstancePtr:this <- $r4
	.loc	1 204 47                        @ ../../../components/network/thread/subg_openthread/src\cli/cli_output.hpp:204:47
	ldr	r0, [r4]
	add	r1, sp, #28
	add	r2, sp, #4
.Ltmp146:
	.loc	14 524 17                       @ ../../../components/network/thread/subg_openthread/src/cli/cli_network_data.cpp:524:17
	bl	otNetDataGetNextOnMeshPrefix
.Ltmp147:
	@DEBUG_VALUE: GetNextPrefix:error <- $r0
	.loc	14 537 5                        @ ../../../components/network/thread/subg_openthread/src/cli/cli_network_data.cpp:537:5
	cbnz	r0, .LBB9_4
.Ltmp148:
@ %bb.2:
	@DEBUG_VALUE: GetNextPrefix:aLocal <- [DW_OP_LLVM_convert 1 7, DW_OP_LLVM_convert 8 7, DW_OP_stack_value] $r5
	@DEBUG_VALUE: GetInstancePtr:this <- $r4
	@DEBUG_VALUE: GetNextPrefix:this <- $r4
	@DEBUG_VALUE: OutputPrefixes:this <- $r4
	@DEBUG_VALUE: GetNextPrefix:error <- $r0
	@DEBUG_VALUE: OutputPrefixes:iterator <- [DW_OP_plus_uconst 28, DW_OP_deref] $sp
	@DEBUG_VALUE: GetNextPrefix:aIterator <- [DW_OP_plus_uconst 28, DW_OP_stack_value] $sp
	@DEBUG_VALUE: GetNextPrefix:aConfig <- [DW_OP_plus_uconst 4, DW_OP_stack_value] $sp
	.loc	14 0 5 is_stmt 0                @ ../../../components/network/thread/subg_openthread/src/cli/cli_network_data.cpp:0:5
	add	r5, sp, #4
	add	r6, sp, #28
.Ltmp149:
	.p2align	2
.LBB9_3:                                @ =>This Inner Loop Header: Depth=1
	@DEBUG_VALUE: GetInstancePtr:this <- $r4
	@DEBUG_VALUE: GetNextPrefix:this <- $r4
	@DEBUG_VALUE: OutputPrefixes:this <- $r4
	@DEBUG_VALUE: GetNextPrefix:error <- $r0
	@DEBUG_VALUE: OutputPrefixes:iterator <- [DW_OP_plus_uconst 28, DW_OP_deref] $sp
	@DEBUG_VALUE: GetNextPrefix:aIterator <- [DW_OP_plus_uconst 28, DW_OP_stack_value] $sp
	@DEBUG_VALUE: GetNextPrefix:aConfig <- [DW_OP_plus_uconst 4, DW_OP_stack_value] $sp
	.loc	14 539 9 is_stmt 1              @ ../../../components/network/thread/subg_openthread/src/cli/cli_network_data.cpp:539:9
	mov	r0, r4
	mov	r1, r5
	bl	_ZN2ot3Cli11NetworkData12OutputPrefixERK20otBorderRouterConfig
.Ltmp150:
	@DEBUG_VALUE: GetInstancePtr:this <- $r4
	@DEBUG_VALUE: GetNextPrefix:aConfig <- [DW_OP_plus_uconst 4, DW_OP_stack_value] $sp
	@DEBUG_VALUE: GetNextPrefix:aIterator <- [DW_OP_plus_uconst 28, DW_OP_stack_value] $sp
	@DEBUG_VALUE: GetNextPrefix:this <- $r4
	@DEBUG_VALUE: OutputPrefixes:iterator <- [DW_OP_plus_uconst 28, DW_OP_deref] $sp
	.loc	1 204 47                        @ ../../../components/network/thread/subg_openthread/src\cli/cli_output.hpp:204:47
	ldr	r0, [r4]
.Ltmp151:
	.loc	14 524 17                       @ ../../../components/network/thread/subg_openthread/src/cli/cli_network_data.cpp:524:17
	mov	r1, r6
	mov	r2, r5
	bl	otNetDataGetNextOnMeshPrefix
.Ltmp152:
	@DEBUG_VALUE: GetNextPrefix:error <- $r0
	.loc	14 537 5                        @ ../../../components/network/thread/subg_openthread/src/cli/cli_network_data.cpp:537:5
	cmp	r0, #0
	@DEBUG_VALUE: GetNextPrefix:aLocal <- [DW_OP_LLVM_convert 1 7, DW_OP_LLVM_convert 8 7, DW_OP_stack_value] undef
	beq	.LBB9_3
.Ltmp153:
.LBB9_4:
	@DEBUG_VALUE: OutputPrefixes:this <- $r4
	@DEBUG_VALUE: OutputPrefixes:iterator <- [DW_OP_plus_uconst 28, DW_OP_deref] $sp
	.loc	14 541 1                        @ ../../../components/network/thread/subg_openthread/src/cli/cli_network_data.cpp:541:1
	add	sp, #32
	pop	{r4, r5, r6, pc}
.Ltmp154:
	.p2align	2
@ %bb.5:
	.loc	14 0 1 is_stmt 0                @ ../../../components/network/thread/subg_openthread/src/cli/cli_network_data.cpp:0:1
.LCPI9_0:
.L.str.9:
	.asciz	"Prefixes:\000\000"
.Lfunc_end9:
	.size	_ZN2ot3Cli11NetworkData14OutputPrefixesEb, .Lfunc_end9-_ZN2ot3Cli11NetworkData14OutputPrefixesEb
	.cfi_endproc
	.cantunwind
	.fnend
                                        @ -- End function
	.section	.text._ZN2ot3Cli11NetworkData12GetNextRouteEPjP21otExternalRouteConfigb,"ax",%progbits
	.hidden	_ZN2ot3Cli11NetworkData12GetNextRouteEPjP21otExternalRouteConfigb @ -- Begin function _ZN2ot3Cli11NetworkData12GetNextRouteEPjP21otExternalRouteConfigb
	.globl	_ZN2ot3Cli11NetworkData12GetNextRouteEPjP21otExternalRouteConfigb
	.p2align	1
	.type	_ZN2ot3Cli11NetworkData12GetNextRouteEPjP21otExternalRouteConfigb,%function
	.code	16                              @ @_ZN2ot3Cli11NetworkData12GetNextRouteEPjP21otExternalRouteConfigb
	.thumb_func
_ZN2ot3Cli11NetworkData12GetNextRouteEPjP21otExternalRouteConfigb:
.Lfunc_begin10:
	.loc	14 544 0 is_stmt 1              @ ../../../components/network/thread/subg_openthread/src/cli/cli_network_data.cpp:544:0
	.fnstart
	.cfi_startproc
@ %bb.0:
	@DEBUG_VALUE: GetNextRoute:this <- $r0
	@DEBUG_VALUE: GetNextRoute:aIterator <- $r1
	@DEBUG_VALUE: GetNextRoute:aIterator <- $r1
	@DEBUG_VALUE: GetNextRoute:aConfig <- $r2
	@DEBUG_VALUE: GetNextRoute:aConfig <- $r2
	@DEBUG_VALUE: GetNextRoute:aLocal <- [DW_OP_LLVM_convert 1 7, DW_OP_LLVM_convert 8 7, DW_OP_stack_value] $r3
	@DEBUG_VALUE: GetNextRoute:aLocal <- [DW_OP_LLVM_convert 1 7, DW_OP_LLVM_convert 8 7, DW_OP_stack_value] $r3
	@DEBUG_VALUE: GetNextRoute:this <- $r0
	.loc	14 547 9 prologue_end           @ ../../../components/network/thread/subg_openthread/src/cli/cli_network_data.cpp:547:9
	cbz	r3, .LBB10_2
.Ltmp155:
@ %bb.1:
	@DEBUG_VALUE: GetNextRoute:aLocal <- [DW_OP_LLVM_convert 1 7, DW_OP_LLVM_convert 8 7, DW_OP_stack_value] $r3
	@DEBUG_VALUE: GetNextRoute:aConfig <- $r2
	@DEBUG_VALUE: GetNextRoute:aIterator <- $r1
	@DEBUG_VALUE: GetNextRoute:this <- $r0
	@DEBUG_VALUE: GetNextRoute:error <- 23
	.loc	14 560 5                        @ ../../../components/network/thread/subg_openthread/src/cli/cli_network_data.cpp:560:5
	movs	r0, #23
.Ltmp156:
	@DEBUG_VALUE: GetNextRoute:this <- [DW_OP_LLVM_entry_value 1] $r0
	bx	lr
.Ltmp157:
.LBB10_2:
	@DEBUG_VALUE: GetNextRoute:aLocal <- [DW_OP_LLVM_convert 1 7, DW_OP_LLVM_convert 8 7, DW_OP_stack_value] $r3
	@DEBUG_VALUE: GetNextRoute:aConfig <- $r2
	@DEBUG_VALUE: GetNextRoute:aIterator <- $r1
	@DEBUG_VALUE: GetNextRoute:this <- $r0
	@DEBUG_VALUE: GetInstancePtr:this <- $r0
	.loc	1 204 47                        @ ../../../components/network/thread/subg_openthread/src\cli/cli_output.hpp:204:47
	ldr	r0, [r0]
.Ltmp158:
	@DEBUG_VALUE: GetNextRoute:this <- [DW_OP_LLVM_entry_value 1] $r0
	.loc	14 557 17                       @ ../../../components/network/thread/subg_openthread/src/cli/cli_network_data.cpp:557:17
	b	otNetDataGetNextRoute
.Ltmp159:
.Lfunc_end10:
	.size	_ZN2ot3Cli11NetworkData12GetNextRouteEPjP21otExternalRouteConfigb, .Lfunc_end10-_ZN2ot3Cli11NetworkData12GetNextRouteEPjP21otExternalRouteConfigb
	.cfi_endproc
	.cantunwind
	.fnend
                                        @ -- End function
	.section	.text._ZN2ot3Cli11NetworkData12OutputRoutesEb,"ax",%progbits
	.hidden	_ZN2ot3Cli11NetworkData12OutputRoutesEb @ -- Begin function _ZN2ot3Cli11NetworkData12OutputRoutesEb
	.globl	_ZN2ot3Cli11NetworkData12OutputRoutesEb
	.p2align	2
	.type	_ZN2ot3Cli11NetworkData12OutputRoutesEb,%function
	.code	16                              @ @_ZN2ot3Cli11NetworkData12OutputRoutesEb
	.thumb_func
_ZN2ot3Cli11NetworkData12OutputRoutesEb:
.Lfunc_begin11:
	.loc	14 564 0                        @ ../../../components/network/thread/subg_openthread/src/cli/cli_network_data.cpp:564:0
	.fnstart
	.cfi_startproc
@ %bb.0:
	@DEBUG_VALUE: OutputRoutes:this <- $r0
	@DEBUG_VALUE: OutputRoutes:aLocal <- [DW_OP_LLVM_convert 1 7, DW_OP_LLVM_convert 8 7, DW_OP_stack_value] $r1
	.save	{r4, r5, r6, lr}
	push	{r4, r5, r6, lr}
	.cfi_def_cfa_offset 16
	.cfi_offset lr, -4
	.cfi_offset r6, -8
	.cfi_offset r5, -12
	.cfi_offset r4, -16
	.pad	#32
	sub	sp, #32
	.cfi_def_cfa_offset 48
	mov	r4, r0
.Ltmp160:
	@DEBUG_VALUE: OutputRoutes:this <- $r4
	movs	r0, #0
.Ltmp161:
	@DEBUG_VALUE: OutputRoutes:iterator <- 0
	@DEBUG_VALUE: OutputRoutes:aLocal <- [DW_OP_LLVM_convert 1 7, DW_OP_LLVM_convert 8 7, DW_OP_stack_value] $r5
	@DEBUG_VALUE: OutputRoutes:this <- $r4
	mov	r5, r1
.Ltmp162:
	.loc	14 565 27 prologue_end          @ ../../../components/network/thread/subg_openthread/src/cli/cli_network_data.cpp:565:27
	str	r0, [sp, #28]
	.loc	14 568 5                        @ ../../../components/network/thread/subg_openthread/src/cli/cli_network_data.cpp:568:5
	adr	r1, .LCPI11_0
	mov	r0, r4
	bl	_ZN2ot3Cli6Output10OutputLineEPKcz
.Ltmp163:
	@DEBUG_VALUE: GetNextRoute:aLocal <- [DW_OP_LLVM_convert 1 7, DW_OP_LLVM_convert 8 7, DW_OP_stack_value] $r5
	@DEBUG_VALUE: GetNextRoute:aConfig <- [DW_OP_plus_uconst 4, DW_OP_stack_value] $sp
	@DEBUG_VALUE: GetNextRoute:aIterator <- [DW_OP_plus_uconst 28, DW_OP_stack_value] $sp
	@DEBUG_VALUE: GetNextRoute:this <- $r4
	@DEBUG_VALUE: OutputRoutes:iterator <- [DW_OP_plus_uconst 28, DW_OP_deref] $sp
	.loc	14 547 9                        @ ../../../components/network/thread/subg_openthread/src/cli/cli_network_data.cpp:547:9
	cbnz	r5, .LBB11_4
.Ltmp164:
@ %bb.1:
	@DEBUG_VALUE: GetNextRoute:aLocal <- [DW_OP_LLVM_convert 1 7, DW_OP_LLVM_convert 8 7, DW_OP_stack_value] $r5
	@DEBUG_VALUE: GetNextRoute:this <- $r4
	@DEBUG_VALUE: OutputRoutes:this <- $r4
	@DEBUG_VALUE: OutputRoutes:iterator <- [DW_OP_plus_uconst 28, DW_OP_deref] $sp
	@DEBUG_VALUE: GetNextRoute:aIterator <- [DW_OP_plus_uconst 28, DW_OP_stack_value] $sp
	@DEBUG_VALUE: GetNextRoute:aConfig <- [DW_OP_plus_uconst 4, DW_OP_stack_value] $sp
	@DEBUG_VALUE: GetInstancePtr:this <- $r4
	.loc	1 204 47                        @ ../../../components/network/thread/subg_openthread/src\cli/cli_output.hpp:204:47
	ldr	r0, [r4]
	add	r1, sp, #28
	add	r2, sp, #4
.Ltmp165:
	.loc	14 557 17                       @ ../../../components/network/thread/subg_openthread/src/cli/cli_network_data.cpp:557:17
	bl	otNetDataGetNextRoute
.Ltmp166:
	@DEBUG_VALUE: GetNextRoute:error <- $r0
	.loc	14 570 5                        @ ../../../components/network/thread/subg_openthread/src/cli/cli_network_data.cpp:570:5
	cbnz	r0, .LBB11_4
.Ltmp167:
@ %bb.2:
	@DEBUG_VALUE: GetNextRoute:aLocal <- [DW_OP_LLVM_convert 1 7, DW_OP_LLVM_convert 8 7, DW_OP_stack_value] $r5
	@DEBUG_VALUE: GetInstancePtr:this <- $r4
	@DEBUG_VALUE: GetNextRoute:this <- $r4
	@DEBUG_VALUE: OutputRoutes:this <- $r4
	@DEBUG_VALUE: GetNextRoute:error <- $r0
	@DEBUG_VALUE: OutputRoutes:iterator <- [DW_OP_plus_uconst 28, DW_OP_deref] $sp
	@DEBUG_VALUE: GetNextRoute:aIterator <- [DW_OP_plus_uconst 28, DW_OP_stack_value] $sp
	@DEBUG_VALUE: GetNextRoute:aConfig <- [DW_OP_plus_uconst 4, DW_OP_stack_value] $sp
	.loc	14 0 5 is_stmt 0                @ ../../../components/network/thread/subg_openthread/src/cli/cli_network_data.cpp:0:5
	add	r5, sp, #4
	add	r6, sp, #28
.Ltmp168:
	.p2align	2
.LBB11_3:                               @ =>This Inner Loop Header: Depth=1
	@DEBUG_VALUE: GetInstancePtr:this <- $r4
	@DEBUG_VALUE: GetNextRoute:this <- $r4
	@DEBUG_VALUE: OutputRoutes:this <- $r4
	@DEBUG_VALUE: GetNextRoute:error <- $r0
	@DEBUG_VALUE: OutputRoutes:iterator <- [DW_OP_plus_uconst 28, DW_OP_deref] $sp
	@DEBUG_VALUE: GetNextRoute:aIterator <- [DW_OP_plus_uconst 28, DW_OP_stack_value] $sp
	@DEBUG_VALUE: GetNextRoute:aConfig <- [DW_OP_plus_uconst 4, DW_OP_stack_value] $sp
	.loc	14 572 9 is_stmt 1              @ ../../../components/network/thread/subg_openthread/src/cli/cli_network_data.cpp:572:9
	mov	r0, r4
	mov	r1, r5
	bl	_ZN2ot3Cli11NetworkData11OutputRouteERK21otExternalRouteConfig
.Ltmp169:
	@DEBUG_VALUE: GetInstancePtr:this <- $r4
	@DEBUG_VALUE: GetNextRoute:aConfig <- [DW_OP_plus_uconst 4, DW_OP_stack_value] $sp
	@DEBUG_VALUE: GetNextRoute:aIterator <- [DW_OP_plus_uconst 28, DW_OP_stack_value] $sp
	@DEBUG_VALUE: GetNextRoute:this <- $r4
	@DEBUG_VALUE: OutputRoutes:iterator <- [DW_OP_plus_uconst 28, DW_OP_deref] $sp
	.loc	1 204 47                        @ ../../../components/network/thread/subg_openthread/src\cli/cli_output.hpp:204:47
	ldr	r0, [r4]
.Ltmp170:
	.loc	14 557 17                       @ ../../../components/network/thread/subg_openthread/src/cli/cli_network_data.cpp:557:17
	mov	r1, r6
	mov	r2, r5
	bl	otNetDataGetNextRoute
.Ltmp171:
	@DEBUG_VALUE: GetNextRoute:error <- $r0
	.loc	14 570 5                        @ ../../../components/network/thread/subg_openthread/src/cli/cli_network_data.cpp:570:5
	cmp	r0, #0
	@DEBUG_VALUE: GetNextRoute:aLocal <- [DW_OP_LLVM_convert 1 7, DW_OP_LLVM_convert 8 7, DW_OP_stack_value] undef
	beq	.LBB11_3
.Ltmp172:
.LBB11_4:
	@DEBUG_VALUE: OutputRoutes:this <- $r4
	@DEBUG_VALUE: OutputRoutes:iterator <- [DW_OP_plus_uconst 28, DW_OP_deref] $sp
	.loc	14 574 1                        @ ../../../components/network/thread/subg_openthread/src/cli/cli_network_data.cpp:574:1
	add	sp, #32
	pop	{r4, r5, r6, pc}
.Ltmp173:
	.p2align	2
@ %bb.5:
	.loc	14 0 1 is_stmt 0                @ ../../../components/network/thread/subg_openthread/src/cli/cli_network_data.cpp:0:1
.LCPI11_0:
.L.str.10:
	.asciz	"Routes:"
.Lfunc_end11:
	.size	_ZN2ot3Cli11NetworkData12OutputRoutesEb, .Lfunc_end11-_ZN2ot3Cli11NetworkData12OutputRoutesEb
	.cfi_endproc
	.cantunwind
	.fnend
                                        @ -- End function
	.section	.text._ZN2ot3Cli11NetworkData14GetNextServiceEPjP15otServiceConfigb,"ax",%progbits
	.hidden	_ZN2ot3Cli11NetworkData14GetNextServiceEPjP15otServiceConfigb @ -- Begin function _ZN2ot3Cli11NetworkData14GetNextServiceEPjP15otServiceConfigb
	.globl	_ZN2ot3Cli11NetworkData14GetNextServiceEPjP15otServiceConfigb
	.p2align	1
	.type	_ZN2ot3Cli11NetworkData14GetNextServiceEPjP15otServiceConfigb,%function
	.code	16                              @ @_ZN2ot3Cli11NetworkData14GetNextServiceEPjP15otServiceConfigb
	.thumb_func
_ZN2ot3Cli11NetworkData14GetNextServiceEPjP15otServiceConfigb:
.Lfunc_begin12:
	.loc	14 577 0 is_stmt 1              @ ../../../components/network/thread/subg_openthread/src/cli/cli_network_data.cpp:577:0
	.fnstart
	.cfi_startproc
@ %bb.0:
	@DEBUG_VALUE: GetNextService:this <- $r0
	@DEBUG_VALUE: GetNextService:aIterator <- $r1
	@DEBUG_VALUE: GetNextService:aIterator <- $r1
	@DEBUG_VALUE: GetNextService:aConfig <- $r2
	@DEBUG_VALUE: GetNextService:aConfig <- $r2
	@DEBUG_VALUE: GetNextService:aLocal <- [DW_OP_LLVM_convert 1 7, DW_OP_LLVM_convert 8 7, DW_OP_stack_value] $r3
	@DEBUG_VALUE: GetNextService:aLocal <- [DW_OP_LLVM_convert 1 7, DW_OP_LLVM_convert 8 7, DW_OP_stack_value] $r3
	@DEBUG_VALUE: GetNextService:this <- $r0
	.loc	14 580 9 prologue_end           @ ../../../components/network/thread/subg_openthread/src/cli/cli_network_data.cpp:580:9
	cbz	r3, .LBB12_2
.Ltmp174:
@ %bb.1:
	@DEBUG_VALUE: GetNextService:aLocal <- [DW_OP_LLVM_convert 1 7, DW_OP_LLVM_convert 8 7, DW_OP_stack_value] $r3
	@DEBUG_VALUE: GetNextService:aConfig <- $r2
	@DEBUG_VALUE: GetNextService:aIterator <- $r1
	@DEBUG_VALUE: GetNextService:this <- $r0
	@DEBUG_VALUE: GetNextService:error <- 23
	.loc	14 593 5                        @ ../../../components/network/thread/subg_openthread/src/cli/cli_network_data.cpp:593:5
	movs	r0, #23
.Ltmp175:
	@DEBUG_VALUE: GetNextService:this <- [DW_OP_LLVM_entry_value 1] $r0
	bx	lr
.Ltmp176:
.LBB12_2:
	@DEBUG_VALUE: GetNextService:aLocal <- [DW_OP_LLVM_convert 1 7, DW_OP_LLVM_convert 8 7, DW_OP_stack_value] $r3
	@DEBUG_VALUE: GetNextService:aConfig <- $r2
	@DEBUG_VALUE: GetNextService:aIterator <- $r1
	@DEBUG_VALUE: GetNextService:this <- $r0
	@DEBUG_VALUE: GetInstancePtr:this <- $r0
	.loc	1 204 47                        @ ../../../components/network/thread/subg_openthread/src\cli/cli_output.hpp:204:47
	ldr	r0, [r0]
.Ltmp177:
	@DEBUG_VALUE: GetNextService:this <- [DW_OP_LLVM_entry_value 1] $r0
	.loc	14 590 17                       @ ../../../components/network/thread/subg_openthread/src/cli/cli_network_data.cpp:590:17
	b	otNetDataGetNextService
.Ltmp178:
.Lfunc_end12:
	.size	_ZN2ot3Cli11NetworkData14GetNextServiceEPjP15otServiceConfigb, .Lfunc_end12-_ZN2ot3Cli11NetworkData14GetNextServiceEPjP15otServiceConfigb
	.cfi_endproc
	.cantunwind
	.fnend
                                        @ -- End function
	.section	.text._ZN2ot3Cli11NetworkData14OutputServicesEb,"ax",%progbits
	.hidden	_ZN2ot3Cli11NetworkData14OutputServicesEb @ -- Begin function _ZN2ot3Cli11NetworkData14OutputServicesEb
	.globl	_ZN2ot3Cli11NetworkData14OutputServicesEb
	.p2align	2
	.type	_ZN2ot3Cli11NetworkData14OutputServicesEb,%function
	.code	16                              @ @_ZN2ot3Cli11NetworkData14OutputServicesEb
	.thumb_func
_ZN2ot3Cli11NetworkData14OutputServicesEb:
.Lfunc_begin13:
	.loc	14 597 0                        @ ../../../components/network/thread/subg_openthread/src/cli/cli_network_data.cpp:597:0
	.fnstart
	.cfi_startproc
@ %bb.0:
	@DEBUG_VALUE: OutputServices:this <- $r0
	@DEBUG_VALUE: OutputServices:aLocal <- [DW_OP_LLVM_convert 1 7, DW_OP_LLVM_convert 8 7, DW_OP_stack_value] $r1
	.save	{r4, r5, r6, lr}
	push	{r4, r5, r6, lr}
	.cfi_def_cfa_offset 16
	.cfi_offset lr, -4
	.cfi_offset r6, -8
	.cfi_offset r5, -12
	.cfi_offset r4, -16
	.pad	#520
	sub.w	sp, sp, #520
	.cfi_def_cfa_offset 536
	mov	r4, r0
.Ltmp179:
	@DEBUG_VALUE: OutputServices:this <- $r4
	movs	r0, #0
.Ltmp180:
	@DEBUG_VALUE: OutputServices:iterator <- 0
	@DEBUG_VALUE: OutputServices:aLocal <- [DW_OP_LLVM_convert 1 7, DW_OP_LLVM_convert 8 7, DW_OP_stack_value] $r5
	@DEBUG_VALUE: OutputServices:this <- $r4
	mov	r5, r1
.Ltmp181:
	.loc	14 598 27 prologue_end          @ ../../../components/network/thread/subg_openthread/src/cli/cli_network_data.cpp:598:27
	str	r0, [sp, #516]
	.loc	14 601 5                        @ ../../../components/network/thread/subg_openthread/src/cli/cli_network_data.cpp:601:5
	adr	r1, .LCPI13_0
	mov	r0, r4
	bl	_ZN2ot3Cli6Output10OutputLineEPKcz
.Ltmp182:
	@DEBUG_VALUE: GetNextService:aLocal <- [DW_OP_LLVM_convert 1 7, DW_OP_LLVM_convert 8 7, DW_OP_stack_value] $r5
	@DEBUG_VALUE: GetNextService:aConfig <- $sp
	@DEBUG_VALUE: GetNextService:aIterator <- [DW_OP_plus_uconst 516, DW_OP_stack_value] $sp
	@DEBUG_VALUE: GetNextService:this <- $r4
	@DEBUG_VALUE: OutputServices:iterator <- [DW_OP_plus_uconst 516, DW_OP_deref] $sp
	.loc	14 580 9                        @ ../../../components/network/thread/subg_openthread/src/cli/cli_network_data.cpp:580:9
	cbnz	r5, .LBB13_4
.Ltmp183:
@ %bb.1:
	@DEBUG_VALUE: GetNextService:aLocal <- [DW_OP_LLVM_convert 1 7, DW_OP_LLVM_convert 8 7, DW_OP_stack_value] $r5
	@DEBUG_VALUE: GetNextService:this <- $r4
	@DEBUG_VALUE: OutputServices:this <- $r4
	@DEBUG_VALUE: OutputServices:iterator <- [DW_OP_plus_uconst 516, DW_OP_deref] $sp
	@DEBUG_VALUE: GetNextService:aIterator <- [DW_OP_plus_uconst 516, DW_OP_stack_value] $sp
	@DEBUG_VALUE: GetNextService:aConfig <- $sp
	@DEBUG_VALUE: GetInstancePtr:this <- $r4
	.loc	1 204 47                        @ ../../../components/network/thread/subg_openthread/src\cli/cli_output.hpp:204:47
	ldr	r0, [r4]
	add	r1, sp, #516
	mov	r2, sp
.Ltmp184:
	.loc	14 590 17                       @ ../../../components/network/thread/subg_openthread/src/cli/cli_network_data.cpp:590:17
	bl	otNetDataGetNextService
.Ltmp185:
	@DEBUG_VALUE: GetNextService:error <- $r0
	.loc	14 603 5                        @ ../../../components/network/thread/subg_openthread/src/cli/cli_network_data.cpp:603:5
	cbnz	r0, .LBB13_4
.Ltmp186:
@ %bb.2:
	@DEBUG_VALUE: GetNextService:aLocal <- [DW_OP_LLVM_convert 1 7, DW_OP_LLVM_convert 8 7, DW_OP_stack_value] $r5
	@DEBUG_VALUE: GetInstancePtr:this <- $r4
	@DEBUG_VALUE: GetNextService:this <- $r4
	@DEBUG_VALUE: OutputServices:this <- $r4
	@DEBUG_VALUE: GetNextService:error <- $r0
	@DEBUG_VALUE: OutputServices:iterator <- [DW_OP_plus_uconst 516, DW_OP_deref] $sp
	@DEBUG_VALUE: GetNextService:aIterator <- [DW_OP_plus_uconst 516, DW_OP_stack_value] $sp
	@DEBUG_VALUE: GetNextService:aConfig <- $sp
	.loc	14 0 5 is_stmt 0                @ ../../../components/network/thread/subg_openthread/src/cli/cli_network_data.cpp:0:5
	mov	r5, sp
	add	r6, sp, #516
.Ltmp187:
	.p2align	2
.LBB13_3:                               @ =>This Inner Loop Header: Depth=1
	@DEBUG_VALUE: GetInstancePtr:this <- $r4
	@DEBUG_VALUE: GetNextService:this <- $r4
	@DEBUG_VALUE: OutputServices:this <- $r4
	@DEBUG_VALUE: GetNextService:error <- $r0
	@DEBUG_VALUE: OutputServices:iterator <- [DW_OP_plus_uconst 516, DW_OP_deref] $sp
	@DEBUG_VALUE: GetNextService:aIterator <- [DW_OP_plus_uconst 516, DW_OP_stack_value] $sp
	@DEBUG_VALUE: GetNextService:aConfig <- $sp
	.loc	14 605 9 is_stmt 1              @ ../../../components/network/thread/subg_openthread/src/cli/cli_network_data.cpp:605:9
	mov	r0, r4
	mov	r1, r5
	bl	_ZN2ot3Cli11NetworkData13OutputServiceERK15otServiceConfig
.Ltmp188:
	@DEBUG_VALUE: GetInstancePtr:this <- $r4
	@DEBUG_VALUE: GetNextService:aConfig <- $sp
	@DEBUG_VALUE: GetNextService:aIterator <- [DW_OP_plus_uconst 516, DW_OP_stack_value] $sp
	@DEBUG_VALUE: GetNextService:this <- $r4
	@DEBUG_VALUE: OutputServices:iterator <- [DW_OP_plus_uconst 516, DW_OP_deref] $sp
	.loc	1 204 47                        @ ../../../components/network/thread/subg_openthread/src\cli/cli_output.hpp:204:47
	ldr	r0, [r4]
.Ltmp189:
	.loc	14 590 17                       @ ../../../components/network/thread/subg_openthread/src/cli/cli_network_data.cpp:590:17
	mov	r1, r6
	mov	r2, r5
	bl	otNetDataGetNextService
.Ltmp190:
	@DEBUG_VALUE: GetNextService:error <- $r0
	.loc	14 603 5                        @ ../../../components/network/thread/subg_openthread/src/cli/cli_network_data.cpp:603:5
	cmp	r0, #0
	@DEBUG_VALUE: GetNextService:aLocal <- [DW_OP_LLVM_convert 1 7, DW_OP_LLVM_convert 8 7, DW_OP_stack_value] undef
	beq	.LBB13_3
.Ltmp191:
.LBB13_4:
	@DEBUG_VALUE: OutputServices:this <- $r4
	@DEBUG_VALUE: OutputServices:iterator <- [DW_OP_plus_uconst 516, DW_OP_deref] $sp
	.loc	14 607 1                        @ ../../../components/network/thread/subg_openthread/src/cli/cli_network_data.cpp:607:1
	add.w	sp, sp, #520
	pop	{r4, r5, r6, pc}
.Ltmp192:
	.p2align	2
@ %bb.5:
	.loc	14 0 1 is_stmt 0                @ ../../../components/network/thread/subg_openthread/src/cli/cli_network_data.cpp:0:1
.LCPI13_0:
.L.str.11:
	.asciz	"Services:\000\000"
.Lfunc_end13:
	.size	_ZN2ot3Cli11NetworkData14OutputServicesEb, .Lfunc_end13-_ZN2ot3Cli11NetworkData14OutputServicesEb
	.cfi_endproc
	.cantunwind
	.fnend
                                        @ -- End function
	.section	.text._ZN2ot3Cli11NetworkData20OutputLowpanContextsEb,"ax",%progbits
	.hidden	_ZN2ot3Cli11NetworkData20OutputLowpanContextsEb @ -- Begin function _ZN2ot3Cli11NetworkData20OutputLowpanContextsEb
	.globl	_ZN2ot3Cli11NetworkData20OutputLowpanContextsEb
	.p2align	2
	.type	_ZN2ot3Cli11NetworkData20OutputLowpanContextsEb,%function
	.code	16                              @ @_ZN2ot3Cli11NetworkData20OutputLowpanContextsEb
	.thumb_func
_ZN2ot3Cli11NetworkData20OutputLowpanContextsEb:
.Lfunc_begin14:
	.loc	14 610 0 is_stmt 1              @ ../../../components/network/thread/subg_openthread/src/cli/cli_network_data.cpp:610:0
	.fnstart
	.cfi_startproc
@ %bb.0:
	@DEBUG_VALUE: OutputLowpanContexts:this <- $r0
	@DEBUG_VALUE: OutputLowpanContexts:aLocal <- [DW_OP_LLVM_convert 1 7, DW_OP_LLVM_convert 8 7, DW_OP_stack_value] $r1
	.save	{r4, r5, r6, r7, r8, lr}
	push.w	{r4, r5, r6, r7, r8, lr}
	.cfi_def_cfa_offset 24
	.cfi_offset lr, -4
	.cfi_offset r8, -8
	.cfi_offset r7, -12
	.cfi_offset r6, -16
	.cfi_offset r5, -20
	.cfi_offset r4, -24
	.pad	#24
	sub	sp, #24
	.cfi_def_cfa_offset 48
	mov	r4, r0
.Ltmp193:
	@DEBUG_VALUE: OutputLowpanContexts:this <- $r4
	movs	r0, #0
.Ltmp194:
	@DEBUG_VALUE: OutputLowpanContexts:iterator <- 0
	@DEBUG_VALUE: OutputLowpanContexts:aLocal <- [DW_OP_LLVM_convert 1 7, DW_OP_LLVM_convert 8 7, DW_OP_stack_value] $r1
	@DEBUG_VALUE: OutputLowpanContexts:this <- $r4
	.loc	14 611 27 prologue_end          @ ../../../components/network/thread/subg_openthread/src/cli/cli_network_data.cpp:611:27
	str	r0, [sp, #20]
.Ltmp195:
	.loc	14 614 5                        @ ../../../components/network/thread/subg_openthread/src/cli/cli_network_data.cpp:614:5
	cbnz	r1, .LBB14_4
.Ltmp196:
@ %bb.1:
	@DEBUG_VALUE: OutputLowpanContexts:this <- $r4
	@DEBUG_VALUE: OutputLowpanContexts:aLocal <- [DW_OP_LLVM_convert 1 7, DW_OP_LLVM_convert 8 7, DW_OP_stack_value] $r1
	@DEBUG_VALUE: OutputLowpanContexts:iterator <- 0
	.loc	14 616 5                        @ ../../../components/network/thread/subg_openthread/src/cli/cli_network_data.cpp:616:5
	adr	r1, .LCPI14_0
.Ltmp197:
	mov	r0, r4
	bl	_ZN2ot3Cli6Output10OutputLineEPKcz
.Ltmp198:
	@DEBUG_VALUE: GetInstancePtr:this <- $r4
	.loc	1 204 47                        @ ../../../components/network/thread/subg_openthread/src\cli/cli_output.hpp:204:47
	ldr	r0, [r4]
.Ltmp199:
	@DEBUG_VALUE: OutputLowpanContexts:iterator <- [DW_OP_plus_uconst 20, DW_OP_deref] $sp
	.loc	1 0 47 is_stmt 0                @ ../../../components/network/thread/subg_openthread/src\cli/cli_output.hpp:0:47
	mov	r8, sp
	add	r1, sp, #20
.Ltmp200:
	.loc	14 618 12 is_stmt 1             @ ../../../components/network/thread/subg_openthread/src/cli/cli_network_data.cpp:618:12
	mov	r2, r8
	bl	otNetDataGetNextLowpanContextInfo
.Ltmp201:
	.loc	14 618 5 is_stmt 0              @ ../../../components/network/thread/subg_openthread/src/cli/cli_network_data.cpp:618:5
	cbnz	r0, .LBB14_4
.Ltmp202:
@ %bb.2:
	@DEBUG_VALUE: GetInstancePtr:this <- $r4
	@DEBUG_VALUE: OutputLowpanContexts:this <- $r4
	@DEBUG_VALUE: OutputLowpanContexts:iterator <- [DW_OP_plus_uconst 20, DW_OP_deref] $sp
	.loc	14 0 5                          @ ../../../components/network/thread/subg_openthread/src/cli/cli_network_data.cpp:0:5
	add.w	r6, r8, #2
	adr	r7, .LCPI14_1
	add	r5, sp, #20
.Ltmp203:
	.p2align	2
.LBB14_3:                               @ =>This Inner Loop Header: Depth=1
	@DEBUG_VALUE: GetInstancePtr:this <- $r4
	@DEBUG_VALUE: OutputLowpanContexts:this <- $r4
	@DEBUG_VALUE: OutputLowpanContexts:iterator <- [DW_OP_plus_uconst 20, DW_OP_deref] $sp
	.loc	14 620 9 is_stmt 1              @ ../../../components/network/thread/subg_openthread/src/cli/cli_network_data.cpp:620:9
	mov	r0, r4
	mov	r1, r6
	bl	_ZN2ot3Cli6Output15OutputIp6PrefixERK11otIp6Prefix
.Ltmp204:
	.loc	14 621 52                       @ ../../../components/network/thread/subg_openthread/src/cli/cli_network_data.cpp:621:52
	ldrb.w	r0, [sp, #1]
	.loc	14 621 35 is_stmt 0             @ ../../../components/network/thread/subg_openthread/src/cli/cli_network_data.cpp:621:35
	ldrb.w	r2, [sp]
	.loc	14 621 47                       @ ../../../components/network/thread/subg_openthread/src/cli/cli_network_data.cpp:621:47
	cmp	r0, #0
	mov.w	r3, #99
	.loc	14 621 9                        @ ../../../components/network/thread/subg_openthread/src/cli/cli_network_data.cpp:621:9
	mov	r0, r4
	mov	r1, r7
	.loc	14 621 47                       @ ../../../components/network/thread/subg_openthread/src/cli/cli_network_data.cpp:621:47
	it	eq
	moveq	r3, #45
	.loc	14 621 9                        @ ../../../components/network/thread/subg_openthread/src/cli/cli_network_data.cpp:621:9
	bl	_ZN2ot3Cli6Output10OutputLineEPKcz
.Ltmp205:
	.loc	1 204 47 is_stmt 1              @ ../../../components/network/thread/subg_openthread/src\cli/cli_output.hpp:204:47
	ldr	r0, [r4]
.Ltmp206:
	@DEBUG_VALUE: OutputLowpanContexts:iterator <- [DW_OP_plus_uconst 20, DW_OP_deref] $sp
	.loc	14 618 12                       @ ../../../components/network/thread/subg_openthread/src/cli/cli_network_data.cpp:618:12
	mov	r1, r5
	mov	r2, r8
	bl	otNetDataGetNextLowpanContextInfo
.Ltmp207:
	.loc	14 618 5 is_stmt 0              @ ../../../components/network/thread/subg_openthread/src/cli/cli_network_data.cpp:618:5
	cmp	r0, #0
	@DEBUG_VALUE: GetInstancePtr:this <- $r4
	beq	.LBB14_3
.Ltmp208:
.LBB14_4:
	@DEBUG_VALUE: OutputLowpanContexts:this <- $r4
	@DEBUG_LABEL: OutputLowpanContexts:exit
	.loc	14 626 1 is_stmt 1              @ ../../../components/network/thread/subg_openthread/src/cli/cli_network_data.cpp:626:1
	add	sp, #24
	pop.w	{r4, r5, r6, r7, r8, pc}
.Ltmp209:
	.p2align	2
@ %bb.5:
	.loc	14 0 1 is_stmt 0                @ ../../../components/network/thread/subg_openthread/src/cli/cli_network_data.cpp:0:1
.LCPI14_0:
.L.str.12:
	.asciz	"Contexts:\000\000"
.LCPI14_1:
.L.str.13:
	.asciz	" %u %c\000"
.Lfunc_end14:
	.size	_ZN2ot3Cli11NetworkData20OutputLowpanContextsEb, .Lfunc_end14-_ZN2ot3Cli11NetworkData20OutputLowpanContextsEb
	.cfi_endproc
	.cantunwind
	.fnend
                                        @ -- End function
	.section	.text._ZN2ot3Cli11NetworkData12OutputBinaryEb,"ax",%progbits
	.hidden	_ZN2ot3Cli11NetworkData12OutputBinaryEb @ -- Begin function _ZN2ot3Cli11NetworkData12OutputBinaryEb
	.globl	_ZN2ot3Cli11NetworkData12OutputBinaryEb
	.p2align	1
	.type	_ZN2ot3Cli11NetworkData12OutputBinaryEb,%function
	.code	16                              @ @_ZN2ot3Cli11NetworkData12OutputBinaryEb
	.thumb_func
_ZN2ot3Cli11NetworkData12OutputBinaryEb:
.Lfunc_begin15:
	.loc	14 629 0 is_stmt 1              @ ../../../components/network/thread/subg_openthread/src/cli/cli_network_data.cpp:629:0
	.fnstart
	.cfi_startproc
@ %bb.0:
	@DEBUG_VALUE: OutputBinary:this <- $r0
	@DEBUG_VALUE: OutputBinary:aLocal <- [DW_OP_LLVM_convert 1 7, DW_OP_LLVM_convert 8 7, DW_OP_stack_value] $r1
	.save	{r4, lr}
	push	{r4, lr}
	.cfi_def_cfa_offset 8
	.cfi_offset lr, -4
	.cfi_offset r4, -8
	.pad	#256
	sub	sp, #256
	.cfi_def_cfa_offset 264
	mov	r4, r0
.Ltmp210:
	@DEBUG_VALUE: OutputBinary:this <- $r4
	movs	r0, #255
.Ltmp211:
	@DEBUG_VALUE: OutputBinary:len <- -1
	@DEBUG_VALUE: OutputBinary:aLocal <- [DW_OP_LLVM_convert 1 7, DW_OP_LLVM_convert 8 7, DW_OP_stack_value] $r1
	@DEBUG_VALUE: OutputBinary:this <- $r4
	.loc	14 632 13 prologue_end          @ ../../../components/network/thread/subg_openthread/src/cli/cli_network_data.cpp:632:13
	strb.w	r0, [sp]
	.loc	14 634 9                        @ ../../../components/network/thread/subg_openthread/src/cli/cli_network_data.cpp:634:9
	cbz	r1, .LBB15_2
.Ltmp212:
@ %bb.1:
	@DEBUG_VALUE: OutputBinary:this <- $r4
	@DEBUG_VALUE: OutputBinary:aLocal <- [DW_OP_LLVM_convert 1 7, DW_OP_LLVM_convert 8 7, DW_OP_stack_value] $r1
	@DEBUG_VALUE: OutputBinary:len <- -1
	.loc	14 0 9 is_stmt 0                @ ../../../components/network/thread/subg_openthread/src/cli/cli_network_data.cpp:0:9
	movs	r0, #12
	b	.LBB15_4
.Ltmp213:
.LBB15_2:
	@DEBUG_VALUE: OutputBinary:this <- $r4
	@DEBUG_VALUE: OutputBinary:aLocal <- [DW_OP_LLVM_convert 1 7, DW_OP_LLVM_convert 8 7, DW_OP_stack_value] $r1
	@DEBUG_VALUE: OutputBinary:len <- -1
	@DEBUG_VALUE: GetInstancePtr:this <- $r4
	.loc	1 204 47 is_stmt 1              @ ../../../components/network/thread/subg_openthread/src\cli/cli_output.hpp:204:47
	ldr	r0, [r4]
.Ltmp214:
	@DEBUG_VALUE: OutputBinary:len <- [DW_OP_deref] $sp
	.loc	1 0 47 is_stmt 0                @ ../../../components/network/thread/subg_openthread/src\cli/cli_output.hpp:0:47
	add.w	r2, sp, #1
	mov	r3, sp
.Ltmp215:
	.loc	14 644 17 is_stmt 1             @ ../../../components/network/thread/subg_openthread/src/cli/cli_network_data.cpp:644:17
	movs	r1, #0
.Ltmp216:
	bl	otNetDataGet
.Ltmp217:
	@DEBUG_VALUE: OutputBinary:error <- $r0
	.loc	14 646 5                        @ ../../../components/network/thread/subg_openthread/src/cli/cli_network_data.cpp:646:5
	cbnz	r0, .LBB15_4
.Ltmp218:
@ %bb.3:
	@DEBUG_VALUE: OutputBinary:this <- $r4
	@DEBUG_VALUE: OutputBinary:error <- $r0
	@DEBUG_VALUE: OutputBinary:len <- [DW_OP_deref] $sp
	.loc	14 648 48                       @ ../../../components/network/thread/subg_openthread/src/cli/cli_network_data.cpp:648:48
	ldrb.w	r2, [sp]
.Ltmp219:
	@DEBUG_VALUE: OutputBinary:len <- undef
	.loc	14 0 48 is_stmt 0               @ ../../../components/network/thread/subg_openthread/src/cli/cli_network_data.cpp:0:48
	add.w	r1, sp, #1
	.loc	14 648 5                        @ ../../../components/network/thread/subg_openthread/src/cli/cli_network_data.cpp:648:5
	mov	r0, r4
.Ltmp220:
	bl	_ZN2ot3Cli6Output15OutputBytesLineEPKht
.Ltmp221:
	.loc	14 0 5                          @ ../../../components/network/thread/subg_openthread/src/cli/cli_network_data.cpp:0:5
	movs	r0, #0
.Ltmp222:
.LBB15_4:
	@DEBUG_VALUE: OutputBinary:this <- $r4
	@DEBUG_LABEL: OutputBinary:exit
	.loc	14 651 5 is_stmt 1              @ ../../../components/network/thread/subg_openthread/src/cli/cli_network_data.cpp:651:5
	add	sp, #256
	pop	{r4, pc}
.Ltmp223:
.Lfunc_end15:
	.size	_ZN2ot3Cli11NetworkData12OutputBinaryEb, .Lfunc_end15-_ZN2ot3Cli11NetworkData12OutputBinaryEb
	.cfi_endproc
	.cantunwind
	.fnend
                                        @ -- End function
	.section	.text._ZN2ot3Cli11NetworkData7ProcessILy1980428035EEE7otErrorPNS_5Utils13CmdLineParser3ArgE,"ax",%progbits
	.hidden	_ZN2ot3Cli11NetworkData7ProcessILy1980428035EEE7otErrorPNS_5Utils13CmdLineParser3ArgE @ -- Begin function _ZN2ot3Cli11NetworkData7ProcessILy1980428035EEE7otErrorPNS_5Utils13CmdLineParser3ArgE
	.globl	_ZN2ot3Cli11NetworkData7ProcessILy1980428035EEE7otErrorPNS_5Utils13CmdLineParser3ArgE
	.p2align	2
	.type	_ZN2ot3Cli11NetworkData7ProcessILy1980428035EEE7otErrorPNS_5Utils13CmdLineParser3ArgE,%function
	.code	16                              @ @_ZN2ot3Cli11NetworkData7ProcessILy1980428035EEE7otErrorPNS_5Utils13CmdLineParser3ArgE
	.thumb_func
_ZN2ot3Cli11NetworkData7ProcessILy1980428035EEE7otErrorPNS_5Utils13CmdLineParser3ArgE:
.Lfunc_begin16:
	.loc	14 723 0                        @ ../../../components/network/thread/subg_openthread/src/cli/cli_network_data.cpp:723:0
	.fnstart
	.cfi_startproc
@ %bb.0:
	@DEBUG_VALUE: Process<1980428035>:this <- $r0
	@DEBUG_VALUE: Process<1980428035>:aArgs <- $r1
	@DEBUG_VALUE: IsEmpty:this <- $r1
	.save	{r4, r5, r6, r7, r8, r9, r10, r11, lr}
	push.w	{r4, r5, r6, r7, r8, r9, r10, r11, lr}
	.cfi_def_cfa_offset 36
	.cfi_offset lr, -4
	.cfi_offset r11, -8
	.cfi_offset r10, -12
	.cfi_offset r9, -16
	.cfi_offset r8, -20
	.cfi_offset r7, -24
	.cfi_offset r6, -28
	.cfi_offset r5, -32
	.cfi_offset r4, -36
	.pad	#4
	sub	sp, #4
	.cfi_def_cfa_offset 40
	mov	r4, r1
.Ltmp224:
	@DEBUG_VALUE: IsEmpty:this <- $r4
	@DEBUG_VALUE: Process<1980428035>:aArgs <- $r4
	.loc	9 321 40 prologue_end           @ ../../../components/network/thread/subg_openthread/src/core\utils/parse_cmdline.hpp:321:40
	ldr	r1, [r1]
	mov	r8, r0
.Ltmp225:
	@DEBUG_VALUE: Process<1980428035>:this <- $r8
	@DEBUG_VALUE: i <- 0
	@DEBUG_VALUE: Process<1980428035>:binary <- undef
	@DEBUG_VALUE: Process<1980428035>:local <- undef
	@DEBUG_VALUE: Process<1980428035>:error <- 7
	@DEBUG_VALUE: Process<1980428035>:this <- $r8
	.loc	14 728 5                        @ ../../../components/network/thread/subg_openthread/src/cli/cli_network_data.cpp:728:5
	cbz	r1, .LBB16_9
.Ltmp226:
@ %bb.1:
	@DEBUG_VALUE: Process<1980428035>:this <- $r8
	@DEBUG_VALUE: Process<1980428035>:aArgs <- $r4
	@DEBUG_VALUE: IsEmpty:this <- $r4
	@DEBUG_VALUE: Process<1980428035>:error <- 7
	@DEBUG_VALUE: i <- 0
	.loc	14 0 5 is_stmt 0                @ ../../../components/network/thread/subg_openthread/src/cli/cli_network_data.cpp:0:5
	movs	r6, #0
	adr.w	r10, .LCPI16_0
	adr.w	r9, .LCPI16_1
	mov	r5, r4
	movs	r7, #0
	mov.w	r11, #0
.Ltmp227:
	.p2align	2
.LBB16_2:                               @ =>This Inner Loop Header: Depth=1
	@DEBUG_VALUE: Process<1980428035>:this <- $r8
	@DEBUG_VALUE: Process<1980428035>:aArgs <- $r4
	@DEBUG_VALUE: Process<1980428035>:error <- 7
	@DEBUG_VALUE: i <- $r6
	.loc	14 751 22 is_stmt 1             @ ../../../components/network/thread/subg_openthread/src/cli/cli_network_data.cpp:751:22
	mov	r0, r5
	mov	r1, r10
	bl	_ZNK2ot5Utils13CmdLineParser3ArgeqEPKc
.Ltmp228:
	.loc	14 751 13 is_stmt 0             @ ../../../components/network/thread/subg_openthread/src/cli/cli_network_data.cpp:751:13
	cbz	r0, .LBB16_4
.Ltmp229:
@ %bb.3:                                @   in Loop: Header=BB16_2 Depth=1
	@DEBUG_VALUE: Process<1980428035>:this <- $r8
	@DEBUG_VALUE: i <- $r6
	@DEBUG_VALUE: Process<1980428035>:aArgs <- $r4
	@DEBUG_VALUE: Process<1980428035>:error <- 7
	.loc	14 0 13                         @ ../../../components/network/thread/subg_openthread/src/cli/cli_network_data.cpp:0:13
	mov.w	r11, #1
	b	.LBB16_6
.Ltmp230:
	.p2align	2
.LBB16_4:                               @   in Loop: Header=BB16_2 Depth=1
	@DEBUG_VALUE: Process<1980428035>:this <- $r8
	@DEBUG_VALUE: i <- $r6
	@DEBUG_VALUE: Process<1980428035>:aArgs <- $r4
	@DEBUG_VALUE: Process<1980428035>:error <- 7
	.loc	14 755 27 is_stmt 1             @ ../../../components/network/thread/subg_openthread/src/cli/cli_network_data.cpp:755:27
	mov	r0, r5
	mov	r1, r9
	bl	_ZNK2ot5Utils13CmdLineParser3ArgeqEPKc
.Ltmp231:
	.loc	14 755 18 is_stmt 0             @ ../../../components/network/thread/subg_openthread/src/cli/cli_network_data.cpp:755:18
	cbz	r0, .LBB16_11
.Ltmp232:
@ %bb.5:                                @   in Loop: Header=BB16_2 Depth=1
	@DEBUG_VALUE: Process<1980428035>:this <- $r8
	@DEBUG_VALUE: i <- $r6
	@DEBUG_VALUE: Process<1980428035>:aArgs <- $r4
	@DEBUG_VALUE: Process<1980428035>:error <- 7
	.loc	14 0 18                         @ ../../../components/network/thread/subg_openthread/src/cli/cli_network_data.cpp:0:18
	movs	r7, #1
.Ltmp233:
.LBB16_6:                               @   in Loop: Header=BB16_2 Depth=1
	@DEBUG_VALUE: Process<1980428035>:this <- $r8
	@DEBUG_VALUE: i <- $r6
	@DEBUG_VALUE: Process<1980428035>:aArgs <- $r4
	@DEBUG_VALUE: Process<1980428035>:error <- 7
	@DEBUG_VALUE: Process<1980428035>:local <- undef
	@DEBUG_VALUE: Process<1980428035>:binary <- undef
	.loc	14 728 47 is_stmt 1             @ ../../../components/network/thread/subg_openthread/src/cli/cli_network_data.cpp:728:47
	adds	r6, #1
.Ltmp234:
	@DEBUG_VALUE: i <- $r6
	.loc	14 728 26 is_stmt 0             @ ../../../components/network/thread/subg_openthread/src/cli/cli_network_data.cpp:728:26
	uxtb	r0, r6
.Ltmp235:
	.loc	9 321 40 is_stmt 1              @ ../../../components/network/thread/subg_openthread/src/core\utils/parse_cmdline.hpp:321:40
	ldr.w	r1, [r4, r0, lsl #2]
.Ltmp236:
	.loc	14 728 26                       @ ../../../components/network/thread/subg_openthread/src/cli/cli_network_data.cpp:728:26
	add.w	r5, r4, r0, lsl #2
.Ltmp237:
	@DEBUG_VALUE: IsEmpty:this <- $r5
	.loc	14 728 5 is_stmt 0              @ ../../../components/network/thread/subg_openthread/src/cli/cli_network_data.cpp:728:5
	cmp	r1, #0
	bne	.LBB16_2
.Ltmp238:
@ %bb.7:
	@DEBUG_VALUE: Process<1980428035>:this <- $r8
	@DEBUG_VALUE: Process<1980428035>:aArgs <- $r4
	@DEBUG_VALUE: Process<1980428035>:error <- 7
	@DEBUG_VALUE: Process<1980428035>:error <- 7
	.loc	14 765 9 is_stmt 1              @ ../../../components/network/thread/subg_openthread/src/cli/cli_network_data.cpp:765:9
	lsls	r0, r7, #31
	beq	.LBB16_10
.Ltmp239:
@ %bb.8:
	@DEBUG_VALUE: Process<1980428035>:this <- $r8
	@DEBUG_VALUE: Process<1980428035>:aArgs <- $r4
	@DEBUG_VALUE: Process<1980428035>:error <- 7
	.loc	14 767 17                       @ ../../../components/network/thread/subg_openthread/src/cli/cli_network_data.cpp:767:17
	and	r1, r11, #1
	mov	r0, r8
	add	sp, #4
	pop.w	{r4, r5, r6, r7, r8, r9, r10, r11, lr}
.Ltmp240:
	b	_ZN2ot3Cli11NetworkData12OutputBinaryEb
.Ltmp241:
.LBB16_9:
	@DEBUG_VALUE: Process<1980428035>:this <- $r8
	@DEBUG_VALUE: Process<1980428035>:aArgs <- $r4
	@DEBUG_VALUE: IsEmpty:this <- $r4
	@DEBUG_VALUE: Process<1980428035>:error <- 7
	@DEBUG_VALUE: i <- 0
	.loc	14 0 17 is_stmt 0               @ ../../../components/network/thread/subg_openthread/src/cli/cli_network_data.cpp:0:17
	mov.w	r11, #0
.Ltmp242:
.LBB16_10:
	@DEBUG_VALUE: Process<1980428035>:this <- $r8
	@DEBUG_VALUE: Process<1980428035>:aArgs <- $r4
	@DEBUG_VALUE: Process<1980428035>:error <- 7
	.loc	14 771 9 is_stmt 1              @ ../../../components/network/thread/subg_openthread/src/cli/cli_network_data.cpp:771:9
	and	r4, r11, #1
.Ltmp243:
	mov	r0, r8
	mov	r1, r4
	bl	_ZN2ot3Cli11NetworkData14OutputPrefixesEb
.Ltmp244:
	.loc	14 772 9                        @ ../../../components/network/thread/subg_openthread/src/cli/cli_network_data.cpp:772:9
	mov	r0, r8
	mov	r1, r4
	bl	_ZN2ot3Cli11NetworkData12OutputRoutesEb
.Ltmp245:
	.loc	14 773 9                        @ ../../../components/network/thread/subg_openthread/src/cli/cli_network_data.cpp:773:9
	mov	r0, r8
	mov	r1, r4
	bl	_ZN2ot3Cli11NetworkData14OutputServicesEb
.Ltmp246:
	.loc	14 774 9                        @ ../../../components/network/thread/subg_openthread/src/cli/cli_network_data.cpp:774:9
	mov	r0, r8
	mov	r1, r4
	bl	_ZN2ot3Cli11NetworkData20OutputLowpanContextsEb
.Ltmp247:
	.loc	14 0 9 is_stmt 0                @ ../../../components/network/thread/subg_openthread/src/cli/cli_network_data.cpp:0:9
	movs	r0, #0
.Ltmp248:
	@DEBUG_VALUE: Process<1980428035>:error <- 0
	b	.LBB16_12
.Ltmp249:
.LBB16_11:
	@DEBUG_VALUE: Process<1980428035>:this <- $r8
	@DEBUG_VALUE: i <- $r6
	@DEBUG_VALUE: Process<1980428035>:aArgs <- $r4
	@DEBUG_VALUE: Process<1980428035>:error <- 7
	movs	r0, #7
.Ltmp250:
.LBB16_12:
	@DEBUG_VALUE: Process<1980428035>:this <- $r8
	.loc	14 780 1 is_stmt 1              @ ../../../components/network/thread/subg_openthread/src/cli/cli_network_data.cpp:780:1
	add	sp, #4
	pop.w	{r4, r5, r6, r7, r8, r9, r10, r11, pc}
.Ltmp251:
	.p2align	2
@ %bb.13:
	.loc	14 0 1 is_stmt 0                @ ../../../components/network/thread/subg_openthread/src/cli/cli_network_data.cpp:0:1
.LCPI16_0:
.L.str.14:
	.asciz	"local\000\000"
.LCPI16_1:
.L.str.15:
	.asciz	"-x\000"
.Lfunc_end16:
	.size	_ZN2ot3Cli11NetworkData7ProcessILy1980428035EEE7otErrorPNS_5Utils13CmdLineParser3ArgE, .Lfunc_end16-_ZN2ot3Cli11NetworkData7ProcessILy1980428035EEE7otErrorPNS_5Utils13CmdLineParser3ArgE
	.cfi_endproc
	.cantunwind
	.fnend
                                        @ -- End function
	.section	.text._ZN2ot3Cli11NetworkData7ProcessEPNS_5Utils13CmdLineParser3ArgE,"ax",%progbits
	.hidden	_ZN2ot3Cli11NetworkData7ProcessEPNS_5Utils13CmdLineParser3ArgE @ -- Begin function _ZN2ot3Cli11NetworkData7ProcessEPNS_5Utils13CmdLineParser3ArgE
	.globl	_ZN2ot3Cli11NetworkData7ProcessEPNS_5Utils13CmdLineParser3ArgE
	.p2align	2
	.type	_ZN2ot3Cli11NetworkData7ProcessEPNS_5Utils13CmdLineParser3ArgE,%function
	.code	16                              @ @_ZN2ot3Cli11NetworkData7ProcessEPNS_5Utils13CmdLineParser3ArgE
	.thumb_func
_ZN2ot3Cli11NetworkData7ProcessEPNS_5Utils13CmdLineParser3ArgE:
.Lfunc_begin17:
	.loc	14 783 0 is_stmt 1              @ ../../../components/network/thread/subg_openthread/src/cli/cli_network_data.cpp:783:0
	.fnstart
	.cfi_startproc
@ %bb.0:
	@DEBUG_VALUE: Process:this <- $r0
	@DEBUG_VALUE: Process:aArgs <- $r1
	.save	{r4, r5, r6, r7, r8, lr}
	push.w	{r4, r5, r6, r7, r8, lr}
	.cfi_def_cfa_offset 24
	.cfi_offset lr, -4
	.cfi_offset r8, -8
	.cfi_offset r7, -12
	.cfi_offset r6, -16
	.cfi_offset r5, -20
	.cfi_offset r4, -24
	.pad	#8
	sub	sp, #8
	.cfi_def_cfa_offset 32
	mov	r8, r1
.Ltmp252:
	@DEBUG_VALUE: Process:aArgs <- $r8
	.loc	9 321 40 prologue_end           @ ../../../components/network/thread/subg_openthread/src/core\utils/parse_cmdline.hpp:321:40
	ldr	r1, [r1]
	mov	r5, r0
.Ltmp253:
	@DEBUG_VALUE: Process:this <- $r5
	@DEBUG_VALUE: IsEmpty:this <- $r8
	@DEBUG_VALUE: Process:error <- 35
	@DEBUG_VALUE: Process:this <- $r5
	.loc	14 829 28                       @ ../../../components/network/thread/subg_openthread/src/cli/cli_network_data.cpp:829:28
	cbz	r1, .LBB17_2
.Ltmp254:
@ %bb.1:
	@DEBUG_VALUE: Process:aArgs <- $r8
	@DEBUG_VALUE: Process:this <- $r5
	@DEBUG_VALUE: Process:error <- 35
	.loc	14 829 41 is_stmt 0             @ ../../../components/network/thread/subg_openthread/src/cli/cli_network_data.cpp:829:41
	adr	r1, .LCPI17_0
	mov	r0, r8
	bl	_ZNK2ot5Utils13CmdLineParser3ArgeqEPKc
.Ltmp255:
	.loc	14 829 9                        @ ../../../components/network/thread/subg_openthread/src/cli/cli_network_data.cpp:829:9
	cbz	r0, .LBB17_5
.Ltmp256:
.LBB17_2:
	@DEBUG_VALUE: Process:aArgs <- $r8
	@DEBUG_VALUE: Process:this <- $r5
	@DEBUG_VALUE: Process:error <- 35
	.loc	14 0 9                          @ ../../../components/network/thread/subg_openthread/src/cli/cli_network_data.cpp:0:9
	movw	r4, :lower16:_ZZN2ot3Cli11NetworkData7ProcessEPNS_5Utils13CmdLineParser3ArgEE9kCommands
	movs	r7, #0
	@DEBUG_VALUE: __end0 <- undef
	@DEBUG_VALUE: __range3 <- undef
	@DEBUG_VALUE: OutputCommandTable<ot::Cli::NetworkData, 4>:aCommandTable <- undef
	@DEBUG_VALUE: __begin0 <- undef
	@DEBUG_VALUE: OutputCommandTable<ot::Cli::NetworkData, 4>:this <- $r5
	movt	r4, :upper16:_ZZN2ot3Cli11NetworkData7ProcessEPNS_5Utils13CmdLineParser3ArgEE9kCommands
	adr	r6, .LCPI17_1
.Ltmp257:
	.p2align	2
.LBB17_3:                               @ =>This Inner Loop Header: Depth=1
	@DEBUG_VALUE: Process:aArgs <- $r8
	@DEBUG_VALUE: OutputCommandTable<ot::Cli::NetworkData, 4>:this <- $r5
	@DEBUG_VALUE: Process:this <- $r5
	@DEBUG_VALUE: Process:error <- 35
	@DEBUG_VALUE: __begin0 <- undef
	@DEBUG_VALUE: entry <- undef
	.loc	1 526 36 is_stmt 1              @ ../../../components/network/thread/subg_openthread/src\cli/cli_output.hpp:526:36
	ldr	r2, [r4, r7]
	.loc	1 526 13 is_stmt 0              @ ../../../components/network/thread/subg_openthread/src\cli/cli_output.hpp:526:13
	mov	r0, r5
	mov	r1, r6
	bl	_ZN2ot3Cli6Output10OutputLineEPKcz
.Ltmp258:
	@DEBUG_VALUE: __begin0 <- [DW_OP_plus_uconst 12, DW_OP_stack_value] undef
	.loc	1 524 45 is_stmt 1              @ ../../../components/network/thread/subg_openthread/src\cli/cli_output.hpp:524:45
	adds	r7, #12
	cmp	r7, #48
	bne	.LBB17_3
.Ltmp259:
@ %bb.4:
	@DEBUG_VALUE: Process:aArgs <- $r8
	@DEBUG_VALUE: Process:this <- $r5
	@DEBUG_VALUE: Process:error <- 35
	@DEBUG_VALUE: IsEmpty:this <- $r8
	.loc	9 321 40                        @ ../../../components/network/thread/subg_openthread/src/core\utils/parse_cmdline.hpp:321:40
	ldr.w	r1, [r8]
	movs	r0, #0
.Ltmp260:
	.loc	14 832 9                        @ ../../../components/network/thread/subg_openthread/src/cli/cli_network_data.cpp:832:9
	cmp	r1, #0
	it	eq
	moveq	r0, #35
.Ltmp261:
	@DEBUG_VALUE: Process:error <- $r0
	.loc	14 0 9 is_stmt 0                @ ../../../components/network/thread/subg_openthread/src/cli/cli_network_data.cpp:0:9
	b	.LBB17_10
.Ltmp262:
.LBB17_5:
	@DEBUG_VALUE: Process:aArgs <- $r8
	@DEBUG_VALUE: Process:this <- $r5
	@DEBUG_VALUE: Process:error <- 35
	@DEBUG_VALUE: GetCString:this <- $r8
	.loc	9 345 37 is_stmt 1              @ ../../../components/network/thread/subg_openthread/src/core\utils/parse_cmdline.hpp:345:37
	ldr.w	r0, [r8]
.Ltmp263:
	.file	39 "D:\\20240115\\rafael-iot-sdk-das\\examples\\das_subg_thread\\keil" "../../../components/network/thread/subg_openthread/src/core\\common/binary_search.hpp"
	.loc	39 76 13                        @ ../../../components/network/thread/subg_openthread/src/core\common/binary_search.hpp:76:13
	movw	r7, :lower16:_ZN2ot12BinarySearch7CompareIPcNS_3Cli6Output12CommandEntryINS3_11NetworkDataEEEEEiPKvS9_
	movw	r1, :lower16:_ZZN2ot3Cli11NetworkData7ProcessEPNS_5Utils13CmdLineParser3ArgEE9kCommands
.Ltmp264:
	.loc	14 835 34                       @ ../../../components/network/thread/subg_openthread/src/cli/cli_network_data.cpp:835:34
	str	r0, [sp, #4]
.Ltmp265:
	@DEBUG_VALUE: Find<char *, ot::Cli::Output::CommandEntry<ot::Cli::NetworkData>, 4>:aKey <- [DW_OP_plus_uconst 4, DW_OP_stack_value] $sp
	.loc	39 76 13                        @ ../../../components/network/thread/subg_openthread/src/core\common/binary_search.hpp:76:13
	movt	r7, :upper16:_ZN2ot12BinarySearch7CompareIPcNS_3Cli6Output12CommandEntryINS3_11NetworkDataEEEEEiPKvS9_
	movt	r1, :upper16:_ZZN2ot3Cli11NetworkData7ProcessEPNS_5Utils13CmdLineParser3ArgEE9kCommands
.Ltmp266:
	@DEBUG_VALUE: Find<char *, ot::Cli::Output::CommandEntry<ot::Cli::NetworkData>, 4>:aTable <- $r1
	.loc	39 0 13 is_stmt 0               @ ../../../components/network/thread/subg_openthread/src/core\common/binary_search.hpp:0:13
	add	r0, sp, #4
	.loc	39 76 13                        @ ../../../components/network/thread/subg_openthread/src/core\common/binary_search.hpp:76:13
	movs	r2, #4
	movs	r3, #12
	str	r7, [sp]
	bl	_ZN2ot12BinarySearch4FindEPKvS2_ttRFiS2_S2_E
.Ltmp267:
	@DEBUG_VALUE: Process:command <- $r0
	.loc	14 836 5 is_stmt 1              @ ../../../components/network/thread/subg_openthread/src/cli/cli_network_data.cpp:836:5
	cbz	r0, .LBB17_9
.Ltmp268:
@ %bb.6:
	@DEBUG_VALUE: Process:aArgs <- $r8
	@DEBUG_VALUE: Process:this <- $r5
	@DEBUG_VALUE: Process:command <- $r0
	@DEBUG_VALUE: Process:error <- 35
	@DEBUG_VALUE: Process:command <- $r0
	.loc	14 838 30                       @ ../../../components/network/thread/subg_openthread/src/cli/cli_network_data.cpp:838:30
	ldrd	r2, r1, [r0, #4]
	.loc	14 838 13 is_stmt 0             @ ../../../components/network/thread/subg_openthread/src/cli/cli_network_data.cpp:838:13
	lsls	r0, r1, #31
.Ltmp269:
	add.w	r0, r5, r1, asr #1
	beq	.LBB17_8
.Ltmp270:
@ %bb.7:
	@DEBUG_VALUE: Process:aArgs <- $r8
	@DEBUG_VALUE: Process:this <- $r5
	@DEBUG_VALUE: Process:error <- 35
	ldr	r1, [r0]
	ldr	r2, [r1, r2]
.Ltmp271:
.LBB17_8:
	@DEBUG_VALUE: Process:aArgs <- $r8
	@DEBUG_VALUE: Process:this <- $r5
	@DEBUG_VALUE: Process:error <- 35
	.loc	14 838 46                       @ ../../../components/network/thread/subg_openthread/src/cli/cli_network_data.cpp:838:46
	add.w	r1, r8, #4
	.loc	14 838 13                       @ ../../../components/network/thread/subg_openthread/src/cli/cli_network_data.cpp:838:13
	blx	r2
.Ltmp272:
	@DEBUG_VALUE: Process:error <- $r0
	.loc	14 0 13                         @ ../../../components/network/thread/subg_openthread/src/cli/cli_network_data.cpp:0:13
	b	.LBB17_10
.Ltmp273:
.LBB17_9:
	@DEBUG_VALUE: GetCString:this <- $r8
	@DEBUG_VALUE: Process:aArgs <- $r8
	@DEBUG_VALUE: Process:this <- $r5
	@DEBUG_VALUE: Process:command <- $r0
	@DEBUG_VALUE: Find<char *, ot::Cli::Output::CommandEntry<ot::Cli::NetworkData>, 4>:aKey <- [DW_OP_plus_uconst 4, DW_OP_stack_value] $sp
	@DEBUG_VALUE: Process:error <- 35
	movs	r0, #35
.Ltmp274:
.LBB17_10:
	@DEBUG_VALUE: Process:aArgs <- $r8
	@DEBUG_VALUE: Process:this <- $r5
	@DEBUG_VALUE: Process:error <- $r0
	@DEBUG_LABEL: Process:exit
	.loc	14 841 5 is_stmt 1              @ ../../../components/network/thread/subg_openthread/src/cli/cli_network_data.cpp:841:5
	add	sp, #8
	pop.w	{r4, r5, r6, r7, r8, pc}
.Ltmp275:
	.p2align	2
@ %bb.11:
	.loc	14 0 5 is_stmt 0                @ ../../../components/network/thread/subg_openthread/src/cli/cli_network_data.cpp:0:5
.LCPI17_0:
.L.str.20:
	.asciz	"help\000\000\000"
.LCPI17_1:
.L.str.21:
	.asciz	"%s\000"
.Lfunc_end17:
	.size	_ZN2ot3Cli11NetworkData7ProcessEPNS_5Utils13CmdLineParser3ArgE, .Lfunc_end17-_ZN2ot3Cli11NetworkData7ProcessEPNS_5Utils13CmdLineParser3ArgE
	.cfi_endproc
	.cantunwind
	.fnend
                                        @ -- End function
	.section	.text._ZN2ot12BinarySearch7CompareIPcNS_3Cli6Output12CommandEntryINS3_11NetworkDataEEEEEiPKvS9_,"axG",%progbits,_ZN2ot12BinarySearch7CompareIPcNS_3Cli6Output12CommandEntryINS3_11NetworkDataEEEEEiPKvS9_,comdat
	.hidden	_ZN2ot12BinarySearch7CompareIPcNS_3Cli6Output12CommandEntryINS3_11NetworkDataEEEEEiPKvS9_ @ -- Begin function _ZN2ot12BinarySearch7CompareIPcNS_3Cli6Output12CommandEntryINS3_11NetworkDataEEEEEiPKvS9_
	.weak	_ZN2ot12BinarySearch7CompareIPcNS_3Cli6Output12CommandEntryINS3_11NetworkDataEEEEEiPKvS9_
	.p2align	1
	.type	_ZN2ot12BinarySearch7CompareIPcNS_3Cli6Output12CommandEntryINS3_11NetworkDataEEEEEiPKvS9_,%function
	.code	16                              @ @_ZN2ot12BinarySearch7CompareIPcNS_3Cli6Output12CommandEntryINS3_11NetworkDataEEEEEiPKvS9_
	.thumb_func
_ZN2ot12BinarySearch7CompareIPcNS_3Cli6Output12CommandEntryINS3_11NetworkDataEEEEEiPKvS9_:
.Lfunc_begin18:
	.loc	39 114 0 is_stmt 1              @ ../../../components/network/thread/subg_openthread/src/core\common/binary_search.hpp:114:0
	.fnstart
	.cfi_startproc
@ %bb.0:
	@DEBUG_VALUE: Compare<char *, ot::Cli::Output::CommandEntry<ot::Cli::NetworkData> >:aKey <- $r0
	@DEBUG_VALUE: Compare<char *, ot::Cli::Output::CommandEntry<ot::Cli::NetworkData> >:aKey <- $r0
	@DEBUG_VALUE: Compare<char *, ot::Cli::Output::CommandEntry<ot::Cli::NetworkData> >:aEntry <- $r1
	@DEBUG_VALUE: Compare<char *, ot::Cli::Output::CommandEntry<ot::Cli::NetworkData> >:aEntry <- $r1
	.loc	39 115 60 prologue_end          @ ../../../components/network/thread/subg_openthread/src/core\common/binary_search.hpp:115:60
	ldr	r0, [r0]
.Ltmp276:
	@DEBUG_VALUE: Compare<char *, ot::Cli::Output::CommandEntry<ot::Cli::NetworkData> >:aKey <- [DW_OP_LLVM_entry_value 1] $r0
	@DEBUG_VALUE: Compare:this <- $r1
	@DEBUG_VALUE: Compare:aName <- $r0
	.loc	1 140 69                        @ ../../../components/network/thread/subg_openthread/src\cli/cli_output.hpp:140:69
	ldr	r1, [r1]
.Ltmp277:
	@DEBUG_VALUE: Compare<char *, ot::Cli::Output::CommandEntry<ot::Cli::NetworkData> >:aEntry <- [DW_OP_LLVM_entry_value 1] $r1
	.loc	1 140 55 is_stmt 0              @ ../../../components/network/thread/subg_openthread/src\cli/cli_output.hpp:140:55
	b	strcmp
.Ltmp278:
.Lfunc_end18:
	.size	_ZN2ot12BinarySearch7CompareIPcNS_3Cli6Output12CommandEntryINS3_11NetworkDataEEEEEiPKvS9_, .Lfunc_end18-_ZN2ot12BinarySearch7CompareIPcNS_3Cli6Output12CommandEntryINS3_11NetworkDataEEEEEiPKvS9_
	.cfi_endproc
	.cantunwind
	.fnend
                                        @ -- End function
	.type	.L.str,%object                  @ @.str
	.section	.rodata.str1.1,"aMS",%progbits,1
.L.str:
	.asciz	" %s"
	.size	.L.str, 4

	.type	.L.str.1,%object                @ @.str.1
.L.str.1:
	.asciz	" %s %04x"
	.size	.L.str.1, 9

	.type	.L.str.6,%object                @ @.str.6
.L.str.6:
	.asciz	"%u"
	.size	.L.str.6, 3

	.type	_ZZN2ot3Cli11NetworkData7ProcessEPNS_5Utils13CmdLineParser3ArgEE9kCommands,%object @ @_ZZN2ot3Cli11NetworkData7ProcessEPNS_5Utils13CmdLineParser3ArgEE9kCommands
	.section	.rodata._ZZN2ot3Cli11NetworkData7ProcessEPNS_5Utils13CmdLineParser3ArgEE9kCommands,"a",%progbits
	.p2align	2
_ZZN2ot3Cli11NetworkData7ProcessEPNS_5Utils13CmdLineParser3ArgEE9kCommands:
	.long	.L.str.16
	.long	_ZN2ot3Cli11NetworkData7ProcessILy112625398707738EEE7otErrorPNS_5Utils13CmdLineParser3ArgE
	.long	0                               @ 0x0
	.long	.L.str.17
	.long	_ZN2ot3Cli11NetworkData7ProcessILy4362819052862294378EEE7otErrorPNS_5Utils13CmdLineParser3ArgE
	.long	0                               @ 0x0
	.long	.L.str.18
	.long	_ZN2ot3Cli11NetworkData7ProcessILy1980428035EEE7otErrorPNS_5Utils13CmdLineParser3ArgE
	.long	0                               @ 0x0
	.long	.L.str.19
	.long	_ZN2ot3Cli11NetworkData7ProcessILy3328099188798998309EEE7otErrorPNS_5Utils13CmdLineParser3ArgE
	.long	0                               @ 0x0
	.size	_ZZN2ot3Cli11NetworkData7ProcessEPNS_5Utils13CmdLineParser3ArgEE9kCommands, 48

	.type	.L.str.16,%object               @ @.str.16
	.section	.rodata.str1.1,"aMS",%progbits,1
.L.str.16:
	.asciz	"length"
	.size	.L.str.16, 7

	.type	.L.str.17,%object               @ @.str.17
.L.str.17:
	.asciz	"maxlength"
	.size	.L.str.17, 10

	.type	.L.str.18,%object               @ @.str.18
.L.str.18:
	.asciz	"show"
	.size	.L.str.18, 5

	.type	.L.str.19,%object               @ @.str.19
.L.str.19:
	.asciz	"steeringdata"
	.size	.L.str.19, 13

	.file	40 "D:\\20240115\\rafael-iot-sdk-das\\examples\\das_subg_thread\\keil" "../../../components/network/thread/subg_openthread/include\\openthread/joiner.h"
	.section	".note.GNU-stack","",%progbits
	.eabi_attribute	30, 3	@ Tag_ABI_optimization_goals
	.ARM_attribute	16, 1	@ Tag_AV_eba