	.text
	.syntax unified
	.eabi_attribute	67, "2.09"	@ Tag_conformance
	.cpu	cortex-m3
	.eabi_attribute	6, 10	@ Tag_CPU_arch
	.eabi_attribute	7, 77	@ Tag_CPU_arch_profile
	.eabi_attribute	8, 0	@ Tag_ARM_ISA_use
	.eabi_attribute	9, 2	@ Tag_THUMB_ISA_use
	.eabi_attribute	34, 1	@ Tag_CPU_unaligned_access
	.eabi_attribute	17, 1	@ Tag_ABI_PCS_GOT_use
	.eabi_attribute	20, 2	@ Tag_ABI_FP_denormal
	.eabi_attribute	21, 0	@ Tag_ABI_FP_exceptions
	.eabi_attribute	23, 1	@ Tag_ABI_FP_number_model
	.eabi_attribute	24, 1	@ Tag_ABI_align_needed
	.eabi_attribute	25, 1	@ Tag_ABI_align_preserved
	.eabi_attribute	38, 1	@ Tag_ABI_FP_16bit_format
	.eabi_attribute	18, 4	@ Tag_ABI_PCS_wchar_t
	.eabi_attribute	26, 2	@ Tag_ABI_enum_size
	.eabi_attribute	14, 0	@ Tag_ABI_PCS_R9_use
	.file	"cli_uart.cpp"
	.file	1 "D:\\Rafael-IoT-SDK-Internal-main\\examples\\das_subg_thread\\keil" "../../../components/network/thread/subg_openthread/examples/apps/cli/cli_uart.cpp"
	.file	2 "C:\\Keil_v5\\ARM\\ARMCLANG\\Bin\\..\\include" "stdint.h"
	.file	3 "D:\\Rafael-IoT-SDK-Internal-main\\examples\\das_subg_thread\\keil" "../../../components/network/thread/subg_openthread/include\\openthread/error.h"
	.file	4 "D:\\Rafael-IoT-SDK-Internal-main\\examples\\das_subg_thread\\keil" "../../../components/network/thread/subg_openthread/examples/apps/cli\\cli_uart.cpp"
	.file	5 "C:\\Keil_v5\\ARM\\ARMCLANG\\Bin\\..\\include" "stdarg.h"
	.file	6 "C:\\Keil_v5\\ARM\\ARMCLANG\\Bin\\..\\include" "stdio.h"
	.file	7 "C:\\Keil_v5\\ARM\\ARMCLANG\\Bin\\..\\include" "string.h"
	.file	8 "C:\\Keil_v5\\ARM\\ARMCLANG\\Bin\\..\\include" "stdlib.h"
	.file	9 "C:\\Keil_v5\\ARM\\ARMCLANG\\Bin\\..\\include" "ctype.h"
	.section	.text.otPlatUartReceived,"ax",%progbits
	.hidden	otPlatUartReceived              @ -- Begin function otPlatUartReceived
	.globl	otPlatUartReceived
	.p2align	1
	.type	otPlatUartReceived,%function
	.code	16                              @ @otPlatUartReceived
	.thumb_func
otPlatUartReceived:
.Lfunc_begin0:
	.loc	1 371 0                         @ ../../../components/network/thread/subg_openthread/examples/apps/cli/cli_uart.cpp:371:0
	.fnstart
	.cfi_sections .debug_frame
	.cfi_startproc
@ %bb.0:
	@DEBUG_VALUE: otPlatUartReceived:aBuf <- $r0
	@DEBUG_VALUE: otPlatUartReceived:aBufLength <- $r1
	@DEBUG_VALUE: otPlatUartReceived:aBufLength <- $r1
	@DEBUG_VALUE: ReceiveTask:aBuf <- $r0
	@DEBUG_VALUE: ReceiveTask:aBufLength <- $r1
	@DEBUG_VALUE: ReceiveTask:aBufLength <- $r1
	.save	{r4, r5, r6, r7, r8, r9, r10, r11, lr}
	push.w	{r4, r5, r6, r7, r8, r9, r10, r11, lr}
	.cfi_def_cfa_offset 36
	.cfi_offset lr, -4
	.cfi_offset r11, -8
	.cfi_offset r10, -12
	.cfi_offset r9, -16
	.cfi_offset r8, -20
	.cfi_offset r7, -24
	.cfi_offset r6, -28
	.cfi_offset r5, -32
	.cfi_offset r4, -36
	.pad	#4
	sub	sp, #4
	.cfi_def_cfa_offset 40
.Ltmp0:
	.loc	1 144 5 prologue_end            @ ../../../components/network/thread/subg_openthread/examples/apps/cli/cli_uart.cpp:144:5
	cmp	r1, #0
.Ltmp1:
	@DEBUG_VALUE: ReceiveTask:end <- undef
	@DEBUG_VALUE: ReceiveTask:aBuf <- $r0
	@DEBUG_VALUE: otPlatUartReceived:aBuf <- $r0
	beq	.LBB0_18
.Ltmp2:
@ %bb.1:
	@DEBUG_VALUE: ReceiveTask:aBufLength <- $r1
	@DEBUG_VALUE: otPlatUartReceived:aBufLength <- $r1
	@DEBUG_VALUE: ReceiveTask:aBuf <- $r0
	@DEBUG_VALUE: otPlatUartReceived:aBuf <- $r0
	.loc	1 0 5 is_stmt 0                 @ ../../../components/network/thread/subg_openthread/examples/apps/cli/cli_uart.cpp:0:5
	movw	r10, :lower16:_ZZL11ReceiveTaskPKhtE9sLastChar
	movw	r7, :lower16:sRxLength
	movw	r8, :lower16:_ZZL11ReceiveTaskPKhtE12sEraseString
	movw	r6, :lower16:sRxBuffer
	movw	r9, :lower16:_ZZL11ReceiveTaskPKhtE4CRNL
	mov	r4, r0
.Ltmp3:
	@DEBUG_VALUE: otPlatUartReceived:aBuf <- $r4
	@DEBUG_VALUE: ReceiveTask:aBuf <- $r4
	add.w	r11, r0, r1
.Ltmp4:
	@DEBUG_VALUE: ReceiveTask:end <- $r11
	movt	r10, :upper16:_ZZL11ReceiveTaskPKhtE9sLastChar
	movt	r7, :upper16:sRxLength
	movt	r8, :upper16:_ZZL11ReceiveTaskPKhtE12sEraseString
	movt	r6, :upper16:sRxBuffer
	movs	r5, #0
	movt	r9, :upper16:_ZZL11ReceiveTaskPKhtE4CRNL
.Ltmp5:
	.p2align	2
.LBB0_2:                                @ =>This Loop Header: Depth=1
                                        @     Child Loop BB0_11 Depth 2
	@DEBUG_VALUE: ReceiveTask:end <- $r11
	@DEBUG_VALUE: ReceiveTask:aBuf <- $r4
	@DEBUG_VALUE: ReceiveTask:aBuf <- $r4
	.loc	1 146 17 is_stmt 1              @ ../../../components/network/thread/subg_openthread/examples/apps/cli/cli_uart.cpp:146:17
	ldrb	r0, [r4]
	.loc	1 146 9 is_stmt 0               @ ../../../components/network/thread/subg_openthread/examples/apps/cli/cli_uart.cpp:146:9
	cmp	r0, #12
	bgt	.LBB0_6
.Ltmp6:
@ %bb.3:                                @   in Loop: Header=BB0_2 Depth=1
	@DEBUG_VALUE: ReceiveTask:end <- $r11
	@DEBUG_VALUE: ReceiveTask:aBuf <- $r4
	cmp	r0, #8
	beq	.LBB0_8
.Ltmp7:
@ %bb.4:                                @   in Loop: Header=BB0_2 Depth=1
	@DEBUG_VALUE: ReceiveTask:end <- $r11
	@DEBUG_VALUE: ReceiveTask:aBuf <- $r4
	cmp	r0, #10
	bne	.LBB0_15
.Ltmp8:
@ %bb.5:                                @   in Loop: Header=BB0_2 Depth=1
	@DEBUG_VALUE: ReceiveTask:end <- $r11
	@DEBUG_VALUE: ReceiveTask:aBuf <- $r4
	.loc	1 149 17 is_stmt 1              @ ../../../components/network/thread/subg_openthread/examples/apps/cli/cli_uart.cpp:149:17
	ldrb.w	r0, [r10]
.Ltmp9:
	.loc	1 149 17 is_stmt 0              @ ../../../components/network/thread/subg_openthread/examples/apps/cli/cli_uart.cpp:149:17
	cmp	r0, #13
	bne	.LBB0_10
	b	.LBB0_17
.Ltmp10:
	.p2align	2
.LBB0_6:                                @   in Loop: Header=BB0_2 Depth=1
	@DEBUG_VALUE: ReceiveTask:end <- $r11
	@DEBUG_VALUE: ReceiveTask:aBuf <- $r4
	.loc	1 146 9 is_stmt 1               @ ../../../components/network/thread/subg_openthread/examples/apps/cli/cli_uart.cpp:146:9
	cmp	r0, #13
	beq	.LBB0_10
.Ltmp11:
@ %bb.7:                                @   in Loop: Header=BB0_2 Depth=1
	@DEBUG_VALUE: ReceiveTask:end <- $r11
	@DEBUG_VALUE: ReceiveTask:aBuf <- $r4
	cmp	r0, #127
	bne	.LBB0_15
.Ltmp12:
.LBB0_8:                                @   in Loop: Header=BB0_2 Depth=1
	@DEBUG_VALUE: ReceiveTask:end <- $r11
	@DEBUG_VALUE: ReceiveTask:aBuf <- $r4
	.loc	1 174 17                        @ ../../../components/network/thread/subg_openthread/examples/apps/cli/cli_uart.cpp:174:17
	ldrh	r0, [r7]
.Ltmp13:
	.loc	1 174 17 is_stmt 0              @ ../../../components/network/thread/subg_openthread/examples/apps/cli/cli_uart.cpp:174:17
	cbz	r0, .LBB0_17
.Ltmp14:
@ %bb.9:                                @   in Loop: Header=BB0_2 Depth=1
	@DEBUG_VALUE: ReceiveTask:end <- $r11
	@DEBUG_VALUE: ReceiveTask:aBuf <- $r4
	.loc	1 176 17 is_stmt 1              @ ../../../components/network/thread/subg_openthread/examples/apps/cli/cli_uart.cpp:176:17
	mov	r0, r8
	movs	r1, #3
.Ltmp15:
	@DEBUG_VALUE: otPlatUartReceived:aBufLength <- [DW_OP_LLVM_entry_value 1] $r1
	bl	_ZL6OutputPKct
.Ltmp16:
	.loc	1 177 27                        @ ../../../components/network/thread/subg_openthread/examples/apps/cli/cli_uart.cpp:177:27
	ldrh	r0, [r7]
	subs	r0, #1
	strh	r0, [r7]
	.loc	1 177 17 is_stmt 0              @ ../../../components/network/thread/subg_openthread/examples/apps/cli/cli_uart.cpp:177:17
	uxth	r0, r0
	.loc	1 177 40                        @ ../../../components/network/thread/subg_openthread/examples/apps/cli/cli_uart.cpp:177:40
	strb	r5, [r6, r0]
	b	.LBB0_17
.Ltmp17:
	.p2align	2
.LBB0_10:                               @   in Loop: Header=BB0_2 Depth=1
	@DEBUG_VALUE: ReceiveTask:end <- $r11
	@DEBUG_VALUE: ReceiveTask:aBuf <- $r4
	.loc	1 157 13 is_stmt 1              @ ../../../components/network/thread/subg_openthread/examples/apps/cli/cli_uart.cpp:157:13
	mov	r0, r9
	movs	r1, #2
.Ltmp18:
	@DEBUG_VALUE: otPlatUartReceived:aBufLength <- [DW_OP_LLVM_entry_value 1] $r1
	bl	_ZL6OutputPKct
.Ltmp19:
	.loc	1 158 23                        @ ../../../components/network/thread/subg_openthread/examples/apps/cli/cli_uart.cpp:158:23
	ldrh	r0, [r7]
	.loc	1 158 34 is_stmt 0              @ ../../../components/network/thread/subg_openthread/examples/apps/cli/cli_uart.cpp:158:34
	strb	r5, [r6, r0]
	@DEBUG_VALUE: ProcessCommand:error <- 0
	cbz	r0, .LBB0_14
.Ltmp20:
	.p2align	2
.LBB0_11:                               @   Parent Loop BB0_2 Depth=1
                                        @ =>  This Inner Loop Header: Depth=2
	@DEBUG_VALUE: ReceiveTask:end <- $r11
	@DEBUG_VALUE: ReceiveTask:aBuf <- $r4
	@DEBUG_VALUE: ProcessCommand:error <- 0
	.loc	1 200 30 is_stmt 1              @ ../../../components/network/thread/subg_openthread/examples/apps/cli/cli_uart.cpp:200:30
	adds	r1, r6, r0
	ldrb	r1, [r1, #-1]
	.loc	1 200 63 is_stmt 0              @ ../../../components/network/thread/subg_openthread/examples/apps/cli/cli_uart.cpp:200:63
	cmp	r1, #13
	beq	.LBB0_13
.Ltmp21:
@ %bb.12:                               @   in Loop: Header=BB0_11 Depth=2
	@DEBUG_VALUE: ReceiveTask:end <- $r11
	@DEBUG_VALUE: ReceiveTask:aBuf <- $r4
	@DEBUG_VALUE: ProcessCommand:error <- 0
	cmp	r1, #10
	bne	.LBB0_14
.Ltmp22:
.LBB0_13:                               @   in Loop: Header=BB0_11 Depth=2
	@DEBUG_VALUE: ReceiveTask:end <- $r11
	@DEBUG_VALUE: ReceiveTask:aBuf <- $r4
	@DEBUG_VALUE: ProcessCommand:error <- 0
	.loc	1 0 0                           @ ../../../components/network/thread/subg_openthread/examples/apps/cli/cli_uart.cpp:0:0
	subs	r0, #1
.Ltmp23:
	.loc	1 202 19 is_stmt 1              @ ../../../components/network/thread/subg_openthread/examples/apps/cli/cli_uart.cpp:202:19
	uxth	r1, r0
.Ltmp24:
	.loc	1 200 26                        @ ../../../components/network/thread/subg_openthread/examples/apps/cli/cli_uart.cpp:200:26
	cmp	r1, #0
.Ltmp25:
	.loc	1 202 19                        @ ../../../components/network/thread/subg_openthread/examples/apps/cli/cli_uart.cpp:202:19
	strh	r0, [r7]
	.loc	1 202 32 is_stmt 0              @ ../../../components/network/thread/subg_openthread/examples/apps/cli/cli_uart.cpp:202:32
	strb	r5, [r6, r1]
	bne	.LBB0_11
.Ltmp26:
.LBB0_14:                               @   in Loop: Header=BB0_2 Depth=1
	@DEBUG_VALUE: ReceiveTask:end <- $r11
	@DEBUG_VALUE: ReceiveTask:aBuf <- $r4
	@DEBUG_VALUE: ProcessCommand:error <- 0
	.loc	1 205 5 is_stmt 1               @ ../../../components/network/thread/subg_openthread/examples/apps/cli/cli_uart.cpp:205:5
	mov	r0, r6
	bl	otCliInputLine
.Ltmp27:
	.loc	1 206 15                        @ ../../../components/network/thread/subg_openthread/examples/apps/cli/cli_uart.cpp:206:15
	strh	r5, [r7]
	b	.LBB0_17
.Ltmp28:
	.p2align	2
.LBB0_15:                               @   in Loop: Header=BB0_2 Depth=1
	@DEBUG_VALUE: ReceiveTask:end <- $r11
	@DEBUG_VALUE: ReceiveTask:aBuf <- $r4
	.loc	1 183 17                        @ ../../../components/network/thread/subg_openthread/examples/apps/cli/cli_uart.cpp:183:17
	ldrh	r0, [r7]
.Ltmp29:
	.loc	1 183 17 is_stmt 0              @ ../../../components/network/thread/subg_openthread/examples/apps/cli/cli_uart.cpp:183:17
	movw	r1, #638
.Ltmp30:
	@DEBUG_VALUE: otPlatUartReceived:aBufLength <- [DW_OP_LLVM_entry_value 1] $r1
	cmp	r0, r1
	bhi	.LBB0_17
.Ltmp31:
@ %bb.16:                               @   in Loop: Header=BB0_2 Depth=1
	@DEBUG_VALUE: ReceiveTask:end <- $r11
	@DEBUG_VALUE: ReceiveTask:aBuf <- $r4
	.loc	1 185 17 is_stmt 1              @ ../../../components/network/thread/subg_openthread/examples/apps/cli/cli_uart.cpp:185:17
	mov	r0, r4
	movs	r1, #1
	bl	_ZL6OutputPKct
.Ltmp32:
	.loc	1 186 36                        @ ../../../components/network/thread/subg_openthread/examples/apps/cli/cli_uart.cpp:186:36
	ldrh	r0, [r7]
	.loc	1 186 60 is_stmt 0              @ ../../../components/network/thread/subg_openthread/examples/apps/cli/cli_uart.cpp:186:60
	ldrb	r1, [r4]
	.loc	1 186 36                        @ ../../../components/network/thread/subg_openthread/examples/apps/cli/cli_uart.cpp:186:36
	adds	r2, r0, #1
	strh	r2, [r7]
	.loc	1 186 40                        @ ../../../components/network/thread/subg_openthread/examples/apps/cli/cli_uart.cpp:186:40
	strb	r1, [r6, r0]
.Ltmp33:
	.p2align	2
.LBB0_17:                               @   in Loop: Header=BB0_2 Depth=1
	@DEBUG_VALUE: ReceiveTask:end <- $r11
	@DEBUG_VALUE: ReceiveTask:aBuf <- $r4
	.loc	1 192 21 is_stmt 1              @ ../../../components/network/thread/subg_openthread/examples/apps/cli/cli_uart.cpp:192:21
	ldrb	r0, [r4], #1
.Ltmp34:
	@DEBUG_VALUE: otPlatUartReceived:aBuf <- [DW_OP_LLVM_entry_value 1] $r0
	.loc	1 144 5                         @ ../../../components/network/thread/subg_openthread/examples/apps/cli/cli_uart.cpp:144:5
	cmp	r4, r11
.Ltmp35:
	.loc	1 192 19                        @ ../../../components/network/thread/subg_openthread/examples/apps/cli/cli_uart.cpp:192:19
	strb.w	r0, [r10]
.Ltmp36:
	@DEBUG_VALUE: ReceiveTask:aBuf <- $r4
	.loc	1 144 5                         @ ../../../components/network/thread/subg_openthread/examples/apps/cli/cli_uart.cpp:144:5
	blo	.LBB0_2
.Ltmp37:
.LBB0_18:
	.loc	1 371 100                       @ ../../../components/network/thread/subg_openthread/examples/apps/cli/cli_uart.cpp:371:100
	add	sp, #4
	pop.w	{r4, r5, r6, r7, r8, r9, r10, r11, pc}
.Ltmp38:
.Lfunc_end0:
	.size	otPlatUartReceived, .Lfunc_end0-otPlatUartReceived
	.cfi_endproc
	.cantunwind
	.fnend
                                        @ -- End function
	.section	.text.otPlatUartSendDone,"ax",%progbits
	.hidden	otPlatUartSendDone              @ -- Begin function otPlatUartSendDone
	.globl	otPlatUartSendDone
	.p2align	1
	.type	otPlatUartSendDone,%function
	.code	16                              @ @otPlatUartSendDone
	.thumb_func
otPlatUartSendDone:
.Lfunc_begin1:
	.loc	1 373 0                         @ ../../../components/network/thread/subg_openthread/examples/apps/cli/cli_uart.cpp:373:0
	.fnstart
	.cfi_startproc
@ %bb.0:
	.save	{r7, lr}
	push	{r7, lr}
	.cfi_def_cfa_offset 8
	.cfi_offset lr, -4
	.cfi_offset r7, -8
.Ltmp39:
	.loc	1 239 16 prologue_end           @ ../../../components/network/thread/subg_openthread/examples/apps/cli/cli_uart.cpp:239:16
	movw	lr, :lower16:sTxHead
	.loc	1 239 26 is_stmt 0              @ ../../../components/network/thread/subg_openthread/examples/apps/cli/cli_uart.cpp:239:26
	movw	r12, :lower16:sSendLength
	.loc	1 240 15 is_stmt 1              @ ../../../components/network/thread/subg_openthread/examples/apps/cli/cli_uart.cpp:240:15
	movw	r2, :lower16:sTxLength
	.loc	1 239 16                        @ ../../../components/network/thread/subg_openthread/examples/apps/cli/cli_uart.cpp:239:16
	movt	lr, :upper16:sTxHead
	.loc	1 239 26 is_stmt 0              @ ../../../components/network/thread/subg_openthread/examples/apps/cli/cli_uart.cpp:239:26
	movt	r12, :upper16:sSendLength
	.loc	1 240 15 is_stmt 1              @ ../../../components/network/thread/subg_openthread/examples/apps/cli/cli_uart.cpp:240:15
	movt	r2, :upper16:sTxLength
	.loc	1 239 16                        @ ../../../components/network/thread/subg_openthread/examples/apps/cli/cli_uart.cpp:239:16
	ldrh.w	r1, [lr]
	.loc	1 239 26 is_stmt 0              @ ../../../components/network/thread/subg_openthread/examples/apps/cli/cli_uart.cpp:239:26
	ldrh.w	r3, [r12]
	.loc	1 240 15 is_stmt 1              @ ../../../components/network/thread/subg_openthread/examples/apps/cli/cli_uart.cpp:240:15
	ldrh	r0, [r2]
	.loc	1 239 24                        @ ../../../components/network/thread/subg_openthread/examples/apps/cli/cli_uart.cpp:239:24
	add	r1, r3
	.loc	1 240 15                        @ ../../../components/network/thread/subg_openthread/examples/apps/cli/cli_uart.cpp:240:15
	subs	r0, r0, r3
	.loc	1 239 39                        @ ../../../components/network/thread/subg_openthread/examples/apps/cli/cli_uart.cpp:239:39
	uxtb	r1, r1
	.loc	1 240 15                        @ ../../../components/network/thread/subg_openthread/examples/apps/cli/cli_uart.cpp:240:15
	strh	r0, [r2]
	movs	r0, #0
	.loc	1 239 13                        @ ../../../components/network/thread/subg_openthread/examples/apps/cli/cli_uart.cpp:239:13
	strh.w	r1, [lr]
	.loc	1 241 17                        @ ../../../components/network/thread/subg_openthread/examples/apps/cli/cli_uart.cpp:241:17
	strh.w	r0, [r12]
	.loc	1 243 5                         @ ../../../components/network/thread/subg_openthread/examples/apps/cli/cli_uart.cpp:243:5
	pop.w	{r7, lr}
.Ltmp40:
	b	_ZL4Sendv
.Ltmp41:
.Lfunc_end1:
	.size	otPlatUartSendDone, .Lfunc_end1-otPlatUartSendDone
	.cfi_endproc
	.cantunwind
	.fnend
                                        @ -- End function
	.section	.text.otAppCliInit,"ax",%progbits
	.hidden	otAppCliInit                    @ -- Begin function otAppCliInit
	.globl	otAppCliInit
	.p2align	1
	.type	otAppCliInit,%function
	.code	16                              @ @otAppCliInit
	.thumb_func
otAppCliInit:
.Lfunc_begin2:
	.loc	1 376 0                         @ ../../../components/network/thread/subg_openthread/examples/apps/cli/cli_uart.cpp:376:0
	.fnstart
	.cfi_startproc
@ %bb.0:
	@DEBUG_VALUE: otAppCliInit:aInstance <- $r0
	.save	{r4, lr}
	push	{r4, lr}
	.cfi_def_cfa_offset 8
	.cfi_offset lr, -4
	.cfi_offset r4, -8
	mov	r4, r0
.Ltmp42:
	@DEBUG_VALUE: otAppCliInit:aInstance <- $r4
	@DEBUG_VALUE: otAppCliInit:aInstance <- $r4
	.loc	1 377 17 prologue_end           @ ../../../components/network/thread/subg_openthread/examples/apps/cli/cli_uart.cpp:377:17
	movw	r0, :lower16:sRxLength
	movt	r0, :upper16:sRxLength
	movs	r1, #0
	strh	r1, [r0]
	.loc	1 378 17                        @ ../../../components/network/thread/subg_openthread/examples/apps/cli/cli_uart.cpp:378:17
	movw	r0, :lower16:sTxHead
	movt	r0, :upper16:sTxHead
	strh	r1, [r0]
	.loc	1 379 17                        @ ../../../components/network/thread/subg_openthread/examples/apps/cli/cli_uart.cpp:379:17
	movw	r0, :lower16:sTxLength
	movt	r0, :upper16:sTxLength
	strh	r1, [r0]
	.loc	1 380 17                        @ ../../../components/network/thread/subg_openthread/examples/apps/cli/cli_uart.cpp:380:17
	movw	r0, :lower16:sSendLength
	movt	r0, :upper16:sSendLength
	strh	r1, [r0]
	.loc	1 382 17                        @ ../../../components/network/thread/subg_openthread/examples/apps/cli/cli_uart.cpp:382:17
	bl	otPlatUartEnable
.Ltmp43:
	.loc	1 384 5                         @ ../../../components/network/thread/subg_openthread/examples/apps/cli/cli_uart.cpp:384:5
	movw	r1, :lower16:_ZL13CliUartOutputPvPKcSt9__va_list
	movt	r1, :upper16:_ZL13CliUartOutputPvPKcSt9__va_list
	mov	r0, r4
	mov	r2, r4
	pop.w	{r4, lr}
.Ltmp44:
	@DEBUG_VALUE: otAppCliInit:aInstance <- [DW_OP_LLVM_entry_value 1] $r0
	b	otCliInit
.Ltmp45:
.Lfunc_end2:
	.size	otAppCliInit, .Lfunc_end2-otAppCliInit
	.cfi_endproc
	.file	10 "D:\\Rafael-IoT-SDK-Internal-main\\examples\\das_subg_thread\\keil" "../../../components/network/thread/subg_openthread/include\\openthread/cli.h"
	.cantunwind
	.fnend
                                        @ -- End function
	.section	.text._ZL13CliUartOutputPvPKcSt9__va_list,"ax",%progbits
	.p2align	2                               @ -- Begin function _ZL13CliUartOutputPvPKcSt9__va_list
	.type	_ZL13CliUartOutputPvPKcSt9__va_list,%function
	.code	16                              @ @_ZL13CliUartOutputPvPKcSt9__va_list
	.thumb_func
_ZL13CliUartOutputPvPKcSt9__va_list:
.Lfunc_begin3:
	.loc	1 298 0                         @ ../../../components/network/thread/subg_openthread/examples/apps/cli/cli_uart.cpp:298:0
	.fnstart
	.cfi_startproc
@ %bb.0:
	@DEBUG_VALUE: CliUartOutput:aContext <- $r0
	@DEBUG_VALUE: CliUartOutput:aFormat <- $r1
	.save	{r4, r5, r6, r7, r8, lr}
	push.w	{r4, r5, r6, r7, r8, lr}
	.cfi_def_cfa_offset 24
	.cfi_offset lr, -4
	.cfi_offset r8, -8
	.cfi_offset r7, -12
	.cfi_offset r6, -16
	.cfi_offset r5, -20
	.cfi_offset r4, -24
	.pad	#8
	sub	sp, #8
	.cfi_def_cfa_offset 32
.Ltmp46:
	.loc	1 303 9 prologue_end            @ ../../../components/network/thread/subg_openthread/examples/apps/cli/cli_uart.cpp:303:9
	movw	r7, :lower16:sTxLength
	movt	r7, :upper16:sTxLength
	ldrh	r0, [r7]
.Ltmp47:
	@DEBUG_VALUE: CliUartOutput:aContext <- [DW_OP_LLVM_entry_value 1] $r0
	.loc	1 0 9 is_stmt 0                 @ ../../../components/network/thread/subg_openthread/examples/apps/cli/cli_uart.cpp:0:9
	mov	r4, r1
.Ltmp48:
	@DEBUG_VALUE: CliUartOutput:aFormat <- $r4
	@DEBUG_VALUE: CliUartOutput:aFormat <- $r4
	str	r2, [sp, #4]
.Ltmp49:
	.loc	1 303 9                         @ ../../../components/network/thread/subg_openthread/examples/apps/cli/cli_uart.cpp:303:9
	cbz	r0, .LBB3_4
.Ltmp50:
@ %bb.1:
	@DEBUG_VALUE: CliUartOutput:aFormat <- $r4
	@DEBUG_VALUE: CliUartOutput:aContext <- [DW_OP_LLVM_entry_value 1] $r0
	.loc	1 314 31 is_stmt 1              @ ../../../components/network/thread/subg_openthread/examples/apps/cli/cli_uart.cpp:314:31
	movw	r8, :lower16:sTxHead
	movt	r8, :upper16:sTxHead
	ldrh.w	r1, [r8]
	.loc	1 319 27                        @ ../../../components/network/thread/subg_openthread/examples/apps/cli/cli_uart.cpp:319:27
	movw	r2, :lower16:sTxBuffer
	.loc	1 314 39                        @ ../../../components/network/thread/subg_openthread/examples/apps/cli/cli_uart.cpp:314:39
	add	r0, r1
	.loc	1 314 52 is_stmt 0              @ ../../../components/network/thread/subg_openthread/examples/apps/cli/cli_uart.cpp:314:52
	uxtb	r0, r0
.Ltmp51:
	@DEBUG_VALUE: tail <- $r0
	.loc	1 315 31 is_stmt 1              @ ../../../components/network/thread/subg_openthread/examples/apps/cli/cli_uart.cpp:315:31
	cmp	r1, r0
	it	ls
	movls.w	r1, #256
	subs	r1, r1, r0
.Ltmp52:
	@DEBUG_VALUE: remaining <- $r1
	.loc	1 317 9                         @ ../../../components/network/thread/subg_openthread/examples/apps/cli/cli_uart.cpp:317:9
	ldr	r3, [sp, #4]
	.loc	1 319 27                        @ ../../../components/network/thread/subg_openthread/examples/apps/cli/cli_uart.cpp:319:27
	movt	r2, :upper16:sTxBuffer
	.loc	1 319 44 is_stmt 0              @ ../../../components/network/thread/subg_openthread/examples/apps/cli/cli_uart.cpp:319:44
	uxth	r6, r1
	.loc	1 319 27                        @ ../../../components/network/thread/subg_openthread/examples/apps/cli/cli_uart.cpp:319:27
	add	r0, r2
.Ltmp53:
	.loc	1 319 16                        @ ../../../components/network/thread/subg_openthread/examples/apps/cli/cli_uart.cpp:319:16
	mov	r1, r6
.Ltmp54:
	mov	r2, r4
	.loc	1 317 9 is_stmt 1               @ ../../../components/network/thread/subg_openthread/examples/apps/cli/cli_uart.cpp:317:9
	str	r3, [sp]
	.loc	1 319 16                        @ ../../../components/network/thread/subg_openthread/examples/apps/cli/cli_uart.cpp:319:16
	bl	vsnprintf
.Ltmp55:
	mov	r5, r0
.Ltmp56:
	@DEBUG_VALUE: CliUartOutput:rval <- $r5
	.loc	1 321 13                        @ ../../../components/network/thread/subg_openthread/examples/apps/cli/cli_uart.cpp:321:13
	cmp.w	r0, #-1
	ble	.LBB3_6
.Ltmp57:
@ %bb.2:
	@DEBUG_VALUE: CliUartOutput:rval <- $r5
	@DEBUG_VALUE: CliUartOutput:aFormat <- $r4
	@DEBUG_VALUE: CliUartOutput:aContext <- [DW_OP_LLVM_entry_value 1] $r0
	.loc	1 325 18                        @ ../../../components/network/thread/subg_openthread/examples/apps/cli/cli_uart.cpp:325:18
	cmp	r5, r6
	bge	.LBB3_7
.Ltmp58:
@ %bb.3:
	@DEBUG_VALUE: CliUartOutput:rval <- $r5
	@DEBUG_VALUE: CliUartOutput:aFormat <- $r4
	@DEBUG_VALUE: CliUartOutput:aContext <- [DW_OP_LLVM_entry_value 1] $r0
	.loc	1 327 23                        @ ../../../components/network/thread/subg_openthread/examples/apps/cli/cli_uart.cpp:327:23
	ldrh	r0, [r7]
	add	r0, r5
	strh	r0, [r7]
	@DEBUG_VALUE: CliUartOutput:rval <- $r5
	b	.LBB3_15
.Ltmp59:
.LBB3_4:
	@DEBUG_VALUE: CliUartOutput:aFormat <- $r4
	@DEBUG_VALUE: CliUartOutput:aContext <- [DW_OP_LLVM_entry_value 1] $r0
	.loc	1 305 16                        @ ../../../components/network/thread/subg_openthread/examples/apps/cli/cli_uart.cpp:305:16
	movw	r0, :lower16:sTxBuffer
	mov	r3, r2
	movt	r0, :upper16:sTxBuffer
	mov.w	r1, #256
	mov	r2, r4
	bl	vsnprintf
.Ltmp60:
	mov	r5, r0
.Ltmp61:
	@DEBUG_VALUE: CliUartOutput:rval <- $r5
	.loc	1 306 9                         @ ../../../components/network/thread/subg_openthread/examples/apps/cli/cli_uart.cpp:306:9
	cmp.w	r0, #256
	bhs	.LBB3_12
.Ltmp62:
@ %bb.5:
	@DEBUG_VALUE: CliUartOutput:rval <- $r5
	@DEBUG_VALUE: CliUartOutput:aFormat <- $r4
	@DEBUG_VALUE: CliUartOutput:aContext <- [DW_OP_LLVM_entry_value 1] $r0
	.loc	1 307 21                        @ ../../../components/network/thread/subg_openthread/examples/apps/cli/cli_uart.cpp:307:21
	movw	r0, :lower16:sTxHead
	movt	r0, :upper16:sTxHead
	movs	r1, #0
	strh	r1, [r0]
	.loc	1 309 21                        @ ../../../components/network/thread/subg_openthread/examples/apps/cli/cli_uart.cpp:309:21
	movw	r0, :lower16:sSendLength
	movt	r0, :upper16:sSendLength
	.loc	1 308 21                        @ ../../../components/network/thread/subg_openthread/examples/apps/cli/cli_uart.cpp:308:21
	strh	r5, [r7]
	.loc	1 309 21                        @ ../../../components/network/thread/subg_openthread/examples/apps/cli/cli_uart.cpp:309:21
	strh	r1, [r0]
	b	.LBB3_15
.Ltmp63:
.LBB3_6:
	@DEBUG_VALUE: CliUartOutput:rval <- $r5
	@DEBUG_VALUE: CliUartOutput:aFormat <- $r4
	@DEBUG_VALUE: CliUartOutput:aContext <- [DW_OP_LLVM_entry_value 1] $r0
	.loc	1 323 13                        @ ../../../components/network/thread/subg_openthread/examples/apps/cli/cli_uart.cpp:323:13
	movw	r0, :lower16:.L.str
	movt	r0, :upper16:.L.str
	b	.LBB3_14
.Ltmp64:
.LBB3_7:
	@DEBUG_VALUE: CliUartOutput:rval <- $r5
	@DEBUG_VALUE: CliUartOutput:aFormat <- $r4
	@DEBUG_VALUE: CliUartOutput:aContext <- [DW_OP_LLVM_entry_value 1] $r0
	.loc	1 329 18                        @ ../../../components/network/thread/subg_openthread/examples/apps/cli/cli_uart.cpp:329:18
	cmp	r5, #255
	bgt	.LBB3_13
.Ltmp65:
@ %bb.8:
	@DEBUG_VALUE: CliUartOutput:rval <- $r5
	@DEBUG_VALUE: CliUartOutput:aFormat <- $r4
	@DEBUG_VALUE: CliUartOutput:aContext <- [DW_OP_LLVM_entry_value 1] $r0
	.loc	1 331 20                        @ ../../../components/network/thread/subg_openthread/examples/apps/cli/cli_uart.cpp:331:20
	ldrh	r0, [r7]
	movw	r6, :lower16:sSendLength
	movt	r6, :upper16:sSendLength
	.loc	1 331 13 is_stmt 0              @ ../../../components/network/thread/subg_openthread/examples/apps/cli/cli_uart.cpp:331:13
	cbz	r0, .LBB3_18
.Ltmp66:
@ %bb.9:
	@DEBUG_VALUE: CliUartOutput:rval <- $r5
	@DEBUG_VALUE: CliUartOutput:aFormat <- $r4
	@DEBUG_VALUE: CliUartOutput:aContext <- [DW_OP_LLVM_entry_value 1] $r0
	.loc	1 0 13                          @ ../../../components/network/thread/subg_openthread/examples/apps/cli/cli_uart.cpp:0:13
	movs	r5, #0
.Ltmp67:
	.p2align	2
.LBB3_10:                               @ =>This Inner Loop Header: Depth=1
	@DEBUG_VALUE: CliUartOutput:aFormat <- $r4
	@DEBUG_VALUE: CliUartOutput:aContext <- [DW_OP_LLVM_entry_value 1] $r0
	.loc	1 335 17 is_stmt 1              @ ../../../components/network/thread/subg_openthread/examples/apps/cli/cli_uart.cpp:335:17
	bl	_ZL4Sendv
.Ltmp68:
	.loc	1 337 25                        @ ../../../components/network/thread/subg_openthread/examples/apps/cli/cli_uart.cpp:337:25
	bl	otPlatUartFlush
.Ltmp69:
	@DEBUG_VALUE: error <- $r0
	.loc	1 339 21                        @ ../../../components/network/thread/subg_openthread/examples/apps/cli/cli_uart.cpp:339:21
	cbnz	r0, .LBB3_17
.Ltmp70:
@ %bb.11:                               @   in Loop: Header=BB3_10 Depth=1
	@DEBUG_VALUE: CliUartOutput:aFormat <- $r4
	@DEBUG_VALUE: error <- $r0
	@DEBUG_VALUE: CliUartOutput:aContext <- [DW_OP_LLVM_entry_value 1] $r0
	.loc	1 239 16                        @ ../../../components/network/thread/subg_openthread/examples/apps/cli/cli_uart.cpp:239:16
	ldrh.w	r0, [r8]
.Ltmp71:
	.loc	1 239 26 is_stmt 0              @ ../../../components/network/thread/subg_openthread/examples/apps/cli/cli_uart.cpp:239:26
	ldrh	r1, [r6]
	.loc	1 240 15 is_stmt 1              @ ../../../components/network/thread/subg_openthread/examples/apps/cli/cli_uart.cpp:240:15
	ldrh	r2, [r7]
	.loc	1 239 24                        @ ../../../components/network/thread/subg_openthread/examples/apps/cli/cli_uart.cpp:239:24
	add	r0, r1
	.loc	1 239 39 is_stmt 0              @ ../../../components/network/thread/subg_openthread/examples/apps/cli/cli_uart.cpp:239:39
	uxtb	r0, r0
	.loc	1 239 13                        @ ../../../components/network/thread/subg_openthread/examples/apps/cli/cli_uart.cpp:239:13
	strh.w	r0, [r8]
	.loc	1 240 15 is_stmt 1              @ ../../../components/network/thread/subg_openthread/examples/apps/cli/cli_uart.cpp:240:15
	subs	r0, r2, r1
	strh	r0, [r7]
	.loc	1 241 17                        @ ../../../components/network/thread/subg_openthread/examples/apps/cli/cli_uart.cpp:241:17
	strh	r5, [r6]
	.loc	1 243 5                         @ ../../../components/network/thread/subg_openthread/examples/apps/cli/cli_uart.cpp:243:5
	bl	_ZL4Sendv
.Ltmp72:
	.loc	1 331 20                        @ ../../../components/network/thread/subg_openthread/examples/apps/cli/cli_uart.cpp:331:20
	ldrh	r0, [r7]
	.loc	1 331 13 is_stmt 0              @ ../../../components/network/thread/subg_openthread/examples/apps/cli/cli_uart.cpp:331:13
	cmp	r0, #0
	bne	.LBB3_10
	b	.LBB3_18
.Ltmp73:
.LBB3_12:
	@DEBUG_VALUE: CliUartOutput:rval <- $r5
	@DEBUG_VALUE: CliUartOutput:aFormat <- $r4
	@DEBUG_VALUE: CliUartOutput:aContext <- [DW_OP_LLVM_entry_value 1] $r0
	.loc	1 306 9 is_stmt 1               @ ../../../components/network/thread/subg_openthread/examples/apps/cli/cli_uart.cpp:306:9
	movw	r0, :lower16:.L.str
	movt	r0, :upper16:.L.str
	mov	r1, r4
	bl	otLogWarnPlat
.Ltmp74:
	.loc	1 0 9 is_stmt 0                 @ ../../../components/network/thread/subg_openthread/examples/apps/cli/cli_uart.cpp:0:9
	b	.LBB3_16
.Ltmp75:
.LBB3_13:
	@DEBUG_VALUE: CliUartOutput:rval <- $r5
	@DEBUG_VALUE: CliUartOutput:aFormat <- $r4
	@DEBUG_VALUE: CliUartOutput:aContext <- [DW_OP_LLVM_entry_value 1] $r0
	.loc	1 359 13 is_stmt 1              @ ../../../components/network/thread/subg_openthread/examples/apps/cli/cli_uart.cpp:359:13
	adr	r0, .LCPI3_0
.Ltmp76:
.LBB3_14:
	@DEBUG_VALUE: CliUartOutput:rval <- $r5
	@DEBUG_VALUE: CliUartOutput:aFormat <- $r4
	@DEBUG_VALUE: CliUartOutput:aContext <- [DW_OP_LLVM_entry_value 1] $r0
	.loc	1 0 0 is_stmt 0                 @ ../../../components/network/thread/subg_openthread/examples/apps/cli/cli_uart.cpp:0:0
	mov	r1, r4
	bl	otLogWarnPlat
.Ltmp77:
	@DEBUG_VALUE: CliUartOutput:rval <- $r5
.LBB3_15:
	@DEBUG_VALUE: CliUartOutput:rval <- $r5
	@DEBUG_VALUE: CliUartOutput:aFormat <- $r4
	@DEBUG_VALUE: CliUartOutput:aContext <- [DW_OP_LLVM_entry_value 1] $r0
	@DEBUG_VALUE: CliUartOutput:rval <- $r5
	.loc	1 365 5 is_stmt 1               @ ../../../components/network/thread/subg_openthread/examples/apps/cli/cli_uart.cpp:365:5
	bl	_ZL4Sendv
.Ltmp78:
.LBB3_16:
	@DEBUG_VALUE: CliUartOutput:rval <- $r5
	@DEBUG_VALUE: CliUartOutput:aFormat <- $r4
	@DEBUG_VALUE: CliUartOutput:aContext <- [DW_OP_LLVM_entry_value 1] $r0
	@DEBUG_VALUE: CliUartOutput:rval <- $r5
	@DEBUG_LABEL: CliUartOutput:exit
	.loc	1 368 5                         @ ../../../components/network/thread/subg_openthread/examples/apps/cli/cli_uart.cpp:368:5
	mov	r0, r5
	add	sp, #8
	pop.w	{r4, r5, r6, r7, r8, pc}
.Ltmp79:
.LBB3_17:
	@DEBUG_VALUE: CliUartOutput:aFormat <- $r4
	@DEBUG_VALUE: error <- $r0
	@DEBUG_VALUE: CliUartOutput:aContext <- [DW_OP_LLVM_entry_value 1] $r0
	.loc	1 347 63                        @ ../../../components/network/thread/subg_openthread/examples/apps/cli/cli_uart.cpp:347:63
	bl	otThreadErrorToString
.Ltmp80:
	mov	r1, r0
	.loc	1 347 21 is_stmt 0              @ ../../../components/network/thread/subg_openthread/examples/apps/cli/cli_uart.cpp:347:21
	adr	r0, .LCPI3_1
	bl	otLogWarnPlat
.Ltmp81:
.LBB3_18:
	@DEBUG_VALUE: CliUartOutput:aFormat <- $r4
	@DEBUG_VALUE: CliUartOutput:aContext <- [DW_OP_LLVM_entry_value 1] $r0
	.loc	1 351 65 is_stmt 1              @ ../../../components/network/thread/subg_openthread/examples/apps/cli/cli_uart.cpp:351:65
	ldr	r3, [sp]
	.loc	1 351 20 is_stmt 0              @ ../../../components/network/thread/subg_openthread/examples/apps/cli/cli_uart.cpp:351:20
	movw	r0, :lower16:sTxBuffer
	movt	r0, :upper16:sTxBuffer
	mov.w	r1, #256
	mov	r2, r4
	bl	vsnprintf
.Ltmp82:
	@DEBUG_VALUE: CliUartOutput:rval <- $r0
	.loc	1 352 13 is_stmt 1              @ ../../../components/network/thread/subg_openthread/examples/apps/cli/cli_uart.cpp:352:13
	cmp	r0, #0
	ble	.LBB3_20
.Ltmp83:
@ %bb.19:
	@DEBUG_VALUE: CliUartOutput:aFormat <- $r4
	@DEBUG_VALUE: CliUartOutput:rval <- $r0
	@DEBUG_VALUE: CliUartOutput:aContext <- [DW_OP_LLVM_entry_value 1] $r0
	.loc	1 0 0 is_stmt 0                 @ ../../../components/network/thread/subg_openthread/examples/apps/cli/cli_uart.cpp:0:0
	mov	r5, r0
.Ltmp84:
	@DEBUG_VALUE: CliUartOutput:rval <- $r5
	.loc	1 353 25 is_stmt 1              @ ../../../components/network/thread/subg_openthread/examples/apps/cli/cli_uart.cpp:353:25
	strh	r0, [r7]
	movs	r0, #0
	.loc	1 354 25                        @ ../../../components/network/thread/subg_openthread/examples/apps/cli/cli_uart.cpp:354:25
	strh.w	r0, [r8]
	.loc	1 355 25                        @ ../../../components/network/thread/subg_openthread/examples/apps/cli/cli_uart.cpp:355:25
	strh	r0, [r6]
	@DEBUG_VALUE: CliUartOutput:rval <- $r5
	b	.LBB3_15
.Ltmp85:
.LBB3_20:
	@DEBUG_VALUE: CliUartOutput:aFormat <- $r4
	@DEBUG_VALUE: CliUartOutput:rval <- $r0
	@DEBUG_VALUE: CliUartOutput:aContext <- [DW_OP_LLVM_entry_value 1] $r0
	.loc	1 352 13                        @ ../../../components/network/thread/subg_openthread/examples/apps/cli/cli_uart.cpp:352:13
	movw	r0, :lower16:.L.str.2
.Ltmp86:
	movt	r0, :upper16:.L.str.2
	mov.w	r1, #352
	bl	otPlatAssertFail
.Ltmp87:
	.p2align	2
.LBB3_21:                               @ =>This Inner Loop Header: Depth=1
	@DEBUG_VALUE: CliUartOutput:aFormat <- $r4
	@DEBUG_VALUE: CliUartOutput:aContext <- [DW_OP_LLVM_entry_value 1] $r0
	b	.LBB3_21
.Ltmp88:
	.p2align	2
@ %bb.22:
	.loc	1 0 13 is_stmt 0                @ ../../../components/network/thread/subg_openthread/examples/apps/cli/cli_uart.cpp:0:13
.LCPI3_0:
.L.str.3:
	.asciz	"CLI output `%s` truncated\000\000"
.LCPI3_1:
.L.str.1:
	.asciz	"Failed to output CLI: %s\000\000\000"
.Lfunc_end3:
	.size	_ZL13CliUartOutputPvPKcSt9__va_list, .Lfunc_end3-_ZL13CliUartOutputPvPKcSt9__va_list
	.cfi_endproc
	.cantunwind
	.fnend
                                        @ -- End function
	.section	.text._ZL6OutputPKct,"ax",%progbits
	.p2align	1                               @ -- Begin function _ZL6OutputPKct
	.type	_ZL6OutputPKct,%function
	.code	16                              @ @_ZL6OutputPKct
	.thumb_func
_ZL6OutputPKct:
.Lfunc_begin4:
	.loc	1 247 0 is_stmt 1               @ ../../../components/network/thread/subg_openthread/examples/apps/cli/cli_uart.cpp:247:0
	.fnstart
	.cfi_startproc
@ %bb.0:
	@DEBUG_VALUE: Output:aBuf <- $r0
	@DEBUG_VALUE: Output:aBufLength <- $r1
	@DEBUG_VALUE: Output:aBufLength <- $r1
	.save	{r4, r5, r6, r7, r8, r9, r10, r11, lr}
	push.w	{r4, r5, r6, r7, r8, r9, r10, r11, lr}
	.cfi_def_cfa_offset 36
	.cfi_offset lr, -4
	.cfi_offset r11, -8
	.cfi_offset r10, -12
	.cfi_offset r9, -16
	.cfi_offset r8, -20
	.cfi_offset r7, -24
	.cfi_offset r6, -28
	.cfi_offset r5, -32
	.cfi_offset r4, -36
	.pad	#4
	sub	sp, #4
	.cfi_def_cfa_offset 40
.Ltmp89:
	.loc	1 251 5 prologue_end            @ ../../../components/network/thread/subg_openthread/examples/apps/cli/cli_uart.cpp:251:5
	cmp	r1, #0
.Ltmp90:
	@DEBUG_VALUE: Output:sent <- undef
	@DEBUG_VALUE: Output:aBuf <- $r0
	beq	.LBB4_9
.Ltmp91:
@ %bb.1:
	@DEBUG_VALUE: Output:aBufLength <- $r1
	@DEBUG_VALUE: Output:aBuf <- $r0
	.loc	1 0 5 is_stmt 0                 @ ../../../components/network/thread/subg_openthread/examples/apps/cli/cli_uart.cpp:0:5
	movw	r6, :lower16:sTxLength
	movw	r10, :lower16:sTxHead
	movw	r8, :lower16:sSendLength
	movw	r9, :lower16:sTxBuffer
	mov	r11, r1
.Ltmp92:
	@DEBUG_VALUE: Output:aBufLength <- $r11
	@DEBUG_VALUE: Output:aBufLength <- $r11
	mov	r5, r0
.Ltmp93:
	@DEBUG_VALUE: Output:aBuf <- $r5
	@DEBUG_VALUE: Output:aBuf <- $r5
	movt	r6, :upper16:sTxLength
	movt	r10, :upper16:sTxHead
	movt	r8, :upper16:sSendLength
	movt	r9, :upper16:sTxBuffer
.Ltmp94:
	.p2align	2
.LBB4_2:                                @ =>This Loop Header: Depth=1
                                        @     Child Loop BB4_4 Depth 2
	@DEBUG_VALUE: Output:aBufLength <- $r11
	@DEBUG_VALUE: Output:aBuf <- $r5
	@DEBUG_VALUE: Output:aBuf <- $r5
	@DEBUG_VALUE: Output:aBufLength <- $r11
	.loc	1 253 46 is_stmt 1              @ ../../../components/network/thread/subg_openthread/examples/apps/cli/cli_uart.cpp:253:46
	ldrh	r1, [r6]
.Ltmp95:
	.loc	1 257 24                        @ ../../../components/network/thread/subg_openthread/examples/apps/cli/cli_uart.cpp:257:24
	uxth.w	r3, r11
.Ltmp96:
	.loc	1 253 44                        @ ../../../components/network/thread/subg_openthread/examples/apps/cli/cli_uart.cpp:253:44
	rsb.w	r0, r1, #256
.Ltmp97:
	@DEBUG_VALUE: remaining <- $r0
	uxth	r2, r0
.Ltmp98:
	@DEBUG_VALUE: sendLength <- $r11
	.loc	1 257 13                        @ ../../../components/network/thread/subg_openthread/examples/apps/cli/cli_uart.cpp:257:13
	cmp	r3, r2
	it	ls
	movls	r0, r11
.Ltmp99:
	@DEBUG_VALUE: i <- 0
	@DEBUG_VALUE: sendLength <- $r0
	.loc	1 262 9                         @ ../../../components/network/thread/subg_openthread/examples/apps/cli/cli_uart.cpp:262:9
	lsls	r2, r0, #16
	beq	.LBB4_6
.Ltmp100:
@ %bb.3:                                @   in Loop: Header=BB4_2 Depth=1
	@DEBUG_VALUE: Output:aBufLength <- $r11
	@DEBUG_VALUE: Output:aBuf <- $r5
	@DEBUG_VALUE: sendLength <- $r0
	@DEBUG_VALUE: i <- 0
	.loc	1 0 9 is_stmt 0                 @ ../../../components/network/thread/subg_openthread/examples/apps/cli/cli_uart.cpp:0:9
	ldrh.w	r2, [r10]
	movs	r3, #0
.Ltmp101:
	.p2align	2
.LBB4_4:                                @   Parent Loop BB4_2 Depth=1
                                        @ =>  This Inner Loop Header: Depth=2
	@DEBUG_VALUE: Output:aBuf <- $r5
	@DEBUG_VALUE: sendLength <- $r0
	@DEBUG_VALUE: Output:aBuf <- $r5
	@DEBUG_VALUE: Output:aBufLength <- undef
	@DEBUG_VALUE: i <- $r3
	.loc	1 264 40 is_stmt 1              @ ../../../components/network/thread/subg_openthread/examples/apps/cli/cli_uart.cpp:264:40
	adds	r4, r1, r2
	.loc	1 265 31                        @ ../../../components/network/thread/subg_openthread/examples/apps/cli/cli_uart.cpp:265:31
	ldrb	r7, [r5], #1
.Ltmp102:
	@DEBUG_VALUE: Output:aBuf <- $r5
	.loc	1 264 53                        @ ../../../components/network/thread/subg_openthread/examples/apps/cli/cli_uart.cpp:264:53
	uxtb	r4, r4
.Ltmp103:
	@DEBUG_VALUE: tail <- $r4
	.loc	1 262 47                        @ ../../../components/network/thread/subg_openthread/examples/apps/cli/cli_uart.cpp:262:47
	adds	r3, #1
.Ltmp104:
	@DEBUG_VALUE: i <- $r3
	.loc	1 265 29                        @ ../../../components/network/thread/subg_openthread/examples/apps/cli/cli_uart.cpp:265:29
	strb.w	r7, [r9, r4]
.Ltmp105:
	@DEBUG_VALUE: Output:aBufLength <- [DW_OP_constu 1, DW_OP_minus, DW_OP_stack_value] undef
	.loc	1 262 47                        @ ../../../components/network/thread/subg_openthread/examples/apps/cli/cli_uart.cpp:262:47
	uxth	r7, r3
	.loc	1 262 32 is_stmt 0              @ ../../../components/network/thread/subg_openthread/examples/apps/cli/cli_uart.cpp:262:32
	uxth	r4, r0
.Ltmp106:
	.loc	1 267 22 is_stmt 1              @ ../../../components/network/thread/subg_openthread/examples/apps/cli/cli_uart.cpp:267:22
	adds	r1, #1
.Ltmp107:
	.loc	1 262 9                         @ ../../../components/network/thread/subg_openthread/examples/apps/cli/cli_uart.cpp:262:9
	cmp	r7, r4
.Ltmp108:
	.loc	1 267 22                        @ ../../../components/network/thread/subg_openthread/examples/apps/cli/cli_uart.cpp:267:22
	strh	r1, [r6]
.Ltmp109:
	.loc	1 262 9                         @ ../../../components/network/thread/subg_openthread/examples/apps/cli/cli_uart.cpp:262:9
	blo	.LBB4_4
.Ltmp110:
@ %bb.5:                                @   in Loop: Header=BB4_2 Depth=1
	@DEBUG_VALUE: Output:aBuf <- $r5
	@DEBUG_VALUE: i <- $r3
	@DEBUG_VALUE: sendLength <- $r0
	sub.w	r11, r11, r0
.Ltmp111:
	@DEBUG_VALUE: Output:aBufLength <- $r11
	.loc	1 270 9                         @ ../../../components/network/thread/subg_openthread/examples/apps/cli/cli_uart.cpp:270:9
	bl	_ZL4Sendv
.Ltmp112:
	@DEBUG_VALUE: Output:sent <- [DW_OP_LLVM_convert 32 7, DW_OP_LLVM_convert 16 7, DW_OP_stack_value] undef
	.loc	1 274 13                        @ ../../../components/network/thread/subg_openthread/examples/apps/cli/cli_uart.cpp:274:13
	lsls.w	r0, r11, #16
	bne	.LBB4_7
	b	.LBB4_9
.Ltmp113:
	.p2align	2
.LBB4_6:                                @   in Loop: Header=BB4_2 Depth=1
	@DEBUG_VALUE: Output:aBufLength <- $r11
	@DEBUG_VALUE: Output:aBuf <- $r5
	@DEBUG_VALUE: sendLength <- $r0
	.loc	1 270 9                         @ ../../../components/network/thread/subg_openthread/examples/apps/cli/cli_uart.cpp:270:9
	bl	_ZL4Sendv
.Ltmp114:
	@DEBUG_VALUE: Output:sent <- [DW_OP_LLVM_convert 32 7, DW_OP_LLVM_convert 16 7, DW_OP_stack_value] undef
.LBB4_7:                                @   in Loop: Header=BB4_2 Depth=1
	@DEBUG_VALUE: Output:aBufLength <- $r11
	@DEBUG_VALUE: Output:aBuf <- $r5
	.loc	1 277 27                        @ ../../../components/network/thread/subg_openthread/examples/apps/cli/cli_uart.cpp:277:27
	bl	otPlatUartFlush
.Ltmp115:
	@DEBUG_VALUE: err <- $r0
	.loc	1 279 17                        @ ../../../components/network/thread/subg_openthread/examples/apps/cli/cli_uart.cpp:279:17
	cbnz	r0, .LBB4_9
.Ltmp116:
@ %bb.8:                                @   in Loop: Header=BB4_2 Depth=1
	@DEBUG_VALUE: Output:aBufLength <- $r11
	@DEBUG_VALUE: Output:aBuf <- $r5
	@DEBUG_VALUE: err <- $r0
	.loc	1 239 16                        @ ../../../components/network/thread/subg_openthread/examples/apps/cli/cli_uart.cpp:239:16
	ldrh.w	r0, [r10]
.Ltmp117:
	.loc	1 239 26 is_stmt 0              @ ../../../components/network/thread/subg_openthread/examples/apps/cli/cli_uart.cpp:239:26
	ldrh.w	r1, [r8]
	.loc	1 240 15 is_stmt 1              @ ../../../components/network/thread/subg_openthread/examples/apps/cli/cli_uart.cpp:240:15
	ldrh	r2, [r6]
	.loc	1 239 24                        @ ../../../components/network/thread/subg_openthread/examples/apps/cli/cli_uart.cpp:239:24
	add	r0, r1
	.loc	1 239 39 is_stmt 0              @ ../../../components/network/thread/subg_openthread/examples/apps/cli/cli_uart.cpp:239:39
	uxtb	r0, r0
	.loc	1 239 13                        @ ../../../components/network/thread/subg_openthread/examples/apps/cli/cli_uart.cpp:239:13
	strh.w	r0, [r10]
	.loc	1 240 15 is_stmt 1              @ ../../../components/network/thread/subg_openthread/examples/apps/cli/cli_uart.cpp:240:15
	subs	r0, r2, r1
	strh	r0, [r6]
	.loc	1 241 17                        @ ../../../components/network/thread/subg_openthread/examples/apps/cli/cli_uart.cpp:241:17
	movs	r0, #0
	strh.w	r0, [r8]
	.loc	1 243 5                         @ ../../../components/network/thread/subg_openthread/examples/apps/cli/cli_uart.cpp:243:5
	bl	_ZL4Sendv
.Ltmp118:
	@DEBUG_VALUE: Output:sent <- undef
	.loc	1 0 5 is_stmt 0                 @ ../../../components/network/thread/subg_openthread/examples/apps/cli/cli_uart.cpp:0:5
	b	.LBB4_2
.Ltmp119:
.LBB4_9:
	@DEBUG_VALUE: Output:sent <- undef
	.loc	1 294 5 is_stmt 1               @ ../../../components/network/thread/subg_openthread/examples/apps/cli/cli_uart.cpp:294:5
	add	sp, #4
	pop.w	{r4, r5, r6, r7, r8, r9, r10, r11, pc}
.Ltmp120:
.Lfunc_end4:
	.size	_ZL6OutputPKct, .Lfunc_end4-_ZL6OutputPKct
	.cfi_endproc
	.cantunwind
	.fnend
                                        @ -- End function
	.section	.text._ZL4Sendv,"ax",%progbits
	.p2align	1                               @ -- Begin function _ZL4Sendv
	.type	_ZL4Sendv,%function
	.code	16                              @ @_ZL4Sendv
	.thumb_func
_ZL4Sendv:
.Lfunc_begin5:
	.loc	1 212 0                         @ ../../../components/network/thread/subg_openthread/examples/apps/cli/cli_uart.cpp:212:0
	.fnstart
	.cfi_startproc
@ %bb.0:
	.loc	1 213 5 prologue_end            @ ../../../components/network/thread/subg_openthread/examples/apps/cli/cli_uart.cpp:213:5
	movw	r0, :lower16:sSendLength
	movt	r0, :upper16:sSendLength
	ldrh	r1, [r0]
.Ltmp121:
	.loc	1 213 5 is_stmt 0               @ ../../../components/network/thread/subg_openthread/examples/apps/cli/cli_uart.cpp:213:5
	cbz	r1, .LBB5_2
.Ltmp122:
.LBB5_1:
	@DEBUG_LABEL: Send:exit
	.loc	1 234 5 is_stmt 1               @ ../../../components/network/thread/subg_openthread/examples/apps/cli/cli_uart.cpp:234:5
	bx	lr
.LBB5_2:
.Ltmp123:
	.loc	1 215 37                        @ ../../../components/network/thread/subg_openthread/examples/apps/cli/cli_uart.cpp:215:37
	movw	r2, :lower16:sTxHead
	.loc	1 215 9 is_stmt 0               @ ../../../components/network/thread/subg_openthread/examples/apps/cli/cli_uart.cpp:215:9
	movw	r1, :lower16:sTxLength
	.loc	1 215 37                        @ ../../../components/network/thread/subg_openthread/examples/apps/cli/cli_uart.cpp:215:37
	movt	r2, :upper16:sTxHead
	.loc	1 215 9                         @ ../../../components/network/thread/subg_openthread/examples/apps/cli/cli_uart.cpp:215:9
	movt	r1, :upper16:sTxLength
	.loc	1 215 37                        @ ../../../components/network/thread/subg_openthread/examples/apps/cli/cli_uart.cpp:215:37
	ldrh	r2, [r2]
	.loc	1 215 9                         @ ../../../components/network/thread/subg_openthread/examples/apps/cli/cli_uart.cpp:215:9
	ldrh	r1, [r1]
	.loc	1 215 35                        @ ../../../components/network/thread/subg_openthread/examples/apps/cli/cli_uart.cpp:215:35
	rsb.w	r3, r2, #256
.Ltmp124:
	.loc	1 215 9                         @ ../../../components/network/thread/subg_openthread/examples/apps/cli/cli_uart.cpp:215:9
	cmp	r3, r1
	it	lt
	movlt	r1, r3
	.loc	1 224 9 is_stmt 1               @ ../../../components/network/thread/subg_openthread/examples/apps/cli/cli_uart.cpp:224:9
	lsls	r3, r1, #16
.Ltmp125:
	.loc	1 0 0 is_stmt 0                 @ ../../../components/network/thread/subg_openthread/examples/apps/cli/cli_uart.cpp:0:0
	strh	r1, [r0]
.Ltmp126:
	.loc	1 224 9                         @ ../../../components/network/thread/subg_openthread/examples/apps/cli/cli_uart.cpp:224:9
	beq	.LBB5_1
@ %bb.3:
.Ltmp127:
	.loc	1 230 74 is_stmt 1              @ ../../../components/network/thread/subg_openthread/examples/apps/cli/cli_uart.cpp:230:74
	movw	r0, :lower16:sTxBuffer
	movt	r0, :upper16:sTxBuffer
	add	r0, r2
	.loc	1 230 21 is_stmt 0              @ ../../../components/network/thread/subg_openthread/examples/apps/cli/cli_uart.cpp:230:21
	uxth	r1, r1
.Ltmp128:
	b	otPlatUartSend
.Ltmp129:
.Lfunc_end5:
	.size	_ZL4Sendv, .Lfunc_end5-_ZL4Sendv
	.cfi_endproc
	.file	11 "D:\\Rafael-IoT-SDK-Internal-main\\examples\\das_subg_thread\\keil" "../../../components/network/thread/subg_openthread/examples/platforms\\utils/uart.h"
	.cantunwind
	.fnend
                                        @ -- End function
	.hidden	sRxBuffer                       @ @sRxBuffer
	.type	sRxBuffer,%object
	.section	.bss.sRxBuffer,"aw",%nobits
	.globl	sRxBuffer
sRxBuffer:
	.zero	640
	.size	sRxBuffer, 640

	.hidden	sRxLength                       @ @sRxLength
	.type	sRxLength,%object
	.section	.bss.sRxLength,"aw",%nobits
	.globl	sRxLength
	.p2align	1
sRxLength:
	.short	0                               @ 0x0
	.size	sRxLength, 2

	.hidden	sTxBuffer                       @ @sTxBuffer
	.type	sTxBuffer,%object
	.section	.bss.sTxBuffer,"aw",%nobits
	.globl	sTxBuffer
sTxBuffer:
	.zero	256
	.size	sTxBuffer, 256

	.hidden	sTxHead                         @ @sTxHead
	.type	sTxHead,%object
	.section	.bss.sTxHead,"aw",%nobits
	.globl	sTxHead
	.p2align	1
sTxHead:
	.short	0                               @ 0x0
	.size	sTxHead, 2

	.hidden	sTxLength                       @ @sTxLength
	.type	sTxLength,%object
	.section	.bss.sTxLength,"aw",%nobits
	.globl	sTxLength
	.p2align	1
sTxLength:
	.short	0                               @ 0x0
	.size	sTxLength, 2

	.hidden	sSendLength                     @ @sSendLength
	.type	sSendLength,%object
	.section	.bss.sSendLength,"aw",%nobits
	.globl	sSendLength
	.p2align	1
sSendLength:
	.short	0                               @ 0x0
	.size	sSendLength, 2

	.type	_ZZL11ReceiveTaskPKhtE12sEraseString,%object @ @_ZZL11ReceiveTaskPKhtE12sEraseString
	.section	.rodata._ZZL11ReceiveTaskPKhtE12sEraseString,"a",%progbits
_ZZL11ReceiveTaskPKhtE12sEraseString:
	.ascii	"\b \b"
	.size	_ZZL11ReceiveTaskPKhtE12sEraseString, 3

	.type	_ZZL11ReceiveTaskPKhtE4CRNL,%object @ @_ZZL11ReceiveTaskPKhtE4CRNL
	.section	.rodata._ZZL11ReceiveTaskPKhtE4CRNL,"a",%progbits
_ZZL11ReceiveTaskPKhtE4CRNL:
	.ascii	"\r\n"
	.size	_ZZL11ReceiveTaskPKhtE4CRNL, 2

	.type	_ZZL11ReceiveTaskPKhtE9sLastChar,%object @ @_ZZL11ReceiveTaskPKhtE9sLastChar
	.section	.bss._ZZL11ReceiveTaskPKhtE9sLastChar,"aw",%nobits
_ZZL11ReceiveTaskPKhtE9sLastChar:
	.byte	0                               @ 0x0
	.size	_ZZL11ReceiveTaskPKhtE9sLastChar, 1

	.type	.L.str,%object                  @ @.str
	.section	.rodata.str1.1,"aMS",%progbits,1
.L.str:
	.asciz	"Failed to format CLI output `%s`"
	.size	.L.str, 33

	.type	.L.str.2,%object                @ @.str.2
.L.str.2:
	.asciz	"../../../components/network/thread/subg_openthread/examples/apps/cli/cli_uart.cpp"
	.size	.L.str.2, 82

	.file	12 "D:\\Rafael-IoT-SDK-Internal-main\\examples\\das_subg_thread\\keil" "../../../components/network/thread/subg_openthread/include\\openthread/instance.h"
	.section	".note.GNU-stack","",%progbits
	.eabi_attribute	30, 3	@ Tag_ABI_optimization_goals
	.ARM_attribute	16, 1	@ Tag_AV_eba