	.text
	.syntax unified
	.eabi_attribute	67, "2.09"	@ Tag_conformance
	.cpu	cortex-m3
	.eabi_attribute	6, 10	@ Tag_CPU_arch
	.eabi_attribute	7, 77	@ Tag_CPU_arch_profile
	.eabi_attribute	8, 0	@ Tag_ARM_ISA_use
	.eabi_attribute	9, 2	@ Tag_THUMB_ISA_use
	.eabi_attribute	34, 1	@ Tag_CPU_unaligned_access
	.eabi_attribute	17, 1	@ Tag_ABI_PCS_GOT_use
	.eabi_attribute	20, 2	@ Tag_ABI_FP_denormal
	.eabi_attribute	21, 0	@ Tag_ABI_FP_exceptions
	.eabi_attribute	23, 1	@ Tag_ABI_FP_number_model
	.eabi_attribute	24, 1	@ Tag_ABI_align_needed
	.eabi_attribute	25, 1	@ Tag_ABI_align_preserved
	.eabi_attribute	38, 1	@ Tag_ABI_FP_16bit_format
	.eabi_attribute	18, 4	@ Tag_ABI_PCS_wchar_t
	.eabi_attribute	26, 2	@ Tag_ABI_enum_size
	.eabi_attribute	14, 0	@ Tag_ABI_PCS_R9_use
	.file	"cmac.c"
	.file	1 "D:\\Rafael-IoT-SDK-Internal-main\\examples\\das_subg_thread\\keil" "../../../components/network/thread/subg_openthread/third_party/mbedtls/repo/include\\mbedtls/cipher.h"
	.section	.text.mbedtls_cipher_cmac_starts,"ax",%progbits
	.hidden	mbedtls_cipher_cmac_starts      @ -- Begin function mbedtls_cipher_cmac_starts
	.globl	mbedtls_cipher_cmac_starts
	.p2align	1
	.type	mbedtls_cipher_cmac_starts,%function
	.code	16                              @ @mbedtls_cipher_cmac_starts
	.thumb_func
mbedtls_cipher_cmac_starts:
.Lfunc_begin0:
	.file	2 "D:\\Rafael-IoT-SDK-Internal-main\\examples\\das_subg_thread\\keil" "../../../components/network/thread/subg_openthread/third_party/mbedtls/repo/library/cmac.c"
	.loc	2 187 0                         @ ../../../components/network/thread/subg_openthread/third_party/mbedtls/repo/library/cmac.c:187:0
	.fnstart
	.cfi_sections .debug_frame
	.cfi_startproc
@ %bb.0:
	@DEBUG_VALUE: mbedtls_cipher_cmac_starts:ctx <- $r0
	@DEBUG_VALUE: mbedtls_cipher_cmac_starts:key <- $r1
	@DEBUG_VALUE: mbedtls_cipher_cmac_starts:keybits <- $r2
	@DEBUG_VALUE: mbedtls_cipher_cmac_starts:keybits <- $r2
	@DEBUG_VALUE: mbedtls_cipher_cmac_starts:key <- $r1
	@DEBUG_VALUE: mbedtls_cipher_cmac_starts:ctx <- $r0
	.save	{r4, r5, r7, lr}
	push	{r4, r5, r7, lr}
	.cfi_def_cfa_offset 16
	.cfi_offset lr, -4
	.cfi_offset r7, -8
	.cfi_offset r5, -12
	.cfi_offset r4, -16
	movw	r5, #40704
	movt	r5, #65535
.Ltmp0:
	.loc	2 192 21 prologue_end           @ ../../../components/network/thread/subg_openthread/third_party/mbedtls/repo/library/cmac.c:192:21
	cbz	r0, .LBB0_5
.Ltmp1:
@ %bb.1:
	@DEBUG_VALUE: mbedtls_cipher_cmac_starts:keybits <- $r2
	@DEBUG_VALUE: mbedtls_cipher_cmac_starts:key <- $r1
	@DEBUG_VALUE: mbedtls_cipher_cmac_starts:ctx <- $r0
	@DEBUG_VALUE: mbedtls_cipher_cmac_starts:ctx <- $r0
	.loc	2 192 49 is_stmt 0              @ ../../../components/network/thread/subg_openthread/third_party/mbedtls/repo/library/cmac.c:192:49
	cbz	r1, .LBB0_5
.Ltmp2:
@ %bb.2:
	@DEBUG_VALUE: mbedtls_cipher_cmac_starts:keybits <- $r2
	@DEBUG_VALUE: mbedtls_cipher_cmac_starts:key <- $r1
	@DEBUG_VALUE: mbedtls_cipher_cmac_starts:ctx <- $r0
	.loc	2 0 49                          @ ../../../components/network/thread/subg_openthread/third_party/mbedtls/repo/library/cmac.c:0:49
	mov	r4, r0
.Ltmp3:
	@DEBUG_VALUE: mbedtls_cipher_cmac_starts:ctx <- $r4
	ldr	r0, [r0]
	.loc	2 192 49                        @ ../../../components/network/thread/subg_openthread/third_party/mbedtls/repo/library/cmac.c:192:49
	cbz	r0, .LBB0_5
.Ltmp4:
@ %bb.3:
	@DEBUG_VALUE: mbedtls_cipher_cmac_starts:ctx <- $r4
	@DEBUG_VALUE: mbedtls_cipher_cmac_starts:keybits <- $r2
	@DEBUG_VALUE: mbedtls_cipher_cmac_starts:key <- $r1
	.loc	2 195 20 is_stmt 1              @ ../../../components/network/thread/subg_openthread/third_party/mbedtls/repo/library/cmac.c:195:20
	mov	r0, r4
	movs	r3, #1
	bl	mbedtls_cipher_setkey
.Ltmp5:
	@DEBUG_VALUE: mbedtls_cipher_cmac_starts:keybits <- [DW_OP_LLVM_entry_value 1] $r2
	@DEBUG_VALUE: mbedtls_cipher_cmac_starts:key <- [DW_OP_LLVM_entry_value 1] $r1
	@DEBUG_VALUE: mbedtls_cipher_cmac_starts:retval <- $r0
	.loc	2 195 9 is_stmt 0               @ ../../../components/network/thread/subg_openthread/third_party/mbedtls/repo/library/cmac.c:195:9
	cbz	r0, .LBB0_6
.Ltmp6:
.LBB0_4:
	@DEBUG_VALUE: mbedtls_cipher_cmac_starts:ctx <- $r4
	@DEBUG_VALUE: mbedtls_cipher_cmac_starts:keybits <- [DW_OP_LLVM_entry_value 1] $r2
	@DEBUG_VALUE: mbedtls_cipher_cmac_starts:key <- [DW_OP_LLVM_entry_value 1] $r1
	.loc	2 223 1 is_stmt 1               @ ../../../components/network/thread/subg_openthread/third_party/mbedtls/repo/library/cmac.c:223:1
	pop	{r4, r5, r7, pc}
.Ltmp7:
.LBB0_5:
	@DEBUG_VALUE: mbedtls_cipher_cmac_starts:keybits <- $r2
	@DEBUG_VALUE: mbedtls_cipher_cmac_starts:key <- $r1
	.loc	2 0 0 is_stmt 0                 @ ../../../components/network/thread/subg_openthread/third_party/mbedtls/repo/library/cmac.c:0:0
	mov	r0, r5
	.loc	2 223 1                         @ ../../../components/network/thread/subg_openthread/third_party/mbedtls/repo/library/cmac.c:223:1
	pop	{r4, r5, r7, pc}
.Ltmp8:
.LBB0_6:
	@DEBUG_VALUE: mbedtls_cipher_cmac_starts:ctx <- $r4
	@DEBUG_VALUE: mbedtls_cipher_cmac_starts:retval <- $r0
	@DEBUG_VALUE: mbedtls_cipher_cmac_starts:keybits <- [DW_OP_LLVM_entry_value 1] $r2
	@DEBUG_VALUE: mbedtls_cipher_cmac_starts:key <- [DW_OP_LLVM_entry_value 1] $r1
	.loc	2 199 17 is_stmt 1              @ ../../../components/network/thread/subg_openthread/third_party/mbedtls/repo/library/cmac.c:199:17
	ldr	r0, [r4]
.Ltmp9:
	.loc	2 199 30 is_stmt 0              @ ../../../components/network/thread/subg_openthread/third_party/mbedtls/repo/library/cmac.c:199:30
	ldr	r0, [r0]
.Ltmp10:
	@DEBUG_VALUE: mbedtls_cipher_cmac_starts:type <- $r0
	.loc	2 201 5 is_stmt 1               @ ../../../components/network/thread/subg_openthread/third_party/mbedtls/repo/library/cmac.c:201:5
	subs	r1, r0, #2
	cmp	r1, #3
	blo	.LBB0_8
.Ltmp11:
@ %bb.7:
	@DEBUG_VALUE: mbedtls_cipher_cmac_starts:ctx <- $r4
	@DEBUG_VALUE: mbedtls_cipher_cmac_starts:type <- $r0
	@DEBUG_VALUE: mbedtls_cipher_cmac_starts:keybits <- [DW_OP_LLVM_entry_value 1] $r2
	@DEBUG_VALUE: mbedtls_cipher_cmac_starts:key <- [DW_OP_LLVM_entry_value 1] $r1
	cmp	r0, #36
	.loc	2 0 0 is_stmt 0                 @ ../../../components/network/thread/subg_openthread/third_party/mbedtls/repo/library/cmac.c:0:0
	mov	r0, r5
.Ltmp12:
	.loc	2 201 5                         @ ../../../components/network/thread/subg_openthread/third_party/mbedtls/repo/library/cmac.c:201:5
	bne	.LBB0_4
.Ltmp13:
.LBB0_8:
	@DEBUG_VALUE: mbedtls_cipher_cmac_starts:ctx <- $r4
	@DEBUG_VALUE: mbedtls_cipher_cmac_starts:keybits <- [DW_OP_LLVM_entry_value 1] $r2
	@DEBUG_VALUE: mbedtls_cipher_cmac_starts:key <- [DW_OP_LLVM_entry_value 1] $r1
	.loc	2 214 16 is_stmt 1              @ ../../../components/network/thread/subg_openthread/third_party/mbedtls/repo/library/cmac.c:214:16
	movs	r0, #1
	movs	r1, #36
	bl	mbedtls_calloc
.Ltmp14:
	@DEBUG_VALUE: mbedtls_cipher_cmac_starts:cmac_ctx <- $r0
	.loc	2 215 9                         @ ../../../components/network/thread/subg_openthread/third_party/mbedtls/repo/library/cmac.c:215:9
	cbz	r0, .LBB0_10
.Ltmp15:
@ %bb.9:
	@DEBUG_VALUE: mbedtls_cipher_cmac_starts:ctx <- $r4
	@DEBUG_VALUE: mbedtls_cipher_cmac_starts:cmac_ctx <- $r0
	@DEBUG_VALUE: mbedtls_cipher_cmac_starts:keybits <- [DW_OP_LLVM_entry_value 1] $r2
	@DEBUG_VALUE: mbedtls_cipher_cmac_starts:key <- [DW_OP_LLVM_entry_value 1] $r1
	@DEBUG_VALUE: mbedtls_cipher_cmac_starts:cmac_ctx <- $r0
	.loc	2 220 5                         @ ../../../components/network/thread/subg_openthread/third_party/mbedtls/repo/library/cmac.c:220:5
	movs	r1, #16
	.loc	2 218 19                        @ ../../../components/network/thread/subg_openthread/third_party/mbedtls/repo/library/cmac.c:218:19
	str	r0, [r4, #56]
	.loc	2 220 5                         @ ../../../components/network/thread/subg_openthread/third_party/mbedtls/repo/library/cmac.c:220:5
	bl	mbedtls_platform_zeroize
.Ltmp16:
	.loc	2 0 5 is_stmt 0                 @ ../../../components/network/thread/subg_openthread/third_party/mbedtls/repo/library/cmac.c:0:5
	movs	r0, #0
	.loc	2 223 1 is_stmt 1               @ ../../../components/network/thread/subg_openthread/third_party/mbedtls/repo/library/cmac.c:223:1
	pop	{r4, r5, r7, pc}
.Ltmp17:
.LBB0_10:
	@DEBUG_VALUE: mbedtls_cipher_cmac_starts:ctx <- $r4
	@DEBUG_VALUE: mbedtls_cipher_cmac_starts:cmac_ctx <- $r0
	@DEBUG_VALUE: mbedtls_cipher_cmac_starts:keybits <- [DW_OP_LLVM_entry_value 1] $r2
	@DEBUG_VALUE: mbedtls_cipher_cmac_starts:key <- [DW_OP_LLVM_entry_value 1] $r1
	.loc	2 0 1 is_stmt 0                 @ ../../../components/network/thread/subg_openthread/third_party/mbedtls/repo/library/cmac.c:0:1
	sub.w	r0, r5, #128
.Ltmp18:
	.loc	2 223 1                         @ ../../../components/network/thread/subg_openthread/third_party/mbedtls/repo/library/cmac.c:223:1
	pop	{r4, r5, r7, pc}
.Ltmp19:
.Lfunc_end0:
	.size	mbedtls_cipher_cmac_starts, .Lfunc_end0-mbedtls_cipher_cmac_starts
	.cfi_endproc
	.cantunwind
	.fnend
                                        @ -- End function
	.section	.text.mbedtls_cipher_cmac_update,"ax",%progbits
	.hidden	mbedtls_cipher_cmac_update      @ -- Begin function mbedtls_cipher_cmac_update
	.globl	mbedtls_cipher_cmac_update
	.p2align	1
	.type	mbedtls_cipher_cmac_update,%function
	.code	16                              @ @mbedtls_cipher_cmac_update
	.thumb_func
mbedtls_cipher_cmac_update:
.Lfunc_begin1:
	.loc	2 227 0 is_stmt 1               @ ../../../components/network/thread/subg_openthread/third_party/mbedtls/repo/library/cmac.c:227:0
	.fnstart
	.cfi_startproc
@ %bb.0:
	@DEBUG_VALUE: mbedtls_cipher_cmac_update:ctx <- $r0
	@DEBUG_VALUE: mbedtls_cipher_cmac_update:input <- $r1
	@DEBUG_VALUE: mbedtls_cipher_cmac_update:ilen <- $r2
	.save	{r4, r5, r6, r7, r8, r9, r10, r11, lr}
	push.w	{r4, r5, r6, r7, r8, r9, r10, r11, lr}
	.cfi_def_cfa_offset 36
	.cfi_offset lr, -4
	.cfi_offset r11, -8
	.cfi_offset r10, -12
	.cfi_offset r9, -16
	.cfi_offset r8, -20
	.cfi_offset r7, -24
	.cfi_offset r6, -28
	.cfi_offset r5, -32
	.cfi_offset r4, -36
	.pad	#12
	sub	sp, #12
	.cfi_def_cfa_offset 48
	mov	r8, r0
	@DEBUG_VALUE: mbedtls_cipher_cmac_update:ilen <- $r2
	@DEBUG_VALUE: mbedtls_cipher_cmac_update:input <- $r1
.Ltmp20:
	@DEBUG_VALUE: mbedtls_cipher_cmac_update:ctx <- $r8
	.loc	2 233 21 prologue_end           @ ../../../components/network/thread/subg_openthread/third_party/mbedtls/repo/library/cmac.c:233:21
	cmp	r0, #0
	movw	r0, #40704
	movt	r0, #65535
.Ltmp21:
	@DEBUG_VALUE: mbedtls_cipher_cmac_update:ret <- 0
	beq	.LBB1_21
.Ltmp22:
@ %bb.1:
	@DEBUG_VALUE: mbedtls_cipher_cmac_update:ctx <- $r8
	@DEBUG_VALUE: mbedtls_cipher_cmac_update:ilen <- $r2
	@DEBUG_VALUE: mbedtls_cipher_cmac_update:input <- $r1
	@DEBUG_VALUE: mbedtls_cipher_cmac_update:ret <- 0
	@DEBUG_VALUE: mbedtls_cipher_cmac_update:ilen <- $r2
	.loc	2 0 21 is_stmt 0                @ ../../../components/network/thread/subg_openthread/third_party/mbedtls/repo/library/cmac.c:0:21
	mov	r5, r1
.Ltmp23:
	@DEBUG_VALUE: mbedtls_cipher_cmac_update:input <- $r5
	.loc	2 233 49                        @ ../../../components/network/thread/subg_openthread/third_party/mbedtls/repo/library/cmac.c:233:49
	cmp	r1, #0
	beq	.LBB1_21
.Ltmp24:
@ %bb.2:
	@DEBUG_VALUE: mbedtls_cipher_cmac_update:ctx <- $r8
	@DEBUG_VALUE: mbedtls_cipher_cmac_update:input <- $r5
	@DEBUG_VALUE: mbedtls_cipher_cmac_update:ilen <- $r2
	@DEBUG_VALUE: mbedtls_cipher_cmac_update:ret <- 0
	@DEBUG_VALUE: mbedtls_cipher_cmac_update:ilen <- $r2
	.loc	2 0 0                           @ ../../../components/network/thread/subg_openthread/third_party/mbedtls/repo/library/cmac.c:0:0
	ldr.w	r1, [r8]
	.loc	2 233 49                        @ ../../../components/network/thread/subg_openthread/third_party/mbedtls/repo/library/cmac.c:233:49
	cmp	r1, #0
	beq	.LBB1_21
.Ltmp25:
@ %bb.3:
	@DEBUG_VALUE: mbedtls_cipher_cmac_update:ctx <- $r8
	@DEBUG_VALUE: mbedtls_cipher_cmac_update:input <- $r5
	@DEBUG_VALUE: mbedtls_cipher_cmac_update:ilen <- $r2
	@DEBUG_VALUE: mbedtls_cipher_cmac_update:ret <- 0
	@DEBUG_VALUE: mbedtls_cipher_cmac_update:ilen <- $r2
	.loc	2 234 14 is_stmt 1              @ ../../../components/network/thread/subg_openthread/third_party/mbedtls/repo/library/cmac.c:234:14
	ldr.w	r6, [r8, #56]
.Ltmp26:
	.loc	2 233 9                         @ ../../../components/network/thread/subg_openthread/third_party/mbedtls/repo/library/cmac.c:233:9
	cmp	r6, #0
	beq	.LBB1_21
.Ltmp27:
@ %bb.4:
	@DEBUG_VALUE: mbedtls_cipher_cmac_update:ctx <- $r8
	@DEBUG_VALUE: mbedtls_cipher_cmac_update:input <- $r5
	@DEBUG_VALUE: mbedtls_cipher_cmac_update:ilen <- $r2
	@DEBUG_VALUE: mbedtls_cipher_cmac_update:ret <- 0
	.loc	2 243 19                        @ ../../../components/network/thread/subg_openthread/third_party/mbedtls/repo/library/cmac.c:243:19
	ldr	r0, [r6, #32]
.Ltmp28:
	.loc	2 238 36                        @ ../../../components/network/thread/subg_openthread/third_party/mbedtls/repo/library/cmac.c:238:36
	ldr	r7, [r1, #24]
.Ltmp29:
	@DEBUG_VALUE: mbedtls_cipher_cmac_update:state <- $r6
	@DEBUG_VALUE: mbedtls_cipher_cmac_update:block_size <- $r7
	.loc	2 0 36 is_stmt 0                @ ../../../components/network/thread/subg_openthread/third_party/mbedtls/repo/library/cmac.c:0:36
	mov	r10, r2
.Ltmp30:
	@DEBUG_VALUE: mbedtls_cipher_cmac_update:ilen <- $r10
	@DEBUG_VALUE: mbedtls_cipher_cmac_update:ilen <- $r10
	@DEBUG_VALUE: mbedtls_cipher_cmac_update:cmac_ctx <- $r6
	.loc	2 243 39 is_stmt 1              @ ../../../components/network/thread/subg_openthread/third_party/mbedtls/repo/library/cmac.c:243:39
	cbz	r0, .LBB1_11
.Ltmp31:
@ %bb.5:
	@DEBUG_VALUE: mbedtls_cipher_cmac_update:ilen <- $r10
	@DEBUG_VALUE: mbedtls_cipher_cmac_update:ctx <- $r8
	@DEBUG_VALUE: mbedtls_cipher_cmac_update:block_size <- $r7
	@DEBUG_VALUE: mbedtls_cipher_cmac_update:cmac_ctx <- $r6
	@DEBUG_VALUE: mbedtls_cipher_cmac_update:state <- $r6
	@DEBUG_VALUE: mbedtls_cipher_cmac_update:input <- $r5
	@DEBUG_VALUE: mbedtls_cipher_cmac_update:ret <- 0
	.loc	2 0 39 is_stmt 0                @ ../../../components/network/thread/subg_openthread/third_party/mbedtls/repo/library/cmac.c:0:39
	subs	r2, r7, r0
	.loc	2 243 39                        @ ../../../components/network/thread/subg_openthread/third_party/mbedtls/repo/library/cmac.c:243:39
	cmp	r2, r10
	bhs	.LBB1_11
.Ltmp32:
@ %bb.6:
	@DEBUG_VALUE: mbedtls_cipher_cmac_update:ilen <- $r10
	@DEBUG_VALUE: mbedtls_cipher_cmac_update:ctx <- $r8
	@DEBUG_VALUE: mbedtls_cipher_cmac_update:block_size <- $r7
	@DEBUG_VALUE: mbedtls_cipher_cmac_update:cmac_ctx <- $r6
	@DEBUG_VALUE: mbedtls_cipher_cmac_update:state <- $r6
	@DEBUG_VALUE: mbedtls_cipher_cmac_update:input <- $r5
	@DEBUG_VALUE: mbedtls_cipher_cmac_update:ret <- 0
	.loc	2 246 18 is_stmt 1              @ ../../../components/network/thread/subg_openthread/third_party/mbedtls/repo/library/cmac.c:246:18
	add	r0, r6
	adds	r0, #16
	.loc	2 246 9 is_stmt 0               @ ../../../components/network/thread/subg_openthread/third_party/mbedtls/repo/library/cmac.c:246:9
	mov	r1, r5
	bl	__aeabi_memcpy
.Ltmp33:
	@DEBUG_VALUE: cmac_xor_block:idx <- 0
	@DEBUG_VALUE: cmac_xor_block:block_size <- $r7
	@DEBUG_VALUE: cmac_xor_block:input2 <- $r6
	@DEBUG_VALUE: cmac_xor_block:input1 <- [DW_OP_plus_uconst 16, DW_OP_stack_value] $r6
	@DEBUG_VALUE: cmac_xor_block:output <- $r6
	.loc	2 157 5 is_stmt 1               @ ../../../components/network/thread/subg_openthread/third_party/mbedtls/repo/library/cmac.c:157:5
	cbz	r7, .LBB1_9
.Ltmp34:
@ %bb.7:
	@DEBUG_VALUE: mbedtls_cipher_cmac_update:ilen <- $r10
	@DEBUG_VALUE: mbedtls_cipher_cmac_update:ctx <- $r8
	@DEBUG_VALUE: cmac_xor_block:block_size <- $r7
	@DEBUG_VALUE: mbedtls_cipher_cmac_update:block_size <- $r7
	@DEBUG_VALUE: cmac_xor_block:output <- $r6
	@DEBUG_VALUE: cmac_xor_block:input1 <- [DW_OP_plus_uconst 16, DW_OP_stack_value] $r6
	@DEBUG_VALUE: cmac_xor_block:input2 <- $r6
	@DEBUG_VALUE: mbedtls_cipher_cmac_update:cmac_ctx <- $r6
	@DEBUG_VALUE: mbedtls_cipher_cmac_update:state <- $r6
	@DEBUG_VALUE: mbedtls_cipher_cmac_update:input <- $r5
	@DEBUG_VALUE: cmac_xor_block:idx <- 0
	@DEBUG_VALUE: mbedtls_cipher_cmac_update:ret <- 0
	add.w	r0, r6, #16
	mov	r1, r7
.Ltmp35:
	.p2align	2
.LBB1_8:                                @ =>This Inner Loop Header: Depth=1
	@DEBUG_VALUE: mbedtls_cipher_cmac_update:ilen <- $r10
	@DEBUG_VALUE: mbedtls_cipher_cmac_update:ctx <- $r8
	@DEBUG_VALUE: cmac_xor_block:block_size <- $r7
	@DEBUG_VALUE: mbedtls_cipher_cmac_update:block_size <- $r7
	@DEBUG_VALUE: cmac_xor_block:output <- $r6
	@DEBUG_VALUE: cmac_xor_block:input1 <- [DW_OP_plus_uconst 16, DW_OP_stack_value] $r6
	@DEBUG_VALUE: cmac_xor_block:input2 <- $r6
	@DEBUG_VALUE: mbedtls_cipher_cmac_update:cmac_ctx <- $r6
	@DEBUG_VALUE: mbedtls_cipher_cmac_update:state <- $r6
	@DEBUG_VALUE: mbedtls_cipher_cmac_update:input <- $r5
	@DEBUG_VALUE: mbedtls_cipher_cmac_update:ret <- 0
	@DEBUG_VALUE: cmac_xor_block:idx <- undef
	.loc	2 158 41                        @ ../../../components/network/thread/subg_openthread/third_party/mbedtls/repo/library/cmac.c:158:41
	ldrb	r2, [r0, #-16]
	.loc	2 158 25 is_stmt 0              @ ../../../components/network/thread/subg_openthread/third_party/mbedtls/repo/library/cmac.c:158:25
	ldrb	r3, [r0], #1
	.loc	2 157 23 is_stmt 1              @ ../../../components/network/thread/subg_openthread/third_party/mbedtls/repo/library/cmac.c:157:23
	subs	r1, #1
	.loc	2 158 39                        @ ../../../components/network/thread/subg_openthread/third_party/mbedtls/repo/library/cmac.c:158:39
	eor.w	r2, r2, r3
	.loc	2 158 23 is_stmt 0              @ ../../../components/network/thread/subg_openthread/third_party/mbedtls/repo/library/cmac.c:158:23
	strb	r2, [r0, #-17]
.Ltmp36:
	@DEBUG_VALUE: cmac_xor_block:idx <- [DW_OP_plus_uconst 1, DW_OP_stack_value] undef
	.loc	2 157 5 is_stmt 1               @ ../../../components/network/thread/subg_openthread/third_party/mbedtls/repo/library/cmac.c:157:5
	bne	.LBB1_8
.Ltmp37:
.LBB1_9:
	@DEBUG_VALUE: mbedtls_cipher_cmac_update:ilen <- $r10
	@DEBUG_VALUE: mbedtls_cipher_cmac_update:ctx <- $r8
	@DEBUG_VALUE: mbedtls_cipher_cmac_update:block_size <- $r7
	@DEBUG_VALUE: mbedtls_cipher_cmac_update:cmac_ctx <- $r6
	@DEBUG_VALUE: mbedtls_cipher_cmac_update:state <- $r6
	@DEBUG_VALUE: mbedtls_cipher_cmac_update:input <- $r5
	@DEBUG_VALUE: mbedtls_cipher_cmac_update:ret <- 0
	@DEBUG_VALUE: mbedtls_cipher_cmac_update:olen <- [DW_OP_plus_uconst 8, DW_OP_deref] $sp
	.loc	2 0 5 is_stmt 0                 @ ../../../components/network/thread/subg_openthread/third_party/mbedtls/repo/library/cmac.c:0:5
	add	r4, sp, #8
.Ltmp38:
	.loc	2 252 21 is_stmt 1              @ ../../../components/network/thread/subg_openthread/third_party/mbedtls/repo/library/cmac.c:252:21
	mov	r0, r8
	mov	r1, r6
	mov	r2, r7
	mov	r3, r6
	str	r4, [sp]
	bl	mbedtls_cipher_update
.Ltmp39:
	@DEBUG_VALUE: mbedtls_cipher_cmac_update:ret <- $r0
	.loc	2 252 13 is_stmt 0              @ ../../../components/network/thread/subg_openthread/third_party/mbedtls/repo/library/cmac.c:252:13
	cbnz	r0, .LBB1_21
.Ltmp40:
@ %bb.10:
	@DEBUG_VALUE: mbedtls_cipher_cmac_update:ilen <- $r10
	@DEBUG_VALUE: mbedtls_cipher_cmac_update:ctx <- $r8
	@DEBUG_VALUE: mbedtls_cipher_cmac_update:block_size <- $r7
	@DEBUG_VALUE: mbedtls_cipher_cmac_update:cmac_ctx <- $r6
	@DEBUG_VALUE: mbedtls_cipher_cmac_update:state <- $r6
	@DEBUG_VALUE: mbedtls_cipher_cmac_update:input <- $r5
	@DEBUG_VALUE: mbedtls_cipher_cmac_update:ret <- $r0
	@DEBUG_VALUE: mbedtls_cipher_cmac_update:olen <- [DW_OP_plus_uconst 8, DW_OP_deref] $sp
	.loc	2 258 41 is_stmt 1              @ ../../../components/network/thread/subg_openthread/third_party/mbedtls/repo/library/cmac.c:258:41
	ldr	r0, [r6, #32]
.Ltmp41:
	.loc	2 258 29 is_stmt 0              @ ../../../components/network/thread/subg_openthread/third_party/mbedtls/repo/library/cmac.c:258:29
	subs	r0, r7, r0
	.loc	2 258 15                        @ ../../../components/network/thread/subg_openthread/third_party/mbedtls/repo/library/cmac.c:258:15
	add	r5, r0
.Ltmp42:
	@DEBUG_VALUE: mbedtls_cipher_cmac_update:input <- [DW_OP_LLVM_entry_value 1] $r1
	@DEBUG_VALUE: mbedtls_cipher_cmac_update:input <- $r5
	.loc	2 259 14 is_stmt 1              @ ../../../components/network/thread/subg_openthread/third_party/mbedtls/repo/library/cmac.c:259:14
	sub.w	r10, r10, r0
.Ltmp43:
	@DEBUG_VALUE: mbedtls_cipher_cmac_update:ilen <- [DW_OP_LLVM_entry_value 1] $r2
	@DEBUG_VALUE: mbedtls_cipher_cmac_update:ilen <- $r10
	.loc	2 0 14 is_stmt 0                @ ../../../components/network/thread/subg_openthread/third_party/mbedtls/repo/library/cmac.c:0:14
	movs	r0, #0
	.loc	2 260 35 is_stmt 1              @ ../../../components/network/thread/subg_openthread/third_party/mbedtls/repo/library/cmac.c:260:35
	str	r0, [r6, #32]
.Ltmp44:
.LBB1_11:
	@DEBUG_VALUE: mbedtls_cipher_cmac_update:ilen <- $r10
	@DEBUG_VALUE: mbedtls_cipher_cmac_update:ctx <- $r8
	@DEBUG_VALUE: mbedtls_cipher_cmac_update:block_size <- $r7
	@DEBUG_VALUE: mbedtls_cipher_cmac_update:cmac_ctx <- $r6
	@DEBUG_VALUE: mbedtls_cipher_cmac_update:state <- $r6
	@DEBUG_VALUE: mbedtls_cipher_cmac_update:input <- $r5
	@DEBUG_VALUE: mbedtls_cipher_cmac_update:input <- $r5
	@DEBUG_VALUE: mbedtls_cipher_cmac_update:ilen <- $r10
	@DEBUG_VALUE: mbedtls_cipher_cmac_update:ret <- 0
	.loc	2 264 16                        @ ../../../components/network/thread/subg_openthread/third_party/mbedtls/repo/library/cmac.c:264:16
	add.w	r0, r7, r10
	.loc	2 264 29 is_stmt 0              @ ../../../components/network/thread/subg_openthread/third_party/mbedtls/repo/library/cmac.c:264:29
	subs	r0, #1
	.loc	2 264 35                        @ ../../../components/network/thread/subg_openthread/third_party/mbedtls/repo/library/cmac.c:264:35
	udiv	r9, r0, r7
.Ltmp45:
	@DEBUG_VALUE: mbedtls_cipher_cmac_update:j <- 1
	@DEBUG_VALUE: mbedtls_cipher_cmac_update:n <- $r9
	.loc	2 268 5 is_stmt 1               @ ../../../components/network/thread/subg_openthread/third_party/mbedtls/repo/library/cmac.c:268:5
	cmp.w	r9, #2
	blo	.LBB1_18
.Ltmp46:
@ %bb.12:
	@DEBUG_VALUE: mbedtls_cipher_cmac_update:ilen <- $r10
	@DEBUG_VALUE: mbedtls_cipher_cmac_update:n <- $r9
	@DEBUG_VALUE: mbedtls_cipher_cmac_update:ctx <- $r8
	@DEBUG_VALUE: mbedtls_cipher_cmac_update:block_size <- $r7
	@DEBUG_VALUE: mbedtls_cipher_cmac_update:cmac_ctx <- $r6
	@DEBUG_VALUE: mbedtls_cipher_cmac_update:state <- $r6
	@DEBUG_VALUE: mbedtls_cipher_cmac_update:input <- $r5
	@DEBUG_VALUE: mbedtls_cipher_cmac_update:j <- 1
	@DEBUG_VALUE: mbedtls_cipher_cmac_update:ret <- 0
	.loc	2 0 5 is_stmt 0                 @ ../../../components/network/thread/subg_openthread/third_party/mbedtls/repo/library/cmac.c:0:5
	movs	r4, #1
	add.w	r11, sp, #8
.Ltmp47:
	.p2align	2
.LBB1_13:                               @ =>This Loop Header: Depth=1
                                        @     Child Loop BB1_15 Depth 2
	@DEBUG_VALUE: mbedtls_cipher_cmac_update:ilen <- $r10
	@DEBUG_VALUE: mbedtls_cipher_cmac_update:n <- $r9
	@DEBUG_VALUE: mbedtls_cipher_cmac_update:ctx <- $r8
	@DEBUG_VALUE: mbedtls_cipher_cmac_update:block_size <- $r7
	@DEBUG_VALUE: mbedtls_cipher_cmac_update:cmac_ctx <- $r6
	@DEBUG_VALUE: mbedtls_cipher_cmac_update:state <- $r6
	@DEBUG_VALUE: mbedtls_cipher_cmac_update:input <- $r5
	@DEBUG_VALUE: mbedtls_cipher_cmac_update:ret <- 0
	@DEBUG_VALUE: mbedtls_cipher_cmac_update:input <- $r5
	@DEBUG_VALUE: mbedtls_cipher_cmac_update:ilen <- $r10
	@DEBUG_VALUE: mbedtls_cipher_cmac_update:j <- $r4
	@DEBUG_VALUE: cmac_xor_block:output <- $r6
	@DEBUG_VALUE: cmac_xor_block:input1 <- $r5
	@DEBUG_VALUE: cmac_xor_block:input2 <- $r6
	@DEBUG_VALUE: cmac_xor_block:block_size <- $r7
	@DEBUG_VALUE: cmac_xor_block:idx <- 0
	.loc	2 157 5 is_stmt 1               @ ../../../components/network/thread/subg_openthread/third_party/mbedtls/repo/library/cmac.c:157:5
	cbz	r7, .LBB1_16
.Ltmp48:
@ %bb.14:                               @   in Loop: Header=BB1_13 Depth=1
	@DEBUG_VALUE: mbedtls_cipher_cmac_update:ilen <- $r10
	@DEBUG_VALUE: mbedtls_cipher_cmac_update:n <- $r9
	@DEBUG_VALUE: mbedtls_cipher_cmac_update:ctx <- $r8
	@DEBUG_VALUE: cmac_xor_block:block_size <- $r7
	@DEBUG_VALUE: mbedtls_cipher_cmac_update:block_size <- $r7
	@DEBUG_VALUE: cmac_xor_block:input2 <- $r6
	@DEBUG_VALUE: cmac_xor_block:output <- $r6
	@DEBUG_VALUE: mbedtls_cipher_cmac_update:cmac_ctx <- $r6
	@DEBUG_VALUE: mbedtls_cipher_cmac_update:state <- $r6
	@DEBUG_VALUE: cmac_xor_block:input1 <- $r5
	@DEBUG_VALUE: mbedtls_cipher_cmac_update:input <- $r5
	@DEBUG_VALUE: mbedtls_cipher_cmac_update:j <- $r4
	@DEBUG_VALUE: cmac_xor_block:idx <- 0
	@DEBUG_VALUE: mbedtls_cipher_cmac_update:ret <- 0
	.loc	2 0 5 is_stmt 0                 @ ../../../components/network/thread/subg_openthread/third_party/mbedtls/repo/library/cmac.c:0:5
	movs	r0, #0
.Ltmp49:
	.p2align	2
.LBB1_15:                               @   Parent Loop BB1_13 Depth=1
                                        @ =>  This Inner Loop Header: Depth=2
	@DEBUG_VALUE: mbedtls_cipher_cmac_update:ilen <- $r10
	@DEBUG_VALUE: mbedtls_cipher_cmac_update:n <- $r9
	@DEBUG_VALUE: mbedtls_cipher_cmac_update:ctx <- $r8
	@DEBUG_VALUE: cmac_xor_block:block_size <- $r7
	@DEBUG_VALUE: mbedtls_cipher_cmac_update:block_size <- $r7
	@DEBUG_VALUE: cmac_xor_block:input2 <- $r6
	@DEBUG_VALUE: cmac_xor_block:output <- $r6
	@DEBUG_VALUE: mbedtls_cipher_cmac_update:cmac_ctx <- $r6
	@DEBUG_VALUE: mbedtls_cipher_cmac_update:state <- $r6
	@DEBUG_VALUE: cmac_xor_block:input1 <- $r5
	@DEBUG_VALUE: mbedtls_cipher_cmac_update:input <- $r5
	@DEBUG_VALUE: mbedtls_cipher_cmac_update:j <- $r4
	@DEBUG_VALUE: mbedtls_cipher_cmac_update:ret <- 0
	@DEBUG_VALUE: cmac_xor_block:idx <- $r0
	.loc	2 158 25 is_stmt 1              @ ../../../components/network/thread/subg_openthread/third_party/mbedtls/repo/library/cmac.c:158:25
	ldrb	r1, [r5, r0]
	.loc	2 158 41 is_stmt 0              @ ../../../components/network/thread/subg_openthread/third_party/mbedtls/repo/library/cmac.c:158:41
	ldrb	r2, [r6, r0]
	.loc	2 158 39                        @ ../../../components/network/thread/subg_openthread/third_party/mbedtls/repo/library/cmac.c:158:39
	eors	r1, r2
	.loc	2 158 23                        @ ../../../components/network/thread/subg_openthread/third_party/mbedtls/repo/library/cmac.c:158:23
	strb	r1, [r6, r0]
	.loc	2 157 40 is_stmt 1              @ ../../../components/network/thread/subg_openthread/third_party/mbedtls/repo/library/cmac.c:157:40
	adds	r0, #1
.Ltmp50:
	@DEBUG_VALUE: cmac_xor_block:idx <- $r0
	.loc	2 157 5 is_stmt 0               @ ../../../components/network/thread/subg_openthread/third_party/mbedtls/repo/library/cmac.c:157:5
	cmp	r7, r0
	bne	.LBB1_15
.Ltmp51:
.LBB1_16:                               @   in Loop: Header=BB1_13 Depth=1
	@DEBUG_VALUE: mbedtls_cipher_cmac_update:ilen <- $r10
	@DEBUG_VALUE: mbedtls_cipher_cmac_update:n <- $r9
	@DEBUG_VALUE: mbedtls_cipher_cmac_update:ctx <- $r8
	@DEBUG_VALUE: mbedtls_cipher_cmac_update:block_size <- $r7
	@DEBUG_VALUE: mbedtls_cipher_cmac_update:cmac_ctx <- $r6
	@DEBUG_VALUE: mbedtls_cipher_cmac_update:state <- $r6
	@DEBUG_VALUE: mbedtls_cipher_cmac_update:input <- $r5
	@DEBUG_VALUE: mbedtls_cipher_cmac_update:j <- $r4
	@DEBUG_VALUE: mbedtls_cipher_cmac_update:ret <- 0
	@DEBUG_VALUE: mbedtls_cipher_cmac_update:olen <- [DW_OP_plus_uconst 8, DW_OP_deref] $sp
	.loc	2 272 21 is_stmt 1              @ ../../../components/network/thread/subg_openthread/third_party/mbedtls/repo/library/cmac.c:272:21
	mov	r0, r8
	mov	r1, r6
	mov	r2, r7
	mov	r3, r6
	str.w	r11, [sp]
	bl	mbedtls_cipher_update
.Ltmp52:
	@DEBUG_VALUE: mbedtls_cipher_cmac_update:ret <- $r0
	.loc	2 272 13 is_stmt 0              @ ../../../components/network/thread/subg_openthread/third_party/mbedtls/repo/library/cmac.c:272:13
	cbnz	r0, .LBB1_21
.Ltmp53:
@ %bb.17:                               @   in Loop: Header=BB1_13 Depth=1
	@DEBUG_VALUE: mbedtls_cipher_cmac_update:ilen <- $r10
	@DEBUG_VALUE: mbedtls_cipher_cmac_update:n <- $r9
	@DEBUG_VALUE: mbedtls_cipher_cmac_update:ctx <- $r8
	@DEBUG_VALUE: mbedtls_cipher_cmac_update:block_size <- $r7
	@DEBUG_VALUE: mbedtls_cipher_cmac_update:cmac_ctx <- $r6
	@DEBUG_VALUE: mbedtls_cipher_cmac_update:state <- $r6
	@DEBUG_VALUE: mbedtls_cipher_cmac_update:input <- $r5
	@DEBUG_VALUE: mbedtls_cipher_cmac_update:j <- $r4
	@DEBUG_VALUE: mbedtls_cipher_cmac_update:ret <- $r0
	@DEBUG_VALUE: mbedtls_cipher_cmac_update:olen <- [DW_OP_plus_uconst 8, DW_OP_deref] $sp
	.loc	2 268 25 is_stmt 1              @ ../../../components/network/thread/subg_openthread/third_party/mbedtls/repo/library/cmac.c:268:25
	adds	r4, #1
.Ltmp54:
	@DEBUG_VALUE: mbedtls_cipher_cmac_update:j <- $r4
	@DEBUG_VALUE: mbedtls_cipher_cmac_update:ret <- 0
	.loc	2 276 14                        @ ../../../components/network/thread/subg_openthread/third_party/mbedtls/repo/library/cmac.c:276:14
	sub.w	r10, r10, r7
.Ltmp55:
	@DEBUG_VALUE: mbedtls_cipher_cmac_update:ilen <- $r10
	.loc	2 268 5                         @ ../../../components/network/thread/subg_openthread/third_party/mbedtls/repo/library/cmac.c:268:5
	cmp	r4, r9
.Ltmp56:
	.loc	2 277 15                        @ ../../../components/network/thread/subg_openthread/third_party/mbedtls/repo/library/cmac.c:277:15
	add	r5, r7
.Ltmp57:
	@DEBUG_VALUE: mbedtls_cipher_cmac_update:input <- $r5
	.loc	2 268 5                         @ ../../../components/network/thread/subg_openthread/third_party/mbedtls/repo/library/cmac.c:268:5
	bne	.LBB1_13
.Ltmp58:
.LBB1_18:
	@DEBUG_VALUE: mbedtls_cipher_cmac_update:ilen <- $r10
	@DEBUG_VALUE: mbedtls_cipher_cmac_update:n <- $r9
	@DEBUG_VALUE: mbedtls_cipher_cmac_update:ctx <- $r8
	@DEBUG_VALUE: mbedtls_cipher_cmac_update:block_size <- $r7
	@DEBUG_VALUE: mbedtls_cipher_cmac_update:cmac_ctx <- $r6
	@DEBUG_VALUE: mbedtls_cipher_cmac_update:state <- $r6
	@DEBUG_VALUE: mbedtls_cipher_cmac_update:input <- $r5
	@DEBUG_VALUE: mbedtls_cipher_cmac_update:ret <- 0
	.loc	2 281 9                         @ ../../../components/network/thread/subg_openthread/third_party/mbedtls/repo/library/cmac.c:281:9
	cmp.w	r10, #0
	beq	.LBB1_20
.Ltmp59:
@ %bb.19:
	@DEBUG_VALUE: mbedtls_cipher_cmac_update:ilen <- $r10
	@DEBUG_VALUE: mbedtls_cipher_cmac_update:n <- $r9
	@DEBUG_VALUE: mbedtls_cipher_cmac_update:ctx <- $r8
	@DEBUG_VALUE: mbedtls_cipher_cmac_update:block_size <- $r7
	@DEBUG_VALUE: mbedtls_cipher_cmac_update:cmac_ctx <- $r6
	@DEBUG_VALUE: mbedtls_cipher_cmac_update:state <- $r6
	@DEBUG_VALUE: mbedtls_cipher_cmac_update:input <- $r5
	@DEBUG_VALUE: mbedtls_cipher_cmac_update:ret <- 0
	.loc	2 283 56                        @ ../../../components/network/thread/subg_openthread/third_party/mbedtls/repo/library/cmac.c:283:56
	ldr	r0, [r6, #32]
	.loc	2 283 9 is_stmt 0               @ ../../../components/network/thread/subg_openthread/third_party/mbedtls/repo/library/cmac.c:283:9
	mov	r1, r5
	.loc	2 283 18                        @ ../../../components/network/thread/subg_openthread/third_party/mbedtls/repo/library/cmac.c:283:18
	add	r0, r6
	adds	r0, #16
	.loc	2 283 9                         @ ../../../components/network/thread/subg_openthread/third_party/mbedtls/repo/library/cmac.c:283:9
	mov	r2, r10
	bl	__aeabi_memcpy
.Ltmp60:
	.loc	2 286 35 is_stmt 1              @ ../../../components/network/thread/subg_openthread/third_party/mbedtls/repo/library/cmac.c:286:35
	ldr	r0, [r6, #32]
	add	r0, r10
	str	r0, [r6, #32]
.Ltmp61:
.LBB1_20:
	@DEBUG_VALUE: mbedtls_cipher_cmac_update:ilen <- $r10
	@DEBUG_VALUE: mbedtls_cipher_cmac_update:n <- $r9
	@DEBUG_VALUE: mbedtls_cipher_cmac_update:ctx <- $r8
	@DEBUG_VALUE: mbedtls_cipher_cmac_update:block_size <- $r7
	@DEBUG_VALUE: mbedtls_cipher_cmac_update:cmac_ctx <- $r6
	@DEBUG_VALUE: mbedtls_cipher_cmac_update:state <- $r6
	@DEBUG_VALUE: mbedtls_cipher_cmac_update:input <- $r5
	@DEBUG_VALUE: mbedtls_cipher_cmac_update:ret <- 0
	.loc	2 0 35 is_stmt 0                @ ../../../components/network/thread/subg_openthread/third_party/mbedtls/repo/library/cmac.c:0:35
	movs	r0, #0
.Ltmp62:
.LBB1_21:
	@DEBUG_VALUE: mbedtls_cipher_cmac_update:ctx <- $r8
	.loc	2 291 1 is_stmt 1               @ ../../../components/network/thread/subg_openthread/third_party/mbedtls/repo/library/cmac.c:291:1
	add	sp, #12
	pop.w	{r4, r5, r6, r7, r8, r9, r10, r11, pc}
.Ltmp63:
.Lfunc_end1:
	.size	mbedtls_cipher_cmac_update, .Lfunc_end1-mbedtls_cipher_cmac_update
	.cfi_endproc
	.file	3 "C:\\Keil_v5\\ARM\\ARMCLANG\\Bin\\..\\include" "stdio.h"
	.cantunwind
	.fnend
                                        @ -- End function
	.section	.text.mbedtls_cipher_cmac_finish,"ax",%progbits
	.hidden	mbedtls_cipher_cmac_finish      @ -- Begin function mbedtls_cipher_cmac_finish
	.globl	mbedtls_cipher_cmac_finish
	.p2align	1
	.type	mbedtls_cipher_cmac_finish,%function
	.code	16                              @ @mbedtls_cipher_cmac_finish
	.thumb_func
mbedtls_cipher_cmac_finish:
.Lfunc_begin2:
	.loc	2 295 0                         @ ../../../components/network/thread/subg_openthread/third_party/mbedtls/repo/library/cmac.c:295:0
	.fnstart
	.cfi_startproc
@ %bb.0:
	@DEBUG_VALUE: mbedtls_cipher_cmac_finish:ctx <- $r0
	@DEBUG_VALUE: mbedtls_cipher_cmac_finish:output <- $r1
	@DEBUG_VALUE: mbedtls_cipher_cmac_finish:output <- $r1
	@DEBUG_VALUE: mbedtls_cipher_cmac_finish:ctx <- $r0
	.save	{r4, r5, r6, r7, r8, r9, r10, r11, lr}
	push.w	{r4, r5, r6, r7, r8, r9, r10, r11, lr}
	.cfi_def_cfa_offset 36
	.cfi_offset lr, -4
	.cfi_offset r11, -8
	.cfi_offset r10, -12
	.cfi_offset r9, -16
	.cfi_offset r8, -20
	.cfi_offset r7, -24
	.cfi_offset r6, -28
	.cfi_offset r5, -32
	.cfi_offset r4, -36
	.pad	#60
	sub	sp, #60
	.cfi_def_cfa_offset 96
	movw	r4, #40704
.Ltmp64:
	.loc	2 304 21 prologue_end           @ ../../../components/network/thread/subg_openthread/third_party/mbedtls/repo/library/cmac.c:304:21
	cmp	r0, #0
	movt	r4, #65535
.Ltmp65:
	@DEBUG_VALUE: mbedtls_cipher_cmac_finish:ret <- -110
	beq.w	.LBB2_24
.Ltmp66:
@ %bb.1:
	@DEBUG_VALUE: mbedtls_cipher_cmac_finish:output <- $r1
	@DEBUG_VALUE: mbedtls_cipher_cmac_finish:ctx <- $r0
	@DEBUG_VALUE: mbedtls_cipher_cmac_finish:ret <- -110
	@DEBUG_VALUE: mbedtls_cipher_cmac_finish:output <- $r1
	.loc	2 0 21 is_stmt 0                @ ../../../components/network/thread/subg_openthread/third_party/mbedtls/repo/library/cmac.c:0:21
	mov	r6, r0
.Ltmp67:
	@DEBUG_VALUE: mbedtls_cipher_cmac_finish:ctx <- $r6
	.loc	2 304 29                        @ ../../../components/network/thread/subg_openthread/third_party/mbedtls/repo/library/cmac.c:304:29
	ldr	r0, [r0]
	.loc	2 304 49                        @ ../../../components/network/thread/subg_openthread/third_party/mbedtls/repo/library/cmac.c:304:49
	cmp	r0, #0
	beq.w	.LBB2_24
.Ltmp68:
@ %bb.2:
	@DEBUG_VALUE: mbedtls_cipher_cmac_finish:ctx <- $r6
	@DEBUG_VALUE: mbedtls_cipher_cmac_finish:output <- $r1
	@DEBUG_VALUE: mbedtls_cipher_cmac_finish:ret <- -110
	.loc	2 0 49                          @ ../../../components/network/thread/subg_openthread/third_party/mbedtls/repo/library/cmac.c:0:49
	mov	r8, r1
.Ltmp69:
	@DEBUG_VALUE: mbedtls_cipher_cmac_finish:output <- $r8
	.loc	2 304 74                        @ ../../../components/network/thread/subg_openthread/third_party/mbedtls/repo/library/cmac.c:304:74
	cmp	r1, #0
	beq.w	.LBB2_24
.Ltmp70:
@ %bb.3:
	@DEBUG_VALUE: mbedtls_cipher_cmac_finish:output <- $r8
	@DEBUG_VALUE: mbedtls_cipher_cmac_finish:ctx <- $r6
	@DEBUG_VALUE: mbedtls_cipher_cmac_finish:ret <- -110
	.loc	2 0 0                           @ ../../../components/network/thread/subg_openthread/third_party/mbedtls/repo/library/cmac.c:0:0
	ldr.w	r9, [r6, #56]
	.loc	2 304 74                        @ ../../../components/network/thread/subg_openthread/third_party/mbedtls/repo/library/cmac.c:304:74
	cmp.w	r9, #0
	beq.w	.LBB2_24
.Ltmp71:
@ %bb.4:
	@DEBUG_VALUE: mbedtls_cipher_cmac_finish:output <- $r8
	@DEBUG_VALUE: mbedtls_cipher_cmac_finish:ctx <- $r6
	@DEBUG_VALUE: mbedtls_cipher_cmac_finish:ret <- -110
	@DEBUG_VALUE: mbedtls_cipher_cmac_finish:cmac_ctx <- $r9
	.loc	2 309 36 is_stmt 1              @ ../../../components/network/thread/subg_openthread/third_party/mbedtls/repo/library/cmac.c:309:36
	ldr	r7, [r0, #24]
.Ltmp72:
	@DEBUG_VALUE: mbedtls_cipher_cmac_finish:state <- $r9
	@DEBUG_VALUE: mbedtls_cipher_cmac_finish:block_size <- $r7
	.loc	2 0 36 is_stmt 0                @ ../../../components/network/thread/subg_openthread/third_party/mbedtls/repo/library/cmac.c:0:36
	add	r0, sp, #24
	.loc	2 312 5 is_stmt 1               @ ../../../components/network/thread/subg_openthread/third_party/mbedtls/repo/library/cmac.c:312:5
	movs	r1, #16
	bl	mbedtls_platform_zeroize
.Ltmp73:
	.loc	2 0 5 is_stmt 0                 @ ../../../components/network/thread/subg_openthread/third_party/mbedtls/repo/library/cmac.c:0:5
	add	r0, sp, #8
	.loc	2 313 5 is_stmt 1               @ ../../../components/network/thread/subg_openthread/third_party/mbedtls/repo/library/cmac.c:313:5
	movs	r1, #16
	bl	mbedtls_platform_zeroize
.Ltmp74:
	@DEBUG_VALUE: cmac_generate_subkeys:ret <- -110
	@DEBUG_VALUE: cmac_generate_subkeys:ctx <- $r6
	.loc	2 0 5 is_stmt 0                 @ ../../../components/network/thread/subg_openthread/third_party/mbedtls/repo/library/cmac.c:0:5
	add	r5, sp, #44
.Ltmp75:
	.loc	2 126 5 is_stmt 1               @ ../../../components/network/thread/subg_openthread/third_party/mbedtls/repo/library/cmac.c:126:5
	mov	r0, r5
	movs	r1, #16
	bl	mbedtls_platform_zeroize
.Ltmp76:
	.loc	2 128 23                        @ ../../../components/network/thread/subg_openthread/third_party/mbedtls/repo/library/cmac.c:128:23
	ldr	r0, [r6]
	add.w	r10, sp, #40
	.loc	2 128 36 is_stmt 0              @ ../../../components/network/thread/subg_openthread/third_party/mbedtls/repo/library/cmac.c:128:36
	ldr	r4, [r0, #24]
.Ltmp77:
	@DEBUG_VALUE: cmac_generate_subkeys:olen <- [DW_OP_plus_uconst 40, DW_OP_deref] $sp
	@DEBUG_VALUE: cmac_generate_subkeys:block_size <- $r4
	.loc	2 131 17 is_stmt 1              @ ../../../components/network/thread/subg_openthread/third_party/mbedtls/repo/library/cmac.c:131:17
	mov	r0, r6
	mov	r1, r5
	mov	r2, r4
	mov	r3, r5
	str.w	r10, [sp]
	bl	mbedtls_cipher_update
.Ltmp78:
	@DEBUG_VALUE: cmac_generate_subkeys:ret <- $r0
	@DEBUG_VALUE: cmac_generate_subkeys:K2 <- [DW_OP_plus_uconst 8, DW_OP_stack_value] $sp
	@DEBUG_VALUE: cmac_generate_subkeys:K1 <- [DW_OP_plus_uconst 24, DW_OP_stack_value] $sp
	.loc	2 131 9 is_stmt 0               @ ../../../components/network/thread/subg_openthread/third_party/mbedtls/repo/library/cmac.c:131:9
	cbnz	r0, .LBB2_7
.Ltmp79:
@ %bb.5:
	@DEBUG_VALUE: mbedtls_cipher_cmac_finish:state <- $r9
	@DEBUG_VALUE: mbedtls_cipher_cmac_finish:cmac_ctx <- $r9
	@DEBUG_VALUE: mbedtls_cipher_cmac_finish:output <- $r8
	@DEBUG_VALUE: mbedtls_cipher_cmac_finish:block_size <- $r7
	@DEBUG_VALUE: cmac_generate_subkeys:ctx <- $r6
	@DEBUG_VALUE: mbedtls_cipher_cmac_finish:ctx <- $r6
	@DEBUG_VALUE: cmac_generate_subkeys:block_size <- $r4
	@DEBUG_VALUE: cmac_generate_subkeys:ret <- $r0
	@DEBUG_VALUE: cmac_generate_subkeys:K1 <- [DW_OP_plus_uconst 24, DW_OP_stack_value] $sp
	@DEBUG_VALUE: cmac_generate_subkeys:K2 <- [DW_OP_plus_uconst 8, DW_OP_stack_value] $sp
	@DEBUG_VALUE: cmac_generate_subkeys:olen <- [DW_OP_plus_uconst 40, DW_OP_deref] $sp
	@DEBUG_VALUE: mbedtls_cipher_cmac_finish:ret <- -110
	.loc	2 0 9                           @ ../../../components/network/thread/subg_openthread/third_party/mbedtls/repo/library/cmac.c:0:9
	add	r0, sp, #24
.Ltmp80:
	add	r1, sp, #44
.Ltmp81:
	.loc	2 137 17 is_stmt 1              @ ../../../components/network/thread/subg_openthread/third_party/mbedtls/repo/library/cmac.c:137:17
	mov	r2, r4
	bl	cmac_multiply_by_u
.Ltmp82:
	@DEBUG_VALUE: cmac_generate_subkeys:ret <- $r0
	.loc	2 137 9 is_stmt 0               @ ../../../components/network/thread/subg_openthread/third_party/mbedtls/repo/library/cmac.c:137:9
	cbnz	r0, .LBB2_7
.Ltmp83:
@ %bb.6:
	@DEBUG_VALUE: mbedtls_cipher_cmac_finish:state <- $r9
	@DEBUG_VALUE: mbedtls_cipher_cmac_finish:cmac_ctx <- $r9
	@DEBUG_VALUE: mbedtls_cipher_cmac_finish:output <- $r8
	@DEBUG_VALUE: mbedtls_cipher_cmac_finish:block_size <- $r7
	@DEBUG_VALUE: cmac_generate_subkeys:ctx <- $r6
	@DEBUG_VALUE: mbedtls_cipher_cmac_finish:ctx <- $r6
	@DEBUG_VALUE: cmac_generate_subkeys:block_size <- $r4
	@DEBUG_VALUE: cmac_generate_subkeys:ret <- $r0
	@DEBUG_VALUE: cmac_generate_subkeys:K1 <- [DW_OP_plus_uconst 24, DW_OP_stack_value] $sp
	@DEBUG_VALUE: cmac_generate_subkeys:K2 <- [DW_OP_plus_uconst 8, DW_OP_stack_value] $sp
	@DEBUG_VALUE: cmac_generate_subkeys:olen <- [DW_OP_plus_uconst 40, DW_OP_deref] $sp
	@DEBUG_VALUE: mbedtls_cipher_cmac_finish:ret <- -110
	.loc	2 0 9                           @ ../../../components/network/thread/subg_openthread/third_party/mbedtls/repo/library/cmac.c:0:9
	add	r0, sp, #8
.Ltmp84:
	add	r1, sp, #24
.Ltmp85:
	.loc	2 140 17 is_stmt 1              @ ../../../components/network/thread/subg_openthread/third_party/mbedtls/repo/library/cmac.c:140:17
	mov	r2, r4
	bl	cmac_multiply_by_u
.Ltmp86:
	@DEBUG_VALUE: cmac_generate_subkeys:ret <- undef
.LBB2_7:
	@DEBUG_VALUE: mbedtls_cipher_cmac_finish:state <- $r9
	@DEBUG_VALUE: mbedtls_cipher_cmac_finish:cmac_ctx <- $r9
	@DEBUG_VALUE: mbedtls_cipher_cmac_finish:output <- $r8
	@DEBUG_VALUE: mbedtls_cipher_cmac_finish:block_size <- $r7
	@DEBUG_VALUE: cmac_generate_subkeys:ctx <- $r6
	@DEBUG_VALUE: mbedtls_cipher_cmac_finish:ctx <- $r6
	@DEBUG_VALUE: cmac_generate_subkeys:block_size <- $r4
	@DEBUG_VALUE: cmac_generate_subkeys:K1 <- [DW_OP_plus_uconst 24, DW_OP_stack_value] $sp
	@DEBUG_VALUE: cmac_generate_subkeys:K2 <- [DW_OP_plus_uconst 8, DW_OP_stack_value] $sp
	@DEBUG_VALUE: cmac_generate_subkeys:olen <- [DW_OP_plus_uconst 40, DW_OP_deref] $sp
	@DEBUG_VALUE: mbedtls_cipher_cmac_finish:ret <- -110
	@DEBUG_VALUE: cmac_generate_subkeys:ret <- undef
	@DEBUG_LABEL: cmac_generate_subkeys:exit
	.loc	2 0 17 is_stmt 0                @ ../../../components/network/thread/subg_openthread/third_party/mbedtls/repo/library/cmac.c:0:17
	add	r4, sp, #44
.Ltmp87:
	.loc	2 144 5 is_stmt 1               @ ../../../components/network/thread/subg_openthread/third_party/mbedtls/repo/library/cmac.c:144:5
	mov	r0, r4
	movs	r1, #16
	bl	mbedtls_platform_zeroize
.Ltmp88:
	.loc	2 319 19                        @ ../../../components/network/thread/subg_openthread/third_party/mbedtls/repo/library/cmac.c:319:19
	ldr.w	r0, [r9, #32]
.Ltmp89:
	.loc	2 316 18                        @ ../../../components/network/thread/subg_openthread/third_party/mbedtls/repo/library/cmac.c:316:18
	add.w	r11, r9, #16
.Ltmp90:
	@DEBUG_VALUE: mbedtls_cipher_cmac_finish:last_block <- $r11
	.loc	2 319 9                         @ ../../../components/network/thread/subg_openthread/third_party/mbedtls/repo/library/cmac.c:319:9
	cmp	r0, r7
	bhs	.LBB2_15
.Ltmp91:
@ %bb.8:
	@DEBUG_VALUE: mbedtls_cipher_cmac_finish:last_block <- $r11
	@DEBUG_VALUE: mbedtls_cipher_cmac_finish:state <- $r9
	@DEBUG_VALUE: mbedtls_cipher_cmac_finish:cmac_ctx <- $r9
	@DEBUG_VALUE: mbedtls_cipher_cmac_finish:output <- $r8
	@DEBUG_VALUE: mbedtls_cipher_cmac_finish:block_size <- $r7
	@DEBUG_VALUE: cmac_generate_subkeys:ctx <- $r6
	@DEBUG_VALUE: mbedtls_cipher_cmac_finish:ctx <- $r6
	@DEBUG_VALUE: cmac_generate_subkeys:K1 <- [DW_OP_plus_uconst 24, DW_OP_stack_value] $sp
	@DEBUG_VALUE: cmac_generate_subkeys:K2 <- [DW_OP_plus_uconst 8, DW_OP_stack_value] $sp
	@DEBUG_VALUE: cmac_generate_subkeys:olen <- [DW_OP_plus_uconst 40, DW_OP_deref] $sp
	@DEBUG_VALUE: mbedtls_cipher_cmac_finish:ret <- -110
	@DEBUG_VALUE: cmac_pad:padded_block_len <- $r7
	@DEBUG_VALUE: cmac_pad:last_block <- $r11
	@DEBUG_VALUE: cmac_pad:last_block_len <- $r0
	@DEBUG_VALUE: cmac_pad:j <- 0
	.loc	2 0 9 is_stmt 0                 @ ../../../components/network/thread/subg_openthread/third_party/mbedtls/repo/library/cmac.c:0:9
	mov.w	r12, #0
	@DEBUG_VALUE: cmac_pad:padded_block <- [DW_OP_plus_uconst 44, DW_OP_stack_value] $sp
	movs	r2, #128
	movs	r3, #0
.Ltmp92:
	.p2align	2
.LBB2_9:                                @ =>This Inner Loop Header: Depth=1
	@DEBUG_VALUE: cmac_pad:last_block <- $r11
	@DEBUG_VALUE: mbedtls_cipher_cmac_finish:last_block <- $r11
	@DEBUG_VALUE: mbedtls_cipher_cmac_finish:state <- $r9
	@DEBUG_VALUE: mbedtls_cipher_cmac_finish:cmac_ctx <- $r9
	@DEBUG_VALUE: mbedtls_cipher_cmac_finish:output <- $r8
	@DEBUG_VALUE: cmac_pad:padded_block_len <- $r7
	@DEBUG_VALUE: mbedtls_cipher_cmac_finish:block_size <- $r7
	@DEBUG_VALUE: mbedtls_cipher_cmac_finish:ctx <- $r6
	@DEBUG_VALUE: cmac_pad:last_block_len <- $r0
	@DEBUG_VALUE: cmac_pad:padded_block <- [DW_OP_plus_uconst 44, DW_OP_stack_value] $sp
	@DEBUG_VALUE: mbedtls_cipher_cmac_finish:ret <- -110
	@DEBUG_VALUE: cmac_pad:j <- $r3
	.loc	2 176 13 is_stmt 1              @ ../../../components/network/thread/subg_openthread/third_party/mbedtls/repo/library/cmac.c:176:13
	cmp	r3, r0
	bhs	.LBB2_11
.Ltmp93:
@ %bb.10:                               @   in Loop: Header=BB2_9 Depth=1
	@DEBUG_VALUE: cmac_pad:last_block <- $r11
	@DEBUG_VALUE: mbedtls_cipher_cmac_finish:last_block <- $r11
	@DEBUG_VALUE: mbedtls_cipher_cmac_finish:state <- $r9
	@DEBUG_VALUE: mbedtls_cipher_cmac_finish:cmac_ctx <- $r9
	@DEBUG_VALUE: mbedtls_cipher_cmac_finish:output <- $r8
	@DEBUG_VALUE: cmac_pad:padded_block_len <- $r7
	@DEBUG_VALUE: mbedtls_cipher_cmac_finish:block_size <- $r7
	@DEBUG_VALUE: mbedtls_cipher_cmac_finish:ctx <- $r6
	@DEBUG_VALUE: cmac_pad:j <- $r3
	@DEBUG_VALUE: cmac_pad:last_block_len <- $r0
	@DEBUG_VALUE: cmac_pad:padded_block <- [DW_OP_plus_uconst 44, DW_OP_stack_value] $sp
	@DEBUG_VALUE: mbedtls_cipher_cmac_finish:ret <- -110
	.loc	2 177 31                        @ ../../../components/network/thread/subg_openthread/third_party/mbedtls/repo/library/cmac.c:177:31
	ldrb.w	r1, [r11, r3]
	.loc	2 177 29 is_stmt 0              @ ../../../components/network/thread/subg_openthread/third_party/mbedtls/repo/library/cmac.c:177:29
	strb	r1, [r4, r3]
	b	.LBB2_12
.Ltmp94:
	.p2align	2
.LBB2_11:                               @   in Loop: Header=BB2_9 Depth=1
	@DEBUG_VALUE: cmac_pad:last_block <- $r11
	@DEBUG_VALUE: mbedtls_cipher_cmac_finish:last_block <- $r11
	@DEBUG_VALUE: mbedtls_cipher_cmac_finish:state <- $r9
	@DEBUG_VALUE: mbedtls_cipher_cmac_finish:cmac_ctx <- $r9
	@DEBUG_VALUE: mbedtls_cipher_cmac_finish:output <- $r8
	@DEBUG_VALUE: cmac_pad:padded_block_len <- $r7
	@DEBUG_VALUE: mbedtls_cipher_cmac_finish:block_size <- $r7
	@DEBUG_VALUE: mbedtls_cipher_cmac_finish:ctx <- $r6
	@DEBUG_VALUE: cmac_pad:j <- $r3
	@DEBUG_VALUE: cmac_pad:last_block_len <- $r0
	@DEBUG_VALUE: cmac_pad:padded_block <- [DW_OP_plus_uconst 44, DW_OP_stack_value] $sp
	@DEBUG_VALUE: mbedtls_cipher_cmac_finish:ret <- -110
	.loc	2 178 18 is_stmt 1              @ ../../../components/network/thread/subg_openthread/third_party/mbedtls/repo/library/cmac.c:178:18
	cmp	r0, r3
.Ltmp95:
	.loc	2 181 29                        @ ../../../components/network/thread/subg_openthread/third_party/mbedtls/repo/library/cmac.c:181:29
	ite	ne
	strbne.w	r12, [r4, r3]
	.loc	2 179 29                        @ ../../../components/network/thread/subg_openthread/third_party/mbedtls/repo/library/cmac.c:179:29
	strbeq	r2, [r4, r0]
.Ltmp96:
.LBB2_12:                               @   in Loop: Header=BB2_9 Depth=1
	@DEBUG_VALUE: cmac_pad:last_block <- $r11
	@DEBUG_VALUE: mbedtls_cipher_cmac_finish:last_block <- $r11
	@DEBUG_VALUE: mbedtls_cipher_cmac_finish:state <- $r9
	@DEBUG_VALUE: mbedtls_cipher_cmac_finish:cmac_ctx <- $r9
	@DEBUG_VALUE: mbedtls_cipher_cmac_finish:output <- $r8
	@DEBUG_VALUE: cmac_pad:padded_block_len <- $r7
	@DEBUG_VALUE: mbedtls_cipher_cmac_finish:block_size <- $r7
	@DEBUG_VALUE: mbedtls_cipher_cmac_finish:ctx <- $r6
	@DEBUG_VALUE: cmac_pad:j <- $r3
	@DEBUG_VALUE: cmac_pad:last_block_len <- $r0
	@DEBUG_VALUE: cmac_pad:padded_block <- [DW_OP_plus_uconst 44, DW_OP_stack_value] $sp
	@DEBUG_VALUE: mbedtls_cipher_cmac_finish:ret <- -110
	.loc	2 174 40                        @ ../../../components/network/thread/subg_openthread/third_party/mbedtls/repo/library/cmac.c:174:40
	adds	r3, #1
.Ltmp97:
	@DEBUG_VALUE: cmac_pad:j <- $r3
	.loc	2 174 5 is_stmt 0               @ ../../../components/network/thread/subg_openthread/third_party/mbedtls/repo/library/cmac.c:174:5
	cmp	r7, r3
	bne	.LBB2_9
.Ltmp98:
@ %bb.13:
	@DEBUG_VALUE: cmac_pad:last_block <- $r11
	@DEBUG_VALUE: mbedtls_cipher_cmac_finish:last_block <- $r11
	@DEBUG_VALUE: mbedtls_cipher_cmac_finish:state <- $r9
	@DEBUG_VALUE: mbedtls_cipher_cmac_finish:cmac_ctx <- $r9
	@DEBUG_VALUE: mbedtls_cipher_cmac_finish:output <- $r8
	@DEBUG_VALUE: cmac_pad:padded_block_len <- $r7
	@DEBUG_VALUE: mbedtls_cipher_cmac_finish:block_size <- $r7
	@DEBUG_VALUE: mbedtls_cipher_cmac_finish:ctx <- $r6
	@DEBUG_VALUE: cmac_pad:j <- $r3
	@DEBUG_VALUE: cmac_pad:last_block_len <- $r0
	@DEBUG_VALUE: cmac_pad:padded_block <- [DW_OP_plus_uconst 44, DW_OP_stack_value] $sp
	@DEBUG_VALUE: mbedtls_cipher_cmac_finish:ret <- -110
	.loc	2 0 5                           @ ../../../components/network/thread/subg_openthread/third_party/mbedtls/repo/library/cmac.c:0:5
	add	r0, sp, #8
	add	r1, sp, #44
	mov	r2, r7
.Ltmp99:
	.p2align	2
.LBB2_14:                               @ =>This Inner Loop Header: Depth=1
	@DEBUG_VALUE: mbedtls_cipher_cmac_finish:last_block <- $r11
	@DEBUG_VALUE: mbedtls_cipher_cmac_finish:state <- $r9
	@DEBUG_VALUE: mbedtls_cipher_cmac_finish:cmac_ctx <- $r9
	@DEBUG_VALUE: mbedtls_cipher_cmac_finish:output <- $r8
	@DEBUG_VALUE: mbedtls_cipher_cmac_finish:block_size <- $r7
	@DEBUG_VALUE: mbedtls_cipher_cmac_finish:ctx <- $r6
	@DEBUG_VALUE: mbedtls_cipher_cmac_finish:ret <- -110
	@DEBUG_VALUE: cmac_xor_block:idx <- undef
	.loc	2 158 25 is_stmt 1              @ ../../../components/network/thread/subg_openthread/third_party/mbedtls/repo/library/cmac.c:158:25
	ldrb	r3, [r1]
	.loc	2 158 41 is_stmt 0              @ ../../../components/network/thread/subg_openthread/third_party/mbedtls/repo/library/cmac.c:158:41
	ldrb	r4, [r0], #1
	.loc	2 157 23 is_stmt 1              @ ../../../components/network/thread/subg_openthread/third_party/mbedtls/repo/library/cmac.c:157:23
	subs	r2, #1
	.loc	2 158 39                        @ ../../../components/network/thread/subg_openthread/third_party/mbedtls/repo/library/cmac.c:158:39
	eor.w	r3, r3, r4
	.loc	2 158 23 is_stmt 0              @ ../../../components/network/thread/subg_openthread/third_party/mbedtls/repo/library/cmac.c:158:23
	strb	r3, [r1], #1
.Ltmp100:
	@DEBUG_VALUE: cmac_xor_block:idx <- [DW_OP_plus_uconst 1, DW_OP_stack_value] undef
	.loc	2 157 5 is_stmt 1               @ ../../../components/network/thread/subg_openthread/third_party/mbedtls/repo/library/cmac.c:157:5
	bne	.LBB2_14
	b	.LBB2_18
.Ltmp101:
.LBB2_15:
	@DEBUG_VALUE: mbedtls_cipher_cmac_finish:last_block <- $r11
	@DEBUG_VALUE: mbedtls_cipher_cmac_finish:state <- $r9
	@DEBUG_VALUE: mbedtls_cipher_cmac_finish:cmac_ctx <- $r9
	@DEBUG_VALUE: mbedtls_cipher_cmac_finish:output <- $r8
	@DEBUG_VALUE: mbedtls_cipher_cmac_finish:block_size <- $r7
	@DEBUG_VALUE: mbedtls_cipher_cmac_finish:ctx <- $r6
	@DEBUG_VALUE: mbedtls_cipher_cmac_finish:ret <- -110
	@DEBUG_VALUE: cmac_xor_block:input1 <- $r11
	@DEBUG_VALUE: cmac_xor_block:block_size <- $r7
	@DEBUG_VALUE: cmac_xor_block:idx <- 0
	@DEBUG_VALUE: cmac_xor_block:input2 <- [DW_OP_plus_uconst 24, DW_OP_stack_value] $sp
	@DEBUG_VALUE: cmac_xor_block:output <- [DW_OP_plus_uconst 44, DW_OP_stack_value] $sp
	.loc	2 157 5 is_stmt 0               @ ../../../components/network/thread/subg_openthread/third_party/mbedtls/repo/library/cmac.c:157:5
	cbz	r7, .LBB2_21
.Ltmp102:
@ %bb.16:
	@DEBUG_VALUE: cmac_xor_block:input1 <- $r11
	@DEBUG_VALUE: mbedtls_cipher_cmac_finish:last_block <- $r11
	@DEBUG_VALUE: mbedtls_cipher_cmac_finish:state <- $r9
	@DEBUG_VALUE: mbedtls_cipher_cmac_finish:cmac_ctx <- $r9
	@DEBUG_VALUE: mbedtls_cipher_cmac_finish:output <- $r8
	@DEBUG_VALUE: cmac_xor_block:block_size <- $r7
	@DEBUG_VALUE: mbedtls_cipher_cmac_finish:block_size <- $r7
	@DEBUG_VALUE: mbedtls_cipher_cmac_finish:ctx <- $r6
	@DEBUG_VALUE: cmac_xor_block:output <- [DW_OP_plus_uconst 44, DW_OP_stack_value] $sp
	@DEBUG_VALUE: cmac_xor_block:input2 <- [DW_OP_plus_uconst 24, DW_OP_stack_value] $sp
	@DEBUG_VALUE: cmac_xor_block:idx <- 0
	@DEBUG_VALUE: mbedtls_cipher_cmac_finish:ret <- -110
	.loc	2 0 5                           @ ../../../components/network/thread/subg_openthread/third_party/mbedtls/repo/library/cmac.c:0:5
	add	r0, sp, #44
	add	r1, sp, #24
	mov	r2, r7
	mov	r3, r11
.Ltmp103:
	.p2align	2
.LBB2_17:                               @ =>This Inner Loop Header: Depth=1
	@DEBUG_VALUE: cmac_xor_block:input1 <- $r11
	@DEBUG_VALUE: mbedtls_cipher_cmac_finish:last_block <- $r11
	@DEBUG_VALUE: mbedtls_cipher_cmac_finish:state <- $r9
	@DEBUG_VALUE: mbedtls_cipher_cmac_finish:cmac_ctx <- $r9
	@DEBUG_VALUE: mbedtls_cipher_cmac_finish:output <- $r8
	@DEBUG_VALUE: cmac_xor_block:block_size <- $r7
	@DEBUG_VALUE: mbedtls_cipher_cmac_finish:block_size <- $r7
	@DEBUG_VALUE: mbedtls_cipher_cmac_finish:ctx <- $r6
	@DEBUG_VALUE: cmac_xor_block:output <- [DW_OP_plus_uconst 44, DW_OP_stack_value] $sp
	@DEBUG_VALUE: cmac_xor_block:input2 <- [DW_OP_plus_uconst 24, DW_OP_stack_value] $sp
	@DEBUG_VALUE: mbedtls_cipher_cmac_finish:ret <- -110
	@DEBUG_VALUE: cmac_xor_block:idx <- undef
	.loc	2 158 25 is_stmt 1              @ ../../../components/network/thread/subg_openthread/third_party/mbedtls/repo/library/cmac.c:158:25
	ldrb	r4, [r3], #1
	.loc	2 158 41 is_stmt 0              @ ../../../components/network/thread/subg_openthread/third_party/mbedtls/repo/library/cmac.c:158:41
	ldrb	r5, [r1], #1
	.loc	2 157 23 is_stmt 1              @ ../../../components/network/thread/subg_openthread/third_party/mbedtls/repo/library/cmac.c:157:23
	subs	r2, #1
	.loc	2 158 39                        @ ../../../components/network/thread/subg_openthread/third_party/mbedtls/repo/library/cmac.c:158:39
	eor.w	r5, r5, r4
	.loc	2 158 23 is_stmt 0              @ ../../../components/network/thread/subg_openthread/third_party/mbedtls/repo/library/cmac.c:158:23
	strb	r5, [r0], #1
.Ltmp104:
	@DEBUG_VALUE: cmac_xor_block:idx <- [DW_OP_plus_uconst 1, DW_OP_stack_value] undef
	.loc	2 157 5 is_stmt 1               @ ../../../components/network/thread/subg_openthread/third_party/mbedtls/repo/library/cmac.c:157:5
	bne	.LBB2_17
.Ltmp105:
.LBB2_18:
	@DEBUG_VALUE: mbedtls_cipher_cmac_finish:last_block <- $r11
	@DEBUG_VALUE: mbedtls_cipher_cmac_finish:state <- $r9
	@DEBUG_VALUE: mbedtls_cipher_cmac_finish:cmac_ctx <- $r9
	@DEBUG_VALUE: mbedtls_cipher_cmac_finish:output <- $r8
	@DEBUG_VALUE: mbedtls_cipher_cmac_finish:block_size <- $r7
	@DEBUG_VALUE: mbedtls_cipher_cmac_finish:ctx <- $r6
	@DEBUG_VALUE: mbedtls_cipher_cmac_finish:ret <- -110
	@DEBUG_VALUE: cmac_xor_block:output <- $r9
	@DEBUG_VALUE: cmac_xor_block:input2 <- $r9
	@DEBUG_VALUE: cmac_xor_block:block_size <- $r7
	@DEBUG_VALUE: cmac_xor_block:idx <- 0
	@DEBUG_VALUE: cmac_xor_block:input1 <- [DW_OP_plus_uconst 44, DW_OP_stack_value] $sp
	.loc	2 157 5 is_stmt 0               @ ../../../components/network/thread/subg_openthread/third_party/mbedtls/repo/library/cmac.c:157:5
	cbz	r7, .LBB2_21
.Ltmp106:
@ %bb.19:
	@DEBUG_VALUE: mbedtls_cipher_cmac_finish:last_block <- $r11
	@DEBUG_VALUE: cmac_xor_block:input2 <- $r9
	@DEBUG_VALUE: cmac_xor_block:output <- $r9
	@DEBUG_VALUE: mbedtls_cipher_cmac_finish:state <- $r9
	@DEBUG_VALUE: mbedtls_cipher_cmac_finish:cmac_ctx <- $r9
	@DEBUG_VALUE: mbedtls_cipher_cmac_finish:output <- $r8
	@DEBUG_VALUE: cmac_xor_block:block_size <- $r7
	@DEBUG_VALUE: mbedtls_cipher_cmac_finish:block_size <- $r7
	@DEBUG_VALUE: mbedtls_cipher_cmac_finish:ctx <- $r6
	@DEBUG_VALUE: cmac_xor_block:input1 <- [DW_OP_plus_uconst 44, DW_OP_stack_value] $sp
	@DEBUG_VALUE: cmac_xor_block:idx <- 0
	@DEBUG_VALUE: mbedtls_cipher_cmac_finish:ret <- -110
	.loc	2 0 5                           @ ../../../components/network/thread/subg_openthread/third_party/mbedtls/repo/library/cmac.c:0:5
	add	r0, sp, #44
	mov	r1, r7
	mov	r2, r9
.Ltmp107:
	.p2align	2
.LBB2_20:                               @ =>This Inner Loop Header: Depth=1
	@DEBUG_VALUE: mbedtls_cipher_cmac_finish:last_block <- $r11
	@DEBUG_VALUE: cmac_xor_block:input2 <- $r9
	@DEBUG_VALUE: cmac_xor_block:output <- $r9
	@DEBUG_VALUE: mbedtls_cipher_cmac_finish:state <- $r9
	@DEBUG_VALUE: mbedtls_cipher_cmac_finish:cmac_ctx <- $r9
	@DEBUG_VALUE: mbedtls_cipher_cmac_finish:output <- $r8
	@DEBUG_VALUE: cmac_xor_block:block_size <- $r7
	@DEBUG_VALUE: mbedtls_cipher_cmac_finish:block_size <- $r7
	@DEBUG_VALUE: mbedtls_cipher_cmac_finish:ctx <- $r6
	@DEBUG_VALUE: cmac_xor_block:input1 <- [DW_OP_plus_uconst 44, DW_OP_stack_value] $sp
	@DEBUG_VALUE: mbedtls_cipher_cmac_finish:ret <- -110
	@DEBUG_VALUE: cmac_xor_block:idx <- undef
	.loc	2 158 25 is_stmt 1              @ ../../../components/network/thread/subg_openthread/third_party/mbedtls/repo/library/cmac.c:158:25
	ldrb	r3, [r0], #1
	.loc	2 158 41 is_stmt 0              @ ../../../components/network/thread/subg_openthread/third_party/mbedtls/repo/library/cmac.c:158:41
	ldrb	r5, [r2]
	.loc	2 157 23 is_stmt 1              @ ../../../components/network/thread/subg_openthread/third_party/mbedtls/repo/library/cmac.c:157:23
	subs	r1, #1
	.loc	2 158 39                        @ ../../../components/network/thread/subg_openthread/third_party/mbedtls/repo/library/cmac.c:158:39
	eor.w	r3, r3, r5
	.loc	2 158 23 is_stmt 0              @ ../../../components/network/thread/subg_openthread/third_party/mbedtls/repo/library/cmac.c:158:23
	strb	r3, [r2], #1
.Ltmp108:
	@DEBUG_VALUE: cmac_xor_block:idx <- [DW_OP_plus_uconst 1, DW_OP_stack_value] undef
	.loc	2 157 5 is_stmt 1               @ ../../../components/network/thread/subg_openthread/third_party/mbedtls/repo/library/cmac.c:157:5
	bne	.LBB2_20
.Ltmp109:
.LBB2_21:
	@DEBUG_VALUE: mbedtls_cipher_cmac_finish:last_block <- $r11
	@DEBUG_VALUE: mbedtls_cipher_cmac_finish:state <- $r9
	@DEBUG_VALUE: mbedtls_cipher_cmac_finish:cmac_ctx <- $r9
	@DEBUG_VALUE: mbedtls_cipher_cmac_finish:output <- $r8
	@DEBUG_VALUE: mbedtls_cipher_cmac_finish:block_size <- $r7
	@DEBUG_VALUE: mbedtls_cipher_cmac_finish:ctx <- $r6
	@DEBUG_VALUE: mbedtls_cipher_cmac_finish:ret <- -110
	@DEBUG_VALUE: mbedtls_cipher_cmac_finish:olen <- [DW_OP_plus_uconst 40, DW_OP_deref] $sp
	.loc	2 332 17                        @ ../../../components/network/thread/subg_openthread/third_party/mbedtls/repo/library/cmac.c:332:17
	mov	r0, r6
	mov	r1, r9
	mov	r2, r7
	mov	r3, r9
	str.w	r10, [sp]
	bl	mbedtls_cipher_update
.Ltmp110:
	mov	r4, r0
.Ltmp111:
	@DEBUG_VALUE: mbedtls_cipher_cmac_finish:ret <- $r4
	.loc	2 332 9 is_stmt 0               @ ../../../components/network/thread/subg_openthread/third_party/mbedtls/repo/library/cmac.c:332:9
	cbnz	r0, .LBB2_23
.Ltmp112:
@ %bb.22:
	@DEBUG_VALUE: mbedtls_cipher_cmac_finish:last_block <- $r11
	@DEBUG_VALUE: mbedtls_cipher_cmac_finish:state <- $r9
	@DEBUG_VALUE: mbedtls_cipher_cmac_finish:cmac_ctx <- $r9
	@DEBUG_VALUE: mbedtls_cipher_cmac_finish:output <- $r8
	@DEBUG_VALUE: mbedtls_cipher_cmac_finish:block_size <- $r7
	@DEBUG_VALUE: mbedtls_cipher_cmac_finish:ctx <- $r6
	@DEBUG_VALUE: mbedtls_cipher_cmac_finish:ret <- $r4
	@DEBUG_VALUE: mbedtls_cipher_cmac_finish:olen <- [DW_OP_plus_uconst 40, DW_OP_deref] $sp
	.loc	2 338 5 is_stmt 1               @ ../../../components/network/thread/subg_openthread/third_party/mbedtls/repo/library/cmac.c:338:5
	mov	r0, r8
	mov	r1, r9
	mov	r2, r7
	bl	__aeabi_memcpy
.Ltmp113:
.LBB2_23:
	@DEBUG_VALUE: mbedtls_cipher_cmac_finish:last_block <- $r11
	@DEBUG_VALUE: mbedtls_cipher_cmac_finish:state <- $r9
	@DEBUG_VALUE: mbedtls_cipher_cmac_finish:cmac_ctx <- $r9
	@DEBUG_VALUE: mbedtls_cipher_cmac_finish:output <- $r8
	@DEBUG_VALUE: mbedtls_cipher_cmac_finish:block_size <- $r7
	@DEBUG_VALUE: mbedtls_cipher_cmac_finish:ctx <- $r6
	@DEBUG_VALUE: mbedtls_cipher_cmac_finish:ret <- $r4
	@DEBUG_VALUE: mbedtls_cipher_cmac_finish:olen <- [DW_OP_plus_uconst 40, DW_OP_deref] $sp
	@DEBUG_LABEL: mbedtls_cipher_cmac_finish:exit
	.loc	2 0 5 is_stmt 0                 @ ../../../components/network/thread/subg_openthread/third_party/mbedtls/repo/library/cmac.c:0:5
	add	r0, sp, #24
	.loc	2 343 5 is_stmt 1               @ ../../../components/network/thread/subg_openthread/third_party/mbedtls/repo/library/cmac.c:343:5
	movs	r1, #16
	bl	mbedtls_platform_zeroize
.Ltmp114:
	.loc	2 0 5 is_stmt 0                 @ ../../../components/network/thread/subg_openthread/third_party/mbedtls/repo/library/cmac.c:0:5
	add	r0, sp, #8
	.loc	2 344 5 is_stmt 1               @ ../../../components/network/thread/subg_openthread/third_party/mbedtls/repo/library/cmac.c:344:5
	movs	r1, #16
	bl	mbedtls_platform_zeroize
.Ltmp115:
	.loc	2 0 5 is_stmt 0                 @ ../../../components/network/thread/subg_openthread/third_party/mbedtls/repo/library/cmac.c:0:5
	movs	r0, #0
	.loc	2 346 31 is_stmt 1              @ ../../../components/network/thread/subg_openthread/third_party/mbedtls/repo/library/cmac.c:346:31
	str.w	r0, [r9, #32]
	.loc	2 347 5                         @ ../../../components/network/thread/subg_openthread/third_party/mbedtls/repo/library/cmac.c:347:5
	mov	r0, r11
	movs	r1, #16
	bl	mbedtls_platform_zeroize
.Ltmp116:
	.loc	2 350 5                         @ ../../../components/network/thread/subg_openthread/third_party/mbedtls/repo/library/cmac.c:350:5
	mov	r0, r9
	movs	r1, #16
	bl	mbedtls_platform_zeroize
.Ltmp117:
.LBB2_24:
	.loc	2 352 1                         @ ../../../components/network/thread/subg_openthread/third_party/mbedtls/repo/library/cmac.c:352:1
	mov	r0, r4
	add	sp, #60
	pop.w	{r4, r5, r6, r7, r8, r9, r10, r11, pc}
.Ltmp118:
.Lfunc_end2:
	.size	mbedtls_cipher_cmac_finish, .Lfunc_end2-mbedtls_cipher_cmac_finish
	.cfi_endproc
	.file	4 "D:\\Rafael-IoT-SDK-Internal-main\\examples\\das_subg_thread\\keil" "../../../components/network/thread/subg_openthread/third_party/mbedtls/repo/include\\mbedtls/cmac.h"
	.cantunwind
	.fnend
                                        @ -- End function
	.section	.text.mbedtls_cipher_cmac_reset,"ax",%progbits
	.hidden	mbedtls_cipher_cmac_reset       @ -- Begin function mbedtls_cipher_cmac_reset
	.globl	mbedtls_cipher_cmac_reset
	.p2align	1
	.type	mbedtls_cipher_cmac_reset,%function
	.code	16                              @ @mbedtls_cipher_cmac_reset
	.thumb_func
mbedtls_cipher_cmac_reset:
.Lfunc_begin3:
	.loc	2 355 0                         @ ../../../components/network/thread/subg_openthread/third_party/mbedtls/repo/library/cmac.c:355:0
	.fnstart
	.cfi_startproc
@ %bb.0:
	@DEBUG_VALUE: mbedtls_cipher_cmac_reset:ctx <- $r0
	@DEBUG_VALUE: mbedtls_cipher_cmac_reset:ctx <- $r0
	.save	{r4, r5, r7, lr}
	push	{r4, r5, r7, lr}
	.cfi_def_cfa_offset 16
	.cfi_offset lr, -4
	.cfi_offset r7, -8
	.cfi_offset r5, -12
	.cfi_offset r4, -16
	movw	r4, #40704
	movt	r4, #65535
.Ltmp119:
	.loc	2 358 21 prologue_end           @ ../../../components/network/thread/subg_openthread/third_party/mbedtls/repo/library/cmac.c:358:21
	cbz	r0, .LBB3_4
.Ltmp120:
@ %bb.1:
	@DEBUG_VALUE: mbedtls_cipher_cmac_reset:ctx <- $r0
	.loc	2 358 29 is_stmt 0              @ ../../../components/network/thread/subg_openthread/third_party/mbedtls/repo/library/cmac.c:358:29
	ldr	r1, [r0]
	.loc	2 358 49                        @ ../../../components/network/thread/subg_openthread/third_party/mbedtls/repo/library/cmac.c:358:49
	cbz	r1, .LBB3_4
.Ltmp121:
@ %bb.2:
	@DEBUG_VALUE: mbedtls_cipher_cmac_reset:ctx <- $r0
	.loc	2 358 57                        @ ../../../components/network/thread/subg_openthread/third_party/mbedtls/repo/library/cmac.c:358:57
	ldr	r5, [r0, #56]
.Ltmp122:
	.loc	2 358 9                         @ ../../../components/network/thread/subg_openthread/third_party/mbedtls/repo/library/cmac.c:358:9
	cbz	r5, .LBB3_4
.Ltmp123:
@ %bb.3:
	@DEBUG_VALUE: mbedtls_cipher_cmac_reset:ctx <- $r0
	@DEBUG_VALUE: mbedtls_cipher_cmac_reset:cmac_ctx <- $r5
	.loc	2 0 9                           @ ../../../components/network/thread/subg_openthread/third_party/mbedtls/repo/library/cmac.c:0:9
	movs	r4, #0
	.loc	2 365 31 is_stmt 1              @ ../../../components/network/thread/subg_openthread/third_party/mbedtls/repo/library/cmac.c:365:31
	add.w	r0, r5, #16
.Ltmp124:
	@DEBUG_VALUE: mbedtls_cipher_cmac_reset:ctx <- [DW_OP_LLVM_entry_value 1] $r0
	.loc	2 365 5 is_stmt 0               @ ../../../components/network/thread/subg_openthread/third_party/mbedtls/repo/library/cmac.c:365:5
	movs	r1, #16
	.loc	2 364 31 is_stmt 1              @ ../../../components/network/thread/subg_openthread/third_party/mbedtls/repo/library/cmac.c:364:31
	str	r4, [r5, #32]
	.loc	2 365 5                         @ ../../../components/network/thread/subg_openthread/third_party/mbedtls/repo/library/cmac.c:365:5
	bl	mbedtls_platform_zeroize
.Ltmp125:
	.loc	2 367 5                         @ ../../../components/network/thread/subg_openthread/third_party/mbedtls/repo/library/cmac.c:367:5
	mov	r0, r5
	movs	r1, #16
	bl	mbedtls_platform_zeroize
.Ltmp126:
.LBB3_4:
	.loc	2 371 1                         @ ../../../components/network/thread/subg_openthread/third_party/mbedtls/repo/library/cmac.c:371:1
	mov	r0, r4
	pop	{r4, r5, r7, pc}
.Ltmp127:
.Lfunc_end3:
	.size	mbedtls_cipher_cmac_reset, .Lfunc_end3-mbedtls_cipher_cmac_reset
	.cfi_endproc
	.cantunwind
	.fnend
                                        @ -- End function
	.section	.text.mbedtls_cipher_cmac,"ax",%progbits
	.hidden	mbedtls_cipher_cmac             @ -- Begin function mbedtls_cipher_cmac
	.globl	mbedtls_cipher_cmac
	.p2align	1
	.type	mbedtls_cipher_cmac,%function
	.code	16                              @ @mbedtls_cipher_cmac
	.thumb_func
mbedtls_cipher_cmac:
.Lfunc_begin4:
	.loc	2 377 0                         @ ../../../components/network/thread/subg_openthread/third_party/mbedtls/repo/library/cmac.c:377:0
	.fnstart
	.cfi_startproc
@ %bb.0:
	@DEBUG_VALUE: mbedtls_cipher_cmac:cipher_info <- $r0
	@DEBUG_VALUE: mbedtls_cipher_cmac:key <- $r1
	@DEBUG_VALUE: mbedtls_cipher_cmac:keylen <- $r2
	@DEBUG_VALUE: mbedtls_cipher_cmac:input <- $r3
	@DEBUG_VALUE: mbedtls_cipher_cmac:input <- $r3
	@DEBUG_VALUE: mbedtls_cipher_cmac:keylen <- $r2
	@DEBUG_VALUE: mbedtls_cipher_cmac:key <- $r1
	@DEBUG_VALUE: mbedtls_cipher_cmac:cipher_info <- $r0
	.save	{r4, r5, r6, r7, r8, r9, lr}
	push.w	{r4, r5, r6, r7, r8, r9, lr}
	.cfi_def_cfa_offset 28
	.cfi_offset lr, -4
	.cfi_offset r9, -8
	.cfi_offset r8, -12
	.cfi_offset r7, -16
	.cfi_offset r6, -20
	.cfi_offset r5, -24
	.cfi_offset r4, -28
	.pad	#60
	sub	sp, #60
	.cfi_def_cfa_offset 88
.Ltmp128:
	@DEBUG_VALUE: mbedtls_cipher_cmac:output <- [DW_OP_plus_uconst 92] [$sp+0]
	@DEBUG_VALUE: mbedtls_cipher_cmac:ilen <- [DW_OP_plus_uconst 88] [$sp+0]
	movw	r6, #40704
	movt	r6, #65535
.Ltmp129:
	@DEBUG_VALUE: mbedtls_cipher_cmac:ret <- -110
	.loc	2 381 29 prologue_end           @ ../../../components/network/thread/subg_openthread/third_party/mbedtls/repo/library/cmac.c:381:29
	cbz	r0, .LBB4_9
.Ltmp130:
@ %bb.1:
	@DEBUG_VALUE: mbedtls_cipher_cmac:input <- $r3
	@DEBUG_VALUE: mbedtls_cipher_cmac:keylen <- $r2
	@DEBUG_VALUE: mbedtls_cipher_cmac:key <- $r1
	@DEBUG_VALUE: mbedtls_cipher_cmac:cipher_info <- $r0
	@DEBUG_VALUE: mbedtls_cipher_cmac:ilen <- [DW_OP_plus_uconst 88] [$sp+0]
	@DEBUG_VALUE: mbedtls_cipher_cmac:output <- [DW_OP_plus_uconst 92] [$sp+0]
	@DEBUG_VALUE: mbedtls_cipher_cmac:ret <- -110
	@DEBUG_VALUE: mbedtls_cipher_cmac:input <- $r3
	@DEBUG_VALUE: mbedtls_cipher_cmac:keylen <- $r2
	.loc	2 0 29 is_stmt 0                @ ../../../components/network/thread/subg_openthread/third_party/mbedtls/repo/library/cmac.c:0:29
	mov	r5, r1
.Ltmp131:
	@DEBUG_VALUE: mbedtls_cipher_cmac:key <- $r5
	@DEBUG_VALUE: mbedtls_cipher_cmac:cipher_info <- $r0
	.loc	2 381 29                        @ ../../../components/network/thread/subg_openthread/third_party/mbedtls/repo/library/cmac.c:381:29
	cbz	r1, .LBB4_9
.Ltmp132:
@ %bb.2:
	@DEBUG_VALUE: mbedtls_cipher_cmac:key <- $r5
	@DEBUG_VALUE: mbedtls_cipher_cmac:input <- $r3
	@DEBUG_VALUE: mbedtls_cipher_cmac:keylen <- $r2
	@DEBUG_VALUE: mbedtls_cipher_cmac:cipher_info <- $r0
	@DEBUG_VALUE: mbedtls_cipher_cmac:ilen <- [DW_OP_plus_uconst 88] [$sp+0]
	@DEBUG_VALUE: mbedtls_cipher_cmac:output <- [DW_OP_plus_uconst 92] [$sp+0]
	@DEBUG_VALUE: mbedtls_cipher_cmac:ret <- -110
	.loc	2 0 29                          @ ../../../components/network/thread/subg_openthread/third_party/mbedtls/repo/library/cmac.c:0:29
	mov	r4, r3
.Ltmp133:
	@DEBUG_VALUE: mbedtls_cipher_cmac:input <- $r4
	@DEBUG_VALUE: mbedtls_cipher_cmac:keylen <- $r2
	@DEBUG_VALUE: mbedtls_cipher_cmac:cipher_info <- $r0
	.loc	2 381 29                        @ ../../../components/network/thread/subg_openthread/third_party/mbedtls/repo/library/cmac.c:381:29
	cbz	r3, .LBB4_9
.Ltmp134:
@ %bb.3:
	@DEBUG_VALUE: mbedtls_cipher_cmac:key <- $r5
	@DEBUG_VALUE: mbedtls_cipher_cmac:input <- $r4
	@DEBUG_VALUE: mbedtls_cipher_cmac:keylen <- $r2
	@DEBUG_VALUE: mbedtls_cipher_cmac:cipher_info <- $r0
	@DEBUG_VALUE: mbedtls_cipher_cmac:ilen <- [DW_OP_plus_uconst 88] [$sp+0]
	@DEBUG_VALUE: mbedtls_cipher_cmac:output <- [DW_OP_plus_uconst 92] [$sp+0]
	@DEBUG_VALUE: mbedtls_cipher_cmac:ret <- -110
	@DEBUG_VALUE: mbedtls_cipher_cmac:keylen <- $r2
	@DEBUG_VALUE: mbedtls_cipher_cmac:cipher_info <- $r0
	.loc	2 0 29                          @ ../../../components/network/thread/subg_openthread/third_party/mbedtls/repo/library/cmac.c:0:29
	ldr.w	r8, [sp, #92]
	.loc	2 381 29                        @ ../../../components/network/thread/subg_openthread/third_party/mbedtls/repo/library/cmac.c:381:29
	cmp.w	r8, #0
	beq	.LBB4_9
.Ltmp135:
@ %bb.4:
	@DEBUG_VALUE: mbedtls_cipher_cmac:key <- $r5
	@DEBUG_VALUE: mbedtls_cipher_cmac:input <- $r4
	@DEBUG_VALUE: mbedtls_cipher_cmac:keylen <- $r2
	@DEBUG_VALUE: mbedtls_cipher_cmac:cipher_info <- $r0
	@DEBUG_VALUE: mbedtls_cipher_cmac:ilen <- [DW_OP_plus_uconst 88] [$sp+0]
	@DEBUG_VALUE: mbedtls_cipher_cmac:output <- [DW_OP_plus_uconst 92] [$sp+0]
	@DEBUG_VALUE: mbedtls_cipher_cmac:ret <- -110
	.loc	2 0 29                          @ ../../../components/network/thread/subg_openthread/third_party/mbedtls/repo/library/cmac.c:0:29
	mov	r6, sp
	mov	r7, r0
.Ltmp136:
	@DEBUG_VALUE: mbedtls_cipher_cmac:cipher_info <- $r7
	@DEBUG_VALUE: mbedtls_cipher_cmac:cipher_info <- $r7
	.loc	2 384 5 is_stmt 1               @ ../../../components/network/thread/subg_openthread/third_party/mbedtls/repo/library/cmac.c:384:5
	mov	r0, r6
	mov	r9, r2
.Ltmp137:
	@DEBUG_VALUE: mbedtls_cipher_cmac:keylen <- $r9
	@DEBUG_VALUE: mbedtls_cipher_cmac:keylen <- $r9
	bl	mbedtls_cipher_init
.Ltmp138:
	.loc	2 386 17                        @ ../../../components/network/thread/subg_openthread/third_party/mbedtls/repo/library/cmac.c:386:17
	mov	r0, r6
	mov	r1, r7
	bl	mbedtls_cipher_setup
.Ltmp139:
	mov	r6, r0
.Ltmp140:
	@DEBUG_VALUE: mbedtls_cipher_cmac:ret <- $r6
	.loc	2 386 9 is_stmt 0               @ ../../../components/network/thread/subg_openthread/third_party/mbedtls/repo/library/cmac.c:386:9
	cbnz	r0, .LBB4_8
.Ltmp141:
@ %bb.5:
	@DEBUG_VALUE: mbedtls_cipher_cmac:keylen <- $r9
	@DEBUG_VALUE: mbedtls_cipher_cmac:cipher_info <- $r7
	@DEBUG_VALUE: mbedtls_cipher_cmac:ret <- $r6
	@DEBUG_VALUE: mbedtls_cipher_cmac:key <- $r5
	@DEBUG_VALUE: mbedtls_cipher_cmac:input <- $r4
	@DEBUG_VALUE: mbedtls_cipher_cmac:ilen <- [DW_OP_plus_uconst 88] [$sp+0]
	@DEBUG_VALUE: mbedtls_cipher_cmac:output <- [DW_OP_plus_uconst 92] [$sp+0]
	.loc	2 0 9                           @ ../../../components/network/thread/subg_openthread/third_party/mbedtls/repo/library/cmac.c:0:9
	mov	r0, sp
	.loc	2 389 11 is_stmt 1              @ ../../../components/network/thread/subg_openthread/third_party/mbedtls/repo/library/cmac.c:389:11
	mov	r1, r5
	mov	r2, r9
	bl	mbedtls_cipher_cmac_starts
.Ltmp142:
	mov	r6, r0
.Ltmp143:
	@DEBUG_VALUE: mbedtls_cipher_cmac:ret <- $r6
	.loc	2 390 9                         @ ../../../components/network/thread/subg_openthread/third_party/mbedtls/repo/library/cmac.c:390:9
	cbnz	r0, .LBB4_8
.Ltmp144:
@ %bb.6:
	@DEBUG_VALUE: mbedtls_cipher_cmac:keylen <- $r9
	@DEBUG_VALUE: mbedtls_cipher_cmac:cipher_info <- $r7
	@DEBUG_VALUE: mbedtls_cipher_cmac:ret <- $r6
	@DEBUG_VALUE: mbedtls_cipher_cmac:key <- $r5
	@DEBUG_VALUE: mbedtls_cipher_cmac:input <- $r4
	@DEBUG_VALUE: mbedtls_cipher_cmac:ilen <- [DW_OP_plus_uconst 88] [$sp+0]
	@DEBUG_VALUE: mbedtls_cipher_cmac:output <- [DW_OP_plus_uconst 92] [$sp+0]
	.loc	2 0 9 is_stmt 0                 @ ../../../components/network/thread/subg_openthread/third_party/mbedtls/repo/library/cmac.c:0:9
	ldr	r2, [sp, #88]
	mov	r0, sp
	.loc	2 393 11 is_stmt 1              @ ../../../components/network/thread/subg_openthread/third_party/mbedtls/repo/library/cmac.c:393:11
	mov	r1, r4
	bl	mbedtls_cipher_cmac_update
.Ltmp145:
	mov	r6, r0
.Ltmp146:
	@DEBUG_VALUE: mbedtls_cipher_cmac:ret <- $r6
	.loc	2 394 9                         @ ../../../components/network/thread/subg_openthread/third_party/mbedtls/repo/library/cmac.c:394:9
	cbnz	r0, .LBB4_8
.Ltmp147:
@ %bb.7:
	@DEBUG_VALUE: mbedtls_cipher_cmac:keylen <- $r9
	@DEBUG_VALUE: mbedtls_cipher_cmac:cipher_info <- $r7
	@DEBUG_VALUE: mbedtls_cipher_cmac:ret <- $r6
	@DEBUG_VALUE: mbedtls_cipher_cmac:key <- $r5
	@DEBUG_VALUE: mbedtls_cipher_cmac:input <- $r4
	@DEBUG_VALUE: mbedtls_cipher_cmac:ilen <- [DW_OP_plus_uconst 88] [$sp+0]
	@DEBUG_VALUE: mbedtls_cipher_cmac:output <- [DW_OP_plus_uconst 92] [$sp+0]
	.loc	2 0 9 is_stmt 0                 @ ../../../components/network/thread/subg_openthread/third_party/mbedtls/repo/library/cmac.c:0:9
	mov	r0, sp
	.loc	2 397 11 is_stmt 1              @ ../../../components/network/thread/subg_openthread/third_party/mbedtls/repo/library/cmac.c:397:11
	mov	r1, r8
	bl	mbedtls_cipher_cmac_finish
.Ltmp148:
	mov	r6, r0
.Ltmp149:
	@DEBUG_VALUE: mbedtls_cipher_cmac:ret <- $r6
.LBB4_8:
	@DEBUG_VALUE: mbedtls_cipher_cmac:keylen <- $r9
	@DEBUG_VALUE: mbedtls_cipher_cmac:cipher_info <- $r7
	@DEBUG_VALUE: mbedtls_cipher_cmac:ret <- $r6
	@DEBUG_VALUE: mbedtls_cipher_cmac:key <- $r5
	@DEBUG_VALUE: mbedtls_cipher_cmac:input <- $r4
	@DEBUG_VALUE: mbedtls_cipher_cmac:ilen <- [DW_OP_plus_uconst 88] [$sp+0]
	@DEBUG_VALUE: mbedtls_cipher_cmac:output <- [DW_OP_plus_uconst 92] [$sp+0]
	@DEBUG_VALUE: mbedtls_cipher_cmac:ret <- $r6
	@DEBUG_LABEL: mbedtls_cipher_cmac:exit
	.loc	2 0 11 is_stmt 0                @ ../../../components/network/thread/subg_openthread/third_party/mbedtls/repo/library/cmac.c:0:11
	mov	r0, sp
	.loc	2 400 5 is_stmt 1               @ ../../../components/network/thread/subg_openthread/third_party/mbedtls/repo/library/cmac.c:400:5
	bl	mbedtls_cipher_free
.Ltmp150:
.LBB4_9:
	@DEBUG_VALUE: mbedtls_cipher_cmac:ilen <- [DW_OP_plus_uconst 88] [$sp+0]
	@DEBUG_VALUE: mbedtls_cipher_cmac:output <- [DW_OP_plus_uconst 92] [$sp+0]
	.loc	2 403 1                         @ ../../../components/network/thread/subg_openthread/third_party/mbedtls/repo/library/cmac.c:403:1
	mov	r0, r6
	add	sp, #60
	pop.w	{r4, r5, r6, r7, r8, r9, pc}
.Ltmp151:
.Lfunc_end4:
	.size	mbedtls_cipher_cmac, .Lfunc_end4-mbedtls_cipher_cmac
	.cfi_endproc
	.cantunwind
	.fnend
                                        @ -- End function
	.section	.text.mbedtls_aes_cmac_prf_128,"ax",%progbits
	.hidden	mbedtls_aes_cmac_prf_128        @ -- Begin function mbedtls_aes_cmac_prf_128
	.globl	mbedtls_aes_cmac_prf_128
	.p2align	1
	.type	mbedtls_aes_cmac_prf_128,%function
	.code	16                              @ @mbedtls_aes_cmac_prf_128
	.thumb_func
mbedtls_aes_cmac_prf_128:
.Lfunc_begin5:
	.loc	2 412 0                         @ ../../../components/network/thread/subg_openthread/third_party/mbedtls/repo/library/cmac.c:412:0
	.fnstart
	.cfi_startproc
@ %bb.0:
	@DEBUG_VALUE: mbedtls_aes_cmac_prf_128:key <- $r0
	@DEBUG_VALUE: mbedtls_aes_cmac_prf_128:key_length <- $r1
	@DEBUG_VALUE: mbedtls_aes_cmac_prf_128:input <- $r2
	@DEBUG_VALUE: mbedtls_aes_cmac_prf_128:in_len <- $r3
	@DEBUG_VALUE: mbedtls_aes_cmac_prf_128:in_len <- $r3
	@DEBUG_VALUE: mbedtls_aes_cmac_prf_128:input <- $r2
	@DEBUG_VALUE: mbedtls_aes_cmac_prf_128:key_length <- $r1
	@DEBUG_VALUE: mbedtls_aes_cmac_prf_128:key <- $r0
	.save	{r4, r5, r6, r7, r8, r9, r10, lr}
	push.w	{r4, r5, r6, r7, r8, r9, r10, lr}
	.cfi_def_cfa_offset 32
	.cfi_offset lr, -4
	.cfi_offset r10, -8
	.cfi_offset r9, -12
	.cfi_offset r8, -16
	.cfi_offset r7, -20
	.cfi_offset r6, -24
	.cfi_offset r5, -28
	.cfi_offset r4, -32
	.pad	#40
	sub	sp, #40
	.cfi_def_cfa_offset 72
.Ltmp152:
	@DEBUG_VALUE: mbedtls_aes_cmac_prf_128:output <- [DW_OP_plus_uconst 72] [$sp+0]
	movw	r6, #40704
	movt	r6, #65535
.Ltmp153:
	@DEBUG_VALUE: mbedtls_aes_cmac_prf_128:ret <- -110
	.loc	2 418 21 prologue_end           @ ../../../components/network/thread/subg_openthread/third_party/mbedtls/repo/library/cmac.c:418:21
	cbz	r0, .LBB5_10
.Ltmp154:
@ %bb.1:
	@DEBUG_VALUE: mbedtls_aes_cmac_prf_128:in_len <- $r3
	@DEBUG_VALUE: mbedtls_aes_cmac_prf_128:input <- $r2
	@DEBUG_VALUE: mbedtls_aes_cmac_prf_128:key_length <- $r1
	@DEBUG_VALUE: mbedtls_aes_cmac_prf_128:key <- $r0
	@DEBUG_VALUE: mbedtls_aes_cmac_prf_128:output <- [DW_OP_plus_uconst 72] [$sp+0]
	@DEBUG_VALUE: mbedtls_aes_cmac_prf_128:ret <- -110
	@DEBUG_VALUE: mbedtls_aes_cmac_prf_128:in_len <- $r3
	.loc	2 0 21 is_stmt 0                @ ../../../components/network/thread/subg_openthread/third_party/mbedtls/repo/library/cmac.c:0:21
	mov	r4, r2
.Ltmp155:
	@DEBUG_VALUE: mbedtls_aes_cmac_prf_128:input <- $r4
	@DEBUG_VALUE: mbedtls_aes_cmac_prf_128:key_length <- $r1
	@DEBUG_VALUE: mbedtls_aes_cmac_prf_128:key <- $r0
	.loc	2 418 21                        @ ../../../components/network/thread/subg_openthread/third_party/mbedtls/repo/library/cmac.c:418:21
	cbz	r2, .LBB5_10
.Ltmp156:
@ %bb.2:
	@DEBUG_VALUE: mbedtls_aes_cmac_prf_128:input <- $r4
	@DEBUG_VALUE: mbedtls_aes_cmac_prf_128:in_len <- $r3
	@DEBUG_VALUE: mbedtls_aes_cmac_prf_128:key_length <- $r1
	@DEBUG_VALUE: mbedtls_aes_cmac_prf_128:key <- $r0
	@DEBUG_VALUE: mbedtls_aes_cmac_prf_128:output <- [DW_OP_plus_uconst 72] [$sp+0]
	@DEBUG_VALUE: mbedtls_aes_cmac_prf_128:ret <- -110
	@DEBUG_VALUE: mbedtls_aes_cmac_prf_128:in_len <- $r3
	@DEBUG_VALUE: mbedtls_aes_cmac_prf_128:key_length <- $r1
	@DEBUG_VALUE: mbedtls_aes_cmac_prf_128:key <- $r0
	.loc	2 0 21                          @ ../../../components/network/thread/subg_openthread/third_party/mbedtls/repo/library/cmac.c:0:21
	ldr.w	r10, [sp, #72]
	.loc	2 418 21                        @ ../../../components/network/thread/subg_openthread/third_party/mbedtls/repo/library/cmac.c:418:21
	cmp.w	r10, #0
	beq	.LBB5_10
.Ltmp157:
@ %bb.3:
	@DEBUG_VALUE: mbedtls_aes_cmac_prf_128:input <- $r4
	@DEBUG_VALUE: mbedtls_aes_cmac_prf_128:in_len <- $r3
	@DEBUG_VALUE: mbedtls_aes_cmac_prf_128:key_length <- $r1
	@DEBUG_VALUE: mbedtls_aes_cmac_prf_128:key <- $r0
	@DEBUG_VALUE: mbedtls_aes_cmac_prf_128:output <- [DW_OP_plus_uconst 72] [$sp+0]
	@DEBUG_VALUE: mbedtls_aes_cmac_prf_128:ret <- -110
	.loc	2 0 21                          @ ../../../components/network/thread/subg_openthread/third_party/mbedtls/repo/library/cmac.c:0:21
	mov	r5, r0
.Ltmp158:
	@DEBUG_VALUE: mbedtls_aes_cmac_prf_128:key <- $r5
	@DEBUG_VALUE: mbedtls_aes_cmac_prf_128:key <- $r5
	.loc	2 421 19 is_stmt 1              @ ../../../components/network/thread/subg_openthread/third_party/mbedtls/repo/library/cmac.c:421:19
	movs	r0, #2
	mov	r8, r3
.Ltmp159:
	@DEBUG_VALUE: mbedtls_aes_cmac_prf_128:in_len <- $r8
	@DEBUG_VALUE: mbedtls_aes_cmac_prf_128:in_len <- $r8
	.loc	2 0 19 is_stmt 0                @ ../../../components/network/thread/subg_openthread/third_party/mbedtls/repo/library/cmac.c:0:19
	mov	r7, r1
.Ltmp160:
	@DEBUG_VALUE: mbedtls_aes_cmac_prf_128:key_length <- $r7
	@DEBUG_VALUE: mbedtls_aes_cmac_prf_128:key_length <- $r7
	.loc	2 421 19                        @ ../../../components/network/thread/subg_openthread/third_party/mbedtls/repo/library/cmac.c:421:19
	bl	mbedtls_cipher_info_from_type
.Ltmp161:
	@DEBUG_VALUE: mbedtls_aes_cmac_prf_128:cipher_info <- $r0
	.loc	2 422 9 is_stmt 1               @ ../../../components/network/thread/subg_openthread/third_party/mbedtls/repo/library/cmac.c:422:9
	cbz	r0, .LBB5_6
.Ltmp162:
@ %bb.4:
	@DEBUG_VALUE: mbedtls_aes_cmac_prf_128:in_len <- $r8
	@DEBUG_VALUE: mbedtls_aes_cmac_prf_128:key_length <- $r7
	@DEBUG_VALUE: mbedtls_aes_cmac_prf_128:key <- $r5
	@DEBUG_VALUE: mbedtls_aes_cmac_prf_128:input <- $r4
	@DEBUG_VALUE: mbedtls_aes_cmac_prf_128:cipher_info <- $r0
	@DEBUG_VALUE: mbedtls_aes_cmac_prf_128:output <- [DW_OP_plus_uconst 72] [$sp+0]
	@DEBUG_VALUE: mbedtls_aes_cmac_prf_128:ret <- -110
	.loc	2 0 0 is_stmt 0                 @ ../../../components/network/thread/subg_openthread/third_party/mbedtls/repo/library/cmac.c:0:0
	mov	r9, r0
.Ltmp163:
	@DEBUG_VALUE: mbedtls_aes_cmac_prf_128:cipher_info <- $r9
	@DEBUG_VALUE: mbedtls_aes_cmac_prf_128:cipher_info <- $r9
	.loc	2 429 9 is_stmt 1               @ ../../../components/network/thread/subg_openthread/third_party/mbedtls/repo/library/cmac.c:429:9
	cmp	r7, #16
	bne	.LBB5_7
.Ltmp164:
@ %bb.5:
	@DEBUG_VALUE: mbedtls_aes_cmac_prf_128:cipher_info <- $r9
	@DEBUG_VALUE: mbedtls_aes_cmac_prf_128:in_len <- $r8
	@DEBUG_VALUE: mbedtls_aes_cmac_prf_128:key_length <- $r7
	@DEBUG_VALUE: mbedtls_aes_cmac_prf_128:key <- $r5
	@DEBUG_VALUE: mbedtls_aes_cmac_prf_128:input <- $r4
	@DEBUG_VALUE: mbedtls_aes_cmac_prf_128:output <- [DW_OP_plus_uconst 72] [$sp+0]
	@DEBUG_VALUE: mbedtls_aes_cmac_prf_128:ret <- -110
	.loc	2 0 9 is_stmt 0                 @ ../../../components/network/thread/subg_openthread/third_party/mbedtls/repo/library/cmac.c:0:9
	add	r0, sp, #8
.Ltmp165:
	.loc	2 432 9 is_stmt 1               @ ../../../components/network/thread/subg_openthread/third_party/mbedtls/repo/library/cmac.c:432:9
	mov	r1, r5
	movs	r2, #16
	bl	__aeabi_memcpy
.Ltmp166:
	.loc	2 0 9 is_stmt 0                 @ ../../../components/network/thread/subg_openthread/third_party/mbedtls/repo/library/cmac.c:0:9
	b	.LBB5_8
.Ltmp167:
.LBB5_6:
	@DEBUG_VALUE: mbedtls_aes_cmac_prf_128:in_len <- $r8
	@DEBUG_VALUE: mbedtls_aes_cmac_prf_128:key_length <- $r7
	@DEBUG_VALUE: mbedtls_aes_cmac_prf_128:key <- $r5
	@DEBUG_VALUE: mbedtls_aes_cmac_prf_128:input <- $r4
	@DEBUG_VALUE: mbedtls_aes_cmac_prf_128:cipher_info <- $r0
	@DEBUG_VALUE: mbedtls_aes_cmac_prf_128:output <- [DW_OP_plus_uconst 72] [$sp+0]
	@DEBUG_VALUE: mbedtls_aes_cmac_prf_128:ret <- -110
	adds	r6, #128
	b	.LBB5_9
.Ltmp168:
.LBB5_7:
	@DEBUG_VALUE: mbedtls_aes_cmac_prf_128:cipher_info <- $r9
	@DEBUG_VALUE: mbedtls_aes_cmac_prf_128:in_len <- $r8
	@DEBUG_VALUE: mbedtls_aes_cmac_prf_128:key_length <- $r7
	@DEBUG_VALUE: mbedtls_aes_cmac_prf_128:key <- $r5
	@DEBUG_VALUE: mbedtls_aes_cmac_prf_128:input <- $r4
	@DEBUG_VALUE: mbedtls_aes_cmac_prf_128:output <- [DW_OP_plus_uconst 72] [$sp+0]
	@DEBUG_VALUE: mbedtls_aes_cmac_prf_128:ret <- -110
	movs	r0, #0
.Ltmp169:
	.loc	2 436 9 is_stmt 1               @ ../../../components/network/thread/subg_openthread/third_party/mbedtls/repo/library/cmac.c:436:9
	strd	r0, r0, [sp, #32]
	strd	r0, r0, [sp, #24]
	add	r6, sp, #8
	add	r1, sp, #24
	.loc	2 438 15                        @ ../../../components/network/thread/subg_openthread/third_party/mbedtls/repo/library/cmac.c:438:15
	mov	r0, r9
	movs	r2, #128
	mov	r3, r5
	str	r7, [sp]
	str	r6, [sp, #4]
	bl	mbedtls_cipher_cmac
.Ltmp170:
	mov	r6, r0
.Ltmp171:
	@DEBUG_VALUE: mbedtls_aes_cmac_prf_128:ret <- $r6
	.loc	2 440 13                        @ ../../../components/network/thread/subg_openthread/third_party/mbedtls/repo/library/cmac.c:440:13
	cbnz	r0, .LBB5_9
.Ltmp172:
.LBB5_8:
	@DEBUG_VALUE: mbedtls_aes_cmac_prf_128:cipher_info <- $r9
	@DEBUG_VALUE: mbedtls_aes_cmac_prf_128:in_len <- $r8
	@DEBUG_VALUE: mbedtls_aes_cmac_prf_128:key_length <- $r7
	@DEBUG_VALUE: mbedtls_aes_cmac_prf_128:key <- $r5
	@DEBUG_VALUE: mbedtls_aes_cmac_prf_128:input <- $r4
	@DEBUG_VALUE: mbedtls_aes_cmac_prf_128:output <- [DW_OP_plus_uconst 72] [$sp+0]
	.loc	2 0 13 is_stmt 0                @ ../../../components/network/thread/subg_openthread/third_party/mbedtls/repo/library/cmac.c:0:13
	add	r1, sp, #8
	.loc	2 444 11 is_stmt 1              @ ../../../components/network/thread/subg_openthread/third_party/mbedtls/repo/library/cmac.c:444:11
	mov	r0, r9
	movs	r2, #128
	mov	r3, r4
	str.w	r8, [sp]
	str.w	r10, [sp, #4]
	bl	mbedtls_cipher_cmac
.Ltmp173:
	mov	r6, r0
.Ltmp174:
	@DEBUG_VALUE: mbedtls_aes_cmac_prf_128:ret <- $r6
.LBB5_9:
	@DEBUG_VALUE: mbedtls_aes_cmac_prf_128:in_len <- $r8
	@DEBUG_VALUE: mbedtls_aes_cmac_prf_128:key_length <- $r7
	@DEBUG_VALUE: mbedtls_aes_cmac_prf_128:key <- $r5
	@DEBUG_VALUE: mbedtls_aes_cmac_prf_128:input <- $r4
	@DEBUG_VALUE: mbedtls_aes_cmac_prf_128:output <- [DW_OP_plus_uconst 72] [$sp+0]
	@DEBUG_VALUE: mbedtls_aes_cmac_prf_128:ret <- $r6
	@DEBUG_LABEL: mbedtls_aes_cmac_prf_128:exit
	.loc	2 0 11 is_stmt 0                @ ../../../components/network/thread/subg_openthread/third_party/mbedtls/repo/library/cmac.c:0:11
	add	r0, sp, #8
	.loc	2 448 5 is_stmt 1               @ ../../../components/network/thread/subg_openthread/third_party/mbedtls/repo/library/cmac.c:448:5
	movs	r1, #16
	bl	mbedtls_platform_zeroize
.Ltmp175:
.LBB5_10:
	@DEBUG_VALUE: mbedtls_aes_cmac_prf_128:output <- [DW_OP_plus_uconst 72] [$sp+0]
	.loc	2 451 1                         @ ../../../components/network/thread/subg_openthread/third_party/mbedtls/repo/library/cmac.c:451:1
	mov	r0, r6
	add	sp, #40
	pop.w	{r4, r5, r6, r7, r8, r9, r10, pc}
.Ltmp176:
.Lfunc_end5:
	.size	mbedtls_aes_cmac_prf_128, .Lfunc_end5-mbedtls_aes_cmac_prf_128
	.cfi_endproc
	.cantunwind
	.fnend
                                        @ -- End function
	.section	.text.cmac_multiply_by_u,"ax",%progbits
	.p2align	1                               @ -- Begin function cmac_multiply_by_u
	.type	cmac_multiply_by_u,%function
	.code	16                              @ @cmac_multiply_by_u
	.thumb_func
cmac_multiply_by_u:
.Lfunc_begin6:
	.loc	2 69 0                          @ ../../../components/network/thread/subg_openthread/third_party/mbedtls/repo/library/cmac.c:69:0
	.fnstart
	.cfi_startproc
@ %bb.0:
	@DEBUG_VALUE: cmac_multiply_by_u:output <- $r0
	@DEBUG_VALUE: cmac_multiply_by_u:input <- $r1
	@DEBUG_VALUE: cmac_multiply_by_u:input <- $r1
	@DEBUG_VALUE: cmac_multiply_by_u:blocksize <- $r2
	@DEBUG_VALUE: cmac_multiply_by_u:blocksize <- $r2
	.loc	2 76 9 prologue_end             @ ../../../components/network/thread/subg_openthread/third_party/mbedtls/repo/library/cmac.c:76:9
	cmp	r2, #16
.Ltmp177:
	@DEBUG_VALUE: cmac_multiply_by_u:overflow <- 0
	@DEBUG_VALUE: cmac_multiply_by_u:R_64 <- 27
	@DEBUG_VALUE: cmac_multiply_by_u:R_128 <- -121
	@DEBUG_VALUE: cmac_multiply_by_u:output <- $r0
	beq	.LBB6_3
.Ltmp178:
@ %bb.1:
	@DEBUG_VALUE: cmac_multiply_by_u:blocksize <- $r2
	@DEBUG_VALUE: cmac_multiply_by_u:input <- $r1
	@DEBUG_VALUE: cmac_multiply_by_u:output <- $r0
	@DEBUG_VALUE: cmac_multiply_by_u:R_128 <- -121
	@DEBUG_VALUE: cmac_multiply_by_u:R_64 <- 27
	@DEBUG_VALUE: cmac_multiply_by_u:overflow <- 0
	cmp	r2, #8
	bne	.LBB6_7
.Ltmp179:
@ %bb.2:
	@DEBUG_VALUE: cmac_multiply_by_u:blocksize <- $r2
	@DEBUG_VALUE: cmac_multiply_by_u:input <- $r1
	@DEBUG_VALUE: cmac_multiply_by_u:output <- $r0
	@DEBUG_VALUE: cmac_multiply_by_u:R_128 <- -121
	@DEBUG_VALUE: cmac_multiply_by_u:R_64 <- 27
	@DEBUG_VALUE: cmac_multiply_by_u:overflow <- 0
	.loc	2 0 9 is_stmt 0                 @ ../../../components/network/thread/subg_openthread/third_party/mbedtls/repo/library/cmac.c:0:9
	mov.w	r12, #27
.Ltmp180:
	@DEBUG_VALUE: cmac_multiply_by_u:R_n <- 27
	b	.LBB6_4
.Ltmp181:
.LBB6_3:
	@DEBUG_VALUE: cmac_multiply_by_u:blocksize <- $r2
	@DEBUG_VALUE: cmac_multiply_by_u:input <- $r1
	@DEBUG_VALUE: cmac_multiply_by_u:output <- $r0
	@DEBUG_VALUE: cmac_multiply_by_u:R_128 <- -121
	@DEBUG_VALUE: cmac_multiply_by_u:R_64 <- 27
	@DEBUG_VALUE: cmac_multiply_by_u:overflow <- 0
	mov.w	r12, #135
.Ltmp182:
.LBB6_4:
	@DEBUG_VALUE: cmac_multiply_by_u:blocksize <- $r2
	@DEBUG_VALUE: cmac_multiply_by_u:input <- $r1
	@DEBUG_VALUE: cmac_multiply_by_u:output <- $r0
	@DEBUG_VALUE: cmac_multiply_by_u:R_128 <- -121
	@DEBUG_VALUE: cmac_multiply_by_u:R_64 <- 27
	@DEBUG_VALUE: cmac_multiply_by_u:overflow <- 0
	.save	{r4, r5, r6, lr}
	push	{r4, r5, r6, lr}
	.cfi_def_cfa_offset 16
	.cfi_offset lr, -4
	.cfi_offset r6, -8
	.cfi_offset r5, -12
	.cfi_offset r4, -16
.Ltmp183:
	@DEBUG_VALUE: cmac_multiply_by_u:R_n <- undef
	.loc	2 89 29 is_stmt 1               @ ../../../components/network/thread/subg_openthread/third_party/mbedtls/repo/library/cmac.c:89:29
	sub.w	lr, r2, #1
.Ltmp184:
	@DEBUG_VALUE: cmac_multiply_by_u:i <- $lr
	@DEBUG_VALUE: cmac_multiply_by_u:overflow <- undef
	.loc	2 89 5 is_stmt 0                @ ../../../components/network/thread/subg_openthread/third_party/mbedtls/repo/library/cmac.c:89:5
	subs	r3, r0, #1
	movs	r4, #0
.Ltmp185:
	.p2align	2
.LBB6_5:                                @ =>This Inner Loop Header: Depth=1
	@DEBUG_VALUE: cmac_multiply_by_u:input <- $r1
	@DEBUG_VALUE: cmac_multiply_by_u:output <- $r0
	@DEBUG_VALUE: cmac_multiply_by_u:R_128 <- -121
	@DEBUG_VALUE: cmac_multiply_by_u:R_64 <- 27
	@DEBUG_VALUE: cmac_multiply_by_u:i <- [DW_OP_constu 1, DW_OP_minus, DW_OP_stack_value] $r2
	.loc	2 91 21 is_stmt 1               @ ../../../components/network/thread/subg_openthread/third_party/mbedtls/repo/library/cmac.c:91:21
	adds	r5, r1, r2
	ldrb	r6, [r5, #-1]
	.loc	2 91 35 is_stmt 0               @ ../../../components/network/thread/subg_openthread/third_party/mbedtls/repo/library/cmac.c:91:35
	orr.w	r4, r4, r6, lsl #1
	.loc	2 91 19                         @ ../../../components/network/thread/subg_openthread/third_party/mbedtls/repo/library/cmac.c:91:19
	strb	r4, [r3, r2]
	.loc	2 92 20 is_stmt 1               @ ../../../components/network/thread/subg_openthread/third_party/mbedtls/repo/library/cmac.c:92:20
	ldrb	r4, [r5, #-1]
.Ltmp186:
	.loc	2 89 36                         @ ../../../components/network/thread/subg_openthread/third_party/mbedtls/repo/library/cmac.c:89:36
	subs	r2, #1
.Ltmp187:
	@DEBUG_VALUE: cmac_multiply_by_u:blocksize <- [DW_OP_LLVM_entry_value 1] $r2
	.loc	2 89 5 is_stmt 0                @ ../../../components/network/thread/subg_openthread/third_party/mbedtls/repo/library/cmac.c:89:5
	cmp	r2, #0
.Ltmp188:
	.loc	2 92 29 is_stmt 1               @ ../../../components/network/thread/subg_openthread/third_party/mbedtls/repo/library/cmac.c:92:29
	lsr.w	r4, r4, #7
.Ltmp189:
	@DEBUG_VALUE: cmac_multiply_by_u:i <- [DW_OP_constu 2, DW_OP_minus, DW_OP_stack_value] $r2
	@DEBUG_VALUE: cmac_multiply_by_u:overflow <- [DW_OP_LLVM_convert 8 7, DW_OP_LLVM_convert 32 7, DW_OP_constu 7, DW_OP_shra, DW_OP_LLVM_convert 32 7, DW_OP_LLVM_convert 8 7, DW_OP_stack_value] undef
	.loc	2 89 5                          @ ../../../components/network/thread/subg_openthread/third_party/mbedtls/repo/library/cmac.c:89:5
	bgt	.LBB6_5
.Ltmp190:
@ %bb.6:
	@DEBUG_VALUE: cmac_multiply_by_u:i <- [DW_OP_constu 2, DW_OP_minus, DW_OP_stack_value] $r2
	@DEBUG_VALUE: cmac_multiply_by_u:input <- $r1
	@DEBUG_VALUE: cmac_multiply_by_u:output <- $r0
	@DEBUG_VALUE: cmac_multiply_by_u:R_128 <- -121
	@DEBUG_VALUE: cmac_multiply_by_u:R_64 <- 27
	.loc	2 104 16                        @ ../../../components/network/thread/subg_openthread/third_party/mbedtls/repo/library/cmac.c:104:16
	ldrsb.w	r1, [r1]
.Ltmp191:
	@DEBUG_VALUE: cmac_multiply_by_u:input <- [DW_OP_LLVM_entry_value 1] $r1
	@DEBUG_VALUE: cmac_multiply_by_u:input <- [DW_OP_LLVM_entry_value 1] $r1
	@DEBUG_VALUE: cmac_multiply_by_u:mask <- undef
	.loc	2 109 29                        @ ../../../components/network/thread/subg_openthread/third_party/mbedtls/repo/library/cmac.c:109:29
	ldrb.w	r2, [r0, lr]
.Ltmp192:
	.loc	2 109 36 is_stmt 0              @ ../../../components/network/thread/subg_openthread/third_party/mbedtls/repo/library/cmac.c:109:36
	and.w	r1, r12, r1, lsr #7
	.loc	2 109 29                        @ ../../../components/network/thread/subg_openthread/third_party/mbedtls/repo/library/cmac.c:109:29
	eors	r1, r2
	strb.w	r1, [r0, lr]
	movs	r0, #0
.Ltmp193:
	@DEBUG_VALUE: cmac_multiply_by_u:output <- [DW_OP_LLVM_entry_value 1] $r0
	@DEBUG_VALUE: cmac_multiply_by_u:output <- [DW_OP_LLVM_entry_value 1] $r0
	.loc	2 0 29                          @ ../../../components/network/thread/subg_openthread/third_party/mbedtls/repo/library/cmac.c:0:29
	pop	{r4, r5, r6, pc}
.Ltmp194:
.LBB6_7:
	@DEBUG_VALUE: cmac_multiply_by_u:blocksize <- $r2
	@DEBUG_VALUE: cmac_multiply_by_u:input <- $r1
	@DEBUG_VALUE: cmac_multiply_by_u:output <- $r0
	@DEBUG_VALUE: cmac_multiply_by_u:R_128 <- -121
	@DEBUG_VALUE: cmac_multiply_by_u:R_64 <- 27
	@DEBUG_VALUE: cmac_multiply_by_u:overflow <- 0
	movw	r0, #40704
.Ltmp195:
	@DEBUG_VALUE: cmac_multiply_by_u:output <- [DW_OP_LLVM_entry_value 1] $r0
	movt	r0, #65535
	.loc	2 112 1 is_stmt 1               @ ../../../components/network/thread/subg_openthread/third_party/mbedtls/repo/library/cmac.c:112:1
	bx	lr
.Ltmp196:
.Lfunc_end6:
	.size	cmac_multiply_by_u, .Lfunc_end6-cmac_multiply_by_u
	.cfi_endproc
	.cantunwind
	.fnend
                                        @ -- End function
	.section	".note.GNU-stack","",%progbits
	.eabi_attribute	30, 3	@ Tag_ABI_optimization_goals
	.ARM_attribute	16, 1	@ Tag_AV_eba