	.text
	.syntax unified
	.eabi_attribute	67, "2.09"	@ Tag_conformance
	.cpu	cortex-m3
	.eabi_attribute	6, 10	@ Tag_CPU_arch
	.eabi_attribute	7, 77	@ Tag_CPU_arch_profile
	.eabi_attribute	8, 0	@ Tag_ARM_ISA_use
	.eabi_attribute	9, 2	@ Tag_THUMB_ISA_use
	.eabi_attribute	34, 1	@ Tag_CPU_unaligned_access
	.eabi_attribute	17, 1	@ Tag_ABI_PCS_GOT_use
	.eabi_attribute	20, 2	@ Tag_ABI_FP_denormal
	.eabi_attribute	21, 0	@ Tag_ABI_FP_exceptions
	.eabi_attribute	23, 1	@ Tag_ABI_FP_number_model
	.eabi_attribute	24, 1	@ Tag_ABI_align_needed
	.eabi_attribute	25, 1	@ Tag_ABI_align_preserved
	.eabi_attribute	38, 1	@ Tag_ABI_FP_16bit_format
	.eabi_attribute	18, 4	@ Tag_ABI_PCS_wchar_t
	.eabi_attribute	26, 2	@ Tag_ABI_enum_size
	.eabi_attribute	14, 0	@ Tag_ABI_PCS_R9_use
	.file	"constant_time.c"
	.file	1 "C:\\" "Keil_v5\\ARM\\ARMCLANG\\Bin\\..\\include\\stdio.h"
	.section	.text.mbedtls_ct_memcmp,"ax",%progbits
	.hidden	mbedtls_ct_memcmp               @ -- Begin function mbedtls_ct_memcmp
	.globl	mbedtls_ct_memcmp
	.p2align	1
	.type	mbedtls_ct_memcmp,%function
	.code	16                              @ @mbedtls_ct_memcmp
	.thumb_func
mbedtls_ct_memcmp:
.Lfunc_begin0:
	.file	2 "C:\\Users\\testo\\Desktop\\rafael-iot-sdk-das -0515\\examples\\das_subg_thread\\keil" "../../../components/network/thread/subg_openthread/third_party/mbedtls/repo/library/constant_time.c"
	.loc	2 52 0                          @ ../../../components/network/thread/subg_openthread/third_party/mbedtls/repo/library/constant_time.c:52:0
	.fnstart
	.cfi_sections .debug_frame
	.cfi_startproc
@ %bb.0:
	@DEBUG_VALUE: mbedtls_ct_memcmp:a <- $r0
	@DEBUG_VALUE: mbedtls_ct_memcmp:b <- $r1
	@DEBUG_VALUE: mbedtls_ct_memcmp:n <- $r2
	.save	{r4, lr}
	push	{r4, lr}
	.cfi_def_cfa_offset 8
	.cfi_offset lr, -4
	.cfi_offset r4, -8
	.pad	#4
	sub	sp, #4
	.cfi_def_cfa_offset 12
.Ltmp0:
	@DEBUG_VALUE: mbedtls_ct_memcmp:A <- undef
	@DEBUG_VALUE: mbedtls_ct_memcmp:B <- undef
	movs	r3, #0
	@DEBUG_VALUE: mbedtls_ct_memcmp:n <- $r2
	@DEBUG_VALUE: mbedtls_ct_memcmp:b <- $r1
	@DEBUG_VALUE: mbedtls_ct_memcmp:a <- $r0
.Ltmp1:
	.loc	2 58 5 prologue_end             @ ../../../components/network/thread/subg_openthread/third_party/mbedtls/repo/library/constant_time.c:58:5
	cmp	r2, #0
.Ltmp2:
	.p2align	2
.LBB0_1:                                @ =>This Inner Loop Header: Depth=1
	.loc	2 0 0 is_stmt 0                 @ ../../../components/network/thread/subg_openthread/third_party/mbedtls/repo/library/constant_time.c:0:0
	strb.w	r3, [sp, #3]
.Ltmp3:
	@DEBUG_VALUE: mbedtls_ct_memcmp:i <- [DW_OP_plus_uconst 1, DW_OP_stack_value] undef
	.loc	2 58 5                          @ ../../../components/network/thread/subg_openthread/third_party/mbedtls/repo/library/constant_time.c:58:5
	beq	.LBB0_3
.Ltmp4:
@ %bb.2:                                @   in Loop: Header=BB0_1 Depth=1
	@DEBUG_VALUE: mbedtls_ct_memcmp:i <- undef
	.loc	2 63 27 is_stmt 1               @ ../../../components/network/thread/subg_openthread/third_party/mbedtls/repo/library/constant_time.c:63:27
	ldrb	r12, [r0], #1
.Ltmp5:
	@DEBUG_VALUE: mbedtls_ct_memcmp:a <- [DW_OP_LLVM_entry_value 1] $r0
	@DEBUG_VALUE: x <- $r12
	.loc	2 63 37 is_stmt 0               @ ../../../components/network/thread/subg_openthread/third_party/mbedtls/repo/library/constant_time.c:63:37
	ldrb	lr, [r1], #1
.Ltmp6:
	@DEBUG_VALUE: mbedtls_ct_memcmp:b <- [DW_OP_LLVM_entry_value 1] $r1
	@DEBUG_VALUE: y <- $lr
	.loc	2 64 14 is_stmt 1               @ ../../../components/network/thread/subg_openthread/third_party/mbedtls/repo/library/constant_time.c:64:14
	ldrb.w	r4, [sp, #3]
	.loc	2 64 19 is_stmt 0               @ ../../../components/network/thread/subg_openthread/third_party/mbedtls/repo/library/constant_time.c:64:19
	eor.w	r3, lr, r12
	.loc	2 64 14                         @ ../../../components/network/thread/subg_openthread/third_party/mbedtls/repo/library/constant_time.c:64:14
	orrs	r3, r4
.Ltmp7:
	.loc	2 58 19 is_stmt 1               @ ../../../components/network/thread/subg_openthread/third_party/mbedtls/repo/library/constant_time.c:58:19
	subs	r2, #1
.Ltmp8:
	@DEBUG_VALUE: mbedtls_ct_memcmp:n <- [DW_OP_LLVM_entry_value 1] $r2
	.loc	2 0 19 is_stmt 0                @ ../../../components/network/thread/subg_openthread/third_party/mbedtls/repo/library/constant_time.c:0:19
	b	.LBB0_1
.Ltmp9:
.LBB0_3:
	.loc	2 67 18 is_stmt 1               @ ../../../components/network/thread/subg_openthread/third_party/mbedtls/repo/library/constant_time.c:67:18
	ldrb.w	r0, [sp, #3]
.Ltmp10:
	@DEBUG_VALUE: mbedtls_ct_memcmp:a <- [DW_OP_LLVM_entry_value 1] $r0
	.loc	2 67 5 is_stmt 0                @ ../../../components/network/thread/subg_openthread/third_party/mbedtls/repo/library/constant_time.c:67:5
	add	sp, #4
	pop	{r4, pc}
.Ltmp11:
.Lfunc_end0:
	.size	mbedtls_ct_memcmp, .Lfunc_end0-mbedtls_ct_memcmp
	.cfi_endproc
	.cantunwind
	.fnend
                                        @ -- End function
	.section	.text.mbedtls_ct_uint_mask,"ax",%progbits
	.hidden	mbedtls_ct_uint_mask            @ -- Begin function mbedtls_ct_uint_mask
	.globl	mbedtls_ct_uint_mask
	.p2align	1
	.type	mbedtls_ct_uint_mask,%function
	.code	16                              @ @mbedtls_ct_uint_mask
	.thumb_func
mbedtls_ct_uint_mask:
.Lfunc_begin1:
	.loc	2 71 0 is_stmt 1                @ ../../../components/network/thread/subg_openthread/third_party/mbedtls/repo/library/constant_time.c:71:0
	.fnstart
	.cfi_startproc
@ %bb.0:
	@DEBUG_VALUE: mbedtls_ct_uint_mask:value <- $r0
	@DEBUG_VALUE: mbedtls_ct_uint_mask:value <- $r0
	.loc	2 78 27 prologue_end            @ ../../../components/network/thread/subg_openthread/third_party/mbedtls/repo/library/constant_time.c:78:27
	rsbs	r1, r0, #0
	.loc	2 78 25 is_stmt 0               @ ../../../components/network/thread/subg_openthread/third_party/mbedtls/repo/library/constant_time.c:78:25
	orrs	r0, r1
.Ltmp12:
	@DEBUG_VALUE: mbedtls_ct_uint_mask:value <- [DW_OP_LLVM_entry_value 1] $r0
	.loc	2 78 37                         @ ../../../components/network/thread/subg_openthread/third_party/mbedtls/repo/library/constant_time.c:78:37
	asrs	r0, r0, #31
	.loc	2 78 5                          @ ../../../components/network/thread/subg_openthread/third_party/mbedtls/repo/library/constant_time.c:78:5
	bx	lr
.Ltmp13:
.Lfunc_end1:
	.size	mbedtls_ct_uint_mask, .Lfunc_end1-mbedtls_ct_uint_mask
	.cfi_endproc
	.cantunwind
	.fnend
                                        @ -- End function
	.section	.text.mbedtls_ct_mpi_uint_mask,"ax",%progbits
	.hidden	mbedtls_ct_mpi_uint_mask        @ -- Begin function mbedtls_ct_mpi_uint_mask
	.globl	mbedtls_ct_mpi_uint_mask
	.p2align	1
	.type	mbedtls_ct_mpi_uint_mask,%function
	.code	16                              @ @mbedtls_ct_mpi_uint_mask
	.thumb_func
mbedtls_ct_mpi_uint_mask:
.Lfunc_begin2:
	.loc	2 105 0 is_stmt 1               @ ../../../components/network/thread/subg_openthread/third_party/mbedtls/repo/library/constant_time.c:105:0
	.fnstart
	.cfi_startproc
@ %bb.0:
	@DEBUG_VALUE: mbedtls_ct_mpi_uint_mask:value <- $r0
	@DEBUG_VALUE: mbedtls_ct_mpi_uint_mask:value <- $r0
	.loc	2 112 27 prologue_end           @ ../../../components/network/thread/subg_openthread/third_party/mbedtls/repo/library/constant_time.c:112:27
	rsbs	r1, r0, #0
	.loc	2 112 25 is_stmt 0              @ ../../../components/network/thread/subg_openthread/third_party/mbedtls/repo/library/constant_time.c:112:25
	orrs	r0, r1
.Ltmp14:
	@DEBUG_VALUE: mbedtls_ct_mpi_uint_mask:value <- [DW_OP_LLVM_entry_value 1] $r0
	.loc	2 112 37                        @ ../../../components/network/thread/subg_openthread/third_party/mbedtls/repo/library/constant_time.c:112:37
	asrs	r0, r0, #31
	.loc	2 112 5                         @ ../../../components/network/thread/subg_openthread/third_party/mbedtls/repo/library/constant_time.c:112:5
	bx	lr
.Ltmp15:
.Lfunc_end2:
	.size	mbedtls_ct_mpi_uint_mask, .Lfunc_end2-mbedtls_ct_mpi_uint_mask
	.cfi_endproc
	.cantunwind
	.fnend
                                        @ -- End function
	.section	.text.mbedtls_ct_size_bool_eq,"ax",%progbits
	.hidden	mbedtls_ct_size_bool_eq         @ -- Begin function mbedtls_ct_size_bool_eq
	.globl	mbedtls_ct_size_bool_eq
	.p2align	1
	.type	mbedtls_ct_size_bool_eq,%function
	.code	16                              @ @mbedtls_ct_size_bool_eq
	.thumb_func
mbedtls_ct_size_bool_eq:
.Lfunc_begin3:
	.loc	2 179 0 is_stmt 1               @ ../../../components/network/thread/subg_openthread/third_party/mbedtls/repo/library/constant_time.c:179:0
	.fnstart
	.cfi_startproc
@ %bb.0:
	@DEBUG_VALUE: mbedtls_ct_size_bool_eq:x <- $r0
	@DEBUG_VALUE: mbedtls_ct_size_bool_eq:x <- $r0
	@DEBUG_VALUE: mbedtls_ct_size_bool_eq:y <- $r1
	@DEBUG_VALUE: mbedtls_ct_size_bool_eq:y <- $r1
	.loc	2 181 27 prologue_end           @ ../../../components/network/thread/subg_openthread/third_party/mbedtls/repo/library/constant_time.c:181:27
	eors	r0, r1
.Ltmp16:
	@DEBUG_VALUE: mbedtls_ct_size_bool_eq:x <- [DW_OP_LLVM_entry_value 1] $r0
	@DEBUG_VALUE: mbedtls_ct_size_bool_eq:diff <- $r0
	.loc	2 191 47                        @ ../../../components/network/thread/subg_openthread/third_party/mbedtls/repo/library/constant_time.c:191:47
	rsbs	r1, r0, #0
.Ltmp17:
	@DEBUG_VALUE: mbedtls_ct_size_bool_eq:y <- [DW_OP_LLVM_entry_value 1] $r1
	.loc	2 191 36 is_stmt 0              @ ../../../components/network/thread/subg_openthread/third_party/mbedtls/repo/library/constant_time.c:191:36
	orrs	r0, r1
.Ltmp18:
	@DEBUG_VALUE: mbedtls_ct_size_bool_eq:diff1 <- [DW_OP_constu 31, DW_OP_shr, DW_OP_stack_value] $r0
	@DEBUG_VALUE: mbedtls_ct_size_bool_eq:diff_msb <- $r0
	.loc	2 200 15 is_stmt 1              @ ../../../components/network/thread/subg_openthread/third_party/mbedtls/repo/library/constant_time.c:200:15
	mvns	r0, r0
.Ltmp19:
	lsrs	r0, r0, #31
	.loc	2 200 5 is_stmt 0               @ ../../../components/network/thread/subg_openthread/third_party/mbedtls/repo/library/constant_time.c:200:5
	bx	lr
.Ltmp20:
.Lfunc_end3:
	.size	mbedtls_ct_size_bool_eq, .Lfunc_end3-mbedtls_ct_size_bool_eq
	.cfi_endproc
	.cantunwind
	.fnend
                                        @ -- End function
	.section	.text.mbedtls_ct_mpi_uint_lt,"ax",%progbits
	.hidden	mbedtls_ct_mpi_uint_lt          @ -- Begin function mbedtls_ct_mpi_uint_lt
	.globl	mbedtls_ct_mpi_uint_lt
	.p2align	1
	.type	mbedtls_ct_mpi_uint_lt,%function
	.code	16                              @ @mbedtls_ct_mpi_uint_lt
	.thumb_func
mbedtls_ct_mpi_uint_lt:
.Lfunc_begin4:
	.loc	2 229 0 is_stmt 1               @ ../../../components/network/thread/subg_openthread/third_party/mbedtls/repo/library/constant_time.c:229:0
	.fnstart
	.cfi_startproc
@ %bb.0:
	@DEBUG_VALUE: mbedtls_ct_mpi_uint_lt:x <- $r0
	@DEBUG_VALUE: mbedtls_ct_mpi_uint_lt:x <- $r0
	@DEBUG_VALUE: mbedtls_ct_mpi_uint_lt:y <- $r1
	@DEBUG_VALUE: mbedtls_ct_mpi_uint_lt:y <- $r1
	.loc	2 236 16 prologue_end           @ ../../../components/network/thread/subg_openthread/third_party/mbedtls/repo/library/constant_time.c:236:16
	eor.w	r2, r1, r0
.Ltmp21:
	@DEBUG_VALUE: mbedtls_ct_mpi_uint_lt:cond <- $r2
	.loc	2 241 15                        @ ../../../components/network/thread/subg_openthread/third_party/mbedtls/repo/library/constant_time.c:241:15
	subs	r0, r0, r1
.Ltmp22:
	@DEBUG_VALUE: mbedtls_ct_mpi_uint_lt:x <- [DW_OP_LLVM_entry_value 1] $r0
	.loc	2 241 21 is_stmt 0              @ ../../../components/network/thread/subg_openthread/third_party/mbedtls/repo/library/constant_time.c:241:21
	bics	r0, r2
.Ltmp23:
	@DEBUG_VALUE: mbedtls_ct_mpi_uint_lt:ret <- $r0
	.loc	2 247 14 is_stmt 1              @ ../../../components/network/thread/subg_openthread/third_party/mbedtls/repo/library/constant_time.c:247:14
	ands	r1, r2
.Ltmp24:
	@DEBUG_VALUE: mbedtls_ct_mpi_uint_lt:y <- [DW_OP_LLVM_entry_value 1] $r1
	.loc	2 247 9 is_stmt 0               @ ../../../components/network/thread/subg_openthread/third_party/mbedtls/repo/library/constant_time.c:247:9
	orrs	r0, r1
.Ltmp25:
	@DEBUG_VALUE: mbedtls_ct_mpi_uint_lt:ret <- $r0
	.loc	2 250 15 is_stmt 1              @ ../../../components/network/thread/subg_openthread/third_party/mbedtls/repo/library/constant_time.c:250:15
	lsrs	r0, r0, #31
.Ltmp26:
	@DEBUG_VALUE: mbedtls_ct_mpi_uint_lt:ret <- $r0
	.loc	2 252 5                         @ ../../../components/network/thread/subg_openthread/third_party/mbedtls/repo/library/constant_time.c:252:5
	bx	lr
.Ltmp27:
.Lfunc_end4:
	.size	mbedtls_ct_mpi_uint_lt, .Lfunc_end4-mbedtls_ct_mpi_uint_lt
	.cfi_endproc
	.cantunwind
	.fnend
                                        @ -- End function
	.section	.text.mbedtls_ct_uint_if,"ax",%progbits
	.hidden	mbedtls_ct_uint_if              @ -- Begin function mbedtls_ct_uint_if
	.globl	mbedtls_ct_uint_if
	.p2align	1
	.type	mbedtls_ct_uint_if,%function
	.code	16                              @ @mbedtls_ct_uint_if
	.thumb_func
mbedtls_ct_uint_if:
.Lfunc_begin5:
	.loc	2 260 0                         @ ../../../components/network/thread/subg_openthread/third_party/mbedtls/repo/library/constant_time.c:260:0
	.fnstart
	.cfi_startproc
@ %bb.0:
	@DEBUG_VALUE: mbedtls_ct_uint_if:condition <- $r0
	@DEBUG_VALUE: mbedtls_ct_uint_if:condition <- $r0
	@DEBUG_VALUE: mbedtls_ct_uint_if:if1 <- $r1
	@DEBUG_VALUE: mbedtls_ct_uint_if:if1 <- $r1
	@DEBUG_VALUE: mbedtls_ct_uint_if:if0 <- $r2
	@DEBUG_VALUE: mbedtls_ct_uint_if:if0 <- $r2
	@DEBUG_VALUE: mbedtls_ct_uint_mask:value <- $r0
	@DEBUG_VALUE: mbedtls_ct_uint_mask:value <- $r0
	.loc	2 78 27 prologue_end            @ ../../../components/network/thread/subg_openthread/third_party/mbedtls/repo/library/constant_time.c:78:27
	rsbs	r3, r0, #0
	.loc	2 78 25 is_stmt 0               @ ../../../components/network/thread/subg_openthread/third_party/mbedtls/repo/library/constant_time.c:78:25
	orrs	r0, r3
.Ltmp28:
	@DEBUG_VALUE: mbedtls_ct_uint_if:condition <- [DW_OP_LLVM_entry_value 1] $r0
	@DEBUG_VALUE: mbedtls_ct_uint_if:mask <- [DW_OP_constu 31, DW_OP_shra, DW_OP_stack_value] $r0
	.loc	2 262 28 is_stmt 1              @ ../../../components/network/thread/subg_openthread/third_party/mbedtls/repo/library/constant_time.c:262:28
	it	pl
	movpl	r1, r2
.Ltmp29:
	@DEBUG_VALUE: mbedtls_ct_uint_if:if1 <- [DW_OP_LLVM_entry_value 1] $r1
	.loc	2 262 5 is_stmt 0               @ ../../../components/network/thread/subg_openthread/third_party/mbedtls/repo/library/constant_time.c:262:5
	mov	r0, r1
.Ltmp30:
	bx	lr
.Ltmp31:
.Lfunc_end5:
	.size	mbedtls_ct_uint_if, .Lfunc_end5-mbedtls_ct_uint_if
	.cfi_endproc
	.cantunwind
	.fnend
                                        @ -- End function
	.section	.text.mbedtls_ct_mpi_uint_cond_assign,"ax",%progbits
	.hidden	mbedtls_ct_mpi_uint_cond_assign @ -- Begin function mbedtls_ct_mpi_uint_cond_assign
	.globl	mbedtls_ct_mpi_uint_cond_assign
	.p2align	1
	.type	mbedtls_ct_mpi_uint_cond_assign,%function
	.code	16                              @ @mbedtls_ct_mpi_uint_cond_assign
	.thumb_func
mbedtls_ct_mpi_uint_cond_assign:
.Lfunc_begin6:
	.loc	2 305 0 is_stmt 1               @ ../../../components/network/thread/subg_openthread/third_party/mbedtls/repo/library/constant_time.c:305:0
	.fnstart
	.cfi_startproc
@ %bb.0:
	@DEBUG_VALUE: mbedtls_ct_mpi_uint_cond_assign:n <- $r0
	@DEBUG_VALUE: mbedtls_ct_mpi_uint_cond_assign:n <- $r0
	@DEBUG_VALUE: mbedtls_ct_mpi_uint_cond_assign:dest <- $r1
	@DEBUG_VALUE: mbedtls_ct_mpi_uint_cond_assign:src <- $r2
	@DEBUG_VALUE: mbedtls_ct_mpi_uint_cond_assign:src <- $r2
	@DEBUG_VALUE: mbedtls_ct_mpi_uint_cond_assign:condition <- $r3
	@DEBUG_VALUE: mbedtls_ct_mpi_uint_cond_assign:condition <- $r3
	.save	{r4, lr}
	push	{r4, lr}
	.cfi_def_cfa_offset 8
	.cfi_offset lr, -4
	.cfi_offset r4, -8
.Ltmp32:
	@DEBUG_VALUE: mbedtls_ct_mpi_uint_cond_assign:mask <- undef
	@DEBUG_VALUE: mbedtls_ct_mpi_uint_cond_assign:i <- 0
	@DEBUG_VALUE: mbedtls_ct_mpi_uint_cond_assign:dest <- $r1
	.loc	2 322 5 prologue_end            @ ../../../components/network/thread/subg_openthread/third_party/mbedtls/repo/library/constant_time.c:322:5
	cbz	r0, .LBB6_3
.Ltmp33:
@ %bb.1:
	@DEBUG_VALUE: mbedtls_ct_mpi_uint_cond_assign:condition <- $r3
	@DEBUG_VALUE: mbedtls_ct_mpi_uint_cond_assign:src <- $r2
	@DEBUG_VALUE: mbedtls_ct_mpi_uint_cond_assign:dest <- $r1
	@DEBUG_VALUE: mbedtls_ct_mpi_uint_cond_assign:n <- $r0
	@DEBUG_VALUE: mbedtls_ct_mpi_uint_cond_assign:i <- 0
	.loc	2 0 5 is_stmt 0                 @ ../../../components/network/thread/subg_openthread/third_party/mbedtls/repo/library/constant_time.c:0:5
	rsb.w	r12, r3, #0
.Ltmp34:
	@DEBUG_VALUE: mbedtls_ct_mpi_uint_cond_assign:mask <- $r12
	sub.w	lr, r3, #1
.Ltmp35:
	.p2align	2
.LBB6_2:                                @ =>This Inner Loop Header: Depth=1
	@DEBUG_VALUE: mbedtls_ct_mpi_uint_cond_assign:mask <- $r12
	@DEBUG_VALUE: mbedtls_ct_mpi_uint_cond_assign:i <- undef
	.loc	2 323 21 is_stmt 1              @ ../../../components/network/thread/subg_openthread/third_party/mbedtls/repo/library/constant_time.c:323:21
	ldr	r3, [r2], #4
.Ltmp36:
	@DEBUG_VALUE: mbedtls_ct_mpi_uint_cond_assign:condition <- [DW_OP_LLVM_entry_value 1] $r3
	@DEBUG_VALUE: mbedtls_ct_mpi_uint_cond_assign:src <- [DW_OP_LLVM_entry_value 1] $r2
	.loc	2 323 41 is_stmt 0              @ ../../../components/network/thread/subg_openthread/third_party/mbedtls/repo/library/constant_time.c:323:41
	ldr	r4, [r1]
	.loc	2 323 28                        @ ../../../components/network/thread/subg_openthread/third_party/mbedtls/repo/library/constant_time.c:323:28
	and.w	r3, r3, r12
	.loc	2 323 49                        @ ../../../components/network/thread/subg_openthread/third_party/mbedtls/repo/library/constant_time.c:323:49
	and.w	r4, r4, lr
	.loc	2 323 37                        @ ../../../components/network/thread/subg_openthread/third_party/mbedtls/repo/library/constant_time.c:323:37
	orrs	r3, r4
	.loc	2 322 19 is_stmt 1              @ ../../../components/network/thread/subg_openthread/third_party/mbedtls/repo/library/constant_time.c:322:19
	subs	r0, #1
.Ltmp37:
	@DEBUG_VALUE: mbedtls_ct_mpi_uint_cond_assign:n <- [DW_OP_LLVM_entry_value 1] $r0
	.loc	2 323 17                        @ ../../../components/network/thread/subg_openthread/third_party/mbedtls/repo/library/constant_time.c:323:17
	str	r3, [r1], #4
.Ltmp38:
	@DEBUG_VALUE: mbedtls_ct_mpi_uint_cond_assign:dest <- [DW_OP_LLVM_entry_value 1] $r1
	@DEBUG_VALUE: mbedtls_ct_mpi_uint_cond_assign:i <- [DW_OP_plus_uconst 1, DW_OP_stack_value] undef
	.loc	2 322 5                         @ ../../../components/network/thread/subg_openthread/third_party/mbedtls/repo/library/constant_time.c:322:5
	bne	.LBB6_2
.Ltmp39:
.LBB6_3:
	.loc	2 324 1                         @ ../../../components/network/thread/subg_openthread/third_party/mbedtls/repo/library/constant_time.c:324:1
	pop	{r4, pc}
.Ltmp40:
.Lfunc_end6:
	.size	mbedtls_ct_mpi_uint_cond_assign, .Lfunc_end6-mbedtls_ct_mpi_uint_cond_assign
	.cfi_endproc
	.cantunwind
	.fnend
                                        @ -- End function
	.section	.text.mbedtls_ct_base64_enc_char,"ax",%progbits
	.hidden	mbedtls_ct_base64_enc_char      @ -- Begin function mbedtls_ct_base64_enc_char
	.globl	mbedtls_ct_base64_enc_char
	.p2align	1
	.type	mbedtls_ct_base64_enc_char,%function
	.code	16                              @ @mbedtls_ct_base64_enc_char
	.thumb_func
mbedtls_ct_base64_enc_char:
.Lfunc_begin7:
	.loc	2 331 0                         @ ../../../components/network/thread/subg_openthread/third_party/mbedtls/repo/library/constant_time.c:331:0
	.fnstart
	.cfi_startproc
@ %bb.0:
	@DEBUG_VALUE: mbedtls_ct_base64_enc_char:value <- $r0
	@DEBUG_VALUE: mbedtls_ct_base64_enc_char:value <- $r0
	@DEBUG_VALUE: mbedtls_ct_uchar_mask_of_range:c <- $r0
	@DEBUG_VALUE: mbedtls_ct_uchar_mask_of_range:c <- $r0
	@DEBUG_VALUE: mbedtls_ct_uchar_mask_of_range:low <- 0
	@DEBUG_VALUE: mbedtls_ct_uchar_mask_of_range:high <- 25
	@DEBUG_VALUE: mbedtls_ct_base64_enc_char:digit <- 0
	@DEBUG_VALUE: mbedtls_ct_uchar_mask_of_range:low_mask <- [DW_OP_LLVM_convert 8 7, DW_OP_LLVM_convert 32 7, DW_OP_constu 8, DW_OP_shr, DW_OP_stack_value] $r0
	.loc	2 171 44 prologue_end           @ ../../../components/network/thread/subg_openthread/third_party/mbedtls/repo/library/constant_time.c:171:44
	rsb.w	r1, r0, #25
.Ltmp41:
	@DEBUG_VALUE: mbedtls_ct_uchar_mask_of_range:high_mask <- [DW_OP_constu 8, DW_OP_shr, DW_OP_stack_value] $r1
	.loc	2 336 70                        @ ../../../components/network/thread/subg_openthread/third_party/mbedtls/repo/library/constant_time.c:336:70
	add.w	r2, r0, #65
	.loc	2 336 62 is_stmt 0              @ ../../../components/network/thread/subg_openthread/third_party/mbedtls/repo/library/constant_time.c:336:62
	bic.w	r1, r2, r1, lsr #8
.Ltmp42:
	@DEBUG_VALUE: mbedtls_ct_base64_enc_char:digit <- $r1
	.loc	2 0 62                          @ ../../../components/network/thread/subg_openthread/third_party/mbedtls/repo/library/constant_time.c:0:62
	movw	r2, #65510
.Ltmp43:
	@DEBUG_VALUE: mbedtls_ct_uchar_mask_of_range:c <- $r0
	@DEBUG_VALUE: mbedtls_ct_uchar_mask_of_range:high <- 51
	@DEBUG_VALUE: mbedtls_ct_uchar_mask_of_range:low <- 26
	.loc	2 169 40 is_stmt 1              @ ../../../components/network/thread/subg_openthread/third_party/mbedtls/repo/library/constant_time.c:169:40
	add	r2, r0
.Ltmp44:
	@DEBUG_VALUE: mbedtls_ct_uchar_mask_of_range:low_mask <- [DW_OP_plus_uconst 65510, DW_OP_constu 8, DW_OP_shr, DW_OP_stack_value] $r0
	.loc	2 171 44                        @ ../../../components/network/thread/subg_openthread/third_party/mbedtls/repo/library/constant_time.c:171:44
	rsb.w	r3, r0, #51
.Ltmp45:
	@DEBUG_VALUE: mbedtls_ct_uchar_mask_of_range:high_mask <- [DW_OP_constu 8, DW_OP_shr, DW_OP_stack_value] $r3
	.loc	2 172 25                        @ ../../../components/network/thread/subg_openthread/third_party/mbedtls/repo/library/constant_time.c:172:25
	orrs	r2, r3
.Ltmp46:
	.loc	2 337 78                        @ ../../../components/network/thread/subg_openthread/third_party/mbedtls/repo/library/constant_time.c:337:78
	add.w	r3, r0, #71
.Ltmp47:
	.loc	2 337 62 is_stmt 0              @ ../../../components/network/thread/subg_openthread/third_party/mbedtls/repo/library/constant_time.c:337:62
	bic.w	r2, r3, r2, lsr #8
	.loc	2 337 11                        @ ../../../components/network/thread/subg_openthread/third_party/mbedtls/repo/library/constant_time.c:337:11
	orrs	r1, r2
.Ltmp48:
	@DEBUG_VALUE: mbedtls_ct_base64_enc_char:digit <- $r1
	.loc	2 0 11                          @ ../../../components/network/thread/subg_openthread/third_party/mbedtls/repo/library/constant_time.c:0:11
	movw	r2, #65484
.Ltmp49:
	@DEBUG_VALUE: mbedtls_ct_uchar_mask_of_range:c <- $r0
	@DEBUG_VALUE: mbedtls_ct_uchar_mask_of_range:high <- 61
	@DEBUG_VALUE: mbedtls_ct_uchar_mask_of_range:low <- 52
	.loc	2 169 40 is_stmt 1              @ ../../../components/network/thread/subg_openthread/third_party/mbedtls/repo/library/constant_time.c:169:40
	add	r2, r0
.Ltmp50:
	@DEBUG_VALUE: mbedtls_ct_uchar_mask_of_range:low_mask <- [DW_OP_plus_uconst 65484, DW_OP_constu 8, DW_OP_shr, DW_OP_stack_value] $r0
	.loc	2 171 44                        @ ../../../components/network/thread/subg_openthread/third_party/mbedtls/repo/library/constant_time.c:171:44
	rsb.w	r3, r0, #61
.Ltmp51:
	@DEBUG_VALUE: mbedtls_ct_uchar_mask_of_range:high_mask <- [DW_OP_constu 8, DW_OP_shr, DW_OP_stack_value] $r3
	.loc	2 172 25                        @ ../../../components/network/thread/subg_openthread/third_party/mbedtls/repo/library/constant_time.c:172:25
	orrs	r2, r3
.Ltmp52:
	.loc	2 338 78                        @ ../../../components/network/thread/subg_openthread/third_party/mbedtls/repo/library/constant_time.c:338:78
	subs	r3, r0, #4
.Ltmp53:
	.loc	2 338 62 is_stmt 0              @ ../../../components/network/thread/subg_openthread/third_party/mbedtls/repo/library/constant_time.c:338:62
	bic.w	r2, r3, r2, lsr #8
	.loc	2 338 11                        @ ../../../components/network/thread/subg_openthread/third_party/mbedtls/repo/library/constant_time.c:338:11
	orrs	r1, r2
.Ltmp54:
	@DEBUG_VALUE: mbedtls_ct_base64_enc_char:digit <- $r1
	.loc	2 0 11                          @ ../../../components/network/thread/subg_openthread/third_party/mbedtls/repo/library/constant_time.c:0:11
	movw	r2, #16322
.Ltmp55:
	@DEBUG_VALUE: mbedtls_ct_uchar_mask_of_range:c <- $r0
	@DEBUG_VALUE: mbedtls_ct_uchar_mask_of_range:high <- 62
	@DEBUG_VALUE: mbedtls_ct_uchar_mask_of_range:low <- 62
	.loc	2 169 40 is_stmt 1              @ ../../../components/network/thread/subg_openthread/third_party/mbedtls/repo/library/constant_time.c:169:40
	add	r2, r0
.Ltmp56:
	@DEBUG_VALUE: mbedtls_ct_uchar_mask_of_range:low_mask <- [DW_OP_plus_uconst 65474, DW_OP_constu 8, DW_OP_shr, DW_OP_stack_value] $r0
	.loc	2 171 44                        @ ../../../components/network/thread/subg_openthread/third_party/mbedtls/repo/library/constant_time.c:171:44
	rsb.w	r3, r0, #62
.Ltmp57:
	@DEBUG_VALUE: mbedtls_ct_uchar_mask_of_range:high_mask <- [DW_OP_constu 8, DW_OP_shr, DW_OP_stack_value] $r3
	.loc	2 172 25                        @ ../../../components/network/thread/subg_openthread/third_party/mbedtls/repo/library/constant_time.c:172:25
	orrs	r2, r3
	movs	r3, #43
.Ltmp58:
	.loc	2 339 62                        @ ../../../components/network/thread/subg_openthread/third_party/mbedtls/repo/library/constant_time.c:339:62
	bic.w	r2, r3, r2, lsr #8
	.loc	2 339 11 is_stmt 0              @ ../../../components/network/thread/subg_openthread/third_party/mbedtls/repo/library/constant_time.c:339:11
	orrs	r1, r2
.Ltmp59:
	@DEBUG_VALUE: mbedtls_ct_base64_enc_char:digit <- $r1
	.loc	2 0 11                          @ ../../../components/network/thread/subg_openthread/third_party/mbedtls/repo/library/constant_time.c:0:11
	movw	r2, #16321
.Ltmp60:
	@DEBUG_VALUE: mbedtls_ct_uchar_mask_of_range:c <- $r0
	@DEBUG_VALUE: mbedtls_ct_uchar_mask_of_range:high <- 63
	@DEBUG_VALUE: mbedtls_ct_uchar_mask_of_range:low <- 63
	.loc	2 169 40 is_stmt 1              @ ../../../components/network/thread/subg_openthread/third_party/mbedtls/repo/library/constant_time.c:169:40
	add	r2, r0
.Ltmp61:
	@DEBUG_VALUE: mbedtls_ct_uchar_mask_of_range:low_mask <- [DW_OP_plus_uconst 65473, DW_OP_constu 8, DW_OP_shr, DW_OP_stack_value] $r0
	.loc	2 171 44                        @ ../../../components/network/thread/subg_openthread/third_party/mbedtls/repo/library/constant_time.c:171:44
	rsb.w	r0, r0, #63
.Ltmp62:
	@DEBUG_VALUE: mbedtls_ct_base64_enc_char:value <- [DW_OP_LLVM_entry_value 1] $r0
	@DEBUG_VALUE: mbedtls_ct_uchar_mask_of_range:high_mask <- [DW_OP_constu 8, DW_OP_shr, DW_OP_stack_value] $r0
	.loc	2 172 25                        @ ../../../components/network/thread/subg_openthread/third_party/mbedtls/repo/library/constant_time.c:172:25
	orrs	r0, r2
.Ltmp63:
	.loc	2 0 25 is_stmt 0                @ ../../../components/network/thread/subg_openthread/third_party/mbedtls/repo/library/constant_time.c:0:25
	movs	r2, #47
.Ltmp64:
	.loc	2 340 62 is_stmt 1              @ ../../../components/network/thread/subg_openthread/third_party/mbedtls/repo/library/constant_time.c:340:62
	bic.w	r0, r2, r0, lsr #8
	.loc	2 340 11 is_stmt 0              @ ../../../components/network/thread/subg_openthread/third_party/mbedtls/repo/library/constant_time.c:340:11
	orrs	r0, r1
.Ltmp65:
	@DEBUG_VALUE: mbedtls_ct_base64_enc_char:digit <- $r0
	.loc	2 341 5 is_stmt 1               @ ../../../components/network/thread/subg_openthread/third_party/mbedtls/repo/library/constant_time.c:341:5
	uxtb	r0, r0
.Ltmp66:
	bx	lr
.Ltmp67:
.Lfunc_end7:
	.size	mbedtls_ct_base64_enc_char, .Lfunc_end7-mbedtls_ct_base64_enc_char
	.cfi_endproc
	.cantunwind
	.fnend
                                        @ -- End function
	.section	.text.mbedtls_ct_base64_dec_value,"ax",%progbits
	.hidden	mbedtls_ct_base64_dec_value     @ -- Begin function mbedtls_ct_base64_dec_value
	.globl	mbedtls_ct_base64_dec_value
	.p2align	1
	.type	mbedtls_ct_base64_dec_value,%function
	.code	16                              @ @mbedtls_ct_base64_dec_value
	.thumb_func
mbedtls_ct_base64_dec_value:
.Lfunc_begin8:
	.loc	2 345 0                         @ ../../../components/network/thread/subg_openthread/third_party/mbedtls/repo/library/constant_time.c:345:0
	.fnstart
	.cfi_startproc
@ %bb.0:
	@DEBUG_VALUE: mbedtls_ct_base64_dec_value:c <- $r0
	@DEBUG_VALUE: mbedtls_ct_uchar_mask_of_range:c <- $r0
	movw	r1, #65471
.Ltmp68:
	@DEBUG_VALUE: mbedtls_ct_uchar_mask_of_range:high <- 90
	@DEBUG_VALUE: mbedtls_ct_uchar_mask_of_range:low <- 65
	@DEBUG_VALUE: mbedtls_ct_base64_dec_value:val <- 0
	@DEBUG_VALUE: mbedtls_ct_uchar_mask_of_range:c <- $r0
	@DEBUG_VALUE: mbedtls_ct_base64_dec_value:c <- $r0
	.loc	2 169 40 prologue_end           @ ../../../components/network/thread/subg_openthread/third_party/mbedtls/repo/library/constant_time.c:169:40
	add	r1, r0
.Ltmp69:
	@DEBUG_VALUE: mbedtls_ct_uchar_mask_of_range:low_mask <- [DW_OP_plus_uconst 65471, DW_OP_constu 8, DW_OP_shr, DW_OP_stack_value] $r0
	.loc	2 171 44                        @ ../../../components/network/thread/subg_openthread/third_party/mbedtls/repo/library/constant_time.c:171:44
	rsb.w	r2, r0, #90
.Ltmp70:
	@DEBUG_VALUE: mbedtls_ct_uchar_mask_of_range:high_mask <- [DW_OP_constu 8, DW_OP_shr, DW_OP_stack_value] $r2
	.loc	2 172 25                        @ ../../../components/network/thread/subg_openthread/third_party/mbedtls/repo/library/constant_time.c:172:25
	orrs	r1, r2
.Ltmp71:
	.loc	2 351 75                        @ ../../../components/network/thread/subg_openthread/third_party/mbedtls/repo/library/constant_time.c:351:75
	sub.w	r2, r0, #64
.Ltmp72:
	.loc	2 351 58 is_stmt 0              @ ../../../components/network/thread/subg_openthread/third_party/mbedtls/repo/library/constant_time.c:351:58
	bic.w	r1, r2, r1, lsr #8
.Ltmp73:
	@DEBUG_VALUE: mbedtls_ct_base64_dec_value:val <- $r1
	.loc	2 0 58                          @ ../../../components/network/thread/subg_openthread/third_party/mbedtls/repo/library/constant_time.c:0:58
	movw	r2, #65439
.Ltmp74:
	@DEBUG_VALUE: mbedtls_ct_uchar_mask_of_range:c <- $r0
	@DEBUG_VALUE: mbedtls_ct_uchar_mask_of_range:high <- 122
	@DEBUG_VALUE: mbedtls_ct_uchar_mask_of_range:low <- 97
	.loc	2 169 40 is_stmt 1              @ ../../../components/network/thread/subg_openthread/third_party/mbedtls/repo/library/constant_time.c:169:40
	add	r2, r0
.Ltmp75:
	@DEBUG_VALUE: mbedtls_ct_uchar_mask_of_range:low_mask <- [DW_OP_plus_uconst 65439, DW_OP_constu 8, DW_OP_shr, DW_OP_stack_value] $r0
	.loc	2 171 44                        @ ../../../components/network/thread/subg_openthread/third_party/mbedtls/repo/library/constant_time.c:171:44
	rsb.w	r3, r0, #122
.Ltmp76:
	@DEBUG_VALUE: mbedtls_ct_uchar_mask_of_range:high_mask <- [DW_OP_constu 8, DW_OP_shr, DW_OP_stack_value] $r3
	.loc	2 172 25                        @ ../../../components/network/thread/subg_openthread/third_party/mbedtls/repo/library/constant_time.c:172:25
	orrs	r2, r3
.Ltmp77:
	.loc	2 352 75                        @ ../../../components/network/thread/subg_openthread/third_party/mbedtls/repo/library/constant_time.c:352:75
	sub.w	r3, r0, #70
.Ltmp78:
	.loc	2 352 58 is_stmt 0              @ ../../../components/network/thread/subg_openthread/third_party/mbedtls/repo/library/constant_time.c:352:58
	bic.w	r2, r3, r2, lsr #8
	.loc	2 352 9                         @ ../../../components/network/thread/subg_openthread/third_party/mbedtls/repo/library/constant_time.c:352:9
	orrs	r1, r2
.Ltmp79:
	@DEBUG_VALUE: mbedtls_ct_base64_dec_value:val <- $r1
	.loc	2 0 9                           @ ../../../components/network/thread/subg_openthread/third_party/mbedtls/repo/library/constant_time.c:0:9
	movw	r2, #65488
.Ltmp80:
	@DEBUG_VALUE: mbedtls_ct_uchar_mask_of_range:c <- $r0
	@DEBUG_VALUE: mbedtls_ct_uchar_mask_of_range:high <- 57
	@DEBUG_VALUE: mbedtls_ct_uchar_mask_of_range:low <- 48
	.loc	2 169 40 is_stmt 1              @ ../../../components/network/thread/subg_openthread/third_party/mbedtls/repo/library/constant_time.c:169:40
	add	r2, r0
.Ltmp81:
	@DEBUG_VALUE: mbedtls_ct_uchar_mask_of_range:low_mask <- [DW_OP_plus_uconst 65488, DW_OP_constu 8, DW_OP_shr, DW_OP_stack_value] $r0
	.loc	2 171 44                        @ ../../../components/network/thread/subg_openthread/third_party/mbedtls/repo/library/constant_time.c:171:44
	rsb.w	r3, r0, #57
.Ltmp82:
	@DEBUG_VALUE: mbedtls_ct_uchar_mask_of_range:high_mask <- [DW_OP_constu 8, DW_OP_shr, DW_OP_stack_value] $r3
	.loc	2 172 25                        @ ../../../components/network/thread/subg_openthread/third_party/mbedtls/repo/library/constant_time.c:172:25
	orrs	r2, r3
.Ltmp83:
	.loc	2 353 75                        @ ../../../components/network/thread/subg_openthread/third_party/mbedtls/repo/library/constant_time.c:353:75
	adds	r3, r0, #5
.Ltmp84:
	.loc	2 353 58 is_stmt 0              @ ../../../components/network/thread/subg_openthread/third_party/mbedtls/repo/library/constant_time.c:353:58
	bic.w	r2, r3, r2, lsr #8
	.loc	2 353 9                         @ ../../../components/network/thread/subg_openthread/third_party/mbedtls/repo/library/constant_time.c:353:9
	orrs	r1, r2
.Ltmp85:
	@DEBUG_VALUE: mbedtls_ct_base64_dec_value:val <- $r1
	.loc	2 0 9                           @ ../../../components/network/thread/subg_openthread/third_party/mbedtls/repo/library/constant_time.c:0:9
	movw	r2, #65493
.Ltmp86:
	@DEBUG_VALUE: mbedtls_ct_uchar_mask_of_range:c <- $r0
	@DEBUG_VALUE: mbedtls_ct_uchar_mask_of_range:high <- 43
	@DEBUG_VALUE: mbedtls_ct_uchar_mask_of_range:low <- 43
	.loc	2 169 40 is_stmt 1              @ ../../../components/network/thread/subg_openthread/third_party/mbedtls/repo/library/constant_time.c:169:40
	add	r2, r0
.Ltmp87:
	@DEBUG_VALUE: mbedtls_ct_uchar_mask_of_range:low_mask <- [DW_OP_plus_uconst 65493, DW_OP_constu 8, DW_OP_shr, DW_OP_stack_value] $r0
	.loc	2 171 44                        @ ../../../components/network/thread/subg_openthread/third_party/mbedtls/repo/library/constant_time.c:171:44
	rsb.w	r3, r0, #43
.Ltmp88:
	@DEBUG_VALUE: mbedtls_ct_uchar_mask_of_range:high_mask <- [DW_OP_constu 8, DW_OP_shr, DW_OP_stack_value] $r3
	.loc	2 172 25                        @ ../../../components/network/thread/subg_openthread/third_party/mbedtls/repo/library/constant_time.c:172:25
	orrs	r2, r3
.Ltmp89:
	.loc	2 354 75                        @ ../../../components/network/thread/subg_openthread/third_party/mbedtls/repo/library/constant_time.c:354:75
	add.w	r3, r0, #20
.Ltmp90:
	.loc	2 354 58 is_stmt 0              @ ../../../components/network/thread/subg_openthread/third_party/mbedtls/repo/library/constant_time.c:354:58
	bic.w	r2, r3, r2, lsr #8
	.loc	2 354 9                         @ ../../../components/network/thread/subg_openthread/third_party/mbedtls/repo/library/constant_time.c:354:9
	orrs	r1, r2
.Ltmp91:
	@DEBUG_VALUE: mbedtls_ct_base64_dec_value:val <- $r1
	.loc	2 0 9                           @ ../../../components/network/thread/subg_openthread/third_party/mbedtls/repo/library/constant_time.c:0:9
	movw	r2, #65489
.Ltmp92:
	@DEBUG_VALUE: mbedtls_ct_uchar_mask_of_range:c <- $r0
	@DEBUG_VALUE: mbedtls_ct_uchar_mask_of_range:high <- 47
	@DEBUG_VALUE: mbedtls_ct_uchar_mask_of_range:low <- 47
	.loc	2 169 40 is_stmt 1              @ ../../../components/network/thread/subg_openthread/third_party/mbedtls/repo/library/constant_time.c:169:40
	add	r2, r0
.Ltmp93:
	@DEBUG_VALUE: mbedtls_ct_uchar_mask_of_range:low_mask <- [DW_OP_plus_uconst 65489, DW_OP_constu 8, DW_OP_shr, DW_OP_stack_value] $r0
	.loc	2 171 44                        @ ../../../components/network/thread/subg_openthread/third_party/mbedtls/repo/library/constant_time.c:171:44
	rsb.w	r3, r0, #47
.Ltmp94:
	@DEBUG_VALUE: mbedtls_ct_uchar_mask_of_range:high_mask <- [DW_OP_constu 8, DW_OP_shr, DW_OP_stack_value] $r3
	.loc	2 172 25                        @ ../../../components/network/thread/subg_openthread/third_party/mbedtls/repo/library/constant_time.c:172:25
	orrs	r2, r3
.Ltmp95:
	.loc	2 355 75                        @ ../../../components/network/thread/subg_openthread/third_party/mbedtls/repo/library/constant_time.c:355:75
	adds	r0, #17
.Ltmp96:
	@DEBUG_VALUE: mbedtls_ct_base64_dec_value:c <- [DW_OP_LLVM_entry_value 1] $r0
	.loc	2 355 58 is_stmt 0              @ ../../../components/network/thread/subg_openthread/third_party/mbedtls/repo/library/constant_time.c:355:58
	bic.w	r0, r0, r2, lsr #8
	.loc	2 355 9                         @ ../../../components/network/thread/subg_openthread/third_party/mbedtls/repo/library/constant_time.c:355:9
	orrs	r0, r1
.Ltmp97:
	@DEBUG_VALUE: mbedtls_ct_base64_dec_value:val <- $r0
	.loc	2 358 17 is_stmt 1              @ ../../../components/network/thread/subg_openthread/third_party/mbedtls/repo/library/constant_time.c:358:17
	subs	r0, #1
.Ltmp98:
	.loc	2 358 5 is_stmt 0               @ ../../../components/network/thread/subg_openthread/third_party/mbedtls/repo/library/constant_time.c:358:5
	sxtb	r0, r0
	bx	lr
.Ltmp99:
.Lfunc_end8:
	.size	mbedtls_ct_base64_dec_value, .Lfunc_end8-mbedtls_ct_base64_dec_value
	.cfi_endproc
	.cantunwind
	.fnend
                                        @ -- End function
	.section	.text.mbedtls_mpi_safe_cond_assign,"ax",%progbits
	.hidden	mbedtls_mpi_safe_cond_assign    @ -- Begin function mbedtls_mpi_safe_cond_assign
	.globl	mbedtls_mpi_safe_cond_assign
	.p2align	1
	.type	mbedtls_mpi_safe_cond_assign,%function
	.code	16                              @ @mbedtls_mpi_safe_cond_assign
	.thumb_func
mbedtls_mpi_safe_cond_assign:
.Lfunc_begin9:
	.loc	2 539 0 is_stmt 1               @ ../../../components/network/thread/subg_openthread/third_party/mbedtls/repo/library/constant_time.c:539:0
	.fnstart
	.cfi_startproc
@ %bb.0:
	@DEBUG_VALUE: mbedtls_mpi_safe_cond_assign:X <- $r0
	@DEBUG_VALUE: mbedtls_mpi_safe_cond_assign:Y <- $r1
	@DEBUG_VALUE: mbedtls_mpi_safe_cond_assign:assign <- $r2
	.save	{r4, r5, r6, r7, r8, r9, r10, lr}
	push.w	{r4, r5, r6, r7, r8, r9, r10, lr}
	.cfi_def_cfa_offset 32
	.cfi_offset lr, -4
	.cfi_offset r10, -8
	.cfi_offset r9, -12
	.cfi_offset r8, -16
	.cfi_offset r7, -20
	.cfi_offset r6, -24
	.cfi_offset r5, -28
	.cfi_offset r4, -32
	mov	r8, r1
.Ltmp100:
	@DEBUG_VALUE: mbedtls_mpi_safe_cond_assign:assign <- $r6
	@DEBUG_VALUE: mbedtls_mpi_safe_cond_assign:Y <- $r8
	.loc	2 549 5 prologue_end            @ ../../../components/network/thread/subg_openthread/third_party/mbedtls/repo/library/constant_time.c:549:5
	ldr	r1, [r1, #4]
	mov	r6, r2
.Ltmp101:
	.loc	2 0 5 is_stmt 0                 @ ../../../components/network/thread/subg_openthread/third_party/mbedtls/repo/library/constant_time.c:0:5
	mov	r9, r0
.Ltmp102:
	@DEBUG_VALUE: mbedtls_mpi_safe_cond_assign:limb_mask <- undef
	@DEBUG_VALUE: mbedtls_ct_mpi_uint_mask:value <- [DW_OP_LLVM_convert 8 7, DW_OP_LLVM_convert 32 7, DW_OP_stack_value] undef
	@DEBUG_VALUE: mbedtls_mpi_safe_cond_assign:ret <- 0
	@DEBUG_VALUE: mbedtls_mpi_safe_cond_assign:X <- $r9
	.loc	2 549 5                         @ ../../../components/network/thread/subg_openthread/third_party/mbedtls/repo/library/constant_time.c:549:5
	bl	mbedtls_mpi_grow
.Ltmp103:
	@DEBUG_VALUE: mbedtls_mpi_safe_cond_assign:ret <- $r0
	.loc	2 549 5                         @ ../../../components/network/thread/subg_openthread/third_party/mbedtls/repo/library/constant_time.c:549:5
	cbnz	r0, .LBB9_9
.Ltmp104:
@ %bb.1:
	@DEBUG_VALUE: mbedtls_mpi_safe_cond_assign:X <- $r9
	@DEBUG_VALUE: mbedtls_mpi_safe_cond_assign:Y <- $r8
	@DEBUG_VALUE: mbedtls_mpi_safe_cond_assign:ret <- $r0
	.loc	2 551 52 is_stmt 1              @ ../../../components/network/thread/subg_openthread/third_party/mbedtls/repo/library/constant_time.c:551:52
	ldm.w	r8, {r1, r3, r5}
	.loc	2 553 47                        @ ../../../components/network/thread/subg_openthread/third_party/mbedtls/repo/library/constant_time.c:553:47
	ldr.w	r7, [r9, #8]
.Ltmp105:
	@DEBUG_VALUE: mbedtls_ct_cond_select_sign:if0 <- $r1
	.loc	2 288 25                        @ ../../../components/network/thread/subg_openthread/third_party/mbedtls/repo/library/constant_time.c:288:25
	add.w	r12, r1, #1
.Ltmp106:
	@DEBUG_VALUE: mbedtls_ct_cond_select_sign:uif1 <- $r12
	.loc	2 551 58                        @ ../../../components/network/thread/subg_openthread/third_party/mbedtls/repo/library/constant_time.c:551:58
	ldr.w	r1, [r9]
.Ltmp107:
	.loc	2 0 0 is_stmt 0                 @ ../../../components/network/thread/subg_openthread/third_party/mbedtls/repo/library/constant_time.c:0:0
	rsb.w	r10, r6, #0
.Ltmp108:
	@DEBUG_VALUE: mbedtls_ct_cond_select_sign:if1 <- undef
	@DEBUG_VALUE: mbedtls_ct_mpi_uint_cond_assign:src <- undef
	@DEBUG_VALUE: mbedtls_mpi_safe_cond_assign:limb_mask <- undef
	.loc	2 289 25 is_stmt 1              @ ../../../components/network/thread/subg_openthread/third_party/mbedtls/repo/library/constant_time.c:289:25
	adds	r1, #1
.Ltmp109:
	@DEBUG_VALUE: mbedtls_ct_cond_select_sign:mask <- undef
	@DEBUG_VALUE: mbedtls_ct_cond_select_sign:uif0 <- $r1
	@DEBUG_VALUE: mbedtls_ct_cond_select_sign:uif1 <- $r12
	.loc	2 295 26                        @ ../../../components/network/thread/subg_openthread/third_party/mbedtls/repo/library/constant_time.c:295:26
	bic.w	lr, r1, r6, lsl #1
	.loc	2 295 45 is_stmt 0              @ ../../../components/network/thread/subg_openthread/third_party/mbedtls/repo/library/constant_time.c:295:45
	and.w	r1, r12, r6, lsl #1
.Ltmp110:
	@DEBUG_VALUE: mbedtls_ct_cond_select_sign:ur <- undef
	.loc	2 295 36                        @ ../../../components/network/thread/subg_openthread/third_party/mbedtls/repo/library/constant_time.c:295:36
	add	r1, lr
	.loc	2 298 22 is_stmt 1              @ ../../../components/network/thread/subg_openthread/third_party/mbedtls/repo/library/constant_time.c:298:22
	subs	r1, #1
.Ltmp111:
	@DEBUG_VALUE: mbedtls_ct_mpi_uint_cond_assign:condition <- undef
	@DEBUG_VALUE: mbedtls_ct_cond_select_sign:condition <- undef
	.loc	2 551 10                        @ ../../../components/network/thread/subg_openthread/third_party/mbedtls/repo/library/constant_time.c:551:10
	str.w	r1, [r9]
.Ltmp112:
	@DEBUG_VALUE: mbedtls_ct_mpi_uint_cond_assign:n <- $r3
	@DEBUG_VALUE: mbedtls_ct_mpi_uint_cond_assign:dest <- $r7
	@DEBUG_VALUE: mbedtls_ct_mpi_uint_cond_assign:i <- 0
	@DEBUG_VALUE: mbedtls_ct_mpi_uint_cond_assign:mask <- $r10
	.loc	2 322 5                         @ ../../../components/network/thread/subg_openthread/third_party/mbedtls/repo/library/constant_time.c:322:5
	cbz	r3, .LBB9_5
.Ltmp113:
@ %bb.2:
	@DEBUG_VALUE: mbedtls_ct_cond_select_sign:uif1 <- $r12
	@DEBUG_VALUE: mbedtls_ct_mpi_uint_cond_assign:mask <- $r10
	@DEBUG_VALUE: mbedtls_mpi_safe_cond_assign:X <- $r9
	@DEBUG_VALUE: mbedtls_mpi_safe_cond_assign:Y <- $r8
	@DEBUG_VALUE: mbedtls_ct_mpi_uint_cond_assign:dest <- $r7
	@DEBUG_VALUE: mbedtls_ct_mpi_uint_cond_assign:n <- $r3
	@DEBUG_VALUE: mbedtls_mpi_safe_cond_assign:ret <- $r0
	@DEBUG_VALUE: mbedtls_ct_mpi_uint_cond_assign:i <- 0
	.loc	2 0 5 is_stmt 0                 @ ../../../components/network/thread/subg_openthread/third_party/mbedtls/repo/library/constant_time.c:0:5
	subs	r6, #1
	mov	r1, r7
.Ltmp114:
	.p2align	2
.LBB9_3:                                @ =>This Inner Loop Header: Depth=1
	@DEBUG_VALUE: mbedtls_ct_mpi_uint_cond_assign:mask <- $r10
	@DEBUG_VALUE: mbedtls_mpi_safe_cond_assign:X <- $r9
	@DEBUG_VALUE: mbedtls_mpi_safe_cond_assign:Y <- $r8
	@DEBUG_VALUE: mbedtls_ct_mpi_uint_cond_assign:dest <- $r7
	@DEBUG_VALUE: mbedtls_mpi_safe_cond_assign:ret <- $r0
	@DEBUG_VALUE: mbedtls_ct_mpi_uint_cond_assign:i <- undef
	.loc	2 323 21 is_stmt 1              @ ../../../components/network/thread/subg_openthread/third_party/mbedtls/repo/library/constant_time.c:323:21
	ldr	r4, [r5], #4
	.loc	2 323 41 is_stmt 0              @ ../../../components/network/thread/subg_openthread/third_party/mbedtls/repo/library/constant_time.c:323:41
	ldr	r2, [r1]
	.loc	2 323 28                        @ ../../../components/network/thread/subg_openthread/third_party/mbedtls/repo/library/constant_time.c:323:28
	and.w	r4, r4, r10
	.loc	2 323 49                        @ ../../../components/network/thread/subg_openthread/third_party/mbedtls/repo/library/constant_time.c:323:49
	ands	r2, r6
	.loc	2 323 37                        @ ../../../components/network/thread/subg_openthread/third_party/mbedtls/repo/library/constant_time.c:323:37
	orrs	r2, r4
	.loc	2 322 19 is_stmt 1              @ ../../../components/network/thread/subg_openthread/third_party/mbedtls/repo/library/constant_time.c:322:19
	subs	r3, #1
	.loc	2 323 17                        @ ../../../components/network/thread/subg_openthread/third_party/mbedtls/repo/library/constant_time.c:323:17
	str	r2, [r1], #4
.Ltmp115:
	@DEBUG_VALUE: mbedtls_ct_mpi_uint_cond_assign:i <- [DW_OP_plus_uconst 1, DW_OP_stack_value] undef
	.loc	2 322 5                         @ ../../../components/network/thread/subg_openthread/third_party/mbedtls/repo/library/constant_time.c:322:5
	bne	.LBB9_3
.Ltmp116:
@ %bb.4:
	@DEBUG_VALUE: mbedtls_mpi_safe_cond_assign:X <- $r9
	@DEBUG_VALUE: mbedtls_mpi_safe_cond_assign:Y <- $r8
	@DEBUG_VALUE: mbedtls_mpi_safe_cond_assign:ret <- $r0
	.loc	2 555 17                        @ ../../../components/network/thread/subg_openthread/third_party/mbedtls/repo/library/constant_time.c:555:17
	ldr.w	r3, [r8, #4]
	b	.LBB9_6
.Ltmp117:
.LBB9_5:
	@DEBUG_VALUE: mbedtls_ct_cond_select_sign:uif1 <- $r12
	@DEBUG_VALUE: mbedtls_ct_mpi_uint_cond_assign:mask <- $r10
	@DEBUG_VALUE: mbedtls_mpi_safe_cond_assign:X <- $r9
	@DEBUG_VALUE: mbedtls_mpi_safe_cond_assign:Y <- $r8
	@DEBUG_VALUE: mbedtls_ct_mpi_uint_cond_assign:dest <- $r7
	@DEBUG_VALUE: mbedtls_ct_mpi_uint_cond_assign:n <- $r3
	@DEBUG_VALUE: mbedtls_mpi_safe_cond_assign:ret <- $r0
	@DEBUG_VALUE: mbedtls_ct_mpi_uint_cond_assign:i <- 0
	.loc	2 0 17 is_stmt 0                @ ../../../components/network/thread/subg_openthread/third_party/mbedtls/repo/library/constant_time.c:0:17
	movs	r3, #0
.Ltmp118:
.LBB9_6:
	@DEBUG_VALUE: mbedtls_mpi_safe_cond_assign:X <- $r9
	@DEBUG_VALUE: mbedtls_mpi_safe_cond_assign:Y <- $r8
	@DEBUG_VALUE: mbedtls_mpi_safe_cond_assign:ret <- $r0
	@DEBUG_VALUE: mbedtls_mpi_safe_cond_assign:limb_mask <- undef
	@DEBUG_VALUE: mbedtls_mpi_safe_cond_assign:i <- $r3
	.loc	2 555 27                        @ ../../../components/network/thread/subg_openthread/third_party/mbedtls/repo/library/constant_time.c:555:27
	ldr.w	r1, [r9, #4]
.Ltmp119:
	.loc	2 555 5                         @ ../../../components/network/thread/subg_openthread/third_party/mbedtls/repo/library/constant_time.c:555:5
	cmp	r3, r1
	bhs	.LBB9_9
.Ltmp120:
@ %bb.7:
	@DEBUG_VALUE: mbedtls_mpi_safe_cond_assign:X <- $r9
	@DEBUG_VALUE: mbedtls_mpi_safe_cond_assign:Y <- $r8
	@DEBUG_VALUE: mbedtls_mpi_safe_cond_assign:i <- $r3
	@DEBUG_VALUE: mbedtls_mpi_safe_cond_assign:ret <- $r0
	.loc	2 0 5                           @ ../../../components/network/thread/subg_openthread/third_party/mbedtls/repo/library/constant_time.c:0:5
	asr.w	r1, r10, #31
.Ltmp121:
	@DEBUG_VALUE: mbedtls_mpi_safe_cond_assign:limb_mask <- $r1
	mvns	r1, r1
.Ltmp122:
	.p2align	2
.LBB9_8:                                @ =>This Inner Loop Header: Depth=1
	@DEBUG_VALUE: mbedtls_mpi_safe_cond_assign:X <- $r9
	@DEBUG_VALUE: mbedtls_mpi_safe_cond_assign:Y <- $r8
	@DEBUG_VALUE: mbedtls_mpi_safe_cond_assign:i <- $r3
	@DEBUG_VALUE: mbedtls_mpi_safe_cond_assign:ret <- $r0
	@DEBUG_VALUE: mbedtls_mpi_safe_cond_assign:i <- $r3
	.loc	2 556 17 is_stmt 1              @ ../../../components/network/thread/subg_openthread/third_party/mbedtls/repo/library/constant_time.c:556:17
	ldr.w	r2, [r7, r3, lsl #2]
	ands	r2, r1
	str.w	r2, [r7, r3, lsl #2]
	.loc	2 555 27                        @ ../../../components/network/thread/subg_openthread/third_party/mbedtls/repo/library/constant_time.c:555:27
	ldr.w	r2, [r9, #4]
	.loc	2 555 31 is_stmt 0              @ ../../../components/network/thread/subg_openthread/third_party/mbedtls/repo/library/constant_time.c:555:31
	adds	r3, #1
.Ltmp123:
	@DEBUG_VALUE: mbedtls_mpi_safe_cond_assign:i <- $r3
	.loc	2 555 5                         @ ../../../components/network/thread/subg_openthread/third_party/mbedtls/repo/library/constant_time.c:555:5
	cmp	r3, r2
	blo	.LBB9_8
.Ltmp124:
.LBB9_9:
	@DEBUG_VALUE: mbedtls_mpi_safe_cond_assign:X <- $r9
	@DEBUG_VALUE: mbedtls_mpi_safe_cond_assign:Y <- $r8
	@DEBUG_VALUE: mbedtls_mpi_safe_cond_assign:ret <- $r0
	@DEBUG_LABEL: mbedtls_mpi_safe_cond_assign:cleanup
	.loc	2 559 5 is_stmt 1               @ ../../../components/network/thread/subg_openthread/third_party/mbedtls/repo/library/constant_time.c:559:5
	pop.w	{r4, r5, r6, r7, r8, r9, r10, pc}
.Ltmp125:
.Lfunc_end9:
	.size	mbedtls_mpi_safe_cond_assign, .Lfunc_end9-mbedtls_mpi_safe_cond_assign
	.cfi_endproc
	.file	3 "C:\\" "Keil_v5\\ARM\\ARMCLANG\\Bin\\..\\include\\stdint.h"
	.file	4 "C:\\Users\\testo\\Desktop\\rafael-iot-sdk-das -0515\\examples\\das_subg_thread\\keil" "../../../components/network/thread/subg_openthread/third_party/mbedtls/repo/include\\mbedtls/bignum.h"
	.cantunwind
	.fnend
                                        @ -- End function
	.section	.text.mbedtls_mpi_safe_cond_swap,"ax",%progbits
	.hidden	mbedtls_mpi_safe_cond_swap      @ -- Begin function mbedtls_mpi_safe_cond_swap
	.globl	mbedtls_mpi_safe_cond_swap
	.p2align	1
	.type	mbedtls_mpi_safe_cond_swap,%function
	.code	16                              @ @mbedtls_mpi_safe_cond_swap
	.thumb_func
mbedtls_mpi_safe_cond_swap:
.Lfunc_begin10:
	.loc	2 571 0                         @ ../../../components/network/thread/subg_openthread/third_party/mbedtls/repo/library/constant_time.c:571:0
	.fnstart
	.cfi_startproc
@ %bb.0:
	@DEBUG_VALUE: mbedtls_mpi_safe_cond_swap:X <- $r0
	@DEBUG_VALUE: mbedtls_mpi_safe_cond_swap:Y <- $r1
	@DEBUG_VALUE: mbedtls_mpi_safe_cond_swap:swap <- $r2
	@DEBUG_VALUE: mbedtls_mpi_safe_cond_swap:swap <- undef
	@DEBUG_VALUE: mbedtls_mpi_safe_cond_swap:Y <- $r1
	@DEBUG_VALUE: mbedtls_mpi_safe_cond_swap:X <- $r0
	.save	{r4, r5, r6, lr}
	push	{r4, r5, r6, lr}
	.cfi_def_cfa_offset 16
	.cfi_offset lr, -4
	.cfi_offset r6, -8
	.cfi_offset r5, -12
	.cfi_offset r4, -16
.Ltmp126:
	.loc	2 579 9 prologue_end            @ ../../../components/network/thread/subg_openthread/third_party/mbedtls/repo/library/constant_time.c:579:9
	cmp	r0, r1
.Ltmp127:
	@DEBUG_VALUE: mbedtls_mpi_safe_cond_swap:swap <- $r2
	beq	.LBB10_7
.Ltmp128:
@ %bb.1:
	@DEBUG_VALUE: mbedtls_mpi_safe_cond_swap:swap <- $r2
	@DEBUG_VALUE: mbedtls_mpi_safe_cond_swap:Y <- $r1
	@DEBUG_VALUE: mbedtls_mpi_safe_cond_swap:X <- $r0
	.loc	2 0 9 is_stmt 0                 @ ../../../components/network/thread/subg_openthread/third_party/mbedtls/repo/library/constant_time.c:0:9
	mov	r6, r1
.Ltmp129:
	@DEBUG_VALUE: mbedtls_mpi_safe_cond_swap:Y <- $r6
	.loc	2 585 5 is_stmt 1               @ ../../../components/network/thread/subg_openthread/third_party/mbedtls/repo/library/constant_time.c:585:5
	ldr	r1, [r1, #4]
	mov	r4, r0
.Ltmp130:
	@DEBUG_VALUE: mbedtls_mpi_safe_cond_swap:X <- $r4
	.loc	2 0 5 is_stmt 0                 @ ../../../components/network/thread/subg_openthread/third_party/mbedtls/repo/library/constant_time.c:0:5
	mov	r5, r2
.Ltmp131:
	@DEBUG_VALUE: mbedtls_mpi_safe_cond_swap:swap <- $r5
	@DEBUG_VALUE: mbedtls_mpi_safe_cond_swap:swap <- $r5
	@DEBUG_VALUE: mbedtls_mpi_safe_cond_swap:swap <- $r5
	@DEBUG_VALUE: mbedtls_ct_mpi_uint_mask:value <- [DW_OP_LLVM_convert 8 7, DW_OP_LLVM_convert 32 7, DW_OP_stack_value] $r5
	@DEBUG_VALUE: mbedtls_mpi_safe_cond_swap:limb_mask <- [DW_OP_LLVM_convert 1 5, DW_OP_LLVM_convert 32 5, DW_OP_stack_value] undef
	.loc	2 585 5                         @ ../../../components/network/thread/subg_openthread/third_party/mbedtls/repo/library/constant_time.c:585:5
	bl	mbedtls_mpi_grow
.Ltmp132:
	@DEBUG_VALUE: mbedtls_mpi_safe_cond_swap:ret <- $r0
	.loc	2 585 5                         @ ../../../components/network/thread/subg_openthread/third_party/mbedtls/repo/library/constant_time.c:585:5
	cbz	r0, .LBB10_3
.Ltmp133:
.LBB10_2:
	@DEBUG_VALUE: mbedtls_mpi_safe_cond_swap:Y <- $r6
	@DEBUG_VALUE: mbedtls_mpi_safe_cond_swap:swap <- $r5
	@DEBUG_VALUE: mbedtls_mpi_safe_cond_swap:X <- $r4
	@DEBUG_VALUE: mbedtls_mpi_safe_cond_swap:ret <- $r0
	.loc	2 602 1 is_stmt 1               @ ../../../components/network/thread/subg_openthread/third_party/mbedtls/repo/library/constant_time.c:602:1
	pop	{r4, r5, r6, pc}
.Ltmp134:
.LBB10_3:
	@DEBUG_VALUE: mbedtls_mpi_safe_cond_swap:Y <- $r6
	@DEBUG_VALUE: mbedtls_mpi_safe_cond_swap:swap <- $r5
	@DEBUG_VALUE: mbedtls_mpi_safe_cond_swap:X <- $r4
	@DEBUG_VALUE: mbedtls_mpi_safe_cond_swap:ret <- $r0
	@DEBUG_VALUE: mbedtls_mpi_safe_cond_swap:swap <- $r5
	@DEBUG_VALUE: mbedtls_ct_mpi_uint_mask:value <- [DW_OP_LLVM_convert 8 7, DW_OP_LLVM_convert 32 7, DW_OP_stack_value] $r5
	.loc	2 586 5                         @ ../../../components/network/thread/subg_openthread/third_party/mbedtls/repo/library/constant_time.c:586:5
	ldr	r1, [r4, #4]
	mov	r0, r6
.Ltmp135:
	bl	mbedtls_mpi_grow
.Ltmp136:
	@DEBUG_VALUE: mbedtls_mpi_safe_cond_swap:ret <- $r0
	.loc	2 586 5 is_stmt 0               @ ../../../components/network/thread/subg_openthread/third_party/mbedtls/repo/library/constant_time.c:586:5
	cmp	r0, #0
	bne	.LBB10_2
.Ltmp137:
@ %bb.4:
	@DEBUG_VALUE: mbedtls_mpi_safe_cond_swap:Y <- $r6
	@DEBUG_VALUE: mbedtls_mpi_safe_cond_swap:swap <- $r5
	@DEBUG_VALUE: mbedtls_mpi_safe_cond_swap:X <- $r4
	@DEBUG_VALUE: mbedtls_mpi_safe_cond_swap:ret <- $r0
	@DEBUG_VALUE: mbedtls_mpi_safe_cond_swap:swap <- $r5
	@DEBUG_VALUE: mbedtls_ct_mpi_uint_mask:value <- [DW_OP_LLVM_convert 8 7, DW_OP_LLVM_convert 32 7, DW_OP_stack_value] $r5
	.loc	2 589 50 is_stmt 1              @ ../../../components/network/thread/subg_openthread/third_party/mbedtls/repo/library/constant_time.c:589:50
	ldr	r0, [r6]
.Ltmp138:
	@DEBUG_VALUE: mbedtls_ct_cond_select_sign:if0 <- undef
	.loc	2 588 12                        @ ../../../components/network/thread/subg_openthread/third_party/mbedtls/repo/library/constant_time.c:588:12
	ldr	r1, [r4]
.Ltmp139:
	@DEBUG_VALUE: mbedtls_ct_cond_select_sign:condition <- $r5
	@DEBUG_VALUE: mbedtls_ct_cond_select_sign:if1 <- $r0
	.loc	2 288 25                        @ ../../../components/network/thread/subg_openthread/third_party/mbedtls/repo/library/constant_time.c:288:25
	adds	r0, #1
.Ltmp140:
	@DEBUG_VALUE: mbedtls_mpi_safe_cond_swap:i <- 0
	@DEBUG_VALUE: mbedtls_mpi_safe_cond_swap:s <- $r1
	@DEBUG_VALUE: mbedtls_ct_cond_select_sign:uif1 <- $r0
	.loc	2 289 25                        @ ../../../components/network/thread/subg_openthread/third_party/mbedtls/repo/library/constant_time.c:289:25
	adds	r1, #1
.Ltmp141:
	@DEBUG_VALUE: mbedtls_ct_cond_select_sign:mask <- undef
	@DEBUG_VALUE: mbedtls_ct_cond_select_sign:uif0 <- $r1
	.loc	2 295 26                        @ ../../../components/network/thread/subg_openthread/third_party/mbedtls/repo/library/constant_time.c:295:26
	bic.w	r2, r1, r5, lsl #1
	.loc	2 295 45 is_stmt 0              @ ../../../components/network/thread/subg_openthread/third_party/mbedtls/repo/library/constant_time.c:295:45
	and.w	r0, r0, r5, lsl #1
.Ltmp142:
	@DEBUG_VALUE: mbedtls_ct_cond_select_sign:ur <- undef
	.loc	2 295 36                        @ ../../../components/network/thread/subg_openthread/third_party/mbedtls/repo/library/constant_time.c:295:36
	add	r0, r2
	.loc	2 298 22 is_stmt 1              @ ../../../components/network/thread/subg_openthread/third_party/mbedtls/repo/library/constant_time.c:298:22
	subs	r0, #1
.Ltmp143:
	.loc	2 589 10                        @ ../../../components/network/thread/subg_openthread/third_party/mbedtls/repo/library/constant_time.c:589:10
	str	r0, [r4]
	.loc	2 590 53                        @ ../../../components/network/thread/subg_openthread/third_party/mbedtls/repo/library/constant_time.c:590:53
	ldr	r0, [r6]
.Ltmp144:
	@DEBUG_VALUE: mbedtls_ct_cond_select_sign:if1 <- undef
	.loc	2 593 24                        @ ../../../components/network/thread/subg_openthread/third_party/mbedtls/repo/library/constant_time.c:593:24
	ldr	r2, [r4, #4]
.Ltmp145:
	@DEBUG_VALUE: mbedtls_ct_cond_select_sign:uif1 <- $r1
	@DEBUG_VALUE: mbedtls_ct_cond_select_sign:condition <- $r5
	@DEBUG_VALUE: mbedtls_ct_cond_select_sign:if0 <- $r0
	.loc	2 289 25                        @ ../../../components/network/thread/subg_openthread/third_party/mbedtls/repo/library/constant_time.c:289:25
	adds	r0, #1
.Ltmp146:
	@DEBUG_VALUE: mbedtls_ct_cond_select_sign:mask <- undef
	@DEBUG_VALUE: mbedtls_ct_cond_select_sign:uif0 <- $r0
	.loc	2 295 26                        @ ../../../components/network/thread/subg_openthread/third_party/mbedtls/repo/library/constant_time.c:295:26
	bic.w	r0, r0, r5, lsl #1
.Ltmp147:
	.loc	2 295 45 is_stmt 0              @ ../../../components/network/thread/subg_openthread/third_party/mbedtls/repo/library/constant_time.c:295:45
	and.w	r1, r1, r5, lsl #1
.Ltmp148:
	@DEBUG_VALUE: mbedtls_ct_cond_select_sign:ur <- undef
	.loc	2 295 36                        @ ../../../components/network/thread/subg_openthread/third_party/mbedtls/repo/library/constant_time.c:295:36
	add	r0, r1
	.loc	2 298 22 is_stmt 1              @ ../../../components/network/thread/subg_openthread/third_party/mbedtls/repo/library/constant_time.c:298:22
	subs	r0, #1
.Ltmp149:
	.loc	2 590 10                        @ ../../../components/network/thread/subg_openthread/third_party/mbedtls/repo/library/constant_time.c:590:10
	str	r0, [r6]
.Ltmp150:
	.loc	2 593 5                         @ ../../../components/network/thread/subg_openthread/third_party/mbedtls/repo/library/constant_time.c:593:5
	cbz	r2, .LBB10_7
.Ltmp151:
@ %bb.5:
	@DEBUG_VALUE: mbedtls_mpi_safe_cond_swap:Y <- $r6
	@DEBUG_VALUE: mbedtls_ct_cond_select_sign:condition <- $r5
	@DEBUG_VALUE: mbedtls_ct_cond_select_sign:condition <- $r5
	@DEBUG_VALUE: mbedtls_ct_mpi_uint_mask:value <- [DW_OP_LLVM_convert 8 7, DW_OP_LLVM_convert 32 7, DW_OP_stack_value] $r5
	@DEBUG_VALUE: mbedtls_mpi_safe_cond_swap:swap <- $r5
	@DEBUG_VALUE: mbedtls_mpi_safe_cond_swap:X <- $r4
	@DEBUG_VALUE: mbedtls_mpi_safe_cond_swap:i <- 0
	.loc	2 0 5 is_stmt 0                 @ ../../../components/network/thread/subg_openthread/third_party/mbedtls/repo/library/constant_time.c:0:5
	ldr	r0, [r4, #8]
	ldr	r1, [r6, #8]
	movs	r2, #0
.Ltmp152:
	.p2align	2
.LBB10_6:                               @ =>This Inner Loop Header: Depth=1
	@DEBUG_VALUE: mbedtls_mpi_safe_cond_swap:swap <- $r5
	@DEBUG_VALUE: mbedtls_mpi_safe_cond_swap:X <- $r4
	@DEBUG_VALUE: mbedtls_mpi_safe_cond_swap:i <- $r2
	.loc	2 596 48 is_stmt 1              @ ../../../components/network/thread/subg_openthread/third_party/mbedtls/repo/library/constant_time.c:596:48
	ldr.w	r6, [r1, r2, lsl #2]
.Ltmp153:
	@DEBUG_VALUE: mbedtls_mpi_safe_cond_swap:Y <- [DW_OP_LLVM_entry_value 1] $r1
	.loc	2 595 15                        @ ../../../components/network/thread/subg_openthread/third_party/mbedtls/repo/library/constant_time.c:595:15
	ldr.w	r3, [r0, r2, lsl #2]
.Ltmp154:
	@DEBUG_VALUE: mbedtls_mpi_safe_cond_swap:tmp <- $r3
	.loc	2 596 44                        @ ../../../components/network/thread/subg_openthread/third_party/mbedtls/repo/library/constant_time.c:596:44
	cmp	r5, #0
	it	eq
	moveq	r6, r3
	.loc	2 596 17 is_stmt 0              @ ../../../components/network/thread/subg_openthread/third_party/mbedtls/repo/library/constant_time.c:596:17
	str.w	r6, [r0, r2, lsl #2]
	.loc	2 597 21 is_stmt 1              @ ../../../components/network/thread/subg_openthread/third_party/mbedtls/repo/library/constant_time.c:597:21
	ldr.w	r6, [r1, r2, lsl #2]
	.loc	2 597 44 is_stmt 0              @ ../../../components/network/thread/subg_openthread/third_party/mbedtls/repo/library/constant_time.c:597:44
	it	ne
	movne	r6, r3
.Ltmp155:
	@DEBUG_VALUE: mbedtls_mpi_safe_cond_swap:tmp <- $r6
	@DEBUG_VALUE: mbedtls_mpi_safe_cond_swap:tmp <- $r6
	.loc	2 597 17                        @ ../../../components/network/thread/subg_openthread/third_party/mbedtls/repo/library/constant_time.c:597:17
	str.w	r6, [r1, r2, lsl #2]
.Ltmp156:
	.loc	2 593 24 is_stmt 1              @ ../../../components/network/thread/subg_openthread/third_party/mbedtls/repo/library/constant_time.c:593:24
	ldr	r3, [r4, #4]
	.loc	2 593 28 is_stmt 0              @ ../../../components/network/thread/subg_openthread/third_party/mbedtls/repo/library/constant_time.c:593:28
	adds	r2, #1
.Ltmp157:
	@DEBUG_VALUE: mbedtls_mpi_safe_cond_swap:i <- $r2
	.loc	2 593 5                         @ ../../../components/network/thread/subg_openthread/third_party/mbedtls/repo/library/constant_time.c:593:5
	cmp	r2, r3
	blo	.LBB10_6
.Ltmp158:
.LBB10_7:
	.loc	2 0 5                           @ ../../../components/network/thread/subg_openthread/third_party/mbedtls/repo/library/constant_time.c:0:5
	movs	r0, #0
	.loc	2 602 1 is_stmt 1               @ ../../../components/network/thread/subg_openthread/third_party/mbedtls/repo/library/constant_time.c:602:1
	pop	{r4, r5, r6, pc}
.Ltmp159:
.Lfunc_end10:
	.size	mbedtls_mpi_safe_cond_swap, .Lfunc_end10-mbedtls_mpi_safe_cond_swap
	.cfi_endproc
	.cantunwind
	.fnend
                                        @ -- End function
	.section	.text.mbedtls_mpi_lt_mpi_ct,"ax",%progbits
	.hidden	mbedtls_mpi_lt_mpi_ct           @ -- Begin function mbedtls_mpi_lt_mpi_ct
	.globl	mbedtls_mpi_lt_mpi_ct
	.p2align	1
	.type	mbedtls_mpi_lt_mpi_ct,%function
	.code	16                              @ @mbedtls_mpi_lt_mpi_ct
	.thumb_func
mbedtls_mpi_lt_mpi_ct:
.Lfunc_begin11:
	.loc	2 610 0                         @ ../../../components/network/thread/subg_openthread/third_party/mbedtls/repo/library/constant_time.c:610:0
	.fnstart
	.cfi_startproc
@ %bb.0:
	@DEBUG_VALUE: mbedtls_mpi_lt_mpi_ct:X <- $r0
	@DEBUG_VALUE: mbedtls_mpi_lt_mpi_ct:X <- $r0
	@DEBUG_VALUE: mbedtls_mpi_lt_mpi_ct:Y <- $r1
	@DEBUG_VALUE: mbedtls_mpi_lt_mpi_ct:Y <- $r1
	@DEBUG_VALUE: mbedtls_mpi_lt_mpi_ct:ret <- $r2
	.save	{r4, r5, r6, r7, r8, r9, lr}
	push.w	{r4, r5, r6, r7, r8, r9, lr}
	.cfi_def_cfa_offset 28
	.cfi_offset lr, -4
	.cfi_offset r9, -8
	.cfi_offset r8, -12
	.cfi_offset r7, -16
	.cfi_offset r6, -20
	.cfi_offset r5, -24
	.cfi_offset r4, -28
.Ltmp160:
	.loc	2 619 12 prologue_end           @ ../../../components/network/thread/subg_openthread/third_party/mbedtls/repo/library/constant_time.c:619:12
	ldr	r3, [r0, #4]
	.loc	2 619 20 is_stmt 0              @ ../../../components/network/thread/subg_openthread/third_party/mbedtls/repo/library/constant_time.c:619:20
	ldr	r5, [r1, #4]
.Ltmp161:
	.loc	2 619 9                         @ ../../../components/network/thread/subg_openthread/third_party/mbedtls/repo/library/constant_time.c:619:9
	cmp	r3, r5
	@DEBUG_VALUE: mbedtls_mpi_lt_mpi_ct:ret <- $r2
	itt	ne
	mvnne	r0, #3
.Ltmp162:
	@DEBUG_VALUE: mbedtls_mpi_lt_mpi_ct:X <- [DW_OP_LLVM_entry_value 1] $r0
	.loc	2 669 1 is_stmt 1               @ ../../../components/network/thread/subg_openthread/third_party/mbedtls/repo/library/constant_time.c:669:1
	popne.w	{r4, r5, r6, r7, r8, r9, pc}
.Ltmp163:
.LBB11_1:
	@DEBUG_VALUE: mbedtls_mpi_lt_mpi_ct:ret <- $r2
	@DEBUG_VALUE: mbedtls_mpi_lt_mpi_ct:Y <- $r1
	@DEBUG_VALUE: mbedtls_mpi_lt_mpi_ct:X <- [DW_OP_LLVM_entry_value 1] $r0
	.loc	2 627 26                        @ ../../../components/network/thread/subg_openthread/third_party/mbedtls/repo/library/constant_time.c:627:26
	ldr	r3, [r1]
	.loc	2 626 26                        @ ../../../components/network/thread/subg_openthread/third_party/mbedtls/repo/library/constant_time.c:626:26
	ldr	r4, [r0]
.Ltmp164:
	@DEBUG_VALUE: mbedtls_mpi_lt_mpi_ct:X_is_negative <- [DW_OP_constu 1, DW_OP_and, DW_OP_stack_value] undef
	.loc	2 627 34                        @ ../../../components/network/thread/subg_openthread/third_party/mbedtls/repo/library/constant_time.c:627:34
	lsrs	r3, r3, #1
.Ltmp165:
	@DEBUG_VALUE: mbedtls_mpi_lt_mpi_ct:Y_is_negative <- [DW_OP_constu 1, DW_OP_and, DW_OP_stack_value] $r3
	.loc	2 634 28                        @ ../../../components/network/thread/subg_openthread/third_party/mbedtls/repo/library/constant_time.c:634:28
	eor.w	r3, r3, r4, lsr #1
.Ltmp166:
	and	lr, r3, #1
.Ltmp167:
	@DEBUG_VALUE: mbedtls_mpi_lt_mpi_ct:cond <- $lr
	.loc	2 635 17                        @ ../../../components/network/thread/subg_openthread/third_party/mbedtls/repo/library/constant_time.c:635:17
	and.w	r3, lr, r4, lsr #1
	.loc	2 635 10 is_stmt 0              @ ../../../components/network/thread/subg_openthread/third_party/mbedtls/repo/library/constant_time.c:635:10
	str	r3, [r2]
.Ltmp168:
	@DEBUG_VALUE: mbedtls_mpi_lt_mpi_ct:done <- $lr
	.loc	2 643 17 is_stmt 1              @ ../../../components/network/thread/subg_openthread/third_party/mbedtls/repo/library/constant_time.c:643:17
	ldr	r5, [r0, #4]
.Ltmp169:
	@DEBUG_VALUE: mbedtls_mpi_lt_mpi_ct:i <- $r5
	.loc	2 643 5 is_stmt 0               @ ../../../components/network/thread/subg_openthread/third_party/mbedtls/repo/library/constant_time.c:643:5
	cbz	r5, .LBB11_4
.Ltmp170:
@ %bb.2:
	@DEBUG_VALUE: mbedtls_mpi_lt_mpi_ct:i <- $r5
	@DEBUG_VALUE: mbedtls_mpi_lt_mpi_ct:ret <- $r2
	@DEBUG_VALUE: mbedtls_mpi_lt_mpi_ct:Y <- $r1
	@DEBUG_VALUE: mbedtls_mpi_lt_mpi_ct:done <- $lr
	@DEBUG_VALUE: mbedtls_mpi_lt_mpi_ct:cond <- $lr
	@DEBUG_VALUE: mbedtls_mpi_lt_mpi_ct:X <- [DW_OP_LLVM_entry_value 1] $r0
	.loc	2 0 5                           @ ../../../components/network/thread/subg_openthread/third_party/mbedtls/repo/library/constant_time.c:0:5
	lsr.w	r12, r4, #1
.Ltmp171:
	@DEBUG_VALUE: mbedtls_mpi_lt_mpi_ct:X_is_negative <- [DW_OP_constu 1, DW_OP_and, DW_OP_stack_value] $r12
	ldr	r1, [r1, #8]
.Ltmp172:
	@DEBUG_VALUE: mbedtls_mpi_lt_mpi_ct:Y <- [DW_OP_LLVM_entry_value 1] $r1
	ldr	r4, [r0, #8]
	mvn.w	r8, r12
	.loc	2 643 5                         @ ../../../components/network/thread/subg_openthread/third_party/mbedtls/repo/library/constant_time.c:643:5
	sub.w	r9, r1, #4
	subs	r4, #4
.Ltmp173:
	.p2align	2
.LBB11_3:                               @ =>This Inner Loop Header: Depth=1
	@DEBUG_VALUE: mbedtls_mpi_lt_mpi_ct:X_is_negative <- [DW_OP_constu 1, DW_OP_and, DW_OP_stack_value] $r12
	@DEBUG_VALUE: mbedtls_mpi_lt_mpi_ct:ret <- $r2
	@DEBUG_VALUE: mbedtls_mpi_lt_mpi_ct:done <- $lr
	@DEBUG_VALUE: mbedtls_mpi_lt_mpi_ct:Y <- [DW_OP_LLVM_entry_value 1] $r1
	@DEBUG_VALUE: mbedtls_mpi_lt_mpi_ct:X <- [DW_OP_LLVM_entry_value 1] $r0
	@DEBUG_VALUE: mbedtls_mpi_lt_mpi_ct:done <- $lr
	@DEBUG_VALUE: mbedtls_mpi_lt_mpi_ct:i <- $r5
	.loc	2 652 40 is_stmt 1              @ ../../../components/network/thread/subg_openthread/third_party/mbedtls/repo/library/constant_time.c:652:40
	ldr.w	r6, [r9, r5, lsl #2]
	.loc	2 652 53 is_stmt 0              @ ../../../components/network/thread/subg_openthread/third_party/mbedtls/repo/library/constant_time.c:652:53
	ldr.w	r7, [r4, r5, lsl #2]
.Ltmp174:
	@DEBUG_VALUE: mbedtls_ct_mpi_uint_lt:x <- $r6
	@DEBUG_VALUE: mbedtls_ct_mpi_uint_lt:y <- $r7
	.loc	2 236 16 is_stmt 1              @ ../../../components/network/thread/subg_openthread/third_party/mbedtls/repo/library/constant_time.c:236:16
	eor.w	r0, r7, r6
.Ltmp175:
	@DEBUG_VALUE: mbedtls_ct_mpi_uint_lt:cond <- $r0
	.loc	2 241 15                        @ ../../../components/network/thread/subg_openthread/third_party/mbedtls/repo/library/constant_time.c:241:15
	subs	r6, r6, r7
.Ltmp176:
	.loc	2 241 21 is_stmt 0              @ ../../../components/network/thread/subg_openthread/third_party/mbedtls/repo/library/constant_time.c:241:21
	bics	r6, r0
.Ltmp177:
	@DEBUG_VALUE: mbedtls_ct_mpi_uint_lt:ret <- $r6
	.loc	2 247 14 is_stmt 1              @ ../../../components/network/thread/subg_openthread/third_party/mbedtls/repo/library/constant_time.c:247:14
	ands	r0, r7
.Ltmp178:
	.loc	2 247 9 is_stmt 0               @ ../../../components/network/thread/subg_openthread/third_party/mbedtls/repo/library/constant_time.c:247:9
	orrs	r0, r6
.Ltmp179:
	@DEBUG_VALUE: mbedtls_ct_mpi_uint_lt:ret <- undef
	@DEBUG_VALUE: mbedtls_mpi_lt_mpi_ct:cond <- undef
	.loc	2 653 28 is_stmt 1              @ ../../../components/network/thread/subg_openthread/third_party/mbedtls/repo/library/constant_time.c:653:28
	rsb.w	r6, lr, #1
	.loc	2 653 22 is_stmt 0              @ ../../../components/network/thread/subg_openthread/third_party/mbedtls/repo/library/constant_time.c:653:22
	and.w	r6, r6, r12
	.loc	2 653 37                        @ ../../../components/network/thread/subg_openthread/third_party/mbedtls/repo/library/constant_time.c:653:37
	and.w	r6, r6, r0, lsr #31
	.loc	2 653 14                        @ ../../../components/network/thread/subg_openthread/third_party/mbedtls/repo/library/constant_time.c:653:14
	orrs	r3, r6
	str	r3, [r2]
	.loc	2 663 40 is_stmt 1              @ ../../../components/network/thread/subg_openthread/third_party/mbedtls/repo/library/constant_time.c:663:40
	ldr.w	r6, [r4, r5, lsl #2]
	.loc	2 663 53 is_stmt 0              @ ../../../components/network/thread/subg_openthread/third_party/mbedtls/repo/library/constant_time.c:663:53
	ldr.w	r7, [r9, r5, lsl #2]
.Ltmp180:
	.loc	2 654 14 is_stmt 1              @ ../../../components/network/thread/subg_openthread/third_party/mbedtls/repo/library/constant_time.c:654:14
	orr.w	r0, lr, r0, lsr #31
.Ltmp181:
	@DEBUG_VALUE: mbedtls_ct_mpi_uint_lt:x <- $r6
	@DEBUG_VALUE: mbedtls_ct_mpi_uint_lt:y <- $r7
	@DEBUG_VALUE: mbedtls_mpi_lt_mpi_ct:done <- $r0
	.loc	2 236 16                        @ ../../../components/network/thread/subg_openthread/third_party/mbedtls/repo/library/constant_time.c:236:16
	eor.w	r1, r7, r6
.Ltmp182:
	@DEBUG_VALUE: mbedtls_ct_mpi_uint_lt:cond <- $r1
	.loc	2 241 15                        @ ../../../components/network/thread/subg_openthread/third_party/mbedtls/repo/library/constant_time.c:241:15
	subs	r6, r6, r7
.Ltmp183:
	.loc	2 241 21 is_stmt 0              @ ../../../components/network/thread/subg_openthread/third_party/mbedtls/repo/library/constant_time.c:241:21
	bics	r6, r1
.Ltmp184:
	@DEBUG_VALUE: mbedtls_ct_mpi_uint_lt:ret <- $r6
	.loc	2 247 14 is_stmt 1              @ ../../../components/network/thread/subg_openthread/third_party/mbedtls/repo/library/constant_time.c:247:14
	ands	r1, r7
.Ltmp185:
	.loc	2 664 28                        @ ../../../components/network/thread/subg_openthread/third_party/mbedtls/repo/library/constant_time.c:664:28
	rsb.w	r7, r0, #1
.Ltmp186:
	.loc	2 247 9                         @ ../../../components/network/thread/subg_openthread/third_party/mbedtls/repo/library/constant_time.c:247:9
	orrs	r1, r6
.Ltmp187:
	@DEBUG_VALUE: mbedtls_ct_mpi_uint_lt:ret <- undef
	@DEBUG_VALUE: mbedtls_mpi_lt_mpi_ct:cond <- undef
	.loc	2 664 22                        @ ../../../components/network/thread/subg_openthread/third_party/mbedtls/repo/library/constant_time.c:664:22
	and.w	r7, r7, r8
	.loc	2 664 37 is_stmt 0              @ ../../../components/network/thread/subg_openthread/third_party/mbedtls/repo/library/constant_time.c:664:37
	and.w	r7, r7, r1, lsr #31
	.loc	2 652 47 is_stmt 1              @ ../../../components/network/thread/subg_openthread/third_party/mbedtls/repo/library/constant_time.c:652:47
	subs	r5, #1
.Ltmp188:
	.loc	2 664 14                        @ ../../../components/network/thread/subg_openthread/third_party/mbedtls/repo/library/constant_time.c:664:14
	orr.w	r3, r3, r7
	.loc	2 665 14                        @ ../../../components/network/thread/subg_openthread/third_party/mbedtls/repo/library/constant_time.c:665:14
	orr.w	lr, r0, r1, lsr #31
.Ltmp189:
	@DEBUG_VALUE: mbedtls_mpi_lt_mpi_ct:i <- undef
	@DEBUG_VALUE: mbedtls_mpi_lt_mpi_ct:done <- $lr
	.loc	2 664 14                        @ ../../../components/network/thread/subg_openthread/third_party/mbedtls/repo/library/constant_time.c:664:14
	str	r3, [r2]
.Ltmp190:
	.loc	2 643 5                         @ ../../../components/network/thread/subg_openthread/third_party/mbedtls/repo/library/constant_time.c:643:5
	bne	.LBB11_3
.Ltmp191:
.LBB11_4:
	@DEBUG_VALUE: mbedtls_mpi_lt_mpi_ct:ret <- $r2
	@DEBUG_VALUE: mbedtls_mpi_lt_mpi_ct:done <- $lr
	@DEBUG_VALUE: mbedtls_mpi_lt_mpi_ct:X <- [DW_OP_LLVM_entry_value 1] $r0
	.loc	2 0 5 is_stmt 0                 @ ../../../components/network/thread/subg_openthread/third_party/mbedtls/repo/library/constant_time.c:0:5
	movs	r0, #0
	.loc	2 669 1 is_stmt 1               @ ../../../components/network/thread/subg_openthread/third_party/mbedtls/repo/library/constant_time.c:669:1
	pop.w	{r4, r5, r6, r7, r8, r9, pc}
.Ltmp192:
.Lfunc_end11:
	.size	mbedtls_mpi_lt_mpi_ct, .Lfunc_end11-mbedtls_mpi_lt_mpi_ct
	.cfi_endproc
	.cantunwind
	.fnend
                                        @ -- End function
	.section	".note.GNU-stack","",%progbits
	.eabi_attribute	30, 3	@ Tag_ABI_optimization_goals
	.ARM_attribute	16, 1	@ Tag_AV_eba