	.text
	.syntax unified
	.eabi_attribute	67, "2.09"	@ Tag_conformance
	.cpu	cortex-m3
	.eabi_attribute	6, 10	@ Tag_CPU_arch
	.eabi_attribute	7, 77	@ Tag_CPU_arch_profile
	.eabi_attribute	8, 0	@ Tag_ARM_ISA_use
	.eabi_attribute	9, 2	@ Tag_THUMB_ISA_use
	.eabi_attribute	34, 1	@ Tag_CPU_unaligned_access
	.eabi_attribute	17, 1	@ Tag_ABI_PCS_GOT_use
	.eabi_attribute	20, 2	@ Tag_ABI_FP_denormal
	.eabi_attribute	21, 0	@ Tag_ABI_FP_exceptions
	.eabi_attribute	23, 1	@ Tag_ABI_FP_number_model
	.eabi_attribute	24, 1	@ Tag_ABI_align_needed
	.eabi_attribute	25, 1	@ Tag_ABI_align_preserved
	.eabi_attribute	38, 1	@ Tag_ABI_FP_16bit_format
	.eabi_attribute	18, 4	@ Tag_ABI_PCS_wchar_t
	.eabi_attribute	26, 2	@ Tag_ABI_enum_size
	.eabi_attribute	14, 0	@ Tag_ABI_PCS_R9_use
	.file	"das_dlms_cmd.c"
	.file	1 "C:\\Keil_v5\\ARM\\ARMCLANG\\Bin\\..\\include" "stdint.h"
	.file	2 "D:\\Rafael-IoT-SDK-Internal-main\\examples\\das_subg_thread\\keil" "../das_subg_thread/das_dlms_cmd.c"
	.file	3 "D:\\Rafael-IoT-SDK-Internal-main\\examples\\das_subg_thread\\keil" "../../../components/network/thread/subg_openthread/third_party/mbedtls/repo/include\\mbedtls/cipher.h"
	.file	4 "D:\\Rafael-IoT-SDK-Internal-main\\examples\\das_subg_thread\\keil" "../../../components/platform/soc/rt582/rt582_driver/Inc/flashctl.h"
	.file	5 "D:\\Rafael-IoT-SDK-Internal-main\\examples\\das_subg_thread\\keil" "../../../components/network/thread/subg_openthread/include\\openthread/error.h"
	.file	6 "D:\\Rafael-IoT-SDK-Internal-main\\examples\\das_subg_thread\\keil" "../../../components/platform/soc/rt582/rt582_driver/Inc/flashctl_reg.h"
	.file	7 "C:/Users\\P350\\AppData\\Local\\Arm\\Packs\\ARM\\CMSIS\\5.8.0\\CMSIS\\Core\\Include" "core_cm3.h"
	.section	.text.udf_AES_GCM_Encrypt,"ax",%progbits
	.hidden	udf_AES_GCM_Encrypt             @ -- Begin function udf_AES_GCM_Encrypt
	.globl	udf_AES_GCM_Encrypt
	.p2align	1
	.type	udf_AES_GCM_Encrypt,%function
	.code	16                              @ @udf_AES_GCM_Encrypt
	.thumb_func
udf_AES_GCM_Encrypt:
.Lfunc_begin0:
	.loc	2 297 0                         @ ../das_subg_thread/das_dlms_cmd.c:297:0
	.fnstart
	.cfi_sections .debug_frame
	.cfi_startproc
@ %bb.0:
	@DEBUG_VALUE: udf_AES_GCM_Encrypt:gcm_ek <- $r0
	@DEBUG_VALUE: udf_AES_GCM_Encrypt:gcm_aad <- $r1
	@DEBUG_VALUE: udf_AES_GCM_Encrypt:gcm_iv <- $r2
	@DEBUG_VALUE: udf_AES_GCM_Encrypt:gcm_pt <- $r3
	.save	{r4, r5, r6, r7, r8, r9, r10, r11, lr}
	push.w	{r4, r5, r6, r7, r8, r9, r10, r11, lr}
	.cfi_def_cfa_offset 36
	.cfi_offset lr, -4
	.cfi_offset r11, -8
	.cfi_offset r10, -12
	.cfi_offset r9, -16
	.cfi_offset r8, -20
	.cfi_offset r7, -24
	.cfi_offset r6, -28
	.cfi_offset r5, -32
	.cfi_offset r4, -36
	.pad	#428
	sub	sp, #428
	.cfi_def_cfa_offset 464
	add	r5, sp, #32
	ldr.w	r11, [sp, #476]
	ldrd	r8, r10, [sp, #464]
	@DEBUG_VALUE: udf_AES_GCM_Encrypt:gcm_aadlen <- undef
	@DEBUG_VALUE: udf_AES_GCM_Encrypt:gcm_ptlen <- undef
	mov	r4, r0
.Ltmp0:
	@DEBUG_VALUE: udf_AES_GCM_Encrypt:gcm_ek <- $r4
	@DEBUG_VALUE: udf_AES_GCM_Encrypt:gcm_tag <- [DW_OP_plus_uconst 468] [$sp+0]
	@DEBUG_VALUE: udf_AES_GCM_Encrypt:gcm_ct <- [DW_OP_plus_uconst 464] [$sp+0]
	@DEBUG_VALUE: udf_AES_GCM_Encrypt:gcm_pt <- $r7
	@DEBUG_VALUE: udf_AES_GCM_Encrypt:gcm_iv <- $r9
	@DEBUG_VALUE: udf_AES_GCM_Encrypt:gcm_aad <- $r6
	@DEBUG_VALUE: udf_AES_GCM_Encrypt:gcm_ek <- $r4
	.loc	2 299 2 prologue_end            @ ../das_subg_thread/das_dlms_cmd.c:299:2
	mov	r0, r5
	mov	r7, r3
.Ltmp1:
	.loc	2 0 2 is_stmt 0                 @ ../das_subg_thread/das_dlms_cmd.c:0:2
	mov	r9, r2
.Ltmp2:
	mov	r6, r1
.Ltmp3:
	.loc	2 299 2                         @ ../das_subg_thread/das_dlms_cmd.c:299:2
	bl	mbedtls_gcm_init
.Ltmp4:
	@DEBUG_VALUE: udf_AES_GCM_Encrypt:cipher <- 2
	@DEBUG_VALUE: udf_AES_GCM_Encrypt:ret <- 0
	.loc	2 303 2 is_stmt 1               @ ../das_subg_thread/das_dlms_cmd.c:303:2
	mov	r0, r5
	bl	mbedtls_gcm_init
.Ltmp5:
	.loc	2 305 11                        @ ../das_subg_thread/das_dlms_cmd.c:305:11
	mov	r0, r5
	movs	r1, #2
	mov	r2, r4
.Ltmp6:
	@DEBUG_VALUE: udf_AES_GCM_Encrypt:gcm_ek <- $r2
	movs	r3, #128
	bl	mbedtls_gcm_setkey
.Ltmp7:
	@DEBUG_VALUE: udf_AES_GCM_Encrypt:ret <- undef
	.loc	2 0 11 is_stmt 0                @ ../das_subg_thread/das_dlms_cmd.c:0:11
	movs	r0, #12
	.loc	2 307 11 is_stmt 1              @ ../das_subg_thread/das_dlms_cmd.c:307:11
	ldr	r2, [sp, #472]
	stm.w	sp, {r0, r6, r11}
	str	r0, [sp, #20]
	mov	r0, r5
	movs	r1, #1
	mov	r3, r9
.Ltmp8:
	@DEBUG_VALUE: udf_AES_GCM_Encrypt:gcm_iv <- $r3
	strd	r7, r8, [sp, #12]
	str.w	r10, [sp, #24]
	bl	mbedtls_gcm_crypt_and_tag
.Ltmp9:
	mov	r4, r0
.Ltmp10:
	@DEBUG_VALUE: udf_AES_GCM_Encrypt:ret <- $r4
	.loc	2 313 2                         @ ../das_subg_thread/das_dlms_cmd.c:313:2
	mov	r0, r5
	bl	mbedtls_gcm_free
.Ltmp11:
	.loc	2 314 2                         @ ../das_subg_thread/das_dlms_cmd.c:314:2
	mov	r0, r4
	add	sp, #428
	pop.w	{r4, r5, r6, r7, r8, r9, r10, r11, pc}
.Ltmp12:
.Lfunc_end0:
	.size	udf_AES_GCM_Encrypt, .Lfunc_end0-udf_AES_GCM_Encrypt
	.cfi_endproc
	.cantunwind
	.fnend
                                        @ -- End function
	.section	.text.SQBrespone,"ax",%progbits
	.hidden	SQBrespone                      @ -- Begin function SQBrespone
	.globl	SQBrespone
	.p2align	2
	.type	SQBrespone,%function
	.code	16                              @ @SQBrespone
	.thumb_func
SQBrespone:
.Lfunc_begin1:
	.loc	2 1603 0                        @ ../das_subg_thread/das_dlms_cmd.c:1603:0
	.fnstart
	.cfi_startproc
@ %bb.0:
	@DEBUG_VALUE: SQBrespone:type <- $r0
	@DEBUG_VALUE: SQBrespone:auto_data <- $r1
	.save	{r4, lr}
	push	{r4, lr}
	.cfi_def_cfa_offset 8
	.cfi_offset lr, -4
	.cfi_offset r4, -8
.Ltmp13:
	.loc	2 1607 3 prologue_end           @ ../das_subg_thread/das_dlms_cmd.c:1607:3
	adr	r0, .LCPI1_0
.Ltmp14:
	@DEBUG_VALUE: SQBrespone:type <- [DW_OP_LLVM_entry_value 1] $r0
	.loc	2 0 3 is_stmt 0                 @ ../das_subg_thread/das_dlms_cmd.c:0:3
	mov	r4, r1
.Ltmp15:
	@DEBUG_VALUE: SQBrespone:auto_data <- $r4
	@DEBUG_VALUE: SQBrespone:check_sum <- 0
	@DEBUG_VALUE: SQBrespone:auto_data <- $r4
	.loc	2 1607 3                        @ ../das_subg_thread/das_dlms_cmd.c:1607:3
	bl	__2printf
.Ltmp16:
	@DEBUG_VALUE: SQBrespone:i <- [DW_OP_plus_uconst 1, DW_OP_stack_value] undef
	@DEBUG_VALUE: SQBrespone:SQB_send_data <- undef
	.loc	2 1617 34 is_stmt 1             @ ../das_subg_thread/das_dlms_cmd.c:1617:34
	ldrh.w	r0, [r4, #1]
	lsls	r0, r0, #16
	rev	r0, r0
	.loc	2 1617 38 is_stmt 0             @ ../das_subg_thread/das_dlms_cmd.c:1617:38
	sub.w	r0, r0, #40960
.Ltmp17:
	@DEBUG_VALUE: SQBrespone:data_len <- [DW_OP_plus_uconst 2, DW_OP_stack_value] $r0
	@DEBUG_VALUE: SQBrespone:i <- 1
	@DEBUG_VALUE: SQBrespone:SQB_send_data <- undef
	.loc	2 1621 3 is_stmt 1              @ ../das_subg_thread/das_dlms_cmd.c:1621:3
	cmn.w	r0, #12
.Ltmp18:
	.loc	2 1635 1                        @ ../das_subg_thread/das_dlms_cmd.c:1635:1
	it	lt
	poplt	{r4, pc}
.Ltmp19:
.LBB1_1:
	@DEBUG_VALUE: SQBrespone:data_len <- [DW_OP_plus_uconst 2, DW_OP_stack_value] $r0
	@DEBUG_VALUE: SQBrespone:i <- 1
	@DEBUG_VALUE: SQBrespone:check_sum <- 0
	@DEBUG_VALUE: SQBrespone:type <- [DW_OP_LLVM_entry_value 1] $r0
	.loc	2 0 1 is_stmt 0                 @ ../das_subg_thread/das_dlms_cmd.c:0:1
	adds	r0, #13
.Ltmp20:
	.p2align	2
.LBB1_2:                                @ =>This Inner Loop Header: Depth=1
	@DEBUG_VALUE: SQBrespone:type <- [DW_OP_LLVM_entry_value 1] $r0
	@DEBUG_VALUE: SQBrespone:check_sum <- undef
	@DEBUG_VALUE: SQBrespone:i <- [DW_OP_plus_uconst 1, DW_OP_stack_value] undef
	.loc	2 1623 15 is_stmt 1             @ ../das_subg_thread/das_dlms_cmd.c:1623:15
	subs	r0, #1
.Ltmp21:
	.loc	2 1623 3 is_stmt 0              @ ../das_subg_thread/das_dlms_cmd.c:1623:3
	bne	.LBB1_2
.Ltmp22:
@ %bb.3:
	@DEBUG_VALUE: SQBrespone:type <- [DW_OP_LLVM_entry_value 1] $r0
	.loc	2 1635 1 is_stmt 1              @ ../das_subg_thread/das_dlms_cmd.c:1635:1
	pop	{r4, pc}
.Ltmp23:
	.p2align	2
@ %bb.4:
	.loc	2 0 1 is_stmt 0                 @ ../das_subg_thread/das_dlms_cmd.c:0:1
.LCPI1_0:
.L.str:
	.asciz	"SQB!!!!!respone!!!!!!!!!111\n\r\000\000"
.Lfunc_end1:
	.size	SQBrespone, .Lfunc_end1-SQBrespone
	.cfi_endproc
	.cantunwind
	.fnend
                                        @ -- End function
	.section	.text.set_Test,"ax",%progbits
	.hidden	set_Test                        @ -- Begin function set_Test
	.globl	set_Test
	.p2align	1
	.type	set_Test,%function
	.code	16                              @ @set_Test
	.thumb_func
set_Test:
.Lfunc_begin2:
	.loc	2 1638 0 is_stmt 1              @ ../das_subg_thread/das_dlms_cmd.c:1638:0
	.fnstart
	.cfi_startproc
@ %bb.0:
	.save	{r4, lr}
	push	{r4, lr}
	.cfi_def_cfa_offset 8
	.cfi_offset lr, -4
	.cfi_offset r4, -8
	.pad	#16
	sub	sp, #16
	.cfi_def_cfa_offset 24
.Ltmp24:
	@DEBUG_VALUE: set_Test:sendPoint <- 700
	@DEBUG_VALUE: set_Test:i <- 0
	@DEBUG_VALUE: set_Test:lastnum <- 0
	.loc	2 1642 12 prologue_end          @ ../das_subg_thread/das_dlms_cmd.c:1642:12
	movw	r0, :lower16:SETACTION
.Ltmp25:
	.loc	2 1645 17                       @ ../das_subg_thread/das_dlms_cmd.c:1645:17
	movw	r4, :lower16:saveSETdata
.Ltmp26:
	.loc	2 1642 12                       @ ../das_subg_thread/das_dlms_cmd.c:1642:12
	movt	r0, :upper16:SETACTION
	mov.w	r12, #0
.Ltmp27:
	.loc	2 1645 17                       @ ../das_subg_thread/das_dlms_cmd.c:1645:17
	movt	r4, :upper16:saveSETdata
.Ltmp28:
	.loc	2 1642 12                       @ ../das_subg_thread/das_dlms_cmd.c:1642:12
	strb.w	r12, [r0]
.Ltmp29:
	@DEBUG_VALUE: set_Test:lastnum <- 1
	.loc	2 1645 17                       @ ../das_subg_thread/das_dlms_cmd.c:1645:17
	ldrd	r0, r1, [r4]
.Ltmp30:
	.loc	2 1662 3                        @ ../das_subg_thread/das_dlms_cmd.c:1662:3
	movw	r2, #65527
.Ltmp31:
	.loc	2 1645 17                       @ ../das_subg_thread/das_dlms_cmd.c:1645:17
	str	r0, [sp, #4]
	ldrb	r0, [r4, #8]
	str	r1, [sp, #8]
	strb.w	r0, [sp, #12]
.Ltmp32:
	@DEBUG_VALUE: set_Test:i <- [DW_OP_plus_uconst 1, DW_OP_stack_value] undef
	.loc	2 1662 3                        @ ../das_subg_thread/das_dlms_cmd.c:1662:3
	add.w	r1, r4, #9
	add	r0, sp, #4
	movs	r3, #0
	str.w	r12, [sp]
	bl	udf_Set_Transmit
.Ltmp33:
	.loc	2 1664 3                        @ ../das_subg_thread/das_dlms_cmd.c:1664:3
	mov	r0, r4
	mov.w	r1, #2000
	bl	__aeabi_memclr4
.Ltmp34:
	.loc	2 1681 1                        @ ../das_subg_thread/das_dlms_cmd.c:1681:1
	add	sp, #16
	pop	{r4, pc}
.Ltmp35:
.Lfunc_end2:
	.size	set_Test, .Lfunc_end2-set_Test
	.cfi_endproc
	.cantunwind
	.fnend
                                        @ -- End function
	.section	.text.udf_Set_Transmit,"ax",%progbits
	.p2align	2                               @ -- Begin function udf_Set_Transmit
	.type	udf_Set_Transmit,%function
	.code	16                              @ @udf_Set_Transmit
	.thumb_func
udf_Set_Transmit:
.Lfunc_begin3:
	.loc	2 1331 0                        @ ../das_subg_thread/das_dlms_cmd.c:1331:0
	.fnstart
	.cfi_startproc
@ %bb.0:
	@DEBUG_VALUE: udf_Set_Transmit:obisTXT <- $r0
	@DEBUG_VALUE: udf_Set_Transmit:plainTXT <- $r1
	@DEBUG_VALUE: udf_Set_Transmit:plainTXT_Len <- $r2
	@DEBUG_VALUE: udf_Set_Transmit:frameNum <- $r3
	.save	{r4, r5, r6, r7, r8, r9, r10, r11, lr}
	push.w	{r4, r5, r6, r7, r8, r9, r10, r11, lr}
	.cfi_def_cfa_offset 36
	.cfi_offset lr, -4
	.cfi_offset r11, -8
	.cfi_offset r10, -12
	.cfi_offset r9, -16
	.cfi_offset r8, -20
	.cfi_offset r7, -24
	.cfi_offset r6, -28
	.cfi_offset r5, -32
	.cfi_offset r4, -36
	.pad	#2356
	subw	sp, sp, #2356
	.cfi_def_cfa_offset 2392
	mov	r10, r1
.Ltmp36:
	@DEBUG_VALUE: udf_Set_Transmit:plainTXT <- $r10
	.loc	2 1332 16 prologue_end          @ ../das_subg_thread/das_dlms_cmd.c:1332:16
	movw	r1, :lower16:.L__const.udf_Set_Transmit.cmdTXT
	add.w	r8, sp, #1576
	mov	r6, r2
.Ltmp37:
	@DEBUG_VALUE: udf_Set_Transmit:plainTXT_Len <- $r6
	.loc	2 0 16 is_stmt 0                @ ../das_subg_thread/das_dlms_cmd.c:0:16
	ldr.w	r5, [sp, #2392]
	mov	r9, r0
.Ltmp38:
	@DEBUG_VALUE: udf_Set_Transmit:obisTXT <- $r9
	@DEBUG_VALUE: udf_Set_Transmit:plainLen <- $r6
	@DEBUG_VALUE: udf_Set_Transmit:lastNum <- $r5
	@DEBUG_VALUE: udf_Set_Transmit:frameNum <- $r4
	@DEBUG_VALUE: udf_Set_Transmit:plainTXT_Len <- $r6
	@DEBUG_VALUE: udf_Set_Transmit:plainTXT <- $r10
	@DEBUG_VALUE: udf_Set_Transmit:obisTXT <- $r9
	.loc	2 1332 16                       @ ../das_subg_thread/das_dlms_cmd.c:1332:16
	movt	r1, :upper16:.L__const.udf_Set_Transmit.cmdTXT
	mov	r0, r8
	movw	r2, #779
	mov	r4, r3
.Ltmp39:
	bl	__aeabi_memcpy4
.Ltmp40:
	@DEBUG_VALUE: udf_Set_Transmit:cipherLen <- 0
	@DEBUG_VALUE: udf_Set_Transmit:frameLen <- 0
	@DEBUG_VALUE: udf_Set_Transmit:i <- 0
	@DEBUG_VALUE: udf_Set_Transmit:shiftOBIS <- 0
	@DEBUG_VALUE: udf_Set_Transmit:shiftTrans <- 0
	@DEBUG_VALUE: udf_Set_Transmit:shift <- 0
	@DEBUG_VALUE: udf_Set_Transmit:plainLen <- 0
	.loc	2 1419 2 is_stmt 1              @ ../das_subg_thread/das_dlms_cmd.c:1419:2
	adr	r0, .LCPI3_0
	bl	__2printf
.Ltmp41:
	.loc	2 1423 23                       @ ../das_subg_thread/das_dlms_cmd.c:1423:23
	add.w	r2, r6, #35
.Ltmp42:
	@DEBUG_VALUE: udf_Set_Transmit:frameLen <- $r2
	uxth	r0, r2
	mov	r1, r6
.Ltmp43:
	@DEBUG_VALUE: udf_Set_Transmit:plainTXT_Len <- $r1
	.loc	2 1427 5                        @ ../das_subg_thread/das_dlms_cmd.c:1427:5
	cmp.w	r0, #256
	.loc	2 1422 23                       @ ../das_subg_thread/das_dlms_cmd.c:1422:23
	add.w	r1, r6, #21
.Ltmp44:
	@DEBUG_VALUE: udf_Set_Transmit:cipherLen <- $r1
	str	r6, [sp, #32]                   @ 4-byte Spill
.Ltmp45:
	@DEBUG_VALUE: udf_Set_Transmit:plainTXT_Len <- [DW_OP_plus_uconst 32] [$sp+0]
	.loc	2 1427 5                        @ ../das_subg_thread/das_dlms_cmd.c:1427:5
	str	r2, [sp, #16]                   @ 4-byte Spill
.Ltmp46:
	@DEBUG_VALUE: udf_Set_Transmit:frameLen <- [DW_OP_plus_uconst 16] [$sp+0]
	str	r1, [sp, #24]                   @ 4-byte Spill
	blo	.LBB3_3
.Ltmp47:
@ %bb.1:
	@DEBUG_VALUE: udf_Set_Transmit:frameLen <- [DW_OP_plus_uconst 16] [$sp+0]
	@DEBUG_VALUE: udf_Set_Transmit:plainTXT <- $r10
	@DEBUG_VALUE: udf_Set_Transmit:obisTXT <- $r9
	@DEBUG_VALUE: udf_Set_Transmit:lastNum <- $r5
	@DEBUG_VALUE: udf_Set_Transmit:cipherLen <- $r1
	@DEBUG_VALUE: udf_Set_Transmit:plainTXT_Len <- [DW_OP_plus_uconst 32] [$sp+0]
	@DEBUG_VALUE: udf_Set_Transmit:plainLen <- 0
	@DEBUG_VALUE: udf_Set_Transmit:shift <- 0
	@DEBUG_VALUE: udf_Set_Transmit:shiftTrans <- 0
	@DEBUG_VALUE: udf_Set_Transmit:shiftOBIS <- 0
	@DEBUG_VALUE: udf_Set_Transmit:i <- 0
	.loc	2 1428 16                       @ ../das_subg_thread/das_dlms_cmd.c:1428:16
	uxth	r0, r1
.Ltmp48:
	.loc	2 1428 6 is_stmt 0              @ ../das_subg_thread/das_dlms_cmd.c:1428:6
	cmp.w	r0, #256
	blo	.LBB3_5
.Ltmp49:
@ %bb.2:
	@DEBUG_VALUE: udf_Set_Transmit:frameLen <- [DW_OP_plus_uconst 16] [$sp+0]
	@DEBUG_VALUE: udf_Set_Transmit:plainTXT <- $r10
	@DEBUG_VALUE: udf_Set_Transmit:obisTXT <- $r9
	@DEBUG_VALUE: udf_Set_Transmit:lastNum <- $r5
	@DEBUG_VALUE: udf_Set_Transmit:cipherLen <- $r1
	@DEBUG_VALUE: udf_Set_Transmit:plainTXT_Len <- [DW_OP_plus_uconst 32] [$sp+0]
	@DEBUG_VALUE: udf_Set_Transmit:plainLen <- 0
	@DEBUG_VALUE: udf_Set_Transmit:shift <- 0
	@DEBUG_VALUE: udf_Set_Transmit:shiftTrans <- 0
	@DEBUG_VALUE: udf_Set_Transmit:shiftOBIS <- 0
	@DEBUG_VALUE: udf_Set_Transmit:i <- 0
	@DEBUG_VALUE: udf_Set_Transmit:shift <- 2
	.loc	2 0 6                           @ ../das_subg_thread/das_dlms_cmd.c:0:6
	movs	r0, #130
.Ltmp50:
	.loc	2 1431 15 is_stmt 1             @ ../das_subg_thread/das_dlms_cmd.c:1431:15
	strb.w	r0, [sp, #1588]
	movs	r0, #48
	.loc	2 1432 15                       @ ../das_subg_thread/das_dlms_cmd.c:1432:15
	strb.w	r0, [sp, #1591]
	mov.w	r11, #2
	b	.LBB3_8
.Ltmp51:
.LBB3_3:
	@DEBUG_VALUE: udf_Set_Transmit:frameLen <- [DW_OP_plus_uconst 16] [$sp+0]
	@DEBUG_VALUE: udf_Set_Transmit:plainTXT <- $r10
	@DEBUG_VALUE: udf_Set_Transmit:obisTXT <- $r9
	@DEBUG_VALUE: udf_Set_Transmit:lastNum <- $r5
	@DEBUG_VALUE: udf_Set_Transmit:cipherLen <- $r1
	@DEBUG_VALUE: udf_Set_Transmit:plainTXT_Len <- [DW_OP_plus_uconst 32] [$sp+0]
	@DEBUG_VALUE: udf_Set_Transmit:plainLen <- 0
	@DEBUG_VALUE: udf_Set_Transmit:shift <- 0
	@DEBUG_VALUE: udf_Set_Transmit:shiftTrans <- 0
	@DEBUG_VALUE: udf_Set_Transmit:shiftOBIS <- 0
	@DEBUG_VALUE: udf_Set_Transmit:i <- 0
	.loc	2 1437 11                       @ ../das_subg_thread/das_dlms_cmd.c:1437:11
	cmp	r0, #128
	mov.w	r11, #0
	blo	.LBB3_8
.Ltmp52:
@ %bb.4:
	@DEBUG_VALUE: udf_Set_Transmit:frameLen <- [DW_OP_plus_uconst 16] [$sp+0]
	@DEBUG_VALUE: udf_Set_Transmit:plainTXT <- $r10
	@DEBUG_VALUE: udf_Set_Transmit:obisTXT <- $r9
	@DEBUG_VALUE: udf_Set_Transmit:lastNum <- $r5
	@DEBUG_VALUE: udf_Set_Transmit:cipherLen <- $r1
	@DEBUG_VALUE: udf_Set_Transmit:plainTXT_Len <- [DW_OP_plus_uconst 32] [$sp+0]
	@DEBUG_VALUE: udf_Set_Transmit:plainLen <- 0
	@DEBUG_VALUE: udf_Set_Transmit:shift <- 0
	@DEBUG_VALUE: udf_Set_Transmit:shiftTrans <- 0
	@DEBUG_VALUE: udf_Set_Transmit:shiftOBIS <- 0
	@DEBUG_VALUE: udf_Set_Transmit:i <- 0
	.loc	2 0 11 is_stmt 0                @ ../das_subg_thread/das_dlms_cmd.c:0:11
	uxth	r0, r1
	.loc	2 1437 11                       @ ../das_subg_thread/das_dlms_cmd.c:1437:11
	cmp	r0, #128
	bhs	.LBB3_6
	b	.LBB3_8
.Ltmp53:
.LBB3_5:
	@DEBUG_VALUE: udf_Set_Transmit:frameLen <- [DW_OP_plus_uconst 16] [$sp+0]
	@DEBUG_VALUE: udf_Set_Transmit:plainTXT <- $r10
	@DEBUG_VALUE: udf_Set_Transmit:obisTXT <- $r9
	@DEBUG_VALUE: udf_Set_Transmit:lastNum <- $r5
	@DEBUG_VALUE: udf_Set_Transmit:cipherLen <- $r1
	@DEBUG_VALUE: udf_Set_Transmit:plainTXT_Len <- [DW_OP_plus_uconst 32] [$sp+0]
	@DEBUG_VALUE: udf_Set_Transmit:plainLen <- 0
	@DEBUG_VALUE: udf_Set_Transmit:shift <- 0
	@DEBUG_VALUE: udf_Set_Transmit:shiftTrans <- 0
	@DEBUG_VALUE: udf_Set_Transmit:shiftOBIS <- 0
	@DEBUG_VALUE: udf_Set_Transmit:i <- 0
	.loc	2 1433 12 is_stmt 1             @ ../das_subg_thread/das_dlms_cmd.c:1433:12
	cmp	r0, #128
	blo	.LBB3_7
.Ltmp54:
.LBB3_6:
	@DEBUG_VALUE: udf_Set_Transmit:frameLen <- [DW_OP_plus_uconst 16] [$sp+0]
	@DEBUG_VALUE: udf_Set_Transmit:plainTXT <- $r10
	@DEBUG_VALUE: udf_Set_Transmit:obisTXT <- $r9
	@DEBUG_VALUE: udf_Set_Transmit:lastNum <- $r5
	@DEBUG_VALUE: udf_Set_Transmit:cipherLen <- $r1
	@DEBUG_VALUE: udf_Set_Transmit:plainTXT_Len <- [DW_OP_plus_uconst 32] [$sp+0]
	@DEBUG_VALUE: udf_Set_Transmit:plainLen <- 0
	@DEBUG_VALUE: udf_Set_Transmit:shift <- 0
	@DEBUG_VALUE: udf_Set_Transmit:shiftTrans <- 0
	@DEBUG_VALUE: udf_Set_Transmit:shiftOBIS <- 0
	@DEBUG_VALUE: udf_Set_Transmit:i <- 0
	@DEBUG_VALUE: udf_Set_Transmit:shift <- 1
	.loc	2 0 12 is_stmt 0                @ ../das_subg_thread/das_dlms_cmd.c:0:12
	movs	r0, #129
	mov.w	r11, #1
	strb.w	r0, [sp, #1588]
	b	.LBB3_8
.Ltmp55:
.LBB3_7:
	@DEBUG_VALUE: udf_Set_Transmit:frameLen <- [DW_OP_plus_uconst 16] [$sp+0]
	@DEBUG_VALUE: udf_Set_Transmit:plainTXT <- $r10
	@DEBUG_VALUE: udf_Set_Transmit:obisTXT <- $r9
	@DEBUG_VALUE: udf_Set_Transmit:lastNum <- $r5
	@DEBUG_VALUE: udf_Set_Transmit:cipherLen <- $r1
	@DEBUG_VALUE: udf_Set_Transmit:plainTXT_Len <- [DW_OP_plus_uconst 32] [$sp+0]
	@DEBUG_VALUE: udf_Set_Transmit:plainLen <- 0
	@DEBUG_VALUE: udf_Set_Transmit:shift <- 0
	@DEBUG_VALUE: udf_Set_Transmit:shiftTrans <- 0
	@DEBUG_VALUE: udf_Set_Transmit:shiftOBIS <- 0
	@DEBUG_VALUE: udf_Set_Transmit:i <- 0
	mov.w	r11, #0
.Ltmp56:
.LBB3_8:
	@DEBUG_VALUE: udf_Set_Transmit:frameLen <- [DW_OP_plus_uconst 16] [$sp+0]
	@DEBUG_VALUE: udf_Set_Transmit:plainTXT <- $r10
	@DEBUG_VALUE: udf_Set_Transmit:obisTXT <- $r9
	@DEBUG_VALUE: udf_Set_Transmit:lastNum <- $r5
	@DEBUG_VALUE: udf_Set_Transmit:cipherLen <- $r1
	@DEBUG_VALUE: udf_Set_Transmit:plainTXT_Len <- [DW_OP_plus_uconst 32] [$sp+0]
	@DEBUG_VALUE: udf_Set_Transmit:plainLen <- 0
	@DEBUG_VALUE: udf_Set_Transmit:shiftTrans <- 0
	@DEBUG_VALUE: udf_Set_Transmit:shiftOBIS <- 0
	@DEBUG_VALUE: udf_Set_Transmit:i <- 0
	@DEBUG_VALUE: udf_Set_Transmit:shift <- undef
	.loc	2 1450 24 is_stmt 1             @ ../das_subg_thread/das_dlms_cmd.c:1450:24
	movw	r1, :lower16:ic_count
.Ltmp57:
	movt	r1, :upper16:ic_count
	ldrh	r1, [r1]
	.loc	2 1448 12                       @ ../das_subg_thread/das_dlms_cmd.c:1448:12
	add.w	r2, r11, #14
	movs	r0, #0
	str	r2, [sp, #20]                   @ 4-byte Spill
	.loc	2 1448 21 is_stmt 0             @ ../das_subg_thread/das_dlms_cmd.c:1448:21
	strh.w	r0, [r8, r2]
	.loc	2 1450 33 is_stmt 1             @ ../das_subg_thread/das_dlms_cmd.c:1450:33
	lsrs	r0, r1, #8
	.loc	2 1450 12 is_stmt 0             @ ../das_subg_thread/das_dlms_cmd.c:1450:12
	add.w	r2, r11, #16
	.loc	2 1450 21                       @ ../das_subg_thread/das_dlms_cmd.c:1450:21
	strb.w	r0, [r8, r2]
	@DEBUG_VALUE: udf_Set_Transmit:i <- 0
	.loc	2 1452 12 is_stmt 1             @ ../das_subg_thread/das_dlms_cmd.c:1452:12
	add.w	r6, r11, #18
	movw	r0, #449
	.loc	2 1451 13                       @ ../das_subg_thread/das_dlms_cmd.c:1451:13
	add.w	r7, r11, r8
	.loc	2 1452 21                       @ ../das_subg_thread/das_dlms_cmd.c:1452:21
	strh.w	r0, [r8, r6]
	.loc	2 1454 35                       @ ../das_subg_thread/das_dlms_cmd.c:1454:35
	subs	r0, r1, #3
	.loc	2 1451 22                       @ ../das_subg_thread/das_dlms_cmd.c:1451:22
	strb	r1, [r7, #17]
	.loc	2 1454 39                       @ ../das_subg_thread/das_dlms_cmd.c:1454:39
	add.w	r1, r0, r0, lsr #26
	and	r1, r1, #192
	subs	r0, r0, r1
	.loc	2 1454 24 is_stmt 0             @ ../das_subg_thread/das_dlms_cmd.c:1454:24
	adds	r0, #64
	.loc	2 1454 13                       @ ../das_subg_thread/das_dlms_cmd.c:1454:13
	add.w	r1, r11, #20
	.loc	2 1454 22                       @ ../das_subg_thread/das_dlms_cmd.c:1454:22
	strb.w	r0, [r8, r1]
.Ltmp58:
	.loc	2 1457 2 is_stmt 1              @ ../das_subg_thread/das_dlms_cmd.c:1457:2
	add.w	r0, r7, #22
.Ltmp59:
	.loc	2 1458 28                       @ ../das_subg_thread/das_dlms_cmd.c:1458:28
	mov	r1, r9
	movs	r2, #9
.Ltmp60:
	.loc	2 1455 31                       @ ../das_subg_thread/das_dlms_cmd.c:1455:31
	cmp	r5, #0
	it	ne
	movne	r5, #1
.Ltmp61:
	.loc	2 1455 21 is_stmt 0             @ ../das_subg_thread/das_dlms_cmd.c:1455:21
	strb	r5, [r7, #21]
	mov.w	r9, #9
.Ltmp62:
	.loc	2 1458 28 is_stmt 1             @ ../das_subg_thread/das_dlms_cmd.c:1458:28
	bl	__aeabi_memcpy
.Ltmp63:
	@DEBUG_VALUE: udf_Set_Transmit:i <- [DW_OP_plus_uconst 1, DW_OP_stack_value] undef
	@DEBUG_VALUE: udf_Set_Transmit:shiftOBIS <- 9
	.loc	2 1463 5                        @ ../das_subg_thread/das_dlms_cmd.c:1463:5
	cbz	r4, .LBB3_11
.Ltmp64:
@ %bb.9:
	@DEBUG_VALUE: udf_Set_Transmit:frameLen <- [DW_OP_plus_uconst 16] [$sp+0]
	@DEBUG_VALUE: udf_Set_Transmit:plainTXT <- $r10
	@DEBUG_VALUE: udf_Set_Transmit:plainTXT_Len <- [DW_OP_plus_uconst 32] [$sp+0]
	@DEBUG_VALUE: udf_Set_Transmit:shiftOBIS <- 9
	@DEBUG_VALUE: udf_Set_Transmit:plainLen <- 0
	@DEBUG_VALUE: udf_Set_Transmit:shiftTrans <- 0
	cmp	r4, #1
	.loc	2 0 0 is_stmt 0                 @ ../das_subg_thread/das_dlms_cmd.c:0:0
	add.w	r0, r11, #19
	.loc	2 1463 5                        @ ../das_subg_thread/das_dlms_cmd.c:1463:5
	bne	.LBB3_12
.Ltmp65:
@ %bb.10:
	@DEBUG_VALUE: udf_Set_Transmit:frameLen <- [DW_OP_plus_uconst 16] [$sp+0]
	@DEBUG_VALUE: udf_Set_Transmit:plainTXT <- $r10
	@DEBUG_VALUE: udf_Set_Transmit:plainTXT_Len <- [DW_OP_plus_uconst 32] [$sp+0]
	@DEBUG_VALUE: udf_Set_Transmit:shiftOBIS <- 9
	@DEBUG_VALUE: udf_Set_Transmit:plainLen <- 0
	@DEBUG_VALUE: udf_Set_Transmit:shiftTrans <- 0
	.loc	2 0 5                           @ ../das_subg_thread/das_dlms_cmd.c:0:5
	movs	r1, #2
.Ltmp66:
	.loc	2 1465 23 is_stmt 1             @ ../das_subg_thread/das_dlms_cmd.c:1465:23
	strb.w	r1, [r8, r0]
	movs	r0, #0
	.loc	2 1466 23                       @ ../das_subg_thread/das_dlms_cmd.c:1466:23
	strb	r0, [r7, #31]
	mov.w	r9, #10
.Ltmp67:
	@DEBUG_VALUE: udf_Set_Transmit:shiftOBIS <- 10
	.loc	2 0 23 is_stmt 0                @ ../das_subg_thread/das_dlms_cmd.c:0:23
	b	.LBB3_13
.Ltmp68:
.LBB3_11:
	@DEBUG_VALUE: udf_Set_Transmit:frameLen <- [DW_OP_plus_uconst 16] [$sp+0]
	@DEBUG_VALUE: udf_Set_Transmit:plainTXT <- $r10
	@DEBUG_VALUE: udf_Set_Transmit:plainTXT_Len <- [DW_OP_plus_uconst 32] [$sp+0]
	@DEBUG_VALUE: udf_Set_Transmit:shiftOBIS <- 9
	@DEBUG_VALUE: udf_Set_Transmit:plainLen <- 0
	@DEBUG_VALUE: udf_Set_Transmit:shiftTrans <- 0
	ldr.w	r12, [sp, #32]                  @ 4-byte Reload
	ldr	r2, [sp, #16]                   @ 4-byte Reload
.Ltmp69:
	@DEBUG_VALUE: udf_Set_Transmit:frameLen <- $r2
	mov	r1, r10
	b	.LBB3_20
.Ltmp70:
.LBB3_12:
	@DEBUG_VALUE: udf_Set_Transmit:frameLen <- [DW_OP_plus_uconst 16] [$sp+0]
	@DEBUG_VALUE: udf_Set_Transmit:plainTXT <- $r10
	@DEBUG_VALUE: udf_Set_Transmit:plainTXT_Len <- [DW_OP_plus_uconst 32] [$sp+0]
	@DEBUG_VALUE: udf_Set_Transmit:shiftOBIS <- 9
	@DEBUG_VALUE: udf_Set_Transmit:plainLen <- 0
	@DEBUG_VALUE: udf_Set_Transmit:shiftTrans <- 0
	movs	r1, #3
	mov.w	r9, #0
.Ltmp71:
	@DEBUG_VALUE: udf_Set_Transmit:shiftOBIS <- 0
	.loc	2 1469 23 is_stmt 1             @ ../das_subg_thread/das_dlms_cmd.c:1469:23
	strb.w	r1, [r8, r0]
.Ltmp72:
.LBB3_13:
	@DEBUG_VALUE: udf_Set_Transmit:frameLen <- [DW_OP_plus_uconst 16] [$sp+0]
	@DEBUG_VALUE: udf_Set_Transmit:plainTXT <- $r10
	@DEBUG_VALUE: udf_Set_Transmit:plainTXT_Len <- [DW_OP_plus_uconst 32] [$sp+0]
	@DEBUG_VALUE: udf_Set_Transmit:plainLen <- 0
	@DEBUG_VALUE: udf_Set_Transmit:shiftTrans <- 0
	.loc	2 0 23 is_stmt 0                @ ../das_subg_thread/das_dlms_cmd.c:0:23
	ldr.w	r12, [sp, #32]                  @ 4-byte Reload
.Ltmp73:
	@DEBUG_VALUE: udf_Set_Transmit:shiftOBIS <- $r9
	.loc	2 1472 13 is_stmt 1             @ ../das_subg_thread/das_dlms_cmd.c:1472:13
	add.w	r0, r11, r9
	.loc	2 1472 21 is_stmt 0             @ ../das_subg_thread/das_dlms_cmd.c:1472:21
	add.w	r3, r0, r8
	.loc	2 1475 34 is_stmt 1             @ ../das_subg_thread/das_dlms_cmd.c:1475:34
	rev	r2, r4
	.loc	2 1476 6                        @ ../das_subg_thread/das_dlms_cmd.c:1476:6
	cmp.w	r12, #256
	.loc	2 1475 34                       @ ../das_subg_thread/das_dlms_cmd.c:1475:34
	str.w	r2, [r3, #22]
	.loc	2 1476 6                        @ ../das_subg_thread/das_dlms_cmd.c:1476:6
	blo	.LBB3_15
.Ltmp74:
@ %bb.14:
	@DEBUG_VALUE: udf_Set_Transmit:frameLen <- [DW_OP_plus_uconst 16] [$sp+0]
	@DEBUG_VALUE: udf_Set_Transmit:plainTXT <- $r10
	@DEBUG_VALUE: udf_Set_Transmit:shiftOBIS <- $r9
	@DEBUG_VALUE: udf_Set_Transmit:plainTXT_Len <- [DW_OP_plus_uconst 32] [$sp+0]
	@DEBUG_VALUE: udf_Set_Transmit:plainLen <- 0
	@DEBUG_VALUE: udf_Set_Transmit:shiftTrans <- 0
	.loc	2 0 6 is_stmt 0                 @ ../das_subg_thread/das_dlms_cmd.c:0:6
	movs	r2, #130
	mov	r1, r10
.Ltmp75:
	.loc	2 1477 35 is_stmt 1             @ ../das_subg_thread/das_dlms_cmd.c:1477:35
	strb	r2, [r3, #26]
	.loc	2 1478 47                       @ ../das_subg_thread/das_dlms_cmd.c:1478:47
	lsr.w	r2, r12, #8
	movs	r4, #7
	movs	r7, #28
	movs	r3, #27
.Ltmp76:
	@DEBUG_VALUE: udf_Set_Transmit:shiftTrans <- 7
	.loc	2 0 47 is_stmt 0                @ ../das_subg_thread/das_dlms_cmd.c:0:47
	b	.LBB3_17
.Ltmp77:
.LBB3_15:
	@DEBUG_VALUE: udf_Set_Transmit:frameLen <- [DW_OP_plus_uconst 16] [$sp+0]
	@DEBUG_VALUE: udf_Set_Transmit:plainTXT <- $r10
	@DEBUG_VALUE: udf_Set_Transmit:shiftOBIS <- $r9
	@DEBUG_VALUE: udf_Set_Transmit:plainTXT_Len <- [DW_OP_plus_uconst 32] [$sp+0]
	@DEBUG_VALUE: udf_Set_Transmit:plainLen <- 0
	@DEBUG_VALUE: udf_Set_Transmit:shiftTrans <- 0
	.loc	2 1481 12 is_stmt 1             @ ../das_subg_thread/das_dlms_cmd.c:1481:12
	cmp.w	r12, #128
	mov.w	r3, #26
	mov	r1, r10
	blo	.LBB3_18
.Ltmp78:
@ %bb.16:
	@DEBUG_VALUE: udf_Set_Transmit:frameLen <- [DW_OP_plus_uconst 16] [$sp+0]
	@DEBUG_VALUE: udf_Set_Transmit:plainTXT <- $r10
	@DEBUG_VALUE: udf_Set_Transmit:shiftOBIS <- $r9
	@DEBUG_VALUE: udf_Set_Transmit:plainTXT_Len <- [DW_OP_plus_uconst 32] [$sp+0]
	@DEBUG_VALUE: udf_Set_Transmit:plainLen <- 0
	@DEBUG_VALUE: udf_Set_Transmit:shiftTrans <- 0
	.loc	2 0 12 is_stmt 0                @ ../das_subg_thread/das_dlms_cmd.c:0:12
	movs	r4, #6
	movs	r7, #27
	movs	r2, #129
.Ltmp79:
.LBB3_17:
	@DEBUG_VALUE: udf_Set_Transmit:frameLen <- [DW_OP_plus_uconst 16] [$sp+0]
	@DEBUG_VALUE: udf_Set_Transmit:plainTXT <- $r10
	@DEBUG_VALUE: udf_Set_Transmit:shiftOBIS <- $r9
	@DEBUG_VALUE: udf_Set_Transmit:plainTXT_Len <- [DW_OP_plus_uconst 32] [$sp+0]
	@DEBUG_VALUE: udf_Set_Transmit:plainLen <- 0
	add	r3, r0
	strb.w	r2, [r8, r3]
	mov	r3, r7
	b	.LBB3_19
.Ltmp80:
.LBB3_18:
	@DEBUG_VALUE: udf_Set_Transmit:frameLen <- [DW_OP_plus_uconst 16] [$sp+0]
	@DEBUG_VALUE: udf_Set_Transmit:plainTXT <- $r10
	@DEBUG_VALUE: udf_Set_Transmit:shiftOBIS <- $r9
	@DEBUG_VALUE: udf_Set_Transmit:plainTXT_Len <- [DW_OP_plus_uconst 32] [$sp+0]
	@DEBUG_VALUE: udf_Set_Transmit:plainLen <- 0
	@DEBUG_VALUE: udf_Set_Transmit:shiftTrans <- 0
	movs	r4, #5
.Ltmp81:
.LBB3_19:
	@DEBUG_VALUE: udf_Set_Transmit:frameLen <- [DW_OP_plus_uconst 16] [$sp+0]
	@DEBUG_VALUE: udf_Set_Transmit:plainTXT <- $r10
	@DEBUG_VALUE: udf_Set_Transmit:shiftOBIS <- $r9
	@DEBUG_VALUE: udf_Set_Transmit:plainTXT_Len <- [DW_OP_plus_uconst 32] [$sp+0]
	@DEBUG_VALUE: udf_Set_Transmit:plainLen <- 0
	ldr	r2, [sp, #16]                   @ 4-byte Reload
.Ltmp82:
	@DEBUG_VALUE: udf_Set_Transmit:frameLen <- $r2
	add	r0, r3
	strb.w	r12, [r8, r0]
.Ltmp83:
.LBB3_20:
	@DEBUG_VALUE: udf_Set_Transmit:plainTXT <- $r10
	@DEBUG_VALUE: udf_Set_Transmit:frameLen <- $r2
	@DEBUG_VALUE: udf_Set_Transmit:plainTXT_Len <- [DW_OP_plus_uconst 32] [$sp+0]
	@DEBUG_VALUE: udf_Set_Transmit:plainLen <- 0
	.loc	2 1492 21 is_stmt 1             @ ../das_subg_thread/das_dlms_cmd.c:1492:21
	add.w	r10, r4, r9
.Ltmp84:
	.loc	2 0 21 is_stmt 0                @ ../das_subg_thread/das_dlms_cmd.c:0:21
	ldr	r7, [sp, #24]                   @ 4-byte Reload
	.loc	2 1492 34                       @ ../das_subg_thread/das_dlms_cmd.c:1492:34
	add.w	r0, r10, r11
	.loc	2 1492 11                       @ ../das_subg_thread/das_dlms_cmd.c:1492:11
	add	r2, r0
.Ltmp85:
	@DEBUG_VALUE: udf_Set_Transmit:frameLen <- $r2
	.loc	2 0 11                          @ ../das_subg_thread/das_dlms_cmd.c:0:11
	str	r4, [sp, #28]                   @ 4-byte Spill
	.loc	2 1493 12 is_stmt 1             @ ../das_subg_thread/das_dlms_cmd.c:1493:12
	add.w	r4, r7, r10
.Ltmp86:
	@DEBUG_VALUE: udf_Set_Transmit:cipherLen <- $r4
	.loc	2 1492 11                       @ ../das_subg_thread/das_dlms_cmd.c:1492:11
	uxth	r7, r2
	mvn	r0, #95
	.loc	2 0 0 is_stmt 0                 @ ../das_subg_thread/das_dlms_cmd.c:0:0
	add.w	r3, r8, r6
.Ltmp87:
	@DEBUG_VALUE: udf_Set_Transmit:shiftOBIS <- $r9
	@DEBUG_VALUE: udf_Set_Transmit:shiftTrans <- undef
	.loc	2 1494 14 is_stmt 1             @ ../das_subg_thread/das_dlms_cmd.c:1494:14
	add.w	r0, r0, r7, lsr #8
	.loc	2 1496 2                        @ ../das_subg_thread/das_dlms_cmd.c:1496:2
	cmp.w	r11, #2
	.loc	2 1494 12                       @ ../das_subg_thread/das_dlms_cmd.c:1494:12
	strb.w	r0, [sp, #1577]
	.loc	2 1495 12                       @ ../das_subg_thread/das_dlms_cmd.c:1495:12
	strb.w	r2, [sp, #1578]
	.loc	2 1496 2                        @ ../das_subg_thread/das_dlms_cmd.c:1496:2
	beq	.LBB3_25
.Ltmp88:
@ %bb.21:
	@DEBUG_VALUE: udf_Set_Transmit:shiftOBIS <- $r9
	@DEBUG_VALUE: udf_Set_Transmit:cipherLen <- $r4
	@DEBUG_VALUE: udf_Set_Transmit:frameLen <- $r2
	@DEBUG_VALUE: udf_Set_Transmit:plainTXT_Len <- [DW_OP_plus_uconst 32] [$sp+0]
	@DEBUG_VALUE: udf_Set_Transmit:plainLen <- 0
	cmp.w	r11, #1
	beq	.LBB3_24
.Ltmp89:
@ %bb.22:
	@DEBUG_VALUE: udf_Set_Transmit:shiftOBIS <- $r9
	@DEBUG_VALUE: udf_Set_Transmit:cipherLen <- $r4
	@DEBUG_VALUE: udf_Set_Transmit:frameLen <- $r2
	@DEBUG_VALUE: udf_Set_Transmit:plainTXT_Len <- [DW_OP_plus_uconst 32] [$sp+0]
	@DEBUG_VALUE: udf_Set_Transmit:plainLen <- 0
	cmp.w	r11, #0
	bne	.LBB3_28
.Ltmp90:
@ %bb.23:
	@DEBUG_VALUE: udf_Set_Transmit:shiftOBIS <- $r9
	@DEBUG_VALUE: udf_Set_Transmit:cipherLen <- $r4
	@DEBUG_VALUE: udf_Set_Transmit:frameLen <- $r2
	@DEBUG_VALUE: udf_Set_Transmit:plainTXT_Len <- [DW_OP_plus_uconst 32] [$sp+0]
	@DEBUG_VALUE: udf_Set_Transmit:plainLen <- 0
	.loc	2 1498 15                       @ ../das_subg_thread/das_dlms_cmd.c:1498:15
	strb.w	r4, [sp, #1588]
	movs	r4, #48
.Ltmp91:
	.loc	2 0 15 is_stmt 0                @ ../das_subg_thread/das_dlms_cmd.c:0:15
	movs	r2, #13
.Ltmp92:
	b	.LBB3_27
.Ltmp93:
.LBB3_24:
	@DEBUG_VALUE: udf_Set_Transmit:shiftOBIS <- $r9
	@DEBUG_VALUE: udf_Set_Transmit:cipherLen <- $r4
	@DEBUG_VALUE: udf_Set_Transmit:frameLen <- $r2
	@DEBUG_VALUE: udf_Set_Transmit:plainTXT_Len <- [DW_OP_plus_uconst 32] [$sp+0]
	@DEBUG_VALUE: udf_Set_Transmit:plainLen <- 0
	.loc	2 1502 15 is_stmt 1             @ ../das_subg_thread/das_dlms_cmd.c:1502:15
	strb.w	r4, [sp, #1589]
	movs	r4, #48
.Ltmp94:
	.loc	2 0 15 is_stmt 0                @ ../das_subg_thread/das_dlms_cmd.c:0:15
	b	.LBB3_26
.Ltmp95:
.LBB3_25:
	@DEBUG_VALUE: udf_Set_Transmit:shiftOBIS <- $r9
	@DEBUG_VALUE: udf_Set_Transmit:cipherLen <- $r4
	@DEBUG_VALUE: udf_Set_Transmit:frameLen <- $r2
	@DEBUG_VALUE: udf_Set_Transmit:plainTXT_Len <- [DW_OP_plus_uconst 32] [$sp+0]
	@DEBUG_VALUE: udf_Set_Transmit:plainLen <- 0
	.loc	2 1506 30 is_stmt 1             @ ../das_subg_thread/das_dlms_cmd.c:1506:30
	lsrs	r2, r4, #8
.Ltmp96:
	.loc	2 1506 15 is_stmt 0             @ ../das_subg_thread/das_dlms_cmd.c:1506:15
	strb.w	r2, [sp, #1589]
.Ltmp97:
.LBB3_26:
	@DEBUG_VALUE: udf_Set_Transmit:shiftOBIS <- $r9
	@DEBUG_VALUE: udf_Set_Transmit:plainTXT_Len <- [DW_OP_plus_uconst 32] [$sp+0]
	@DEBUG_VALUE: udf_Set_Transmit:plainLen <- 0
	.loc	2 0 15                          @ ../das_subg_thread/das_dlms_cmd.c:0:15
	movs	r2, #14
.Ltmp98:
.LBB3_27:
	@DEBUG_VALUE: udf_Set_Transmit:shiftOBIS <- $r9
	@DEBUG_VALUE: udf_Set_Transmit:plainTXT_Len <- [DW_OP_plus_uconst 32] [$sp+0]
	@DEBUG_VALUE: udf_Set_Transmit:plainLen <- 0
	strb.w	r4, [r8, r2]
.Ltmp99:
.LBB3_28:
	@DEBUG_VALUE: udf_Set_Transmit:shiftOBIS <- $r9
	@DEBUG_VALUE: udf_Set_Transmit:plainTXT_Len <- [DW_OP_plus_uconst 32] [$sp+0]
	@DEBUG_VALUE: udf_Set_Transmit:plainLen <- 0
	@DEBUG_VALUE: udf_Set_Transmit:i <- 1
	@DEBUG_VALUE: udf_Set_Transmit:crc16 <- -1
	@DEBUG_VALUE: udf_Set_Transmit:ch <- $r0
	@DEBUG_VALUE: UpdateCRC16:crc <- -1
	@DEBUG_VALUE: UpdateCRC16:value <- $r0
	str.w	r9, [sp, #24]                   @ 4-byte Spill
.Ltmp100:
	@DEBUG_VALUE: udf_Set_Transmit:shiftOBIS <- [DW_OP_plus_uconst 24] [$sp+0]
	movs	r2, #15
.Ltmp101:
	.loc	2 231 23 is_stmt 1              @ ../das_subg_thread/das_dlms_cmd.c:231:23
	movw	r9, :lower16:.L__const.UpdateCRC16.CRC16Table
	str	r7, [sp, #16]                   @ 4-byte Spill
	.loc	2 231 49 is_stmt 0              @ ../das_subg_thread/das_dlms_cmd.c:231:49
	uxtb	r7, r0
	.loc	2 231 46                        @ ../das_subg_thread/das_dlms_cmd.c:231:46
	bic.w	r0, r2, r0
.Ltmp102:
	.loc	2 231 23                        @ ../das_subg_thread/das_dlms_cmd.c:231:23
	movt	r9, :upper16:.L__const.UpdateCRC16.CRC16Table
	ldrh.w	r0, [r9, r0, lsl #1]
	movw	r2, #4095
	.loc	2 231 21                        @ ../das_subg_thread/das_dlms_cmd.c:231:21
	eors	r0, r2
.Ltmp103:
	@DEBUG_VALUE: UpdateCRC16:crc <- $r0
	.loc	2 232 39 is_stmt 1              @ ../das_subg_thread/das_dlms_cmd.c:232:39
	and	r2, r0, #15
	.loc	2 232 46 is_stmt 0              @ ../das_subg_thread/das_dlms_cmd.c:232:46
	eor.w	r2, r2, r7, lsr #4
	.loc	2 232 23                        @ ../das_subg_thread/das_dlms_cmd.c:232:23
	ldrh.w	r2, [r9, r2, lsl #1]
	.loc	2 231 21 is_stmt 1              @ ../das_subg_thread/das_dlms_cmd.c:231:21
	uxth	r0, r0
.Ltmp104:
	.loc	2 232 21                        @ ../das_subg_thread/das_dlms_cmd.c:232:21
	eor.w	r2, r2, r0, lsr #4
.Ltmp105:
	@DEBUG_VALUE: UpdateCRC16:crc <- $r2
	@DEBUG_VALUE: udf_Set_Transmit:crc16 <- $r2
	@DEBUG_VALUE: udf_Set_Transmit:i <- 2
	.loc	2 1516 3                        @ ../das_subg_thread/das_dlms_cmd.c:1516:3
	add.w	r0, r8, #2
	movs	r4, #0
.Ltmp106:
	.p2align	2
.LBB3_29:                               @ =>This Inner Loop Header: Depth=1
	@DEBUG_VALUE: udf_Set_Transmit:shiftOBIS <- [DW_OP_plus_uconst 24] [$sp+0]
	@DEBUG_VALUE: udf_Set_Transmit:crc16 <- $r2
	@DEBUG_VALUE: UpdateCRC16:crc <- $r2
	@DEBUG_VALUE: udf_Set_Transmit:plainTXT_Len <- [DW_OP_plus_uconst 32] [$sp+0]
	@DEBUG_VALUE: udf_Set_Transmit:plainLen <- 0
	.loc	2 1517 10                       @ ../das_subg_thread/das_dlms_cmd.c:1517:10
	ldrb	r5, [r0, r4]
.Ltmp107:
	@DEBUG_VALUE: UpdateCRC16:value <- undef
	@DEBUG_VALUE: UpdateCRC16:crc <- $r2
	@DEBUG_VALUE: udf_Set_Transmit:ch <- undef
	@DEBUG_VALUE: udf_Set_Transmit:crc16 <- $r2
	@DEBUG_VALUE: udf_Set_Transmit:i <- [DW_OP_plus_uconst 2, DW_OP_stack_value] $r4
	.loc	2 1516 17                       @ ../das_subg_thread/das_dlms_cmd.c:1516:17
	adds	r4, #1
.Ltmp108:
	.loc	2 231 46                        @ ../das_subg_thread/das_dlms_cmd.c:231:46
	eor.w	r7, r5, r2
	and	r7, r7, #15
	.loc	2 231 23 is_stmt 0              @ ../das_subg_thread/das_dlms_cmd.c:231:23
	ldrh.w	r7, [r9, r7, lsl #1]
	.loc	2 231 10                        @ ../das_subg_thread/das_dlms_cmd.c:231:10
	uxth	r2, r2
.Ltmp109:
	.loc	2 231 21                        @ ../das_subg_thread/das_dlms_cmd.c:231:21
	eor.w	r2, r7, r2, lsr #4
.Ltmp110:
	@DEBUG_VALUE: UpdateCRC16:crc <- $r2
	uxth	r7, r2
	.loc	2 232 39 is_stmt 1              @ ../das_subg_thread/das_dlms_cmd.c:232:39
	and	r2, r2, #15
.Ltmp111:
	.loc	2 232 46 is_stmt 0              @ ../das_subg_thread/das_dlms_cmd.c:232:46
	eor.w	r2, r2, r5, lsr #4
	.loc	2 232 23                        @ ../das_subg_thread/das_dlms_cmd.c:232:23
	ldrh.w	r2, [r9, r2, lsl #1]
.Ltmp112:
	.loc	2 1516 3 is_stmt 1              @ ../das_subg_thread/das_dlms_cmd.c:1516:3
	cmp	r4, #4
.Ltmp113:
	.loc	2 232 21                        @ ../das_subg_thread/das_dlms_cmd.c:232:21
	eor.w	r2, r2, r7, lsr #4
.Ltmp114:
	@DEBUG_VALUE: UpdateCRC16:crc <- $r2
	@DEBUG_VALUE: udf_Set_Transmit:crc16 <- $r2
	@DEBUG_VALUE: udf_Set_Transmit:i <- [DW_OP_plus_uconst 3, DW_OP_stack_value] $r4
	.loc	2 1516 3                        @ ../das_subg_thread/das_dlms_cmd.c:1516:3
	bne	.LBB3_29
.Ltmp115:
@ %bb.30:
	@DEBUG_VALUE: udf_Set_Transmit:shiftOBIS <- [DW_OP_plus_uconst 24] [$sp+0]
	@DEBUG_VALUE: udf_Set_Transmit:i <- [DW_OP_plus_uconst 3, DW_OP_stack_value] $r4
	@DEBUG_VALUE: udf_Set_Transmit:crc16 <- $r2
	@DEBUG_VALUE: udf_Set_Transmit:plainTXT_Len <- [DW_OP_plus_uconst 32] [$sp+0]
	@DEBUG_VALUE: udf_Set_Transmit:plainLen <- 0
	.loc	2 1522 11                       @ ../das_subg_thread/das_dlms_cmd.c:1522:11
	mvns	r0, r2
.Ltmp116:
	@DEBUG_VALUE: udf_Set_Transmit:crc16 <- $r0
	.loc	2 1527 2                        @ ../das_subg_thread/das_dlms_cmd.c:1527:2
	cmp.w	r12, #0
.Ltmp117:
	.loc	2 1524 13                       @ ../das_subg_thread/das_dlms_cmd.c:1524:13
	strh.w	r0, [sp, #1582]
.Ltmp118:
	@DEBUG_VALUE: udf_Set_Transmit:i <- 0
	.loc	2 1527 2                        @ ../das_subg_thread/das_dlms_cmd.c:1527:2
	beq	.LBB3_32
.Ltmp119:
@ %bb.31:
	@DEBUG_VALUE: udf_Set_Transmit:shiftOBIS <- [DW_OP_plus_uconst 24] [$sp+0]
	@DEBUG_VALUE: udf_Set_Transmit:crc16 <- $r0
	@DEBUG_VALUE: udf_Set_Transmit:plainTXT_Len <- [DW_OP_plus_uconst 32] [$sp+0]
	@DEBUG_VALUE: udf_Set_Transmit:plainLen <- 0
	@DEBUG_VALUE: udf_Set_Transmit:i <- 0
	ldr	r0, [sp, #28]                   @ 4-byte Reload
.Ltmp120:
	ldr	r2, [sp, #24]                   @ 4-byte Reload
.Ltmp121:
	@DEBUG_VALUE: udf_Set_Transmit:shiftOBIS <- $r2
	add	r0, r11
	add	r0, r2
	add	r0, r8
	adds	r0, #22
.Ltmp122:
	.loc	2 1528 51                       @ ../das_subg_thread/das_dlms_cmd.c:1528:51
	mov	r2, r12
.Ltmp123:
	.loc	2 0 51 is_stmt 0                @ ../das_subg_thread/das_dlms_cmd.c:0:51
	mov	r5, r12
	mov	r4, r3
	.loc	2 1528 51                       @ ../das_subg_thread/das_dlms_cmd.c:1528:51
	bl	__aeabi_memcpy
.Ltmp124:
	.loc	2 0 51                          @ ../das_subg_thread/das_dlms_cmd.c:0:51
	mov	r3, r4
	mov	r12, r5
.Ltmp125:
	@DEBUG_VALUE: udf_Set_Transmit:i <- [DW_OP_plus_uconst 1, DW_OP_stack_value] undef
.LBB3_32:
	@DEBUG_VALUE: udf_Set_Transmit:plainTXT_Len <- [DW_OP_plus_uconst 32] [$sp+0]
	@DEBUG_VALUE: udf_Set_Transmit:plainLen <- 0
	@DEBUG_VALUE: udf_Set_Transmit:i <- 0
	.loc	2 1533 19 is_stmt 1             @ ../das_subg_thread/das_dlms_cmd.c:1533:19
	ldr	r0, [sp, #20]                   @ 4-byte Reload
	movw	r2, :lower16:tpc_c_iv
	ldr.w	r0, [r8, r0]
	movt	r2, :upper16:tpc_c_iv
	str	r0, [r2, #8]
.Ltmp126:
	@DEBUG_VALUE: udf_Set_Transmit:i <- [DW_OP_plus_uconst 1, DW_OP_stack_value] undef
	.loc	2 1536 94                       @ ../das_subg_thread/das_dlms_cmd.c:1536:94
	add.w	r0, r10, r12
	adds	r5, r0, #4
	.loc	2 1536 2 is_stmt 0              @ ../das_subg_thread/das_dlms_cmd.c:1536:2
	uxth	r0, r5
	add	r1, sp, #36
	add.w	r7, sp, #55
	strd	r7, r1, [sp]
	str	r0, [sp, #8]
	movw	r0, :lower16:tpc_dk
	movw	r1, :lower16:tpc_gcm_ak
	movs	r4, #17
	movt	r0, :upper16:tpc_dk
	movt	r1, :upper16:tpc_gcm_ak
	str	r4, [sp, #12]
	bl	udf_AES_GCM_Encrypt
.Ltmp127:
	@DEBUG_VALUE: udf_Set_Transmit:i <- 0
	.loc	2 0 2                           @ ../das_subg_thread/das_dlms_cmd.c:0:2
	movs	r1, #0
	movs	r0, #0
.Ltmp128:
	.p2align	2
.LBB3_33:                               @ =>This Inner Loop Header: Depth=1
	@DEBUG_VALUE: udf_Set_Transmit:plainTXT_Len <- [DW_OP_plus_uconst 32] [$sp+0]
	@DEBUG_VALUE: udf_Set_Transmit:plainLen <- 0
	@DEBUG_VALUE: udf_Set_Transmit:i <- $r0
	.loc	2 1539 58 is_stmt 1             @ ../das_subg_thread/das_dlms_cmd.c:1539:58
	adds	r0, #1
.Ltmp129:
	@DEBUG_VALUE: udf_Set_Transmit:i <- $r0
	.loc	2 1540 28                       @ ../das_subg_thread/das_dlms_cmd.c:1540:28
	ldrb	r2, [r7, r1]
	.loc	2 1540 21 is_stmt 0             @ ../das_subg_thread/das_dlms_cmd.c:1540:21
	adds	r3, r1, r6
.Ltmp130:
	.loc	2 1539 14 is_stmt 1             @ ../das_subg_thread/das_dlms_cmd.c:1539:14
	uxth	r1, r0
.Ltmp131:
	.loc	2 1539 2 is_stmt 0              @ ../das_subg_thread/das_dlms_cmd.c:1539:2
	cmp	r5, r1
.Ltmp132:
	.loc	2 1540 26 is_stmt 1             @ ../das_subg_thread/das_dlms_cmd.c:1540:26
	strb.w	r2, [r8, r3]
.Ltmp133:
	.loc	2 1539 2                        @ ../das_subg_thread/das_dlms_cmd.c:1539:2
	bhi	.LBB3_33
.Ltmp134:
@ %bb.34:
	@DEBUG_VALUE: udf_Set_Transmit:i <- $r0
	@DEBUG_VALUE: udf_Set_Transmit:plainTXT_Len <- [DW_OP_plus_uconst 32] [$sp+0]
	@DEBUG_VALUE: udf_Set_Transmit:plainLen <- 0
	@DEBUG_VALUE: udf_Set_Transmit:i <- 0
	.loc	2 1544 2                        @ ../das_subg_thread/das_dlms_cmd.c:1544:2
	ldr	r0, [sp, #28]                   @ 4-byte Reload
	ldr	r1, [sp, #24]                   @ 4-byte Reload
	add	r0, r11
	add	r0, r1
	ldr	r1, [sp, #32]                   @ 4-byte Reload
.Ltmp135:
	.loc	2 1545 62                       @ ../das_subg_thread/das_dlms_cmd.c:1545:62
	movs	r2, #12
.Ltmp136:
	.loc	2 1544 2                        @ ../das_subg_thread/das_dlms_cmd.c:1544:2
	add	r0, r1
	add	r0, r8
	adds	r0, #22
	add	r1, sp, #36
.Ltmp137:
	.loc	2 1545 62                       @ ../das_subg_thread/das_dlms_cmd.c:1545:62
	bl	__aeabi_memcpy
.Ltmp138:
	@DEBUG_VALUE: udf_Set_Transmit:crc16 <- -1
	@DEBUG_VALUE: udf_Set_Transmit:i <- 1
	.loc	2 0 62 is_stmt 0                @ ../das_subg_thread/das_dlms_cmd.c:0:62
	ldr	r6, [sp, #16]                   @ 4-byte Reload
.Ltmp139:
	.loc	2 1550 2 is_stmt 1              @ ../das_subg_thread/das_dlms_cmd.c:1550:2
	cmp	r6, #3
	bhs	.LBB3_36
.Ltmp140:
@ %bb.35:
	@DEBUG_VALUE: udf_Set_Transmit:plainTXT_Len <- [DW_OP_plus_uconst 32] [$sp+0]
	@DEBUG_VALUE: udf_Set_Transmit:crc16 <- -1
	@DEBUG_VALUE: udf_Set_Transmit:i <- 1
	@DEBUG_VALUE: udf_Set_Transmit:plainLen <- 0
	.loc	2 0 2 is_stmt 0                 @ ../das_subg_thread/das_dlms_cmd.c:0:2
	movs	r0, #0
	movs	r1, #0
	b	.LBB3_39
.Ltmp141:
.LBB3_36:
	@DEBUG_VALUE: udf_Set_Transmit:plainTXT_Len <- [DW_OP_plus_uconst 32] [$sp+0]
	@DEBUG_VALUE: udf_Set_Transmit:crc16 <- -1
	@DEBUG_VALUE: udf_Set_Transmit:i <- 1
	@DEBUG_VALUE: udf_Set_Transmit:plainLen <- 0
	subs	r0, r6, #2
	movs	r3, #1
	movw	r2, #65535
	movs	r1, #1
.Ltmp142:
	.p2align	2
.LBB3_37:                               @ =>This Inner Loop Header: Depth=1
	@DEBUG_VALUE: udf_Set_Transmit:plainTXT_Len <- [DW_OP_plus_uconst 32] [$sp+0]
	@DEBUG_VALUE: udf_Set_Transmit:plainLen <- 0
	@DEBUG_VALUE: udf_Set_Transmit:i <- $r1
	@DEBUG_VALUE: udf_Set_Transmit:crc16 <- $r2
	.loc	2 1551 8 is_stmt 1              @ ../das_subg_thread/das_dlms_cmd.c:1551:8
	ldrb.w	r3, [r8, r3]
.Ltmp143:
	@DEBUG_VALUE: UpdateCRC16:value <- undef
	@DEBUG_VALUE: UpdateCRC16:crc <- $r2
	@DEBUG_VALUE: udf_Set_Transmit:ch <- undef
	.loc	2 1550 34                       @ ../das_subg_thread/das_dlms_cmd.c:1550:34
	adds	r1, #1
.Ltmp144:
	@DEBUG_VALUE: udf_Set_Transmit:i <- $r1
	.loc	2 231 46                        @ ../das_subg_thread/das_dlms_cmd.c:231:46
	eor.w	r7, r3, r2
	and	r7, r7, #15
	.loc	2 231 23 is_stmt 0              @ ../das_subg_thread/das_dlms_cmd.c:231:23
	ldrh.w	r7, [r9, r7, lsl #1]
	.loc	2 231 10                        @ ../das_subg_thread/das_dlms_cmd.c:231:10
	uxth	r2, r2
.Ltmp145:
	.loc	2 231 21                        @ ../das_subg_thread/das_dlms_cmd.c:231:21
	eor.w	r2, r7, r2, lsr #4
.Ltmp146:
	@DEBUG_VALUE: UpdateCRC16:crc <- $r2
	uxth	r7, r2
	.loc	2 232 39 is_stmt 1              @ ../das_subg_thread/das_dlms_cmd.c:232:39
	and	r2, r2, #15
.Ltmp147:
	.loc	2 232 46 is_stmt 0              @ ../das_subg_thread/das_dlms_cmd.c:232:46
	eor.w	r2, r2, r3, lsr #4
	.loc	2 232 23                        @ ../das_subg_thread/das_dlms_cmd.c:232:23
	ldrh.w	r2, [r9, r2, lsl #1]
.Ltmp148:
	.loc	2 1550 14 is_stmt 1             @ ../das_subg_thread/das_dlms_cmd.c:1550:14
	uxth	r3, r1
.Ltmp149:
	.loc	2 1550 2 is_stmt 0              @ ../das_subg_thread/das_dlms_cmd.c:1550:2
	cmp	r0, r3
.Ltmp150:
	.loc	2 232 21 is_stmt 1              @ ../das_subg_thread/das_dlms_cmd.c:232:21
	eor.w	r2, r2, r7, lsr #4
.Ltmp151:
	@DEBUG_VALUE: UpdateCRC16:crc <- $r2
	@DEBUG_VALUE: udf_Set_Transmit:crc16 <- $r2
	.loc	2 1550 2                        @ ../das_subg_thread/das_dlms_cmd.c:1550:2
	bge	.LBB3_37
.Ltmp152:
@ %bb.38:
	@DEBUG_VALUE: udf_Set_Transmit:crc16 <- $r2
	@DEBUG_VALUE: udf_Set_Transmit:i <- $r1
	@DEBUG_VALUE: udf_Set_Transmit:plainTXT_Len <- [DW_OP_plus_uconst 32] [$sp+0]
	@DEBUG_VALUE: udf_Set_Transmit:plainLen <- 0
	.loc	2 1556 10                       @ ../das_subg_thread/das_dlms_cmd.c:1556:10
	mvns	r0, r2
	uxth	r1, r0
.Ltmp153:
	lsrs	r1, r1, #8
.Ltmp154:
.LBB3_39:
	@DEBUG_VALUE: udf_Set_Transmit:plainTXT_Len <- [DW_OP_plus_uconst 32] [$sp+0]
	@DEBUG_VALUE: udf_Set_Transmit:plainLen <- 0
	@DEBUG_VALUE: udf_Set_Transmit:crc16 <- undef
	.loc	2 1558 2                        @ ../das_subg_thread/das_dlms_cmd.c:1558:2
	add.w	r2, r8, r6
	.loc	2 1557 23                       @ ../das_subg_thread/das_dlms_cmd.c:1557:23
	strb	r0, [r2, #-1]
	movs	r0, #126
	movw	r5, :lower16:.L.str.4
	.loc	2 1558 19                       @ ../das_subg_thread/das_dlms_cmd.c:1558:19
	strb.w	r1, [r8, r6]
	.loc	2 1559 23                       @ ../das_subg_thread/das_dlms_cmd.c:1559:23
	strb	r0, [r2, #1]
.Ltmp155:
	@DEBUG_VALUE: udf_Set_Transmit:i <- 0
	.loc	2 1567 23                       @ ../das_subg_thread/das_dlms_cmd.c:1567:23
	adds	r7, r6, #2
	movs	r0, #0
	movt	r5, :upper16:.L.str.4
	addw	r6, sp, #799
	movs	r4, #0
.Ltmp156:
	.p2align	2
.LBB3_40:                               @ =>This Inner Loop Header: Depth=1
	@DEBUG_VALUE: udf_Set_Transmit:plainTXT_Len <- [DW_OP_plus_uconst 32] [$sp+0]
	@DEBUG_VALUE: udf_Set_Transmit:plainLen <- 0
	@DEBUG_VALUE: udf_Set_Transmit:i <- $r4
	.loc	2 1569 29                       @ ../das_subg_thread/das_dlms_cmd.c:1569:29
	ldrb.w	r2, [r8, r0]
	.loc	2 1569 4 is_stmt 0              @ ../das_subg_thread/das_dlms_cmd.c:1569:4
	mov	r0, r6
	mov	r1, r5
	bl	__2sprintf
.Ltmp157:
	.loc	2 1570 5 is_stmt 1              @ ../das_subg_thread/das_dlms_cmd.c:1570:5
	mov	r0, r6
	bl	__2printf
.Ltmp158:
	.loc	2 1567 29                       @ ../das_subg_thread/das_dlms_cmd.c:1567:29
	adds	r4, #1
.Ltmp159:
	@DEBUG_VALUE: udf_Set_Transmit:i <- $r4
	.loc	2 1567 12 is_stmt 0             @ ../das_subg_thread/das_dlms_cmd.c:1567:12
	uxth	r0, r4
.Ltmp160:
	.loc	2 1567 2                        @ ../das_subg_thread/das_dlms_cmd.c:1567:2
	cmp	r7, r0
	bhi	.LBB3_40
.Ltmp161:
@ %bb.41:
	@DEBUG_VALUE: udf_Set_Transmit:i <- $r4
	@DEBUG_VALUE: udf_Set_Transmit:plainTXT_Len <- [DW_OP_plus_uconst 32] [$sp+0]
	@DEBUG_VALUE: udf_Set_Transmit:plainLen <- 0
	.loc	2 1572 2 is_stmt 1              @ ../das_subg_thread/das_dlms_cmd.c:1572:2
	movw	r0, :lower16:.L.str.5
	movt	r0, :upper16:.L.str.5
	bl	__2printf
.Ltmp162:
	.loc	2 1574 2                        @ ../das_subg_thread/das_dlms_cmd.c:1574:2
	uxth	r2, r7
	add.w	r1, sp, #1576
	movs	r0, #1
	bl	app_uart_data_send
.Ltmp163:
	.loc	2 1575 1                        @ ../das_subg_thread/das_dlms_cmd.c:1575:1
	addw	sp, sp, #2356
	pop.w	{r4, r5, r6, r7, r8, r9, r10, r11, pc}
.Ltmp164:
	.p2align	2
@ %bb.42:
	.loc	2 0 1 is_stmt 0                 @ ../das_subg_thread/das_dlms_cmd.c:0:1
.LCPI3_0:
.L.str.10:
	.asciz	"in Set Transmit\n\r\000\000"
.Lfunc_end3:
	.size	udf_Set_Transmit, .Lfunc_end3-udf_Set_Transmit
	.cfi_endproc
	.cantunwind
	.fnend
                                        @ -- End function
	.section	.text.udf_Alarm_Register1,"ax",%progbits
	.hidden	udf_Alarm_Register1             @ -- Begin function udf_Alarm_Register1
	.globl	udf_Alarm_Register1
	.p2align	1
	.type	udf_Alarm_Register1,%function
	.code	16                              @ @udf_Alarm_Register1
	.thumb_func
udf_Alarm_Register1:
.Lfunc_begin4:
	.loc	2 1684 0 is_stmt 1              @ ../das_subg_thread/das_dlms_cmd.c:1684:0
	.fnstart
	.cfi_startproc
@ %bb.0:
	.loc	2 1720 1 prologue_end           @ ../das_subg_thread/das_dlms_cmd.c:1720:1
	bx	lr
.Ltmp165:
.Lfunc_end4:
	.size	udf_Alarm_Register1, .Lfunc_end4-udf_Alarm_Register1
	.cfi_endproc
	.cantunwind
	.fnend
                                        @ -- End function
	.section	.text.udf_Send_DISC,"ax",%progbits
	.hidden	udf_Send_DISC                   @ -- Begin function udf_Send_DISC
	.globl	udf_Send_DISC
	.p2align	2
	.type	udf_Send_DISC,%function
	.code	16                              @ @udf_Send_DISC
	.thumb_func
udf_Send_DISC:
.Lfunc_begin5:
	.loc	2 1723 0                        @ ../das_subg_thread/das_dlms_cmd.c:1723:0
	.fnstart
	.cfi_startproc
@ %bb.0:
	@DEBUG_VALUE: udf_Send_DISC:type <- $r0
	@DEBUG_VALUE: udf_Send_DISC:type <- $r0
	.save	{r4, r5, r6, r7, lr}
	push	{r4, r5, r6, r7, lr}
	.cfi_def_cfa_offset 20
	.cfi_offset lr, -4
	.cfi_offset r7, -8
	.cfi_offset r6, -12
	.cfi_offset r5, -16
	.cfi_offset r4, -20
	.pad	#140
	sub	sp, #140
	.cfi_def_cfa_offset 160
.Ltmp166:
	.loc	2 1724 16 prologue_end          @ ../das_subg_thread/das_dlms_cmd.c:1724:16
	adr	r2, .LCPI5_0
	ldr	r1, .LCPI5_0
	ldr	r3, [r2, #4]
	.loc	2 1729 5                        @ ../das_subg_thread/das_dlms_cmd.c:1729:5
	cmp	r0, #1
	.loc	2 1724 16                       @ ../das_subg_thread/das_dlms_cmd.c:1724:16
	strd	r1, r3, [sp, #128]
	ldrb	r1, [r2, #8]
	strb.w	r1, [sp, #136]
	.loc	2 1729 5                        @ ../das_subg_thread/das_dlms_cmd.c:1729:5
	beq	.LBB5_3
.Ltmp167:
@ %bb.1:
	@DEBUG_VALUE: udf_Send_DISC:type <- $r0
	cmp	r0, #2
	bne	.LBB5_5
.Ltmp168:
@ %bb.2:
	@DEBUG_VALUE: udf_Send_DISC:type <- $r0
	.loc	2 1736 13                       @ ../das_subg_thread/das_dlms_cmd.c:1736:13
	movw	r0, :lower16:DISC_FLAG
.Ltmp169:
	@DEBUG_VALUE: udf_Send_DISC:type <- [DW_OP_LLVM_entry_value 1] $r0
	movt	r0, :upper16:DISC_FLAG
	movs	r1, #1
	strb	r1, [r0]
	movs	r4, #35
	adr	r0, .LCPI5_2
	b	.LBB5_4
.Ltmp170:
.LBB5_3:
	@DEBUG_VALUE: udf_Send_DISC:type <- $r0
	.loc	2 0 13 is_stmt 0                @ ../das_subg_thread/das_dlms_cmd.c:0:13
	movs	r4, #33
	adr	r0, .LCPI5_1
.Ltmp171:
	@DEBUG_VALUE: udf_Send_DISC:type <- [DW_OP_LLVM_entry_value 1] $r0
.LBB5_4:
	@DEBUG_VALUE: udf_Send_DISC:type <- [DW_OP_LLVM_entry_value 1] $r0
	bl	puts
.Ltmp172:
	strb.w	r4, [sp, #132]
.Ltmp173:
.LBB5_5:
	add	r0, sp, #128
	.loc	2 1741 35 is_stmt 1             @ ../das_subg_thread/das_dlms_cmd.c:1741:35
	adds	r4, r0, #1
	.loc	2 1741 14 is_stmt 0             @ ../das_subg_thread/das_dlms_cmd.c:1741:14
	mov	r0, r4
	movs	r1, #5
	bl	CRC_COMPUTE
.Ltmp174:
	@DEBUG_VALUE: udf_Send_DISC:CRC_check <- undef
	.loc	2 1743 13 is_stmt 1             @ ../das_subg_thread/das_dlms_cmd.c:1743:13
	strh.w	r0, [sp, #134]
	.loc	2 1744 4                        @ ../das_subg_thread/das_dlms_cmd.c:1744:4
	adr	r0, .LCPI5_3
	bl	puts
.Ltmp175:
	@DEBUG_VALUE: udf_Send_DISC:i <- 0
	.loc	2 1747 4                        @ ../das_subg_thread/das_dlms_cmd.c:1747:4
	movw	r5, :lower16:.L.str.4
	movt	r5, :upper16:.L.str.4
	mov	r6, sp
	mov	r0, r6
	mov	r1, r5
	movs	r2, #126
	bl	__2sprintf
.Ltmp176:
	.loc	2 1748 5                        @ ../das_subg_thread/das_dlms_cmd.c:1748:5
	mov	r0, r6
	bl	__2printf
.Ltmp177:
	.loc	2 0 5 is_stmt 0                 @ ../das_subg_thread/das_dlms_cmd.c:0:5
	movs	r7, #0
.Ltmp178:
	@DEBUG_VALUE: udf_Send_DISC:i <- 1
	.p2align	2
.LBB5_6:                                @ =>This Inner Loop Header: Depth=1
	.loc	2 1747 29 is_stmt 1             @ ../das_subg_thread/das_dlms_cmd.c:1747:29
	ldrb	r2, [r4, r7]
.Ltmp179:
	@DEBUG_VALUE: udf_Send_DISC:i <- [DW_OP_plus_uconst 1, DW_OP_stack_value] $r7
	.loc	2 1747 4 is_stmt 0              @ ../das_subg_thread/das_dlms_cmd.c:1747:4
	mov	r0, r6
	mov	r1, r5
	bl	__2sprintf
.Ltmp180:
	.loc	2 1748 5 is_stmt 1              @ ../das_subg_thread/das_dlms_cmd.c:1748:5
	mov	r0, r6
	bl	__2printf
.Ltmp181:
	@DEBUG_VALUE: udf_Send_DISC:i <- [DW_OP_plus_uconst 2, DW_OP_stack_value] $r7
	.loc	2 1745 13                       @ ../das_subg_thread/das_dlms_cmd.c:1745:13
	adds	r7, #1
.Ltmp182:
	.loc	2 1745 2 is_stmt 0              @ ../das_subg_thread/das_dlms_cmd.c:1745:2
	cmp	r7, #8
	bne	.LBB5_6
.Ltmp183:
@ %bb.7:
	.loc	2 1750 2 is_stmt 1              @ ../das_subg_thread/das_dlms_cmd.c:1750:2
	movw	r0, :lower16:.L.str.5
	movt	r0, :upper16:.L.str.5
	bl	__2printf
.Ltmp184:
	.loc	2 0 2 is_stmt 0                 @ ../das_subg_thread/das_dlms_cmd.c:0:2
	add	r1, sp, #128
	.loc	2 1752 2 is_stmt 1              @ ../das_subg_thread/das_dlms_cmd.c:1752:2
	movs	r0, #1
	movs	r2, #9
	bl	app_uart_data_send
.Ltmp185:
	.loc	2 1753 1                        @ ../das_subg_thread/das_dlms_cmd.c:1753:1
	add	sp, #140
	pop	{r4, r5, r6, r7, pc}
.Ltmp186:
	.p2align	2
@ %bb.8:
	.loc	2 0 1 is_stmt 0                 @ ../das_subg_thread/das_dlms_cmd.c:0:1
.LCPI5_0:
.L__const.udf_Send_DISC.cmdbuf:
	.asciz	"~\240\007\003#S\263\364~\000\000"
.LCPI5_1:
.Lstr.73:
	.asciz	"\n\rVerification_DISC"
.LCPI5_2:
.Lstr.72:
	.asciz	"\n\rManagement_DISC\000\000"
.LCPI5_3:
.Lstr:
	.asciz	"\n\rDISC-DM\000\000"
.Lfunc_end5:
	.size	udf_Send_DISC, .Lfunc_end5-udf_Send_DISC
	.cfi_endproc
	.cantunwind
	.fnend
                                        @ -- End function
	.section	.text.CRC_COMPUTE,"ax",%progbits
	.p2align	2                               @ -- Begin function CRC_COMPUTE
	.type	CRC_COMPUTE,%function
	.code	16                              @ @CRC_COMPUTE
	.thumb_func
CRC_COMPUTE:
.Lfunc_begin6:
	.loc	2 238 0 is_stmt 1               @ ../das_subg_thread/das_dlms_cmd.c:238:0
	.fnstart
	.cfi_startproc
@ %bb.0:
	@DEBUG_VALUE: CRC_COMPUTE:recv_buff <- $r0
	@DEBUG_VALUE: CRC_COMPUTE:len <- $r1
	.save	{r4, r5, r6, r7, r8, r9, lr}
	push.w	{r4, r5, r6, r7, r8, r9, lr}
	.cfi_def_cfa_offset 28
	.cfi_offset lr, -4
	.cfi_offset r9, -8
	.cfi_offset r8, -12
	.cfi_offset r7, -16
	.cfi_offset r6, -20
	.cfi_offset r5, -24
	.cfi_offset r4, -28
	.pad	#132
	sub	sp, #132
	.cfi_def_cfa_offset 160
	mov	r6, r0
.Ltmp187:
	@DEBUG_VALUE: CRC_COMPUTE:recv_buff <- $r6
	@DEBUG_VALUE: CRC_COMPUTE:crc16 <- -1
	@DEBUG_VALUE: CRC_COMPUTE:len <- $r7
	@DEBUG_VALUE: CRC_COMPUTE:recv_buff <- $r6
	.loc	2 246 4 prologue_end            @ ../das_subg_thread/das_dlms_cmd.c:246:4
	adr	r0, .LCPI6_0
	mov	r7, r1
.Ltmp188:
	bl	__2printf
.Ltmp189:
	@DEBUG_VALUE: CRC_COMPUTE:i <- 0
	.loc	2 247 2                         @ ../das_subg_thread/das_dlms_cmd.c:247:2
	cbz	r7, .LBB6_7
.Ltmp190:
@ %bb.1:
	@DEBUG_VALUE: CRC_COMPUTE:recv_buff <- $r6
	@DEBUG_VALUE: CRC_COMPUTE:i <- 0
	@DEBUG_VALUE: CRC_COMPUTE:crc16 <- -1
	.loc	2 0 2 is_stmt 0                 @ ../das_subg_thread/das_dlms_cmd.c:0:2
	movw	r8, :lower16:.L.str.4
	movt	r8, :upper16:.L.str.4
	add.w	r9, sp, #4
	mov	r5, r6
	mov	r4, r7
.Ltmp191:
	.p2align	2
.LBB6_2:                                @ =>This Inner Loop Header: Depth=1
	@DEBUG_VALUE: CRC_COMPUTE:recv_buff <- $r6
	@DEBUG_VALUE: CRC_COMPUTE:crc16 <- -1
	@DEBUG_VALUE: CRC_COMPUTE:i <- undef
	.loc	2 249 6 is_stmt 1               @ ../das_subg_thread/das_dlms_cmd.c:249:6
	ldrb	r2, [r5], #1
.Ltmp192:
	@DEBUG_VALUE: CRC_COMPUTE:ch <- undef
	.loc	2 250 3                         @ ../das_subg_thread/das_dlms_cmd.c:250:3
	mov	r0, r9
	mov	r1, r8
	bl	__2sprintf
.Ltmp193:
	.loc	2 251 3                         @ ../das_subg_thread/das_dlms_cmd.c:251:3
	mov	r0, r9
	bl	__2printf
.Ltmp194:
	@DEBUG_VALUE: CRC_COMPUTE:i <- [DW_OP_plus_uconst 1, DW_OP_stack_value] undef
	.loc	2 247 11                        @ ../das_subg_thread/das_dlms_cmd.c:247:11
	subs	r4, #1
.Ltmp195:
	.loc	2 247 2 is_stmt 0               @ ../das_subg_thread/das_dlms_cmd.c:247:2
	bne	.LBB6_2
.Ltmp196:
@ %bb.3:
	@DEBUG_VALUE: CRC_COMPUTE:recv_buff <- $r6
	@DEBUG_VALUE: CRC_COMPUTE:crc16 <- -1
	.loc	2 253 2 is_stmt 1               @ ../das_subg_thread/das_dlms_cmd.c:253:2
	movs	r0, #10
	bl	putchar
.Ltmp197:
	@DEBUG_VALUE: CRC_COMPUTE:i <- 0
	@DEBUG_VALUE: CRC_COMPUTE:crc16 <- -1
	.loc	2 255 2                         @ ../das_subg_thread/das_dlms_cmd.c:255:2
	cbz	r7, .LBB6_8
.Ltmp198:
@ %bb.4:
	@DEBUG_VALUE: CRC_COMPUTE:recv_buff <- $r6
	@DEBUG_VALUE: CRC_COMPUTE:i <- 0
	@DEBUG_VALUE: CRC_COMPUTE:crc16 <- -1
	.loc	2 0 2 is_stmt 0                 @ ../das_subg_thread/das_dlms_cmd.c:0:2
	movw	r0, :lower16:.L__const.UpdateCRC16.CRC16Table
	movw	r1, #65535
	movt	r0, :upper16:.L__const.UpdateCRC16.CRC16Table
.Ltmp199:
	.p2align	2
.LBB6_5:                                @ =>This Inner Loop Header: Depth=1
	@DEBUG_VALUE: CRC_COMPUTE:crc16 <- $r1
	@DEBUG_VALUE: CRC_COMPUTE:i <- undef
	.loc	2 257 6 is_stmt 1               @ ../das_subg_thread/das_dlms_cmd.c:257:6
	ldrb	r2, [r6], #1
.Ltmp200:
	@DEBUG_VALUE: UpdateCRC16:value <- undef
	@DEBUG_VALUE: UpdateCRC16:crc <- $r1
	@DEBUG_VALUE: CRC_COMPUTE:ch <- undef
	.loc	2 255 13                        @ ../das_subg_thread/das_dlms_cmd.c:255:13
	subs	r7, #1
.Ltmp201:
	.loc	2 231 46                        @ ../das_subg_thread/das_dlms_cmd.c:231:46
	eor.w	r3, r2, r1
	and	r3, r3, #15
	.loc	2 231 23 is_stmt 0              @ ../das_subg_thread/das_dlms_cmd.c:231:23
	ldrh.w	r3, [r0, r3, lsl #1]
	.loc	2 231 10                        @ ../das_subg_thread/das_dlms_cmd.c:231:10
	uxth	r1, r1
.Ltmp202:
	.loc	2 231 21                        @ ../das_subg_thread/das_dlms_cmd.c:231:21
	eor.w	r1, r3, r1, lsr #4
.Ltmp203:
	@DEBUG_VALUE: UpdateCRC16:crc <- $r1
	uxth	r3, r1
	.loc	2 232 39 is_stmt 1              @ ../das_subg_thread/das_dlms_cmd.c:232:39
	and	r1, r1, #15
.Ltmp204:
	.loc	2 232 46 is_stmt 0              @ ../das_subg_thread/das_dlms_cmd.c:232:46
	eor.w	r1, r1, r2, lsr #4
	.loc	2 232 23                        @ ../das_subg_thread/das_dlms_cmd.c:232:23
	ldrh.w	r1, [r0, r1, lsl #1]
	.loc	2 232 21                        @ ../das_subg_thread/das_dlms_cmd.c:232:21
	eor.w	r1, r1, r3, lsr #4
.Ltmp205:
	@DEBUG_VALUE: UpdateCRC16:crc <- $r1
	@DEBUG_VALUE: CRC_COMPUTE:i <- [DW_OP_plus_uconst 1, DW_OP_stack_value] undef
	@DEBUG_VALUE: CRC_COMPUTE:crc16 <- $r1
	.loc	2 255 2 is_stmt 1               @ ../das_subg_thread/das_dlms_cmd.c:255:2
	bne	.LBB6_5
.Ltmp206:
@ %bb.6:
	@DEBUG_VALUE: CRC_COMPUTE:crc16 <- $r1
	.loc	2 260 8                         @ ../das_subg_thread/das_dlms_cmd.c:260:8
	mvns	r6, r1
	b	.LBB6_9
.Ltmp207:
.LBB6_7:
	@DEBUG_VALUE: CRC_COMPUTE:recv_buff <- $r6
	@DEBUG_VALUE: CRC_COMPUTE:i <- 0
	@DEBUG_VALUE: CRC_COMPUTE:crc16 <- -1
	.loc	2 253 2                         @ ../das_subg_thread/das_dlms_cmd.c:253:2
	movs	r0, #10
	bl	putchar
.Ltmp208:
.LBB6_8:
	@DEBUG_VALUE: CRC_COMPUTE:recv_buff <- $r6
	@DEBUG_VALUE: CRC_COMPUTE:i <- 0
	@DEBUG_VALUE: CRC_COMPUTE:crc16 <- -1
	.loc	2 0 2 is_stmt 0                 @ ../das_subg_thread/das_dlms_cmd.c:0:2
	movs	r6, #0
.Ltmp209:
.LBB6_9:
	@DEBUG_VALUE: CRC_COMPUTE:crc16 <- $r6
	.loc	2 263 2 is_stmt 1               @ ../das_subg_thread/das_dlms_cmd.c:263:2
	adr	r0, .LCPI6_1
	.loc	2 262 11                        @ ../das_subg_thread/das_dlms_cmd.c:262:11
	strh.w	r6, [sp, #2]
	.loc	2 263 2                         @ ../das_subg_thread/das_dlms_cmd.c:263:2
	bl	__2printf
.Ltmp210:
	@DEBUG_VALUE: CRC_COMPUTE:crc <- undef
	@DEBUG_VALUE: CRC_COMPUTE:i <- undef
	.loc	2 267 4                         @ ../das_subg_thread/das_dlms_cmd.c:267:4
	movw	r4, :lower16:.L.str.4
	movt	r4, :upper16:.L.str.4
	add	r5, sp, #4
	.loc	2 267 29 is_stmt 0              @ ../das_subg_thread/das_dlms_cmd.c:267:29
	uxtb	r2, r6
	.loc	2 267 4                         @ ../das_subg_thread/das_dlms_cmd.c:267:4
	mov	r0, r5
	mov	r1, r4
	bl	__2sprintf
.Ltmp211:
	.loc	2 268 5 is_stmt 1               @ ../das_subg_thread/das_dlms_cmd.c:268:5
	mov	r0, r5
	bl	__2printf
.Ltmp212:
	@DEBUG_VALUE: CRC_COMPUTE:i <- 1
	.loc	2 266 8                         @ ../das_subg_thread/das_dlms_cmd.c:266:8
	ldrb.w	r2, [sp, #3]
	@DEBUG_VALUE: CRC_COMPUTE:crc <- undef
.Ltmp213:
	@DEBUG_VALUE: CRC_COMPUTE:i <- undef
	.loc	2 267 4                         @ ../das_subg_thread/das_dlms_cmd.c:267:4
	mov	r0, r5
	mov	r1, r4
	bl	__2sprintf
.Ltmp214:
	.loc	2 268 5                         @ ../das_subg_thread/das_dlms_cmd.c:268:5
	mov	r0, r5
	bl	__2printf
.Ltmp215:
	@DEBUG_VALUE: CRC_COMPUTE:i <- [DW_OP_plus_uconst 1, DW_OP_stack_value] undef
	.loc	2 270 3                         @ ../das_subg_thread/das_dlms_cmd.c:270:3
	movs	r0, #10
	bl	putchar
.Ltmp216:
	.loc	2 272 2                         @ ../das_subg_thread/das_dlms_cmd.c:272:2
	uxth	r0, r6
	add	sp, #132
	pop.w	{r4, r5, r6, r7, r8, r9, pc}
.Ltmp217:
	.p2align	2
@ %bb.10:
	.loc	2 0 2 is_stmt 0                 @ ../das_subg_thread/das_dlms_cmd.c:0:2
.LCPI6_0:
.L.str.11:
	.asciz	"CRC_Buff=\000\000"
.LCPI6_1:
.L.str.12:
	.asciz	"CRC=\000\000\000"
.Lfunc_end6:
	.size	CRC_COMPUTE, .Lfunc_end6-CRC_COMPUTE
	.cfi_endproc
	.cantunwind
	.fnend
                                        @ -- End function
	.section	.text.udf_Send_SNRM,"ax",%progbits
	.hidden	udf_Send_SNRM                   @ -- Begin function udf_Send_SNRM
	.globl	udf_Send_SNRM
	.p2align	2
	.type	udf_Send_SNRM,%function
	.code	16                              @ @udf_Send_SNRM
	.thumb_func
udf_Send_SNRM:
.Lfunc_begin7:
	.loc	2 1756 0 is_stmt 1              @ ../das_subg_thread/das_dlms_cmd.c:1756:0
	.fnstart
	.cfi_startproc
@ %bb.0:
	@DEBUG_VALUE: udf_Send_SNRM:type <- $r0
	@DEBUG_VALUE: udf_Send_SNRM:type <- $r0
	.save	{r4, r5, r6, r7, lr}
	push	{r4, r5, r6, r7, lr}
	.cfi_def_cfa_offset 20
	.cfi_offset lr, -4
	.cfi_offset r7, -8
	.cfi_offset r6, -12
	.cfi_offset r5, -16
	.cfi_offset r4, -20
	.pad	#140
	sub	sp, #140
	.cfi_def_cfa_offset 160
.Ltmp218:
	.loc	2 1757 16 prologue_end          @ ../das_subg_thread/das_dlms_cmd.c:1757:16
	adr	r2, .LCPI7_0
	ldr	r1, .LCPI7_0
	ldr	r3, [r2, #4]
	.loc	2 1761 5                        @ ../das_subg_thread/das_dlms_cmd.c:1761:5
	cmp	r0, #3
	.loc	2 1757 16                       @ ../das_subg_thread/das_dlms_cmd.c:1757:16
	strd	r1, r3, [sp, #128]
	ldrb	r1, [r2, #8]
	strb.w	r1, [sp, #136]
	.loc	2 1761 5                        @ ../das_subg_thread/das_dlms_cmd.c:1761:5
	beq	.LBB7_4
.Ltmp219:
@ %bb.1:
	@DEBUG_VALUE: udf_Send_SNRM:type <- $r0
	cmp	r0, #2
	beq	.LBB7_5
.Ltmp220:
@ %bb.2:
	@DEBUG_VALUE: udf_Send_SNRM:type <- $r0
	cmp	r0, #1
	bne	.LBB7_7
.Ltmp221:
@ %bb.3:
	@DEBUG_VALUE: udf_Send_SNRM:type <- $r0
	.loc	2 1763 3                        @ ../das_subg_thread/das_dlms_cmd.c:1763:3
	adr	r0, .LCPI7_3
.Ltmp222:
	@DEBUG_VALUE: udf_Send_SNRM:type <- [DW_OP_LLVM_entry_value 1] $r0
	bl	puts
.Ltmp223:
	.loc	2 0 3 is_stmt 0                 @ ../das_subg_thread/das_dlms_cmd.c:0:3
	movs	r0, #33
	b	.LBB7_6
.Ltmp224:
.LBB7_4:
	@DEBUG_VALUE: udf_Send_SNRM:type <- $r0
	.loc	2 1773 3 is_stmt 1              @ ../das_subg_thread/das_dlms_cmd.c:1773:3
	adr	r0, .LCPI7_1
.Ltmp225:
	@DEBUG_VALUE: udf_Send_SNRM:type <- [DW_OP_LLVM_entry_value 1] $r0
	bl	__2printf
.Ltmp226:
	.loc	2 0 3 is_stmt 0                 @ ../das_subg_thread/das_dlms_cmd.c:0:3
	movs	r0, #39
	b	.LBB7_6
.Ltmp227:
.LBB7_5:
	@DEBUG_VALUE: udf_Send_SNRM:type <- $r0
	.loc	2 1768 3 is_stmt 1              @ ../das_subg_thread/das_dlms_cmd.c:1768:3
	adr	r0, .LCPI7_2
.Ltmp228:
	@DEBUG_VALUE: udf_Send_SNRM:type <- [DW_OP_LLVM_entry_value 1] $r0
	bl	puts
.Ltmp229:
	.loc	2 0 3 is_stmt 0                 @ ../das_subg_thread/das_dlms_cmd.c:0:3
	movs	r0, #35
.Ltmp230:
.LBB7_6:
	@DEBUG_VALUE: udf_Send_SNRM:type <- [DW_OP_LLVM_entry_value 1] $r0
	strb.w	r0, [sp, #132]
.Ltmp231:
.LBB7_7:
	add	r0, sp, #128
	.loc	2 1777 35 is_stmt 1             @ ../das_subg_thread/das_dlms_cmd.c:1777:35
	adds	r4, r0, #1
	.loc	2 1777 14 is_stmt 0             @ ../das_subg_thread/das_dlms_cmd.c:1777:14
	mov	r0, r4
	movs	r1, #5
	bl	CRC_COMPUTE
.Ltmp232:
	@DEBUG_VALUE: udf_Send_SNRM:CRC_check <- undef
	.loc	2 1782 3 is_stmt 1              @ ../das_subg_thread/das_dlms_cmd.c:1782:3
	movw	r5, :lower16:.L.str.4
	movt	r5, :upper16:.L.str.4
	mov	r6, sp
.Ltmp233:
	.loc	2 1779 13                       @ ../das_subg_thread/das_dlms_cmd.c:1779:13
	strh.w	r0, [sp, #134]
.Ltmp234:
	@DEBUG_VALUE: udf_Send_SNRM:i <- 0
	.loc	2 1782 3                        @ ../das_subg_thread/das_dlms_cmd.c:1782:3
	mov	r0, r6
	mov	r1, r5
	movs	r2, #126
	bl	__2sprintf
.Ltmp235:
	.loc	2 1783 3                        @ ../das_subg_thread/das_dlms_cmd.c:1783:3
	mov	r0, r6
	bl	__2printf
.Ltmp236:
	.loc	2 0 3 is_stmt 0                 @ ../das_subg_thread/das_dlms_cmd.c:0:3
	movs	r7, #0
.Ltmp237:
	@DEBUG_VALUE: udf_Send_SNRM:i <- 1
	.p2align	2
.LBB7_8:                                @ =>This Inner Loop Header: Depth=1
	.loc	2 1782 28 is_stmt 1             @ ../das_subg_thread/das_dlms_cmd.c:1782:28
	ldrb	r2, [r4, r7]
.Ltmp238:
	@DEBUG_VALUE: udf_Send_SNRM:i <- [DW_OP_plus_uconst 1, DW_OP_stack_value] $r7
	.loc	2 1782 3 is_stmt 0              @ ../das_subg_thread/das_dlms_cmd.c:1782:3
	mov	r0, r6
	mov	r1, r5
	bl	__2sprintf
.Ltmp239:
	.loc	2 1783 3 is_stmt 1              @ ../das_subg_thread/das_dlms_cmd.c:1783:3
	mov	r0, r6
	bl	__2printf
.Ltmp240:
	@DEBUG_VALUE: udf_Send_SNRM:i <- [DW_OP_plus_uconst 2, DW_OP_stack_value] $r7
	.loc	2 1780 13                       @ ../das_subg_thread/das_dlms_cmd.c:1780:13
	adds	r7, #1
.Ltmp241:
	.loc	2 1780 2 is_stmt 0              @ ../das_subg_thread/das_dlms_cmd.c:1780:2
	cmp	r7, #8
	bne	.LBB7_8
.Ltmp242:
@ %bb.9:
	.loc	2 1785 2 is_stmt 1              @ ../das_subg_thread/das_dlms_cmd.c:1785:2
	movs	r0, #10
	bl	putchar
.Ltmp243:
	.loc	2 0 2 is_stmt 0                 @ ../das_subg_thread/das_dlms_cmd.c:0:2
	add	r1, sp, #128
	.loc	2 1787 2 is_stmt 1              @ ../das_subg_thread/das_dlms_cmd.c:1787:2
	movs	r0, #1
	movs	r2, #9
	bl	app_uart_data_send
.Ltmp244:
	.loc	2 1788 1                        @ ../das_subg_thread/das_dlms_cmd.c:1788:1
	add	sp, #140
	pop	{r4, r5, r6, r7, pc}
.Ltmp245:
	.p2align	2
@ %bb.10:
	.loc	2 0 1 is_stmt 0                 @ ../das_subg_thread/das_dlms_cmd.c:0:1
.LCPI7_0:
.L__const.udf_Send_SNRM.cmdbuf:
	.asciz	"~\240\007\003#\223\2772~\000\000"
.LCPI7_1:
.L.str.8:
	.asciz	"\n\rHAN_SNRM\n\r\000\000\000"
.LCPI7_2:
.Lstr.74:
	.asciz	"\n\rManagement_SNRM\000\000"
.LCPI7_3:
.Lstr.75:
	.asciz	"\n\rVerification_SNRM"
.Lfunc_end7:
	.size	udf_Send_SNRM, .Lfunc_end7-udf_Send_SNRM
	.cfi_endproc
	.cantunwind
	.fnend
                                        @ -- End function
	.section	.text.udf_Meter_received_task,"ax",%progbits
	.hidden	udf_Meter_received_task         @ -- Begin function udf_Meter_received_task
	.globl	udf_Meter_received_task
	.p2align	2
	.type	udf_Meter_received_task,%function
	.code	16                              @ @udf_Meter_received_task
	.thumb_func
udf_Meter_received_task:
.Lfunc_begin8:
	.loc	2 2433 0 is_stmt 1              @ ../das_subg_thread/das_dlms_cmd.c:2433:0
	.fnstart
	.cfi_startproc
@ %bb.0:
	@DEBUG_VALUE: udf_Meter_received_task:aBuf <- $r0
	@DEBUG_VALUE: udf_Meter_received_task:aBuf <- $r0
	@DEBUG_VALUE: udf_Meter_received_task:aBufLength <- $r1
	@DEBUG_VALUE: udf_Meter_received_task:aBufLength <- $r1
	.save	{r4, r5, r6, r7, r8, r9, r10, r11, lr}
	push.w	{r4, r5, r6, r7, r8, r9, r10, r11, lr}
	.cfi_def_cfa_offset 36
	.cfi_offset lr, -4
	.cfi_offset r11, -8
	.cfi_offset r10, -12
	.cfi_offset r9, -16
	.cfi_offset r8, -20
	.cfi_offset r7, -24
	.cfi_offset r6, -28
	.cfi_offset r5, -32
	.cfi_offset r4, -36
	.pad	#1524
	subw	sp, sp, #1524
	.cfi_def_cfa_offset 1560
.Ltmp246:
	@DEBUG_VALUE: udf_Meter_received_task:end <- undef
	.loc	2 0 0 prologue_end              @ ../das_subg_thread/das_dlms_cmd.c:0:0
	movw	r11, :lower16:dlms_rx_length
	movt	r11, :upper16:dlms_rx_length
	ldrh.w	r5, [r11]
	movw	r4, :lower16:dlms_rx_buf
	movt	r4, :upper16:dlms_rx_buf
.Ltmp247:
	.loc	2 2437 5                        @ ../das_subg_thread/das_dlms_cmd.c:2437:5
	cbz	r1, .LBB8_8
.Ltmp248:
@ %bb.1:
	@DEBUG_VALUE: udf_Meter_received_task:aBufLength <- $r1
	@DEBUG_VALUE: udf_Meter_received_task:aBuf <- $r0
	.loc	2 0 5 is_stmt 0                 @ ../das_subg_thread/das_dlms_cmd.c:0:5
	add	r1, r0
.Ltmp249:
	@DEBUG_VALUE: udf_Meter_received_task:aBufLength <- [DW_OP_LLVM_entry_value 1] $r1
	@DEBUG_VALUE: udf_Meter_received_task:end <- $r1
	.loc	2 2439 13 is_stmt 1             @ ../das_subg_thread/das_dlms_cmd.c:2439:13
	mov	r2, r5
.Ltmp250:
	.p2align	2
.LBB8_2:                                @ =>This Inner Loop Header: Depth=1
	@DEBUG_VALUE: udf_Meter_received_task:end <- $r1
	@DEBUG_VALUE: udf_Meter_received_task:aBuf <- $r0
	@DEBUG_VALUE: udf_Meter_received_task:aBufLength <- [DW_OP_LLVM_entry_value 1] $r1
	@DEBUG_VALUE: udf_Meter_received_task:aBuf <- $r0
	.loc	2 0 0 is_stmt 0                 @ ../das_subg_thread/das_dlms_cmd.c:0:0
	ldrb	r3, [r0]
	.loc	2 2439 33                       @ ../das_subg_thread/das_dlms_cmd.c:2439:33
	lsls	r7, r2, #16
	bne	.LBB8_5
.Ltmp251:
@ %bb.3:                                @   in Loop: Header=BB8_2 Depth=1
	@DEBUG_VALUE: udf_Meter_received_task:end <- $r1
	@DEBUG_VALUE: udf_Meter_received_task:aBuf <- $r0
	@DEBUG_VALUE: udf_Meter_received_task:aBufLength <- [DW_OP_LLVM_entry_value 1] $r1
	.loc	2 2439 13                       @ ../das_subg_thread/das_dlms_cmd.c:2439:13
	cmp	r3, #126
	bne	.LBB8_7
.Ltmp252:
@ %bb.4:                                @   in Loop: Header=BB8_2 Depth=1
	@DEBUG_VALUE: udf_Meter_received_task:end <- $r1
	@DEBUG_VALUE: udf_Meter_received_task:aBuf <- $r0
	@DEBUG_VALUE: udf_Meter_received_task:aBufLength <- [DW_OP_LLVM_entry_value 1] $r1
	.loc	2 0 13                          @ ../das_subg_thread/das_dlms_cmd.c:0:13
	movs	r3, #126
.Ltmp253:
.LBB8_5:                                @   in Loop: Header=BB8_2 Depth=1
	@DEBUG_VALUE: udf_Meter_received_task:end <- $r1
	@DEBUG_VALUE: udf_Meter_received_task:aBuf <- $r0
	@DEBUG_VALUE: udf_Meter_received_task:aBufLength <- [DW_OP_LLVM_entry_value 1] $r1
	.loc	2 2441 39 is_stmt 1             @ ../das_subg_thread/das_dlms_cmd.c:2441:39
	adds	r5, r2, #1
	.loc	2 2441 13 is_stmt 0             @ ../das_subg_thread/das_dlms_cmd.c:2441:13
	uxth	r2, r2
	.loc	2 2441 43                       @ ../das_subg_thread/das_dlms_cmd.c:2441:43
	strb	r3, [r4, r2]
	mov	r2, r5
	.loc	2 2441 39                       @ ../das_subg_thread/das_dlms_cmd.c:2441:39
	strh.w	r5, [r11]
.Ltmp254:
.LBB8_6:                                @   in Loop: Header=BB8_2 Depth=1
	@DEBUG_VALUE: udf_Meter_received_task:end <- $r1
	@DEBUG_VALUE: udf_Meter_received_task:aBuf <- $r0
	@DEBUG_VALUE: udf_Meter_received_task:aBufLength <- [DW_OP_LLVM_entry_value 1] $r1
	.loc	2 2437 28 is_stmt 1             @ ../das_subg_thread/das_dlms_cmd.c:2437:28
	adds	r0, #1
.Ltmp255:
	@DEBUG_VALUE: udf_Meter_received_task:aBuf <- [DW_OP_LLVM_entry_value 1] $r0
	@DEBUG_VALUE: udf_Meter_received_task:aBuf <- $r0
	.loc	2 2437 5 is_stmt 0              @ ../das_subg_thread/das_dlms_cmd.c:2437:5
	cmp	r0, r1
	blo	.LBB8_2
	b	.LBB8_8
.Ltmp256:
.LBB8_7:                                @   in Loop: Header=BB8_2 Depth=1
	@DEBUG_VALUE: udf_Meter_received_task:end <- $r1
	@DEBUG_VALUE: udf_Meter_received_task:aBuf <- $r0
	@DEBUG_VALUE: udf_Meter_received_task:aBufLength <- [DW_OP_LLVM_entry_value 1] $r1
	.loc	2 0 5                           @ ../das_subg_thread/das_dlms_cmd.c:0:5
	movs	r2, #0
	b	.LBB8_6
.Ltmp257:
.LBB8_8:
	@DEBUG_VALUE: udf_Meter_received_task:aBuf <- $r0
	.loc	2 2445 20 is_stmt 1             @ ../das_subg_thread/das_dlms_cmd.c:2445:20
	ldrb	r0, [r4, #1]
.Ltmp258:
	@DEBUG_VALUE: udf_Meter_received_task:aBuf <- [DW_OP_LLVM_entry_value 1] $r0
	.loc	2 2445 50 is_stmt 0             @ ../das_subg_thread/das_dlms_cmd.c:2445:50
	ldrb	r1, [r4, #2]
	.loc	2 2445 35                       @ ../das_subg_thread/das_dlms_cmd.c:2445:35
	and	r0, r0, #15
	.loc	2 2445 48                       @ ../das_subg_thread/das_dlms_cmd.c:2445:48
	orr.w	r0, r1, r0, lsl #8
	.loc	2 2445 65                       @ ../das_subg_thread/das_dlms_cmd.c:2445:65
	adds	r0, #2
.Ltmp259:
	@DEBUG_VALUE: udf_Meter_received_task:cmd_length <- [DW_OP_plus_uconst 2, DW_OP_stack_value] undef
	.loc	2 2447 9 is_stmt 1              @ ../das_subg_thread/das_dlms_cmd.c:2447:9
	uxth	r6, r5
.Ltmp260:
	.loc	2 2447 9 is_stmt 0              @ ../das_subg_thread/das_dlms_cmd.c:2447:9
	cmp	r0, r6
	bhs	.LBB8_13
.Ltmp261:
@ %bb.9:
	@DEBUG_VALUE: udf_Meter_received_task:aBuf <- [DW_OP_LLVM_entry_value 1] $r0
	@DEBUG_VALUE: udf_Meter_Process:data_len <- $r5
	@DEBUG_VALUE: udf_Meter_Process:i <- 0
	.loc	2 0 9                           @ ../das_subg_thread/das_dlms_cmd.c:0:9
	add	r7, sp, #20
.Ltmp262:
	.loc	2 1794 19 is_stmt 1             @ ../das_subg_thread/das_dlms_cmd.c:1794:19
	mov	r0, r7
	mov.w	r1, #1024
	bl	__aeabi_memclr4
.Ltmp263:
	@DEBUG_VALUE: udf_Meter_Process:ack_buff <- undef
	@DEBUG_VALUE: udf_Meter_Process:EN_done <- 0
	@DEBUG_VALUE: udf_Meter_Process:ct_len <- 0
	@DEBUG_VALUE: udf_Meter_Process:ex_byte <- 0
	.loc	2 1801 9                        @ ../das_subg_thread/das_dlms_cmd.c:1801:9
	ldrb	r0, [r4, #3]
.Ltmp264:
	.loc	2 1801 9 is_stmt 0              @ ../das_subg_thread/das_dlms_cmd.c:1801:9
	cmp	r0, #39
.Ltmp265:
	@DEBUG_VALUE: udf_Meter_Process:meter_data <- undef
	bne	.LBB8_14
.Ltmp266:
@ %bb.10:
	@DEBUG_VALUE: udf_Meter_Process:data_len <- $r5
	@DEBUG_VALUE: udf_Meter_Process:ex_byte <- 0
	@DEBUG_VALUE: udf_Meter_Process:ct_len <- 0
	@DEBUG_VALUE: udf_Meter_Process:EN_done <- 0
	@DEBUG_VALUE: udf_Meter_Process:i <- 0
	@DEBUG_VALUE: udf_Meter_received_task:aBuf <- [DW_OP_LLVM_entry_value 1] $r0
	.loc	2 1806 3 is_stmt 1              @ ../das_subg_thread/das_dlms_cmd.c:1806:3
	movw	r1, :lower16:dlms_rx_buf
	movt	r1, :upper16:dlms_rx_buf
	movs	r0, #0
	mov	r2, r6
.Ltmp267:
.LBB8_11:
	@DEBUG_VALUE: udf_Meter_Process:ex_byte <- 0
	@DEBUG_VALUE: udf_Meter_Process:ct_len <- 0
	@DEBUG_VALUE: udf_Meter_Process:EN_done <- 0
	@DEBUG_VALUE: udf_Meter_received_task:aBuf <- [DW_OP_LLVM_entry_value 1] $r0
	.loc	2 0 0 is_stmt 0                 @ ../das_subg_thread/das_dlms_cmd.c:0:0
	bl	app_uart_data_send
.Ltmp268:
.LBB8_12:
	@DEBUG_VALUE: udf_Meter_received_task:aBuf <- [DW_OP_LLVM_entry_value 1] $r0
	.loc	2 2452 34 is_stmt 1             @ ../das_subg_thread/das_dlms_cmd.c:2452:34
	ldrh.w	r1, [r11]
	.loc	2 2452 9 is_stmt 0              @ ../das_subg_thread/das_dlms_cmd.c:2452:9
	movw	r0, :lower16:dlms_rx_buf
	movt	r0, :upper16:dlms_rx_buf
	bl	__aeabi_memclr4
.Ltmp269:
	.loc	2 0 9                           @ ../das_subg_thread/das_dlms_cmd.c:0:9
	movs	r0, #0
	.loc	2 2453 24 is_stmt 1             @ ../das_subg_thread/das_dlms_cmd.c:2453:24
	strh.w	r0, [r11]
.Ltmp270:
.LBB8_13:
	@DEBUG_VALUE: udf_Meter_received_task:aBuf <- [DW_OP_LLVM_entry_value 1] $r0
	.loc	2 2455 1                        @ ../das_subg_thread/das_dlms_cmd.c:2455:1
	addw	sp, sp, #1524
	pop.w	{r4, r5, r6, r7, r8, r9, r10, r11, pc}
.Ltmp271:
.LBB8_14:
	@DEBUG_VALUE: udf_Meter_Process:data_len <- $r5
	@DEBUG_VALUE: udf_Meter_Process:ex_byte <- 0
	@DEBUG_VALUE: udf_Meter_Process:ct_len <- 0
	@DEBUG_VALUE: udf_Meter_Process:EN_done <- 0
	@DEBUG_VALUE: udf_Meter_Process:i <- 0
	@DEBUG_VALUE: udf_Meter_received_task:aBuf <- [DW_OP_LLVM_entry_value 1] $r0
	.loc	2 1812 6                        @ ../das_subg_thread/das_dlms_cmd.c:1812:6
	movw	r9, :lower16:MC_done
	.loc	2 1812 19 is_stmt 0             @ ../das_subg_thread/das_dlms_cmd.c:1812:19
	cmp	r6, #60
	.loc	2 1812 6                        @ ../das_subg_thread/das_dlms_cmd.c:1812:6
	movt	r9, :upper16:MC_done
	.loc	2 1812 19                       @ ../das_subg_thread/das_dlms_cmd.c:1812:19
	bne	.LBB8_24
.Ltmp272:
@ %bb.15:
	@DEBUG_VALUE: udf_Meter_Process:data_len <- $r5
	@DEBUG_VALUE: udf_Meter_Process:ex_byte <- 0
	@DEBUG_VALUE: udf_Meter_Process:ct_len <- 0
	@DEBUG_VALUE: udf_Meter_Process:EN_done <- 0
	@DEBUG_VALUE: udf_Meter_Process:i <- 0
	@DEBUG_VALUE: udf_Meter_received_task:aBuf <- [DW_OP_LLVM_entry_value 1] $r0
	.loc	2 0 19                          @ ../das_subg_thread/das_dlms_cmd.c:0:19
	ldrb.w	r0, [r9]
	.loc	2 1812 19                       @ ../das_subg_thread/das_dlms_cmd.c:1812:19
	cmp	r0, #0
	beq	.LBB8_24
.Ltmp273:
@ %bb.16:
	@DEBUG_VALUE: udf_Meter_Process:data_len <- $r5
	@DEBUG_VALUE: udf_Meter_Process:ex_byte <- 0
	@DEBUG_VALUE: udf_Meter_Process:ct_len <- 0
	@DEBUG_VALUE: udf_Meter_Process:EN_done <- 0
	@DEBUG_VALUE: udf_Meter_Process:i <- 0
	@DEBUG_VALUE: udf_Meter_received_task:aBuf <- [DW_OP_LLVM_entry_value 1] $r0
	.loc	2 0 19                          @ ../das_subg_thread/das_dlms_cmd.c:0:19
	ldrb	r0, [r4, #11]
	.loc	2 1812 19                       @ ../das_subg_thread/das_dlms_cmd.c:1812:19
	cmp	r0, #202
	bne	.LBB8_24
.Ltmp274:
@ %bb.17:
	@DEBUG_VALUE: udf_Meter_Process:data_len <- $r5
	@DEBUG_VALUE: udf_Meter_Process:ex_byte <- 0
	@DEBUG_VALUE: udf_Meter_Process:ct_len <- 0
	@DEBUG_VALUE: udf_Meter_Process:EN_done <- 0
	@DEBUG_VALUE: udf_Meter_Process:i <- 0
	@DEBUG_VALUE: udf_Meter_received_task:aBuf <- [DW_OP_LLVM_entry_value 1] $r0
	.loc	2 1814 3 is_stmt 1              @ ../das_subg_thread/das_dlms_cmd.c:1814:3
	movw	r0, :lower16:.Lstr.77
	movt	r0, :upper16:.Lstr.77
	bl	puts
.Ltmp275:
	@DEBUG_VALUE: udf_Meter_Process:EN_done <- 1
	.loc	2 1838 12                       @ ../das_subg_thread/das_dlms_cmd.c:1838:12
	movw	r0, :lower16:tpc_guk
	movw	r1, :lower16:tpc_s_iv
	movs	r6, #27
	add.w	r2, r4, #18
	movt	r0, :upper16:tpc_guk
	movt	r1, :upper16:tpc_s_iv
	addw	r3, sp, #1044
	str	r7, [sp]
	str	r6, [sp, #4]
	bl	udf_AES_GCM_Decrypt
.Ltmp276:
	.loc	2 1838 12 is_stmt 0             @ ../das_subg_thread/das_dlms_cmd.c:1838:12
	cbz	r0, .LBB8_19
.Ltmp277:
@ %bb.18:
	@DEBUG_VALUE: udf_Meter_Process:data_len <- $r5
	@DEBUG_VALUE: udf_Meter_Process:EN_done <- 1
	@DEBUG_VALUE: udf_Meter_Process:ex_byte <- 0
	@DEBUG_VALUE: udf_Meter_Process:ct_len <- 0
	@DEBUG_VALUE: udf_Meter_Process:i <- 0
	@DEBUG_VALUE: udf_Meter_received_task:aBuf <- [DW_OP_LLVM_entry_value 1] $r0
	.loc	2 1840 4 is_stmt 1              @ ../das_subg_thread/das_dlms_cmd.c:1840:4
	movw	r0, :lower16:.Lstr.78
	movt	r0, :upper16:.Lstr.78
	bl	puts
.Ltmp278:
.LBB8_19:
	@DEBUG_VALUE: udf_Meter_Process:data_len <- $r5
	@DEBUG_VALUE: udf_Meter_Process:EN_done <- 1
	@DEBUG_VALUE: udf_Meter_Process:ex_byte <- 0
	@DEBUG_VALUE: udf_Meter_Process:ct_len <- 0
	@DEBUG_VALUE: udf_Meter_Process:i <- 0
	@DEBUG_VALUE: udf_Meter_received_task:aBuf <- [DW_OP_LLVM_entry_value 1] $r0
	@DEBUG_VALUE: Decide_Once:i <- 0
	.loc	2 726 2                         @ ../das_subg_thread/das_dlms_cmd.c:726:2
	movw	r0, :lower16:.Lstr.79
	movt	r0, :upper16:.Lstr.79
	bl	puts
.Ltmp279:
	.loc	2 728 33                        @ ../das_subg_thread/das_dlms_cmd.c:728:33
	ldrb.w	r2, [sp, #46]
	.loc	2 728 2 is_stmt 0               @ ../das_subg_thread/das_dlms_cmd.c:728:2
	movw	r1, :lower16:.L.str.43
	add.w	r5, sp, #1184
.Ltmp280:
	movt	r1, :upper16:.L.str.43
	mov	r0, r5
	bl	__2sprintf
.Ltmp281:
	.loc	2 729 2 is_stmt 1               @ ../das_subg_thread/das_dlms_cmd.c:729:2
	mov	r0, r5
	bl	__2printf
.Ltmp282:
	.loc	2 730 6                         @ ../das_subg_thread/das_dlms_cmd.c:730:6
	ldrb.w	r1, [sp, #46]
.Ltmp283:
	.loc	2 730 6 is_stmt 0               @ ../das_subg_thread/das_dlms_cmd.c:730:6
	subs	r0, r1, #1
	cmp	r0, #6
.Ltmp284:
	@DEBUG_VALUE: Decide_Once:meter_data <- undef
	@DEBUG_VALUE: Decide_Once:pt <- [DW_OP_plus_uconst 20, DW_OP_stack_value] $sp
	bhi	.LBB8_31
.Ltmp285:
@ %bb.20:
	@DEBUG_VALUE: Decide_Once:pt <- [DW_OP_plus_uconst 20, DW_OP_stack_value] $sp
	@DEBUG_VALUE: Decide_Once:i <- 0
	@DEBUG_VALUE: udf_Meter_Process:EN_done <- 1
	@DEBUG_VALUE: udf_Meter_Process:ex_byte <- 0
	@DEBUG_VALUE: udf_Meter_Process:ct_len <- 0
	@DEBUG_VALUE: udf_Meter_Process:i <- 0
	@DEBUG_VALUE: udf_Meter_received_task:aBuf <- [DW_OP_LLVM_entry_value 1] $r0
	.loc	2 0 6                           @ ../das_subg_thread/das_dlms_cmd.c:0:6
.LCPI8_9:
	tbh	[pc, r0, lsl #1]
.Ltmp286:
@ %bb.21:
.LJTI8_0:
	.short	(.LBB8_22-(.LCPI8_9+4))/2
	.short	(.LBB8_48-(.LCPI8_9+4))/2
	.short	(.LBB8_50-(.LCPI8_9+4))/2
	.short	(.LBB8_52-(.LCPI8_9+4))/2
	.short	(.LBB8_34-(.LCPI8_9+4))/2
	.short	(.LBB8_34-(.LCPI8_9+4))/2
	.short	(.LBB8_54-(.LCPI8_9+4))/2
	.p2align	1
.LBB8_22:
.Ltmp287:
	@DEBUG_VALUE: Decide_Once:pt <- [DW_OP_plus_uconst 20, DW_OP_stack_value] $sp
	@DEBUG_VALUE: Decide_Once:i <- 0
	@DEBUG_VALUE: udf_Meter_Process:EN_done <- 1
	@DEBUG_VALUE: udf_Meter_Process:ex_byte <- 0
	@DEBUG_VALUE: udf_Meter_Process:ct_len <- 0
	@DEBUG_VALUE: udf_Meter_Process:i <- 0
	@DEBUG_VALUE: udf_Meter_received_task:aBuf <- [DW_OP_LLVM_entry_value 1] $r0
	.loc	2 732 6 is_stmt 1               @ ../das_subg_thread/das_dlms_cmd.c:732:6
	movw	r5, :lower16:NOTIFICATION_CODE.0
	movt	r5, :upper16:NOTIFICATION_CODE.0
	ldrb	r0, [r5]
.Ltmp288:
	.loc	2 732 6 is_stmt 0               @ ../das_subg_thread/das_dlms_cmd.c:732:6
	cmp	r0, #0
	bne	.LBB8_12
.Ltmp289:
@ %bb.23:
	@DEBUG_VALUE: Decide_Once:pt <- [DW_OP_plus_uconst 20, DW_OP_stack_value] $sp
	@DEBUG_VALUE: Decide_Once:i <- 0
	@DEBUG_VALUE: udf_Meter_Process:EN_done <- 1
	@DEBUG_VALUE: udf_Meter_Process:ex_byte <- 0
	@DEBUG_VALUE: udf_Meter_Process:ct_len <- 0
	@DEBUG_VALUE: udf_Meter_Process:i <- 0
	@DEBUG_VALUE: udf_Meter_received_task:aBuf <- [DW_OP_LLVM_entry_value 1] $r0
	.loc	2 734 4 is_stmt 1               @ ../das_subg_thread/das_dlms_cmd.c:734:4
	movw	r0, :lower16:.Lstr.85
	movt	r0, :upper16:.Lstr.85
	b	.LBB8_56
.Ltmp290:
.LBB8_24:
	@DEBUG_VALUE: udf_Meter_Process:data_len <- $r5
	@DEBUG_VALUE: udf_Meter_Process:ex_byte <- 0
	@DEBUG_VALUE: udf_Meter_Process:ct_len <- 0
	@DEBUG_VALUE: udf_Meter_Process:EN_done <- 0
	@DEBUG_VALUE: udf_Meter_Process:i <- 0
	@DEBUG_VALUE: udf_Meter_received_task:aBuf <- [DW_OP_LLVM_entry_value 1] $r0
	.loc	2 1852 27                       @ ../das_subg_thread/das_dlms_cmd.c:1852:27
	ldrb	r0, [r4]
.Ltmp291:
	.loc	2 1852 11 is_stmt 0             @ ../das_subg_thread/das_dlms_cmd.c:1852:11
	cmp	r0, #126
	bne	.LBB8_12
.Ltmp292:
@ %bb.25:
	@DEBUG_VALUE: udf_Meter_Process:data_len <- $r5
	@DEBUG_VALUE: udf_Meter_Process:ex_byte <- 0
	@DEBUG_VALUE: udf_Meter_Process:ct_len <- 0
	@DEBUG_VALUE: udf_Meter_Process:EN_done <- 0
	@DEBUG_VALUE: udf_Meter_Process:i <- 0
	@DEBUG_VALUE: udf_Meter_received_task:aBuf <- [DW_OP_LLVM_entry_value 1] $r0
	.loc	2 1854 7 is_stmt 1              @ ../das_subg_thread/das_dlms_cmd.c:1854:7
	movw	r2, :lower16:ic_count
	movt	r2, :upper16:ic_count
	ldrh	r0, [r2]
	movw	r10, #65535
.Ltmp293:
	.loc	2 1854 7 is_stmt 0              @ ../das_subg_thread/das_dlms_cmd.c:1854:7
	adds	r1, r0, #1
	cmp	r0, r10
	it	eq
	moveq	r1, #5
.Ltmp294:
	.loc	2 1858 3 is_stmt 1              @ ../das_subg_thread/das_dlms_cmd.c:1858:3
	lsls	r0, r5, #16
.Ltmp295:
	.loc	2 0 0 is_stmt 0                 @ ../das_subg_thread/das_dlms_cmd.c:0:0
	strh	r1, [r2]
.Ltmp296:
	@DEBUG_VALUE: udf_Meter_Process:i <- 0
	.loc	2 1858 3                        @ ../das_subg_thread/das_dlms_cmd.c:1858:3
	beq	.LBB8_27
.Ltmp297:
@ %bb.26:
	@DEBUG_VALUE: udf_Meter_Process:data_len <- $r5
	@DEBUG_VALUE: udf_Meter_Process:ex_byte <- 0
	@DEBUG_VALUE: udf_Meter_Process:ct_len <- 0
	@DEBUG_VALUE: udf_Meter_Process:EN_done <- 0
	@DEBUG_VALUE: udf_Meter_Process:i <- 0
	@DEBUG_VALUE: udf_Meter_received_task:aBuf <- [DW_OP_LLVM_entry_value 1] $r0
	@DEBUG_VALUE: udf_Meter_Process:i <- 0
	.loc	2 1860 4 is_stmt 1              @ ../das_subg_thread/das_dlms_cmd.c:1860:4
	movw	r1, :lower16:.L.str.4
	add.w	r5, sp, #1056
.Ltmp298:
	movt	r1, :upper16:.L.str.4
	mov	r0, r5
	movs	r2, #126
	bl	__2sprintf
.Ltmp299:
	.loc	2 1861 4                        @ ../das_subg_thread/das_dlms_cmd.c:1861:4
	mov	r0, r5
	bl	__2printf
.Ltmp300:
	@DEBUG_VALUE: udf_Meter_Process:i <- 1
	.loc	2 1858 3                        @ ../das_subg_thread/das_dlms_cmd.c:1858:3
	cmp	r6, #1
	bne	.LBB8_36
.Ltmp301:
.LBB8_27:
	@DEBUG_VALUE: udf_Meter_Process:ex_byte <- 0
	@DEBUG_VALUE: udf_Meter_Process:ct_len <- 0
	@DEBUG_VALUE: udf_Meter_Process:EN_done <- 0
	@DEBUG_VALUE: udf_Meter_received_task:aBuf <- [DW_OP_LLVM_entry_value 1] $r0
	.loc	2 1863 3                        @ ../das_subg_thread/das_dlms_cmd.c:1863:3
	movw	r0, :lower16:.L.str.5
	movt	r0, :upper16:.L.str.5
	bl	__2printf
.Ltmp302:
.LBB8_28:
	@DEBUG_VALUE: udf_Meter_Process:ex_byte <- 0
	@DEBUG_VALUE: udf_Meter_Process:ct_len <- 0
	@DEBUG_VALUE: udf_Meter_Process:EN_done <- 0
	@DEBUG_VALUE: udf_Meter_received_task:aBuf <- [DW_OP_LLVM_entry_value 1] $r0
	.loc	2 374 6                         @ ../das_subg_thread/das_dlms_cmd.c:374:6
	ldrb	r0, [r4, #5]
.Ltmp303:
	.loc	2 374 6 is_stmt 0               @ ../das_subg_thread/das_dlms_cmd.c:374:6
	cmp	r0, #115
	beq.w	.LBB8_57
.Ltmp304:
@ %bb.29:
	@DEBUG_VALUE: udf_Meter_Process:ex_byte <- 0
	@DEBUG_VALUE: udf_Meter_Process:ct_len <- 0
	@DEBUG_VALUE: udf_Meter_Process:EN_done <- 0
	@DEBUG_VALUE: udf_Meter_received_task:aBuf <- [DW_OP_LLVM_entry_value 1] $r0
	cmp	r0, #31
	bne.w	.LBB8_60
.Ltmp305:
@ %bb.30:
	@DEBUG_VALUE: udf_Meter_Process:ex_byte <- 0
	@DEBUG_VALUE: udf_Meter_Process:ct_len <- 0
	@DEBUG_VALUE: udf_Meter_Process:EN_done <- 0
	@DEBUG_VALUE: udf_Meter_received_task:aBuf <- [DW_OP_LLVM_entry_value 1] $r0
	.loc	2 376 4 is_stmt 1               @ ../das_subg_thread/das_dlms_cmd.c:376:4
	movw	r0, :lower16:.L.str.50
	movt	r0, :upper16:.L.str.50
	bl	__2printf
.Ltmp306:
	.loc	2 0 4 is_stmt 0                 @ ../das_subg_thread/das_dlms_cmd.c:0:4
	b	.LBB8_58
.Ltmp307:
.LBB8_31:
	@DEBUG_VALUE: Decide_Once:pt <- [DW_OP_plus_uconst 20, DW_OP_stack_value] $sp
	@DEBUG_VALUE: Decide_Once:i <- 0
	@DEBUG_VALUE: udf_Meter_Process:EN_done <- 1
	@DEBUG_VALUE: udf_Meter_Process:ex_byte <- 0
	@DEBUG_VALUE: udf_Meter_Process:ct_len <- 0
	@DEBUG_VALUE: udf_Meter_Process:i <- 0
	@DEBUG_VALUE: udf_Meter_received_task:aBuf <- [DW_OP_LLVM_entry_value 1] $r0
	.loc	2 730 6 is_stmt 1               @ ../das_subg_thread/das_dlms_cmd.c:730:6
	cmp	r1, #100
	bne	.LBB8_34
.Ltmp308:
@ %bb.32:
	@DEBUG_VALUE: Decide_Once:pt <- [DW_OP_plus_uconst 20, DW_OP_stack_value] $sp
	@DEBUG_VALUE: Decide_Once:i <- 0
	@DEBUG_VALUE: udf_Meter_Process:EN_done <- 1
	@DEBUG_VALUE: udf_Meter_Process:ex_byte <- 0
	@DEBUG_VALUE: udf_Meter_Process:ct_len <- 0
	@DEBUG_VALUE: udf_Meter_Process:i <- 0
	@DEBUG_VALUE: udf_Meter_received_task:aBuf <- [DW_OP_LLVM_entry_value 1] $r0
	.loc	2 793 6                         @ ../das_subg_thread/das_dlms_cmd.c:793:6
	movw	r5, :lower16:NOTIFICATION_CODE.5
	movt	r5, :upper16:NOTIFICATION_CODE.5
	ldrb	r0, [r5]
.Ltmp309:
	.loc	2 793 6 is_stmt 0               @ ../das_subg_thread/das_dlms_cmd.c:793:6
	cmp	r0, #0
	bne.w	.LBB8_12
.Ltmp310:
@ %bb.33:
	@DEBUG_VALUE: Decide_Once:pt <- [DW_OP_plus_uconst 20, DW_OP_stack_value] $sp
	@DEBUG_VALUE: Decide_Once:i <- 0
	@DEBUG_VALUE: udf_Meter_Process:EN_done <- 1
	@DEBUG_VALUE: udf_Meter_Process:ex_byte <- 0
	@DEBUG_VALUE: udf_Meter_Process:ct_len <- 0
	@DEBUG_VALUE: udf_Meter_Process:i <- 0
	@DEBUG_VALUE: udf_Meter_received_task:aBuf <- [DW_OP_LLVM_entry_value 1] $r0
	.loc	2 795 4 is_stmt 1               @ ../das_subg_thread/das_dlms_cmd.c:795:4
	movw	r0, :lower16:.Lstr.80
	movt	r0, :upper16:.Lstr.80
	b	.LBB8_56
.Ltmp311:
.LBB8_34:
	@DEBUG_VALUE: Decide_Once:pt <- [DW_OP_plus_uconst 20, DW_OP_stack_value] $sp
	@DEBUG_VALUE: Decide_Once:i <- 0
	@DEBUG_VALUE: udf_Meter_Process:EN_done <- 1
	@DEBUG_VALUE: udf_Meter_Process:ex_byte <- 0
	@DEBUG_VALUE: udf_Meter_Process:ct_len <- 0
	@DEBUG_VALUE: udf_Meter_Process:i <- 0
	@DEBUG_VALUE: udf_Meter_received_task:aBuf <- [DW_OP_LLVM_entry_value 1] $r0
	.loc	2 806 31                        @ ../das_subg_thread/das_dlms_cmd.c:806:31
	ldrd	r0, r1, [r4]
	movw	r2, :lower16:event_notification_data
	movt	r2, :upper16:event_notification_data
	str	r0, [r2]
	ldr	r0, [r4, #8]
	str	r1, [r2, #4]
	ldr	r1, [r4, #12]
	str	r0, [r2, #8]
	ldr	r0, [r4, #16]
	str	r1, [r2, #12]
	ldr	r1, [r4, #20]
	str	r0, [r2, #16]
	ldr	r0, [r4, #24]
	str	r1, [r2, #20]
	ldr	r1, [r4, #28]
	str	r0, [r2, #24]
	ldr	r0, [r4, #32]
	str	r1, [r2, #28]
.Ltmp312:
	@DEBUG_VALUE: Decide_Once:i <- [DW_OP_plus_uconst 1, DW_OP_stack_value] undef
	ldr	r1, [r4, #36]
	str	r0, [r2, #32]
	ldr	r0, [r4, #40]
	str	r1, [r2, #36]
	ldr	r1, [r4, #44]
	str	r0, [r2, #40]
	ldr	r0, [r4, #48]
.Ltmp313:
	.loc	2 807 3                         @ ../das_subg_thread/das_dlms_cmd.c:807:3
	movs	r3, #60
.Ltmp314:
	.loc	2 806 31                        @ ../das_subg_thread/das_dlms_cmd.c:806:31
	strd	r1, r0, [r2, #44]
	ldrd	r0, r1, [r4, #52]
	strd	r0, r1, [r2, #52]
.Ltmp315:
	.loc	2 807 3                         @ ../das_subg_thread/das_dlms_cmd.c:807:3
	movs	r0, #1
	movs	r1, #8
.Ltmp316:
.LBB8_35:
	@DEBUG_VALUE: udf_Meter_received_task:aBuf <- [DW_OP_LLVM_entry_value 1] $r0
	.loc	2 0 0 is_stmt 0                 @ ../das_subg_thread/das_dlms_cmd.c:0:0
	bl	udf_Rafael_data
.Ltmp317:
	b	.LBB8_12
.Ltmp318:
.LBB8_36:
	@DEBUG_VALUE: udf_Meter_Process:i <- 1
	@DEBUG_VALUE: udf_Meter_Process:ex_byte <- 0
	@DEBUG_VALUE: udf_Meter_Process:ct_len <- 0
	@DEBUG_VALUE: udf_Meter_Process:EN_done <- 0
	@DEBUG_VALUE: udf_Meter_received_task:aBuf <- [DW_OP_LLVM_entry_value 1] $r0
	movw	r7, :lower16:.L.str.4
	add.w	r9, r4, #1
.Ltmp319:
	.loc	2 1858 3 is_stmt 1              @ ../das_subg_thread/das_dlms_cmd.c:1858:3
	sub.w	r8, r6, #1
	movt	r7, :upper16:.L.str.4
	add.w	r5, sp, #1056
.Ltmp320:
	.p2align	2
.LBB8_37:                               @ =>This Inner Loop Header: Depth=1
	@DEBUG_VALUE: udf_Meter_Process:ex_byte <- 0
	@DEBUG_VALUE: udf_Meter_Process:ct_len <- 0
	@DEBUG_VALUE: udf_Meter_Process:EN_done <- 0
	@DEBUG_VALUE: udf_Meter_received_task:aBuf <- [DW_OP_LLVM_entry_value 1] $r0
	.loc	2 1860 29                       @ ../das_subg_thread/das_dlms_cmd.c:1860:29
	ldrb	r2, [r9], #1
.Ltmp321:
	@DEBUG_VALUE: udf_Meter_Process:i <- undef
	.loc	2 1860 4 is_stmt 0              @ ../das_subg_thread/das_dlms_cmd.c:1860:4
	mov	r0, r5
	mov	r1, r7
	bl	__2sprintf
.Ltmp322:
	.loc	2 1861 4 is_stmt 1              @ ../das_subg_thread/das_dlms_cmd.c:1861:4
	mov	r0, r5
	bl	__2printf
.Ltmp323:
	@DEBUG_VALUE: udf_Meter_Process:i <- [DW_OP_plus_uconst 1, DW_OP_stack_value] undef
	.loc	2 1858 15                       @ ../das_subg_thread/das_dlms_cmd.c:1858:15
	subs.w	r8, r8, #1
.Ltmp324:
	.loc	2 1858 3 is_stmt 0              @ ../das_subg_thread/das_dlms_cmd.c:1858:3
	bne	.LBB8_37
.Ltmp325:
@ %bb.38:
	@DEBUG_VALUE: udf_Meter_Process:ex_byte <- 0
	@DEBUG_VALUE: udf_Meter_Process:ct_len <- 0
	@DEBUG_VALUE: udf_Meter_Process:EN_done <- 0
	@DEBUG_VALUE: udf_Meter_received_task:aBuf <- [DW_OP_LLVM_entry_value 1] $r0
	.loc	2 1863 3 is_stmt 1              @ ../das_subg_thread/das_dlms_cmd.c:1863:3
	movw	r0, :lower16:.L.str.5
	movt	r0, :upper16:.L.str.5
	bl	__2printf
.Ltmp326:
	@DEBUG_VALUE: Check_Meter_Res:ack_buff <- undef
	@DEBUG_VALUE: Check_Meter_Res:len <- undef
	.loc	2 0 3 is_stmt 0                 @ ../das_subg_thread/das_dlms_cmd.c:0:3
	movw	r9, :lower16:MC_done
.Ltmp327:
	.loc	2 372 5 is_stmt 1               @ ../das_subg_thread/das_dlms_cmd.c:372:5
	cmp	r6, #10
.Ltmp328:
	@DEBUG_VALUE: Check_Meter_Res:recv_buff <- undef
	.loc	2 0 5 is_stmt 0                 @ ../das_subg_thread/das_dlms_cmd.c:0:5
	movt	r9, :upper16:MC_done
	.loc	2 372 5                         @ ../das_subg_thread/das_dlms_cmd.c:372:5
	blo	.LBB8_28
.Ltmp329:
@ %bb.39:
	@DEBUG_VALUE: udf_Meter_Process:ex_byte <- 0
	@DEBUG_VALUE: udf_Meter_Process:ct_len <- 0
	@DEBUG_VALUE: udf_Meter_Process:EN_done <- 0
	@DEBUG_VALUE: udf_Meter_received_task:aBuf <- [DW_OP_LLVM_entry_value 1] $r0
	.loc	2 394 10 is_stmt 1              @ ../das_subg_thread/das_dlms_cmd.c:394:10
	ldrb	r0, [r4, #5]
	ldrb	r6, [r4, #11]
	.loc	2 394 31 is_stmt 0              @ ../das_subg_thread/das_dlms_cmd.c:394:31
	cmp	r0, #19
	it	eq
	cmpeq	r6, #97
	beq.w	.LBB8_70
.Ltmp330:
@ %bb.40:
	@DEBUG_VALUE: udf_Meter_Process:ex_byte <- 0
	@DEBUG_VALUE: udf_Meter_Process:ct_len <- 0
	@DEBUG_VALUE: udf_Meter_Process:EN_done <- 0
	@DEBUG_VALUE: udf_Meter_received_task:aBuf <- [DW_OP_LLVM_entry_value 1] $r0
	.loc	2 398 19 is_stmt 1              @ ../das_subg_thread/das_dlms_cmd.c:398:19
	ldrb	r0, [r4, #9]
	.loc	2 398 40 is_stmt 0              @ ../das_subg_thread/das_dlms_cmd.c:398:40
	cmp	r6, #196
	add.w	r8, sp, #20
	it	eq
	cmpeq	r0, #231
	beq.w	.LBB8_77
.Ltmp331:
.LBB8_41:
	@DEBUG_VALUE: udf_Meter_Process:ex_byte <- 0
	@DEBUG_VALUE: udf_Meter_Process:ct_len <- 0
	@DEBUG_VALUE: udf_Meter_Process:EN_done <- 0
	@DEBUG_VALUE: udf_Meter_received_task:aBuf <- [DW_OP_LLVM_entry_value 1] $r0
	.loc	2 402 40 is_stmt 1              @ ../das_subg_thread/das_dlms_cmd.c:402:40
	cmp	r6, #212
	it	eq
	cmpeq	r0, #231
	beq.w	.LBB8_87
.Ltmp332:
@ %bb.42:
	@DEBUG_VALUE: udf_Meter_Process:ex_byte <- 0
	@DEBUG_VALUE: udf_Meter_Process:ct_len <- 0
	@DEBUG_VALUE: udf_Meter_Process:EN_done <- 0
	@DEBUG_VALUE: udf_Meter_received_task:aBuf <- [DW_OP_LLVM_entry_value 1] $r0
	.loc	2 406 40                        @ ../das_subg_thread/das_dlms_cmd.c:406:40
	cmp	r6, #213
	it	eq
	cmpeq	r0, #231
	beq.w	.LBB8_89
.Ltmp333:
@ %bb.43:
	@DEBUG_VALUE: udf_Meter_Process:ex_byte <- 0
	@DEBUG_VALUE: udf_Meter_Process:ct_len <- 0
	@DEBUG_VALUE: udf_Meter_Process:EN_done <- 0
	@DEBUG_VALUE: udf_Meter_received_task:aBuf <- [DW_OP_LLVM_entry_value 1] $r0
	.loc	2 410 40                        @ ../das_subg_thread/das_dlms_cmd.c:410:40
	cmp	r6, #215
	it	eq
	cmpeq	r0, #231
	beq.w	.LBB8_96
.Ltmp334:
@ %bb.44:
	@DEBUG_VALUE: udf_Meter_Process:ex_byte <- 0
	@DEBUG_VALUE: udf_Meter_Process:ct_len <- 0
	@DEBUG_VALUE: udf_Meter_Process:EN_done <- 0
	@DEBUG_VALUE: udf_Meter_received_task:aBuf <- [DW_OP_LLVM_entry_value 1] $r0
	.loc	2 414 40                        @ ../das_subg_thread/das_dlms_cmd.c:414:40
	cmp	r6, #46
	it	eq
	cmpeq	r0, #231
	beq.w	.LBB8_100
.Ltmp335:
@ %bb.45:
	@DEBUG_VALUE: udf_Meter_Process:ex_byte <- 0
	@DEBUG_VALUE: udf_Meter_Process:ct_len <- 0
	@DEBUG_VALUE: udf_Meter_Process:EN_done <- 0
	@DEBUG_VALUE: udf_Meter_received_task:aBuf <- [DW_OP_LLVM_entry_value 1] $r0
	.loc	2 0 40 is_stmt 0                @ ../das_subg_thread/das_dlms_cmd.c:0:40
	cmp	r6, #207
	bne.w	.LBB8_101
.Ltmp336:
@ %bb.46:
	@DEBUG_VALUE: udf_Meter_Process:ex_byte <- 0
	@DEBUG_VALUE: udf_Meter_Process:ct_len <- 0
	@DEBUG_VALUE: udf_Meter_Process:EN_done <- 0
	@DEBUG_VALUE: udf_Meter_received_task:aBuf <- [DW_OP_LLVM_entry_value 1] $r0
	@DEBUG_VALUE: udf_Meter_Process:Res_type <- undef
	.loc	2 1865 3 is_stmt 1              @ ../das_subg_thread/das_dlms_cmd.c:1865:3
	movw	r1, :lower16:.L.str.15
	add.w	r5, sp, #1056
	movt	r1, :upper16:.L.str.15
	mov	r0, r5
	movs	r2, #11
	bl	__2sprintf
.Ltmp337:
	.loc	2 1866 3                        @ ../das_subg_thread/das_dlms_cmd.c:1866:3
	mov	r0, r5
	bl	__2printf
.Ltmp338:
	.loc	2 1942 24                       @ ../das_subg_thread/das_dlms_cmd.c:1942:24
	ldrb	r0, [r4, #12]
	movs	r7, #0
.Ltmp339:
	.loc	2 1942 9 is_stmt 0              @ ../das_subg_thread/das_dlms_cmd.c:1942:9
	cmp	r0, #128
	it	hi
	andhi	r7, r0, #15
.Ltmp340:
	@DEBUG_VALUE: udf_Meter_Process:ex_byte <- undef
	.loc	2 1947 9 is_stmt 1              @ ../das_subg_thread/das_dlms_cmd.c:1947:9
	cmp	r7, #2
	bne.w	.LBB8_107
.Ltmp341:
@ %bb.47:
	@DEBUG_VALUE: udf_Meter_Process:ct_len <- 0
	@DEBUG_VALUE: udf_Meter_Process:EN_done <- 0
	@DEBUG_VALUE: udf_Meter_received_task:aBuf <- [DW_OP_LLVM_entry_value 1] $r0
	.loc	2 1948 45                       @ ../das_subg_thread/das_dlms_cmd.c:1948:45
	ldrh.w	r0, [r4, #13]
	rev	r0, r0
	lsrs	r0, r0, #16
.Ltmp342:
	@DEBUG_VALUE: udf_Meter_Process:ct_len <- [DW_OP_constu 17, DW_OP_minus, DW_OP_stack_value] $r0
	.loc	2 0 45 is_stmt 0                @ ../das_subg_thread/das_dlms_cmd.c:0:45
	b	.LBB8_108
.Ltmp343:
.LBB8_48:
	@DEBUG_VALUE: Decide_Once:pt <- [DW_OP_plus_uconst 20, DW_OP_stack_value] $sp
	@DEBUG_VALUE: Decide_Once:i <- 0
	@DEBUG_VALUE: udf_Meter_Process:EN_done <- 1
	@DEBUG_VALUE: udf_Meter_Process:ex_byte <- 0
	@DEBUG_VALUE: udf_Meter_Process:ct_len <- 0
	@DEBUG_VALUE: udf_Meter_Process:i <- 0
	@DEBUG_VALUE: udf_Meter_received_task:aBuf <- [DW_OP_LLVM_entry_value 1] $r0
	.loc	2 744 6 is_stmt 1               @ ../das_subg_thread/das_dlms_cmd.c:744:6
	movw	r5, :lower16:NOTIFICATION_CODE.1
	movt	r5, :upper16:NOTIFICATION_CODE.1
	ldrb	r0, [r5]
.Ltmp344:
	.loc	2 744 6 is_stmt 0               @ ../das_subg_thread/das_dlms_cmd.c:744:6
	cmp	r0, #0
	bne.w	.LBB8_12
.Ltmp345:
@ %bb.49:
	@DEBUG_VALUE: Decide_Once:pt <- [DW_OP_plus_uconst 20, DW_OP_stack_value] $sp
	@DEBUG_VALUE: Decide_Once:i <- 0
	@DEBUG_VALUE: udf_Meter_Process:EN_done <- 1
	@DEBUG_VALUE: udf_Meter_Process:ex_byte <- 0
	@DEBUG_VALUE: udf_Meter_Process:ct_len <- 0
	@DEBUG_VALUE: udf_Meter_Process:i <- 0
	@DEBUG_VALUE: udf_Meter_received_task:aBuf <- [DW_OP_LLVM_entry_value 1] $r0
	.loc	2 746 4 is_stmt 1               @ ../das_subg_thread/das_dlms_cmd.c:746:4
	movw	r0, :lower16:.Lstr.84
	movt	r0, :upper16:.Lstr.84
	b	.LBB8_56
.Ltmp346:
.LBB8_50:
	@DEBUG_VALUE: Decide_Once:pt <- [DW_OP_plus_uconst 20, DW_OP_stack_value] $sp
	@DEBUG_VALUE: Decide_Once:i <- 0
	@DEBUG_VALUE: udf_Meter_Process:EN_done <- 1
	@DEBUG_VALUE: udf_Meter_Process:ex_byte <- 0
	@DEBUG_VALUE: udf_Meter_Process:ct_len <- 0
	@DEBUG_VALUE: udf_Meter_Process:i <- 0
	@DEBUG_VALUE: udf_Meter_received_task:aBuf <- [DW_OP_LLVM_entry_value 1] $r0
	.loc	2 756 6                         @ ../das_subg_thread/das_dlms_cmd.c:756:6
	movw	r5, :lower16:NOTIFICATION_CODE.2
	movt	r5, :upper16:NOTIFICATION_CODE.2
	ldrb	r0, [r5]
.Ltmp347:
	.loc	2 756 6 is_stmt 0               @ ../das_subg_thread/das_dlms_cmd.c:756:6
	cmp	r0, #0
	bne.w	.LBB8_12
.Ltmp348:
@ %bb.51:
	@DEBUG_VALUE: Decide_Once:pt <- [DW_OP_plus_uconst 20, DW_OP_stack_value] $sp
	@DEBUG_VALUE: Decide_Once:i <- 0
	@DEBUG_VALUE: udf_Meter_Process:EN_done <- 1
	@DEBUG_VALUE: udf_Meter_Process:ex_byte <- 0
	@DEBUG_VALUE: udf_Meter_Process:ct_len <- 0
	@DEBUG_VALUE: udf_Meter_Process:i <- 0
	@DEBUG_VALUE: udf_Meter_received_task:aBuf <- [DW_OP_LLVM_entry_value 1] $r0
	.loc	2 758 4 is_stmt 1               @ ../das_subg_thread/das_dlms_cmd.c:758:4
	movw	r0, :lower16:.Lstr.83
	movt	r0, :upper16:.Lstr.83
	b	.LBB8_56
.Ltmp349:
.LBB8_52:
	@DEBUG_VALUE: Decide_Once:pt <- [DW_OP_plus_uconst 20, DW_OP_stack_value] $sp
	@DEBUG_VALUE: Decide_Once:i <- 0
	@DEBUG_VALUE: udf_Meter_Process:EN_done <- 1
	@DEBUG_VALUE: udf_Meter_Process:ex_byte <- 0
	@DEBUG_VALUE: udf_Meter_Process:ct_len <- 0
	@DEBUG_VALUE: udf_Meter_Process:i <- 0
	@DEBUG_VALUE: udf_Meter_received_task:aBuf <- [DW_OP_LLVM_entry_value 1] $r0
	.loc	2 769 7                         @ ../das_subg_thread/das_dlms_cmd.c:769:7
	movw	r5, :lower16:NOTIFICATION_CODE.3
	movt	r5, :upper16:NOTIFICATION_CODE.3
	ldrb	r0, [r5]
.Ltmp350:
	.loc	2 769 7 is_stmt 0               @ ../das_subg_thread/das_dlms_cmd.c:769:7
	cmp	r0, #0
	bne.w	.LBB8_12
.Ltmp351:
@ %bb.53:
	@DEBUG_VALUE: Decide_Once:pt <- [DW_OP_plus_uconst 20, DW_OP_stack_value] $sp
	@DEBUG_VALUE: Decide_Once:i <- 0
	@DEBUG_VALUE: udf_Meter_Process:EN_done <- 1
	@DEBUG_VALUE: udf_Meter_Process:ex_byte <- 0
	@DEBUG_VALUE: udf_Meter_Process:ct_len <- 0
	@DEBUG_VALUE: udf_Meter_Process:i <- 0
	@DEBUG_VALUE: udf_Meter_received_task:aBuf <- [DW_OP_LLVM_entry_value 1] $r0
	.loc	2 771 4 is_stmt 1               @ ../das_subg_thread/das_dlms_cmd.c:771:4
	movw	r0, :lower16:.Lstr.82
	movt	r0, :upper16:.Lstr.82
	b	.LBB8_56
.Ltmp352:
.LBB8_54:
	@DEBUG_VALUE: Decide_Once:pt <- [DW_OP_plus_uconst 20, DW_OP_stack_value] $sp
	@DEBUG_VALUE: Decide_Once:i <- 0
	@DEBUG_VALUE: udf_Meter_Process:EN_done <- 1
	@DEBUG_VALUE: udf_Meter_Process:ex_byte <- 0
	@DEBUG_VALUE: udf_Meter_Process:ct_len <- 0
	@DEBUG_VALUE: udf_Meter_Process:i <- 0
	@DEBUG_VALUE: udf_Meter_received_task:aBuf <- [DW_OP_LLVM_entry_value 1] $r0
	.loc	2 781 6                         @ ../das_subg_thread/das_dlms_cmd.c:781:6
	movw	r5, :lower16:NOTIFICATION_CODE.4
	movt	r5, :upper16:NOTIFICATION_CODE.4
	ldrb	r0, [r5]
.Ltmp353:
	.loc	2 781 6 is_stmt 0               @ ../das_subg_thread/das_dlms_cmd.c:781:6
	cmp	r0, #0
	bne.w	.LBB8_12
.Ltmp354:
@ %bb.55:
	@DEBUG_VALUE: Decide_Once:pt <- [DW_OP_plus_uconst 20, DW_OP_stack_value] $sp
	@DEBUG_VALUE: Decide_Once:i <- 0
	@DEBUG_VALUE: udf_Meter_Process:EN_done <- 1
	@DEBUG_VALUE: udf_Meter_Process:ex_byte <- 0
	@DEBUG_VALUE: udf_Meter_Process:ct_len <- 0
	@DEBUG_VALUE: udf_Meter_Process:i <- 0
	@DEBUG_VALUE: udf_Meter_received_task:aBuf <- [DW_OP_LLVM_entry_value 1] $r0
	.loc	2 783 4 is_stmt 1               @ ../das_subg_thread/das_dlms_cmd.c:783:4
	movw	r0, :lower16:.Lstr.81
	movt	r0, :upper16:.Lstr.81
.Ltmp355:
.LBB8_56:
	@DEBUG_VALUE: Decide_Once:pt <- [DW_OP_plus_uconst 20, DW_OP_stack_value] $sp
	@DEBUG_VALUE: Decide_Once:i <- 0
	@DEBUG_VALUE: udf_Meter_Process:EN_done <- 1
	@DEBUG_VALUE: udf_Meter_Process:ex_byte <- 0
	@DEBUG_VALUE: udf_Meter_Process:ct_len <- 0
	@DEBUG_VALUE: udf_Meter_Process:i <- 0
	@DEBUG_VALUE: udf_Meter_received_task:aBuf <- [DW_OP_LLVM_entry_value 1] $r0
	.loc	2 0 0 is_stmt 0                 @ ../das_subg_thread/das_dlms_cmd.c:0:0
	bl	puts
.Ltmp356:
	@DEBUG_VALUE: Decide_Once:i <- 0
	ldrd	r0, r1, [r4]
	movw	r2, :lower16:event_notification_data
	movt	r2, :upper16:event_notification_data
	str	r0, [r2]
	ldr	r0, [r4, #8]
	str	r1, [r2, #4]
	ldr	r1, [r4, #12]
	str	r0, [r2, #8]
	ldr	r0, [r4, #16]
	str	r1, [r2, #12]
	ldr	r1, [r4, #20]
	str	r0, [r2, #16]
	ldr	r0, [r4, #24]
	str	r1, [r2, #20]
	ldr	r1, [r4, #28]
	str	r0, [r2, #24]
	ldr	r0, [r4, #32]
	str	r1, [r2, #28]
.Ltmp357:
	@DEBUG_VALUE: Decide_Once:i <- [DW_OP_plus_uconst 1, DW_OP_stack_value] undef
	ldr	r1, [r4, #36]
	str	r0, [r2, #32]
	ldr	r0, [r4, #40]
	str	r1, [r2, #36]
	ldr	r1, [r4, #44]
	str	r0, [r2, #40]
	ldr	r0, [r4, #48]
	movs	r3, #60
	strd	r1, r0, [r2, #44]
	ldrd	r0, r1, [r4, #52]
	movs	r4, #1
	strd	r0, r1, [r2, #52]
	movs	r0, #1
	movs	r1, #8
	bl	udf_Rafael_data
.Ltmp358:
	strb	r4, [r5]
	b	.LBB8_12
.Ltmp359:
.LBB8_57:
	@DEBUG_VALUE: udf_Meter_Process:ex_byte <- 0
	@DEBUG_VALUE: udf_Meter_Process:ct_len <- 0
	@DEBUG_VALUE: udf_Meter_Process:EN_done <- 0
	@DEBUG_VALUE: udf_Meter_received_task:aBuf <- [DW_OP_LLVM_entry_value 1] $r0
	.loc	2 383 7 is_stmt 1               @ ../das_subg_thread/das_dlms_cmd.c:383:7
	movw	r0, :lower16:DISC_FLAG
	movt	r0, :upper16:DISC_FLAG
	ldrb	r0, [r0]
	cbz	r0, .LBB8_63
.Ltmp360:
.LBB8_58:
	@DEBUG_VALUE: udf_Meter_Process:ex_byte <- 0
	@DEBUG_VALUE: udf_Meter_Process:ct_len <- 0
	@DEBUG_VALUE: udf_Meter_Process:EN_done <- 0
	@DEBUG_VALUE: udf_Meter_received_task:aBuf <- [DW_OP_LLVM_entry_value 1] $r0
	@DEBUG_VALUE: udf_Meter_Process:Res_type <- undef
	.loc	2 1865 3                        @ ../das_subg_thread/das_dlms_cmd.c:1865:3
	movw	r1, :lower16:.L.str.15
	add.w	r4, sp, #1056
	movt	r1, :upper16:.L.str.15
	mov	r0, r4
	movs	r2, #88
	bl	__2sprintf
.Ltmp361:
	.loc	2 1866 3                        @ ../das_subg_thread/das_dlms_cmd.c:1866:3
	mov	r0, r4
	bl	__2printf
.Ltmp362:
	.loc	2 2421 5                        @ ../das_subg_thread/das_dlms_cmd.c:2421:5
	movs	r0, #2
	bl	udf_Send_SNRM
.Ltmp363:
	.loc	2 2422 15                       @ ../das_subg_thread/das_dlms_cmd.c:2422:15
	movw	r0, :lower16:DISC_FLAG
	movt	r0, :upper16:DISC_FLAG
	movs	r1, #0
.Ltmp364:
.LBB8_59:
	@DEBUG_VALUE: udf_Meter_Process:EN_done <- 0
	@DEBUG_VALUE: udf_Meter_received_task:aBuf <- [DW_OP_LLVM_entry_value 1] $r0
	.loc	2 0 0 is_stmt 0                 @ ../das_subg_thread/das_dlms_cmd.c:0:0
	strb	r1, [r0]
	b	.LBB8_12
.Ltmp365:
.LBB8_60:
	@DEBUG_VALUE: udf_Meter_Process:ex_byte <- 0
	@DEBUG_VALUE: udf_Meter_Process:ct_len <- 0
	@DEBUG_VALUE: udf_Meter_Process:EN_done <- 0
	@DEBUG_VALUE: udf_Meter_received_task:aBuf <- [DW_OP_LLVM_entry_value 1] $r0
	movs	r2, #0
.Ltmp366:
.LBB8_61:
	@DEBUG_VALUE: udf_Meter_Process:ex_byte <- 0
	@DEBUG_VALUE: udf_Meter_Process:ct_len <- 0
	@DEBUG_VALUE: udf_Meter_Process:EN_done <- 0
	@DEBUG_VALUE: udf_Meter_received_task:aBuf <- [DW_OP_LLVM_entry_value 1] $r0
	@DEBUG_VALUE: udf_Meter_Process:Res_type <- undef
	.loc	2 1865 3 is_stmt 1              @ ../das_subg_thread/das_dlms_cmd.c:1865:3
	movw	r1, :lower16:.L.str.15
	add.w	r4, sp, #1056
	movt	r1, :upper16:.L.str.15
	mov	r0, r4
	bl	__2sprintf
.Ltmp367:
	.loc	2 1866 3                        @ ../das_subg_thread/das_dlms_cmd.c:1866:3
	mov	r0, r4
.Ltmp368:
.LBB8_62:
	@DEBUG_VALUE: udf_Meter_Process:ex_byte <- 0
	@DEBUG_VALUE: udf_Meter_Process:ct_len <- 0
	@DEBUG_VALUE: udf_Meter_Process:EN_done <- 0
	@DEBUG_VALUE: udf_Meter_received_task:aBuf <- [DW_OP_LLVM_entry_value 1] $r0
	.loc	2 0 0 is_stmt 0                 @ ../das_subg_thread/das_dlms_cmd.c:0:0
	bl	__2printf
.Ltmp369:
	b	.LBB8_12
.Ltmp370:
.LBB8_63:
	@DEBUG_VALUE: udf_Meter_Process:ex_byte <- 0
	@DEBUG_VALUE: udf_Meter_Process:ct_len <- 0
	@DEBUG_VALUE: udf_Meter_Process:EN_done <- 0
	@DEBUG_VALUE: udf_Meter_received_task:aBuf <- [DW_OP_LLVM_entry_value 1] $r0
	@DEBUG_VALUE: udf_Meter_Process:Res_type <- undef
	.loc	2 1865 3 is_stmt 1              @ ../das_subg_thread/das_dlms_cmd.c:1865:3
	movw	r1, :lower16:.L.str.15
	add.w	r5, sp, #1056
	movt	r1, :upper16:.L.str.15
	mov	r0, r5
	movs	r2, #73
	bl	__2sprintf
.Ltmp371:
	.loc	2 1866 3                        @ ../das_subg_thread/das_dlms_cmd.c:1866:3
	mov	r0, r5
	bl	__2printf
.Ltmp372:
	.loc	2 1871 5                        @ ../das_subg_thread/das_dlms_cmd.c:1871:5
	adr.w	r0, .LCPI8_8
	bl	__2printf
.Ltmp373:
	.loc	2 1872 8                        @ ../das_subg_thread/das_dlms_cmd.c:1872:8
	ldrb	r0, [r4, #3]
.Ltmp374:
	.loc	2 1872 8 is_stmt 0              @ ../das_subg_thread/das_dlms_cmd.c:1872:8
	cmp	r0, #35
	bne	.LBB8_65
.Ltmp375:
@ %bb.64:
	@DEBUG_VALUE: udf_Meter_Process:ex_byte <- 0
	@DEBUG_VALUE: udf_Meter_Process:ct_len <- 0
	@DEBUG_VALUE: udf_Meter_Process:EN_done <- 0
	@DEBUG_VALUE: udf_Meter_received_task:aBuf <- [DW_OP_LLVM_entry_value 1] $r0
	.loc	2 1874 6 is_stmt 1              @ ../das_subg_thread/das_dlms_cmd.c:1874:6
	movs	r0, #2
	bl	udf_Send_AARQ
.Ltmp376:
	.loc	2 1876 8                        @ ../das_subg_thread/das_dlms_cmd.c:1876:8
	ldrb	r0, [r4, #3]
.Ltmp377:
.LBB8_65:
	@DEBUG_VALUE: udf_Meter_Process:ex_byte <- 0
	@DEBUG_VALUE: udf_Meter_Process:ct_len <- 0
	@DEBUG_VALUE: udf_Meter_Process:EN_done <- 0
	@DEBUG_VALUE: udf_Meter_received_task:aBuf <- [DW_OP_LLVM_entry_value 1] $r0
	.loc	2 1876 8 is_stmt 0              @ ../das_subg_thread/das_dlms_cmd.c:1876:8
	cmp	r0, #33
	bne	.LBB8_67
.Ltmp378:
@ %bb.66:
	@DEBUG_VALUE: udf_Meter_Process:ex_byte <- 0
	@DEBUG_VALUE: udf_Meter_Process:ct_len <- 0
	@DEBUG_VALUE: udf_Meter_Process:EN_done <- 0
	@DEBUG_VALUE: udf_Meter_received_task:aBuf <- [DW_OP_LLVM_entry_value 1] $r0
	.loc	2 1884 7 is_stmt 1              @ ../das_subg_thread/das_dlms_cmd.c:1884:7
	movs	r0, #1
	bl	udf_Send_AARQ
.Ltmp379:
	.loc	2 1886 8                        @ ../das_subg_thread/das_dlms_cmd.c:1886:8
	ldrb	r0, [r4, #3]
.Ltmp380:
.LBB8_67:
	@DEBUG_VALUE: udf_Meter_Process:ex_byte <- 0
	@DEBUG_VALUE: udf_Meter_Process:ct_len <- 0
	@DEBUG_VALUE: udf_Meter_Process:EN_done <- 0
	@DEBUG_VALUE: udf_Meter_received_task:aBuf <- [DW_OP_LLVM_entry_value 1] $r0
	.loc	2 1886 8 is_stmt 0              @ ../das_subg_thread/das_dlms_cmd.c:1886:8
	cmp	r0, #39
	bne	.LBB8_69
.Ltmp381:
@ %bb.68:
	@DEBUG_VALUE: udf_Meter_Process:ex_byte <- 0
	@DEBUG_VALUE: udf_Meter_Process:ct_len <- 0
	@DEBUG_VALUE: udf_Meter_Process:EN_done <- 0
	@DEBUG_VALUE: udf_Meter_received_task:aBuf <- [DW_OP_LLVM_entry_value 1] $r0
	.loc	2 1887 6 is_stmt 1              @ ../das_subg_thread/das_dlms_cmd.c:1887:6
	movs	r0, #4
	bl	udf_Send_AARQ
.Ltmp382:
.LBB8_69:
	@DEBUG_VALUE: udf_Meter_Process:ex_byte <- 0
	@DEBUG_VALUE: udf_Meter_Process:ct_len <- 0
	@DEBUG_VALUE: udf_Meter_Process:EN_done <- 0
	@DEBUG_VALUE: udf_Meter_received_task:aBuf <- [DW_OP_LLVM_entry_value 1] $r0
	.loc	2 0 6 is_stmt 0                 @ ../das_subg_thread/das_dlms_cmd.c:0:6
	movs	r0, #1
	.loc	2 1888 12 is_stmt 1             @ ../das_subg_thread/das_dlms_cmd.c:1888:12
	strb.w	r0, [r9]
	b	.LBB8_12
.Ltmp383:
.LBB8_70:
	@DEBUG_VALUE: udf_Meter_Process:ex_byte <- 0
	@DEBUG_VALUE: udf_Meter_Process:ct_len <- 0
	@DEBUG_VALUE: udf_Meter_Process:EN_done <- 0
	@DEBUG_VALUE: udf_Meter_received_task:aBuf <- [DW_OP_LLVM_entry_value 1] $r0
	@DEBUG_VALUE: udf_Meter_Process:Res_type <- undef
	.loc	2 1865 3                        @ ../das_subg_thread/das_dlms_cmd.c:1865:3
	movw	r1, :lower16:.L.str.15
	add.w	r5, sp, #1056
	movt	r1, :upper16:.L.str.15
	mov	r0, r5
	movs	r2, #61
	bl	__2sprintf
.Ltmp384:
	.loc	2 1866 3                        @ ../das_subg_thread/das_dlms_cmd.c:1866:3
	mov	r0, r5
	bl	__2printf
.Ltmp385:
	.loc	2 1892 8                        @ ../das_subg_thread/das_dlms_cmd.c:1892:8
	ldrb	r0, [r4, #3]
	add	r7, sp, #20
.Ltmp386:
	.loc	2 1892 8 is_stmt 0              @ ../das_subg_thread/das_dlms_cmd.c:1892:8
	cmp	r0, #33
	beq.w	.LBB8_81
.Ltmp387:
@ %bb.71:
	@DEBUG_VALUE: udf_Meter_Process:ex_byte <- 0
	@DEBUG_VALUE: udf_Meter_Process:ct_len <- 0
	@DEBUG_VALUE: udf_Meter_Process:EN_done <- 0
	@DEBUG_VALUE: udf_Meter_received_task:aBuf <- [DW_OP_LLVM_entry_value 1] $r0
	cmp	r0, #35
	beq.w	.LBB8_82
.Ltmp388:
@ %bb.72:
	@DEBUG_VALUE: udf_Meter_Process:ex_byte <- 0
	@DEBUG_VALUE: udf_Meter_Process:ct_len <- 0
	@DEBUG_VALUE: udf_Meter_Process:EN_done <- 0
	@DEBUG_VALUE: udf_Meter_received_task:aBuf <- [DW_OP_LLVM_entry_value 1] $r0
	cmp	r0, #39
	bne.w	.LBB8_12
.Ltmp389:
@ %bb.73:
	@DEBUG_VALUE: udf_Meter_Process:ex_byte <- 0
	@DEBUG_VALUE: udf_Meter_Process:ct_len <- 0
	@DEBUG_VALUE: udf_Meter_Process:EN_done <- 0
	@DEBUG_VALUE: udf_Meter_received_task:aBuf <- [DW_OP_LLVM_entry_value 1] $r0
	.loc	2 1916 6 is_stmt 1              @ ../das_subg_thread/das_dlms_cmd.c:1916:6
	adr.w	r0, .LCPI8_6
	bl	__2printf
.Ltmp390:
	@DEBUG_VALUE: udf_Meter_Process:i <- [DW_OP_plus_uconst 1, DW_OP_stack_value] undef
	.loc	2 1919 25                       @ ../das_subg_thread/das_dlms_cmd.c:1919:25
	ldr.w	r2, [r4, #65]
	ldr.w	r3, [r4, #69]
	movw	r6, :lower16:tpc_gmac_ak
.Ltmp391:
	.loc	2 1923 21                       @ ../das_subg_thread/das_dlms_cmd.c:1923:21
	ldrd	r0, r1, [r4, #40]
.Ltmp392:
	.loc	2 1919 25                       @ ../das_subg_thread/das_dlms_cmd.c:1919:25
	movt	r6, :upper16:tpc_gmac_ak
.Ltmp393:
	.loc	2 1923 21                       @ ../das_subg_thread/das_dlms_cmd.c:1923:21
	movw	r5, :lower16:tpc_s_iv_h
.Ltmp394:
	.loc	2 1919 25                       @ ../das_subg_thread/das_dlms_cmd.c:1919:25
	str.w	r3, [r6, #21]
	str.w	r2, [r6, #17]
.Ltmp395:
	.loc	2 1923 21                       @ ../das_subg_thread/das_dlms_cmd.c:1923:21
	movt	r5, :upper16:tpc_s_iv_h
.Ltmp396:
	.loc	2 1927 23                       @ ../das_subg_thread/das_dlms_cmd.c:1927:23
	ldr	r2, [r4, #80]
	addw	r6, sp, #1044
.Ltmp397:
	.loc	2 1923 21                       @ ../das_subg_thread/das_dlms_cmd.c:1923:21
	stm.w	r5, {r0, r1, r2}
.Ltmp398:
	.loc	2 1931 14                       @ ../das_subg_thread/das_dlms_cmd.c:1931:14
	add.w	r1, r4, #98
	mov	r0, r6
	movs	r2, #12
	bl	__aeabi_memcpy
.Ltmp399:
	.loc	2 1933 6                        @ ../das_subg_thread/das_dlms_cmd.c:1933:6
	movw	r9, :lower16:tpc_guk
	movt	r9, :upper16:tpc_guk
	mov.w	r12, #14
	add.w	r2, r4, #84
	mov	r0, r9
	mov	r1, r5
	mov	r3, r6
	str	r7, [sp]
	str.w	r12, [sp, #4]
	bl	udf_AES_GCM_Decrypt
.Ltmp400:
	.loc	2 659 16                        @ ../das_subg_thread/das_dlms_cmd.c:659:16
	movw	r1, :lower16:.L__const.udf_Han_Client.cmdbuf
	add.w	r4, sp, #1456
	movt	r1, :upper16:.L__const.udf_Han_Client.cmdbuf
	mov	r0, r4
	movs	r2, #65
	bl	__aeabi_memcpy4
.Ltmp401:
	.loc	2 673 11                        @ ../das_subg_thread/das_dlms_cmd.c:673:11
	movw	r1, :lower16:ic_count
	movs	r0, #2
	movt	r1, :upper16:ic_count
	strh	r0, [r1]
	.loc	2 675 2                         @ ../das_subg_thread/das_dlms_cmd.c:675:2
	adr.w	r0, .LCPI8_7
	bl	__2printf
.Ltmp402:
	.loc	2 676 35                        @ ../das_subg_thread/das_dlms_cmd.c:676:35
	adds	r0, r4, #1
	.loc	2 676 14 is_stmt 0              @ ../das_subg_thread/das_dlms_cmd.c:676:14
	movs	r1, #5
	bl	CRC_COMPUTE
.Ltmp403:
	@DEBUG_VALUE: udf_Han_Client:CRC_check <- undef
	.loc	2 678 13 is_stmt 1              @ ../das_subg_thread/das_dlms_cmd.c:678:13
	strh.w	r0, [sp, #1462]
.Ltmp404:
	@DEBUG_VALUE: udf_Han_Client:i <- 0
	.loc	2 681 19                        @ ../das_subg_thread/das_dlms_cmd.c:681:19
	ldr.w	r0, [sp, #1490]
	movw	r5, :lower16:tpc_c_iv_h
	movt	r5, :upper16:tpc_c_iv_h
	str	r0, [r5, #8]
.Ltmp405:
	@DEBUG_VALUE: udf_Han_Client:i <- [DW_OP_plus_uconst 1, DW_OP_stack_value] undef
	.loc	2 0 19 is_stmt 0                @ ../das_subg_thread/das_dlms_cmd.c:0:19
	movs	r0, #25
	movs	r1, #0
.Ltmp406:
	.loc	2 683 2 is_stmt 1               @ ../das_subg_thread/das_dlms_cmd.c:683:2
	strd	r1, r0, [sp, #8]
	movw	r1, :lower16:tpc_gmac_ak
	add.w	r7, sp, #1312
	add.w	r8, sp, #1328
	mov	r0, r9
	movt	r1, :upper16:tpc_gmac_ak
	mov	r2, r5
	mov	r3, r4
	str.w	r8, [sp]
	str	r7, [sp, #4]
	bl	udf_AES_GCM_Encrypt
.Ltmp407:
	@DEBUG_VALUE: udf_Han_Client:i <- 0
	.loc	2 685 2                         @ ../das_subg_thread/das_dlms_cmd.c:685:2
	add.w	r0, r4, #38
.Ltmp408:
	.loc	2 686 16                        @ ../das_subg_thread/das_dlms_cmd.c:686:16
	mov	r1, r7
	movs	r2, #12
	bl	__aeabi_memcpy
.Ltmp409:
	@DEBUG_VALUE: udf_Han_Client:i <- [DW_OP_plus_uconst 1, DW_OP_stack_value] undef
	.loc	2 690 19                        @ ../das_subg_thread/das_dlms_cmd.c:690:19
	ldr.w	r0, [sp, #1470]
	movs	r1, #32
	str	r0, [r5, #8]
	movs	r0, #17
.Ltmp410:
	.loc	2 692 56                        @ ../das_subg_thread/das_dlms_cmd.c:692:56
	add.w	r6, r4, #18
	.loc	2 692 2 is_stmt 0               @ ../das_subg_thread/das_dlms_cmd.c:692:2
	strd	r1, r0, [sp, #8]
	movw	r1, :lower16:tpc_gcm_ak
	movt	r1, :upper16:tpc_gcm_ak
	mov	r0, r9
	mov	r2, r5
	mov	r3, r6
	str.w	r8, [sp]
	str	r7, [sp, #4]
	bl	udf_AES_GCM_Encrypt
.Ltmp411:
	@DEBUG_VALUE: udf_Han_Client:i <- 0
	.loc	2 695 16 is_stmt 1              @ ../das_subg_thread/das_dlms_cmd.c:695:16
	mov	r0, r6
	mov	r1, r8
	movs	r2, #32
	bl	__aeabi_memcpy
.Ltmp412:
	@DEBUG_VALUE: udf_Han_Client:i <- [DW_OP_plus_uconst 1, DW_OP_stack_value] undef
	.loc	2 697 2                         @ ../das_subg_thread/das_dlms_cmd.c:697:2
	add.w	r0, r4, #50
.Ltmp413:
	.loc	2 698 16                        @ ../das_subg_thread/das_dlms_cmd.c:698:16
	mov	r1, r7
	movs	r2, #12
	bl	__aeabi_memcpy
.Ltmp414:
	.loc	2 0 16 is_stmt 0                @ ../das_subg_thread/das_dlms_cmd.c:0:16
	movw	r1, :lower16:.L__const.UpdateCRC16.CRC16Table
	movs	r0, #1
	movt	r1, :upper16:.L__const.UpdateCRC16.CRC16Table
.Ltmp415:
.LBB8_74:                               @ =>This Inner Loop Header: Depth=1
	@DEBUG_VALUE: udf_Meter_Process:ex_byte <- 0
	@DEBUG_VALUE: udf_Meter_Process:ct_len <- 0
	@DEBUG_VALUE: udf_Meter_Process:EN_done <- 0
	@DEBUG_VALUE: udf_Meter_received_task:aBuf <- [DW_OP_LLVM_entry_value 1] $r0
	@DEBUG_VALUE: udf_Han_Client:i <- $r0
	@DEBUG_VALUE: udf_Han_Client:crc16 <- $r10
	.loc	2 704 6 is_stmt 1               @ ../das_subg_thread/das_dlms_cmd.c:704:6
	ldrb	r2, [r4, r0]
.Ltmp416:
	@DEBUG_VALUE: UpdateCRC16:value <- undef
	@DEBUG_VALUE: UpdateCRC16:crc <- $r10
	@DEBUG_VALUE: udf_Han_Client:ch <- undef
	.loc	2 231 10                        @ ../das_subg_thread/das_dlms_cmd.c:231:10
	uxth.w	r7, r10
	.loc	2 231 46 is_stmt 0              @ ../das_subg_thread/das_dlms_cmd.c:231:46
	eor.w	r3, r2, r10
	and	r3, r3, #15
	.loc	2 231 23                        @ ../das_subg_thread/das_dlms_cmd.c:231:23
	ldrh.w	r3, [r1, r3, lsl #1]
.Ltmp417:
	.loc	2 702 33 is_stmt 1              @ ../das_subg_thread/das_dlms_cmd.c:702:33
	adds	r0, #1
.Ltmp418:
	@DEBUG_VALUE: udf_Han_Client:i <- $r0
	.loc	2 231 21                        @ ../das_subg_thread/das_dlms_cmd.c:231:21
	eor.w	r3, r3, r7, lsr #4
.Ltmp419:
	@DEBUG_VALUE: UpdateCRC16:crc <- $r3
	uxth	r7, r3
	.loc	2 232 39                        @ ../das_subg_thread/das_dlms_cmd.c:232:39
	and	r3, r3, #15
.Ltmp420:
	.loc	2 232 46 is_stmt 0              @ ../das_subg_thread/das_dlms_cmd.c:232:46
	eor.w	r2, r3, r2, lsr #4
	.loc	2 232 23                        @ ../das_subg_thread/das_dlms_cmd.c:232:23
	ldrh.w	r2, [r1, r2, lsl #1]
.Ltmp421:
	.loc	2 702 2 is_stmt 1               @ ../das_subg_thread/das_dlms_cmd.c:702:2
	cmp	r0, #62
.Ltmp422:
	.loc	2 232 21                        @ ../das_subg_thread/das_dlms_cmd.c:232:21
	eor.w	r10, r2, r7, lsr #4
.Ltmp423:
	@DEBUG_VALUE: UpdateCRC16:crc <- $r10
	@DEBUG_VALUE: udf_Han_Client:crc16 <- $r10
	.loc	2 0 21 is_stmt 0                @ ../das_subg_thread/das_dlms_cmd.c:0:21
	bne	.LBB8_74
.Ltmp424:
@ %bb.75:
	@DEBUG_VALUE: udf_Han_Client:crc16 <- $r10
	@DEBUG_VALUE: udf_Han_Client:i <- $r0
	@DEBUG_VALUE: udf_Meter_Process:ex_byte <- 0
	@DEBUG_VALUE: udf_Meter_Process:ct_len <- 0
	@DEBUG_VALUE: udf_Meter_Process:EN_done <- 0
	@DEBUG_VALUE: udf_Meter_received_task:aBuf <- [DW_OP_LLVM_entry_value 1] $r0
	movw	r5, :lower16:.L.str.4
	.loc	2 708 8 is_stmt 1               @ ../das_subg_thread/das_dlms_cmd.c:708:8
	mvn.w	r0, r10
.Ltmp425:
	@DEBUG_VALUE: udf_Han_Client:crc16 <- $r0
	.loc	2 0 8 is_stmt 0                 @ ../das_subg_thread/das_dlms_cmd.c:0:8
	movs	r7, #0
.Ltmp426:
	@DEBUG_VALUE: udf_Han_Client:i <- 0
	movt	r5, :upper16:.L.str.4
	add.w	r6, sp, #1184
	.loc	2 710 27 is_stmt 1              @ ../das_subg_thread/das_dlms_cmd.c:710:27
	strh.w	r0, [sp, #1518]
.Ltmp427:
.LBB8_76:                               @ =>This Inner Loop Header: Depth=1
	@DEBUG_VALUE: udf_Meter_Process:ex_byte <- 0
	@DEBUG_VALUE: udf_Meter_Process:ct_len <- 0
	@DEBUG_VALUE: udf_Meter_Process:EN_done <- 0
	@DEBUG_VALUE: udf_Meter_received_task:aBuf <- [DW_OP_LLVM_entry_value 1] $r0
	@DEBUG_VALUE: udf_Han_Client:i <- $r7
	.loc	2 714 29                        @ ../das_subg_thread/das_dlms_cmd.c:714:29
	ldrb	r2, [r4, r7]
	.loc	2 714 4 is_stmt 0               @ ../das_subg_thread/das_dlms_cmd.c:714:4
	mov	r0, r6
	mov	r1, r5
	bl	__2sprintf
.Ltmp428:
	.loc	2 715 5 is_stmt 1               @ ../das_subg_thread/das_dlms_cmd.c:715:5
	mov	r0, r6
	bl	__2printf
.Ltmp429:
	.loc	2 712 31                        @ ../das_subg_thread/das_dlms_cmd.c:712:31
	adds	r7, #1
.Ltmp430:
	@DEBUG_VALUE: udf_Han_Client:i <- $r7
	.loc	2 712 2 is_stmt 0               @ ../das_subg_thread/das_dlms_cmd.c:712:2
	cmp	r7, #65
	bne	.LBB8_76
	b	.LBB8_86
.Ltmp431:
.LBB8_77:
	@DEBUG_VALUE: udf_Meter_Process:ex_byte <- 0
	@DEBUG_VALUE: udf_Meter_Process:ct_len <- 0
	@DEBUG_VALUE: udf_Meter_Process:EN_done <- 0
	@DEBUG_VALUE: udf_Meter_received_task:aBuf <- [DW_OP_LLVM_entry_value 1] $r0
	.loc	2 0 2                           @ ../das_subg_thread/das_dlms_cmd.c:0:2
	ldrb	r1, [r4, #13]
.Ltmp432:
	.loc	2 398 40 is_stmt 1              @ ../das_subg_thread/das_dlms_cmd.c:398:40
	cmp	r1, #65
	bne.w	.LBB8_41
.Ltmp433:
@ %bb.78:
	@DEBUG_VALUE: udf_Meter_Process:ex_byte <- 0
	@DEBUG_VALUE: udf_Meter_Process:ct_len <- 0
	@DEBUG_VALUE: udf_Meter_Process:EN_done <- 0
	@DEBUG_VALUE: udf_Meter_received_task:aBuf <- [DW_OP_LLVM_entry_value 1] $r0
	@DEBUG_VALUE: udf_Meter_Process:Res_type <- undef
	.loc	2 1865 3                        @ ../das_subg_thread/das_dlms_cmd.c:1865:3
	movw	r1, :lower16:.L.str.15
	add.w	r5, sp, #1056
	movt	r1, :upper16:.L.str.15
	mov	r0, r5
	movs	r2, #1
	movs	r7, #1
	bl	__2sprintf
.Ltmp434:
	.loc	2 1866 3                        @ ../das_subg_thread/das_dlms_cmd.c:1866:3
	mov	r0, r5
	bl	__2printf
.Ltmp435:
	.loc	2 2089 6                        @ ../das_subg_thread/das_dlms_cmd.c:2089:6
	adr.w	r0, .LCPI8_3
	bl	__2printf
.Ltmp436:
	.loc	2 1079 7                        @ ../das_subg_thread/das_dlms_cmd.c:1079:7
	movw	r1, :lower16:.L__const.udf_SMIP_Res.send_buff
	add.w	r5, sp, #1184
	movt	r1, :upper16:.L__const.udf_SMIP_Res.send_buff
	mov	r0, r5
	movs	r2, #128
	bl	__aeabi_memcpy4
.Ltmp437:
	.loc	2 0 7 is_stmt 0                 @ ../das_subg_thread/das_dlms_cmd.c:0:7
	movs	r0, #0
.Ltmp438:
	@DEBUG_VALUE: udf_SMIP_Res:i <- 0
	.loc	2 1086 15 is_stmt 1             @ ../das_subg_thread/das_dlms_cmd.c:1086:15
	strb.w	r0, [sp, #1194]
.Ltmp439:
	.loc	2 1089 18                       @ ../das_subg_thread/das_dlms_cmd.c:1089:18
	ldr.w	r0, [r4, #21]
	ldr.w	r1, [r4, #17]
	str.w	r0, [sp, #1202]
.Ltmp440:
	.loc	2 1092 2                        @ ../das_subg_thread/das_dlms_cmd.c:1092:2
	adr.w	r0, .LCPI8_4
.Ltmp441:
	.loc	2 1089 18                       @ ../das_subg_thread/das_dlms_cmd.c:1089:18
	str.w	r1, [sp, #1198]
.Ltmp442:
	@DEBUG_VALUE: udf_SMIP_Res:i <- [DW_OP_plus_uconst 1, DW_OP_stack_value] undef
	.loc	2 1092 2                        @ ../das_subg_thread/das_dlms_cmd.c:1092:2
	bl	__2printf
.Ltmp443:
	@DEBUG_VALUE: udf_SMIP_Res:i <- 0
	.loc	2 1096 3                        @ ../das_subg_thread/das_dlms_cmd.c:1096:3
	movw	r4, :lower16:.L.str.4
	movt	r4, :upper16:.L.str.4
	add.w	r6, sp, #1328
	mov	r0, r6
	mov	r1, r4
	movs	r2, #0
	bl	__2sprintf
.Ltmp444:
	.loc	2 1097 3                        @ ../das_subg_thread/das_dlms_cmd.c:1097:3
	mov	r0, r6
	bl	__2printf
.Ltmp445:
	@DEBUG_VALUE: udf_SMIP_Res:meter_data <- undef
	@DEBUG_VALUE: udf_SMIP_Res:i <- 1
.LBB8_79:                               @ =>This Inner Loop Header: Depth=1
	@DEBUG_VALUE: udf_Meter_Process:ex_byte <- 0
	@DEBUG_VALUE: udf_Meter_Process:ct_len <- 0
	@DEBUG_VALUE: udf_Meter_Process:EN_done <- 0
	@DEBUG_VALUE: udf_Meter_received_task:aBuf <- [DW_OP_LLVM_entry_value 1] $r0
	.loc	2 1096 28                       @ ../das_subg_thread/das_dlms_cmd.c:1096:28
	ldrb	r2, [r5, r7]
.Ltmp446:
	@DEBUG_VALUE: udf_SMIP_Res:i <- $r7
	.loc	2 1096 3 is_stmt 0              @ ../das_subg_thread/das_dlms_cmd.c:1096:3
	mov	r0, r6
	mov	r1, r4
	bl	__2sprintf
.Ltmp447:
	.loc	2 1097 3 is_stmt 1              @ ../das_subg_thread/das_dlms_cmd.c:1097:3
	mov	r0, r6
	bl	__2printf
.Ltmp448:
	.loc	2 1094 16                       @ ../das_subg_thread/das_dlms_cmd.c:1094:16
	adds	r7, #1
.Ltmp449:
	@DEBUG_VALUE: udf_SMIP_Res:i <- $r7
	.loc	2 1094 2 is_stmt 0              @ ../das_subg_thread/das_dlms_cmd.c:1094:2
	cmp	r7, #22
	bne	.LBB8_79
.Ltmp450:
@ %bb.80:
	@DEBUG_VALUE: udf_SMIP_Res:i <- $r7
	@DEBUG_VALUE: udf_Meter_Process:ex_byte <- 0
	@DEBUG_VALUE: udf_Meter_Process:ct_len <- 0
	@DEBUG_VALUE: udf_Meter_Process:EN_done <- 0
	@DEBUG_VALUE: udf_Meter_received_task:aBuf <- [DW_OP_LLVM_entry_value 1] $r0
	.loc	2 1099 2 is_stmt 1              @ ../das_subg_thread/das_dlms_cmd.c:1099:2
	movw	r0, :lower16:.L.str.5
	movt	r0, :upper16:.L.str.5
	bl	__2printf
.Ltmp451:
	@DEBUG_VALUE: udf_SMIP_Res:i <- 0
	.loc	2 1103 19                       @ ../das_subg_thread/das_dlms_cmd.c:1103:19
	add.w	r7, sp, #1184
	movw	r1, :lower16:ucMeterPacket
	ldm	r7, {r0, r2, r3, r7}
	movt	r1, :upper16:ucMeterPacket
	stm.w	r1, {r0, r2, r3, r7}
	ldrh.w	r0, [sp, #1204]
	ldr.w	r6, [sp, #1200]
	strh	r0, [r1, #20]
.Ltmp452:
	@DEBUG_VALUE: udf_SMIP_Res:i <- [DW_OP_plus_uconst 1, DW_OP_stack_value] undef
	.loc	2 1108 2                        @ ../das_subg_thread/das_dlms_cmd.c:1108:2
	movs	r0, #0
	movs	r2, #22
.Ltmp453:
	.loc	2 1103 19                       @ ../das_subg_thread/das_dlms_cmd.c:1103:19
	str	r6, [r1, #16]
	b	.LBB8_11
.Ltmp454:
.LBB8_81:
	@DEBUG_VALUE: udf_Meter_Process:ex_byte <- 0
	@DEBUG_VALUE: udf_Meter_Process:ct_len <- 0
	@DEBUG_VALUE: udf_Meter_Process:EN_done <- 0
	@DEBUG_VALUE: udf_Meter_received_task:aBuf <- [DW_OP_LLVM_entry_value 1] $r0
	.loc	2 1937 6                        @ ../das_subg_thread/das_dlms_cmd.c:1937:6
	adr.w	r0, .LCPI8_5
	b	.LBB8_62
.Ltmp455:
.LBB8_82:
	@DEBUG_VALUE: udf_Meter_Process:ex_byte <- 0
	@DEBUG_VALUE: udf_Meter_Process:ct_len <- 0
	@DEBUG_VALUE: udf_Meter_Process:EN_done <- 0
	@DEBUG_VALUE: udf_Meter_received_task:aBuf <- [DW_OP_LLVM_entry_value 1] $r0
	.loc	2 1894 6                        @ ../das_subg_thread/das_dlms_cmd.c:1894:6
	movw	r0, :lower16:.L.str.17
	movt	r0, :upper16:.L.str.17
	bl	__2printf
.Ltmp456:
	@DEBUG_VALUE: udf_Meter_Process:i <- [DW_OP_plus_uconst 1, DW_OP_stack_value] undef
	.loc	2 1897 25                       @ ../das_subg_thread/das_dlms_cmd.c:1897:25
	ldr.w	r2, [r4, #65]
	ldr.w	r3, [r4, #69]
	movw	r6, :lower16:tpc_gmac_ak
.Ltmp457:
	.loc	2 1901 19                       @ ../das_subg_thread/das_dlms_cmd.c:1901:19
	ldrd	r0, r1, [r4, #40]
.Ltmp458:
	.loc	2 1897 25                       @ ../das_subg_thread/das_dlms_cmd.c:1897:25
	movt	r6, :upper16:tpc_gmac_ak
.Ltmp459:
	.loc	2 1901 19                       @ ../das_subg_thread/das_dlms_cmd.c:1901:19
	movw	r5, :lower16:tpc_s_iv
.Ltmp460:
	.loc	2 1897 25                       @ ../das_subg_thread/das_dlms_cmd.c:1897:25
	str.w	r3, [r6, #21]
	str.w	r2, [r6, #17]
.Ltmp461:
	.loc	2 1901 19                       @ ../das_subg_thread/das_dlms_cmd.c:1901:19
	movt	r5, :upper16:tpc_s_iv
.Ltmp462:
	.loc	2 1905 21                       @ ../das_subg_thread/das_dlms_cmd.c:1905:21
	ldr	r2, [r4, #80]
	addw	r6, sp, #1044
.Ltmp463:
	.loc	2 1901 19                       @ ../das_subg_thread/das_dlms_cmd.c:1901:19
	stm.w	r5, {r0, r1, r2}
.Ltmp464:
	.loc	2 1909 14                       @ ../das_subg_thread/das_dlms_cmd.c:1909:14
	add.w	r1, r4, #98
	mov	r0, r6
	movs	r2, #12
	bl	__aeabi_memcpy
.Ltmp465:
	.loc	2 1911 6                        @ ../das_subg_thread/das_dlms_cmd.c:1911:6
	movw	r9, :lower16:tpc_guk
	movt	r9, :upper16:tpc_guk
	mov.w	r12, #14
	add.w	r2, r4, #84
	mov	r0, r9
	mov	r1, r5
	mov	r3, r6
	str	r7, [sp]
	str.w	r12, [sp, #4]
	bl	udf_AES_GCM_Decrypt
.Ltmp466:
	@DEBUG_VALUE: udf_Management_Client:type <- undef
	.loc	2 594 15                        @ ../das_subg_thread/das_dlms_cmd.c:594:15
	movw	r1, :lower16:.L__const.udf_Management_Client.cmdbuf
	add.w	r4, sp, #1456
	movt	r1, :upper16:.L__const.udf_Management_Client.cmdbuf
	mov	r0, r4
	movs	r2, #65
	bl	__aeabi_memcpy4
.Ltmp467:
	.loc	2 608 11                        @ ../das_subg_thread/das_dlms_cmd.c:608:11
	movw	r1, :lower16:ic_count
	movs	r0, #4
	movt	r1, :upper16:ic_count
	strh	r0, [r1]
	.loc	2 610 2                         @ ../das_subg_thread/das_dlms_cmd.c:610:2
	movw	r0, :lower16:.L.str.55
	movt	r0, :upper16:.L.str.55
	bl	__2printf
.Ltmp468:
	.loc	2 611 35                        @ ../das_subg_thread/das_dlms_cmd.c:611:35
	adds	r0, r4, #1
	.loc	2 611 14 is_stmt 0              @ ../das_subg_thread/das_dlms_cmd.c:611:14
	movs	r1, #5
	bl	CRC_COMPUTE
.Ltmp469:
	@DEBUG_VALUE: udf_Management_Client:CRC_check <- undef
	.loc	2 613 13 is_stmt 1              @ ../das_subg_thread/das_dlms_cmd.c:613:13
	strh.w	r0, [sp, #1462]
.Ltmp470:
	@DEBUG_VALUE: udf_Management_Client:i <- 0
	.loc	2 616 17                        @ ../das_subg_thread/das_dlms_cmd.c:616:17
	ldr.w	r0, [sp, #1490]
	movw	r5, :lower16:tpc_c_iv
	movt	r5, :upper16:tpc_c_iv
	str	r0, [r5, #8]
.Ltmp471:
	@DEBUG_VALUE: udf_Management_Client:i <- [DW_OP_plus_uconst 1, DW_OP_stack_value] undef
	.loc	2 0 17 is_stmt 0                @ ../das_subg_thread/das_dlms_cmd.c:0:17
	movs	r0, #25
	movs	r1, #0
.Ltmp472:
	.loc	2 618 2 is_stmt 1               @ ../das_subg_thread/das_dlms_cmd.c:618:2
	strd	r1, r0, [sp, #8]
	movw	r1, :lower16:tpc_gmac_ak
	add.w	r7, sp, #1312
	add.w	r8, sp, #1328
	mov	r0, r9
	movt	r1, :upper16:tpc_gmac_ak
	mov	r2, r5
	mov	r3, r4
	str.w	r8, [sp]
	str	r7, [sp, #4]
	bl	udf_AES_GCM_Encrypt
.Ltmp473:
	@DEBUG_VALUE: udf_Management_Client:i <- 0
	.loc	2 620 2                         @ ../das_subg_thread/das_dlms_cmd.c:620:2
	add.w	r0, r4, #38
.Ltmp474:
	.loc	2 621 16                        @ ../das_subg_thread/das_dlms_cmd.c:621:16
	mov	r1, r7
	movs	r2, #12
	bl	__aeabi_memcpy
.Ltmp475:
	@DEBUG_VALUE: udf_Management_Client:i <- [DW_OP_plus_uconst 1, DW_OP_stack_value] undef
	.loc	2 625 17                        @ ../das_subg_thread/das_dlms_cmd.c:625:17
	ldr.w	r0, [sp, #1470]
	movs	r1, #32
	str	r0, [r5, #8]
	movs	r0, #17
.Ltmp476:
	.loc	2 627 54                        @ ../das_subg_thread/das_dlms_cmd.c:627:54
	add.w	r6, r4, #18
	.loc	2 627 2 is_stmt 0               @ ../das_subg_thread/das_dlms_cmd.c:627:2
	strd	r1, r0, [sp, #8]
	movw	r1, :lower16:tpc_gcm_ak
	movt	r1, :upper16:tpc_gcm_ak
	mov	r0, r9
	mov	r2, r5
	mov	r3, r6
	str.w	r8, [sp]
	str	r7, [sp, #4]
	bl	udf_AES_GCM_Encrypt
.Ltmp477:
	@DEBUG_VALUE: udf_Management_Client:i <- 0
	.loc	2 630 16 is_stmt 1              @ ../das_subg_thread/das_dlms_cmd.c:630:16
	mov	r0, r6
	mov	r1, r8
	movs	r2, #32
	bl	__aeabi_memcpy
.Ltmp478:
	@DEBUG_VALUE: udf_Management_Client:i <- [DW_OP_plus_uconst 1, DW_OP_stack_value] undef
	.loc	2 632 2                         @ ../das_subg_thread/das_dlms_cmd.c:632:2
	add.w	r0, r4, #50
.Ltmp479:
	.loc	2 633 16                        @ ../das_subg_thread/das_dlms_cmd.c:633:16
	mov	r1, r7
	movs	r2, #12
	bl	__aeabi_memcpy
.Ltmp480:
	.loc	2 0 16 is_stmt 0                @ ../das_subg_thread/das_dlms_cmd.c:0:16
	movw	r1, :lower16:.L__const.UpdateCRC16.CRC16Table
	movs	r0, #1
	movt	r1, :upper16:.L__const.UpdateCRC16.CRC16Table
.Ltmp481:
.LBB8_83:                               @ =>This Inner Loop Header: Depth=1
	@DEBUG_VALUE: udf_Meter_Process:ex_byte <- 0
	@DEBUG_VALUE: udf_Meter_Process:ct_len <- 0
	@DEBUG_VALUE: udf_Meter_Process:EN_done <- 0
	@DEBUG_VALUE: udf_Meter_received_task:aBuf <- [DW_OP_LLVM_entry_value 1] $r0
	@DEBUG_VALUE: udf_Management_Client:i <- $r0
	@DEBUG_VALUE: udf_Management_Client:crc16 <- $r10
	.loc	2 639 6 is_stmt 1               @ ../das_subg_thread/das_dlms_cmd.c:639:6
	ldrb	r2, [r4, r0]
.Ltmp482:
	@DEBUG_VALUE: UpdateCRC16:value <- undef
	@DEBUG_VALUE: UpdateCRC16:crc <- $r10
	@DEBUG_VALUE: udf_Management_Client:ch <- undef
	.loc	2 231 10                        @ ../das_subg_thread/das_dlms_cmd.c:231:10
	uxth.w	r7, r10
	.loc	2 231 46 is_stmt 0              @ ../das_subg_thread/das_dlms_cmd.c:231:46
	eor.w	r3, r2, r10
	and	r3, r3, #15
	.loc	2 231 23                        @ ../das_subg_thread/das_dlms_cmd.c:231:23
	ldrh.w	r3, [r1, r3, lsl #1]
.Ltmp483:
	.loc	2 637 33 is_stmt 1              @ ../das_subg_thread/das_dlms_cmd.c:637:33
	adds	r0, #1
.Ltmp484:
	@DEBUG_VALUE: udf_Management_Client:i <- $r0
	.loc	2 231 21                        @ ../das_subg_thread/das_dlms_cmd.c:231:21
	eor.w	r3, r3, r7, lsr #4
.Ltmp485:
	@DEBUG_VALUE: UpdateCRC16:crc <- $r3
	uxth	r7, r3
	.loc	2 232 39                        @ ../das_subg_thread/das_dlms_cmd.c:232:39
	and	r3, r3, #15
.Ltmp486:
	.loc	2 232 46 is_stmt 0              @ ../das_subg_thread/das_dlms_cmd.c:232:46
	eor.w	r2, r3, r2, lsr #4
	.loc	2 232 23                        @ ../das_subg_thread/das_dlms_cmd.c:232:23
	ldrh.w	r2, [r1, r2, lsl #1]
.Ltmp487:
	.loc	2 637 2 is_stmt 1               @ ../das_subg_thread/das_dlms_cmd.c:637:2
	cmp	r0, #62
.Ltmp488:
	.loc	2 232 21                        @ ../das_subg_thread/das_dlms_cmd.c:232:21
	eor.w	r10, r2, r7, lsr #4
.Ltmp489:
	@DEBUG_VALUE: UpdateCRC16:crc <- $r10
	@DEBUG_VALUE: udf_Management_Client:crc16 <- $r10
	.loc	2 637 2                         @ ../das_subg_thread/das_dlms_cmd.c:637:2
	bne	.LBB8_83
.Ltmp490:
@ %bb.84:
	@DEBUG_VALUE: udf_Management_Client:crc16 <- $r10
	@DEBUG_VALUE: udf_Management_Client:i <- $r0
	@DEBUG_VALUE: udf_Meter_Process:ex_byte <- 0
	@DEBUG_VALUE: udf_Meter_Process:ct_len <- 0
	@DEBUG_VALUE: udf_Meter_Process:EN_done <- 0
	@DEBUG_VALUE: udf_Meter_received_task:aBuf <- [DW_OP_LLVM_entry_value 1] $r0
	.loc	2 0 2 is_stmt 0                 @ ../das_subg_thread/das_dlms_cmd.c:0:2
	movw	r5, :lower16:.L.str.4
	.loc	2 643 8 is_stmt 1               @ ../das_subg_thread/das_dlms_cmd.c:643:8
	mvn.w	r0, r10
.Ltmp491:
	@DEBUG_VALUE: udf_Management_Client:crc16 <- $r0
	.loc	2 0 8 is_stmt 0                 @ ../das_subg_thread/das_dlms_cmd.c:0:8
	movs	r7, #0
.Ltmp492:
	@DEBUG_VALUE: udf_Management_Client:i <- 0
	movt	r5, :upper16:.L.str.4
	add.w	r6, sp, #1184
	.loc	2 645 27 is_stmt 1              @ ../das_subg_thread/das_dlms_cmd.c:645:27
	strh.w	r0, [sp, #1518]
.Ltmp493:
.LBB8_85:                               @ =>This Inner Loop Header: Depth=1
	@DEBUG_VALUE: udf_Meter_Process:ex_byte <- 0
	@DEBUG_VALUE: udf_Meter_Process:ct_len <- 0
	@DEBUG_VALUE: udf_Meter_Process:EN_done <- 0
	@DEBUG_VALUE: udf_Meter_received_task:aBuf <- [DW_OP_LLVM_entry_value 1] $r0
	@DEBUG_VALUE: udf_Management_Client:i <- $r7
	.loc	2 649 29                        @ ../das_subg_thread/das_dlms_cmd.c:649:29
	ldrb	r2, [r4, r7]
	.loc	2 649 4 is_stmt 0               @ ../das_subg_thread/das_dlms_cmd.c:649:4
	mov	r0, r6
	mov	r1, r5
	bl	__2sprintf
.Ltmp494:
	.loc	2 650 5 is_stmt 1               @ ../das_subg_thread/das_dlms_cmd.c:650:5
	mov	r0, r6
	bl	__2printf
.Ltmp495:
	.loc	2 647 31                        @ ../das_subg_thread/das_dlms_cmd.c:647:31
	adds	r7, #1
.Ltmp496:
	@DEBUG_VALUE: udf_Management_Client:i <- $r7
	.loc	2 647 2 is_stmt 0               @ ../das_subg_thread/das_dlms_cmd.c:647:2
	cmp	r7, #65
	bne	.LBB8_85
.Ltmp497:
.LBB8_86:
	@DEBUG_VALUE: udf_Meter_Process:ex_byte <- 0
	@DEBUG_VALUE: udf_Meter_Process:ct_len <- 0
	@DEBUG_VALUE: udf_Meter_Process:EN_done <- 0
	@DEBUG_VALUE: udf_Meter_received_task:aBuf <- [DW_OP_LLVM_entry_value 1] $r0
	.loc	2 0 0                           @ ../das_subg_thread/das_dlms_cmd.c:0:0
	movw	r0, :lower16:.L.str.5
	movt	r0, :upper16:.L.str.5
	bl	__2printf
.Ltmp498:
	add.w	r1, sp, #1456
	movs	r0, #1
	movs	r2, #65
	b.w	.LBB8_11
.Ltmp499:
.LBB8_87:
	@DEBUG_VALUE: udf_Meter_Process:ex_byte <- 0
	@DEBUG_VALUE: udf_Meter_Process:ct_len <- 0
	@DEBUG_VALUE: udf_Meter_Process:EN_done <- 0
	@DEBUG_VALUE: udf_Meter_received_task:aBuf <- [DW_OP_LLVM_entry_value 1] $r0
	@DEBUG_VALUE: udf_Meter_Process:Res_type <- undef
	.loc	2 1865 3 is_stmt 1              @ ../das_subg_thread/das_dlms_cmd.c:1865:3
	movw	r1, :lower16:.L.str.15
	add.w	r5, sp, #1056
	movt	r1, :upper16:.L.str.15
	mov	r0, r5
	movs	r2, #2
	bl	__2sprintf
.Ltmp500:
	.loc	2 1866 3                        @ ../das_subg_thread/das_dlms_cmd.c:1866:3
	mov	r0, r5
	bl	__2printf
.Ltmp501:
	.loc	2 2095 24                       @ ../das_subg_thread/das_dlms_cmd.c:2095:24
	ldrb	r0, [r4, #12]
	movs	r7, #0
.Ltmp502:
	.loc	2 2095 9 is_stmt 0              @ ../das_subg_thread/das_dlms_cmd.c:2095:9
	cmp	r0, #128
	it	hi
	andhi	r7, r0, #15
.Ltmp503:
	@DEBUG_VALUE: udf_Meter_Process:ex_byte <- undef
	.loc	2 2100 9 is_stmt 1              @ ../das_subg_thread/das_dlms_cmd.c:2100:9
	cmp	r7, #2
	bne	.LBB8_91
.Ltmp504:
@ %bb.88:
	@DEBUG_VALUE: udf_Meter_Process:ct_len <- 0
	@DEBUG_VALUE: udf_Meter_Process:EN_done <- 0
	@DEBUG_VALUE: udf_Meter_received_task:aBuf <- [DW_OP_LLVM_entry_value 1] $r0
	.loc	2 2101 45                       @ ../das_subg_thread/das_dlms_cmd.c:2101:45
	ldrh.w	r0, [r4, #13]
	rev	r0, r0
	lsrs	r0, r0, #16
.Ltmp505:
	@DEBUG_VALUE: udf_Meter_Process:ct_len <- [DW_OP_constu 17, DW_OP_minus, DW_OP_stack_value] $r0
	.loc	2 0 45 is_stmt 0                @ ../das_subg_thread/das_dlms_cmd.c:0:45
	b	.LBB8_92
.Ltmp506:
.LBB8_89:
	@DEBUG_VALUE: udf_Meter_Process:ex_byte <- 0
	@DEBUG_VALUE: udf_Meter_Process:ct_len <- 0
	@DEBUG_VALUE: udf_Meter_Process:EN_done <- 0
	@DEBUG_VALUE: udf_Meter_received_task:aBuf <- [DW_OP_LLVM_entry_value 1] $r0
	@DEBUG_VALUE: udf_Meter_Process:Res_type <- undef
	.loc	2 1865 3 is_stmt 1              @ ../das_subg_thread/das_dlms_cmd.c:1865:3
	movw	r1, :lower16:.L.str.15
	add.w	r5, sp, #1056
	movt	r1, :upper16:.L.str.15
	mov	r0, r5
	movs	r2, #21
	bl	__2sprintf
.Ltmp507:
	.loc	2 1866 3                        @ ../das_subg_thread/das_dlms_cmd.c:1866:3
	mov	r0, r5
	bl	__2printf
.Ltmp508:
	.loc	2 2236 24                       @ ../das_subg_thread/das_dlms_cmd.c:2236:24
	ldrb	r1, [r4, #12]
	movs	r0, #0
.Ltmp509:
	.loc	2 2236 9 is_stmt 0              @ ../das_subg_thread/das_dlms_cmd.c:2236:9
	cmp	r1, #128
	it	hi
	andhi	r0, r1, #15
.Ltmp510:
	@DEBUG_VALUE: udf_Meter_Process:ex_byte <- undef
	.loc	2 2241 9 is_stmt 1              @ ../das_subg_thread/das_dlms_cmd.c:2241:9
	cmp	r0, #2
	bne	.LBB8_98
.Ltmp511:
@ %bb.90:
	@DEBUG_VALUE: udf_Meter_Process:ct_len <- 0
	@DEBUG_VALUE: udf_Meter_Process:EN_done <- 0
	@DEBUG_VALUE: udf_Meter_received_task:aBuf <- [DW_OP_LLVM_entry_value 1] $r0
	.loc	2 2242 45                       @ ../das_subg_thread/das_dlms_cmd.c:2242:45
	ldrh.w	r1, [r4, #13]
	rev	r1, r1
	lsrs	r1, r1, #16
.Ltmp512:
	@DEBUG_VALUE: udf_Meter_Process:ct_len <- [DW_OP_constu 17, DW_OP_minus, DW_OP_stack_value] $r1
	.loc	2 0 45 is_stmt 0                @ ../das_subg_thread/das_dlms_cmd.c:0:45
	b	.LBB8_99
.Ltmp513:
.LBB8_91:
	@DEBUG_VALUE: udf_Meter_Process:ct_len <- 0
	@DEBUG_VALUE: udf_Meter_Process:EN_done <- 0
	@DEBUG_VALUE: udf_Meter_received_task:aBuf <- [DW_OP_LLVM_entry_value 1] $r0
	.loc	2 2103 28 is_stmt 1             @ ../das_subg_thread/das_dlms_cmd.c:2103:28
	adds	r0, r7, r4
	.loc	2 2103 15 is_stmt 0             @ ../das_subg_thread/das_dlms_cmd.c:2103:15
	ldrb	r0, [r0, #12]
.Ltmp514:
	@DEBUG_VALUE: udf_Meter_Process:ct_len <- [DW_OP_constu 17, DW_OP_minus, DW_OP_stack_value] undef
.LBB8_92:
	@DEBUG_VALUE: udf_Meter_Process:EN_done <- 0
	@DEBUG_VALUE: udf_Meter_received_task:aBuf <- [DW_OP_LLVM_entry_value 1] $r0
	.loc	2 2104 8 is_stmt 1              @ ../das_subg_thread/das_dlms_cmd.c:2104:8
	ldrb	r1, [r4, #3]
.Ltmp515:
	.loc	2 0 0 is_stmt 0                 @ ../das_subg_thread/das_dlms_cmd.c:0:0
	sub.w	r10, r0, #17
.Ltmp516:
	@DEBUG_VALUE: udf_Meter_Process:ct_len <- $r10
	.loc	2 2104 8                        @ ../das_subg_thread/das_dlms_cmd.c:2104:8
	cmp	r1, #35
	bne	.LBB8_94
.Ltmp517:
@ %bb.93:
	@DEBUG_VALUE: udf_Meter_Process:ct_len <- $r10
	@DEBUG_VALUE: udf_Meter_Process:EN_done <- 0
	@DEBUG_VALUE: udf_Meter_received_task:aBuf <- [DW_OP_LLVM_entry_value 1] $r0
	@DEBUG_VALUE: udf_Meter_Process:i <- 0
	.loc	2 0 8                           @ ../das_subg_thread/das_dlms_cmd.c:0:8
	adds	r0, r7, r4
.Ltmp518:
	.loc	2 2108 21 is_stmt 1             @ ../das_subg_thread/das_dlms_cmd.c:2108:21
	ldr.w	r0, [r0, #14]
	movw	r9, :lower16:tpc_s_iv
	movt	r9, :upper16:tpc_s_iv
	uxth.w	r6, r10
.Ltmp519:
	.loc	2 2111 6                        @ ../das_subg_thread/das_dlms_cmd.c:2111:6
	add.w	r5, r7, #18
.Ltmp520:
	.loc	2 2108 21                       @ ../das_subg_thread/das_dlms_cmd.c:2108:21
	str.w	r0, [r9, #8]
.Ltmp521:
	.loc	2 2111 6                        @ ../das_subg_thread/das_dlms_cmd.c:2111:6
	adds	r0, r5, r6
	addw	r8, sp, #1044
	adds	r1, r4, r0
.Ltmp522:
	.loc	2 2112 14                       @ ../das_subg_thread/das_dlms_cmd.c:2112:14
	mov	r0, r8
	movs	r2, #12
	bl	__aeabi_memcpy
.Ltmp523:
	@DEBUG_VALUE: udf_Meter_Process:i <- [DW_OP_plus_uconst 1, DW_OP_stack_value] undef
	.loc	2 2114 6                        @ ../das_subg_thread/das_dlms_cmd.c:2114:6
	add	r0, sp, #20
	str	r0, [sp]
	movw	r0, :lower16:tpc_dk
	.loc	2 2114 57 is_stmt 0             @ ../das_subg_thread/das_dlms_cmd.c:2114:57
	adds	r2, r4, r5
	.loc	2 2114 6                        @ ../das_subg_thread/das_dlms_cmd.c:2114:6
	movt	r0, :upper16:tpc_dk
	mov	r1, r9
	mov	r3, r8
	add.w	r8, sp, #20
	str	r6, [sp, #4]
	bl	udf_AES_GCM_Decrypt
.Ltmp524:
	.loc	2 2221 8 is_stmt 1              @ ../das_subg_thread/das_dlms_cmd.c:2221:8
	ldrb	r1, [r4, #3]
.Ltmp525:
.LBB8_94:
	@DEBUG_VALUE: udf_Meter_Process:ct_len <- $r10
	@DEBUG_VALUE: udf_Meter_Process:EN_done <- 0
	@DEBUG_VALUE: udf_Meter_received_task:aBuf <- [DW_OP_LLVM_entry_value 1] $r0
	.loc	2 2221 8 is_stmt 0              @ ../das_subg_thread/das_dlms_cmd.c:2221:8
	cmp	r1, #39
	bne.w	.LBB8_12
.Ltmp526:
@ %bb.95:
	@DEBUG_VALUE: udf_Meter_Process:ct_len <- $r10
	@DEBUG_VALUE: udf_Meter_Process:EN_done <- 0
	@DEBUG_VALUE: udf_Meter_received_task:aBuf <- [DW_OP_LLVM_entry_value 1] $r0
	@DEBUG_VALUE: udf_Meter_Process:i <- 0
	.loc	2 0 8                           @ ../das_subg_thread/das_dlms_cmd.c:0:8
	adds	r0, r7, r4
.Ltmp527:
	.loc	2 2225 23 is_stmt 1             @ ../das_subg_thread/das_dlms_cmd.c:2225:23
	ldr.w	r0, [r0, #14]
	movw	r9, :lower16:tpc_s_iv_h
	movt	r9, :upper16:tpc_s_iv_h
	uxth.w	r5, r10
.Ltmp528:
	.loc	2 2228 6                        @ ../das_subg_thread/das_dlms_cmd.c:2228:6
	adds	r7, #18
.Ltmp529:
	.loc	2 2225 23                       @ ../das_subg_thread/das_dlms_cmd.c:2225:23
	str.w	r0, [r9, #8]
.Ltmp530:
	.loc	2 2228 6                        @ ../das_subg_thread/das_dlms_cmd.c:2228:6
	adds	r0, r7, r5
	addw	r6, sp, #1044
	adds	r1, r4, r0
.Ltmp531:
	.loc	2 2229 14                       @ ../das_subg_thread/das_dlms_cmd.c:2229:14
	mov	r0, r6
	movs	r2, #12
	bl	__aeabi_memcpy
.Ltmp532:
	@DEBUG_VALUE: udf_Meter_Process:i <- [DW_OP_plus_uconst 1, DW_OP_stack_value] undef
	.loc	2 2231 6                        @ ../das_subg_thread/das_dlms_cmd.c:2231:6
	movw	r0, :lower16:tpc_dk
	.loc	2 2231 59 is_stmt 0             @ ../das_subg_thread/das_dlms_cmd.c:2231:59
	adds	r2, r4, r7
	.loc	2 2231 6                        @ ../das_subg_thread/das_dlms_cmd.c:2231:6
	movt	r0, :upper16:tpc_dk
	mov	r1, r9
	mov	r3, r6
	str.w	r8, [sp]
	str	r5, [sp, #4]
	b	.LBB8_104
.Ltmp533:
.LBB8_96:
	@DEBUG_VALUE: udf_Meter_Process:ex_byte <- 0
	@DEBUG_VALUE: udf_Meter_Process:ct_len <- 0
	@DEBUG_VALUE: udf_Meter_Process:EN_done <- 0
	@DEBUG_VALUE: udf_Meter_received_task:aBuf <- [DW_OP_LLVM_entry_value 1] $r0
	@DEBUG_VALUE: udf_Meter_Process:Res_type <- undef
	.loc	2 1865 3 is_stmt 1              @ ../das_subg_thread/das_dlms_cmd.c:1865:3
	movw	r1, :lower16:.L.str.15
	add.w	r5, sp, #1056
	movt	r1, :upper16:.L.str.15
	mov	r0, r5
	movs	r2, #99
	bl	__2sprintf
.Ltmp534:
	.loc	2 1866 3                        @ ../das_subg_thread/das_dlms_cmd.c:1866:3
	mov	r0, r5
	bl	__2printf
.Ltmp535:
	.loc	2 2329 5                        @ ../das_subg_thread/das_dlms_cmd.c:2329:5
	adr	r0, .LCPI8_2
	bl	__2printf
.Ltmp536:
	.loc	2 2339 24                       @ ../das_subg_thread/das_dlms_cmd.c:2339:24
	ldrb	r1, [r4, #12]
	movs	r0, #0
.Ltmp537:
	.loc	2 2339 9 is_stmt 0              @ ../das_subg_thread/das_dlms_cmd.c:2339:9
	cmp	r1, #128
	it	hi
	andhi	r0, r1, #15
.Ltmp538:
	@DEBUG_VALUE: udf_Meter_Process:ex_byte <- undef
	.loc	2 2344 9 is_stmt 1              @ ../das_subg_thread/das_dlms_cmd.c:2344:9
	cmp	r0, #2
	bne	.LBB8_105
.Ltmp539:
@ %bb.97:
	@DEBUG_VALUE: udf_Meter_Process:ct_len <- 0
	@DEBUG_VALUE: udf_Meter_Process:EN_done <- 0
	@DEBUG_VALUE: udf_Meter_received_task:aBuf <- [DW_OP_LLVM_entry_value 1] $r0
	.loc	2 2345 45                       @ ../das_subg_thread/das_dlms_cmd.c:2345:45
	ldrh.w	r1, [r4, #13]
	rev	r1, r1
	lsrs	r1, r1, #16
.Ltmp540:
	@DEBUG_VALUE: udf_Meter_Process:ct_len <- [DW_OP_constu 17, DW_OP_minus, DW_OP_stack_value] $r1
	.loc	2 0 45 is_stmt 0                @ ../das_subg_thread/das_dlms_cmd.c:0:45
	b	.LBB8_106
.Ltmp541:
.LBB8_98:
	@DEBUG_VALUE: udf_Meter_Process:ct_len <- 0
	@DEBUG_VALUE: udf_Meter_Process:EN_done <- 0
	@DEBUG_VALUE: udf_Meter_received_task:aBuf <- [DW_OP_LLVM_entry_value 1] $r0
	.loc	2 2244 28 is_stmt 1             @ ../das_subg_thread/das_dlms_cmd.c:2244:28
	adds	r1, r0, r4
	.loc	2 2244 15 is_stmt 0             @ ../das_subg_thread/das_dlms_cmd.c:2244:15
	ldrb	r1, [r1, #12]
.Ltmp542:
	@DEBUG_VALUE: udf_Meter_Process:ct_len <- [DW_OP_constu 17, DW_OP_minus, DW_OP_stack_value] undef
.LBB8_99:
	@DEBUG_VALUE: udf_Meter_Process:EN_done <- 0
	@DEBUG_VALUE: udf_Meter_received_task:aBuf <- [DW_OP_LLVM_entry_value 1] $r0
	@DEBUG_VALUE: udf_Meter_Process:i <- 0
	.loc	2 0 15                          @ ../das_subg_thread/das_dlms_cmd.c:0:15
	adds	r2, r0, r4
	subs	r1, #17
.Ltmp543:
	@DEBUG_VALUE: udf_Meter_Process:i <- 0
	.loc	2 2248 20 is_stmt 1             @ ../das_subg_thread/das_dlms_cmd.c:2248:20
	ldr.w	r2, [r2, #14]
	movw	r8, :lower16:tpc_s_iv
	uxth	r7, r1
.Ltmp544:
	.loc	2 2251 5                        @ ../das_subg_thread/das_dlms_cmd.c:2251:5
	add.w	r5, r0, #18
.Ltmp545:
	.loc	2 2248 20                       @ ../das_subg_thread/das_dlms_cmd.c:2248:20
	movt	r8, :upper16:tpc_s_iv
.Ltmp546:
	.loc	2 2251 5                        @ ../das_subg_thread/das_dlms_cmd.c:2251:5
	adds	r0, r5, r7
	addw	r6, sp, #1044
.Ltmp547:
	.loc	2 2248 20                       @ ../das_subg_thread/das_dlms_cmd.c:2248:20
	str.w	r2, [r8, #8]
.Ltmp548:
	@DEBUG_VALUE: udf_Meter_Process:i <- [DW_OP_plus_uconst 1, DW_OP_stack_value] undef
	.loc	2 2251 5                        @ ../das_subg_thread/das_dlms_cmd.c:2251:5
	adds	r1, r4, r0
.Ltmp549:
	.loc	2 2252 13                       @ ../das_subg_thread/das_dlms_cmd.c:2252:13
	mov	r0, r6
	movs	r2, #12
	bl	__aeabi_memcpy
.Ltmp550:
	@DEBUG_VALUE: udf_Meter_Process:i <- [DW_OP_plus_uconst 1, DW_OP_stack_value] undef
	.loc	2 2254 5                        @ ../das_subg_thread/das_dlms_cmd.c:2254:5
	add	r0, sp, #20
	str	r0, [sp]
	movw	r0, :lower16:tpc_dk
	.loc	2 2254 56 is_stmt 0             @ ../das_subg_thread/das_dlms_cmd.c:2254:56
	adds	r2, r4, r5
	.loc	2 2254 5                        @ ../das_subg_thread/das_dlms_cmd.c:2254:5
	movt	r0, :upper16:tpc_dk
	mov	r1, r8
	mov	r3, r6
	str	r7, [sp, #4]
	bl	udf_AES_GCM_Decrypt
.Ltmp551:
	.loc	2 2255 14 is_stmt 1             @ ../das_subg_thread/das_dlms_cmd.c:2255:14
	movw	r0, :lower16:SETACTION
	movt	r0, :upper16:SETACTION
	ldrb	r1, [r0]
	adds	r1, #1
	b	.LBB8_59
.Ltmp552:
.LBB8_100:
	@DEBUG_VALUE: udf_Meter_Process:ex_byte <- 0
	@DEBUG_VALUE: udf_Meter_Process:ct_len <- 0
	@DEBUG_VALUE: udf_Meter_Process:EN_done <- 0
	@DEBUG_VALUE: udf_Meter_received_task:aBuf <- [DW_OP_LLVM_entry_value 1] $r0
	.loc	2 416 3                         @ ../das_subg_thread/das_dlms_cmd.c:416:3
	adr	r0, .LCPI8_1
	bl	__2printf
.Ltmp553:
	.loc	2 0 3 is_stmt 0                 @ ../das_subg_thread/das_dlms_cmd.c:0:3
	movs	r0, #1
.Ltmp554:
	@DEBUG_VALUE: ACK_function:num <- 1
	.loc	2 365 14 is_stmt 1              @ ../das_subg_thread/das_dlms_cmd.c:365:14
	strb.w	r0, [sp, #1328]
	add.w	r2, sp, #1328
	.loc	2 366 2                         @ ../das_subg_thread/das_dlms_cmd.c:366:2
	movs	r0, #0
	movs	r1, #17
	movs	r3, #1
	bl	udf_Rafael_data
.Ltmp555:
	.loc	2 0 2 is_stmt 0                 @ ../das_subg_thread/das_dlms_cmd.c:0:2
	movs	r2, #33
	b	.LBB8_61
.Ltmp556:
.LBB8_101:
	@DEBUG_VALUE: udf_Meter_Process:ex_byte <- 0
	@DEBUG_VALUE: udf_Meter_Process:ct_len <- 0
	@DEBUG_VALUE: udf_Meter_Process:EN_done <- 0
	@DEBUG_VALUE: udf_Meter_received_task:aBuf <- [DW_OP_LLVM_entry_value 1] $r0
	.loc	2 1865 3 is_stmt 1              @ ../das_subg_thread/das_dlms_cmd.c:1865:3
	movw	r1, :lower16:.L.str.15
	add.w	r5, sp, #1056
	movs	r2, #0
	movt	r1, :upper16:.L.str.15
	mov	r0, r5
.Ltmp557:
	.loc	2 421 10                        @ ../das_subg_thread/das_dlms_cmd.c:421:10
	cmp	r6, #202
	it	eq
	moveq	r2, #12
.Ltmp558:
	@DEBUG_VALUE: udf_Meter_Process:Res_type <- $r2
	.loc	2 1865 3                        @ ../das_subg_thread/das_dlms_cmd.c:1865:3
	bl	__2sprintf
.Ltmp559:
	.loc	2 1866 3                        @ ../das_subg_thread/das_dlms_cmd.c:1866:3
	mov	r0, r5
	bl	__2printf
.Ltmp560:
	.loc	2 1868 4                        @ ../das_subg_thread/das_dlms_cmd.c:1868:4
	cmp	r6, #202
	bne.w	.LBB8_12
.Ltmp561:
@ %bb.102:
	@DEBUG_VALUE: udf_Meter_Process:ex_byte <- 0
	@DEBUG_VALUE: udf_Meter_Process:ct_len <- 0
	@DEBUG_VALUE: udf_Meter_Process:EN_done <- 0
	@DEBUG_VALUE: udf_Meter_received_task:aBuf <- [DW_OP_LLVM_entry_value 1] $r0
	.loc	2 0 4 is_stmt 0                 @ ../das_subg_thread/das_dlms_cmd.c:0:4
	ldrb	r0, [r4, #3]
	.loc	2 1868 4                        @ ../das_subg_thread/das_dlms_cmd.c:1868:4
	cmp	r0, #39
	bne.w	.LBB8_12
.Ltmp562:
@ %bb.103:
	@DEBUG_VALUE: udf_Meter_Process:ex_byte <- 0
	@DEBUG_VALUE: udf_Meter_Process:ct_len <- 0
	@DEBUG_VALUE: udf_Meter_Process:EN_done <- 0
	@DEBUG_VALUE: udf_Meter_received_task:aBuf <- [DW_OP_LLVM_entry_value 1] $r0
	.loc	2 2405 23 is_stmt 1             @ ../das_subg_thread/das_dlms_cmd.c:2405:23
	ldr.w	r0, [r4, #14]
	movw	r5, :lower16:tpc_s_iv_h
	movt	r5, :upper16:tpc_s_iv_h
	addw	r6, sp, #1044
	str	r0, [r5, #8]
.Ltmp563:
	@DEBUG_VALUE: udf_Meter_Process:i <- [DW_OP_plus_uconst 1, DW_OP_stack_value] undef
	.loc	2 2409 14                       @ ../das_subg_thread/das_dlms_cmd.c:2409:14
	add.w	r1, r4, #45
	mov	r0, r6
	movs	r2, #12
	bl	__aeabi_memcpy
.Ltmp564:
	.loc	2 2410 6                        @ ../das_subg_thread/das_dlms_cmd.c:2410:6
	adr	r0, .LCPI8_0
	bl	puts
.Ltmp565:
	.loc	2 2411 24                       @ ../das_subg_thread/das_dlms_cmd.c:2411:24
	movw	r0, :lower16:Event_Notification
	movt	r0, :upper16:Event_Notification
	movs	r1, #1
	str	r1, [r0]
	.loc	2 2413 6                        @ ../das_subg_thread/das_dlms_cmd.c:2413:6
	movw	r0, :lower16:tpc_guk
	.loc	2 2412 14                       @ ../das_subg_thread/das_dlms_cmd.c:2412:14
	strb.w	r1, [r9]
	movs	r7, #27
	.loc	2 2413 6                        @ ../das_subg_thread/das_dlms_cmd.c:2413:6
	add.w	r2, r4, #18
	movt	r0, :upper16:tpc_guk
	mov	r1, r5
	mov	r3, r6
	str.w	r8, [sp]
	str	r7, [sp, #4]
.Ltmp566:
.LBB8_104:
	@DEBUG_VALUE: udf_Meter_Process:EN_done <- 0
	@DEBUG_VALUE: udf_Meter_received_task:aBuf <- [DW_OP_LLVM_entry_value 1] $r0
	.loc	2 0 0 is_stmt 0                 @ ../das_subg_thread/das_dlms_cmd.c:0:0
	bl	udf_AES_GCM_Decrypt
.Ltmp567:
	b.w	.LBB8_12
.Ltmp568:
.LBB8_105:
	@DEBUG_VALUE: udf_Meter_Process:ct_len <- 0
	@DEBUG_VALUE: udf_Meter_Process:EN_done <- 0
	@DEBUG_VALUE: udf_Meter_received_task:aBuf <- [DW_OP_LLVM_entry_value 1] $r0
	.loc	2 2347 28 is_stmt 1             @ ../das_subg_thread/das_dlms_cmd.c:2347:28
	adds	r1, r0, r4
	.loc	2 2347 15 is_stmt 0             @ ../das_subg_thread/das_dlms_cmd.c:2347:15
	ldrb	r1, [r1, #12]
.Ltmp569:
	@DEBUG_VALUE: udf_Meter_Process:ct_len <- [DW_OP_constu 17, DW_OP_minus, DW_OP_stack_value] undef
.LBB8_106:
	@DEBUG_VALUE: udf_Meter_Process:EN_done <- 0
	@DEBUG_VALUE: udf_Meter_received_task:aBuf <- [DW_OP_LLVM_entry_value 1] $r0
	@DEBUG_VALUE: udf_Meter_Process:i <- 0
	.loc	2 0 15                          @ ../das_subg_thread/das_dlms_cmd.c:0:15
	adds	r2, r0, r4
	subs	r1, #17
.Ltmp570:
	@DEBUG_VALUE: udf_Meter_Process:i <- 0
	.loc	2 2351 20 is_stmt 1             @ ../das_subg_thread/das_dlms_cmd.c:2351:20
	ldr.w	r2, [r2, #14]
	movw	r8, :lower16:tpc_s_iv
	uxth	r7, r1
.Ltmp571:
	.loc	2 2354 5                        @ ../das_subg_thread/das_dlms_cmd.c:2354:5
	add.w	r5, r0, #18
.Ltmp572:
	.loc	2 2351 20                       @ ../das_subg_thread/das_dlms_cmd.c:2351:20
	movt	r8, :upper16:tpc_s_iv
.Ltmp573:
	.loc	2 2354 5                        @ ../das_subg_thread/das_dlms_cmd.c:2354:5
	adds	r0, r5, r7
	addw	r6, sp, #1044
.Ltmp574:
	.loc	2 2351 20                       @ ../das_subg_thread/das_dlms_cmd.c:2351:20
	str.w	r2, [r8, #8]
.Ltmp575:
	@DEBUG_VALUE: udf_Meter_Process:i <- [DW_OP_plus_uconst 1, DW_OP_stack_value] undef
	.loc	2 2354 5                        @ ../das_subg_thread/das_dlms_cmd.c:2354:5
	adds	r1, r4, r0
.Ltmp576:
	.loc	2 2355 13                       @ ../das_subg_thread/das_dlms_cmd.c:2355:13
	mov	r0, r6
	movs	r2, #12
	bl	__aeabi_memcpy
.Ltmp577:
	@DEBUG_VALUE: udf_Meter_Process:i <- [DW_OP_plus_uconst 1, DW_OP_stack_value] undef
	.loc	2 2357 5                        @ ../das_subg_thread/das_dlms_cmd.c:2357:5
	add	r0, sp, #20
	str	r0, [sp]
	movw	r0, :lower16:tpc_dk
	.loc	2 2357 56 is_stmt 0             @ ../das_subg_thread/das_dlms_cmd.c:2357:56
	adds	r2, r4, r5
	.loc	2 2357 5                        @ ../das_subg_thread/das_dlms_cmd.c:2357:5
	movt	r0, :upper16:tpc_dk
	mov	r1, r8
	mov	r3, r6
	str	r7, [sp, #4]
	bl	udf_AES_GCM_Decrypt
.Ltmp578:
	.loc	2 2358 5 is_stmt 1              @ ../das_subg_thread/das_dlms_cmd.c:2358:5
	movs	r0, #0
	movs	r1, #19
	mov	r2, r4
	movs	r3, #0
	b.w	.LBB8_35
.Ltmp579:
.LBB8_107:
	@DEBUG_VALUE: udf_Meter_Process:ct_len <- 0
	@DEBUG_VALUE: udf_Meter_Process:EN_done <- 0
	@DEBUG_VALUE: udf_Meter_received_task:aBuf <- [DW_OP_LLVM_entry_value 1] $r0
	.loc	2 1950 28                       @ ../das_subg_thread/das_dlms_cmd.c:1950:28
	adds	r0, r7, r4
	.loc	2 1950 15 is_stmt 0             @ ../das_subg_thread/das_dlms_cmd.c:1950:15
	ldrb	r0, [r0, #12]
.Ltmp580:
	@DEBUG_VALUE: udf_Meter_Process:ct_len <- [DW_OP_constu 17, DW_OP_minus, DW_OP_stack_value] undef
.LBB8_108:
	@DEBUG_VALUE: udf_Meter_Process:EN_done <- 0
	@DEBUG_VALUE: udf_Meter_received_task:aBuf <- [DW_OP_LLVM_entry_value 1] $r0
	.loc	2 1951 8 is_stmt 1              @ ../das_subg_thread/das_dlms_cmd.c:1951:8
	ldrb	r1, [r4, #3]
.Ltmp581:
	.loc	2 0 0 is_stmt 0                 @ ../das_subg_thread/das_dlms_cmd.c:0:0
	sub.w	r5, r0, #17
.Ltmp582:
	@DEBUG_VALUE: udf_Meter_Process:ct_len <- $r5
	.loc	2 1951 8                        @ ../das_subg_thread/das_dlms_cmd.c:1951:8
	cmp	r1, #35
	bne	.LBB8_110
.Ltmp583:
@ %bb.109:
	@DEBUG_VALUE: udf_Meter_Process:ct_len <- $r5
	@DEBUG_VALUE: udf_Meter_Process:EN_done <- 0
	@DEBUG_VALUE: udf_Meter_received_task:aBuf <- [DW_OP_LLVM_entry_value 1] $r0
	@DEBUG_VALUE: udf_Meter_Process:i <- 0
	.loc	2 0 8                           @ ../das_subg_thread/das_dlms_cmd.c:0:8
	adds	r0, r7, r4
.Ltmp584:
	.loc	2 1955 21 is_stmt 1             @ ../das_subg_thread/das_dlms_cmd.c:1955:21
	ldr.w	r0, [r0, #14]
	movw	r10, :lower16:tpc_s_iv
	movt	r10, :upper16:tpc_s_iv
	uxth	r6, r5
	str.w	r0, [r10, #8]
.Ltmp585:
	.loc	2 1958 6                        @ ../das_subg_thread/das_dlms_cmd.c:1958:6
	adds	r0, r7, r6
	add	r0, r4
	addw	r8, sp, #1044
	add.w	r1, r0, #18
.Ltmp586:
	.loc	2 1959 14                       @ ../das_subg_thread/das_dlms_cmd.c:1959:14
	mov	r0, r8
	movs	r2, #12
	bl	__aeabi_memcpy
.Ltmp587:
	@DEBUG_VALUE: udf_Meter_Process:i <- [DW_OP_plus_uconst 1, DW_OP_stack_value] undef
	.loc	2 1961 6                        @ ../das_subg_thread/das_dlms_cmd.c:1961:6
	movw	r0, :lower16:tpc_guk
	str	r6, [sp, #4]
	add.w	r2, r4, #18
	movt	r0, :upper16:tpc_guk
	mov	r1, r10
	mov	r3, r8
	add	r6, sp, #20
	str	r6, [sp]
	bl	udf_AES_GCM_Decrypt
.Ltmp588:
	.loc	2 2064 8                        @ ../das_subg_thread/das_dlms_cmd.c:2064:8
	ldrb	r1, [r4, #3]
.Ltmp589:
.LBB8_110:
	@DEBUG_VALUE: udf_Meter_Process:ct_len <- $r5
	@DEBUG_VALUE: udf_Meter_Process:EN_done <- 0
	@DEBUG_VALUE: udf_Meter_received_task:aBuf <- [DW_OP_LLVM_entry_value 1] $r0
	.loc	2 2064 8 is_stmt 0              @ ../das_subg_thread/das_dlms_cmd.c:2064:8
	cmp	r1, #39
	bne	.LBB8_112
.Ltmp590:
@ %bb.111:
	@DEBUG_VALUE: udf_Meter_Process:ct_len <- $r5
	@DEBUG_VALUE: udf_Meter_Process:EN_done <- 0
	@DEBUG_VALUE: udf_Meter_received_task:aBuf <- [DW_OP_LLVM_entry_value 1] $r0
	@DEBUG_VALUE: udf_Meter_Process:i <- 0
	.loc	2 0 8                           @ ../das_subg_thread/das_dlms_cmd.c:0:8
	adds	r0, r7, r4
.Ltmp591:
	.loc	2 2068 23 is_stmt 1             @ ../das_subg_thread/das_dlms_cmd.c:2068:23
	ldr.w	r0, [r0, #14]
	movw	r10, :lower16:tpc_s_iv_h
	movt	r10, :upper16:tpc_s_iv_h
	uxth	r5, r5
.Ltmp592:
	str.w	r0, [r10, #8]
.Ltmp593:
	.loc	2 2071 6                        @ ../das_subg_thread/das_dlms_cmd.c:2071:6
	adds	r0, r7, r5
	add	r0, r4
	addw	r6, sp, #1044
	add.w	r1, r0, #18
.Ltmp594:
	.loc	2 2072 14                       @ ../das_subg_thread/das_dlms_cmd.c:2072:14
	mov	r0, r6
	movs	r2, #12
	bl	__aeabi_memcpy
.Ltmp595:
	@DEBUG_VALUE: udf_Meter_Process:i <- [DW_OP_plus_uconst 1, DW_OP_stack_value] undef
	.loc	2 2074 6                        @ ../das_subg_thread/das_dlms_cmd.c:2074:6
	add	r0, sp, #20
	str	r0, [sp]
	movw	r0, :lower16:tpc_guk
	add.w	r2, r4, #18
	movt	r0, :upper16:tpc_guk
	mov	r1, r10
	mov	r3, r6
	str	r5, [sp, #4]
	bl	udf_AES_GCM_Decrypt
.Ltmp596:
.LBB8_112:
	@DEBUG_VALUE: udf_Meter_Process:EN_done <- 0
	@DEBUG_VALUE: udf_Meter_received_task:aBuf <- [DW_OP_LLVM_entry_value 1] $r0
	.loc	2 2076 12                       @ ../das_subg_thread/das_dlms_cmd.c:2076:12
	movw	r1, :lower16:MC_done
	movs	r0, #1
	movt	r1, :upper16:MC_done
	strb	r0, [r1]
	b.w	.LBB8_12
.Ltmp597:
	.p2align	2
@ %bb.113:
	.loc	2 0 12 is_stmt 0                @ ../das_subg_thread/das_dlms_cmd.c:0:12
.LCPI8_0:
.Lstr.76:
	.asciz	"\r\nGET Event Notification\r\000\000"
.LCPI8_1:
.L.str.51:
	.asciz	"=====WTF======\n\r\000\000\000"
.LCPI8_2:
.L.str.37:
	.asciz	"GET Action_res\n\r\000\000\000"
.LCPI8_3:
.L.str.23:
	.asciz	"Send_Meter_Res\n\r\000\000\000"
.LCPI8_4:
.L.str.61:
	.asciz	"Send_buff= "
.LCPI8_5:
.L.str.19:
	.asciz	"Meter_AARE_V\n\r\000"
.LCPI8_6:
.L.str.18:
	.asciz	"Meter_AARE_H\n\r\000"
.LCPI8_7:
.L.str.56:
	.asciz	"\nHAN_Clinet\n\r\000\000"
.LCPI8_8:
.L.str.16:
	.asciz	"Meter_UA\n\r\000"
.Lfunc_end8:
	.size	udf_Meter_received_task, .Lfunc_end8-udf_Meter_received_task
	.cfi_endproc
	.cantunwind
	.fnend
                                        @ -- End function
	.section	.text.udf_AES_GCM_Decrypt,"ax",%progbits
	.p2align	1                               @ -- Begin function udf_AES_GCM_Decrypt
	.type	udf_AES_GCM_Decrypt,%function
	.code	16                              @ @udf_AES_GCM_Decrypt
	.thumb_func
udf_AES_GCM_Decrypt:
.Lfunc_begin9:
	.loc	2 277 0 is_stmt 1               @ ../das_subg_thread/das_dlms_cmd.c:277:0
	.fnstart
	.cfi_startproc
@ %bb.0:
	@DEBUG_VALUE: udf_AES_GCM_Decrypt:gcm_ek <- $r0
	@DEBUG_VALUE: udf_AES_GCM_Decrypt:gcm_iv <- $r1
	@DEBUG_VALUE: udf_AES_GCM_Decrypt:gcm_ct <- $r2
	@DEBUG_VALUE: udf_AES_GCM_Decrypt:gcm_tag <- $r3
	.save	{r4, r5, r6, r7, r8, r9, r10, lr}
	push.w	{r4, r5, r6, r7, r8, r9, r10, lr}
	.cfi_def_cfa_offset 32
	.cfi_offset lr, -4
	.cfi_offset r10, -8
	.cfi_offset r9, -12
	.cfi_offset r8, -16
	.cfi_offset r7, -20
	.cfi_offset r6, -24
	.cfi_offset r5, -28
	.cfi_offset r4, -32
	.pad	#424
	sub	sp, #424
	.cfi_def_cfa_offset 456
	add	r6, sp, #32
	ldrd	r10, r8, [sp, #456]
	@DEBUG_VALUE: udf_AES_GCM_Decrypt:gcm_ctlen <- undef
	mov	r4, r0
.Ltmp598:
	@DEBUG_VALUE: udf_AES_GCM_Decrypt:gcm_ek <- $r4
	@DEBUG_VALUE: udf_AES_GCM_Decrypt:gcm_aadlen <- 17
	@DEBUG_VALUE: udf_AES_GCM_Decrypt:gcm_pt <- [DW_OP_plus_uconst 456] [$sp+0]
	@DEBUG_VALUE: udf_AES_GCM_Decrypt:gcm_tag <- $r9
	@DEBUG_VALUE: udf_AES_GCM_Decrypt:gcm_ct <- $r7
	@DEBUG_VALUE: udf_AES_GCM_Decrypt:gcm_iv <- $r5
	@DEBUG_VALUE: udf_AES_GCM_Decrypt:gcm_ek <- $r4
	.loc	2 279 2 prologue_end            @ ../das_subg_thread/das_dlms_cmd.c:279:2
	mov	r0, r6
	mov	r9, r3
.Ltmp599:
	.loc	2 0 2 is_stmt 0                 @ ../das_subg_thread/das_dlms_cmd.c:0:2
	mov	r7, r2
.Ltmp600:
	mov	r5, r1
.Ltmp601:
	.loc	2 279 2                         @ ../das_subg_thread/das_dlms_cmd.c:279:2
	bl	mbedtls_gcm_init
.Ltmp602:
	@DEBUG_VALUE: udf_AES_GCM_Decrypt:cipher <- 2
	@DEBUG_VALUE: udf_AES_GCM_Decrypt:ret <- 0
	.loc	2 283 8 is_stmt 1               @ ../das_subg_thread/das_dlms_cmd.c:283:8
	mov	r0, r6
	movs	r1, #2
	mov	r2, r4
.Ltmp603:
	@DEBUG_VALUE: udf_AES_GCM_Decrypt:gcm_ek <- $r2
	movs	r3, #128
	bl	mbedtls_gcm_setkey
.Ltmp604:
	@DEBUG_VALUE: udf_AES_GCM_Decrypt:ret <- undef
	.loc	2 285 8                         @ ../das_subg_thread/das_dlms_cmd.c:285:8
	movw	r2, :lower16:tpc_gcm_ak
	movs	r0, #12
	movt	r2, :upper16:tpc_gcm_ak
.Ltmp605:
	@DEBUG_VALUE: udf_AES_GCM_Decrypt:gcm_aad <- $r2
	.loc	2 0 8 is_stmt 0                 @ ../das_subg_thread/das_dlms_cmd.c:0:8
	movs	r1, #17
	.loc	2 285 8                         @ ../das_subg_thread/das_dlms_cmd.c:285:8
	strd	r0, r2, [sp]
	add	r2, sp, #8
.Ltmp606:
	stm.w	r2, {r1, r7, r10}
	str	r0, [sp, #20]
	mov	r0, r6
	movs	r1, #0
	mov	r2, r8
	mov	r3, r5
.Ltmp607:
	@DEBUG_VALUE: udf_AES_GCM_Decrypt:gcm_iv <- $r3
	str.w	r9, [sp, #24]
	bl	mbedtls_gcm_crypt_and_tag
.Ltmp608:
	mov	r4, r0
.Ltmp609:
	@DEBUG_VALUE: udf_AES_GCM_Decrypt:ret <- $r4
	.loc	2 291 2 is_stmt 1               @ ../das_subg_thread/das_dlms_cmd.c:291:2
	mov	r0, r6
	bl	mbedtls_gcm_free
.Ltmp610:
	.loc	2 292 2                         @ ../das_subg_thread/das_dlms_cmd.c:292:2
	mov	r0, r4
	add	sp, #424
	pop.w	{r4, r5, r6, r7, r8, r9, r10, pc}
.Ltmp611:
.Lfunc_end9:
	.size	udf_AES_GCM_Decrypt, .Lfunc_end9-udf_AES_GCM_Decrypt
	.cfi_endproc
	.cantunwind
	.fnend
                                        @ -- End function
	.section	.text.udf_Send_AARQ,"ax",%progbits
	.p2align	2                               @ -- Begin function udf_Send_AARQ
	.type	udf_Send_AARQ,%function
	.code	16                              @ @udf_Send_AARQ
	.thumb_func
udf_Send_AARQ:
.Lfunc_begin10:
	.loc	2 435 0                         @ ../das_subg_thread/das_dlms_cmd.c:435:0
	.fnstart
	.cfi_startproc
@ %bb.0:
	@DEBUG_VALUE: udf_Send_AARQ:type <- $r0
	.save	{r4, r5, r6, r7, lr}
	push	{r4, r5, r6, r7, lr}
	.cfi_def_cfa_offset 20
	.cfi_offset lr, -4
	.cfi_offset r7, -8
	.cfi_offset r6, -12
	.cfi_offset r5, -16
	.cfi_offset r4, -20
	.pad	#476
	sub	sp, #476
	.cfi_def_cfa_offset 496
.Ltmp612:
	.loc	2 436 16 prologue_end           @ ../das_subg_thread/das_dlms_cmd.c:436:16
	movw	r1, :lower16:.L__const.udf_Send_AARQ.cmdbuf
	add	r4, sp, #356
	mov	r5, r0
.Ltmp613:
	@DEBUG_VALUE: udf_Send_AARQ:type <- $r5
	@DEBUG_VALUE: udf_Send_AARQ:type <- $r5
	movt	r1, :upper16:.L__const.udf_Send_AARQ.cmdbuf
	mov	r0, r4
	movs	r2, #118
	bl	__aeabi_memcpy4
.Ltmp614:
	.loc	2 452 16                        @ ../das_subg_thread/das_dlms_cmd.c:452:16
	movw	r1, :lower16:.L__const.udf_Send_AARQ.no_en_aarq
	add	r6, sp, #288
	movt	r1, :upper16:.L__const.udf_Send_AARQ.no_en_aarq
	mov	r0, r6
	movs	r2, #66
	bl	__aeabi_memcpy4
.Ltmp615:
	.loc	2 467 5                         @ ../das_subg_thread/das_dlms_cmd.c:467:5
	cmp	r5, #1
	bne	.LBB10_4
.Ltmp616:
@ %bb.1:
	@DEBUG_VALUE: udf_Send_AARQ:type <- $r5
	.loc	2 469 3                         @ ../das_subg_thread/das_dlms_cmd.c:469:3
	adr	r0, .LCPI10_2
	bl	puts
.Ltmp617:
	.loc	2 471 32                        @ ../das_subg_thread/das_dlms_cmd.c:471:32
	adds	r4, r6, #1
	.loc	2 471 11 is_stmt 0              @ ../das_subg_thread/das_dlms_cmd.c:471:11
	mov	r0, r4
	movs	r1, #5
	bl	CRC_COMPUTE
.Ltmp618:
	@DEBUG_VALUE: udf_Send_AARQ:crc16 <- undef
	.loc	2 473 17 is_stmt 1              @ ../das_subg_thread/das_dlms_cmd.c:473:17
	strh.w	r0, [sp, #294]
	.loc	2 474 11                        @ ../das_subg_thread/das_dlms_cmd.c:474:11
	mov	r0, r4
	movs	r1, #62
	bl	CRC_COMPUTE
.Ltmp619:
	@DEBUG_VALUE: udf_Send_AARQ:crc16 <- undef
	.loc	2 479 4                         @ ../das_subg_thread/das_dlms_cmd.c:479:4
	movw	r4, :lower16:.L.str.4
	movt	r4, :upper16:.L.str.4
	add	r5, sp, #160
.Ltmp620:
	@DEBUG_VALUE: udf_Send_AARQ:type <- [DW_OP_LLVM_entry_value 1] $r0
	.loc	2 476 36                        @ ../das_subg_thread/das_dlms_cmd.c:476:36
	strh.w	r0, [sp, #351]
.Ltmp621:
	@DEBUG_VALUE: udf_Send_AARQ:i <- 0
	.loc	2 479 4                         @ ../das_subg_thread/das_dlms_cmd.c:479:4
	mov	r0, r5
	mov	r1, r4
	movs	r2, #126
	bl	__2sprintf
.Ltmp622:
	.loc	2 480 4                         @ ../das_subg_thread/das_dlms_cmd.c:480:4
	mov	r0, r5
	bl	__2printf
.Ltmp623:
	.loc	2 0 4 is_stmt 0                 @ ../das_subg_thread/das_dlms_cmd.c:0:4
	movs	r7, #1
.Ltmp624:
	@DEBUG_VALUE: udf_Send_AARQ:i <- 1
	.p2align	2
.LBB10_2:                               @ =>This Inner Loop Header: Depth=1
	@DEBUG_VALUE: udf_Send_AARQ:type <- [DW_OP_LLVM_entry_value 1] $r0
	.loc	2 479 29 is_stmt 1              @ ../das_subg_thread/das_dlms_cmd.c:479:29
	ldrb	r2, [r6, r7]
.Ltmp625:
	@DEBUG_VALUE: udf_Send_AARQ:i <- $r7
	.loc	2 479 4 is_stmt 0               @ ../das_subg_thread/das_dlms_cmd.c:479:4
	mov	r0, r5
	mov	r1, r4
	bl	__2sprintf
.Ltmp626:
	.loc	2 480 4 is_stmt 1               @ ../das_subg_thread/das_dlms_cmd.c:480:4
	mov	r0, r5
	bl	__2printf
.Ltmp627:
	.loc	2 477 36                        @ ../das_subg_thread/das_dlms_cmd.c:477:36
	adds	r7, #1
.Ltmp628:
	@DEBUG_VALUE: udf_Send_AARQ:i <- $r7
	.loc	2 477 3 is_stmt 0               @ ../das_subg_thread/das_dlms_cmd.c:477:3
	cmp	r7, #66
	bne	.LBB10_2
.Ltmp629:
@ %bb.3:
	@DEBUG_VALUE: udf_Send_AARQ:i <- $r7
	@DEBUG_VALUE: udf_Send_AARQ:type <- [DW_OP_LLVM_entry_value 1] $r0
	.loc	2 483 3 is_stmt 1               @ ../das_subg_thread/das_dlms_cmd.c:483:3
	movw	r0, :lower16:.L.str.5
	movt	r0, :upper16:.L.str.5
	bl	__2printf
.Ltmp630:
	.loc	2 0 3 is_stmt 0                 @ ../das_subg_thread/das_dlms_cmd.c:0:3
	add	r1, sp, #288
	.loc	2 484 3 is_stmt 1               @ ../das_subg_thread/das_dlms_cmd.c:484:3
	movs	r0, #1
	movs	r2, #66
	b	.LBB10_19
.Ltmp631:
.LBB10_4:
	@DEBUG_VALUE: udf_Send_AARQ:type <- $r5
	.loc	2 488 6                         @ ../das_subg_thread/das_dlms_cmd.c:488:6
	cmp	r5, #2
	bne	.LBB10_6
.Ltmp632:
@ %bb.5:
	@DEBUG_VALUE: udf_Send_AARQ:type <- $r5
	.loc	2 490 4                         @ ../das_subg_thread/das_dlms_cmd.c:490:4
	adr	r0, .LCPI10_1
	bl	puts
.Ltmp633:
	.loc	2 0 4 is_stmt 0                 @ ../das_subg_thread/das_dlms_cmd.c:0:4
	movs	r0, #35
	movs	r1, #4
	b	.LBB10_8
.Ltmp634:
.LBB10_6:
	@DEBUG_VALUE: udf_Send_AARQ:type <- $r5
	.loc	2 493 11 is_stmt 1              @ ../das_subg_thread/das_dlms_cmd.c:493:11
	cmp	r5, #4
	bne	.LBB10_9
.Ltmp635:
@ %bb.7:
	@DEBUG_VALUE: udf_Send_AARQ:type <- $r5
	.loc	2 495 4                         @ ../das_subg_thread/das_dlms_cmd.c:495:4
	adr	r0, .LCPI10_0
	bl	__2printf
.Ltmp636:
	.loc	2 0 4 is_stmt 0                 @ ../das_subg_thread/das_dlms_cmd.c:0:4
	movs	r0, #39
	.loc	2 496 14 is_stmt 1              @ ../das_subg_thread/das_dlms_cmd.c:496:14
	strb.w	r0, [sp, #360]
	movw	r0, #16712
	movt	r0, #334
	.loc	2 497 15                        @ ../das_subg_thread/das_dlms_cmd.c:497:15
	str	r0, [sp, #384]
	movw	r0, #43041
	movt	r0, #652
	.loc	2 501 15                        @ ../das_subg_thread/das_dlms_cmd.c:501:15
	str	r0, [sp, #388]
	movw	r0, #13450
	movt	r0, #8822
	.loc	2 506 15                        @ ../das_subg_thread/das_dlms_cmd.c:506:15
	str.w	r0, [sp, #409]
	movw	r0, #23862
	.loc	2 510 15                        @ ../das_subg_thread/das_dlms_cmd.c:510:15
	strh.w	r0, [sp, #413]
	movs	r0, #176
	.loc	2 512 15                        @ ../das_subg_thread/das_dlms_cmd.c:512:15
	strb.w	r0, [sp, #415]
	movs	r0, #145
	movs	r1, #60
.Ltmp637:
.LBB10_8:
	@DEBUG_VALUE: udf_Send_AARQ:type <- $r5
	.loc	2 0 0 is_stmt 0                 @ ../das_subg_thread/das_dlms_cmd.c:0:0
	strb	r0, [r4, r1]
.Ltmp638:
.LBB10_9:
	@DEBUG_VALUE: udf_Send_AARQ:type <- $r5
	.loc	2 545 36 is_stmt 1              @ ../das_subg_thread/das_dlms_cmd.c:545:36
	adds	r0, r4, #1
	.loc	2 545 15 is_stmt 0              @ ../das_subg_thread/das_dlms_cmd.c:545:15
	movs	r1, #5
	bl	CRC_COMPUTE
.Ltmp639:
	@DEBUG_VALUE: udf_Send_AARQ:CRC_check <- undef
	.loc	2 549 6 is_stmt 1               @ ../das_subg_thread/das_dlms_cmd.c:549:6
	cmp	r5, #2
	.loc	2 547 14                        @ ../das_subg_thread/das_dlms_cmd.c:547:14
	strh.w	r0, [sp, #362]
	.loc	2 549 6                         @ ../das_subg_thread/das_dlms_cmd.c:549:6
	bne	.LBB10_11
.Ltmp640:
@ %bb.10:
	@DEBUG_VALUE: udf_Send_AARQ:type <- $r5
	.loc	2 0 6 is_stmt 0                 @ ../das_subg_thread/das_dlms_cmd.c:0:6
	movw	r2, :lower16:tpc_c_iv
	movt	r2, :upper16:tpc_c_iv
	b	.LBB10_13
.Ltmp641:
.LBB10_11:
	@DEBUG_VALUE: udf_Send_AARQ:type <- $r5
	.loc	2 556 6 is_stmt 1               @ ../das_subg_thread/das_dlms_cmd.c:556:6
	cmp	r5, #4
	bne	.LBB10_14
.Ltmp642:
@ %bb.12:
	@DEBUG_VALUE: udf_Send_AARQ:type <- $r5
	.loc	2 0 6 is_stmt 0                 @ ../das_subg_thread/das_dlms_cmd.c:0:6
	movw	r2, :lower16:tpc_c_iv_h
	movt	r2, :upper16:tpc_c_iv_h
.Ltmp643:
.LBB10_13:
	@DEBUG_VALUE: udf_Send_AARQ:type <- $r5
	ldr	r1, [sp, #424]
	add.w	r0, r2, #8
	str	r1, [r0]
	movs	r0, #31
	add	r1, sp, #16
	add	r6, sp, #32
	strd	r6, r1, [sp]
	str	r0, [sp, #8]
	movw	r0, :lower16:tpc_guk
	movw	r1, :lower16:tpc_gcm_ak
	add.w	r3, r4, #72
	movs	r7, #17
	movt	r0, :upper16:tpc_guk
	movt	r1, :upper16:tpc_gcm_ak
	str	r7, [sp, #12]
	bl	udf_AES_GCM_Encrypt
.Ltmp644:
.LBB10_14:
	@DEBUG_VALUE: udf_Send_AARQ:type <- $r5
	@DEBUG_VALUE: udf_Send_AARQ:i <- 0
	.loc	2 564 17 is_stmt 1              @ ../das_subg_thread/das_dlms_cmd.c:564:17
	add	r3, sp, #32
	ldm	r3, {r0, r1, r2, r3}
	add.w	r12, sp, #428
	stm.w	r12, {r0, r1, r2, r3}
	ldrd	r0, r1, [sp, #48]
.Ltmp645:
	.loc	2 567 18                        @ ../das_subg_thread/das_dlms_cmd.c:567:18
	movs	r2, #12
.Ltmp646:
	.loc	2 564 17                        @ ../das_subg_thread/das_dlms_cmd.c:564:17
	strd	r0, r1, [sp, #444]
	ldrb.w	r0, [sp, #62]
	ldr	r1, [sp, #56]
	strb.w	r0, [sp, #458]
	ldrh.w	r0, [sp, #60]
	str	r1, [sp, #452]
	strh.w	r0, [sp, #456]
.Ltmp647:
	@DEBUG_VALUE: udf_Send_AARQ:i <- [DW_OP_plus_uconst 1, DW_OP_stack_value] undef
	.loc	2 566 3                         @ ../das_subg_thread/das_dlms_cmd.c:566:3
	add.w	r0, r4, #103
	add	r1, sp, #16
.Ltmp648:
	.loc	2 567 18                        @ ../das_subg_thread/das_dlms_cmd.c:567:18
	bl	__aeabi_memcpy
.Ltmp649:
	.loc	2 0 18 is_stmt 0                @ ../das_subg_thread/das_dlms_cmd.c:0:18
	movw	r1, :lower16:.L__const.UpdateCRC16.CRC16Table
	movw	r2, #65535
	movs	r0, #1
	movt	r1, :upper16:.L__const.UpdateCRC16.CRC16Table
.Ltmp650:
	.p2align	2
.LBB10_15:                              @ =>This Inner Loop Header: Depth=1
	@DEBUG_VALUE: udf_Send_AARQ:type <- $r5
	@DEBUG_VALUE: udf_Send_AARQ:crc16 <- $r2
	@DEBUG_VALUE: udf_Send_AARQ:i <- $r0
	.loc	2 573 7 is_stmt 1               @ ../das_subg_thread/das_dlms_cmd.c:573:7
	ldrb	r3, [r4, r0]
.Ltmp651:
	@DEBUG_VALUE: UpdateCRC16:value <- undef
	@DEBUG_VALUE: UpdateCRC16:crc <- $r2
	@DEBUG_VALUE: udf_Send_AARQ:ch <- undef
	.loc	2 571 34                        @ ../das_subg_thread/das_dlms_cmd.c:571:34
	adds	r0, #1
.Ltmp652:
	@DEBUG_VALUE: udf_Send_AARQ:i <- $r0
	.loc	2 231 46                        @ ../das_subg_thread/das_dlms_cmd.c:231:46
	eor.w	r7, r3, r2
	and	r7, r7, #15
	.loc	2 231 23 is_stmt 0              @ ../das_subg_thread/das_dlms_cmd.c:231:23
	ldrh.w	r7, [r1, r7, lsl #1]
	.loc	2 231 10                        @ ../das_subg_thread/das_dlms_cmd.c:231:10
	uxth	r2, r2
.Ltmp653:
	.loc	2 231 21                        @ ../das_subg_thread/das_dlms_cmd.c:231:21
	eor.w	r2, r7, r2, lsr #4
.Ltmp654:
	@DEBUG_VALUE: UpdateCRC16:crc <- $r2
	uxth	r7, r2
	.loc	2 232 39 is_stmt 1              @ ../das_subg_thread/das_dlms_cmd.c:232:39
	and	r2, r2, #15
.Ltmp655:
	.loc	2 232 46 is_stmt 0              @ ../das_subg_thread/das_dlms_cmd.c:232:46
	eor.w	r2, r2, r3, lsr #4
	.loc	2 232 23                        @ ../das_subg_thread/das_dlms_cmd.c:232:23
	ldrh.w	r2, [r1, r2, lsl #1]
.Ltmp656:
	.loc	2 571 3 is_stmt 1               @ ../das_subg_thread/das_dlms_cmd.c:571:3
	cmp	r0, #115
.Ltmp657:
	.loc	2 232 21                        @ ../das_subg_thread/das_dlms_cmd.c:232:21
	eor.w	r2, r2, r7, lsr #4
.Ltmp658:
	@DEBUG_VALUE: UpdateCRC16:crc <- $r2
	@DEBUG_VALUE: udf_Send_AARQ:crc16 <- $r2
	.loc	2 571 3                         @ ../das_subg_thread/das_dlms_cmd.c:571:3
	bne	.LBB10_15
.Ltmp659:
@ %bb.16:
	@DEBUG_VALUE: udf_Send_AARQ:type <- $r5
	@DEBUG_VALUE: udf_Send_AARQ:crc16 <- $r2
	@DEBUG_VALUE: udf_Send_AARQ:i <- $r0
	.loc	2 0 3 is_stmt 0                 @ ../das_subg_thread/das_dlms_cmd.c:0:3
	movw	r5, :lower16:.L.str.4
.Ltmp660:
	@DEBUG_VALUE: udf_Send_AARQ:type <- [DW_OP_LLVM_entry_value 1] $r0
	.loc	2 577 9 is_stmt 1               @ ../das_subg_thread/das_dlms_cmd.c:577:9
	mvns	r0, r2
.Ltmp661:
	@DEBUG_VALUE: udf_Send_AARQ:crc16 <- $r0
	.loc	2 0 9 is_stmt 0                 @ ../das_subg_thread/das_dlms_cmd.c:0:9
	movs	r7, #0
.Ltmp662:
	@DEBUG_VALUE: udf_Send_AARQ:i <- 0
	movt	r5, :upper16:.L.str.4
	add	r6, sp, #160
	.loc	2 579 28 is_stmt 1              @ ../das_subg_thread/das_dlms_cmd.c:579:28
	strh.w	r0, [sp, #471]
.Ltmp663:
	.p2align	2
.LBB10_17:                              @ =>This Inner Loop Header: Depth=1
	@DEBUG_VALUE: udf_Send_AARQ:type <- [DW_OP_LLVM_entry_value 1] $r0
	@DEBUG_VALUE: udf_Send_AARQ:i <- $r7
	.loc	2 583 29                        @ ../das_subg_thread/das_dlms_cmd.c:583:29
	ldrb	r2, [r4, r7]
	.loc	2 583 4 is_stmt 0               @ ../das_subg_thread/das_dlms_cmd.c:583:4
	mov	r0, r6
	mov	r1, r5
	bl	__2sprintf
.Ltmp664:
	.loc	2 584 4 is_stmt 1               @ ../das_subg_thread/das_dlms_cmd.c:584:4
	mov	r0, r6
	bl	__2printf
.Ltmp665:
	.loc	2 581 32                        @ ../das_subg_thread/das_dlms_cmd.c:581:32
	adds	r7, #1
.Ltmp666:
	@DEBUG_VALUE: udf_Send_AARQ:i <- $r7
	.loc	2 581 3 is_stmt 0               @ ../das_subg_thread/das_dlms_cmd.c:581:3
	cmp	r7, #118
	bne	.LBB10_17
.Ltmp667:
@ %bb.18:
	@DEBUG_VALUE: udf_Send_AARQ:i <- $r7
	@DEBUG_VALUE: udf_Send_AARQ:type <- [DW_OP_LLVM_entry_value 1] $r0
	.loc	2 586 3 is_stmt 1               @ ../das_subg_thread/das_dlms_cmd.c:586:3
	movw	r0, :lower16:.L.str.5
	movt	r0, :upper16:.L.str.5
	bl	__2printf
.Ltmp668:
	.loc	2 0 3 is_stmt 0                 @ ../das_subg_thread/das_dlms_cmd.c:0:3
	add	r1, sp, #356
	.loc	2 588 3 is_stmt 1               @ ../das_subg_thread/das_dlms_cmd.c:588:3
	movs	r0, #1
	movs	r2, #118
.Ltmp669:
.LBB10_19:
	@DEBUG_VALUE: udf_Send_AARQ:i <- $r7
	@DEBUG_VALUE: udf_Send_AARQ:type <- [DW_OP_LLVM_entry_value 1] $r0
	.loc	2 0 0 is_stmt 0                 @ ../das_subg_thread/das_dlms_cmd.c:0:0
	bl	app_uart_data_send
.Ltmp670:
	.loc	2 590 1 is_stmt 1               @ ../das_subg_thread/das_dlms_cmd.c:590:1
	add	sp, #476
	pop	{r4, r5, r6, r7, pc}
.Ltmp671:
	.p2align	2
@ %bb.20:
	.loc	2 0 1 is_stmt 0                 @ ../das_subg_thread/das_dlms_cmd.c:0:1
.LCPI10_0:
.L.str.54:
	.asciz	"\n\rEN_AARQ_HAN\n\r"
.LCPI10_1:
.Lstr.86:
	.asciz	"\n\rEN_AARQ_M"
.LCPI10_2:
.Lstr.87:
	.asciz	"\n\rSend_NO_EN_AARQ\000\000"
.Lfunc_end10:
	.size	udf_Send_AARQ, .Lfunc_end10-udf_Send_AARQ
	.cfi_endproc
	.cantunwind
	.fnend
                                        @ -- End function
	.section	.text.udf_Rafael_data,"ax",%progbits
	.p2align	2                               @ -- Begin function udf_Rafael_data
	.type	udf_Rafael_data,%function
	.code	16                              @ @udf_Rafael_data
	.thumb_func
udf_Rafael_data:
.Lfunc_begin11:
	.loc	2 318 0 is_stmt 1               @ ../das_subg_thread/das_dlms_cmd.c:318:0
	.fnstart
	.cfi_startproc
@ %bb.0:
	@DEBUG_VALUE: udf_Rafael_data:task_id <- $r0
	@DEBUG_VALUE: udf_Rafael_data:type <- $r1
	@DEBUG_VALUE: udf_Rafael_data:meter_data <- $r2
	@DEBUG_VALUE: udf_Rafael_data:meter_len <- $r3
	.save	{r4, r5, r6, r7, r8, r9, r10, r11, lr}
	push.w	{r4, r5, r6, r7, r8, r9, r10, r11, lr}
	.cfi_def_cfa_offset 36
	.cfi_offset lr, -4
	.cfi_offset r11, -8
	.cfi_offset r10, -12
	.cfi_offset r9, -16
	.cfi_offset r8, -20
	.cfi_offset r7, -24
	.cfi_offset r6, -28
	.cfi_offset r5, -32
	.cfi_offset r4, -36
	.pad	#76
	sub	sp, #76
	.cfi_def_cfa_offset 112
	mov	r4, r3
.Ltmp672:
	@DEBUG_VALUE: udf_Rafael_data:meter_len <- $r4
	mov	r6, r2
.Ltmp673:
	@DEBUG_VALUE: udf_Rafael_data:meter_data <- $r6
	mov	r9, r1
.Ltmp674:
	@DEBUG_VALUE: udf_Rafael_data:type <- $r9
	mov	r7, r0
.Ltmp675:
	@DEBUG_VALUE: udf_Rafael_data:task_id <- $r7
	@DEBUG_VALUE: udf_Rafael_data:payload <- 0
	@DEBUG_VALUE: udf_Rafael_data:payload_len <- 0
	@DEBUG_VALUE: udf_Rafael_data:i <- 0
	@DEBUG_VALUE: udf_Rafael_data:Rafael_command <- undef
	@DEBUG_VALUE: udf_Rafael_data:meter_len <- $r4
	@DEBUG_VALUE: udf_Rafael_data:meter_data <- $r6
	@DEBUG_VALUE: udf_Rafael_data:type <- $r9
	@DEBUG_VALUE: udf_Rafael_data:task_id <- $r7
	.loc	2 325 2 prologue_end            @ ../das_subg_thread/das_dlms_cmd.c:325:2
	bl	otrLock
.Ltmp676:
	.loc	2 325 2 is_stmt 0               @ ../das_subg_thread/das_dlms_cmd.c:325:2
	bl	otrGetInstance
.Ltmp677:
	@DEBUG_VALUE: instance <- $r0
	cbz	r0, .LBB11_2
.Ltmp678:
@ %bb.1:
	@DEBUG_VALUE: udf_Rafael_data:type <- $r9
	@DEBUG_VALUE: udf_Rafael_data:task_id <- $r7
	@DEBUG_VALUE: udf_Rafael_data:meter_data <- $r6
	@DEBUG_VALUE: udf_Rafael_data:meter_len <- $r4
	@DEBUG_VALUE: instance <- $r0
	@DEBUG_VALUE: udf_Rafael_data:i <- 0
	@DEBUG_VALUE: udf_Rafael_data:payload_len <- 0
	@DEBUG_VALUE: udf_Rafael_data:payload <- 0
	.loc	2 0 0                           @ ../das_subg_thread/das_dlms_cmd.c:0:0
	mov	r5, r0
.Ltmp679:
	@DEBUG_VALUE: instance <- $r5
	.loc	2 325 2                         @ ../das_subg_thread/das_dlms_cmd.c:325:2
	bl	otThreadGetMeshLocalEid
.Ltmp680:
	.loc	2 0 2                           @ ../das_subg_thread/das_dlms_cmd.c:0:2
	add	r1, sp, #36
	.loc	2 325 2                         @ ../das_subg_thread/das_dlms_cmd.c:325:2
	movs	r2, #40
	bl	otIp6AddressToString
.Ltmp681:
	mov	r0, r5
	bl	otThreadGetRloc
.Ltmp682:
	ldr	r1, [r0]
.Ltmp683:
	@DEBUG_VALUE: udf_Rafael_data:LeaderIp <- [DW_OP_LLVM_fragment 0 32] $r1
	str	r1, [sp, #20]                   @ 4-byte Spill
.Ltmp684:
	@DEBUG_VALUE: udf_Rafael_data:LeaderIp <- [DW_OP_plus_uconst 20, DW_OP_LLVM_fragment 0 32] [$sp+0]
	@DEBUG_VALUE: udf_Rafael_data:LeaderIp <- [DW_OP_plus_uconst 20, DW_OP_LLVM_fragment 0 32] [$sp+0]
	ldr	r1, [r0, #4]
.Ltmp685:
	@DEBUG_VALUE: udf_Rafael_data:LeaderIp <- [DW_OP_LLVM_fragment 32 32] $r1
	str	r1, [sp, #28]                   @ 4-byte Spill
.Ltmp686:
	@DEBUG_VALUE: udf_Rafael_data:LeaderIp <- [DW_OP_plus_uconst 28, DW_OP_LLVM_fragment 32 32] [$sp+0]
	@DEBUG_VALUE: udf_Rafael_data:LeaderIp <- [DW_OP_plus_uconst 28, DW_OP_LLVM_fragment 32 32] [$sp+0]
	ldrh	r1, [r0, #12]
.Ltmp687:
	@DEBUG_VALUE: udf_Rafael_data:LeaderIp <- [DW_OP_LLVM_fragment 96 32] $r1
	ldr	r0, [r0, #8]
.Ltmp688:
	@DEBUG_VALUE: udf_Rafael_data:LeaderIp <- [DW_OP_LLVM_fragment 64 32] $r0
	str	r0, [sp, #24]                   @ 4-byte Spill
.Ltmp689:
	@DEBUG_VALUE: udf_Rafael_data:LeaderIp <- [DW_OP_plus_uconst 24, DW_OP_LLVM_fragment 64 32] [$sp+0]
	@DEBUG_VALUE: udf_Rafael_data:LeaderIp <- [DW_OP_plus_uconst 24, DW_OP_LLVM_fragment 64 32] [$sp+0]
	add.w	r0, r1, #16515072
.Ltmp690:
	@DEBUG_VALUE: udf_Rafael_data:LeaderIp <- [DW_OP_constu 16515072, DW_OP_or, DW_OP_stack_value, DW_OP_LLVM_fragment 96 32] undef
	.loc	2 0 2                           @ ../das_subg_thread/das_dlms_cmd.c:0:2
	str	r0, [sp, #16]                   @ 4-byte Spill
	b	.LBB11_3
.Ltmp691:
.LBB11_2:
	@DEBUG_VALUE: udf_Rafael_data:type <- $r9
	@DEBUG_VALUE: udf_Rafael_data:task_id <- $r7
	@DEBUG_VALUE: udf_Rafael_data:meter_data <- $r6
	@DEBUG_VALUE: udf_Rafael_data:meter_len <- $r4
	@DEBUG_VALUE: instance <- $r0
	@DEBUG_VALUE: udf_Rafael_data:i <- 0
	@DEBUG_VALUE: udf_Rafael_data:payload_len <- 0
	@DEBUG_VALUE: udf_Rafael_data:payload <- 0
                                        @ implicit-def: $r0
                                        @ kill: killed $r0
                                        @ implicit-def: $r0
                                        @ kill: killed $r0
                                        @ implicit-def: $r0
                                        @ kill: killed $r0
                                        @ implicit-def: $r0
                                        @ kill: killed $r0
.LBB11_3:
	@DEBUG_VALUE: udf_Rafael_data:type <- $r9
	@DEBUG_VALUE: udf_Rafael_data:task_id <- $r7
	@DEBUG_VALUE: udf_Rafael_data:meter_data <- $r6
	@DEBUG_VALUE: udf_Rafael_data:meter_len <- $r4
	@DEBUG_VALUE: udf_Rafael_data:i <- 0
	@DEBUG_VALUE: udf_Rafael_data:payload_len <- 0
	@DEBUG_VALUE: udf_Rafael_data:payload <- 0
	@DEBUG_VALUE: udf_Rafael_data:task_id <- $r7
	@DEBUG_VALUE: udf_Rafael_data:type <- $r9
	@DEBUG_VALUE: udf_Rafael_data:meter_len <- $r4
	@DEBUG_VALUE: udf_Rafael_data:LeaderIp <- [DW_OP_plus_uconst 20, DW_OP_LLVM_fragment 0 32] [$sp+0]
	@DEBUG_VALUE: udf_Rafael_data:LeaderIp <- [DW_OP_plus_uconst 28, DW_OP_LLVM_fragment 32 32] [$sp+0]
	@DEBUG_VALUE: udf_Rafael_data:LeaderIp <- [DW_OP_plus_uconst 16, DW_OP_LLVM_fragment 96 32] [$sp+0]
	@DEBUG_VALUE: udf_Rafael_data:LeaderIp <- [DW_OP_plus_uconst 24, DW_OP_LLVM_fragment 64 32] [$sp+0]
	.loc	2 325 2                         @ ../das_subg_thread/das_dlms_cmd.c:325:2
	bl	otrUnlock
.Ltmp692:
	.loc	2 0 2                           @ ../das_subg_thread/das_dlms_cmd.c:0:2
	add	r0, sp, #36
	.loc	2 335 20 is_stmt 1              @ ../das_subg_thread/das_dlms_cmd.c:335:20
	bl	strlen
.Ltmp693:
	.loc	2 335 16 is_stmt 0              @ ../das_subg_thread/das_dlms_cmd.c:335:16
	add	r0, r4
	add.w	r11, r0, #4
.Ltmp694:
	@DEBUG_VALUE: udf_Rafael_data:payload_len <- $r11
	.loc	2 337 26 is_stmt 1              @ ../das_subg_thread/das_dlms_cmd.c:337:26
	uxth.w	r8, r11
	.loc	2 337 13 is_stmt 0              @ ../das_subg_thread/das_dlms_cmd.c:337:13
	mov	r0, r8
	bl	pvPortMalloc
.Ltmp695:
	@DEBUG_VALUE: udf_Rafael_data:payload <- $r0
	.loc	2 338 5 is_stmt 1               @ ../das_subg_thread/das_dlms_cmd.c:338:5
	cbz	r0, .LBB11_8
.Ltmp696:
@ %bb.4:
	@DEBUG_VALUE: udf_Rafael_data:payload_len <- $r11
	@DEBUG_VALUE: udf_Rafael_data:type <- $r9
	@DEBUG_VALUE: udf_Rafael_data:task_id <- $r7
	@DEBUG_VALUE: udf_Rafael_data:meter_data <- $r6
	@DEBUG_VALUE: udf_Rafael_data:meter_len <- $r4
	@DEBUG_VALUE: udf_Rafael_data:payload <- $r0
	@DEBUG_VALUE: udf_Rafael_data:LeaderIp <- [DW_OP_plus_uconst 16, DW_OP_LLVM_fragment 96 32] [$sp+0]
	@DEBUG_VALUE: udf_Rafael_data:LeaderIp <- [DW_OP_plus_uconst 24, DW_OP_LLVM_fragment 64 32] [$sp+0]
	@DEBUG_VALUE: udf_Rafael_data:LeaderIp <- [DW_OP_plus_uconst 28, DW_OP_LLVM_fragment 32 32] [$sp+0]
	@DEBUG_VALUE: udf_Rafael_data:LeaderIp <- [DW_OP_plus_uconst 20, DW_OP_LLVM_fragment 0 32] [$sp+0]
	@DEBUG_VALUE: udf_Rafael_data:i <- 0
	.loc	2 0 5 is_stmt 0                 @ ../das_subg_thread/das_dlms_cmd.c:0:5
	str	r6, [sp, #32]                   @ 4-byte Spill
.Ltmp697:
	@DEBUG_VALUE: udf_Rafael_data:meter_data <- [DW_OP_plus_uconst 32] [$sp+0]
	@DEBUG_VALUE: udf_Rafael_data:task_id <- $r7
	mov	r6, r9
.Ltmp698:
	@DEBUG_VALUE: udf_Rafael_data:type <- $r6
	@DEBUG_VALUE: udf_Rafael_data:type <- $r6
	add.w	r9, sp, #36
	mov	r10, r0
.Ltmp699:
	@DEBUG_VALUE: udf_Rafael_data:payload <- $r10
	@DEBUG_VALUE: udf_Rafael_data:payload <- $r10
	@DEBUG_VALUE: udf_Rafael_data:task_id <- $r7
	@DEBUG_VALUE: udf_Rafael_data:type <- $r9
	@DEBUG_VALUE: udf_Rafael_data:meter_len <- $r4
	@DEBUG_VALUE: tmp <- $r10
	.loc	2 341 12 is_stmt 1              @ ../das_subg_thread/das_dlms_cmd.c:341:12
	mov	r0, r9
	bl	strlen
.Ltmp700:
	.loc	2 341 10 is_stmt 0              @ ../das_subg_thread/das_dlms_cmd.c:341:10
	mov	r5, r10
	strb	r0, [r5], #1
.Ltmp701:
	@DEBUG_VALUE: tmp <- $r5
	.loc	2 342 23 is_stmt 1              @ ../das_subg_thread/das_dlms_cmd.c:342:23
	mov	r0, r9
	bl	strlen
.Ltmp702:
	mov	r2, r0
	.loc	2 342 3 is_stmt 0               @ ../das_subg_thread/das_dlms_cmd.c:342:3
	mov	r0, r5
	mov	r1, r9
	bl	__aeabi_memcpy
.Ltmp703:
	.loc	2 343 9 is_stmt 1               @ ../das_subg_thread/das_dlms_cmd.c:343:9
	mov	r0, r9
	bl	strlen
.Ltmp704:
	.loc	2 343 6 is_stmt 0               @ ../das_subg_thread/das_dlms_cmd.c:343:6
	adds	r1, r5, r0
.Ltmp705:
	@DEBUG_VALUE: tmp <- [DW_OP_plus_uconst 1, DW_OP_stack_value] $r1
	.loc	2 344 10 is_stmt 1              @ ../das_subg_thread/das_dlms_cmd.c:344:10
	strb	r6, [r5, r0]
	movs	r0, #0
.Ltmp706:
	@DEBUG_VALUE: tmp <- [DW_OP_plus_uconst 2, DW_OP_stack_value] $r1
	.loc	2 345 11                        @ ../das_subg_thread/das_dlms_cmd.c:345:11
	strb	r0, [r1, #1]
	.loc	2 346 7                         @ ../das_subg_thread/das_dlms_cmd.c:346:7
	adds	r5, r1, #3
.Ltmp707:
	@DEBUG_VALUE: tmp <- $r5
	.loc	2 346 11 is_stmt 0              @ ../das_subg_thread/das_dlms_cmd.c:346:11
	strb	r7, [r1, #2]
	.loc	2 347 3 is_stmt 1               @ ../das_subg_thread/das_dlms_cmd.c:347:3
	ldr	r1, [sp, #32]                   @ 4-byte Reload
.Ltmp708:
	@DEBUG_VALUE: udf_Rafael_data:meter_data <- $r1
	mov	r0, r5
	mov	r2, r4
	bl	__aeabi_memcpy
.Ltmp709:
	.loc	2 348 7                         @ ../das_subg_thread/das_dlms_cmd.c:348:7
	adds	r0, r5, r4
.Ltmp710:
	@DEBUG_VALUE: tmp <- $r0
	.loc	2 349 11                        @ ../das_subg_thread/das_dlms_cmd.c:349:11
	sub.w	r1, r0, r10
.Ltmp711:
	.loc	2 349 7 is_stmt 0               @ ../das_subg_thread/das_dlms_cmd.c:349:7
	cmp	r1, r8
	bne	.LBB11_6
.Ltmp712:
@ %bb.5:
	@DEBUG_VALUE: udf_Rafael_data:payload_len <- $r11
	@DEBUG_VALUE: udf_Rafael_data:payload <- $r10
	@DEBUG_VALUE: udf_Rafael_data:type <- $r9
	@DEBUG_VALUE: udf_Rafael_data:task_id <- $r7
	@DEBUG_VALUE: udf_Rafael_data:meter_len <- $r4
	@DEBUG_VALUE: tmp <- $r0
	@DEBUG_VALUE: udf_Rafael_data:LeaderIp <- [DW_OP_plus_uconst 16, DW_OP_LLVM_fragment 96 32] [$sp+0]
	@DEBUG_VALUE: udf_Rafael_data:LeaderIp <- [DW_OP_plus_uconst 24, DW_OP_LLVM_fragment 64 32] [$sp+0]
	@DEBUG_VALUE: udf_Rafael_data:LeaderIp <- [DW_OP_plus_uconst 28, DW_OP_LLVM_fragment 32 32] [$sp+0]
	@DEBUG_VALUE: udf_Rafael_data:LeaderIp <- [DW_OP_plus_uconst 20, DW_OP_LLVM_fragment 0 32] [$sp+0]
	@DEBUG_VALUE: udf_Rafael_data:i <- 0
	.loc	2 355 4 is_stmt 1               @ ../das_subg_thread/das_dlms_cmd.c:355:4
	ldr	r1, [sp, #16]                   @ 4-byte Reload
	uxtb.w	r0, r11
.Ltmp713:
	str	r1, [sp]
	ldr	r2, [sp, #28]                   @ 4-byte Reload
	ldrd	r1, r3, [sp, #20]               @ 8-byte Folded Reload
	str	r0, [sp, #8]
	movw	r0, #5678
	str.w	r10, [sp, #4]
	bl	app_udpSend
.Ltmp714:
	.loc	2 0 4 is_stmt 0                 @ ../das_subg_thread/das_dlms_cmd.c:0:4
	b	.LBB11_7
.Ltmp715:
.LBB11_6:
	@DEBUG_VALUE: udf_Rafael_data:payload_len <- $r11
	@DEBUG_VALUE: udf_Rafael_data:payload <- $r10
	@DEBUG_VALUE: udf_Rafael_data:type <- $r9
	@DEBUG_VALUE: udf_Rafael_data:task_id <- $r7
	@DEBUG_VALUE: udf_Rafael_data:meter_len <- $r4
	@DEBUG_VALUE: tmp <- $r0
	@DEBUG_VALUE: udf_Rafael_data:LeaderIp <- [DW_OP_plus_uconst 16, DW_OP_LLVM_fragment 96 32] [$sp+0]
	@DEBUG_VALUE: udf_Rafael_data:LeaderIp <- [DW_OP_plus_uconst 24, DW_OP_LLVM_fragment 64 32] [$sp+0]
	@DEBUG_VALUE: udf_Rafael_data:LeaderIp <- [DW_OP_plus_uconst 28, DW_OP_LLVM_fragment 32 32] [$sp+0]
	@DEBUG_VALUE: udf_Rafael_data:LeaderIp <- [DW_OP_plus_uconst 20, DW_OP_LLVM_fragment 0 32] [$sp+0]
	@DEBUG_VALUE: udf_Rafael_data:i <- 0
	.loc	2 351 4 is_stmt 1               @ ../das_subg_thread/das_dlms_cmd.c:351:4
	adr	r0, .LCPI11_0
.Ltmp716:
	mov	r2, r8
	bl	__2printf
.Ltmp717:
.LBB11_7:
	@DEBUG_VALUE: udf_Rafael_data:payload_len <- $r11
	@DEBUG_VALUE: udf_Rafael_data:payload <- $r10
	@DEBUG_VALUE: udf_Rafael_data:type <- $r9
	@DEBUG_VALUE: udf_Rafael_data:task_id <- $r7
	@DEBUG_VALUE: udf_Rafael_data:meter_len <- $r4
	@DEBUG_VALUE: udf_Rafael_data:LeaderIp <- [DW_OP_plus_uconst 16, DW_OP_LLVM_fragment 96 32] [$sp+0]
	@DEBUG_VALUE: udf_Rafael_data:LeaderIp <- [DW_OP_plus_uconst 24, DW_OP_LLVM_fragment 64 32] [$sp+0]
	@DEBUG_VALUE: udf_Rafael_data:LeaderIp <- [DW_OP_plus_uconst 28, DW_OP_LLVM_fragment 32 32] [$sp+0]
	@DEBUG_VALUE: udf_Rafael_data:LeaderIp <- [DW_OP_plus_uconst 20, DW_OP_LLVM_fragment 0 32] [$sp+0]
	@DEBUG_VALUE: udf_Rafael_data:i <- 0
	.loc	2 359 14                        @ ../das_subg_thread/das_dlms_cmd.c:359:14
	mov	r0, r10
	bl	vPortFree
.Ltmp718:
.LBB11_8:
	@DEBUG_VALUE: udf_Rafael_data:payload_len <- $r11
	@DEBUG_VALUE: udf_Rafael_data:type <- $r9
	@DEBUG_VALUE: udf_Rafael_data:task_id <- $r7
	@DEBUG_VALUE: udf_Rafael_data:meter_len <- $r4
	@DEBUG_VALUE: udf_Rafael_data:LeaderIp <- [DW_OP_plus_uconst 16, DW_OP_LLVM_fragment 96 32] [$sp+0]
	@DEBUG_VALUE: udf_Rafael_data:LeaderIp <- [DW_OP_plus_uconst 24, DW_OP_LLVM_fragment 64 32] [$sp+0]
	@DEBUG_VALUE: udf_Rafael_data:LeaderIp <- [DW_OP_plus_uconst 28, DW_OP_LLVM_fragment 32 32] [$sp+0]
	@DEBUG_VALUE: udf_Rafael_data:LeaderIp <- [DW_OP_plus_uconst 20, DW_OP_LLVM_fragment 0 32] [$sp+0]
	@DEBUG_VALUE: udf_Rafael_data:i <- 0
	.loc	2 360 1                         @ ../das_subg_thread/das_dlms_cmd.c:360:1
	add	sp, #76
	pop.w	{r4, r5, r6, r7, r8, r9, r10, r11, pc}
.Ltmp719:
	.p2align	2
@ %bb.9:
	.loc	2 0 1 is_stmt 0                 @ ../das_subg_thread/das_dlms_cmd.c:0:1
.LCPI11_0:
.L.str.58:
	.asciz	"send lens error %u %u \n"
.Lfunc_end11:
	.size	udf_Rafael_data, .Lfunc_end11-udf_Rafael_data
	.cfi_endproc
	.cantunwind
	.fnend
                                        @ -- End function
	.hidden	ELS61IOType                     @ @ELS61IOType
	.type	ELS61IOType,%object
	.section	.bss.ELS61IOType,"aw",%nobits
	.globl	ELS61IOType
ELS61IOType:
	.byte	0                               @ 0x0
	.size	ELS61IOType, 1

	.hidden	ELS61inPointer                  @ @ELS61inPointer
	.type	ELS61inPointer,%object
	.section	.bss.ELS61inPointer,"aw",%nobits
	.globl	ELS61inPointer
ELS61inPointer:
	.byte	0                               @ 0x0
	.size	ELS61inPointer, 1

	.hidden	ELS61outPointer                 @ @ELS61outPointer
	.type	ELS61outPointer,%object
	.section	.bss.ELS61outPointer,"aw",%nobits
	.globl	ELS61outPointer
ELS61outPointer:
	.byte	0                               @ 0x0
	.size	ELS61outPointer, 1

	.hidden	ELS61_IO_Difference             @ @ELS61_IO_Difference
	.type	ELS61_IO_Difference,%object
	.section	.bss.ELS61_IO_Difference,"aw",%nobits
	.globl	ELS61_IO_Difference
ELS61_IO_Difference:
	.byte	0                               @ 0x0
	.size	ELS61_IO_Difference, 1

	.hidden	ELS61_MESSAGE_LOCK              @ @ELS61_MESSAGE_LOCK
	.type	ELS61_MESSAGE_LOCK,%object
	.section	.bss.ELS61_MESSAGE_LOCK,"aw",%nobits
	.globl	ELS61_MESSAGE_LOCK
ELS61_MESSAGE_LOCK:
	.byte	0                               @ 0x0
	.size	ELS61_MESSAGE_LOCK, 1

	.hidden	ELS_CSQ                         @ @ELS_CSQ
	.type	ELS_CSQ,%object
	.section	.bss.ELS_CSQ,"aw",%nobits
	.globl	ELS_CSQ
ELS_CSQ:
	.byte	0                               @ 0x0
	.size	ELS_CSQ, 1

	.hidden	Get_CSQ_FLAG                    @ @Get_CSQ_FLAG
	.type	Get_CSQ_FLAG,%object
	.section	.bss.Get_CSQ_FLAG,"aw",%nobits
	.globl	Get_CSQ_FLAG
Get_CSQ_FLAG:
	.byte	0                               @ 0x0
	.size	Get_CSQ_FLAG, 1

	.type	SETACTION,%object               @ @SETACTION
	.section	.bss.SETACTION,"aw",%nobits
SETACTION:
	.byte	0                               @ 0x0
	.size	SETACTION, 1

	.type	saveSETdata,%object             @ @saveSETdata
	.section	.bss.saveSETdata,"aw",%nobits
	.p2align	2
saveSETdata:
	.zero	2000
	.size	saveSETdata, 2000

	.type	DISC_FLAG,%object               @ @DISC_FLAG
	.section	.bss.DISC_FLAG,"aw",%nobits
DISC_FLAG:
	.byte	0                               @ 0x0
	.size	DISC_FLAG, 1

	.type	.L.str.4,%object                @ @.str.4
	.section	.rodata.str1.1,"aMS",%progbits,1
.L.str.4:
	.asciz	"%02X "
	.size	.L.str.4, 6

	.type	.L.str.5,%object                @ @.str.5
.L.str.5:
	.asciz	"\n\r"
	.size	.L.str.5, 3

	.type	dlms_rx_length,%object          @ @dlms_rx_length
	.section	.bss.dlms_rx_length,"aw",%nobits
	.p2align	1
dlms_rx_length:
	.short	0                               @ 0x0
	.size	dlms_rx_length, 2

	.type	dlms_rx_buf,%object             @ @dlms_rx_buf
	.section	.bss.dlms_rx_buf,"aw",%nobits
	.p2align	2
dlms_rx_buf:
	.zero	1200
	.size	dlms_rx_buf, 1200

	.hidden	Event_Notification              @ @Event_Notification
	.type	Event_Notification,%object
	.section	.bss.Event_Notification,"aw",%nobits
	.globl	Event_Notification
	.p2align	2
Event_Notification:
	.long	0                               @ 0x0
	.size	Event_Notification, 4

	.type	.L__const.udf_Set_Transmit.cmdTXT,%object @ @__const.udf_Set_Transmit.cmdTXT
	.section	.rodata..L__const.udf_Set_Transmit.cmdTXT,"a",%progbits
	.p2align	2
.L__const.udf_Set_Transmit.cmdTXT:
	.ascii	"~\240,\003#\023l\215\346\346\000\321\0360\000\000\000\001\301\001I\000\n\001\002\003\004\005\006\007\b\021\021\021\021\021\021\021\021\021\021\021\021\021\021\021\021\021\021\021\021\021\021\021\021\021\021\021\021\021\021\021\021\021\021\021\021\021\021\021\021\021\021\021\021\021\021\021\021\021\021\021\021\021\021\021\021\021\021\021\021\021\021\021\021\021\021\021\021\021\021\021\021\021\021\021\021\021\021\021\021\021\021\021\021\021\021\021\021\021\021\021\021\021\021\021\021\021\021\021\021\021\021\021\021\021\021\021\021\021\021\021\021\021\021\021\021\021\021\021\021\021\021\021\021\021\021\021\021\021\021\021\021\021\021\021\021\021\021\021\021\021\021\021\021\021\021\021\021\021\021\021\021\021\021\021\021\021\021\021\021\021\021\021\021\021\021\021\021\021\021\021\021\021\021\021\021\021\021\021\021\021\021\021\021\021\021\021\021\021\021\021\021\021\021\021\021\021\021\021\021\021\021\021\021\021\021\021\021\021\021\021\021\021\021\021\021\021\021\021\021\021\021\021\021\021\021\021\021\021\021\021\021\021\021\021\021\021\021\021\021\021\021\021\021\021\021\021\021\021\021\021\021\021\021\021\021\021\021\021\021\021\021\021\021\021\021\021\021\021\021\021\021\021\021\021\021\021\021\021\021\021\021\021\021\021\021\021\021\021\021\021\021\021\021\021\021\021\021\021\021\021\021\021\021\021\021\021\021\021\021\021\021\021\021\021\021\021\021\021\021\021\021\021\021\021\021\021\021\021\021\021\021\021\021\021\021\021\021\021\021\021\021\021\021\021\021\021\021\021\021\021\021\021\021\021\021\021\021\021\021\021\021\021\021\021\021\021\021\021\021\021\021\021\021\021\021\021\021\021\021\021\021\021\021\021\021\021\021\021\021\021\021\021\021\021\021\021\021\021\021\021\021\021\021\021\021\021\021\021\021\021\021\021\021\021\021\021\021\021\021\021\021\021\021\021\021\021\021\021\021\021\021\021\021\021\021\021\021\021\021\021\021\021\021\021\021\021\021\021\021\021\021\021\021\021\021\021\021\021\021\021\021\021\021\021\021\021\021\021\021\021\021\021\021\021\021\021\021\021\021\021\021\021\021\021\021\021\021\021\021\021\021\021\021\021\021\021\021\021\021\021\021\021\021\021\021\021\021\021\021\021\021\021\021\021\021\021\021\021\021\021\021\021\021\021\021\021\021\021\021\021\021\021\021\021\021\021\021\021\021\021\021\021\021\021\021\021\021\021\021\021\021\021\021\021\021\021\021\021\021\021\021\021\021\021\021\021\021\021\021\021\021\021\021\021\021\021\021\021\021\021\021\021\021\021\021\021\021\021\021\021\021\021\021\021\021\021\021\021\021\021\021\021\021\021\021\021\021\021\021\021\021\021\021\021\021\021\021\021\021\021\021\021\021\021\021\021\021\021\021\021\021\021\021\021\021\021\021\021\021\021\021\021\021\021\021\021\021\021\021\021\021\021\021\021\021\021\021\021\021\021\021\021\021\021\021\021\021\021\021\021\021\021\021\021\021\021\021\021\021\021\021\021\021\021\021\021\021\021\021\021\021\021\021\021\021\021\021\021\021\021\021\021\021\021\021\021\021\021\021\021\021\021\021\021\021\021\021\021\021\021\021\021\021\021\021\021\021\021\021\021\021\021\021\021\021\021\021\021\021\021\021\021\021\021\021\021~"
	.size	.L__const.udf_Set_Transmit.cmdTXT, 779

	.type	ic_count,%object                @ @ic_count
	.section	.bss.ic_count,"aw",%nobits
	.p2align	1
ic_count:
	.short	0                               @ 0x0
	.size	ic_count, 2

	.type	tpc_c_iv,%object                @ @tpc_c_iv
	.section	.data.tpc_c_iv,"aw",%progbits
tpc_c_iv:
	.ascii	"MAN\001#Eg\211\000\000\000\001"
	.size	tpc_c_iv, 12

	.type	tpc_dk,%object                  @ @tpc_dk
	.section	.data.tpc_dk,"aw",%progbits
tpc_dk:
	.ascii	"\265\007\343\206\353\000f\364\372\013\333\024c\266i\373"
	.size	tpc_dk, 16

	.type	tpc_gcm_ak,%object              @ @tpc_gcm_ak
	.section	.data.tpc_gcm_ak,"aw",%progbits
tpc_gcm_ak:
	.ascii	"0\220hA\205\003\237\214\253{N\206d\261A%<"
	.size	tpc_gcm_ak, 17

	.type	.L__const.UpdateCRC16.CRC16Table,%object @ @__const.UpdateCRC16.CRC16Table
	.section	.rodata.cst32,"aM",%progbits,32
	.p2align	1
.L__const.UpdateCRC16.CRC16Table:
	.short	0                               @ 0x0
	.short	4225                            @ 0x1081
	.short	8450                            @ 0x2102
	.short	12675                           @ 0x3183
	.short	16900                           @ 0x4204
	.short	21125                           @ 0x5285
	.short	25350                           @ 0x6306
	.short	29575                           @ 0x7387
	.short	33800                           @ 0x8408
	.short	38025                           @ 0x9489
	.short	42250                           @ 0xa50a
	.short	46475                           @ 0xb58b
	.short	50700                           @ 0xc60c
	.short	54925                           @ 0xd68d
	.short	59150                           @ 0xe70e
	.short	63375                           @ 0xf78f
	.size	.L__const.UpdateCRC16.CRC16Table, 32

	.type	MC_done,%object                 @ @MC_done
	.section	.bss.MC_done,"aw",%nobits
MC_done:
	.byte	0                               @ 0x0
	.size	MC_done, 1

	.type	tpc_s_iv,%object                @ @tpc_s_iv
	.section	.data.tpc_s_iv,"aw",%progbits
	.p2align	3
tpc_s_iv:
	.ascii	" T0\000\000\274aN\000\000\000\001"
	.size	tpc_s_iv, 12

	.type	tpc_guk,%object                 @ @tpc_guk
	.section	.data.tpc_guk,"aw",%progbits
tpc_guk:
	.ascii	"\003NI\016\2513\340\247\251\274@\252\316\265\024\330"
	.size	tpc_guk, 16

	.type	.L.str.15,%object               @ @.str.15
	.section	.rodata.str1.1,"aMS",%progbits,1
.L.str.15:
	.asciz	"Res Type: %d\n\r"
	.size	.L.str.15, 15

	.type	.L.str.17,%object               @ @.str.17
.L.str.17:
	.asciz	"Meter_AARE_M\n\r"
	.size	.L.str.17, 15

	.type	tpc_gmac_ak,%object             @ @tpc_gmac_ak
	.section	.data.tpc_gmac_ak,"aw",%progbits
tpc_gmac_ak:
	.ascii	"\020\220hA\205\003\237\214\253{N\206d\261A%<\217E2\310y[\372<"
	.size	tpc_gmac_ak, 25

	.type	tpc_s_iv_h,%object              @ @tpc_s_iv_h
	.section	.data.tpc_s_iv_h,"aw",%progbits
	.p2align	3
tpc_s_iv_h:
	.ascii	" T0\000\000\274aN\000\000\000\001"
	.size	tpc_s_iv_h, 12

	.type	.L.str.43,%object               @ @.str.43
	.section	.rodata.str1.1,"aMS",%progbits,1
.L.str.43:
	.asciz	"pt[26] = %d\n"
	.size	.L.str.43, 13

	.type	event_notification_data,%object @ @event_notification_data
	.section	.bss.event_notification_data,"aw",%nobits
	.p2align	2
event_notification_data:
	.zero	80
	.size	event_notification_data, 80

	.type	.L.str.50,%object               @ @.str.50
	.section	.rodata.str1.1,"aMS",%progbits,1
.L.str.50:
	.asciz	"Meter_Disconnet_ok\n\r"
	.size	.L.str.50, 21

	.type	.L__const.udf_Send_AARQ.cmdbuf,%object @ @__const.udf_Send_AARQ.cmdbuf
	.section	.rodata..L__const.udf_Send_AARQ.cmdbuf,"a",%progbits
	.p2align	2
.L__const.udf_Send_AARQ.cmdbuf:
	.ascii	"~\240t\003#\023?\311\346\346\000`f\241\t\006\007`\205t\005\b\001\003\246\n\004\bMAN\001#Eg\211\212\002\007\200\213\007`\205t\005\b\002\005\254\n\200\b\256\016R\207VR\025\322\2764\0042!00\000\000\000\001\001\001\020\265\007\343\206\353\000f\364\372\013\333\024c\266i\373\000\000\006_\037\004\000`\034\237\003\000\017\331\346\000\272D\223\301_\027\276\bP\363~"
	.size	.L__const.udf_Send_AARQ.cmdbuf, 118

	.type	.L__const.udf_Send_AARQ.no_en_aarq,%object @ @__const.udf_Send_AARQ.no_en_aarq
	.section	.rodata..L__const.udf_Send_AARQ.no_en_aarq,"a",%progbits
	.p2align	2
.L__const.udf_Send_AARQ.no_en_aarq:
	.ascii	"~\240@\003!\023\221\304\346\346\000`2\241\t\006\007`\205t\005\b\001\001\246\n\004\bVER00001\213\007`\205t\005\b\002\000\276\020\004\016\001\000\000\000\006_\037\004\000\000\020\024\003\000]g~"
	.size	.L__const.udf_Send_AARQ.no_en_aarq, 66

	.type	tpc_c_iv_h,%object              @ @tpc_c_iv_h
	.section	.data.tpc_c_iv_h,"aw",%progbits
tpc_c_iv_h:
	.ascii	"HAN\001!\250\214\002\000\000\000\001"
	.size	tpc_c_iv_h, 12

	.type	.L__const.udf_Management_Client.cmdbuf,%object @ @__const.udf_Management_Client.cmdbuf
	.section	.rodata..L__const.udf_Management_Client.cmdbuf,"a",%progbits
	.p2align	2
.L__const.udf_Management_Client.cmdbuf:
	.ascii	"~\240?\003#\023\235\037\346\346\000\31310\000\000\000\003\303\001A\000\017\000\000(\000\002\377\001\001\t\021\020\000\000\000\002\371 b\270\231\365\244\nN\317\302\212\000\352\333a\2134\230\032\276\026f\362\343\036~"
	.size	.L__const.udf_Management_Client.cmdbuf, 65

	.type	.L.str.55,%object               @ @.str.55
	.section	.rodata.str1.1,"aMS",%progbits,1
.L.str.55:
	.asciz	"\n\rManagement Client\n\r"
	.size	.L.str.55, 22

	.type	.L__const.udf_Han_Client.cmdbuf,%object @ @__const.udf_Han_Client.cmdbuf
	.section	.rodata..L__const.udf_Han_Client.cmdbuf,"a",%progbits
	.p2align	2
.L__const.udf_Han_Client.cmdbuf:
	.ascii	"~\240?\003'\023\235\037\346\346\000\31310\000\000\000\002\303\001A\000\017\000\000(\000\004\377\001\001\t\021\020\000\000\000\001\371 b\270\231\365\244\nN\317\302\212\000\352\333a\2134\230\032\276\026f\362\343\036~"
	.size	.L__const.udf_Han_Client.cmdbuf, 65

	.type	.L__const.udf_SMIP_Res.send_buff,%object @ @__const.udf_SMIP_Res.send_buff
	.section	.rodata..L__const.udf_SMIP_Res.send_buff,"a",%progbits
	.p2align	2
.L__const.udf_SMIP_Res.send_buff:
	.ascii	"\000\001\000\001\000\001\000\r\304\001C\000\n\b16693751"
	.zero	106
	.size	.L__const.udf_SMIP_Res.send_buff, 128

	.type	ucMeterPacket,%object           @ @ucMeterPacket
	.section	.bss.ucMeterPacket,"aw",%nobits
	.p2align	2
ucMeterPacket:
	.zero	350
	.size	ucMeterPacket, 350

	.type	NOTIFICATION_CODE.0,%object     @ @NOTIFICATION_CODE.0
	.section	.bss.NOTIFICATION_CODE.0,"aw",%nobits
NOTIFICATION_CODE.0:
	.byte	0                               @ 0x0
	.size	NOTIFICATION_CODE.0, 1

	.type	NOTIFICATION_CODE.1,%object     @ @NOTIFICATION_CODE.1
	.section	.bss.NOTIFICATION_CODE.1,"aw",%nobits
NOTIFICATION_CODE.1:
	.byte	0                               @ 0x0
	.size	NOTIFICATION_CODE.1, 1

	.type	NOTIFICATION_CODE.2,%object     @ @NOTIFICATION_CODE.2
	.section	.bss.NOTIFICATION_CODE.2,"aw",%nobits
NOTIFICATION_CODE.2:
	.byte	0                               @ 0x0
	.size	NOTIFICATION_CODE.2, 1

	.type	NOTIFICATION_CODE.3,%object     @ @NOTIFICATION_CODE.3
	.section	.bss.NOTIFICATION_CODE.3,"aw",%nobits
NOTIFICATION_CODE.3:
	.byte	0                               @ 0x0
	.size	NOTIFICATION_CODE.3, 1

	.type	NOTIFICATION_CODE.4,%object     @ @NOTIFICATION_CODE.4
	.section	.bss.NOTIFICATION_CODE.4,"aw",%nobits
NOTIFICATION_CODE.4:
	.byte	0                               @ 0x0
	.size	NOTIFICATION_CODE.4, 1

	.type	NOTIFICATION_CODE.5,%object     @ @NOTIFICATION_CODE.5
	.section	.bss.NOTIFICATION_CODE.5,"aw",%nobits
NOTIFICATION_CODE.5:
	.byte	0                               @ 0x0
	.size	NOTIFICATION_CODE.5, 1

	.type	.Lstr.77,%object                @ @str.77
	.section	.rodata.str1.1,"aMS",%progbits,1
.Lstr.77:
	.asciz	"send notification"
	.size	.Lstr.77, 18

	.type	.Lstr.78,%object                @ @str.78
.Lstr.78:
	.asciz	"AES_GCM_Decrypt fail \r"
	.size	.Lstr.78, 23

	.type	.Lstr.79,%object                @ @str.79
.Lstr.79:
	.asciz	"Decide_Once"
	.size	.Lstr.79, 12

	.type	.Lstr.80,%object                @ @str.80
.Lstr.80:
	.asciz	"Event code = 100"
	.size	.Lstr.80, 17

	.type	.Lstr.81,%object                @ @str.81
.Lstr.81:
	.asciz	"Event code = 7"
	.size	.Lstr.81, 15

	.type	.Lstr.82,%object                @ @str.82
.Lstr.82:
	.asciz	"Event code = 4"
	.size	.Lstr.82, 15

	.type	.Lstr.83,%object                @ @str.83
.Lstr.83:
	.asciz	"Event code = 3"
	.size	.Lstr.83, 15

	.type	.Lstr.84,%object                @ @str.84
.Lstr.84:
	.asciz	"Event code = 2"
	.size	.Lstr.84, 15

	.type	.Lstr.85,%object                @ @str.85
.Lstr.85:
	.asciz	"Event code = 1"
	.size	.Lstr.85, 15

	.globl	_printf_percent
	.globl	_printf_flags
	.globl	_printf_widthprec
	.globl	_printf_pre_padding
	.globl	_printf_x
	.globl	_printf_d
	.globl	_printf_u
	.globl	_printf_int_dec
	.globl	_printf_longlong_hex
	.hidden	_printf_percent
	.hidden	_printf_flags
	.hidden	_printf_widthprec
	.hidden	_printf_pre_padding
	.hidden	_printf_x
	.hidden	_printf_d
	.hidden	_printf_u
	.hidden	_printf_int_dec
	.hidden	_printf_longlong_hex
	.file	8 "C:\\Keil_v5\\ARM\\ARMCLANG\\Bin\\..\\include" "stdio.h"
	.file	9 "D:\\Rafael-IoT-SDK-Internal-main\\examples\\das_subg_thread\\keil" "../../../components/network/thread/subg_openthread/third_party/mbedtls/repo/include\\mbedtls/gcm.h"
	.file	10 "D:\\Rafael-IoT-SDK-Internal-main\\examples\\das_subg_thread\\keil" "../../../components/network/thread/subg_openthread/include\\openthread/instance.h"
	.file	11 "D:\\Rafael-IoT-SDK-Internal-main\\examples\\das_subg_thread\\keil" "../../../components/network/thread/subg_openthread/include\\openthread/ip6.h"
	.section	".note.GNU-stack","",%progbits
	.eabi_attribute	30, 3	@ Tag_ABI_optimization_goals
	.ARM_attribute	16, 1	@ Tag_AV_eba