	.text
	.syntax unified
	.eabi_attribute	67, "2.09"	@ Tag_conformance
	.cpu	cortex-m3
	.eabi_attribute	6, 10	@ Tag_CPU_arch
	.eabi_attribute	7, 77	@ Tag_CPU_arch_profile
	.eabi_attribute	8, 0	@ Tag_ARM_ISA_use
	.eabi_attribute	9, 2	@ Tag_THUMB_ISA_use
	.eabi_attribute	34, 1	@ Tag_CPU_unaligned_access
	.eabi_attribute	17, 1	@ Tag_ABI_PCS_GOT_use
	.eabi_attribute	20, 2	@ Tag_ABI_FP_denormal
	.eabi_attribute	21, 0	@ Tag_ABI_FP_exceptions
	.eabi_attribute	23, 1	@ Tag_ABI_FP_number_model
	.eabi_attribute	24, 1	@ Tag_ABI_align_needed
	.eabi_attribute	25, 1	@ Tag_ABI_align_preserved
	.eabi_attribute	38, 1	@ Tag_ABI_FP_16bit_format
	.eabi_attribute	18, 4	@ Tag_ABI_PCS_wchar_t
	.eabi_attribute	26, 2	@ Tag_ABI_enum_size
	.eabi_attribute	14, 0	@ Tag_ABI_PCS_R9_use
	.file	"das_hex_cmd.c"
	.file	1 "C:\\Keil_v5\\ARM\\ARMCLANG\\Bin\\..\\include" "stdint.h"
	.file	2 "D:\\20240115\\rafael-iot-sdk-das\\examples\\das_subg_thread\\keil" "../das_subg_thread/das_hex_cmd.c"
	.file	3 "D:\\20240115\\rafael-iot-sdk-das\\examples\\das_subg_thread\\keil" "../../../components/platform/soc/rt582/rt582_freertos/Inc\\timers.h"
	.file	4 "D:\\20240115\\rafael-iot-sdk-das\\examples\\das_subg_thread\\keil" "../../../components/network/thread/subg_openthread/include\\openthread/error.h"
	.file	5 "D:\\20240115\\rafael-iot-sdk-das\\examples\\das_subg_thread\\keil" "../../../components/network/thread/subg_openthread/include\\openthread/thread.h"
	.file	6 "D:\\20240115\\rafael-iot-sdk-das\\examples\\das_subg_thread\\keil" "../../../components/platform/soc/rt582/rt582_freertos/portable/GCC/ARM_CM3\\portmacro.h"
	.file	7 "D:\\20240115\\rafael-iot-sdk-das\\examples\\das_subg_thread\\keil" "../../../components/platform/soc/rt582/rt582_driver/Inc/gpio_reg.h"
	.section	.text.das_hex_cmd_status_check,"ax",%progbits
	.hidden	das_hex_cmd_status_check        @ -- Begin function das_hex_cmd_status_check
	.globl	das_hex_cmd_status_check
	.p2align	1
	.type	das_hex_cmd_status_check,%function
	.code	16                              @ @das_hex_cmd_status_check
	.thumb_func
das_hex_cmd_status_check:
.Lfunc_begin0:
	.loc	2 79 0                          @ ../das_subg_thread/das_hex_cmd.c:79:0
	.fnstart
	.cfi_sections .debug_frame
	.cfi_startproc
@ %bb.0:
	mov.w	r0, #1073741824
.Ltmp0:
	@DEBUG_VALUE: gpio_pin_get:pin_number <- 30
	.file	8 "D:\\20240115\\rafael-iot-sdk-das\\examples\\das_subg_thread\\keil" "../../../components/platform/soc/rt582/rt582_driver/Inc/gpio.h"
	.loc	8 248 20 prologue_end           @ ../../../components/platform/soc/rt582/rt582_driver/Inc/gpio.h:248:20
	ldr	r0, [r0]
	movs	r1, #1
.Ltmp1:
	.loc	2 80 30                         @ ../das_subg_thread/das_hex_cmd.c:80:30
	and	r0, r0, #1073741824
	eor.w	r0, r1, r0, lsr #30
	.loc	2 80 5 is_stmt 0                @ ../das_subg_thread/das_hex_cmd.c:80:5
	bx	lr
.Ltmp2:
.Lfunc_end0:
	.size	das_hex_cmd_status_check, .Lfunc_end0-das_hex_cmd_status_check
	.cfi_endproc
	.cantunwind
	.fnend
                                        @ -- End function
	.section	.text.das_hex_command_response,"ax",%progbits
	.hidden	das_hex_command_response        @ -- Begin function das_hex_command_response
	.globl	das_hex_command_response
	.p2align	1
	.type	das_hex_command_response,%function
	.code	16                              @ @das_hex_command_response
	.thumb_func
das_hex_command_response:
.Lfunc_begin1:
	.loc	2 97 0 is_stmt 1                @ ../das_subg_thread/das_hex_cmd.c:97:0
	.fnstart
	.cfi_startproc
@ %bb.0:
	@DEBUG_VALUE: das_hex_command_response:state <- [DW_OP_LLVM_convert 1 7, DW_OP_LLVM_convert 8 7, DW_OP_stack_value] $r0
	@DEBUG_VALUE: das_hex_command_response:cmd_id <- $r1
	.save	{r7, lr}
	push	{r7, lr}
	.cfi_def_cfa_offset 8
	.cfi_offset lr, -4
	.cfi_offset r7, -8
	.pad	#16
	sub	sp, #16
	.cfi_def_cfa_offset 24
	movs	r2, #147
	movt	r2, #4
.Ltmp3:
	@DEBUG_VALUE: das_hex_command_response:ack_crc <- -105
	@DEBUG_VALUE: das_hex_command_response:cmd_id <- $r1
	@DEBUG_VALUE: das_hex_command_response:state <- [DW_OP_LLVM_convert 1 7, DW_OP_LLVM_convert 8 7, DW_OP_stack_value] $r0
	.loc	2 101 16 prologue_end           @ ../das_subg_thread/das_hex_cmd.c:101:16
	str.w	r2, [sp, #6]
	mvn	r2, #104
	.loc	2 105 16                        @ ../das_subg_thread/das_hex_cmd.c:105:16
	strb.w	r1, [sp, #10]
	.loc	2 107 9                         @ ../das_subg_thread/das_hex_cmd.c:107:9
	cmp	r0, #0
	it	ne
	mvnne	r2, #103
	add	r1, r2
.Ltmp4:
	@DEBUG_VALUE: das_hex_command_response:cmd_id <- [DW_OP_LLVM_entry_value 1] $r1
	.loc	2 109 20                        @ ../das_subg_thread/das_hex_cmd.c:109:20
	strb.w	r0, [sp, #11]
.Ltmp5:
	@DEBUG_VALUE: das_hex_command_response:ack_crc <- $r1
	.loc	2 117 16                        @ ../das_subg_thread/das_hex_cmd.c:117:16
	strb.w	r1, [sp, #12]
.Ltmp6:
	@DEBUG_VALUE: das_hex_cmd_send:cmd_data_lens <- 7
	.loc	2 0 16 is_stmt 0                @ ../das_subg_thread/das_hex_cmd.c:0:16
	add.w	r1, sp, #6
.Ltmp7:
	@DEBUG_VALUE: das_hex_cmd_send:cmd_data <- [DW_OP_plus_uconst 6, DW_OP_stack_value] $sp
	.loc	2 71 5 is_stmt 1                @ ../das_subg_thread/das_hex_cmd.c:71:5
	movs	r0, #2
.Ltmp8:
	movs	r2, #7
	bl	app_uart_data_send
.Ltmp9:
	.loc	2 119 1                         @ ../das_subg_thread/das_hex_cmd.c:119:1
	add	sp, #16
	pop	{r7, pc}
.Ltmp10:
.Lfunc_end1:
	.size	das_hex_command_response, .Lfunc_end1-das_hex_command_response
	.cfi_endproc
	.cantunwind
	.fnend
                                        @ -- End function
	.section	.text.das_hex_cmd_udp_ack,"ax",%progbits
	.hidden	das_hex_cmd_udp_ack             @ -- Begin function das_hex_cmd_udp_ack
	.globl	das_hex_cmd_udp_ack
	.p2align	1
	.type	das_hex_cmd_udp_ack,%function
	.code	16                              @ @das_hex_cmd_udp_ack
	.thumb_func
das_hex_cmd_udp_ack:
.Lfunc_begin2:
	.loc	2 188 0                         @ ../das_subg_thread/das_hex_cmd.c:188:0
	.fnstart
	.cfi_startproc
@ %bb.0:
	.save	{r7, lr}
	push	{r7, lr}
	.cfi_def_cfa_offset 8
	.cfi_offset lr, -4
	.cfi_offset r7, -8
	.pad	#8
	sub	sp, #8
	.cfi_def_cfa_offset 16
	movs	r0, #147
	movt	r0, #1026
.Ltmp11:
	.loc	2 190 16 prologue_end           @ ../das_subg_thread/das_hex_cmd.c:190:16
	str.w	r0, [sp, #3]
	movs	r0, #153
	.loc	2 194 16                        @ ../das_subg_thread/das_hex_cmd.c:194:16
	strb.w	r0, [sp, #7]
.Ltmp12:
	@DEBUG_VALUE: das_hex_cmd_send:cmd_data_lens <- 5
	.loc	2 0 16 is_stmt 0                @ ../das_subg_thread/das_hex_cmd.c:0:16
	add.w	r1, sp, #3
.Ltmp13:
	@DEBUG_VALUE: das_hex_cmd_send:cmd_data <- [DW_OP_plus_uconst 3, DW_OP_stack_value] $sp
	.loc	2 71 5 is_stmt 1                @ ../das_subg_thread/das_hex_cmd.c:71:5
	movs	r0, #2
	movs	r2, #5
	bl	app_uart_data_send
.Ltmp14:
	.loc	2 196 1                         @ ../das_subg_thread/das_hex_cmd.c:196:1
	add	sp, #8
	pop	{r7, pc}
.Ltmp15:
.Lfunc_end2:
	.size	das_hex_cmd_udp_ack, .Lfunc_end2-das_hex_cmd_udp_ack
	.cfi_endproc
	.cantunwind
	.fnend
                                        @ -- End function
	.section	.text.das_hex_cmd_get_udp_ip,"ax",%progbits
	.hidden	das_hex_cmd_get_udp_ip          @ -- Begin function das_hex_cmd_get_udp_ip
	.globl	das_hex_cmd_get_udp_ip
	.p2align	1
	.type	das_hex_cmd_get_udp_ip,%function
	.code	16                              @ @das_hex_cmd_get_udp_ip
	.thumb_func
das_hex_cmd_get_udp_ip:
.Lfunc_begin3:
	.loc	2 200 0                         @ ../das_subg_thread/das_hex_cmd.c:200:0
	.fnstart
	.cfi_startproc
@ %bb.0:
	@DEBUG_VALUE: das_hex_cmd_get_udp_ip:Param <- $r0
	@DEBUG_VALUE: das_hex_cmd_get_udp_ip:lens <- $r1
	.save	{r4, r5, r6, r7, lr}
	push	{r4, r5, r6, r7, lr}
	.cfi_def_cfa_offset 20
	.cfi_offset lr, -4
	.cfi_offset r7, -8
	.cfi_offset r6, -12
	.cfi_offset r5, -16
	.cfi_offset r4, -20
	.pad	#4
	sub	sp, #4
	.cfi_def_cfa_offset 24
	mov	r7, r0
.Ltmp16:
	@DEBUG_VALUE: das_hex_cmd_get_udp_ip:Param <- $r7
	@DEBUG_VALUE: das_hex_cmd_get_udp_ip:lens <- $r6
	@DEBUG_VALUE: das_hex_cmd_get_udp_ip:Param <- $r7
	.loc	2 201 33 prologue_end           @ ../das_subg_thread/das_hex_cmd.c:201:33
	adds	r0, r1, #5
.Ltmp17:
	@DEBUG_VALUE: das_hex_cmd_get_udp_ip:message_len <- $r0
	.loc	2 202 37                        @ ../das_subg_thread/das_hex_cmd.c:202:37
	uxth	r4, r0
	.loc	2 202 24 is_stmt 0              @ ../das_subg_thread/das_hex_cmd.c:202:24
	mov	r0, r4
.Ltmp18:
	.loc	2 0 24                          @ ../das_subg_thread/das_hex_cmd.c:0:24
	mov	r6, r1
.Ltmp19:
	.loc	2 202 24                        @ ../das_subg_thread/das_hex_cmd.c:202:24
	bl	pvPortMalloc
.Ltmp20:
	@DEBUG_VALUE: das_hex_cmd_get_udp_ip:cmd_crc <- -1
	@DEBUG_VALUE: das_hex_cmd_get_udp_ip:message <- $r0
	.loc	2 204 9 is_stmt 1               @ ../das_subg_thread/das_hex_cmd.c:204:9
	cbz	r0, .LBB3_7
.Ltmp21:
@ %bb.1:
	@DEBUG_VALUE: das_hex_cmd_get_udp_ip:Param <- $r7
	@DEBUG_VALUE: das_hex_cmd_get_udp_ip:message <- $r0
	@DEBUG_VALUE: das_hex_cmd_get_udp_ip:cmd_crc <- -1
	.loc	2 0 9 is_stmt 0                 @ ../das_subg_thread/das_hex_cmd.c:0:9
	mov	r5, r0
.Ltmp22:
	@DEBUG_VALUE: das_hex_cmd_get_udp_ip:message <- $r5
	@DEBUG_VALUE: das_hex_cmd_get_udp_ip:message <- $r5
	movs	r0, #147
.Ltmp23:
	.loc	2 206 20 is_stmt 1              @ ../das_subg_thread/das_hex_cmd.c:206:20
	strb	r0, [r5]
	.loc	2 207 29                        @ ../das_subg_thread/das_hex_cmd.c:207:29
	adds	r0, r6, #2
	.loc	2 207 34 is_stmt 0              @ ../das_subg_thread/das_hex_cmd.c:207:34
	lsrs	r1, r0, #8
	.loc	2 208 20 is_stmt 1              @ ../das_subg_thread/das_hex_cmd.c:208:20
	strb	r0, [r5, #2]
	movs	r0, #16
	.loc	2 207 20                        @ ../das_subg_thread/das_hex_cmd.c:207:20
	strb	r1, [r5, #1]
	.loc	2 209 20                        @ ../das_subg_thread/das_hex_cmd.c:209:20
	strb	r0, [r5, #3]
.Ltmp24:
	@DEBUG_VALUE: i <- 0
	.loc	2 211 9                         @ ../das_subg_thread/das_hex_cmd.c:211:9
	cbz	r6, .LBB3_4
.Ltmp25:
@ %bb.2:
	@DEBUG_VALUE: das_hex_cmd_get_udp_ip:Param <- $r7
	@DEBUG_VALUE: das_hex_cmd_get_udp_ip:message <- $r5
	@DEBUG_VALUE: i <- 0
	@DEBUG_VALUE: das_hex_cmd_get_udp_ip:cmd_crc <- -1
	adds	r0, r5, #4
.Ltmp26:
	.p2align	2
.LBB3_3:                                @ =>This Inner Loop Header: Depth=1
	@DEBUG_VALUE: das_hex_cmd_get_udp_ip:message <- $r5
	@DEBUG_VALUE: das_hex_cmd_get_udp_ip:cmd_crc <- -1
	@DEBUG_VALUE: i <- undef
	.loc	2 213 37                        @ ../das_subg_thread/das_hex_cmd.c:213:37
	ldrb	r1, [r7], #1
.Ltmp27:
	.loc	2 211 32                        @ ../das_subg_thread/das_hex_cmd.c:211:32
	subs	r6, #1
.Ltmp28:
	.loc	2 213 30                        @ ../das_subg_thread/das_hex_cmd.c:213:30
	strb	r1, [r0], #1
.Ltmp29:
	@DEBUG_VALUE: i <- [DW_OP_plus_uconst 1, DW_OP_stack_value] undef
	.loc	2 211 9                         @ ../das_subg_thread/das_hex_cmd.c:211:9
	bne	.LBB3_3
.Ltmp30:
.LBB3_4:
	@DEBUG_VALUE: das_hex_cmd_get_udp_ip:message <- $r5
	@DEBUG_VALUE: das_hex_cmd_get_udp_ip:cmd_crc <- -1
	.loc	2 216 79                        @ ../das_subg_thread/das_hex_cmd.c:216:79
	subs	r0, r4, #1
.Ltmp31:
	@DEBUG_VALUE: das_hex_cmd_crc_calculate:hex_ptr_lens <- $r0
	@DEBUG_VALUE: das_hex_cmd_crc_calculate:i <- 0
	@DEBUG_VALUE: das_hex_cmd_crc_calculate:crc_8 <- 0
	@DEBUG_VALUE: das_hex_cmd_crc_calculate:hex_ptr <- $r5
	.loc	2 87 5                          @ ../das_subg_thread/das_hex_cmd.c:87:5
	lsls	r1, r0, #16
	beq	.LBB3_8
.Ltmp32:
@ %bb.5:
	@DEBUG_VALUE: das_hex_cmd_crc_calculate:hex_ptr <- $r5
	@DEBUG_VALUE: das_hex_cmd_get_udp_ip:message <- $r5
	@DEBUG_VALUE: das_hex_cmd_crc_calculate:hex_ptr_lens <- $r0
	@DEBUG_VALUE: das_hex_cmd_crc_calculate:crc_8 <- 0
	@DEBUG_VALUE: das_hex_cmd_crc_calculate:i <- 0
	@DEBUG_VALUE: das_hex_cmd_get_udp_ip:cmd_crc <- -1
	.loc	2 87 19 is_stmt 0               @ ../das_subg_thread/das_hex_cmd.c:87:19
	uxth	r1, r0
.Ltmp33:
	@DEBUG_VALUE: das_hex_cmd_crc_calculate:i <- 1
	@DEBUG_VALUE: das_hex_cmd_crc_calculate:crc_8 <- -109
	.loc	2 87 5                          @ ../das_subg_thread/das_hex_cmd.c:87:5
	cmp	r1, #1
	bne	.LBB3_9
.Ltmp34:
@ %bb.6:
	@DEBUG_VALUE: das_hex_cmd_crc_calculate:hex_ptr <- $r5
	@DEBUG_VALUE: das_hex_cmd_get_udp_ip:message <- $r5
	@DEBUG_VALUE: das_hex_cmd_crc_calculate:hex_ptr_lens <- $r0
	@DEBUG_VALUE: das_hex_cmd_crc_calculate:crc_8 <- -109
	@DEBUG_VALUE: das_hex_cmd_crc_calculate:i <- 1
	@DEBUG_VALUE: das_hex_cmd_get_udp_ip:cmd_crc <- -1
	.loc	2 0 5                           @ ../das_subg_thread/das_hex_cmd.c:0:5
	movs	r1, #147
	b	.LBB3_11
.Ltmp35:
.LBB3_7:
	@DEBUG_VALUE: das_hex_cmd_get_udp_ip:Param <- $r7
	@DEBUG_VALUE: das_hex_cmd_get_udp_ip:message <- $r0
	@DEBUG_VALUE: das_hex_cmd_get_udp_ip:cmd_crc <- -1
	.loc	2 225 1 is_stmt 1               @ ../das_subg_thread/das_hex_cmd.c:225:1
	add	sp, #4
	pop	{r4, r5, r6, r7, pc}
.Ltmp36:
.LBB3_8:
	@DEBUG_VALUE: das_hex_cmd_crc_calculate:hex_ptr <- $r5
	@DEBUG_VALUE: das_hex_cmd_get_udp_ip:message <- $r5
	@DEBUG_VALUE: das_hex_cmd_crc_calculate:hex_ptr_lens <- $r0
	@DEBUG_VALUE: das_hex_cmd_crc_calculate:crc_8 <- 0
	@DEBUG_VALUE: das_hex_cmd_crc_calculate:i <- 0
	@DEBUG_VALUE: das_hex_cmd_get_udp_ip:cmd_crc <- -1
	.loc	2 0 1 is_stmt 0                 @ ../das_subg_thread/das_hex_cmd.c:0:1
	movs	r1, #0
	b	.LBB3_11
.Ltmp37:
.LBB3_9:
	@DEBUG_VALUE: das_hex_cmd_crc_calculate:hex_ptr <- $r5
	@DEBUG_VALUE: das_hex_cmd_get_udp_ip:message <- $r5
	@DEBUG_VALUE: das_hex_cmd_crc_calculate:hex_ptr_lens <- $r0
	@DEBUG_VALUE: das_hex_cmd_crc_calculate:crc_8 <- -109
	@DEBUG_VALUE: das_hex_cmd_crc_calculate:i <- 1
	@DEBUG_VALUE: das_hex_cmd_get_udp_ip:cmd_crc <- -1
	.loc	2 87 5 is_stmt 1                @ ../das_subg_thread/das_hex_cmd.c:87:5
	subs	r2, r1, #1
	adds	r3, r5, #1
	movs	r1, #147
.Ltmp38:
	.p2align	2
.LBB3_10:                               @ =>This Inner Loop Header: Depth=1
	@DEBUG_VALUE: das_hex_cmd_crc_calculate:hex_ptr <- $r5
	@DEBUG_VALUE: das_hex_cmd_get_udp_ip:message <- $r5
	@DEBUG_VALUE: das_hex_cmd_crc_calculate:hex_ptr_lens <- $r0
	@DEBUG_VALUE: das_hex_cmd_get_udp_ip:cmd_crc <- -1
	.loc	2 89 18                         @ ../das_subg_thread/das_hex_cmd.c:89:18
	ldrb	r7, [r3], #1
.Ltmp39:
	@DEBUG_VALUE: das_hex_cmd_crc_calculate:i <- undef
	@DEBUG_VALUE: das_hex_cmd_crc_calculate:crc_8 <- $r1
	.loc	2 87 19                         @ ../das_subg_thread/das_hex_cmd.c:87:19
	subs	r2, #1
.Ltmp40:
	.loc	2 89 15                         @ ../das_subg_thread/das_hex_cmd.c:89:15
	add	r1, r7
.Ltmp41:
	@DEBUG_VALUE: das_hex_cmd_crc_calculate:i <- [DW_OP_plus_uconst 1, DW_OP_stack_value] undef
	@DEBUG_VALUE: das_hex_cmd_crc_calculate:crc_8 <- $r1
	.loc	2 87 5                          @ ../das_subg_thread/das_hex_cmd.c:87:5
	bne	.LBB3_10
.Ltmp42:
.LBB3_11:
	@DEBUG_VALUE: das_hex_cmd_get_udp_ip:message <- $r5
	@DEBUG_VALUE: das_hex_cmd_get_udp_ip:cmd_crc <- -1
	@DEBUG_VALUE: das_hex_cmd_get_udp_ip:cmd_crc <- $r1
	.loc	2 217 34                        @ ../das_subg_thread/das_hex_cmd.c:217:34
	strb	r1, [r5, r0]
.Ltmp43:
	@DEBUG_VALUE: das_hex_cmd_send:cmd_data_lens <- undef
	@DEBUG_VALUE: das_hex_cmd_send:cmd_data <- $r5
	.loc	2 71 5                          @ ../das_subg_thread/das_hex_cmd.c:71:5
	movs	r0, #2
	mov	r1, r5
.Ltmp44:
	mov	r2, r4
	bl	app_uart_data_send
.Ltmp45:
	.loc	2 223 9                         @ ../das_subg_thread/das_hex_cmd.c:223:9
	mov	r0, r5
	add	sp, #4
	pop.w	{r4, r5, r6, r7, lr}
.Ltmp46:
	b	vPortFree
.Ltmp47:
.Lfunc_end3:
	.size	das_hex_cmd_get_udp_ip, .Lfunc_end3-das_hex_cmd_get_udp_ip
	.cfi_endproc
	.file	9 "D:\\20240115\\rafael-iot-sdk-das\\examples\\das_subg_thread\\keil" "../../../components/platform/soc/rt582/rt582_freertos/Inc/portable.h"
	.cantunwind
	.fnend
                                        @ -- End function
	.section	.text.das_hex_cmd_get_udp_port,"ax",%progbits
	.hidden	das_hex_cmd_get_udp_port        @ -- Begin function das_hex_cmd_get_udp_port
	.globl	das_hex_cmd_get_udp_port
	.p2align	1
	.type	das_hex_cmd_get_udp_port,%function
	.code	16                              @ @das_hex_cmd_get_udp_port
	.thumb_func
das_hex_cmd_get_udp_port:
.Lfunc_begin4:
	.loc	2 229 0                         @ ../das_subg_thread/das_hex_cmd.c:229:0
	.fnstart
	.cfi_startproc
@ %bb.0:
	@DEBUG_VALUE: das_hex_cmd_get_udp_port:Param <- $r0
	@DEBUG_VALUE: das_hex_cmd_get_udp_port:lens <- $r1
	.loc	2 231 1 prologue_end            @ ../das_subg_thread/das_hex_cmd.c:231:1
	bx	lr
.Ltmp48:
.Lfunc_end4:
	.size	das_hex_cmd_get_udp_port, .Lfunc_end4-das_hex_cmd_get_udp_port
	.cfi_endproc
	.cantunwind
	.fnend
                                        @ -- End function
	.section	.text.das_hex_cmd_get_udp_received_data,"ax",%progbits
	.hidden	das_hex_cmd_get_udp_received_data @ -- Begin function das_hex_cmd_get_udp_received_data
	.globl	das_hex_cmd_get_udp_received_data
	.p2align	1
	.type	das_hex_cmd_get_udp_received_data,%function
	.code	16                              @ @das_hex_cmd_get_udp_received_data
	.thumb_func
das_hex_cmd_get_udp_received_data:
.Lfunc_begin5:
	.loc	2 235 0                         @ ../das_subg_thread/das_hex_cmd.c:235:0
	.fnstart
	.cfi_startproc
@ %bb.0:
	@DEBUG_VALUE: das_hex_cmd_get_udp_received_data:Param <- $r0
	@DEBUG_VALUE: das_hex_cmd_get_udp_received_data:lens <- $r1
	.save	{r4, r5, r6, r7, lr}
	push	{r4, r5, r6, r7, lr}
	.cfi_def_cfa_offset 20
	.cfi_offset lr, -4
	.cfi_offset r7, -8
	.cfi_offset r6, -12
	.cfi_offset r5, -16
	.cfi_offset r4, -20
	.pad	#4
	sub	sp, #4
	.cfi_def_cfa_offset 24
	mov	r7, r0
.Ltmp49:
	@DEBUG_VALUE: das_hex_cmd_get_udp_received_data:Param <- $r7
	@DEBUG_VALUE: das_hex_cmd_get_udp_received_data:lens <- $r6
	@DEBUG_VALUE: das_hex_cmd_get_udp_received_data:Param <- $r7
	.loc	2 236 33 prologue_end           @ ../das_subg_thread/das_hex_cmd.c:236:33
	adds	r0, r1, #5
.Ltmp50:
	@DEBUG_VALUE: das_hex_cmd_get_udp_received_data:message_len <- $r0
	.loc	2 237 37                        @ ../das_subg_thread/das_hex_cmd.c:237:37
	uxth	r4, r0
	.loc	2 237 24 is_stmt 0              @ ../das_subg_thread/das_hex_cmd.c:237:24
	mov	r0, r4
.Ltmp51:
	.loc	2 0 24                          @ ../das_subg_thread/das_hex_cmd.c:0:24
	mov	r6, r1
.Ltmp52:
	.loc	2 237 24                        @ ../das_subg_thread/das_hex_cmd.c:237:24
	bl	pvPortMalloc
.Ltmp53:
	@DEBUG_VALUE: das_hex_cmd_get_udp_received_data:cmd_crc <- -1
	@DEBUG_VALUE: das_hex_cmd_get_udp_received_data:message <- $r0
	.loc	2 239 9 is_stmt 1               @ ../das_subg_thread/das_hex_cmd.c:239:9
	cbz	r0, .LBB5_7
.Ltmp54:
@ %bb.1:
	@DEBUG_VALUE: das_hex_cmd_get_udp_received_data:Param <- $r7
	@DEBUG_VALUE: das_hex_cmd_get_udp_received_data:message <- $r0
	@DEBUG_VALUE: das_hex_cmd_get_udp_received_data:cmd_crc <- -1
	.loc	2 0 9 is_stmt 0                 @ ../das_subg_thread/das_hex_cmd.c:0:9
	mov	r5, r0
.Ltmp55:
	@DEBUG_VALUE: das_hex_cmd_get_udp_received_data:message <- $r5
	@DEBUG_VALUE: das_hex_cmd_get_udp_received_data:message <- $r5
	movs	r0, #147
.Ltmp56:
	.loc	2 241 20 is_stmt 1              @ ../das_subg_thread/das_hex_cmd.c:241:20
	strb	r0, [r5]
	.loc	2 242 29                        @ ../das_subg_thread/das_hex_cmd.c:242:29
	adds	r0, r6, #2
	.loc	2 242 34 is_stmt 0              @ ../das_subg_thread/das_hex_cmd.c:242:34
	lsrs	r1, r0, #8
	.loc	2 243 20 is_stmt 1              @ ../das_subg_thread/das_hex_cmd.c:243:20
	strb	r0, [r5, #2]
	movs	r0, #48
	.loc	2 242 20                        @ ../das_subg_thread/das_hex_cmd.c:242:20
	strb	r1, [r5, #1]
	.loc	2 244 20                        @ ../das_subg_thread/das_hex_cmd.c:244:20
	strb	r0, [r5, #3]
.Ltmp57:
	@DEBUG_VALUE: i <- 0
	.loc	2 246 9                         @ ../das_subg_thread/das_hex_cmd.c:246:9
	cbz	r6, .LBB5_4
.Ltmp58:
@ %bb.2:
	@DEBUG_VALUE: das_hex_cmd_get_udp_received_data:Param <- $r7
	@DEBUG_VALUE: das_hex_cmd_get_udp_received_data:message <- $r5
	@DEBUG_VALUE: i <- 0
	@DEBUG_VALUE: das_hex_cmd_get_udp_received_data:cmd_crc <- -1
	adds	r0, r5, #4
.Ltmp59:
	.p2align	2
.LBB5_3:                                @ =>This Inner Loop Header: Depth=1
	@DEBUG_VALUE: das_hex_cmd_get_udp_received_data:message <- $r5
	@DEBUG_VALUE: das_hex_cmd_get_udp_received_data:cmd_crc <- -1
	@DEBUG_VALUE: i <- undef
	.loc	2 248 37                        @ ../das_subg_thread/das_hex_cmd.c:248:37
	ldrb	r1, [r7], #1
.Ltmp60:
	.loc	2 246 32                        @ ../das_subg_thread/das_hex_cmd.c:246:32
	subs	r6, #1
.Ltmp61:
	.loc	2 248 30                        @ ../das_subg_thread/das_hex_cmd.c:248:30
	strb	r1, [r0], #1
.Ltmp62:
	@DEBUG_VALUE: i <- [DW_OP_plus_uconst 1, DW_OP_stack_value] undef
	.loc	2 246 9                         @ ../das_subg_thread/das_hex_cmd.c:246:9
	bne	.LBB5_3
.Ltmp63:
.LBB5_4:
	@DEBUG_VALUE: das_hex_cmd_get_udp_received_data:message <- $r5
	@DEBUG_VALUE: das_hex_cmd_get_udp_received_data:cmd_crc <- -1
	.loc	2 251 80                        @ ../das_subg_thread/das_hex_cmd.c:251:80
	subs	r0, r4, #1
.Ltmp64:
	@DEBUG_VALUE: das_hex_cmd_crc_calculate:hex_ptr_lens <- $r0
	@DEBUG_VALUE: das_hex_cmd_crc_calculate:i <- 0
	@DEBUG_VALUE: das_hex_cmd_crc_calculate:crc_8 <- 0
	@DEBUG_VALUE: das_hex_cmd_crc_calculate:hex_ptr <- $r5
	.loc	2 87 5                          @ ../das_subg_thread/das_hex_cmd.c:87:5
	lsls	r1, r0, #16
	beq	.LBB5_8
.Ltmp65:
@ %bb.5:
	@DEBUG_VALUE: das_hex_cmd_crc_calculate:hex_ptr <- $r5
	@DEBUG_VALUE: das_hex_cmd_get_udp_received_data:message <- $r5
	@DEBUG_VALUE: das_hex_cmd_crc_calculate:hex_ptr_lens <- $r0
	@DEBUG_VALUE: das_hex_cmd_crc_calculate:crc_8 <- 0
	@DEBUG_VALUE: das_hex_cmd_crc_calculate:i <- 0
	@DEBUG_VALUE: das_hex_cmd_get_udp_received_data:cmd_crc <- -1
	.loc	2 87 19 is_stmt 0               @ ../das_subg_thread/das_hex_cmd.c:87:19
	uxth	r1, r0
.Ltmp66:
	@DEBUG_VALUE: das_hex_cmd_crc_calculate:i <- 1
	@DEBUG_VALUE: das_hex_cmd_crc_calculate:crc_8 <- -109
	.loc	2 87 5                          @ ../das_subg_thread/das_hex_cmd.c:87:5
	cmp	r1, #1
	bne	.LBB5_9
.Ltmp67:
@ %bb.6:
	@DEBUG_VALUE: das_hex_cmd_crc_calculate:hex_ptr <- $r5
	@DEBUG_VALUE: das_hex_cmd_get_udp_received_data:message <- $r5
	@DEBUG_VALUE: das_hex_cmd_crc_calculate:hex_ptr_lens <- $r0
	@DEBUG_VALUE: das_hex_cmd_crc_calculate:crc_8 <- -109
	@DEBUG_VALUE: das_hex_cmd_crc_calculate:i <- 1
	@DEBUG_VALUE: das_hex_cmd_get_udp_received_data:cmd_crc <- -1
	.loc	2 0 5                           @ ../das_subg_thread/das_hex_cmd.c:0:5
	movs	r1, #147
	b	.LBB5_11
.Ltmp68:
.LBB5_7:
	@DEBUG_VALUE: das_hex_cmd_get_udp_received_data:Param <- $r7
	@DEBUG_VALUE: das_hex_cmd_get_udp_received_data:message <- $r0
	@DEBUG_VALUE: das_hex_cmd_get_udp_received_data:cmd_crc <- -1
	.loc	2 260 1 is_stmt 1               @ ../das_subg_thread/das_hex_cmd.c:260:1
	add	sp, #4
	pop	{r4, r5, r6, r7, pc}
.Ltmp69:
.LBB5_8:
	@DEBUG_VALUE: das_hex_cmd_crc_calculate:hex_ptr <- $r5
	@DEBUG_VALUE: das_hex_cmd_get_udp_received_data:message <- $r5
	@DEBUG_VALUE: das_hex_cmd_crc_calculate:hex_ptr_lens <- $r0
	@DEBUG_VALUE: das_hex_cmd_crc_calculate:crc_8 <- 0
	@DEBUG_VALUE: das_hex_cmd_crc_calculate:i <- 0
	@DEBUG_VALUE: das_hex_cmd_get_udp_received_data:cmd_crc <- -1
	.loc	2 0 1 is_stmt 0                 @ ../das_subg_thread/das_hex_cmd.c:0:1
	movs	r1, #0
	b	.LBB5_11
.Ltmp70:
.LBB5_9:
	@DEBUG_VALUE: das_hex_cmd_crc_calculate:hex_ptr <- $r5
	@DEBUG_VALUE: das_hex_cmd_get_udp_received_data:message <- $r5
	@DEBUG_VALUE: das_hex_cmd_crc_calculate:hex_ptr_lens <- $r0
	@DEBUG_VALUE: das_hex_cmd_crc_calculate:crc_8 <- -109
	@DEBUG_VALUE: das_hex_cmd_crc_calculate:i <- 1
	@DEBUG_VALUE: das_hex_cmd_get_udp_received_data:cmd_crc <- -1
	.loc	2 87 5 is_stmt 1                @ ../das_subg_thread/das_hex_cmd.c:87:5
	subs	r2, r1, #1
	adds	r3, r5, #1
	movs	r1, #147
.Ltmp71:
	.p2align	2
.LBB5_10:                               @ =>This Inner Loop Header: Depth=1
	@DEBUG_VALUE: das_hex_cmd_crc_calculate:hex_ptr <- $r5
	@DEBUG_VALUE: das_hex_cmd_get_udp_received_data:message <- $r5
	@DEBUG_VALUE: das_hex_cmd_crc_calculate:hex_ptr_lens <- $r0
	@DEBUG_VALUE: das_hex_cmd_get_udp_received_data:cmd_crc <- -1
	.loc	2 89 18                         @ ../das_subg_thread/das_hex_cmd.c:89:18
	ldrb	r7, [r3], #1
.Ltmp72:
	@DEBUG_VALUE: das_hex_cmd_crc_calculate:i <- undef
	@DEBUG_VALUE: das_hex_cmd_crc_calculate:crc_8 <- $r1
	.loc	2 87 19                         @ ../das_subg_thread/das_hex_cmd.c:87:19
	subs	r2, #1
.Ltmp73:
	.loc	2 89 15                         @ ../das_subg_thread/das_hex_cmd.c:89:15
	add	r1, r7
.Ltmp74:
	@DEBUG_VALUE: das_hex_cmd_crc_calculate:i <- [DW_OP_plus_uconst 1, DW_OP_stack_value] undef
	@DEBUG_VALUE: das_hex_cmd_crc_calculate:crc_8 <- $r1
	.loc	2 87 5                          @ ../das_subg_thread/das_hex_cmd.c:87:5
	bne	.LBB5_10
.Ltmp75:
.LBB5_11:
	@DEBUG_VALUE: das_hex_cmd_get_udp_received_data:message <- $r5
	@DEBUG_VALUE: das_hex_cmd_get_udp_received_data:cmd_crc <- -1
	@DEBUG_VALUE: das_hex_cmd_get_udp_received_data:cmd_crc <- $r1
	.loc	2 252 34                        @ ../das_subg_thread/das_hex_cmd.c:252:34
	strb	r1, [r5, r0]
.Ltmp76:
	@DEBUG_VALUE: das_hex_cmd_send:cmd_data_lens <- undef
	@DEBUG_VALUE: das_hex_cmd_send:cmd_data <- $r5
	.loc	2 71 5                          @ ../das_subg_thread/das_hex_cmd.c:71:5
	movs	r0, #2
	mov	r1, r5
.Ltmp77:
	mov	r2, r4
	bl	app_uart_data_send
.Ltmp78:
	.loc	2 258 9                         @ ../das_subg_thread/das_hex_cmd.c:258:9
	mov	r0, r5
	add	sp, #4
	pop.w	{r4, r5, r6, r7, lr}
.Ltmp79:
	b	vPortFree
.Ltmp80:
.Lfunc_end5:
	.size	das_hex_cmd_get_udp_received_data, .Lfunc_end5-das_hex_cmd_get_udp_received_data
	.cfi_endproc
	.cantunwind
	.fnend
                                        @ -- End function
	.section	.text.das_hex_cmd_command_bootup,"ax",%progbits
	.hidden	das_hex_cmd_command_bootup      @ -- Begin function das_hex_cmd_command_bootup
	.globl	das_hex_cmd_command_bootup
	.p2align	1
	.type	das_hex_cmd_command_bootup,%function
	.code	16                              @ @das_hex_cmd_command_bootup
	.thumb_func
das_hex_cmd_command_bootup:
.Lfunc_begin6:
	.loc	2 264 0                         @ ../das_subg_thread/das_hex_cmd.c:264:0
	.fnstart
	.cfi_startproc
@ %bb.0:
	.save	{r7, lr}
	push	{r7, lr}
	.cfi_def_cfa_offset 8
	.cfi_offset lr, -4
	.cfi_offset r7, -8
	.pad	#8
	sub	sp, #8
	.cfi_def_cfa_offset 16
	movs	r0, #147
	movt	r0, #16386
.Ltmp81:
	.loc	2 267 16 prologue_end           @ ../das_subg_thread/das_hex_cmd.c:267:16
	str.w	r0, [sp, #3]
	movs	r0, #213
	.loc	2 271 16                        @ ../das_subg_thread/das_hex_cmd.c:271:16
	strb.w	r0, [sp, #7]
.Ltmp82:
	@DEBUG_VALUE: das_hex_cmd_send:cmd_data_lens <- 5
	.loc	2 0 16 is_stmt 0                @ ../das_subg_thread/das_hex_cmd.c:0:16
	add.w	r1, sp, #3
.Ltmp83:
	@DEBUG_VALUE: das_hex_cmd_send:cmd_data <- [DW_OP_plus_uconst 3, DW_OP_stack_value] $sp
	.loc	2 71 5 is_stmt 1                @ ../das_subg_thread/das_hex_cmd.c:71:5
	movs	r0, #2
	movs	r2, #5
	bl	app_uart_data_send
.Ltmp84:
	.loc	2 274 1                         @ ../das_subg_thread/das_hex_cmd.c:274:1
	add	sp, #8
	pop	{r7, pc}
.Ltmp85:
.Lfunc_end6:
	.size	das_hex_cmd_command_bootup, .Lfunc_end6-das_hex_cmd_command_bootup
	.cfi_endproc
	.cantunwind
	.fnend
                                        @ -- End function
	.section	.text.das_hex_cmd_state_change,"ax",%progbits
	.hidden	das_hex_cmd_state_change        @ -- Begin function das_hex_cmd_state_change
	.globl	das_hex_cmd_state_change
	.p2align	1
	.type	das_hex_cmd_state_change,%function
	.code	16                              @ @das_hex_cmd_state_change
	.thumb_func
das_hex_cmd_state_change:
.Lfunc_begin7:
	.loc	2 278 0                         @ ../das_subg_thread/das_hex_cmd.c:278:0
	.fnstart
	.cfi_startproc
@ %bb.0:
	@DEBUG_VALUE: das_hex_cmd_state_change:state <- $r0
	.save	{r7, lr}
	push	{r7, lr}
	.cfi_def_cfa_offset 8
	.cfi_offset lr, -4
	.cfi_offset r7, -8
	.pad	#8
	sub	sp, #8
	.cfi_def_cfa_offset 16
	movs	r1, #147
	movt	r1, #20483
.Ltmp86:
	@DEBUG_VALUE: das_hex_cmd_state_change:crc <- -26
	@DEBUG_VALUE: das_hex_cmd_state_change:state <- $r0
	.loc	2 286 16 prologue_end           @ ../das_subg_thread/das_hex_cmd.c:286:16
	strb.w	r0, [sp, #6]
	.loc	2 287 9                         @ ../das_subg_thread/das_hex_cmd.c:287:9
	subs	r0, #26
.Ltmp87:
	@DEBUG_VALUE: das_hex_cmd_state_change:state <- [DW_OP_LLVM_entry_value 1] $r0
	@DEBUG_VALUE: das_hex_cmd_state_change:crc <- $r0
	.loc	2 282 16                        @ ../das_subg_thread/das_hex_cmd.c:282:16
	str.w	r1, [sp, #2]
	.loc	2 288 16                        @ ../das_subg_thread/das_hex_cmd.c:288:16
	strb.w	r0, [sp, #7]
.Ltmp88:
	@DEBUG_VALUE: das_hex_cmd_send:cmd_data_lens <- 6
	.loc	2 0 16 is_stmt 0                @ ../das_subg_thread/das_hex_cmd.c:0:16
	add.w	r1, sp, #2
.Ltmp89:
	@DEBUG_VALUE: das_hex_cmd_send:cmd_data <- [DW_OP_plus_uconst 2, DW_OP_stack_value] $sp
	.loc	2 71 5 is_stmt 1                @ ../das_subg_thread/das_hex_cmd.c:71:5
	movs	r0, #2
.Ltmp90:
	movs	r2, #6
	bl	app_uart_data_send
.Ltmp91:
	.loc	2 291 1                         @ ../das_subg_thread/das_hex_cmd.c:291:1
	add	sp, #8
	pop	{r7, pc}
.Ltmp92:
.Lfunc_end7:
	.size	das_hex_cmd_state_change, .Lfunc_end7-das_hex_cmd_state_change
	.cfi_endproc
	.cantunwind
	.fnend
                                        @ -- End function
	.section	.text.das_hex_cmd_get_meter_id,"ax",%progbits
	.hidden	das_hex_cmd_get_meter_id        @ -- Begin function das_hex_cmd_get_meter_id
	.globl	das_hex_cmd_get_meter_id
	.p2align	1
	.type	das_hex_cmd_get_meter_id,%function
	.code	16                              @ @das_hex_cmd_get_meter_id
	.thumb_func
das_hex_cmd_get_meter_id:
.Lfunc_begin8:
	.loc	2 421 0                         @ ../das_subg_thread/das_hex_cmd.c:421:0
	.fnstart
	.cfi_startproc
@ %bb.0:
	.save	{r7, lr}
	push	{r7, lr}
	.cfi_def_cfa_offset 8
	.cfi_offset lr, -4
	.cfi_offset r7, -8
	.pad	#8
	sub	sp, #8
	.cfi_def_cfa_offset 16
	mov.w	r0, #1073741824
.Ltmp93:
	@DEBUG_VALUE: gpio_pin_get:pin_number <- 30
	.loc	8 248 20 prologue_end           @ ../../../components/platform/soc/rt582/rt582_driver/Inc/gpio.h:248:20
	ldr	r0, [r0]
.Ltmp94:
	.loc	2 422 9                         @ ../das_subg_thread/das_hex_cmd.c:422:9
	lsls	r0, r0, #1
	bmi	.LBB8_2
.Ltmp95:
@ %bb.1:
	.loc	2 0 9 is_stmt 0                 @ ../das_subg_thread/das_hex_cmd.c:0:9
	movs	r0, #147
	movt	r0, #36866
.Ltmp96:
	.loc	2 426 20 is_stmt 1              @ ../das_subg_thread/das_hex_cmd.c:426:20
	str.w	r0, [sp, #3]
	movs	r0, #37
	.loc	2 430 20                        @ ../das_subg_thread/das_hex_cmd.c:430:20
	strb.w	r0, [sp, #7]
.Ltmp97:
	@DEBUG_VALUE: das_hex_cmd_send:cmd_data_lens <- 5
	.loc	2 0 20 is_stmt 0                @ ../das_subg_thread/das_hex_cmd.c:0:20
	add.w	r1, sp, #3
.Ltmp98:
	@DEBUG_VALUE: das_hex_cmd_send:cmd_data <- [DW_OP_plus_uconst 3, DW_OP_stack_value] $sp
	.loc	2 71 5 is_stmt 1                @ ../das_subg_thread/das_hex_cmd.c:71:5
	movs	r0, #2
	movs	r2, #5
	bl	app_uart_data_send
.Ltmp99:
.LBB8_2:
	.loc	2 434 1                         @ ../das_subg_thread/das_hex_cmd.c:434:1
	add	sp, #8
	pop	{r7, pc}
.Ltmp100:
.Lfunc_end8:
	.size	das_hex_cmd_get_meter_id, .Lfunc_end8-das_hex_cmd_get_meter_id
	.cfi_endproc
	.cantunwind
	.fnend
                                        @ -- End function
	.section	.text.das_hex_cmd_received_task,"ax",%progbits
	.hidden	das_hex_cmd_received_task       @ -- Begin function das_hex_cmd_received_task
	.globl	das_hex_cmd_received_task
	.p2align	1
	.type	das_hex_cmd_received_task,%function
	.code	16                              @ @das_hex_cmd_received_task
	.thumb_func
das_hex_cmd_received_task:
.Lfunc_begin9:
	.loc	2 675 0                         @ ../das_subg_thread/das_hex_cmd.c:675:0
	.fnstart
	.cfi_startproc
@ %bb.0:
	@DEBUG_VALUE: das_hex_cmd_received_task:aBuf <- $r0
	@DEBUG_VALUE: das_hex_cmd_received_task:aBuf <- $r0
	@DEBUG_VALUE: das_hex_cmd_received_task:aBufLength <- $r1
	@DEBUG_VALUE: das_hex_cmd_received_task:aBufLength <- $r1
	.save	{r4, r5, r6, r7, r8, r9, r10, r11, lr}
	push.w	{r4, r5, r6, r7, r8, r9, r10, r11, lr}
	.cfi_def_cfa_offset 36
	.cfi_offset lr, -4
	.cfi_offset r11, -8
	.cfi_offset r10, -12
	.cfi_offset r9, -16
	.cfi_offset r8, -20
	.cfi_offset r7, -24
	.cfi_offset r6, -28
	.cfi_offset r5, -32
	.cfi_offset r4, -36
	.pad	#108
	sub	sp, #108
	.cfi_def_cfa_offset 144
.Ltmp101:
	@DEBUG_VALUE: das_hex_cmd_received_task:end <- undef
	.loc	2 0 0 prologue_end              @ ../das_subg_thread/das_hex_cmd.c:0:0
	movw	r6, :lower16:das_rx_length
	movt	r6, :upper16:das_rx_length
	ldrh	r2, [r6]
	movw	r5, :lower16:das_rx_buf
	movt	r5, :upper16:das_rx_buf
.Ltmp102:
	.loc	2 679 5                         @ ../das_subg_thread/das_hex_cmd.c:679:5
	cbz	r1, .LBB9_8
.Ltmp103:
@ %bb.1:
	@DEBUG_VALUE: das_hex_cmd_received_task:aBufLength <- $r1
	@DEBUG_VALUE: das_hex_cmd_received_task:aBuf <- $r0
	.loc	2 0 5 is_stmt 0                 @ ../das_subg_thread/das_hex_cmd.c:0:5
	add	r1, r0
.Ltmp104:
	@DEBUG_VALUE: das_hex_cmd_received_task:aBufLength <- [DW_OP_LLVM_entry_value 1] $r1
	@DEBUG_VALUE: das_hex_cmd_received_task:end <- $r1
	.loc	2 681 13 is_stmt 1              @ ../das_subg_thread/das_hex_cmd.c:681:13
	mov	r3, r2
.Ltmp105:
	.p2align	2
.LBB9_2:                                @ =>This Inner Loop Header: Depth=1
	@DEBUG_VALUE: das_hex_cmd_received_task:end <- $r1
	@DEBUG_VALUE: das_hex_cmd_received_task:aBuf <- $r0
	@DEBUG_VALUE: das_hex_cmd_received_task:aBufLength <- [DW_OP_LLVM_entry_value 1] $r1
	@DEBUG_VALUE: das_hex_cmd_received_task:aBuf <- $r0
	.loc	2 0 0 is_stmt 0                 @ ../das_subg_thread/das_hex_cmd.c:0:0
	ldrb	r7, [r0]
	.loc	2 681 32                        @ ../das_subg_thread/das_hex_cmd.c:681:32
	lsls	r4, r3, #16
	bne	.LBB9_5
.Ltmp106:
@ %bb.3:                                @   in Loop: Header=BB9_2 Depth=1
	@DEBUG_VALUE: das_hex_cmd_received_task:end <- $r1
	@DEBUG_VALUE: das_hex_cmd_received_task:aBuf <- $r0
	@DEBUG_VALUE: das_hex_cmd_received_task:aBufLength <- [DW_OP_LLVM_entry_value 1] $r1
	.loc	2 681 13                        @ ../das_subg_thread/das_hex_cmd.c:681:13
	cmp	r7, #147
	bne	.LBB9_7
.Ltmp107:
@ %bb.4:                                @   in Loop: Header=BB9_2 Depth=1
	@DEBUG_VALUE: das_hex_cmd_received_task:end <- $r1
	@DEBUG_VALUE: das_hex_cmd_received_task:aBuf <- $r0
	@DEBUG_VALUE: das_hex_cmd_received_task:aBufLength <- [DW_OP_LLVM_entry_value 1] $r1
	.loc	2 0 13                          @ ../das_subg_thread/das_hex_cmd.c:0:13
	movs	r7, #147
.Ltmp108:
.LBB9_5:                                @   in Loop: Header=BB9_2 Depth=1
	@DEBUG_VALUE: das_hex_cmd_received_task:end <- $r1
	@DEBUG_VALUE: das_hex_cmd_received_task:aBuf <- $r0
	@DEBUG_VALUE: das_hex_cmd_received_task:aBufLength <- [DW_OP_LLVM_entry_value 1] $r1
	.loc	2 683 37 is_stmt 1              @ ../das_subg_thread/das_hex_cmd.c:683:37
	adds	r2, r3, #1
	.loc	2 683 13 is_stmt 0              @ ../das_subg_thread/das_hex_cmd.c:683:13
	uxth	r3, r3
	.loc	2 683 41                        @ ../das_subg_thread/das_hex_cmd.c:683:41
	strb	r7, [r5, r3]
	mov	r3, r2
	.loc	2 683 37                        @ ../das_subg_thread/das_hex_cmd.c:683:37
	strh	r2, [r6]
.Ltmp109:
.LBB9_6:                                @   in Loop: Header=BB9_2 Depth=1
	@DEBUG_VALUE: das_hex_cmd_received_task:end <- $r1
	@DEBUG_VALUE: das_hex_cmd_received_task:aBuf <- $r0
	@DEBUG_VALUE: das_hex_cmd_received_task:aBufLength <- [DW_OP_LLVM_entry_value 1] $r1
	.loc	2 679 28 is_stmt 1              @ ../das_subg_thread/das_hex_cmd.c:679:28
	adds	r0, #1
.Ltmp110:
	@DEBUG_VALUE: das_hex_cmd_received_task:aBuf <- [DW_OP_LLVM_entry_value 1] $r0
	@DEBUG_VALUE: das_hex_cmd_received_task:aBuf <- $r0
	.loc	2 679 5 is_stmt 0               @ ../das_subg_thread/das_hex_cmd.c:679:5
	cmp	r0, r1
	blo	.LBB9_2
	b	.LBB9_8
.Ltmp111:
.LBB9_7:                                @   in Loop: Header=BB9_2 Depth=1
	@DEBUG_VALUE: das_hex_cmd_received_task:end <- $r1
	@DEBUG_VALUE: das_hex_cmd_received_task:aBuf <- $r0
	@DEBUG_VALUE: das_hex_cmd_received_task:aBufLength <- [DW_OP_LLVM_entry_value 1] $r1
	.loc	2 0 5                           @ ../das_subg_thread/das_hex_cmd.c:0:5
	movs	r3, #0
	b	.LBB9_6
.Ltmp112:
.LBB9_8:
	@DEBUG_VALUE: das_hex_cmd_received_task:aBuf <- $r0
	.loc	2 687 23 is_stmt 1              @ ../das_subg_thread/das_hex_cmd.c:687:23
	uxth	r3, r2
.Ltmp113:
	.loc	2 687 9 is_stmt 0               @ ../das_subg_thread/das_hex_cmd.c:687:9
	cmp	r3, #4
	blo.w	.LBB9_106
.Ltmp114:
@ %bb.9:
	@DEBUG_VALUE: das_hex_cmd_received_task:aBuf <- $r0
	.loc	2 689 22 is_stmt 1              @ ../das_subg_thread/das_hex_cmd.c:689:22
	ldrb	r2, [r5, #1]
	.loc	2 689 44 is_stmt 0              @ ../das_subg_thread/das_hex_cmd.c:689:44
	ldrb	r0, [r5, #2]
.Ltmp115:
	@DEBUG_VALUE: das_hex_cmd_received_task:aBuf <- [DW_OP_LLVM_entry_value 1] $r0
	.loc	2 689 42                        @ ../das_subg_thread/das_hex_cmd.c:689:42
	orr.w	r0, r0, r2, lsl #8
.Ltmp116:
	@DEBUG_VALUE: das_hex_cmd_received_task:cmd_length <- $r0
	.loc	2 690 42 is_stmt 1              @ ../das_subg_thread/das_hex_cmd.c:690:42
	adds	r1, r0, #3
.Ltmp117:
	.loc	2 690 13 is_stmt 0              @ ../das_subg_thread/das_hex_cmd.c:690:13
	cmp	r1, r3
	bhi.w	.LBB9_106
.Ltmp118:
@ %bb.10:
	@DEBUG_VALUE: das_hex_cmd_received_task:cmd_length <- $r0
	@DEBUG_VALUE: das_hex_cmd_received_task:aBuf <- [DW_OP_LLVM_entry_value 1] $r0
	@DEBUG_VALUE: das_hex_cmd_process:aBufLength <- undef
	@DEBUG_VALUE: das_hex_cmd_process:crc <- 0
	@DEBUG_VALUE: das_hex_cmd_process:cmd_id <- -1
	@DEBUG_VALUE: das_hex_cmd_process:cmd_len <- 0
	@DEBUG_VALUE: das_hex_cmd_process:aBuf <- $r5
	.loc	2 654 13 is_stmt 1              @ ../das_subg_thread/das_hex_cmd.c:654:13
	ldrb	r1, [r5]
.Ltmp119:
	.loc	2 654 13 is_stmt 0              @ ../das_subg_thread/das_hex_cmd.c:654:13
	cmp	r1, #147
	bne.w	.LBB9_105
.Ltmp120:
@ %bb.11:
	@DEBUG_VALUE: das_hex_cmd_process:aBuf <- $r5
	@DEBUG_VALUE: das_hex_cmd_received_task:cmd_length <- $r0
	@DEBUG_VALUE: das_hex_cmd_process:cmd_len <- 0
	@DEBUG_VALUE: das_hex_cmd_process:cmd_id <- -1
	@DEBUG_VALUE: das_hex_cmd_process:crc <- 0
	@DEBUG_VALUE: das_hex_cmd_received_task:aBuf <- [DW_OP_LLVM_entry_value 1] $r0
	.loc	2 659 18 is_stmt 1              @ ../das_subg_thread/das_hex_cmd.c:659:18
	ldrb.w	r8, [r5, #3]
.Ltmp121:
	@DEBUG_VALUE: das_hex_cmd_process:cmd_len <- [DW_OP_LLVM_convert 32 7, DW_OP_LLVM_convert 16 7, DW_OP_stack_value] undef
	@DEBUG_VALUE: das_hex_cmd_process:cmd_id <- undef
	.loc	2 662 71                        @ ../das_subg_thread/das_hex_cmd.c:662:71
	subs	r1, r3, #1
.Ltmp122:
	@DEBUG_VALUE: das_hex_cmd_crc_calculate:i <- 1
	@DEBUG_VALUE: das_hex_cmd_crc_calculate:crc_8 <- -109
	@DEBUG_VALUE: das_hex_cmd_crc_calculate:hex_ptr_lens <- [DW_OP_LLVM_convert 32 7, DW_OP_LLVM_convert 16 7, DW_OP_stack_value] $r1
	.loc	2 87 5                          @ ../das_subg_thread/das_hex_cmd.c:87:5
	cmp	r1, #2
.Ltmp123:
	@DEBUG_VALUE: das_hex_cmd_crc_calculate:hex_ptr <- undef
	.loc	2 89 15                         @ ../das_subg_thread/das_hex_cmd.c:89:15
	sub.w	r2, r2, #109
.Ltmp124:
	@DEBUG_VALUE: das_hex_cmd_crc_calculate:i <- 2
	@DEBUG_VALUE: das_hex_cmd_crc_calculate:crc_8 <- $r2
	.loc	2 87 5                          @ ../das_subg_thread/das_hex_cmd.c:87:5
	beq	.LBB9_14
.Ltmp125:
@ %bb.12:
	@DEBUG_VALUE: das_hex_cmd_process:aBuf <- $r5
	@DEBUG_VALUE: das_hex_cmd_crc_calculate:crc_8 <- $r2
	@DEBUG_VALUE: das_hex_cmd_crc_calculate:hex_ptr_lens <- [DW_OP_LLVM_convert 32 7, DW_OP_LLVM_convert 16 7, DW_OP_stack_value] $r1
	@DEBUG_VALUE: das_hex_cmd_received_task:cmd_length <- $r0
	@DEBUG_VALUE: das_hex_cmd_crc_calculate:i <- 2
	@DEBUG_VALUE: das_hex_cmd_process:crc <- 0
	@DEBUG_VALUE: das_hex_cmd_received_task:aBuf <- [DW_OP_LLVM_entry_value 1] $r0
	.loc	2 0 5 is_stmt 0                 @ ../das_subg_thread/das_hex_cmd.c:0:5
	adds	r7, r5, #2
	.loc	2 87 5                          @ ../das_subg_thread/das_hex_cmd.c:87:5
	subs	r3, #3
.Ltmp126:
	.p2align	2
.LBB9_13:                               @ =>This Inner Loop Header: Depth=1
	@DEBUG_VALUE: das_hex_cmd_process:aBuf <- $r5
	@DEBUG_VALUE: das_hex_cmd_crc_calculate:crc_8 <- $r2
	@DEBUG_VALUE: das_hex_cmd_crc_calculate:hex_ptr_lens <- [DW_OP_LLVM_convert 32 7, DW_OP_LLVM_convert 16 7, DW_OP_stack_value] $r1
	@DEBUG_VALUE: das_hex_cmd_received_task:cmd_length <- $r0
	@DEBUG_VALUE: das_hex_cmd_process:crc <- 0
	@DEBUG_VALUE: das_hex_cmd_received_task:aBuf <- [DW_OP_LLVM_entry_value 1] $r0
	.loc	2 89 18 is_stmt 1               @ ../das_subg_thread/das_hex_cmd.c:89:18
	ldrb	r4, [r7], #1
.Ltmp127:
	@DEBUG_VALUE: das_hex_cmd_crc_calculate:i <- undef
	@DEBUG_VALUE: das_hex_cmd_crc_calculate:crc_8 <- $r2
	.loc	2 87 19                         @ ../das_subg_thread/das_hex_cmd.c:87:19
	subs	r3, #1
.Ltmp128:
	.loc	2 89 15                         @ ../das_subg_thread/das_hex_cmd.c:89:15
	add	r2, r4
.Ltmp129:
	@DEBUG_VALUE: das_hex_cmd_crc_calculate:i <- [DW_OP_plus_uconst 1, DW_OP_stack_value] undef
	@DEBUG_VALUE: das_hex_cmd_crc_calculate:crc_8 <- $r2
	.loc	2 87 5                          @ ../das_subg_thread/das_hex_cmd.c:87:5
	bne	.LBB9_13
.Ltmp130:
.LBB9_14:
	@DEBUG_VALUE: das_hex_cmd_process:aBuf <- $r5
	@DEBUG_VALUE: das_hex_cmd_received_task:cmd_length <- $r0
	@DEBUG_VALUE: das_hex_cmd_process:crc <- 0
	@DEBUG_VALUE: das_hex_cmd_received_task:aBuf <- [DW_OP_LLVM_entry_value 1] $r0
	@DEBUG_VALUE: das_hex_cmd_process:crc <- $r2
	.loc	2 663 20                        @ ../das_subg_thread/das_hex_cmd.c:663:20
	ldrb	r1, [r5, r1]
	.loc	2 663 17 is_stmt 0              @ ../das_subg_thread/das_hex_cmd.c:663:17
	uxtb	r2, r2
.Ltmp131:
	.loc	2 663 13                        @ ../das_subg_thread/das_hex_cmd.c:663:13
	cmp	r2, r1
	bne	.LBB9_25
.Ltmp132:
@ %bb.15:
	@DEBUG_VALUE: das_hex_cmd_process:aBuf <- $r5
	@DEBUG_VALUE: das_hex_cmd_received_task:cmd_length <- $r0
	@DEBUG_VALUE: das_hex_cmd_received_task:aBuf <- [DW_OP_LLVM_entry_value 1] $r0
	@DEBUG_VALUE: das_hex_cmd_process:cmd_len <- undef
	.loc	2 669 73 is_stmt 1              @ ../das_subg_thread/das_hex_cmd.c:669:73
	subs	r4, r0, #2
.Ltmp133:
	@DEBUG_VALUE: das_hex_cmd_fn_exec:lens <- $r4
	.loc	2 598 5                         @ ../das_subg_thread/das_hex_cmd.c:598:5
	cmp.w	r8, #127
.Ltmp134:
	@DEBUG_VALUE: das_hex_cmd_fn_exec:Param <- undef
	.loc	2 0 5 is_stmt 0                 @ ../das_subg_thread/das_hex_cmd.c:0:5
	mov.w	r9, #1
.Ltmp135:
	@DEBUG_VALUE: das_hex_cmd_fn_exec:cmd_ret <- 0
	@DEBUG_VALUE: das_hex_cmd_fn_exec:need_ack <- 1
	@DEBUG_VALUE: das_hex_cmd_fn_exec:cmd_id <- $r8
	.loc	2 598 5                         @ ../das_subg_thread/das_hex_cmd.c:598:5
	bgt	.LBB9_26
.Ltmp136:
@ %bb.16:
	@DEBUG_VALUE: das_hex_cmd_fn_exec:cmd_id <- $r8
	@DEBUG_VALUE: das_hex_cmd_process:aBuf <- $r5
	@DEBUG_VALUE: das_hex_cmd_fn_exec:lens <- $r4
	@DEBUG_VALUE: das_hex_cmd_received_task:cmd_length <- $r0
	@DEBUG_VALUE: das_hex_cmd_fn_exec:need_ack <- 1
	@DEBUG_VALUE: das_hex_cmd_fn_exec:cmd_ret <- 0
	@DEBUG_VALUE: das_hex_cmd_received_task:aBuf <- [DW_OP_LLVM_entry_value 1] $r0
	cmp.w	r8, #80
	ble	.LBB9_32
.Ltmp137:
@ %bb.17:
	@DEBUG_VALUE: das_hex_cmd_fn_exec:cmd_id <- $r8
	@DEBUG_VALUE: das_hex_cmd_process:aBuf <- $r5
	@DEBUG_VALUE: das_hex_cmd_fn_exec:lens <- $r4
	@DEBUG_VALUE: das_hex_cmd_received_task:cmd_length <- $r0
	@DEBUG_VALUE: das_hex_cmd_fn_exec:need_ack <- 1
	@DEBUG_VALUE: das_hex_cmd_fn_exec:cmd_ret <- 0
	@DEBUG_VALUE: das_hex_cmd_received_task:aBuf <- [DW_OP_LLVM_entry_value 1] $r0
	cmp.w	r8, #81
	beq.w	.LBB9_40
.Ltmp138:
@ %bb.18:
	@DEBUG_VALUE: das_hex_cmd_fn_exec:cmd_id <- $r8
	@DEBUG_VALUE: das_hex_cmd_process:aBuf <- $r5
	@DEBUG_VALUE: das_hex_cmd_fn_exec:lens <- $r4
	@DEBUG_VALUE: das_hex_cmd_received_task:cmd_length <- $r0
	@DEBUG_VALUE: das_hex_cmd_fn_exec:need_ack <- 1
	@DEBUG_VALUE: das_hex_cmd_fn_exec:cmd_ret <- 0
	@DEBUG_VALUE: das_hex_cmd_received_task:aBuf <- [DW_OP_LLVM_entry_value 1] $r0
	cmp.w	r8, #96
	beq.w	.LBB9_42
.Ltmp139:
@ %bb.19:
	@DEBUG_VALUE: das_hex_cmd_fn_exec:cmd_id <- $r8
	@DEBUG_VALUE: das_hex_cmd_process:aBuf <- $r5
	@DEBUG_VALUE: das_hex_cmd_fn_exec:lens <- $r4
	@DEBUG_VALUE: das_hex_cmd_received_task:cmd_length <- $r0
	@DEBUG_VALUE: das_hex_cmd_fn_exec:need_ack <- 1
	@DEBUG_VALUE: das_hex_cmd_fn_exec:cmd_ret <- 0
	@DEBUG_VALUE: das_hex_cmd_received_task:aBuf <- [DW_OP_LLVM_entry_value 1] $r0
	cmp.w	r8, #112
	bne.w	.LBB9_102
.Ltmp140:
@ %bb.20:
	@DEBUG_VALUE: das_hex_cmd_fn_exec:cmd_id <- $r8
	@DEBUG_VALUE: das_hex_cmd_process:aBuf <- $r5
	@DEBUG_VALUE: das_hex_cmd_fn_exec:lens <- $r4
	@DEBUG_VALUE: das_hex_cmd_received_task:cmd_length <- $r0
	@DEBUG_VALUE: das_hex_cmd_fn_exec:need_ack <- 1
	@DEBUG_VALUE: das_hex_cmd_fn_exec:cmd_ret <- 0
	@DEBUG_VALUE: das_hex_cmd_received_task:aBuf <- [DW_OP_LLVM_entry_value 1] $r0
	@DEBUG_VALUE: das_hex_cmd_get_mesh_local_addr:Param <- undef
	@DEBUG_VALUE: das_hex_cmd_get_mesh_local_addr:lens <- undef
	@DEBUG_VALUE: das_hex_cmd_get_mesh_local_addr:cmd_crc <- 0
	@DEBUG_VALUE: das_hex_cmd_get_mesh_local_addr:i <- 0
	.loc	2 361 5 is_stmt 1               @ ../das_subg_thread/das_hex_cmd.c:361:5
	bl	otrLock
.Ltmp141:
	.loc	2 361 5 is_stmt 0               @ ../das_subg_thread/das_hex_cmd.c:361:5
	bl	otrGetInstance
.Ltmp142:
	@DEBUG_VALUE: instance <- $r0
	.loc	2 0 5                           @ ../das_subg_thread/das_hex_cmd.c:0:5
	cbz	r0, .LBB9_22
.Ltmp143:
@ %bb.21:
	@DEBUG_VALUE: das_hex_cmd_fn_exec:cmd_id <- $r8
	@DEBUG_VALUE: das_hex_cmd_process:aBuf <- $r5
	@DEBUG_VALUE: das_hex_cmd_fn_exec:lens <- $r4
	@DEBUG_VALUE: instance <- $r0
	@DEBUG_VALUE: das_hex_cmd_get_mesh_local_addr:i <- 0
	@DEBUG_VALUE: das_hex_cmd_get_mesh_local_addr:cmd_crc <- 0
	@DEBUG_VALUE: das_hex_cmd_fn_exec:need_ack <- 1
	@DEBUG_VALUE: das_hex_cmd_fn_exec:cmd_ret <- 0
	@DEBUG_VALUE: das_hex_cmd_received_task:aBuf <- [DW_OP_LLVM_entry_value 1] $r0
	.loc	2 361 5                         @ ../das_subg_thread/das_hex_cmd.c:361:5
	bl	otThreadGetMeshLocalEid
.Ltmp144:
	.loc	2 0 5                           @ ../das_subg_thread/das_hex_cmd.c:0:5
	add	r1, sp, #64
	.loc	2 361 5                         @ ../das_subg_thread/das_hex_cmd.c:361:5
	movs	r2, #40
	bl	otIp6AddressToString
.Ltmp145:
.LBB9_22:
	@DEBUG_VALUE: das_hex_cmd_fn_exec:cmd_id <- $r8
	@DEBUG_VALUE: das_hex_cmd_process:aBuf <- $r5
	@DEBUG_VALUE: das_hex_cmd_fn_exec:lens <- $r4
	@DEBUG_VALUE: das_hex_cmd_get_mesh_local_addr:i <- 0
	@DEBUG_VALUE: das_hex_cmd_get_mesh_local_addr:cmd_crc <- 0
	@DEBUG_VALUE: das_hex_cmd_fn_exec:need_ack <- 1
	@DEBUG_VALUE: das_hex_cmd_fn_exec:cmd_ret <- 0
	@DEBUG_VALUE: das_hex_cmd_received_task:aBuf <- [DW_OP_LLVM_entry_value 1] $r0
	.loc	2 361 5                         @ ../das_subg_thread/das_hex_cmd.c:361:5
	bl	otrUnlock
.Ltmp146:
	.loc	2 374 12 is_stmt 1              @ ../das_subg_thread/das_hex_cmd.c:374:12
	ldrb.w	r2, [sp, #64]
	movs	r0, #147
	.loc	2 369 16                        @ ../das_subg_thread/das_hex_cmd.c:369:16
	strh.w	r0, [sp, #16]
	movs	r0, #113
	.loc	2 374 5                         @ ../das_subg_thread/das_hex_cmd.c:374:5
	cmp	r2, #0
	.loc	2 371 16                        @ ../das_subg_thread/das_hex_cmd.c:371:16
	strb.w	r0, [sp, #19]
	@DEBUG_VALUE: das_hex_cmd_get_mesh_local_addr:i <- 0
.Ltmp147:
	@DEBUG_VALUE: das_hex_cmd_get_mesh_local_addr:cmd_crc <- undef
	.loc	2 0 16 is_stmt 0                @ ../das_subg_thread/das_hex_cmd.c:0:16
	beq.w	.LBB9_76
.Ltmp148:
@ %bb.23:
	@DEBUG_VALUE: das_hex_cmd_fn_exec:cmd_id <- $r8
	@DEBUG_VALUE: das_hex_cmd_process:aBuf <- $r5
	@DEBUG_VALUE: das_hex_cmd_fn_exec:lens <- $r4
	@DEBUG_VALUE: das_hex_cmd_get_mesh_local_addr:i <- 0
	@DEBUG_VALUE: das_hex_cmd_fn_exec:need_ack <- 1
	@DEBUG_VALUE: das_hex_cmd_fn_exec:cmd_ret <- 0
	@DEBUG_VALUE: das_hex_cmd_received_task:aBuf <- [DW_OP_LLVM_entry_value 1] $r0
	movs	r3, #0
	movs	r4, #4
.Ltmp149:
	add	r7, sp, #16
	add	r5, sp, #64
.Ltmp150:
	movs	r0, #0
.Ltmp151:
.LBB9_24:                               @ =>This Inner Loop Header: Depth=1
	@DEBUG_VALUE: das_hex_cmd_fn_exec:cmd_id <- $r8
	@DEBUG_VALUE: das_hex_cmd_fn_exec:need_ack <- 1
	@DEBUG_VALUE: das_hex_cmd_fn_exec:cmd_ret <- 0
	@DEBUG_VALUE: das_hex_cmd_received_task:aBuf <- [DW_OP_LLVM_entry_value 1] $r0
	@DEBUG_VALUE: das_hex_cmd_get_mesh_local_addr:i <- $r0
	.loc	2 378 10 is_stmt 1              @ ../das_subg_thread/das_hex_cmd.c:378:10
	adds	r0, #1
.Ltmp152:
	@DEBUG_VALUE: das_hex_cmd_get_mesh_local_addr:i <- $r0
	.loc	2 376 19                        @ ../das_subg_thread/das_hex_cmd.c:376:19
	adds	r1, r3, r7
.Ltmp153:
	.loc	2 374 12                        @ ../das_subg_thread/das_hex_cmd.c:374:12
	uxtb	r3, r0
.Ltmp154:
	.loc	2 376 24                        @ ../das_subg_thread/das_hex_cmd.c:376:24
	strb	r2, [r1, #4]
	.loc	2 377 17                        @ ../das_subg_thread/das_hex_cmd.c:377:17
	adds	r1, r4, r2
.Ltmp155:
	@DEBUG_VALUE: das_hex_cmd_get_mesh_local_addr:cmd_crc <- [DW_OP_LLVM_convert 32 7, DW_OP_LLVM_convert 8 7, DW_OP_stack_value] $r1
	.loc	2 374 12                        @ ../das_subg_thread/das_hex_cmd.c:374:12
	ldrb	r2, [r5, r3]
	.loc	2 374 5 is_stmt 0               @ ../das_subg_thread/das_hex_cmd.c:374:5
	uxtb	r4, r1
.Ltmp156:
	@DEBUG_VALUE: das_hex_cmd_get_mesh_local_addr:cmd_crc <- undef
	cmp	r2, #0
	bne	.LBB9_24
	b	.LBB9_63
.Ltmp157:
.LBB9_25:
	@DEBUG_VALUE: das_hex_cmd_process:aBuf <- $r5
	@DEBUG_VALUE: das_hex_cmd_received_task:cmd_length <- $r0
	@DEBUG_VALUE: das_hex_cmd_received_task:aBuf <- [DW_OP_LLVM_entry_value 1] $r0
	.loc	2 0 5                           @ ../das_subg_thread/das_hex_cmd.c:0:5
	movs	r0, #147
.Ltmp158:
	movt	r0, #4
.Ltmp159:
	@DEBUG_VALUE: das_hex_command_response:ack_crc <- -105
	@DEBUG_VALUE: das_hex_command_response:cmd_id <- $r8
	@DEBUG_VALUE: das_hex_command_response:state <- [DW_OP_LLVM_convert 1 7, DW_OP_LLVM_convert 8 7, DW_OP_stack_value] -1
	movs	r1, #1
.Ltmp160:
	.loc	2 101 16 is_stmt 1              @ ../das_subg_thread/das_hex_cmd.c:101:16
	str	r0, [sp, #16]
	.loc	2 105 16                        @ ../das_subg_thread/das_hex_cmd.c:105:16
	strb.w	r8, [sp, #20]
	.loc	2 107 9                         @ ../das_subg_thread/das_hex_cmd.c:107:9
	sub.w	r0, r8, #104
.Ltmp161:
	.loc	2 109 20                        @ ../das_subg_thread/das_hex_cmd.c:109:20
	strb.w	r1, [sp, #21]
.Ltmp162:
	@DEBUG_VALUE: das_hex_command_response:ack_crc <- $r0
	.loc	2 0 20 is_stmt 0                @ ../das_subg_thread/das_hex_cmd.c:0:20
	b	.LBB9_103
.Ltmp163:
.LBB9_26:
	@DEBUG_VALUE: das_hex_cmd_fn_exec:cmd_id <- $r8
	@DEBUG_VALUE: das_hex_cmd_process:aBuf <- $r5
	@DEBUG_VALUE: das_hex_cmd_fn_exec:lens <- $r4
	@DEBUG_VALUE: das_hex_cmd_received_task:cmd_length <- $r0
	@DEBUG_VALUE: das_hex_cmd_fn_exec:need_ack <- 1
	@DEBUG_VALUE: das_hex_cmd_fn_exec:cmd_ret <- 0
	@DEBUG_VALUE: das_hex_cmd_received_task:aBuf <- [DW_OP_LLVM_entry_value 1] $r0
	.loc	2 598 5 is_stmt 1               @ ../das_subg_thread/das_hex_cmd.c:598:5
	cmp.w	r8, #159
	ble	.LBB9_36
.Ltmp164:
@ %bb.27:
	@DEBUG_VALUE: das_hex_cmd_fn_exec:cmd_id <- $r8
	@DEBUG_VALUE: das_hex_cmd_process:aBuf <- $r5
	@DEBUG_VALUE: das_hex_cmd_fn_exec:lens <- $r4
	@DEBUG_VALUE: das_hex_cmd_received_task:cmd_length <- $r0
	@DEBUG_VALUE: das_hex_cmd_fn_exec:need_ack <- 1
	@DEBUG_VALUE: das_hex_cmd_fn_exec:cmd_ret <- 0
	@DEBUG_VALUE: das_hex_cmd_received_task:aBuf <- [DW_OP_LLVM_entry_value 1] $r0
	cmp.w	r8, #160
	beq	.LBB9_47
.Ltmp165:
@ %bb.28:
	@DEBUG_VALUE: das_hex_cmd_fn_exec:cmd_id <- $r8
	@DEBUG_VALUE: das_hex_cmd_process:aBuf <- $r5
	@DEBUG_VALUE: das_hex_cmd_fn_exec:lens <- $r4
	@DEBUG_VALUE: das_hex_cmd_received_task:cmd_length <- $r0
	@DEBUG_VALUE: das_hex_cmd_fn_exec:need_ack <- 1
	@DEBUG_VALUE: das_hex_cmd_fn_exec:cmd_ret <- 0
	@DEBUG_VALUE: das_hex_cmd_received_task:aBuf <- [DW_OP_LLVM_entry_value 1] $r0
	cmp.w	r8, #176
	beq	.LBB9_48
.Ltmp166:
@ %bb.29:
	@DEBUG_VALUE: das_hex_cmd_fn_exec:cmd_id <- $r8
	@DEBUG_VALUE: das_hex_cmd_process:aBuf <- $r5
	@DEBUG_VALUE: das_hex_cmd_fn_exec:lens <- $r4
	@DEBUG_VALUE: das_hex_cmd_received_task:cmd_length <- $r0
	@DEBUG_VALUE: das_hex_cmd_fn_exec:need_ack <- 1
	@DEBUG_VALUE: das_hex_cmd_fn_exec:cmd_ret <- 0
	@DEBUG_VALUE: das_hex_cmd_received_task:aBuf <- [DW_OP_LLVM_entry_value 1] $r0
	cmp.w	r8, #241
	bne.w	.LBB9_102
.Ltmp167:
@ %bb.30:
	@DEBUG_VALUE: das_hex_cmd_fn_exec:cmd_id <- $r8
	@DEBUG_VALUE: das_hex_cmd_process:aBuf <- $r5
	@DEBUG_VALUE: das_hex_cmd_fn_exec:lens <- $r4
	@DEBUG_VALUE: das_hex_cmd_received_task:cmd_length <- $r0
	@DEBUG_VALUE: das_hex_cmd_fn_exec:need_ack <- 1
	@DEBUG_VALUE: das_hex_cmd_fn_exec:cmd_ret <- 0
	@DEBUG_VALUE: das_hex_cmd_received_task:aBuf <- [DW_OP_LLVM_entry_value 1] $r0
	@DEBUG_VALUE: das_hex_cmd_to_acsii_comand_process:lens <- $r4
	.loc	2 581 36                        @ ../das_subg_thread/das_hex_cmd.c:581:36
	uxth	r7, r4
	.loc	2 581 23 is_stmt 0              @ ../das_subg_thread/das_hex_cmd.c:581:23
	mov	r0, r7
.Ltmp168:
	bl	pvPortMalloc
.Ltmp169:
	@DEBUG_VALUE: das_hex_cmd_to_acsii_comand_process:Rx_Buffer <- $r0
	.loc	2 582 9 is_stmt 1               @ ../das_subg_thread/das_hex_cmd.c:582:9
	cmp	r0, #0
.Ltmp170:
	@DEBUG_VALUE: das_hex_cmd_to_acsii_comand_process:Param <- undef
	.loc	2 0 9 is_stmt 0                 @ ../das_subg_thread/das_hex_cmd.c:0:9
	beq.w	.LBB9_105
.Ltmp171:
@ %bb.31:
	@DEBUG_VALUE: das_hex_cmd_fn_exec:cmd_id <- $r8
	@DEBUG_VALUE: das_hex_cmd_process:aBuf <- $r5
	@DEBUG_VALUE: das_hex_cmd_to_acsii_comand_process:lens <- $r4
	@DEBUG_VALUE: das_hex_cmd_fn_exec:lens <- $r4
	@DEBUG_VALUE: das_hex_cmd_to_acsii_comand_process:Rx_Buffer <- $r0
	@DEBUG_VALUE: das_hex_cmd_fn_exec:need_ack <- 1
	@DEBUG_VALUE: das_hex_cmd_fn_exec:cmd_ret <- 0
	@DEBUG_VALUE: das_hex_cmd_received_task:aBuf <- [DW_OP_LLVM_entry_value 1] $r0
	.loc	2 584 9 is_stmt 1               @ ../das_subg_thread/das_hex_cmd.c:584:9
	adds	r1, r5, #4
	mov	r2, r7
.Ltmp172:
	.loc	2 0 0 is_stmt 0                 @ ../das_subg_thread/das_hex_cmd.c:0:0
	mov	r4, r0
.Ltmp173:
	@DEBUG_VALUE: das_hex_cmd_to_acsii_comand_process:Rx_Buffer <- $r4
	.loc	2 584 9                         @ ../das_subg_thread/das_hex_cmd.c:584:9
	bl	__aeabi_memcpy
.Ltmp174:
	.loc	2 0 9                           @ ../das_subg_thread/das_hex_cmd.c:0:9
	movs	r0, #0
	.loc	2 585 25 is_stmt 1              @ ../das_subg_thread/das_hex_cmd.c:585:25
	strb	r0, [r4, r7]
	.loc	2 586 9                         @ ../das_subg_thread/das_hex_cmd.c:586:9
	mov	r0, r4
	bl	otCliInputLine
.Ltmp175:
	.loc	2 590 9                         @ ../das_subg_thread/das_hex_cmd.c:590:9
	mov	r0, r4
	bl	vPortFree
.Ltmp176:
	.loc	2 0 9 is_stmt 0                 @ ../das_subg_thread/das_hex_cmd.c:0:9
	b	.LBB9_105
.Ltmp177:
.LBB9_32:
	@DEBUG_VALUE: das_hex_cmd_fn_exec:cmd_id <- $r8
	@DEBUG_VALUE: das_hex_cmd_process:aBuf <- $r5
	@DEBUG_VALUE: das_hex_cmd_fn_exec:lens <- $r4
	@DEBUG_VALUE: das_hex_cmd_received_task:cmd_length <- $r0
	@DEBUG_VALUE: das_hex_cmd_fn_exec:need_ack <- 1
	@DEBUG_VALUE: das_hex_cmd_fn_exec:cmd_ret <- 0
	@DEBUG_VALUE: das_hex_cmd_received_task:aBuf <- [DW_OP_LLVM_entry_value 1] $r0
	.loc	2 598 5 is_stmt 1               @ ../das_subg_thread/das_hex_cmd.c:598:5
	cmp.w	r8, #1
	beq	.LBB9_50
.Ltmp178:
@ %bb.33:
	@DEBUG_VALUE: das_hex_cmd_fn_exec:cmd_id <- $r8
	@DEBUG_VALUE: das_hex_cmd_process:aBuf <- $r5
	@DEBUG_VALUE: das_hex_cmd_fn_exec:lens <- $r4
	@DEBUG_VALUE: das_hex_cmd_received_task:cmd_length <- $r0
	@DEBUG_VALUE: das_hex_cmd_fn_exec:need_ack <- 1
	@DEBUG_VALUE: das_hex_cmd_fn_exec:cmd_ret <- 0
	@DEBUG_VALUE: das_hex_cmd_received_task:aBuf <- [DW_OP_LLVM_entry_value 1] $r0
	cmp.w	r8, #3
	bne.w	.LBB9_102
.Ltmp179:
@ %bb.34:
	@DEBUG_VALUE: das_hex_cmd_fn_exec:cmd_id <- $r8
	@DEBUG_VALUE: das_hex_cmd_process:aBuf <- $r5
	@DEBUG_VALUE: das_hex_cmd_fn_exec:lens <- $r4
	@DEBUG_VALUE: das_hex_cmd_received_task:cmd_length <- $r0
	@DEBUG_VALUE: das_hex_cmd_fn_exec:need_ack <- 1
	@DEBUG_VALUE: das_hex_cmd_fn_exec:cmd_ret <- 0
	@DEBUG_VALUE: das_hex_cmd_received_task:aBuf <- [DW_OP_LLVM_entry_value 1] $r0
	@DEBUG_VALUE: das_hex_cmd_udp_data_send:lens <- $r4
	@DEBUG_VALUE: das_hex_cmd_udp_data_send:error <- 0
	@DEBUG_VALUE: das_hex_cmd_udp_data_send:mRole <- 0
	.loc	2 155 5                         @ ../das_subg_thread/das_hex_cmd.c:155:5
	bl	otrLock
.Ltmp180:
	.loc	2 155 5 is_stmt 0               @ ../das_subg_thread/das_hex_cmd.c:155:5
	bl	otrGetInstance
.Ltmp181:
	@DEBUG_VALUE: instance <- $r0
	cmp	r0, #0
.Ltmp182:
	@DEBUG_VALUE: das_hex_cmd_udp_data_send:Param <- undef
	.loc	2 0 5                           @ ../das_subg_thread/das_hex_cmd.c:0:5
	beq.w	.LBB9_77
.Ltmp183:
@ %bb.35:
	@DEBUG_VALUE: das_hex_cmd_fn_exec:cmd_id <- $r8
	@DEBUG_VALUE: das_hex_cmd_process:aBuf <- $r5
	@DEBUG_VALUE: das_hex_cmd_udp_data_send:lens <- $r4
	@DEBUG_VALUE: das_hex_cmd_fn_exec:lens <- $r4
	@DEBUG_VALUE: instance <- $r0
	@DEBUG_VALUE: das_hex_cmd_udp_data_send:mRole <- 0
	@DEBUG_VALUE: das_hex_cmd_udp_data_send:error <- 0
	@DEBUG_VALUE: das_hex_cmd_fn_exec:need_ack <- 1
	@DEBUG_VALUE: das_hex_cmd_fn_exec:cmd_ret <- 0
	@DEBUG_VALUE: das_hex_cmd_received_task:aBuf <- [DW_OP_LLVM_entry_value 1] $r0
	.loc	2 155 5                         @ ../das_subg_thread/das_hex_cmd.c:155:5
	bl	otThreadGetDeviceRole
.Ltmp184:
	@DEBUG_VALUE: das_hex_cmd_udp_data_send:mRole <- $r0
	.loc	2 0 5                           @ ../das_subg_thread/das_hex_cmd.c:0:5
	movs	r7, #0
	.loc	2 155 5                         @ ../das_subg_thread/das_hex_cmd.c:155:5
	cmp	r0, #2
	it	lo
	movlo	r7, #1
	b	.LBB9_78
.Ltmp185:
.LBB9_36:
	@DEBUG_VALUE: das_hex_cmd_fn_exec:cmd_id <- $r8
	@DEBUG_VALUE: das_hex_cmd_process:aBuf <- $r5
	@DEBUG_VALUE: das_hex_cmd_fn_exec:lens <- $r4
	@DEBUG_VALUE: das_hex_cmd_received_task:cmd_length <- $r0
	@DEBUG_VALUE: das_hex_cmd_fn_exec:need_ack <- 1
	@DEBUG_VALUE: das_hex_cmd_fn_exec:cmd_ret <- 0
	@DEBUG_VALUE: das_hex_cmd_received_task:aBuf <- [DW_OP_LLVM_entry_value 1] $r0
	.loc	2 598 5 is_stmt 1               @ ../das_subg_thread/das_hex_cmd.c:598:5
	cmp.w	r8, #128
	beq	.LBB9_58
.Ltmp186:
@ %bb.37:
	@DEBUG_VALUE: das_hex_cmd_fn_exec:cmd_id <- $r8
	@DEBUG_VALUE: das_hex_cmd_process:aBuf <- $r5
	@DEBUG_VALUE: das_hex_cmd_fn_exec:lens <- $r4
	@DEBUG_VALUE: das_hex_cmd_received_task:cmd_length <- $r0
	@DEBUG_VALUE: das_hex_cmd_fn_exec:need_ack <- 1
	@DEBUG_VALUE: das_hex_cmd_fn_exec:cmd_ret <- 0
	@DEBUG_VALUE: das_hex_cmd_received_task:aBuf <- [DW_OP_LLVM_entry_value 1] $r0
	cmp.w	r8, #145
	bne.w	.LBB9_102
.Ltmp187:
@ %bb.38:
	@DEBUG_VALUE: das_hex_cmd_fn_exec:cmd_id <- $r8
	@DEBUG_VALUE: das_hex_cmd_process:aBuf <- $r5
	@DEBUG_VALUE: das_hex_cmd_fn_exec:lens <- $r4
	@DEBUG_VALUE: das_hex_cmd_received_task:cmd_length <- $r0
	@DEBUG_VALUE: das_hex_cmd_fn_exec:need_ack <- 1
	@DEBUG_VALUE: das_hex_cmd_fn_exec:cmd_ret <- 0
	@DEBUG_VALUE: das_hex_cmd_received_task:aBuf <- [DW_OP_LLVM_entry_value 1] $r0
	.loc	2 446 13                        @ ../das_subg_thread/das_hex_cmd.c:446:13
	uxth.w	r12, r4
	movs	r0, #0
.Ltmp188:
	@DEBUG_VALUE: das_hex_cmd_meter_id_respone:temp <- 0
	@DEBUG_VALUE: das_hex_cmd_meter_id_respone:num <- 0
	@DEBUG_VALUE: das_hex_cmd_meter_id_respone:ret <- 0
	@DEBUG_VALUE: das_hex_cmd_meter_id_respone:lens <- $r4
	.loc	2 446 13 is_stmt 0              @ ../das_subg_thread/das_hex_cmd.c:446:13
	cmp.w	r12, #10
.Ltmp189:
	@DEBUG_VALUE: das_hex_cmd_meter_id_respone:Param <- undef
	.loc	2 443 5 is_stmt 1               @ ../das_subg_thread/das_hex_cmd.c:443:5
	strb.w	r0, [sp, #106]
	strh.w	r0, [sp, #104]
.Ltmp190:
	@DEBUG_VALUE: das_hex_cmd_meter_id_respone:extaddr <- [DW_OP_LLVM_fragment 56 8] 0
	@DEBUG_VALUE: das_hex_cmd_meter_id_respone:extaddr <- [DW_OP_LLVM_fragment 48 8] 0
	@DEBUG_VALUE: das_hex_cmd_meter_id_respone:extaddr <- [DW_OP_LLVM_fragment 40 8] 0
	@DEBUG_VALUE: das_hex_cmd_meter_id_respone:extaddr <- [DW_OP_LLVM_fragment 32 8] 0
	@DEBUG_VALUE: das_hex_cmd_meter_id_respone:extaddr <- [DW_OP_LLVM_fragment 24 8] 0
	.loc	2 0 5 is_stmt 0                 @ ../das_subg_thread/das_hex_cmd.c:0:5
	bls.w	.LBB9_64
.Ltmp191:
@ %bb.39:
	@DEBUG_VALUE: das_hex_cmd_fn_exec:cmd_id <- $r8
	@DEBUG_VALUE: das_hex_cmd_process:aBuf <- $r5
	@DEBUG_VALUE: das_hex_cmd_meter_id_respone:lens <- $r4
	@DEBUG_VALUE: das_hex_cmd_fn_exec:lens <- $r4
	@DEBUG_VALUE: das_hex_cmd_meter_id_respone:extaddr <- [DW_OP_LLVM_fragment 24 8] 0
	@DEBUG_VALUE: das_hex_cmd_meter_id_respone:extaddr <- [DW_OP_LLVM_fragment 32 8] 0
	@DEBUG_VALUE: das_hex_cmd_meter_id_respone:extaddr <- [DW_OP_LLVM_fragment 40 8] 0
	@DEBUG_VALUE: das_hex_cmd_meter_id_respone:extaddr <- [DW_OP_LLVM_fragment 48 8] 0
	@DEBUG_VALUE: das_hex_cmd_meter_id_respone:extaddr <- [DW_OP_LLVM_fragment 56 8] 0
	@DEBUG_VALUE: das_hex_cmd_meter_id_respone:ret <- 0
	@DEBUG_VALUE: das_hex_cmd_meter_id_respone:num <- 0
	@DEBUG_VALUE: das_hex_cmd_meter_id_respone:temp <- 0
	@DEBUG_VALUE: das_hex_cmd_fn_exec:need_ack <- 1
	@DEBUG_VALUE: das_hex_cmd_fn_exec:cmd_ret <- 0
	@DEBUG_VALUE: das_hex_cmd_received_task:aBuf <- [DW_OP_LLVM_entry_value 1] $r0
	mov.w	r9, #1
	b	.LBB9_102
.Ltmp192:
.LBB9_40:
	@DEBUG_VALUE: das_hex_cmd_fn_exec:cmd_id <- $r8
	@DEBUG_VALUE: das_hex_cmd_process:aBuf <- $r5
	@DEBUG_VALUE: das_hex_cmd_fn_exec:lens <- $r4
	@DEBUG_VALUE: das_hex_cmd_received_task:cmd_length <- $r0
	@DEBUG_VALUE: das_hex_cmd_fn_exec:need_ack <- 1
	@DEBUG_VALUE: das_hex_cmd_fn_exec:cmd_ret <- 0
	@DEBUG_VALUE: das_hex_cmd_received_task:aBuf <- [DW_OP_LLVM_entry_value 1] $r0
	@DEBUG_VALUE: das_hex_cmd_get_thread_state:Param <- undef
	@DEBUG_VALUE: das_hex_cmd_get_thread_state:lens <- undef
	@DEBUG_VALUE: das_hex_cmd_get_thread_state:mRole <- 0
	.loc	2 299 5 is_stmt 1               @ ../das_subg_thread/das_hex_cmd.c:299:5
	bl	otrLock
.Ltmp193:
	.loc	2 299 5 is_stmt 0               @ ../das_subg_thread/das_hex_cmd.c:299:5
	bl	otrGetInstance
.Ltmp194:
	@DEBUG_VALUE: instance <- $r0
	cmp	r0, #0
	beq.w	.LBB9_81
.Ltmp195:
@ %bb.41:
	@DEBUG_VALUE: das_hex_cmd_fn_exec:cmd_id <- $r8
	@DEBUG_VALUE: das_hex_cmd_process:aBuf <- $r5
	@DEBUG_VALUE: das_hex_cmd_fn_exec:lens <- $r4
	@DEBUG_VALUE: instance <- $r0
	@DEBUG_VALUE: das_hex_cmd_get_thread_state:mRole <- 0
	@DEBUG_VALUE: das_hex_cmd_fn_exec:need_ack <- 1
	@DEBUG_VALUE: das_hex_cmd_fn_exec:cmd_ret <- 0
	@DEBUG_VALUE: das_hex_cmd_received_task:aBuf <- [DW_OP_LLVM_entry_value 1] $r0
	.loc	2 299 5                         @ ../das_subg_thread/das_hex_cmd.c:299:5
	bl	otThreadGetDeviceRole
.Ltmp196:
	mov	r4, r0
.Ltmp197:
	@DEBUG_VALUE: das_hex_cmd_get_thread_state:mRole <- $r4
	.loc	2 0 5                           @ ../das_subg_thread/das_hex_cmd.c:0:5
	b	.LBB9_82
.Ltmp198:
.LBB9_42:
	@DEBUG_VALUE: das_hex_cmd_fn_exec:cmd_id <- $r8
	@DEBUG_VALUE: das_hex_cmd_process:aBuf <- $r5
	@DEBUG_VALUE: das_hex_cmd_fn_exec:lens <- $r4
	@DEBUG_VALUE: das_hex_cmd_received_task:cmd_length <- $r0
	@DEBUG_VALUE: das_hex_cmd_fn_exec:need_ack <- 1
	@DEBUG_VALUE: das_hex_cmd_fn_exec:cmd_ret <- 0
	@DEBUG_VALUE: das_hex_cmd_received_task:aBuf <- [DW_OP_LLVM_entry_value 1] $r0
	@DEBUG_VALUE: das_hex_cmd_get_link_local_addr:Param <- undef
	@DEBUG_VALUE: das_hex_cmd_get_link_local_addr:lens <- undef
	@DEBUG_VALUE: das_hex_cmd_get_link_local_addr:cmd_crc <- 0
	@DEBUG_VALUE: das_hex_cmd_get_link_local_addr:i <- 0
	.loc	2 326 5 is_stmt 1               @ ../das_subg_thread/das_hex_cmd.c:326:5
	bl	otrLock
.Ltmp199:
	.loc	2 326 5 is_stmt 0               @ ../das_subg_thread/das_hex_cmd.c:326:5
	bl	otrGetInstance
.Ltmp200:
	@DEBUG_VALUE: instance <- $r0
	cbz	r0, .LBB9_44
.Ltmp201:
@ %bb.43:
	@DEBUG_VALUE: das_hex_cmd_fn_exec:cmd_id <- $r8
	@DEBUG_VALUE: das_hex_cmd_process:aBuf <- $r5
	@DEBUG_VALUE: das_hex_cmd_fn_exec:lens <- $r4
	@DEBUG_VALUE: instance <- $r0
	@DEBUG_VALUE: das_hex_cmd_get_link_local_addr:i <- 0
	@DEBUG_VALUE: das_hex_cmd_get_link_local_addr:cmd_crc <- 0
	@DEBUG_VALUE: das_hex_cmd_fn_exec:need_ack <- 1
	@DEBUG_VALUE: das_hex_cmd_fn_exec:cmd_ret <- 0
	@DEBUG_VALUE: das_hex_cmd_received_task:aBuf <- [DW_OP_LLVM_entry_value 1] $r0
	.loc	2 326 5                         @ ../das_subg_thread/das_hex_cmd.c:326:5
	bl	otThreadGetLinkLocalIp6Address
.Ltmp202:
	.loc	2 0 5                           @ ../das_subg_thread/das_hex_cmd.c:0:5
	add	r1, sp, #64
	.loc	2 326 5                         @ ../das_subg_thread/das_hex_cmd.c:326:5
	movs	r2, #40
	bl	otIp6AddressToString
.Ltmp203:
.LBB9_44:
	@DEBUG_VALUE: das_hex_cmd_fn_exec:cmd_id <- $r8
	@DEBUG_VALUE: das_hex_cmd_process:aBuf <- $r5
	@DEBUG_VALUE: das_hex_cmd_fn_exec:lens <- $r4
	@DEBUG_VALUE: das_hex_cmd_get_link_local_addr:i <- 0
	@DEBUG_VALUE: das_hex_cmd_get_link_local_addr:cmd_crc <- 0
	@DEBUG_VALUE: das_hex_cmd_fn_exec:need_ack <- 1
	@DEBUG_VALUE: das_hex_cmd_fn_exec:cmd_ret <- 0
	@DEBUG_VALUE: das_hex_cmd_received_task:aBuf <- [DW_OP_LLVM_entry_value 1] $r0
	.loc	2 326 5                         @ ../das_subg_thread/das_hex_cmd.c:326:5
	bl	otrUnlock
.Ltmp204:
	.loc	2 339 12 is_stmt 1              @ ../das_subg_thread/das_hex_cmd.c:339:12
	ldrb.w	r2, [sp, #64]
	movs	r0, #147
	.loc	2 334 16                        @ ../das_subg_thread/das_hex_cmd.c:334:16
	strh.w	r0, [sp, #16]
	movs	r0, #97
	.loc	2 339 5                         @ ../das_subg_thread/das_hex_cmd.c:339:5
	cmp	r2, #0
	.loc	2 336 16                        @ ../das_subg_thread/das_hex_cmd.c:336:16
	strb.w	r0, [sp, #19]
	@DEBUG_VALUE: das_hex_cmd_get_link_local_addr:i <- 0
.Ltmp205:
	@DEBUG_VALUE: das_hex_cmd_get_link_local_addr:cmd_crc <- undef
	.loc	2 339 5                         @ ../das_subg_thread/das_hex_cmd.c:339:5
	beq.w	.LBB9_83
.Ltmp206:
@ %bb.45:
	@DEBUG_VALUE: das_hex_cmd_fn_exec:cmd_id <- $r8
	@DEBUG_VALUE: das_hex_cmd_process:aBuf <- $r5
	@DEBUG_VALUE: das_hex_cmd_fn_exec:lens <- $r4
	@DEBUG_VALUE: das_hex_cmd_get_link_local_addr:i <- 0
	@DEBUG_VALUE: das_hex_cmd_fn_exec:need_ack <- 1
	@DEBUG_VALUE: das_hex_cmd_fn_exec:cmd_ret <- 0
	@DEBUG_VALUE: das_hex_cmd_received_task:aBuf <- [DW_OP_LLVM_entry_value 1] $r0
	.loc	2 0 5 is_stmt 0                 @ ../das_subg_thread/das_hex_cmd.c:0:5
	movs	r3, #0
	movs	r4, #244
.Ltmp207:
	add	r7, sp, #16
	add	r5, sp, #64
.Ltmp208:
	movs	r0, #0
.Ltmp209:
.LBB9_46:                               @ =>This Inner Loop Header: Depth=1
	@DEBUG_VALUE: das_hex_cmd_fn_exec:cmd_id <- $r8
	@DEBUG_VALUE: das_hex_cmd_fn_exec:need_ack <- 1
	@DEBUG_VALUE: das_hex_cmd_fn_exec:cmd_ret <- 0
	@DEBUG_VALUE: das_hex_cmd_received_task:aBuf <- [DW_OP_LLVM_entry_value 1] $r0
	@DEBUG_VALUE: das_hex_cmd_get_link_local_addr:i <- $r0
	.loc	2 343 10 is_stmt 1              @ ../das_subg_thread/das_hex_cmd.c:343:10
	adds	r0, #1
.Ltmp210:
	@DEBUG_VALUE: das_hex_cmd_get_link_local_addr:i <- $r0
	.loc	2 341 19                        @ ../das_subg_thread/das_hex_cmd.c:341:19
	adds	r1, r3, r7
.Ltmp211:
	.loc	2 339 12                        @ ../das_subg_thread/das_hex_cmd.c:339:12
	uxtb	r3, r0
.Ltmp212:
	.loc	2 341 24                        @ ../das_subg_thread/das_hex_cmd.c:341:24
	strb	r2, [r1, #4]
	.loc	2 342 17                        @ ../das_subg_thread/das_hex_cmd.c:342:17
	adds	r1, r4, r2
.Ltmp213:
	@DEBUG_VALUE: das_hex_cmd_get_link_local_addr:cmd_crc <- [DW_OP_LLVM_convert 32 7, DW_OP_LLVM_convert 8 7, DW_OP_stack_value] $r1
	.loc	2 339 12                        @ ../das_subg_thread/das_hex_cmd.c:339:12
	ldrb	r2, [r5, r3]
	.loc	2 339 5 is_stmt 0               @ ../das_subg_thread/das_hex_cmd.c:339:5
	uxtb	r4, r1
.Ltmp214:
	@DEBUG_VALUE: das_hex_cmd_get_link_local_addr:cmd_crc <- undef
	cmp	r2, #0
	bne	.LBB9_46
	b	.LBB9_63
.Ltmp215:
.LBB9_47:
	@DEBUG_VALUE: das_hex_cmd_fn_exec:cmd_id <- $r8
	@DEBUG_VALUE: das_hex_cmd_process:aBuf <- $r5
	@DEBUG_VALUE: das_hex_cmd_fn_exec:lens <- $r4
	@DEBUG_VALUE: das_hex_cmd_received_task:cmd_length <- $r0
	@DEBUG_VALUE: das_hex_cmd_fn_exec:need_ack <- 1
	@DEBUG_VALUE: das_hex_cmd_fn_exec:cmd_ret <- 0
	@DEBUG_VALUE: das_hex_cmd_received_task:aBuf <- [DW_OP_LLVM_entry_value 1] $r0
	.loc	2 626 9 is_stmt 1               @ ../das_subg_thread/das_hex_cmd.c:626:9
	bl	das_hex_cmd_get_build_version
.Ltmp216:
	@DEBUG_VALUE: das_hex_cmd_fn_exec:need_ack <- 0
	.loc	2 0 9 is_stmt 0                 @ ../das_subg_thread/das_hex_cmd.c:0:9
	b	.LBB9_105
.Ltmp217:
.LBB9_48:
	@DEBUG_VALUE: das_hex_cmd_fn_exec:cmd_id <- $r8
	@DEBUG_VALUE: das_hex_cmd_process:aBuf <- $r5
	@DEBUG_VALUE: das_hex_cmd_fn_exec:lens <- $r4
	@DEBUG_VALUE: das_hex_cmd_received_task:cmd_length <- $r0
	@DEBUG_VALUE: das_hex_cmd_fn_exec:need_ack <- 1
	@DEBUG_VALUE: das_hex_cmd_fn_exec:cmd_ret <- 0
	@DEBUG_VALUE: das_hex_cmd_received_task:aBuf <- [DW_OP_LLVM_entry_value 1] $r0
	@DEBUG_VALUE: das_hex_cmd_get_partitionid:Param <- undef
	@DEBUG_VALUE: das_hex_cmd_get_partitionid:lens <- undef
	@DEBUG_VALUE: das_hex_cmd_get_partitionid:partitionid <- 0
	.loc	2 546 5 is_stmt 1               @ ../das_subg_thread/das_hex_cmd.c:546:5
	bl	otrLock
.Ltmp218:
	.loc	2 546 5 is_stmt 0               @ ../das_subg_thread/das_hex_cmd.c:546:5
	bl	otrGetInstance
.Ltmp219:
	@DEBUG_VALUE: instance <- $r0
	cmp	r0, #0
	beq.w	.LBB9_84
.Ltmp220:
@ %bb.49:
	@DEBUG_VALUE: das_hex_cmd_fn_exec:cmd_id <- $r8
	@DEBUG_VALUE: das_hex_cmd_process:aBuf <- $r5
	@DEBUG_VALUE: das_hex_cmd_fn_exec:lens <- $r4
	@DEBUG_VALUE: instance <- $r0
	@DEBUG_VALUE: das_hex_cmd_get_partitionid:partitionid <- 0
	@DEBUG_VALUE: das_hex_cmd_fn_exec:need_ack <- 1
	@DEBUG_VALUE: das_hex_cmd_fn_exec:cmd_ret <- 0
	@DEBUG_VALUE: das_hex_cmd_received_task:aBuf <- [DW_OP_LLVM_entry_value 1] $r0
	.loc	2 546 5                         @ ../das_subg_thread/das_hex_cmd.c:546:5
	bl	otThreadGetPartitionId
.Ltmp221:
	mov	r4, r0
.Ltmp222:
	@DEBUG_VALUE: das_hex_cmd_get_partitionid:partitionid <- $r4
	.loc	2 0 5                           @ ../das_subg_thread/das_hex_cmd.c:0:5
	b	.LBB9_85
.Ltmp223:
.LBB9_50:
	@DEBUG_VALUE: das_hex_cmd_fn_exec:cmd_id <- $r8
	@DEBUG_VALUE: das_hex_cmd_process:aBuf <- $r5
	@DEBUG_VALUE: das_hex_cmd_fn_exec:lens <- $r4
	@DEBUG_VALUE: das_hex_cmd_received_task:cmd_length <- $r0
	@DEBUG_VALUE: das_hex_cmd_fn_exec:need_ack <- 1
	@DEBUG_VALUE: das_hex_cmd_fn_exec:cmd_ret <- 0
	@DEBUG_VALUE: das_hex_cmd_received_task:aBuf <- [DW_OP_LLVM_entry_value 1] $r0
	@DEBUG_VALUE: das_hex_cmd_store_udpip:lens <- $r4
	@DEBUG_VALUE: das_hex_cmd_store_udpip:i <- 0
	.loc	2 126 5 is_stmt 1               @ ../das_subg_thread/das_hex_cmd.c:126:5
	lsls	r0, r4, #16
.Ltmp224:
	@DEBUG_VALUE: das_hex_cmd_store_udpip:Param <- undef
	.loc	2 0 5 is_stmt 0                 @ ../das_subg_thread/das_hex_cmd.c:0:5
	mov.w	r12, #1
	.loc	2 126 5                         @ ../das_subg_thread/das_hex_cmd.c:126:5
	beq.w	.LBB9_88
.Ltmp225:
@ %bb.51:
	@DEBUG_VALUE: das_hex_cmd_fn_exec:cmd_id <- $r8
	@DEBUG_VALUE: das_hex_cmd_process:aBuf <- $r5
	@DEBUG_VALUE: das_hex_cmd_store_udpip:lens <- $r4
	@DEBUG_VALUE: das_hex_cmd_fn_exec:lens <- $r4
	@DEBUG_VALUE: das_hex_cmd_store_udpip:i <- 0
	@DEBUG_VALUE: das_hex_cmd_fn_exec:need_ack <- 1
	@DEBUG_VALUE: das_hex_cmd_fn_exec:cmd_ret <- 0
	@DEBUG_VALUE: das_hex_cmd_received_task:aBuf <- [DW_OP_LLVM_entry_value 1] $r0
	.loc	2 0 5                           @ ../das_subg_thread/das_hex_cmd.c:0:5
	movw	r2, :lower16:das_hex_cmd_udp_ip
	movs	r1, #0
	movt	r2, :upper16:das_hex_cmd_udp_ip
	uxth	r3, r4
	movs	r7, #0
.Ltmp226:
.LBB9_52:                               @ =>This Inner Loop Header: Depth=1
	@DEBUG_VALUE: das_hex_cmd_fn_exec:cmd_id <- $r8
	@DEBUG_VALUE: das_hex_cmd_process:aBuf <- $r5
	@DEBUG_VALUE: das_hex_cmd_fn_exec:need_ack <- 1
	@DEBUG_VALUE: das_hex_cmd_fn_exec:cmd_ret <- 0
	@DEBUG_VALUE: das_hex_cmd_received_task:aBuf <- [DW_OP_LLVM_entry_value 1] $r0
	@DEBUG_VALUE: das_hex_cmd_store_udpip:i <- $r7
	.loc	2 128 13 is_stmt 1              @ ../das_subg_thread/das_hex_cmd.c:128:13
	adds	r4, r5, r1
	ldrb	r4, [r4, #4]
	mov.w	r9, #1
	.loc	2 128 27 is_stmt 0              @ ../das_subg_thread/das_hex_cmd.c:128:27
	cmp	r4, #48
	blo.w	.LBB9_102
.Ltmp227:
@ %bb.53:                               @   in Loop: Header=BB9_52 Depth=1
	@DEBUG_VALUE: das_hex_cmd_fn_exec:cmd_id <- $r8
	@DEBUG_VALUE: das_hex_cmd_store_udpip:i <- $r7
	@DEBUG_VALUE: das_hex_cmd_process:aBuf <- $r5
	@DEBUG_VALUE: das_hex_cmd_fn_exec:need_ack <- 1
	@DEBUG_VALUE: das_hex_cmd_fn_exec:cmd_ret <- 0
	@DEBUG_VALUE: das_hex_cmd_received_task:aBuf <- [DW_OP_LLVM_entry_value 1] $r0
	.loc	2 0 27                          @ ../das_subg_thread/das_hex_cmd.c:0:27
	sub.w	r0, r4, #59
	.loc	2 128 27                        @ ../das_subg_thread/das_hex_cmd.c:128:27
	cmp	r0, #6
	blo.w	.LBB9_102
.Ltmp228:
@ %bb.54:                               @   in Loop: Header=BB9_52 Depth=1
	@DEBUG_VALUE: das_hex_cmd_fn_exec:cmd_id <- $r8
	@DEBUG_VALUE: das_hex_cmd_store_udpip:i <- $r7
	@DEBUG_VALUE: das_hex_cmd_process:aBuf <- $r5
	@DEBUG_VALUE: das_hex_cmd_fn_exec:need_ack <- 1
	@DEBUG_VALUE: das_hex_cmd_fn_exec:cmd_ret <- 0
	@DEBUG_VALUE: das_hex_cmd_received_task:aBuf <- [DW_OP_LLVM_entry_value 1] $r0
	.loc	2 128 81                        @ ../das_subg_thread/das_hex_cmd.c:128:81
	cmp	r4, #102
	mov.w	r9, #1
	bhi.w	.LBB9_102
.Ltmp229:
@ %bb.55:                               @   in Loop: Header=BB9_52 Depth=1
	@DEBUG_VALUE: das_hex_cmd_fn_exec:cmd_id <- $r8
	@DEBUG_VALUE: das_hex_cmd_store_udpip:i <- $r7
	@DEBUG_VALUE: das_hex_cmd_process:aBuf <- $r5
	@DEBUG_VALUE: das_hex_cmd_fn_exec:need_ack <- 1
	@DEBUG_VALUE: das_hex_cmd_fn_exec:cmd_ret <- 0
	@DEBUG_VALUE: das_hex_cmd_received_task:aBuf <- [DW_OP_LLVM_entry_value 1] $r0
	sub.w	r0, r4, #71
	cmp	r0, #26
	blo.w	.LBB9_102
.Ltmp230:
@ %bb.56:                               @   in Loop: Header=BB9_52 Depth=1
	@DEBUG_VALUE: das_hex_cmd_fn_exec:cmd_id <- $r8
	@DEBUG_VALUE: das_hex_cmd_store_udpip:i <- $r7
	@DEBUG_VALUE: das_hex_cmd_process:aBuf <- $r5
	@DEBUG_VALUE: das_hex_cmd_fn_exec:need_ack <- 1
	@DEBUG_VALUE: das_hex_cmd_fn_exec:cmd_ret <- 0
	@DEBUG_VALUE: das_hex_cmd_received_task:aBuf <- [DW_OP_LLVM_entry_value 1] $r0
	.loc	2 126 28 is_stmt 1              @ ../das_subg_thread/das_hex_cmd.c:126:28
	adds	r7, #1
.Ltmp231:
	@DEBUG_VALUE: das_hex_cmd_store_udpip:i <- $r7
	.loc	2 132 31                        @ ../das_subg_thread/das_hex_cmd.c:132:31
	strb	r4, [r2, r1]
.Ltmp232:
	.loc	2 126 17                        @ ../das_subg_thread/das_hex_cmd.c:126:17
	uxtb	r1, r7
.Ltmp233:
	.loc	2 126 5 is_stmt 0               @ ../das_subg_thread/das_hex_cmd.c:126:5
	cmp	r3, r1
	bhi	.LBB9_52
.Ltmp234:
@ %bb.57:
	@DEBUG_VALUE: das_hex_cmd_fn_exec:cmd_id <- $r8
	@DEBUG_VALUE: das_hex_cmd_store_udpip:i <- $r7
	@DEBUG_VALUE: das_hex_cmd_process:aBuf <- $r5
	@DEBUG_VALUE: das_hex_cmd_fn_exec:need_ack <- 1
	@DEBUG_VALUE: das_hex_cmd_fn_exec:cmd_ret <- 0
	@DEBUG_VALUE: das_hex_cmd_received_task:aBuf <- [DW_OP_LLVM_entry_value 1] $r0
	.loc	2 136 26 is_stmt 1              @ ../das_subg_thread/das_hex_cmd.c:136:26
	adds	r1, #1
	b	.LBB9_89
.Ltmp235:
.LBB9_58:
	@DEBUG_VALUE: das_hex_cmd_fn_exec:cmd_id <- $r8
	@DEBUG_VALUE: das_hex_cmd_process:aBuf <- $r5
	@DEBUG_VALUE: das_hex_cmd_fn_exec:lens <- $r4
	@DEBUG_VALUE: das_hex_cmd_received_task:cmd_length <- $r0
	@DEBUG_VALUE: das_hex_cmd_fn_exec:need_ack <- 1
	@DEBUG_VALUE: das_hex_cmd_fn_exec:cmd_ret <- 0
	@DEBUG_VALUE: das_hex_cmd_received_task:aBuf <- [DW_OP_LLVM_entry_value 1] $r0
	@DEBUG_VALUE: das_hex_cmd_get_routing_locator_addr:Param <- undef
	@DEBUG_VALUE: das_hex_cmd_get_routing_locator_addr:lens <- undef
	@DEBUG_VALUE: das_hex_cmd_get_routing_locator_addr:cmd_crc <- 0
	@DEBUG_VALUE: das_hex_cmd_get_routing_locator_addr:i <- 0
	.loc	2 393 5                         @ ../das_subg_thread/das_hex_cmd.c:393:5
	bl	otrLock
.Ltmp236:
	.loc	2 393 5 is_stmt 0               @ ../das_subg_thread/das_hex_cmd.c:393:5
	bl	otrGetInstance
.Ltmp237:
	@DEBUG_VALUE: instance <- $r0
	cbz	r0, .LBB9_60
.Ltmp238:
@ %bb.59:
	@DEBUG_VALUE: das_hex_cmd_fn_exec:cmd_id <- $r8
	@DEBUG_VALUE: das_hex_cmd_process:aBuf <- $r5
	@DEBUG_VALUE: das_hex_cmd_fn_exec:lens <- $r4
	@DEBUG_VALUE: instance <- $r0
	@DEBUG_VALUE: das_hex_cmd_get_routing_locator_addr:i <- 0
	@DEBUG_VALUE: das_hex_cmd_get_routing_locator_addr:cmd_crc <- 0
	@DEBUG_VALUE: das_hex_cmd_fn_exec:need_ack <- 1
	@DEBUG_VALUE: das_hex_cmd_fn_exec:cmd_ret <- 0
	@DEBUG_VALUE: das_hex_cmd_received_task:aBuf <- [DW_OP_LLVM_entry_value 1] $r0
	.loc	2 393 5                         @ ../das_subg_thread/das_hex_cmd.c:393:5
	bl	otThreadGetRloc
.Ltmp239:
	.loc	2 0 5                           @ ../das_subg_thread/das_hex_cmd.c:0:5
	add	r1, sp, #64
	.loc	2 393 5                         @ ../das_subg_thread/das_hex_cmd.c:393:5
	movs	r2, #40
	bl	otIp6AddressToString
.Ltmp240:
.LBB9_60:
	@DEBUG_VALUE: das_hex_cmd_fn_exec:cmd_id <- $r8
	@DEBUG_VALUE: das_hex_cmd_process:aBuf <- $r5
	@DEBUG_VALUE: das_hex_cmd_fn_exec:lens <- $r4
	@DEBUG_VALUE: das_hex_cmd_get_routing_locator_addr:i <- 0
	@DEBUG_VALUE: das_hex_cmd_get_routing_locator_addr:cmd_crc <- 0
	@DEBUG_VALUE: das_hex_cmd_fn_exec:need_ack <- 1
	@DEBUG_VALUE: das_hex_cmd_fn_exec:cmd_ret <- 0
	@DEBUG_VALUE: das_hex_cmd_received_task:aBuf <- [DW_OP_LLVM_entry_value 1] $r0
	.loc	2 393 5                         @ ../das_subg_thread/das_hex_cmd.c:393:5
	bl	otrUnlock
.Ltmp241:
	.loc	2 406 12 is_stmt 1              @ ../das_subg_thread/das_hex_cmd.c:406:12
	ldrb.w	r2, [sp, #64]
	movs	r0, #147
	.loc	2 401 16                        @ ../das_subg_thread/das_hex_cmd.c:401:16
	strh.w	r0, [sp, #16]
	movs	r0, #129
	.loc	2 406 5                         @ ../das_subg_thread/das_hex_cmd.c:406:5
	cmp	r2, #0
	.loc	2 403 16                        @ ../das_subg_thread/das_hex_cmd.c:403:16
	strb.w	r0, [sp, #19]
	@DEBUG_VALUE: das_hex_cmd_get_routing_locator_addr:i <- 0
.Ltmp242:
	@DEBUG_VALUE: das_hex_cmd_get_routing_locator_addr:cmd_crc <- undef
	.loc	2 406 5                         @ ../das_subg_thread/das_hex_cmd.c:406:5
	beq.w	.LBB9_90
.Ltmp243:
@ %bb.61:
	@DEBUG_VALUE: das_hex_cmd_fn_exec:cmd_id <- $r8
	@DEBUG_VALUE: das_hex_cmd_process:aBuf <- $r5
	@DEBUG_VALUE: das_hex_cmd_fn_exec:lens <- $r4
	@DEBUG_VALUE: das_hex_cmd_get_routing_locator_addr:i <- 0
	@DEBUG_VALUE: das_hex_cmd_fn_exec:need_ack <- 1
	@DEBUG_VALUE: das_hex_cmd_fn_exec:cmd_ret <- 0
	@DEBUG_VALUE: das_hex_cmd_received_task:aBuf <- [DW_OP_LLVM_entry_value 1] $r0
	.loc	2 0 5 is_stmt 0                 @ ../das_subg_thread/das_hex_cmd.c:0:5
	movs	r3, #0
	movs	r4, #20
.Ltmp244:
	add	r7, sp, #16
	add	r5, sp, #64
.Ltmp245:
	movs	r0, #0
.Ltmp246:
.LBB9_62:                               @ =>This Inner Loop Header: Depth=1
	@DEBUG_VALUE: das_hex_cmd_fn_exec:cmd_id <- $r8
	@DEBUG_VALUE: das_hex_cmd_fn_exec:need_ack <- 1
	@DEBUG_VALUE: das_hex_cmd_fn_exec:cmd_ret <- 0
	@DEBUG_VALUE: das_hex_cmd_received_task:aBuf <- [DW_OP_LLVM_entry_value 1] $r0
	@DEBUG_VALUE: das_hex_cmd_get_routing_locator_addr:i <- $r0
	.loc	2 410 10 is_stmt 1              @ ../das_subg_thread/das_hex_cmd.c:410:10
	adds	r0, #1
.Ltmp247:
	@DEBUG_VALUE: das_hex_cmd_get_routing_locator_addr:i <- $r0
	.loc	2 408 19                        @ ../das_subg_thread/das_hex_cmd.c:408:19
	adds	r1, r3, r7
.Ltmp248:
	.loc	2 406 12                        @ ../das_subg_thread/das_hex_cmd.c:406:12
	uxtb	r3, r0
.Ltmp249:
	.loc	2 408 24                        @ ../das_subg_thread/das_hex_cmd.c:408:24
	strb	r2, [r1, #4]
	.loc	2 409 17                        @ ../das_subg_thread/das_hex_cmd.c:409:17
	adds	r1, r4, r2
.Ltmp250:
	@DEBUG_VALUE: das_hex_cmd_get_routing_locator_addr:cmd_crc <- [DW_OP_LLVM_convert 32 7, DW_OP_LLVM_convert 8 7, DW_OP_stack_value] $r1
	.loc	2 406 12                        @ ../das_subg_thread/das_hex_cmd.c:406:12
	ldrb	r2, [r5, r3]
	.loc	2 406 5 is_stmt 0               @ ../das_subg_thread/das_hex_cmd.c:406:5
	uxtb	r4, r1
.Ltmp251:
	@DEBUG_VALUE: das_hex_cmd_get_routing_locator_addr:cmd_crc <- undef
	cmp	r2, #0
	bne	.LBB9_62
.Ltmp252:
.LBB9_63:
	@DEBUG_VALUE: das_hex_cmd_fn_exec:cmd_id <- $r8
	@DEBUG_VALUE: das_hex_cmd_fn_exec:need_ack <- 1
	@DEBUG_VALUE: das_hex_cmd_fn_exec:cmd_ret <- 0
	@DEBUG_VALUE: das_hex_cmd_received_task:aBuf <- [DW_OP_LLVM_entry_value 1] $r0
	.loc	2 0 0                           @ ../das_subg_thread/das_hex_cmd.c:0:0
	adds	r2, r3, #4
	b	.LBB9_92
.Ltmp253:
.LBB9_64:
	@DEBUG_VALUE: das_hex_cmd_fn_exec:cmd_id <- $r8
	@DEBUG_VALUE: das_hex_cmd_process:aBuf <- $r5
	@DEBUG_VALUE: das_hex_cmd_meter_id_respone:lens <- $r4
	@DEBUG_VALUE: das_hex_cmd_fn_exec:lens <- $r4
	@DEBUG_VALUE: das_hex_cmd_meter_id_respone:extaddr <- [DW_OP_LLVM_fragment 24 8] 0
	@DEBUG_VALUE: das_hex_cmd_meter_id_respone:extaddr <- [DW_OP_LLVM_fragment 32 8] 0
	@DEBUG_VALUE: das_hex_cmd_meter_id_respone:extaddr <- [DW_OP_LLVM_fragment 40 8] 0
	@DEBUG_VALUE: das_hex_cmd_meter_id_respone:extaddr <- [DW_OP_LLVM_fragment 48 8] 0
	@DEBUG_VALUE: das_hex_cmd_meter_id_respone:extaddr <- [DW_OP_LLVM_fragment 56 8] 0
	@DEBUG_VALUE: das_hex_cmd_meter_id_respone:ret <- 0
	@DEBUG_VALUE: das_hex_cmd_meter_id_respone:num <- 0
	@DEBUG_VALUE: das_hex_cmd_meter_id_respone:temp <- 0
	@DEBUG_VALUE: das_hex_cmd_fn_exec:need_ack <- 1
	@DEBUG_VALUE: das_hex_cmd_fn_exec:cmd_ret <- 0
	@DEBUG_VALUE: das_hex_cmd_received_task:aBuf <- [DW_OP_LLVM_entry_value 1] $r0
	@DEBUG_VALUE: das_hex_cmd_meter_id_respone:num <- 0
	@DEBUG_VALUE: das_hex_cmd_meter_id_respone:i <- 0
	.loc	2 451 9 is_stmt 1               @ ../das_subg_thread/das_hex_cmd.c:451:9
	lsls	r0, r4, #16
	beq.w	.LBB9_93
.Ltmp254:
@ %bb.65:
	@DEBUG_VALUE: das_hex_cmd_fn_exec:cmd_id <- $r8
	@DEBUG_VALUE: das_hex_cmd_process:aBuf <- $r5
	@DEBUG_VALUE: das_hex_cmd_meter_id_respone:lens <- $r4
	@DEBUG_VALUE: das_hex_cmd_fn_exec:lens <- $r4
	@DEBUG_VALUE: das_hex_cmd_meter_id_respone:i <- 0
	@DEBUG_VALUE: das_hex_cmd_meter_id_respone:extaddr <- [DW_OP_LLVM_fragment 24 8] 0
	@DEBUG_VALUE: das_hex_cmd_meter_id_respone:extaddr <- [DW_OP_LLVM_fragment 32 8] 0
	@DEBUG_VALUE: das_hex_cmd_meter_id_respone:extaddr <- [DW_OP_LLVM_fragment 40 8] 0
	@DEBUG_VALUE: das_hex_cmd_meter_id_respone:extaddr <- [DW_OP_LLVM_fragment 48 8] 0
	@DEBUG_VALUE: das_hex_cmd_meter_id_respone:extaddr <- [DW_OP_LLVM_fragment 56 8] 0
	@DEBUG_VALUE: das_hex_cmd_meter_id_respone:ret <- 0
	@DEBUG_VALUE: das_hex_cmd_meter_id_respone:num <- 0
	@DEBUG_VALUE: das_hex_cmd_meter_id_respone:temp <- 0
	@DEBUG_VALUE: das_hex_cmd_fn_exec:need_ack <- 1
	@DEBUG_VALUE: das_hex_cmd_fn_exec:cmd_ret <- 0
	@DEBUG_VALUE: das_hex_cmd_received_task:aBuf <- [DW_OP_LLVM_entry_value 1] $r0
	.loc	2 0 9 is_stmt 0                 @ ../das_subg_thread/das_hex_cmd.c:0:9
	movs	r3, #0
	mov.w	r9, #10
	mov.w	r11, #0
	mov.w	r10, #0
	mov.w	lr, #0
.Ltmp255:
.LBB9_66:                               @ =>This Loop Header: Depth=1
                                        @     Child Loop BB9_73 Depth 2
	@DEBUG_VALUE: das_hex_cmd_fn_exec:cmd_id <- $r8
	@DEBUG_VALUE: das_hex_cmd_process:aBuf <- $r5
	@DEBUG_VALUE: das_hex_cmd_meter_id_respone:extaddr <- [DW_OP_LLVM_fragment 24 8] 0
	@DEBUG_VALUE: das_hex_cmd_meter_id_respone:extaddr <- [DW_OP_LLVM_fragment 32 8] 0
	@DEBUG_VALUE: das_hex_cmd_meter_id_respone:extaddr <- [DW_OP_LLVM_fragment 40 8] 0
	@DEBUG_VALUE: das_hex_cmd_meter_id_respone:extaddr <- [DW_OP_LLVM_fragment 48 8] 0
	@DEBUG_VALUE: das_hex_cmd_meter_id_respone:extaddr <- [DW_OP_LLVM_fragment 56 8] 0
	@DEBUG_VALUE: das_hex_cmd_meter_id_respone:ret <- 0
	@DEBUG_VALUE: das_hex_cmd_fn_exec:need_ack <- 1
	@DEBUG_VALUE: das_hex_cmd_fn_exec:cmd_ret <- 0
	@DEBUG_VALUE: das_hex_cmd_received_task:aBuf <- [DW_OP_LLVM_entry_value 1] $r0
	@DEBUG_VALUE: das_hex_cmd_meter_id_respone:i <- $lr
	@DEBUG_VALUE: das_hex_cmd_meter_id_respone:num <- [DW_OP_LLVM_fragment 0 32] $r11
	@DEBUG_VALUE: das_hex_cmd_meter_id_respone:num <- [DW_OP_LLVM_fragment 32 32] $r10
	.loc	2 453 17 is_stmt 1              @ ../das_subg_thread/das_hex_cmd.c:453:17
	adds	r0, r5, r3
	ldrb	r0, [r0, #4]
	.loc	2 453 33 is_stmt 0              @ ../das_subg_thread/das_hex_cmd.c:453:33
	sub.w	r7, r0, #48
	uxtb	r4, r7
	cmp	r4, #10
	blo	.LBB9_71
.Ltmp256:
@ %bb.67:                               @   in Loop: Header=BB9_66 Depth=1
	@DEBUG_VALUE: das_hex_cmd_meter_id_respone:num <- [DW_OP_LLVM_fragment 0 32] $r11
	@DEBUG_VALUE: das_hex_cmd_meter_id_respone:num <- [DW_OP_LLVM_fragment 32 32] $r10
	@DEBUG_VALUE: das_hex_cmd_fn_exec:cmd_id <- $r8
	@DEBUG_VALUE: das_hex_cmd_process:aBuf <- $r5
	@DEBUG_VALUE: das_hex_cmd_meter_id_respone:i <- $lr
	@DEBUG_VALUE: das_hex_cmd_meter_id_respone:extaddr <- [DW_OP_LLVM_fragment 24 8] 0
	@DEBUG_VALUE: das_hex_cmd_meter_id_respone:extaddr <- [DW_OP_LLVM_fragment 32 8] 0
	@DEBUG_VALUE: das_hex_cmd_meter_id_respone:extaddr <- [DW_OP_LLVM_fragment 40 8] 0
	@DEBUG_VALUE: das_hex_cmd_meter_id_respone:extaddr <- [DW_OP_LLVM_fragment 48 8] 0
	@DEBUG_VALUE: das_hex_cmd_meter_id_respone:extaddr <- [DW_OP_LLVM_fragment 56 8] 0
	@DEBUG_VALUE: das_hex_cmd_meter_id_respone:ret <- 0
	@DEBUG_VALUE: das_hex_cmd_fn_exec:need_ack <- 1
	@DEBUG_VALUE: das_hex_cmd_fn_exec:cmd_ret <- 0
	@DEBUG_VALUE: das_hex_cmd_received_task:aBuf <- [DW_OP_LLVM_entry_value 1] $r0
	.loc	2 457 38 is_stmt 1              @ ../das_subg_thread/das_hex_cmd.c:457:38
	sub.w	r7, r0, #97
	uxtb	r7, r7
	cmp	r7, #5
	bhi	.LBB9_69
.Ltmp257:
@ %bb.68:                               @   in Loop: Header=BB9_66 Depth=1
	@DEBUG_VALUE: das_hex_cmd_meter_id_respone:num <- [DW_OP_LLVM_fragment 0 32] $r11
	@DEBUG_VALUE: das_hex_cmd_meter_id_respone:num <- [DW_OP_LLVM_fragment 32 32] $r10
	@DEBUG_VALUE: das_hex_cmd_fn_exec:cmd_id <- $r8
	@DEBUG_VALUE: das_hex_cmd_process:aBuf <- $r5
	@DEBUG_VALUE: das_hex_cmd_meter_id_respone:i <- $lr
	@DEBUG_VALUE: das_hex_cmd_meter_id_respone:extaddr <- [DW_OP_LLVM_fragment 24 8] 0
	@DEBUG_VALUE: das_hex_cmd_meter_id_respone:extaddr <- [DW_OP_LLVM_fragment 32 8] 0
	@DEBUG_VALUE: das_hex_cmd_meter_id_respone:extaddr <- [DW_OP_LLVM_fragment 40 8] 0
	@DEBUG_VALUE: das_hex_cmd_meter_id_respone:extaddr <- [DW_OP_LLVM_fragment 48 8] 0
	@DEBUG_VALUE: das_hex_cmd_meter_id_respone:extaddr <- [DW_OP_LLVM_fragment 56 8] 0
	@DEBUG_VALUE: das_hex_cmd_meter_id_respone:ret <- 0
	@DEBUG_VALUE: das_hex_cmd_fn_exec:need_ack <- 1
	@DEBUG_VALUE: das_hex_cmd_fn_exec:cmd_ret <- 0
	@DEBUG_VALUE: das_hex_cmd_received_task:aBuf <- [DW_OP_LLVM_entry_value 1] $r0
	.loc	2 459 44                        @ ../das_subg_thread/das_hex_cmd.c:459:44
	sub.w	r7, r0, #87
.Ltmp258:
	@DEBUG_VALUE: das_hex_cmd_meter_id_respone:hexDigit <- $r7
	.loc	2 0 44 is_stmt 0                @ ../das_subg_thread/das_hex_cmd.c:0:44
	b	.LBB9_71
.Ltmp259:
.LBB9_69:                               @   in Loop: Header=BB9_66 Depth=1
	@DEBUG_VALUE: das_hex_cmd_meter_id_respone:num <- [DW_OP_LLVM_fragment 0 32] $r11
	@DEBUG_VALUE: das_hex_cmd_meter_id_respone:num <- [DW_OP_LLVM_fragment 32 32] $r10
	@DEBUG_VALUE: das_hex_cmd_fn_exec:cmd_id <- $r8
	@DEBUG_VALUE: das_hex_cmd_process:aBuf <- $r5
	@DEBUG_VALUE: das_hex_cmd_meter_id_respone:i <- $lr
	@DEBUG_VALUE: das_hex_cmd_meter_id_respone:extaddr <- [DW_OP_LLVM_fragment 24 8] 0
	@DEBUG_VALUE: das_hex_cmd_meter_id_respone:extaddr <- [DW_OP_LLVM_fragment 32 8] 0
	@DEBUG_VALUE: das_hex_cmd_meter_id_respone:extaddr <- [DW_OP_LLVM_fragment 40 8] 0
	@DEBUG_VALUE: das_hex_cmd_meter_id_respone:extaddr <- [DW_OP_LLVM_fragment 48 8] 0
	@DEBUG_VALUE: das_hex_cmd_meter_id_respone:extaddr <- [DW_OP_LLVM_fragment 56 8] 0
	@DEBUG_VALUE: das_hex_cmd_meter_id_respone:ret <- 0
	@DEBUG_VALUE: das_hex_cmd_fn_exec:need_ack <- 1
	@DEBUG_VALUE: das_hex_cmd_fn_exec:cmd_ret <- 0
	@DEBUG_VALUE: das_hex_cmd_received_task:aBuf <- [DW_OP_LLVM_entry_value 1] $r0
	.loc	2 461 38 is_stmt 1              @ ../das_subg_thread/das_hex_cmd.c:461:38
	sub.w	r7, r0, #65
	uxtb	r7, r7
	cmp	r7, #5
	bhi.w	.LBB9_107
.Ltmp260:
@ %bb.70:                               @   in Loop: Header=BB9_66 Depth=1
	@DEBUG_VALUE: das_hex_cmd_meter_id_respone:num <- [DW_OP_LLVM_fragment 0 32] $r11
	@DEBUG_VALUE: das_hex_cmd_meter_id_respone:num <- [DW_OP_LLVM_fragment 32 32] $r10
	@DEBUG_VALUE: das_hex_cmd_fn_exec:cmd_id <- $r8
	@DEBUG_VALUE: das_hex_cmd_process:aBuf <- $r5
	@DEBUG_VALUE: das_hex_cmd_meter_id_respone:i <- $lr
	@DEBUG_VALUE: das_hex_cmd_meter_id_respone:extaddr <- [DW_OP_LLVM_fragment 24 8] 0
	@DEBUG_VALUE: das_hex_cmd_meter_id_respone:extaddr <- [DW_OP_LLVM_fragment 32 8] 0
	@DEBUG_VALUE: das_hex_cmd_meter_id_respone:extaddr <- [DW_OP_LLVM_fragment 40 8] 0
	@DEBUG_VALUE: das_hex_cmd_meter_id_respone:extaddr <- [DW_OP_LLVM_fragment 48 8] 0
	@DEBUG_VALUE: das_hex_cmd_meter_id_respone:extaddr <- [DW_OP_LLVM_fragment 56 8] 0
	@DEBUG_VALUE: das_hex_cmd_meter_id_respone:ret <- 0
	@DEBUG_VALUE: das_hex_cmd_fn_exec:need_ack <- 1
	@DEBUG_VALUE: das_hex_cmd_fn_exec:cmd_ret <- 0
	@DEBUG_VALUE: das_hex_cmd_received_task:aBuf <- [DW_OP_LLVM_entry_value 1] $r0
	.loc	2 463 44                        @ ../das_subg_thread/das_hex_cmd.c:463:44
	sub.w	r7, r0, #55
.Ltmp261:
	@DEBUG_VALUE: das_hex_cmd_meter_id_respone:hexDigit <- $r7
.LBB9_71:                               @   in Loop: Header=BB9_66 Depth=1
	@DEBUG_VALUE: das_hex_cmd_meter_id_respone:num <- [DW_OP_LLVM_fragment 0 32] $r11
	@DEBUG_VALUE: das_hex_cmd_meter_id_respone:num <- [DW_OP_LLVM_fragment 32 32] $r10
	@DEBUG_VALUE: das_hex_cmd_fn_exec:cmd_id <- $r8
	@DEBUG_VALUE: das_hex_cmd_process:aBuf <- $r5
	@DEBUG_VALUE: das_hex_cmd_meter_id_respone:i <- $lr
	@DEBUG_VALUE: das_hex_cmd_meter_id_respone:extaddr <- [DW_OP_LLVM_fragment 24 8] 0
	@DEBUG_VALUE: das_hex_cmd_meter_id_respone:extaddr <- [DW_OP_LLVM_fragment 32 8] 0
	@DEBUG_VALUE: das_hex_cmd_meter_id_respone:extaddr <- [DW_OP_LLVM_fragment 40 8] 0
	@DEBUG_VALUE: das_hex_cmd_meter_id_respone:extaddr <- [DW_OP_LLVM_fragment 48 8] 0
	@DEBUG_VALUE: das_hex_cmd_meter_id_respone:extaddr <- [DW_OP_LLVM_fragment 56 8] 0
	@DEBUG_VALUE: das_hex_cmd_meter_id_respone:ret <- 0
	@DEBUG_VALUE: das_hex_cmd_fn_exec:need_ack <- 1
	@DEBUG_VALUE: das_hex_cmd_fn_exec:cmd_ret <- 0
	@DEBUG_VALUE: das_hex_cmd_received_task:aBuf <- [DW_OP_LLVM_entry_value 1] $r0
	@DEBUG_VALUE: das_hex_cmd_meter_id_respone:hexDigit <- $r7
	.loc	2 472 39                        @ ../das_subg_thread/das_hex_cmd.c:472:39
	mvns	r0, r3
	add	r0, r12
.Ltmp262:
	.loc	2 472 13 is_stmt 0              @ ../das_subg_thread/das_hex_cmd.c:472:13
	cmp	r0, #1
.Ltmp263:
	.loc	2 471 20 is_stmt 1              @ ../das_subg_thread/das_hex_cmd.c:471:20
	uxtb	r3, r7
.Ltmp264:
	@DEBUG_VALUE: das_hex_cmd_meter_id_respone:k <- 0
	@DEBUG_VALUE: das_hex_cmd_meter_id_respone:temp <- [DW_OP_LLVM_fragment 32 32] undef
	@DEBUG_VALUE: das_hex_cmd_meter_id_respone:temp <- [DW_OP_LLVM_fragment 0 32] $r3
	.loc	2 0 20 is_stmt 0                @ ../das_subg_thread/das_hex_cmd.c:0:20
	mov.w	r7, #0
.Ltmp265:
	.loc	2 472 13 is_stmt 1              @ ../das_subg_thread/das_hex_cmd.c:472:13
	blt	.LBB9_74
.Ltmp266:
@ %bb.72:                               @   in Loop: Header=BB9_66 Depth=1
	@DEBUG_VALUE: das_hex_cmd_meter_id_respone:num <- [DW_OP_LLVM_fragment 0 32] $r11
	@DEBUG_VALUE: das_hex_cmd_meter_id_respone:num <- [DW_OP_LLVM_fragment 32 32] $r10
	@DEBUG_VALUE: das_hex_cmd_fn_exec:cmd_id <- $r8
	@DEBUG_VALUE: das_hex_cmd_process:aBuf <- $r5
	@DEBUG_VALUE: das_hex_cmd_meter_id_respone:temp <- [DW_OP_LLVM_fragment 0 32] $r3
	@DEBUG_VALUE: das_hex_cmd_meter_id_respone:i <- $lr
	@DEBUG_VALUE: das_hex_cmd_meter_id_respone:k <- 0
	@DEBUG_VALUE: das_hex_cmd_meter_id_respone:extaddr <- [DW_OP_LLVM_fragment 24 8] 0
	@DEBUG_VALUE: das_hex_cmd_meter_id_respone:extaddr <- [DW_OP_LLVM_fragment 32 8] 0
	@DEBUG_VALUE: das_hex_cmd_meter_id_respone:extaddr <- [DW_OP_LLVM_fragment 40 8] 0
	@DEBUG_VALUE: das_hex_cmd_meter_id_respone:extaddr <- [DW_OP_LLVM_fragment 48 8] 0
	@DEBUG_VALUE: das_hex_cmd_meter_id_respone:extaddr <- [DW_OP_LLVM_fragment 56 8] 0
	@DEBUG_VALUE: das_hex_cmd_meter_id_respone:ret <- 0
	@DEBUG_VALUE: das_hex_cmd_fn_exec:need_ack <- 1
	@DEBUG_VALUE: das_hex_cmd_fn_exec:cmd_ret <- 0
	@DEBUG_VALUE: das_hex_cmd_received_task:aBuf <- [DW_OP_LLVM_entry_value 1] $r0
	.loc	2 0 13 is_stmt 0                @ ../das_subg_thread/das_hex_cmd.c:0:13
	movs	r4, #0
.Ltmp267:
	.p2align	2
.LBB9_73:                               @   Parent Loop BB9_66 Depth=1
                                        @ =>  This Inner Loop Header: Depth=2
	@DEBUG_VALUE: das_hex_cmd_meter_id_respone:num <- [DW_OP_LLVM_fragment 0 32] $r11
	@DEBUG_VALUE: das_hex_cmd_meter_id_respone:num <- [DW_OP_LLVM_fragment 32 32] $r10
	@DEBUG_VALUE: das_hex_cmd_fn_exec:cmd_id <- $r8
	@DEBUG_VALUE: das_hex_cmd_process:aBuf <- $r5
	@DEBUG_VALUE: das_hex_cmd_meter_id_respone:temp <- [DW_OP_LLVM_fragment 0 32] $r3
	@DEBUG_VALUE: das_hex_cmd_meter_id_respone:i <- $lr
	@DEBUG_VALUE: das_hex_cmd_meter_id_respone:extaddr <- [DW_OP_LLVM_fragment 24 8] 0
	@DEBUG_VALUE: das_hex_cmd_meter_id_respone:extaddr <- [DW_OP_LLVM_fragment 32 8] 0
	@DEBUG_VALUE: das_hex_cmd_meter_id_respone:extaddr <- [DW_OP_LLVM_fragment 40 8] 0
	@DEBUG_VALUE: das_hex_cmd_meter_id_respone:extaddr <- [DW_OP_LLVM_fragment 48 8] 0
	@DEBUG_VALUE: das_hex_cmd_meter_id_respone:extaddr <- [DW_OP_LLVM_fragment 56 8] 0
	@DEBUG_VALUE: das_hex_cmd_meter_id_respone:ret <- 0
	@DEBUG_VALUE: das_hex_cmd_fn_exec:need_ack <- 1
	@DEBUG_VALUE: das_hex_cmd_fn_exec:cmd_ret <- 0
	@DEBUG_VALUE: das_hex_cmd_received_task:aBuf <- [DW_OP_LLVM_entry_value 1] $r0
	@DEBUG_VALUE: das_hex_cmd_meter_id_respone:temp <- [DW_OP_LLVM_fragment 0 32] $r3
	@DEBUG_VALUE: das_hex_cmd_meter_id_respone:temp <- [DW_OP_LLVM_fragment 32 32] $r7
	@DEBUG_VALUE: das_hex_cmd_meter_id_respone:k <- $r4
	.loc	2 472 46                        @ ../das_subg_thread/das_hex_cmd.c:472:46
	adds	r4, #1
.Ltmp268:
	@DEBUG_VALUE: das_hex_cmd_meter_id_respone:k <- $r4
	.loc	2 474 22 is_stmt 1              @ ../das_subg_thread/das_hex_cmd.c:474:22
	umull	r3, r2, r3, r9
.Ltmp269:
	@DEBUG_VALUE: das_hex_cmd_meter_id_respone:temp <- [DW_OP_LLVM_fragment 0 32] $r3
	add.w	r7, r7, r7, lsl #2
.Ltmp270:
	.loc	2 472 25                        @ ../das_subg_thread/das_hex_cmd.c:472:25
	uxtb	r1, r4
.Ltmp271:
	.loc	2 472 13 is_stmt 0              @ ../das_subg_thread/das_hex_cmd.c:472:13
	cmp	r0, r1
.Ltmp272:
	.loc	2 474 22 is_stmt 1              @ ../das_subg_thread/das_hex_cmd.c:474:22
	add.w	r7, r2, r7, lsl #1
.Ltmp273:
	@DEBUG_VALUE: das_hex_cmd_meter_id_respone:temp <- [DW_OP_LLVM_fragment 32 32] $r7
	.loc	2 472 13                        @ ../das_subg_thread/das_hex_cmd.c:472:13
	bgt	.LBB9_73
.Ltmp274:
.LBB9_74:                               @   in Loop: Header=BB9_66 Depth=1
	@DEBUG_VALUE: das_hex_cmd_meter_id_respone:num <- [DW_OP_LLVM_fragment 0 32] $r11
	@DEBUG_VALUE: das_hex_cmd_meter_id_respone:num <- [DW_OP_LLVM_fragment 32 32] $r10
	@DEBUG_VALUE: das_hex_cmd_fn_exec:cmd_id <- $r8
	@DEBUG_VALUE: das_hex_cmd_process:aBuf <- $r5
	@DEBUG_VALUE: das_hex_cmd_meter_id_respone:temp <- [DW_OP_LLVM_fragment 0 32] $r3
	@DEBUG_VALUE: das_hex_cmd_meter_id_respone:i <- $lr
	@DEBUG_VALUE: das_hex_cmd_meter_id_respone:extaddr <- [DW_OP_LLVM_fragment 24 8] 0
	@DEBUG_VALUE: das_hex_cmd_meter_id_respone:extaddr <- [DW_OP_LLVM_fragment 32 8] 0
	@DEBUG_VALUE: das_hex_cmd_meter_id_respone:extaddr <- [DW_OP_LLVM_fragment 40 8] 0
	@DEBUG_VALUE: das_hex_cmd_meter_id_respone:extaddr <- [DW_OP_LLVM_fragment 48 8] 0
	@DEBUG_VALUE: das_hex_cmd_meter_id_respone:extaddr <- [DW_OP_LLVM_fragment 56 8] 0
	@DEBUG_VALUE: das_hex_cmd_meter_id_respone:ret <- 0
	@DEBUG_VALUE: das_hex_cmd_fn_exec:need_ack <- 1
	@DEBUG_VALUE: das_hex_cmd_fn_exec:cmd_ret <- 0
	@DEBUG_VALUE: das_hex_cmd_received_task:aBuf <- [DW_OP_LLVM_entry_value 1] $r0
	.loc	2 451 32                        @ ../das_subg_thread/das_hex_cmd.c:451:32
	add.w	lr, lr, #1
.Ltmp275:
	@DEBUG_VALUE: das_hex_cmd_meter_id_respone:i <- $lr
	.loc	2 476 17                        @ ../das_subg_thread/das_hex_cmd.c:476:17
	adds.w	r11, r11, r3
.Ltmp276:
	@DEBUG_VALUE: das_hex_cmd_meter_id_respone:num <- [DW_OP_LLVM_fragment 0 32] $r11
	.loc	2 451 21                        @ ../das_subg_thread/das_hex_cmd.c:451:21
	uxtb.w	r3, lr
.Ltmp277:
	.loc	2 476 17                        @ ../das_subg_thread/das_hex_cmd.c:476:17
	adc.w	r10, r10, r7
.Ltmp278:
	@DEBUG_VALUE: das_hex_cmd_meter_id_respone:num <- [DW_OP_LLVM_fragment 32 32] $r10
	.loc	2 451 9                         @ ../das_subg_thread/das_hex_cmd.c:451:9
	cmp	r12, r3
	bhi	.LBB9_66
.Ltmp279:
@ %bb.75:
	@DEBUG_VALUE: das_hex_cmd_meter_id_respone:num <- [DW_OP_LLVM_fragment 0 32] $r11
	@DEBUG_VALUE: das_hex_cmd_meter_id_respone:num <- [DW_OP_LLVM_fragment 32 32] $r10
	@DEBUG_VALUE: das_hex_cmd_fn_exec:cmd_id <- $r8
	@DEBUG_VALUE: das_hex_cmd_process:aBuf <- $r5
	@DEBUG_VALUE: das_hex_cmd_meter_id_respone:i <- $lr
	@DEBUG_VALUE: das_hex_cmd_meter_id_respone:extaddr <- [DW_OP_LLVM_fragment 24 8] 0
	@DEBUG_VALUE: das_hex_cmd_meter_id_respone:extaddr <- [DW_OP_LLVM_fragment 32 8] 0
	@DEBUG_VALUE: das_hex_cmd_meter_id_respone:extaddr <- [DW_OP_LLVM_fragment 40 8] 0
	@DEBUG_VALUE: das_hex_cmd_meter_id_respone:extaddr <- [DW_OP_LLVM_fragment 48 8] 0
	@DEBUG_VALUE: das_hex_cmd_meter_id_respone:extaddr <- [DW_OP_LLVM_fragment 56 8] 0
	@DEBUG_VALUE: das_hex_cmd_meter_id_respone:ret <- 0
	@DEBUG_VALUE: das_hex_cmd_fn_exec:need_ack <- 1
	@DEBUG_VALUE: das_hex_cmd_fn_exec:cmd_ret <- 0
	@DEBUG_VALUE: das_hex_cmd_received_task:aBuf <- [DW_OP_LLVM_entry_value 1] $r0
	lsr.w	r0, r11, #8
	orr.w	r0, r0, r10, lsl #24
	str	r0, [sp, #12]                   @ 4-byte Spill
	lsr.w	r0, r11, #16
	orr.w	r7, r0, r10, lsl #16
	lsr.w	r0, r11, #24
	orr.w	r4, r0, r10, lsl #8
	b	.LBB9_94
.Ltmp280:
.LBB9_76:
	@DEBUG_VALUE: das_hex_cmd_fn_exec:cmd_id <- $r8
	@DEBUG_VALUE: das_hex_cmd_process:aBuf <- $r5
	@DEBUG_VALUE: das_hex_cmd_fn_exec:lens <- $r4
	@DEBUG_VALUE: das_hex_cmd_get_mesh_local_addr:i <- 0
	@DEBUG_VALUE: das_hex_cmd_fn_exec:need_ack <- 1
	@DEBUG_VALUE: das_hex_cmd_fn_exec:cmd_ret <- 0
	@DEBUG_VALUE: das_hex_cmd_received_task:aBuf <- [DW_OP_LLVM_entry_value 1] $r0
	.loc	2 0 9 is_stmt 0                 @ ../das_subg_thread/das_hex_cmd.c:0:9
	movs	r1, #4
	movs	r0, #0
	movs	r2, #4
	b	.LBB9_92
.Ltmp281:
.LBB9_77:
	@DEBUG_VALUE: das_hex_cmd_fn_exec:cmd_id <- $r8
	@DEBUG_VALUE: das_hex_cmd_process:aBuf <- $r5
	@DEBUG_VALUE: das_hex_cmd_udp_data_send:lens <- $r4
	@DEBUG_VALUE: das_hex_cmd_fn_exec:lens <- $r4
	@DEBUG_VALUE: instance <- $r0
	@DEBUG_VALUE: das_hex_cmd_udp_data_send:mRole <- 0
	@DEBUG_VALUE: das_hex_cmd_udp_data_send:error <- 0
	@DEBUG_VALUE: das_hex_cmd_fn_exec:need_ack <- 1
	@DEBUG_VALUE: das_hex_cmd_fn_exec:cmd_ret <- 0
	@DEBUG_VALUE: das_hex_cmd_received_task:aBuf <- [DW_OP_LLVM_entry_value 1] $r0
	movs	r7, #1
.Ltmp282:
.LBB9_78:
	@DEBUG_VALUE: das_hex_cmd_fn_exec:cmd_id <- $r8
	@DEBUG_VALUE: das_hex_cmd_process:aBuf <- $r5
	@DEBUG_VALUE: das_hex_cmd_udp_data_send:lens <- $r4
	@DEBUG_VALUE: das_hex_cmd_fn_exec:lens <- $r4
	@DEBUG_VALUE: das_hex_cmd_udp_data_send:error <- 0
	@DEBUG_VALUE: das_hex_cmd_fn_exec:need_ack <- 1
	@DEBUG_VALUE: das_hex_cmd_fn_exec:cmd_ret <- 0
	@DEBUG_VALUE: das_hex_cmd_received_task:aBuf <- [DW_OP_LLVM_entry_value 1] $r0
	@DEBUG_VALUE: das_hex_cmd_udp_data_send:mRole <- undef
	.loc	2 155 5 is_stmt 1               @ ../das_subg_thread/das_hex_cmd.c:155:5
	bl	otrUnlock
.Ltmp283:
	.loc	2 165 13                        @ ../das_subg_thread/das_hex_cmd.c:165:13
	cmp	r7, #0
	mov.w	r9, #1
	bne.w	.LBB9_102
.Ltmp284:
@ %bb.79:
	@DEBUG_VALUE: das_hex_cmd_fn_exec:cmd_id <- $r8
	@DEBUG_VALUE: das_hex_cmd_process:aBuf <- $r5
	@DEBUG_VALUE: das_hex_cmd_udp_data_send:lens <- $r4
	@DEBUG_VALUE: das_hex_cmd_fn_exec:lens <- $r4
	@DEBUG_VALUE: das_hex_cmd_udp_data_send:error <- 0
	@DEBUG_VALUE: das_hex_cmd_fn_exec:need_ack <- 1
	@DEBUG_VALUE: das_hex_cmd_fn_exec:cmd_ret <- 0
	@DEBUG_VALUE: das_hex_cmd_received_task:aBuf <- [DW_OP_LLVM_entry_value 1] $r0
	.loc	2 0 0 is_stmt 0                 @ ../das_subg_thread/das_hex_cmd.c:0:0
	movw	r0, :lower16:das_hex_cmd_udp_ip_set
	movt	r0, :upper16:das_hex_cmd_udp_ip_set
	ldrb	r0, [r0]
	.loc	2 165 13                        @ ../das_subg_thread/das_hex_cmd.c:165:13
	cmp	r0, #0
	beq.w	.LBB9_102
.Ltmp285:
@ %bb.80:
	@DEBUG_VALUE: das_hex_cmd_fn_exec:cmd_id <- $r8
	@DEBUG_VALUE: das_hex_cmd_process:aBuf <- $r5
	@DEBUG_VALUE: das_hex_cmd_udp_data_send:lens <- $r4
	@DEBUG_VALUE: das_hex_cmd_fn_exec:lens <- $r4
	@DEBUG_VALUE: das_hex_cmd_udp_data_send:error <- 0
	@DEBUG_VALUE: das_hex_cmd_fn_exec:need_ack <- 1
	@DEBUG_VALUE: das_hex_cmd_fn_exec:cmd_ret <- 0
	@DEBUG_VALUE: das_hex_cmd_received_task:aBuf <- [DW_OP_LLVM_entry_value 1] $r0
	.loc	2 177 9 is_stmt 1               @ ../das_subg_thread/das_hex_cmd.c:177:9
	movw	r0, :lower16:das_hex_cmd_udp_ip
	movt	r0, :upper16:das_hex_cmd_udp_ip
	add	r1, sp, #16
	bl	otIp6AddressFromString
.Ltmp286:
	.loc	2 179 17                        @ ../das_subg_thread/das_hex_cmd.c:179:17
	add	r7, sp, #16
	ldm	r7, {r1, r2, r3, r7}
	uxth	r0, r4
	adds	r5, #4
.Ltmp287:
	strd	r5, r0, [sp, #4]
	movw	r0, #5678
	str	r7, [sp]
	bl	app_udpSend
.Ltmp288:
	mov	r9, r0
.Ltmp289:
	@DEBUG_VALUE: das_hex_cmd_udp_data_send:error <- $r9
	.loc	2 181 5                         @ ../das_subg_thread/das_hex_cmd.c:181:5
	cmp	r0, #0
	it	ne
	movne.w	r9, #1
.Ltmp290:
	.loc	2 0 5 is_stmt 0                 @ ../das_subg_thread/das_hex_cmd.c:0:5
	b	.LBB9_102
.Ltmp291:
.LBB9_81:
	@DEBUG_VALUE: das_hex_cmd_fn_exec:cmd_id <- $r8
	@DEBUG_VALUE: das_hex_cmd_process:aBuf <- $r5
	@DEBUG_VALUE: das_hex_cmd_fn_exec:lens <- $r4
	@DEBUG_VALUE: instance <- $r0
	@DEBUG_VALUE: das_hex_cmd_get_thread_state:mRole <- 0
	@DEBUG_VALUE: das_hex_cmd_fn_exec:need_ack <- 1
	@DEBUG_VALUE: das_hex_cmd_fn_exec:cmd_ret <- 0
	@DEBUG_VALUE: das_hex_cmd_received_task:aBuf <- [DW_OP_LLVM_entry_value 1] $r0
	movs	r4, #0
.Ltmp292:
.LBB9_82:
	@DEBUG_VALUE: das_hex_cmd_fn_exec:cmd_id <- $r8
	@DEBUG_VALUE: das_hex_cmd_process:aBuf <- $r5
	@DEBUG_VALUE: das_hex_cmd_fn_exec:need_ack <- 1
	@DEBUG_VALUE: das_hex_cmd_fn_exec:cmd_ret <- 0
	@DEBUG_VALUE: das_hex_cmd_received_task:aBuf <- [DW_OP_LLVM_entry_value 1] $r0
	@DEBUG_VALUE: das_hex_cmd_get_thread_state:mRole <- undef
	.loc	2 299 5 is_stmt 1               @ ../das_subg_thread/das_hex_cmd.c:299:5
	bl	otrUnlock
.Ltmp293:
	.loc	2 0 5 is_stmt 0                 @ ../das_subg_thread/das_hex_cmd.c:0:5
	movs	r0, #147
	movt	r0, #20995
	.loc	2 307 16 is_stmt 1              @ ../das_subg_thread/das_hex_cmd.c:307:16
	str	r0, [sp, #16]
	.loc	2 312 56                        @ ../das_subg_thread/das_hex_cmd.c:312:56
	sub.w	r0, r4, #24
	.loc	2 311 16                        @ ../das_subg_thread/das_hex_cmd.c:311:16
	strb.w	r4, [sp, #20]
	.loc	2 312 16                        @ ../das_subg_thread/das_hex_cmd.c:312:16
	strb.w	r0, [sp, #21]
.Ltmp294:
	@DEBUG_VALUE: das_hex_cmd_send:cmd_data_lens <- 6
	.loc	2 0 16 is_stmt 0                @ ../das_subg_thread/das_hex_cmd.c:0:16
	add	r1, sp, #16
.Ltmp295:
	.loc	2 71 5 is_stmt 1                @ ../das_subg_thread/das_hex_cmd.c:71:5
	movs	r0, #2
	movs	r2, #6
	b	.LBB9_104
.Ltmp296:
.LBB9_83:
	@DEBUG_VALUE: das_hex_cmd_fn_exec:cmd_id <- $r8
	@DEBUG_VALUE: das_hex_cmd_process:aBuf <- $r5
	@DEBUG_VALUE: das_hex_cmd_fn_exec:lens <- $r4
	@DEBUG_VALUE: das_hex_cmd_get_link_local_addr:i <- 0
	@DEBUG_VALUE: das_hex_cmd_fn_exec:need_ack <- 1
	@DEBUG_VALUE: das_hex_cmd_fn_exec:cmd_ret <- 0
	@DEBUG_VALUE: das_hex_cmd_received_task:aBuf <- [DW_OP_LLVM_entry_value 1] $r0
	.loc	2 0 5 is_stmt 0                 @ ../das_subg_thread/das_hex_cmd.c:0:5
	movs	r2, #4
	movs	r1, #244
	b	.LBB9_91
.Ltmp297:
.LBB9_84:
	@DEBUG_VALUE: das_hex_cmd_fn_exec:cmd_id <- $r8
	@DEBUG_VALUE: das_hex_cmd_process:aBuf <- $r5
	@DEBUG_VALUE: das_hex_cmd_fn_exec:lens <- $r4
	@DEBUG_VALUE: instance <- $r0
	@DEBUG_VALUE: das_hex_cmd_get_partitionid:partitionid <- 0
	@DEBUG_VALUE: das_hex_cmd_fn_exec:need_ack <- 1
	@DEBUG_VALUE: das_hex_cmd_fn_exec:cmd_ret <- 0
	@DEBUG_VALUE: das_hex_cmd_received_task:aBuf <- [DW_OP_LLVM_entry_value 1] $r0
	movs	r4, #0
.Ltmp298:
.LBB9_85:
	@DEBUG_VALUE: das_hex_cmd_fn_exec:cmd_id <- $r8
	@DEBUG_VALUE: das_hex_cmd_process:aBuf <- $r5
	@DEBUG_VALUE: das_hex_cmd_fn_exec:need_ack <- 1
	@DEBUG_VALUE: das_hex_cmd_fn_exec:cmd_ret <- 0
	@DEBUG_VALUE: das_hex_cmd_received_task:aBuf <- [DW_OP_LLVM_entry_value 1] $r0
	@DEBUG_VALUE: das_hex_cmd_get_partitionid:partitionid <- $r4
	.loc	2 546 5 is_stmt 1               @ ../das_subg_thread/das_hex_cmd.c:546:5
	bl	otrUnlock
.Ltmp299:
	.loc	2 0 5 is_stmt 0                 @ ../das_subg_thread/das_hex_cmd.c:0:5
	movs	r0, #147
	.loc	2 563 31 is_stmt 1              @ ../das_subg_thread/das_hex_cmd.c:563:31
	lsrs	r1, r4, #24
	movt	r0, #45318
.Ltmp300:
	@DEBUG_VALUE: das_hex_cmd_get_partitionid:i <- 0
	@DEBUG_VALUE: das_hex_cmd_get_partitionid:cmd_crc <- 0
	.loc	2 563 16 is_stmt 0              @ ../das_subg_thread/das_hex_cmd.c:563:16
	strb.w	r1, [sp, #20]
	.loc	2 564 31 is_stmt 1              @ ../das_subg_thread/das_hex_cmd.c:564:31
	lsrs	r1, r4, #16
	.loc	2 558 16                        @ ../das_subg_thread/das_hex_cmd.c:558:16
	str	r0, [sp, #16]
	add	r0, sp, #16
	.loc	2 564 16                        @ ../das_subg_thread/das_hex_cmd.c:564:16
	strb.w	r1, [sp, #21]
	.loc	2 565 31                        @ ../das_subg_thread/das_hex_cmd.c:565:31
	lsrs	r1, r4, #8
	.loc	2 563 5                         @ ../das_subg_thread/das_hex_cmd.c:563:5
	adds	r0, #4
	.loc	2 565 16                        @ ../das_subg_thread/das_hex_cmd.c:565:16
	strb.w	r1, [sp, #22]
	movs	r1, #74
.Ltmp301:
	@DEBUG_VALUE: das_hex_cmd_get_partitionid:i <- 4
	@DEBUG_VALUE: das_hex_cmd_get_partitionid:cmd_crc <- 74
	.loc	2 0 16 is_stmt 0                @ ../das_subg_thread/das_hex_cmd.c:0:16
	movs	r2, #0
	.loc	2 566 16 is_stmt 1              @ ../das_subg_thread/das_hex_cmd.c:566:16
	strb.w	r4, [sp, #23]
.Ltmp302:
.LBB9_86:                               @ =>This Inner Loop Header: Depth=1
	@DEBUG_VALUE: das_hex_cmd_fn_exec:cmd_id <- $r8
	@DEBUG_VALUE: das_hex_cmd_process:aBuf <- $r5
	@DEBUG_VALUE: das_hex_cmd_get_partitionid:partitionid <- $r4
	@DEBUG_VALUE: das_hex_cmd_fn_exec:need_ack <- 1
	@DEBUG_VALUE: das_hex_cmd_fn_exec:cmd_ret <- 0
	@DEBUG_VALUE: das_hex_cmd_received_task:aBuf <- [DW_OP_LLVM_entry_value 1] $r0
	.loc	2 570 20                        @ ../das_subg_thread/das_hex_cmd.c:570:20
	ldrb	r3, [r0, r2]
.Ltmp303:
	@DEBUG_VALUE: das_hex_cmd_get_partitionid:i <- [DW_OP_plus_uconst 4, DW_OP_stack_value] $r2
	@DEBUG_VALUE: das_hex_cmd_get_partitionid:cmd_crc <- $r1
	.loc	2 568 20                        @ ../das_subg_thread/das_hex_cmd.c:568:20
	adds	r2, #1
.Ltmp304:
	.loc	2 568 5 is_stmt 0               @ ../das_subg_thread/das_hex_cmd.c:568:5
	cmp	r2, #4
.Ltmp305:
	.loc	2 570 17 is_stmt 1              @ ../das_subg_thread/das_hex_cmd.c:570:17
	add	r1, r3
.Ltmp306:
	@DEBUG_VALUE: das_hex_cmd_get_partitionid:i <- [DW_OP_plus_uconst 5, DW_OP_stack_value] $r2
	@DEBUG_VALUE: das_hex_cmd_get_partitionid:cmd_crc <- $r1
	.loc	2 568 5                         @ ../das_subg_thread/das_hex_cmd.c:568:5
	bne	.LBB9_86
.Ltmp307:
@ %bb.87:
	@DEBUG_VALUE: das_hex_cmd_fn_exec:cmd_id <- $r8
	@DEBUG_VALUE: das_hex_cmd_process:aBuf <- $r5
	@DEBUG_VALUE: das_hex_cmd_get_partitionid:partitionid <- $r4
	@DEBUG_VALUE: das_hex_cmd_get_partitionid:i <- [DW_OP_plus_uconst 5, DW_OP_stack_value] $r2
	@DEBUG_VALUE: das_hex_cmd_get_partitionid:cmd_crc <- $r1
	@DEBUG_VALUE: das_hex_cmd_fn_exec:need_ack <- 1
	@DEBUG_VALUE: das_hex_cmd_fn_exec:cmd_ret <- 0
	@DEBUG_VALUE: das_hex_cmd_received_task:aBuf <- [DW_OP_LLVM_entry_value 1] $r0
	.loc	2 572 16                        @ ../das_subg_thread/das_hex_cmd.c:572:16
	strb.w	r1, [sp, #24]
.Ltmp308:
	@DEBUG_VALUE: das_hex_cmd_send:cmd_data_lens <- 9
	.loc	2 0 16 is_stmt 0                @ ../das_subg_thread/das_hex_cmd.c:0:16
	add	r1, sp, #16
.Ltmp309:
	.loc	2 71 5 is_stmt 1                @ ../das_subg_thread/das_hex_cmd.c:71:5
	movs	r0, #2
	movs	r2, #9
.Ltmp310:
	.loc	2 0 5 is_stmt 0                 @ ../das_subg_thread/das_hex_cmd.c:0:5
	b	.LBB9_104
.Ltmp311:
.LBB9_88:
	@DEBUG_VALUE: das_hex_cmd_fn_exec:cmd_id <- $r8
	@DEBUG_VALUE: das_hex_cmd_process:aBuf <- $r5
	@DEBUG_VALUE: das_hex_cmd_store_udpip:lens <- $r4
	@DEBUG_VALUE: das_hex_cmd_fn_exec:lens <- $r4
	@DEBUG_VALUE: das_hex_cmd_store_udpip:i <- 0
	@DEBUG_VALUE: das_hex_cmd_fn_exec:need_ack <- 1
	@DEBUG_VALUE: das_hex_cmd_fn_exec:cmd_ret <- 0
	@DEBUG_VALUE: das_hex_cmd_received_task:aBuf <- [DW_OP_LLVM_entry_value 1] $r0
	movs	r1, #1
.Ltmp312:
.LBB9_89:
	@DEBUG_VALUE: das_hex_cmd_fn_exec:cmd_id <- $r8
	@DEBUG_VALUE: das_hex_cmd_process:aBuf <- $r5
	@DEBUG_VALUE: das_hex_cmd_fn_exec:need_ack <- 1
	@DEBUG_VALUE: das_hex_cmd_fn_exec:cmd_ret <- 0
	@DEBUG_VALUE: das_hex_cmd_received_task:aBuf <- [DW_OP_LLVM_entry_value 1] $r0
	.loc	2 136 5 is_stmt 1               @ ../das_subg_thread/das_hex_cmd.c:136:5
	movw	r0, :lower16:das_hex_cmd_udp_ip
	movt	r0, :upper16:das_hex_cmd_udp_ip
	mov.w	r9, #0
	.loc	2 136 31 is_stmt 0              @ ../das_subg_thread/das_hex_cmd.c:136:31
	strb.w	r9, [r0, r1]
	.loc	2 137 28 is_stmt 1              @ ../das_subg_thread/das_hex_cmd.c:137:28
	movw	r0, :lower16:das_hex_cmd_udp_ip_set
	movt	r0, :upper16:das_hex_cmd_udp_ip_set
	strb.w	r12, [r0]
	b	.LBB9_102
.Ltmp313:
.LBB9_90:
	@DEBUG_VALUE: das_hex_cmd_fn_exec:cmd_id <- $r8
	@DEBUG_VALUE: das_hex_cmd_process:aBuf <- $r5
	@DEBUG_VALUE: das_hex_cmd_fn_exec:lens <- $r4
	@DEBUG_VALUE: das_hex_cmd_get_routing_locator_addr:i <- 0
	@DEBUG_VALUE: das_hex_cmd_fn_exec:need_ack <- 1
	@DEBUG_VALUE: das_hex_cmd_fn_exec:cmd_ret <- 0
	@DEBUG_VALUE: das_hex_cmd_received_task:aBuf <- [DW_OP_LLVM_entry_value 1] $r0
	.loc	2 0 28 is_stmt 0                @ ../das_subg_thread/das_hex_cmd.c:0:28
	movs	r2, #4
	movs	r1, #20
.Ltmp314:
.LBB9_91:
	@DEBUG_VALUE: das_hex_cmd_fn_exec:cmd_id <- $r8
	@DEBUG_VALUE: das_hex_cmd_process:aBuf <- $r5
	@DEBUG_VALUE: das_hex_cmd_fn_exec:lens <- $r4
	@DEBUG_VALUE: das_hex_cmd_fn_exec:need_ack <- 1
	@DEBUG_VALUE: das_hex_cmd_fn_exec:cmd_ret <- 0
	@DEBUG_VALUE: das_hex_cmd_received_task:aBuf <- [DW_OP_LLVM_entry_value 1] $r0
	movs	r0, #0
.Ltmp315:
.LBB9_92:
	@DEBUG_VALUE: das_hex_cmd_fn_exec:cmd_id <- $r8
	@DEBUG_VALUE: das_hex_cmd_fn_exec:need_ack <- 1
	@DEBUG_VALUE: das_hex_cmd_fn_exec:cmd_ret <- 0
	@DEBUG_VALUE: das_hex_cmd_received_task:aBuf <- [DW_OP_LLVM_entry_value 1] $r0
	adds	r3, r0, #2
	strb.w	r3, [sp, #18]
	add	r3, r1
	@DEBUG_VALUE: das_hex_cmd_get_link_local_addr:cmd_crc <- $r3
	add	r1, sp, #16
	uxtb	r0, r0
	strb	r3, [r1, r2]
	adds	r2, r0, #5
.Ltmp316:
	@DEBUG_VALUE: das_hex_cmd_send:cmd_data_lens <- $r2
	movs	r0, #2
	b	.LBB9_104
.Ltmp317:
.LBB9_93:
	@DEBUG_VALUE: das_hex_cmd_fn_exec:cmd_id <- $r8
	@DEBUG_VALUE: das_hex_cmd_process:aBuf <- $r5
	@DEBUG_VALUE: das_hex_cmd_meter_id_respone:lens <- $r4
	@DEBUG_VALUE: das_hex_cmd_fn_exec:lens <- $r4
	@DEBUG_VALUE: das_hex_cmd_meter_id_respone:i <- 0
	@DEBUG_VALUE: das_hex_cmd_meter_id_respone:extaddr <- [DW_OP_LLVM_fragment 24 8] 0
	@DEBUG_VALUE: das_hex_cmd_meter_id_respone:extaddr <- [DW_OP_LLVM_fragment 32 8] 0
	@DEBUG_VALUE: das_hex_cmd_meter_id_respone:extaddr <- [DW_OP_LLVM_fragment 40 8] 0
	@DEBUG_VALUE: das_hex_cmd_meter_id_respone:extaddr <- [DW_OP_LLVM_fragment 48 8] 0
	@DEBUG_VALUE: das_hex_cmd_meter_id_respone:extaddr <- [DW_OP_LLVM_fragment 56 8] 0
	@DEBUG_VALUE: das_hex_cmd_meter_id_respone:ret <- 0
	@DEBUG_VALUE: das_hex_cmd_meter_id_respone:num <- 0
	@DEBUG_VALUE: das_hex_cmd_meter_id_respone:temp <- 0
	@DEBUG_VALUE: das_hex_cmd_fn_exec:need_ack <- 1
	@DEBUG_VALUE: das_hex_cmd_fn_exec:cmd_ret <- 0
	@DEBUG_VALUE: das_hex_cmd_received_task:aBuf <- [DW_OP_LLVM_entry_value 1] $r0
	movs	r0, #0
	mov.w	r11, #0
	str	r0, [sp, #12]                   @ 4-byte Spill
	movs	r7, #0
	movs	r4, #0
.Ltmp318:
	mov.w	r10, #0
.Ltmp319:
.LBB9_94:
	@DEBUG_VALUE: das_hex_cmd_fn_exec:cmd_id <- $r8
	@DEBUG_VALUE: das_hex_cmd_process:aBuf <- $r5
	@DEBUG_VALUE: das_hex_cmd_meter_id_respone:extaddr <- [DW_OP_LLVM_fragment 24 8] 0
	@DEBUG_VALUE: das_hex_cmd_meter_id_respone:extaddr <- [DW_OP_LLVM_fragment 32 8] 0
	@DEBUG_VALUE: das_hex_cmd_meter_id_respone:extaddr <- [DW_OP_LLVM_fragment 40 8] 0
	@DEBUG_VALUE: das_hex_cmd_meter_id_respone:extaddr <- [DW_OP_LLVM_fragment 48 8] 0
	@DEBUG_VALUE: das_hex_cmd_meter_id_respone:extaddr <- [DW_OP_LLVM_fragment 56 8] 0
	@DEBUG_VALUE: das_hex_cmd_meter_id_respone:ret <- 0
	@DEBUG_VALUE: das_hex_cmd_fn_exec:need_ack <- 1
	@DEBUG_VALUE: das_hex_cmd_fn_exec:cmd_ret <- 0
	@DEBUG_VALUE: das_hex_cmd_received_task:aBuf <- [DW_OP_LLVM_entry_value 1] $r0
	mov.w	r9, #0
.Ltmp320:
.LBB9_95:
	@DEBUG_VALUE: das_hex_cmd_fn_exec:cmd_id <- $r8
	@DEBUG_VALUE: das_hex_cmd_process:aBuf <- $r5
	@DEBUG_VALUE: das_hex_cmd_meter_id_respone:extaddr <- [DW_OP_LLVM_fragment 24 8] 0
	@DEBUG_VALUE: das_hex_cmd_meter_id_respone:extaddr <- [DW_OP_LLVM_fragment 32 8] 0
	@DEBUG_VALUE: das_hex_cmd_meter_id_respone:extaddr <- [DW_OP_LLVM_fragment 40 8] 0
	@DEBUG_VALUE: das_hex_cmd_meter_id_respone:extaddr <- [DW_OP_LLVM_fragment 48 8] 0
	@DEBUG_VALUE: das_hex_cmd_meter_id_respone:extaddr <- [DW_OP_LLVM_fragment 56 8] 0
	@DEBUG_VALUE: das_hex_cmd_meter_id_respone:ret <- 0
	@DEBUG_VALUE: das_hex_cmd_fn_exec:need_ack <- 1
	@DEBUG_VALUE: das_hex_cmd_fn_exec:cmd_ret <- 0
	@DEBUG_VALUE: das_hex_cmd_received_task:aBuf <- [DW_OP_LLVM_entry_value 1] $r0
	@DEBUG_VALUE: das_hex_cmd_meter_id_respone:ret <- undef
	@DEBUG_VALUE: das_hex_cmd_meter_id_respone:extaddr <- [DW_OP_constu 32, DW_OP_shr, DW_OP_constu 255, DW_OP_and, DW_OP_LLVM_convert 64 7, DW_OP_LLVM_convert 8 7, DW_OP_stack_value, DW_OP_LLVM_fragment 24 8] undef
	@DEBUG_VALUE: das_hex_cmd_meter_id_respone:extaddr <- [DW_OP_constu 24, DW_OP_shr, DW_OP_constu 255, DW_OP_and, DW_OP_LLVM_convert 64 7, DW_OP_LLVM_convert 8 7, DW_OP_stack_value, DW_OP_LLVM_fragment 32 8] undef
	@DEBUG_VALUE: das_hex_cmd_meter_id_respone:extaddr <- [DW_OP_constu 16, DW_OP_shr, DW_OP_constu 255, DW_OP_and, DW_OP_LLVM_convert 64 7, DW_OP_LLVM_convert 8 7, DW_OP_stack_value, DW_OP_LLVM_fragment 40 8] undef
	@DEBUG_VALUE: das_hex_cmd_meter_id_respone:extaddr <- [DW_OP_constu 8, DW_OP_shr, DW_OP_constu 255, DW_OP_and, DW_OP_LLVM_convert 64 7, DW_OP_LLVM_convert 8 7, DW_OP_stack_value, DW_OP_LLVM_fragment 48 8] undef
	@DEBUG_VALUE: das_hex_cmd_meter_id_respone:extaddr <- [DW_OP_constu 255, DW_OP_and, DW_OP_LLVM_convert 64 7, DW_OP_LLVM_convert 8 7, DW_OP_stack_value, DW_OP_LLVM_fragment 56 8] undef
	.loc	2 483 9 is_stmt 1               @ ../das_subg_thread/das_hex_cmd.c:483:9
	bl	otrLock
.Ltmp321:
	.loc	2 483 9 is_stmt 0               @ ../das_subg_thread/das_hex_cmd.c:483:9
	bl	otrGetInstance
.Ltmp322:
	@DEBUG_VALUE: instance <- $r0
	cbz	r0, .LBB9_99
.Ltmp323:
@ %bb.96:
	@DEBUG_VALUE: das_hex_cmd_fn_exec:cmd_id <- $r8
	@DEBUG_VALUE: das_hex_cmd_process:aBuf <- $r5
	@DEBUG_VALUE: instance <- $r0
	@DEBUG_VALUE: das_hex_cmd_fn_exec:need_ack <- 1
	@DEBUG_VALUE: das_hex_cmd_fn_exec:cmd_ret <- 0
	@DEBUG_VALUE: das_hex_cmd_received_task:aBuf <- [DW_OP_LLVM_entry_value 1] $r0
	.loc	2 0 0                           @ ../das_subg_thread/das_hex_cmd.c:0:0
	mov	r5, r0
.Ltmp324:
	@DEBUG_VALUE: instance <- $r5
	@DEBUG_VALUE: instance <- $r5
	@DEBUG_VALUE: das_hex_cmd_meter_id_respone:extaddr <- [DW_OP_LLVM_fragment 24 8] $r10
	@DEBUG_VALUE: das_hex_cmd_meter_id_respone:extaddr <- [DW_OP_LLVM_fragment 32 8] $r4
	@DEBUG_VALUE: das_hex_cmd_meter_id_respone:extaddr <- [DW_OP_LLVM_fragment 40 8] $r7
	@DEBUG_VALUE: das_hex_cmd_meter_id_respone:extaddr <- [DW_OP_plus_uconst 12, DW_OP_LLVM_fragment 48 8] [$sp+0]
	@DEBUG_VALUE: das_hex_cmd_meter_id_respone:extaddr <- [DW_OP_LLVM_fragment 56 8] $r11
	.loc	2 483 9                         @ ../das_subg_thread/das_hex_cmd.c:483:9
	ldrb.w	r0, [sp, #106]
	ldrh.w	r1, [sp, #104]
	strb.w	r0, [sp, #18]
	ldr	r0, [sp, #12]                   @ 4-byte Reload
.Ltmp325:
	@DEBUG_VALUE: das_hex_cmd_meter_id_respone:extaddr <- [DW_OP_LLVM_fragment 48 8] $r0
	strh.w	r1, [sp, #16]
	strb.w	r0, [sp, #22]
	add	r1, sp, #16
.Ltmp326:
	.loc	2 483 9                         @ ../das_subg_thread/das_hex_cmd.c:483:9
	mov	r0, r5
.Ltmp327:
	.loc	2 483 9                         @ ../das_subg_thread/das_hex_cmd.c:483:9
	strb.w	r10, [sp, #19]
	strb.w	r4, [sp, #20]
	strb.w	r7, [sp, #21]
	strb.w	r11, [sp, #23]
.Ltmp328:
	.loc	2 483 9                         @ ../das_subg_thread/das_hex_cmd.c:483:9
	bl	otLinkSetExtendedAddress
.Ltmp329:
	.loc	2 483 9                         @ ../das_subg_thread/das_hex_cmd.c:483:9
	cbz	r0, .LBB9_98
.Ltmp330:
@ %bb.97:
	@DEBUG_VALUE: das_hex_cmd_meter_id_respone:extaddr <- [DW_OP_LLVM_fragment 56 8] $r11
	@DEBUG_VALUE: das_hex_cmd_meter_id_respone:extaddr <- [DW_OP_LLVM_fragment 24 8] $r10
	@DEBUG_VALUE: das_hex_cmd_fn_exec:cmd_id <- $r8
	@DEBUG_VALUE: das_hex_cmd_meter_id_respone:extaddr <- [DW_OP_LLVM_fragment 40 8] $r7
	@DEBUG_VALUE: instance <- $r5
	@DEBUG_VALUE: das_hex_cmd_meter_id_respone:extaddr <- [DW_OP_LLVM_fragment 32 8] $r4
	@DEBUG_VALUE: das_hex_cmd_fn_exec:need_ack <- 1
	@DEBUG_VALUE: das_hex_cmd_fn_exec:cmd_ret <- 0
	@DEBUG_VALUE: das_hex_cmd_received_task:aBuf <- [DW_OP_LLVM_entry_value 1] $r0
	.loc	2 0 9                           @ ../das_subg_thread/das_hex_cmd.c:0:9
	mov.w	r9, #1
.Ltmp331:
	@DEBUG_VALUE: das_hex_cmd_meter_id_respone:ret <- undef
	b	.LBB9_99
.Ltmp332:
.LBB9_98:
	@DEBUG_VALUE: das_hex_cmd_meter_id_respone:extaddr <- [DW_OP_LLVM_fragment 56 8] $r11
	@DEBUG_VALUE: das_hex_cmd_meter_id_respone:extaddr <- [DW_OP_LLVM_fragment 24 8] $r10
	@DEBUG_VALUE: das_hex_cmd_fn_exec:cmd_id <- $r8
	@DEBUG_VALUE: das_hex_cmd_meter_id_respone:extaddr <- [DW_OP_LLVM_fragment 40 8] $r7
	@DEBUG_VALUE: instance <- $r5
	@DEBUG_VALUE: das_hex_cmd_meter_id_respone:extaddr <- [DW_OP_LLVM_fragment 32 8] $r4
	@DEBUG_VALUE: das_hex_cmd_fn_exec:need_ack <- 1
	@DEBUG_VALUE: das_hex_cmd_fn_exec:cmd_ret <- 0
	@DEBUG_VALUE: das_hex_cmd_received_task:aBuf <- [DW_OP_LLVM_entry_value 1] $r0
	.loc	2 483 9                         @ ../das_subg_thread/das_hex_cmd.c:483:9
	ldrd	r1, r0, [sp, #16]
	strd	r1, r0, [sp, #64]
	add	r1, sp, #64
.Ltmp333:
	.loc	2 483 9                         @ ../das_subg_thread/das_hex_cmd.c:483:9
	mov	r0, r5
	bl	otIp6SetMeshLocalIid
.Ltmp334:
	cmp	r0, #0
	it	ne
	movne	r0, #1
.Ltmp335:
	.loc	2 483 9                         @ ../das_subg_thread/das_hex_cmd.c:483:9
	orr.w	r9, r9, r0
.Ltmp336:
	@DEBUG_VALUE: das_hex_cmd_meter_id_respone:ret <- undef
	@DEBUG_VALUE: das_hex_cmd_meter_id_respone:ret <- undef
.LBB9_99:
	@DEBUG_VALUE: das_hex_cmd_fn_exec:cmd_id <- $r8
	@DEBUG_VALUE: das_hex_cmd_fn_exec:need_ack <- 1
	@DEBUG_VALUE: das_hex_cmd_fn_exec:cmd_ret <- 0
	@DEBUG_VALUE: das_hex_cmd_received_task:aBuf <- [DW_OP_LLVM_entry_value 1] $r0
	@DEBUG_VALUE: das_hex_cmd_meter_id_respone:ret <- undef
	.loc	2 483 9                         @ ../das_subg_thread/das_hex_cmd.c:483:9
	bl	otrUnlock
.Ltmp337:
	@DEBUG_VALUE: meter_id_is_geted:is_geted <- 1
	.loc	2 702 23 is_stmt 1              @ ../das_subg_thread/das_hex_cmd.c:702:23
	movw	r0, :lower16:is_meter_id_geted
	movt	r0, :upper16:is_meter_id_geted
	movs	r1, #1
	strb	r1, [r0]
	.loc	2 703 5                         @ ../das_subg_thread/das_hex_cmd.c:703:5
	bl	otrLock
.Ltmp338:
	.loc	2 703 5 is_stmt 0               @ ../das_subg_thread/das_hex_cmd.c:703:5
	bl	otrGetInstance
.Ltmp339:
	@DEBUG_VALUE: instance <- $r0
	cbz	r0, .LBB9_101
.Ltmp340:
@ %bb.100:
	@DEBUG_VALUE: das_hex_cmd_fn_exec:cmd_id <- $r8
	@DEBUG_VALUE: instance <- $r0
	@DEBUG_VALUE: meter_id_is_geted:is_geted <- 1
	@DEBUG_VALUE: das_hex_cmd_fn_exec:need_ack <- 1
	@DEBUG_VALUE: das_hex_cmd_fn_exec:cmd_ret <- 0
	@DEBUG_VALUE: das_hex_cmd_received_task:aBuf <- [DW_OP_LLVM_entry_value 1] $r0
	.loc	2 703 5                         @ ../das_subg_thread/das_hex_cmd.c:703:5
	movs	r1, #1
.Ltmp341:
	.loc	2 0 0                           @ ../das_subg_thread/das_hex_cmd.c:0:0
	mov	r5, r0
.Ltmp342:
	@DEBUG_VALUE: instance <- $r5
	.loc	2 703 5                         @ ../das_subg_thread/das_hex_cmd.c:703:5
	bl	otIp6SetEnabled
.Ltmp343:
	mov	r0, r5
	movs	r1, #1
	bl	otThreadSetEnabled
.Ltmp344:
.LBB9_101:
	@DEBUG_VALUE: das_hex_cmd_fn_exec:cmd_id <- $r8
	@DEBUG_VALUE: meter_id_is_geted:is_geted <- 1
	@DEBUG_VALUE: das_hex_cmd_fn_exec:need_ack <- 1
	@DEBUG_VALUE: das_hex_cmd_fn_exec:cmd_ret <- 0
	@DEBUG_VALUE: das_hex_cmd_received_task:aBuf <- [DW_OP_LLVM_entry_value 1] $r0
	.loc	2 703 5                         @ ../das_subg_thread/das_hex_cmd.c:703:5
	bl	otrUnlock
.Ltmp345:
.LBB9_102:
	@DEBUG_VALUE: das_hex_cmd_fn_exec:cmd_id <- $r8
	@DEBUG_VALUE: das_hex_cmd_fn_exec:need_ack <- 1
	@DEBUG_VALUE: das_hex_cmd_fn_exec:cmd_ret <- 0
	@DEBUG_VALUE: das_hex_cmd_received_task:aBuf <- [DW_OP_LLVM_entry_value 1] $r0
	@DEBUG_VALUE: das_hex_cmd_fn_exec:need_ack <- undef
	@DEBUG_VALUE: das_hex_cmd_fn_exec:cmd_ret <- [DW_OP_LLVM_convert 1 7, DW_OP_LLVM_convert 8 7, DW_OP_stack_value] $r9
	.loc	2 0 5                           @ ../das_subg_thread/das_hex_cmd.c:0:5
	movs	r0, #147
	movt	r0, #4
.Ltmp346:
	@DEBUG_VALUE: das_hex_command_response:ack_crc <- -105
	@DEBUG_VALUE: das_hex_command_response:cmd_id <- $r8
	@DEBUG_VALUE: das_hex_command_response:state <- [DW_OP_LLVM_convert 1 7, DW_OP_LLVM_convert 8 7, DW_OP_stack_value] $r9
	.loc	2 101 16 is_stmt 1              @ ../das_subg_thread/das_hex_cmd.c:101:16
	str	r0, [sp, #16]
	mvn	r0, #104
	.loc	2 105 16                        @ ../das_subg_thread/das_hex_cmd.c:105:16
	strb.w	r8, [sp, #20]
	.loc	2 107 9                         @ ../das_subg_thread/das_hex_cmd.c:107:9
	cmp.w	r9, #0
	it	ne
	mvnne	r0, #103
	add	r0, r8
.Ltmp347:
	.loc	2 109 20                        @ ../das_subg_thread/das_hex_cmd.c:109:20
	strb.w	r9, [sp, #21]
.Ltmp348:
	@DEBUG_VALUE: das_hex_command_response:ack_crc <- $r0
.LBB9_103:
	@DEBUG_VALUE: das_hex_cmd_received_task:aBuf <- [DW_OP_LLVM_entry_value 1] $r0
	.loc	2 0 0 is_stmt 0                 @ ../das_subg_thread/das_hex_cmd.c:0:0
	strb.w	r0, [sp, #22]
.Ltmp349:
	@DEBUG_VALUE: das_hex_cmd_send:cmd_data_lens <- 7
	add	r1, sp, #16
.Ltmp350:
	@DEBUG_VALUE: das_hex_cmd_send:cmd_data <- [DW_OP_plus_uconst 16, DW_OP_stack_value] $sp
	movs	r0, #2
	movs	r2, #7
.Ltmp351:
.LBB9_104:
	@DEBUG_VALUE: das_hex_cmd_received_task:aBuf <- [DW_OP_LLVM_entry_value 1] $r0
	bl	app_uart_data_send
.Ltmp352:
.LBB9_105:
	@DEBUG_VALUE: das_hex_cmd_received_task:aBuf <- [DW_OP_LLVM_entry_value 1] $r0
	.loc	2 694 37 is_stmt 1              @ ../das_subg_thread/das_hex_cmd.c:694:37
	ldrh	r1, [r6]
	.loc	2 694 13 is_stmt 0              @ ../das_subg_thread/das_hex_cmd.c:694:13
	movw	r0, :lower16:das_rx_buf
	movt	r0, :upper16:das_rx_buf
	bl	__aeabi_memclr4
.Ltmp353:
	.loc	2 0 13                          @ ../das_subg_thread/das_hex_cmd.c:0:13
	movs	r0, #0
	.loc	2 695 27 is_stmt 1              @ ../das_subg_thread/das_hex_cmd.c:695:27
	strh	r0, [r6]
.Ltmp354:
.LBB9_106:
	.loc	2 698 1                         @ ../das_subg_thread/das_hex_cmd.c:698:1
	add	sp, #108
	pop.w	{r4, r5, r6, r7, r8, r9, r10, r11, pc}
.LBB9_107:
.Ltmp355:
	@DEBUG_VALUE: das_hex_cmd_meter_id_respone:num <- [DW_OP_LLVM_fragment 0 32] $r11
	@DEBUG_VALUE: das_hex_cmd_meter_id_respone:num <- [DW_OP_LLVM_fragment 32 32] $r10
	@DEBUG_VALUE: das_hex_cmd_fn_exec:cmd_id <- $r8
	@DEBUG_VALUE: das_hex_cmd_process:aBuf <- $r5
	@DEBUG_VALUE: das_hex_cmd_meter_id_respone:i <- $lr
	@DEBUG_VALUE: das_hex_cmd_meter_id_respone:extaddr <- [DW_OP_LLVM_fragment 24 8] 0
	@DEBUG_VALUE: das_hex_cmd_meter_id_respone:extaddr <- [DW_OP_LLVM_fragment 32 8] 0
	@DEBUG_VALUE: das_hex_cmd_meter_id_respone:extaddr <- [DW_OP_LLVM_fragment 40 8] 0
	@DEBUG_VALUE: das_hex_cmd_meter_id_respone:extaddr <- [DW_OP_LLVM_fragment 48 8] 0
	@DEBUG_VALUE: das_hex_cmd_meter_id_respone:extaddr <- [DW_OP_LLVM_fragment 56 8] 0
	@DEBUG_VALUE: das_hex_cmd_meter_id_respone:ret <- 0
	@DEBUG_VALUE: das_hex_cmd_fn_exec:need_ack <- 1
	@DEBUG_VALUE: das_hex_cmd_fn_exec:cmd_ret <- 0
	@DEBUG_VALUE: das_hex_cmd_received_task:aBuf <- [DW_OP_LLVM_entry_value 1] $r0
	.loc	2 461 38                        @ ../das_subg_thread/das_hex_cmd.c:461:38
	lsr.w	r0, r11, #8
	orr.w	r0, r0, r10, lsl #24
	str	r0, [sp, #12]                   @ 4-byte Spill
	lsr.w	r0, r11, #16
	orr.w	r7, r0, r10, lsl #16
	lsr.w	r0, r11, #24
	orr.w	r4, r0, r10, lsl #8
	mov.w	r9, #1
	b	.LBB9_95
.Ltmp356:
.Lfunc_end9:
	.size	das_hex_cmd_received_task, .Lfunc_end9-das_hex_cmd_received_task
	.cfi_endproc
	.file	10 "D:\\20240115\\rafael-iot-sdk-das\\examples\\das_subg_thread\\keil" "../../../components/network/thread/subg_openthread/include\\openthread/instance.h"
	.file	11 "D:\\20240115\\rafael-iot-sdk-das\\examples\\das_subg_thread\\keil" "../../../components/network/thread/subg_openthread/include\\openthread/ip6.h"
	.file	12 "D:\\20240115\\rafael-iot-sdk-das\\examples\\das_subg_thread\\keil" "../../../components/network/thread/subg_openthread/include\\openthread/platform/radio.h"
	.cantunwind
	.fnend
                                        @ -- End function
	.section	.text.das_get_meter_id_init,"ax",%progbits
	.hidden	das_get_meter_id_init           @ -- Begin function das_get_meter_id_init
	.globl	das_get_meter_id_init
	.p2align	2
	.type	das_get_meter_id_init,%function
	.code	16                              @ @das_get_meter_id_init
	.thumb_func
das_get_meter_id_init:
.Lfunc_begin10:
	.loc	2 727 0                         @ ../das_subg_thread/das_hex_cmd.c:727:0
	.fnstart
	.cfi_startproc
@ %bb.0:
	.save	{r4, r5, r6, lr}
	push	{r4, r5, r6, lr}
	.cfi_def_cfa_offset 16
	.cfi_offset lr, -4
	.cfi_offset r6, -8
	.cfi_offset r5, -12
	.cfi_offset r4, -16
	.pad	#8
	sub	sp, #8
	.cfi_def_cfa_offset 24
.Ltmp357:
	.loc	2 728 17 prologue_end           @ ../das_subg_thread/das_hex_cmd.c:728:17
	movw	r5, :lower16:get_meter_id_timer
	movt	r5, :upper16:get_meter_id_timer
	ldr	r0, [r5]
.Ltmp358:
	.loc	2 728 9 is_stmt 0               @ ../das_subg_thread/das_hex_cmd.c:728:9
	cbz	r0, .LBB10_2
@ %bb.1:
.Ltmp359:
	.loc	2 740 9 is_stmt 1               @ ../das_subg_thread/das_hex_cmd.c:740:9
	adr	r0, .LCPI10_0
	add	sp, #8
	pop.w	{r4, r5, r6, lr}
.Ltmp360:
	b	puts
.Ltmp361:
.LBB10_2:
	.loc	2 730 30                        @ ../das_subg_thread/das_hex_cmd.c:730:30
	movw	r0, :lower16:get_meter_id_timer_handler
	movt	r0, :upper16:get_meter_id_timer_handler
	str	r0, [sp]
	adr	r0, .LCPI10_1
	movw	r1, #10000
	movs	r2, #0
	movs	r3, #0
	movs	r6, #0
	bl	xTimerCreate
.Ltmp362:
	mov	r4, r0
	.loc	2 730 28 is_stmt 0              @ ../das_subg_thread/das_hex_cmd.c:730:28
	str	r0, [r5]
	.loc	2 736 9 is_stmt 1               @ ../das_subg_thread/das_hex_cmd.c:736:9
	bl	xTaskGetTickCount
.Ltmp363:
	mov	r2, r0
	mov	r0, r4
	movs	r1, #1
	movs	r3, #0
	str	r6, [sp]
	bl	xTimerGenericCommand
.Ltmp364:
	.loc	2 742 1                         @ ../das_subg_thread/das_hex_cmd.c:742:1
	add	sp, #8
	pop	{r4, r5, r6, pc}
.Ltmp365:
	.p2align	2
@ %bb.3:
	.loc	2 0 1 is_stmt 0                 @ ../das_subg_thread/das_hex_cmd.c:0:1
.LCPI10_0:
.Lstr:
	.asciz	"get_meter_id_timer exist\n\r\000"
.LCPI10_1:
.L.str:
	.asciz	"get_meter_id_timer\000"
.Lfunc_end10:
	.size	das_get_meter_id_init, .Lfunc_end10-das_get_meter_id_init
	.cfi_endproc
	.cantunwind
	.fnend
                                        @ -- End function
	.section	.text.get_meter_id_timer_handler,"ax",%progbits
	.p2align	1                               @ -- Begin function get_meter_id_timer_handler
	.type	get_meter_id_timer_handler,%function
	.code	16                              @ @get_meter_id_timer_handler
	.thumb_func
get_meter_id_timer_handler:
.Lfunc_begin11:
	.loc	2 714 0 is_stmt 1               @ ../das_subg_thread/das_hex_cmd.c:714:0
	.fnstart
	.cfi_startproc
@ %bb.0:
	@DEBUG_VALUE: get_meter_id_timer_handler:xTimer <- $r0
	.save	{r4, lr}
	push	{r4, lr}
	.cfi_def_cfa_offset 8
	.cfi_offset lr, -4
	.cfi_offset r4, -8
	.pad	#8
	sub	sp, #8
	.cfi_def_cfa_offset 16
.Ltmp366:
	.loc	2 715 9 prologue_end            @ ../das_subg_thread/das_hex_cmd.c:715:9
	movw	r0, :lower16:is_meter_id_geted
.Ltmp367:
	@DEBUG_VALUE: get_meter_id_timer_handler:xTimer <- [DW_OP_LLVM_entry_value 1] $r0
	movt	r0, :upper16:is_meter_id_geted
	ldrb	r0, [r0]
.Ltmp368:
	.loc	2 715 9 is_stmt 0               @ ../das_subg_thread/das_hex_cmd.c:715:9
	cmp	r0, #1
	bne	.LBB11_2
.Ltmp369:
@ %bb.1:
	@DEBUG_VALUE: get_meter_id_timer_handler:xTimer <- [DW_OP_LLVM_entry_value 1] $r0
	.loc	2 717 9 is_stmt 1               @ ../das_subg_thread/das_hex_cmd.c:717:9
	movw	r0, :lower16:get_meter_id_timer
	movt	r0, :upper16:get_meter_id_timer
	ldr	r0, [r0]
	movs	r4, #0
	movs	r1, #5
	movs	r2, #0
	movs	r3, #0
	str	r4, [sp]
	b	.LBB11_3
.Ltmp370:
.LBB11_2:
	@DEBUG_VALUE: get_meter_id_timer_handler:xTimer <- [DW_OP_LLVM_entry_value 1] $r0
	.loc	2 721 9                         @ ../das_subg_thread/das_hex_cmd.c:721:9
	bl	das_hex_cmd_get_meter_id
.Ltmp371:
	.loc	2 722 9                         @ ../das_subg_thread/das_hex_cmd.c:722:9
	movw	r0, :lower16:get_meter_id_timer
	movt	r0, :upper16:get_meter_id_timer
	ldr	r4, [r0]
	bl	xTaskGetTickCount
.Ltmp372:
	.loc	2 0 9 is_stmt 0                 @ ../das_subg_thread/das_hex_cmd.c:0:9
	mov.w	r12, #0
	.loc	2 722 9                         @ ../das_subg_thread/das_hex_cmd.c:722:9
	mov	r2, r0
	mov	r0, r4
	movs	r1, #1
	movs	r3, #0
	str.w	r12, [sp]
.Ltmp373:
.LBB11_3:
	@DEBUG_VALUE: get_meter_id_timer_handler:xTimer <- [DW_OP_LLVM_entry_value 1] $r0
	.loc	2 0 0                           @ ../das_subg_thread/das_hex_cmd.c:0:0
	bl	xTimerGenericCommand
.Ltmp374:
	.loc	2 724 1 is_stmt 1               @ ../das_subg_thread/das_hex_cmd.c:724:1
	add	sp, #8
	pop	{r4, pc}
.Ltmp375:
.Lfunc_end11:
	.size	get_meter_id_timer_handler, .Lfunc_end11-get_meter_id_timer_handler
	.cfi_endproc
	.cantunwind
	.fnend
                                        @ -- End function
	.section	.text.das_hex_cmd_get_build_version,"ax",%progbits
	.p2align	1                               @ -- Begin function das_hex_cmd_get_build_version
	.type	das_hex_cmd_get_build_version,%function
	.code	16                              @ @das_hex_cmd_get_build_version
	.thumb_func
das_hex_cmd_get_build_version:
.Lfunc_begin12:
	.loc	2 517 0                         @ ../das_subg_thread/das_hex_cmd.c:517:0
	.fnstart
	.cfi_startproc
@ %bb.0:
	@DEBUG_VALUE: das_hex_cmd_get_build_version:Param <- undef
	@DEBUG_VALUE: das_hex_cmd_get_build_version:lens <- undef
	.save	{r4, r5, r6, r7, r8, r9, lr}
	push.w	{r4, r5, r6, r7, r8, r9, lr}
	.cfi_def_cfa_offset 28
	.cfi_offset lr, -4
	.cfi_offset r9, -8
	.cfi_offset r8, -12
	.cfi_offset r7, -16
	.cfi_offset r6, -20
	.cfi_offset r5, -24
	.cfi_offset r4, -28
	.setfp	r7, sp, #12
	add	r7, sp, #12
	.cfi_def_cfa r7, 16
	.pad	#4
	sub	sp, #4
.Ltmp376:
	.loc	2 518 26 prologue_end           @ ../das_subg_thread/das_hex_cmd.c:518:26
	bl	otGetVersionString
.Ltmp377:
	mov	r6, r0
.Ltmp378:
	@DEBUG_VALUE: das_hex_cmd_get_build_version:string <- $r6
	.loc	2 519 25                        @ ../das_subg_thread/das_hex_cmd.c:519:25
	bl	strlen
.Ltmp379:
	.loc	2 519 5 is_stmt 0               @ ../das_subg_thread/das_hex_cmd.c:519:5
	adds	r0, #12
	bic	r0, r0, #7
	sub.w	r1, sp, r0
.Ltmp380:
	@DEBUG_VALUE: das_hex_cmd_get_build_version:message <- [$r1+0]
	mov	sp, r1
	movs	r0, #147
.Ltmp381:
	@DEBUG_VALUE: das_hex_cmd_get_build_version:i <- 0
	@DEBUG_VALUE: das_hex_cmd_get_build_version:cmd_crc <- 0
	@DEBUG_VALUE: das_hex_cmd_get_build_version:__vla_expr0 <- undef
	.loc	2 523 16 is_stmt 1              @ ../das_subg_thread/das_hex_cmd.c:523:16
	strh	r0, [r1]
	movs	r0, #161
	.loc	2 525 16                        @ ../das_subg_thread/das_hex_cmd.c:525:16
	strb	r0, [r1, #3]
.Ltmp382:
	@DEBUG_VALUE: das_hex_cmd_get_build_version:cmd_crc <- undef
	.loc	2 528 12                        @ ../das_subg_thread/das_hex_cmd.c:528:12
	ldrb	r3, [r6]
	.loc	2 528 5 is_stmt 0               @ ../das_subg_thread/das_hex_cmd.c:528:5
	cbz	r3, .LBB12_4
.Ltmp383:
@ %bb.1:
	@DEBUG_VALUE: das_hex_cmd_get_build_version:string <- $r6
	@DEBUG_VALUE: das_hex_cmd_get_build_version:message <- [$r1+0]
	@DEBUG_VALUE: das_hex_cmd_get_build_version:i <- 0
	.loc	2 0 5                           @ ../das_subg_thread/das_hex_cmd.c:0:5
	movs	r5, #52
	movs	r4, #0
	movs	r0, #0
.Ltmp384:
	.p2align	2
.LBB12_2:                               @ =>This Inner Loop Header: Depth=1
	@DEBUG_VALUE: das_hex_cmd_get_build_version:string <- $r6
	@DEBUG_VALUE: das_hex_cmd_get_build_version:message <- [$r1+0]
	@DEBUG_VALUE: das_hex_cmd_get_build_version:i <- $r0
	.loc	2 530 19 is_stmt 1              @ ../das_subg_thread/das_hex_cmd.c:530:19
	adds	r2, r4, r1
	.loc	2 532 10                        @ ../das_subg_thread/das_hex_cmd.c:532:10
	adds	r0, #1
.Ltmp385:
	@DEBUG_VALUE: das_hex_cmd_get_build_version:i <- $r0
	.loc	2 530 24                        @ ../das_subg_thread/das_hex_cmd.c:530:24
	strb	r3, [r2, #4]
.Ltmp386:
	.loc	2 528 12                        @ ../das_subg_thread/das_hex_cmd.c:528:12
	uxtb	r4, r0
.Ltmp387:
	.loc	2 531 17                        @ ../das_subg_thread/das_hex_cmd.c:531:17
	adds	r2, r5, r3
.Ltmp388:
	@DEBUG_VALUE: das_hex_cmd_get_build_version:cmd_crc <- [DW_OP_LLVM_convert 32 7, DW_OP_LLVM_convert 8 7, DW_OP_stack_value] $r2
	.loc	2 528 12                        @ ../das_subg_thread/das_hex_cmd.c:528:12
	ldrb	r3, [r6, r4]
	.loc	2 528 5 is_stmt 0               @ ../das_subg_thread/das_hex_cmd.c:528:5
	uxtb	r5, r2
.Ltmp389:
	@DEBUG_VALUE: das_hex_cmd_get_build_version:cmd_crc <- undef
	cmp	r3, #0
	bne	.LBB12_2
.Ltmp390:
@ %bb.3:
	@DEBUG_VALUE: das_hex_cmd_get_build_version:string <- $r6
	@DEBUG_VALUE: das_hex_cmd_get_build_version:message <- [$r1+0]
	@DEBUG_VALUE: das_hex_cmd_get_build_version:i <- $r0
	.loc	2 534 20 is_stmt 1              @ ../das_subg_thread/das_hex_cmd.c:534:20
	adds	r3, r4, #4
	b	.LBB12_5
.Ltmp391:
.LBB12_4:
	@DEBUG_VALUE: das_hex_cmd_get_build_version:string <- $r6
	@DEBUG_VALUE: das_hex_cmd_get_build_version:message <- [$r1+0]
	@DEBUG_VALUE: das_hex_cmd_get_build_version:i <- 0
	.loc	2 0 20 is_stmt 0                @ ../das_subg_thread/das_hex_cmd.c:0:20
	movs	r3, #4
	movs	r0, #0
	movs	r2, #52
.Ltmp392:
.LBB12_5:
	@DEBUG_VALUE: das_hex_cmd_get_build_version:string <- $r6
	@DEBUG_VALUE: das_hex_cmd_get_build_version:message <- [$r1+0]
	.loc	2 534 20                        @ ../das_subg_thread/das_hex_cmd.c:534:20
	adds	r6, r0, #2
.Ltmp393:
	.loc	2 535 13 is_stmt 1              @ ../das_subg_thread/das_hex_cmd.c:535:13
	add	r2, r6
.Ltmp394:
	@DEBUG_VALUE: das_hex_cmd_get_build_version:cmd_crc <- $r2
	.loc	2 538 31                        @ ../das_subg_thread/das_hex_cmd.c:538:31
	uxtb	r0, r0
	.loc	2 534 16                        @ ../das_subg_thread/das_hex_cmd.c:534:16
	strb	r6, [r1, #2]
	.loc	2 536 22                        @ ../das_subg_thread/das_hex_cmd.c:536:22
	strb	r2, [r1, r3]
	.loc	2 538 31                        @ ../das_subg_thread/das_hex_cmd.c:538:31
	adds	r2, r0, #5
.Ltmp395:
	@DEBUG_VALUE: das_hex_cmd_send:cmd_data <- $r1
	@DEBUG_VALUE: das_hex_cmd_send:cmd_data_lens <- $r2
	.loc	2 71 5                          @ ../das_subg_thread/das_hex_cmd.c:71:5
	movs	r0, #2
	bl	app_uart_data_send
.Ltmp396:
	.loc	2 540 1                         @ ../das_subg_thread/das_hex_cmd.c:540:1
	sub.w	r4, r7, #12
	mov	sp, r4
	pop.w	{r4, r5, r6, r7, r8, r9, pc}
.Ltmp397:
.Lfunc_end12:
	.size	das_hex_cmd_get_build_version, .Lfunc_end12-das_hex_cmd_get_build_version
	.cfi_endproc
	.cantunwind
	.fnend
                                        @ -- End function
	.type	das_rx_length,%object           @ @das_rx_length
	.section	.bss.das_rx_length,"aw",%nobits
	.p2align	1
das_rx_length:
	.short	0                               @ 0x0
	.size	das_rx_length, 2

	.type	das_rx_buf,%object              @ @das_rx_buf
	.section	.bss.das_rx_buf,"aw",%nobits
	.p2align	2
das_rx_buf:
	.zero	1200
	.size	das_rx_buf, 1200

	.type	get_meter_id_timer,%object      @ @get_meter_id_timer
	.section	.bss.get_meter_id_timer,"aw",%nobits
	.p2align	2
get_meter_id_timer:
	.long	0
	.size	get_meter_id_timer, 4

	.type	das_hex_cmd_udp_ip,%object      @ @das_hex_cmd_udp_ip
	.section	.bss.das_hex_cmd_udp_ip,"aw",%nobits
das_hex_cmd_udp_ip:
	.zero	40
	.size	das_hex_cmd_udp_ip, 40

	.type	das_hex_cmd_udp_ip_set,%object  @ @das_hex_cmd_udp_ip_set
	.section	.bss.das_hex_cmd_udp_ip_set,"aw",%nobits
das_hex_cmd_udp_ip_set:
	.byte	0                               @ 0x0
	.size	das_hex_cmd_udp_ip_set, 1

	.type	is_meter_id_geted,%object       @ @is_meter_id_geted
	.section	.bss.is_meter_id_geted,"aw",%nobits
is_meter_id_geted:
	.byte	0                               @ 0x0
	.size	is_meter_id_geted, 1

	.section	".note.GNU-stack","",%progbits
	.eabi_attribute	30, 3	@ Tag_ABI_optimization_goals
	.ARM_attribute	16, 1	@ Tag_AV_eba