	.text
	.syntax unified
	.eabi_attribute	67, "2.09"	@ Tag_conformance
	.cpu	cortex-m3
	.eabi_attribute	6, 10	@ Tag_CPU_arch
	.eabi_attribute	7, 77	@ Tag_CPU_arch_profile
	.eabi_attribute	8, 0	@ Tag_ARM_ISA_use
	.eabi_attribute	9, 2	@ Tag_THUMB_ISA_use
	.eabi_attribute	34, 1	@ Tag_CPU_unaligned_access
	.eabi_attribute	17, 1	@ Tag_ABI_PCS_GOT_use
	.eabi_attribute	20, 2	@ Tag_ABI_FP_denormal
	.eabi_attribute	21, 0	@ Tag_ABI_FP_exceptions
	.eabi_attribute	23, 1	@ Tag_ABI_FP_number_model
	.eabi_attribute	24, 1	@ Tag_ABI_align_needed
	.eabi_attribute	25, 1	@ Tag_ABI_align_preserved
	.eabi_attribute	38, 1	@ Tag_ABI_FP_16bit_format
	.eabi_attribute	18, 4	@ Tag_ABI_PCS_wchar_t
	.eabi_attribute	26, 2	@ Tag_ABI_enum_size
	.eabi_attribute	14, 0	@ Tag_ABI_PCS_R9_use
	.file	"data.cpp"
	.file	1 "C:\\Keil_v5\\ARM\\ARMCLANG\\Bin\\..\\include" "stdint.h"
	.file	2 "C:\\Keil_v5\\ARM\\ARMCLANG\\Bin\\..\\include" "string.h"
	.section	.text._ZN2ot9DataUtils10MatchBytesEPKhS2_tPFbhhE,"ax",%progbits
	.hidden	_ZN2ot9DataUtils10MatchBytesEPKhS2_tPFbhhE @ -- Begin function _ZN2ot9DataUtils10MatchBytesEPKhS2_tPFbhhE
	.globl	_ZN2ot9DataUtils10MatchBytesEPKhS2_tPFbhhE
	.p2align	1
	.type	_ZN2ot9DataUtils10MatchBytesEPKhS2_tPFbhhE,%function
	.code	16                              @ @_ZN2ot9DataUtils10MatchBytesEPKhS2_tPFbhhE
	.thumb_func
_ZN2ot9DataUtils10MatchBytesEPKhS2_tPFbhhE:
.Lfunc_begin0:
	.file	3 "D:\\Rafael-IoT-SDK-Internal-main\\examples\\das_subg_thread\\keil" "../../../components/network/thread/subg_openthread/src/core/common/data.cpp"
	.loc	3 42 0                          @ ../../../components/network/thread/subg_openthread/src/core/common/data.cpp:42:0
	.fnstart
	.cfi_sections .debug_frame
	.cfi_startproc
@ %bb.0:
	@DEBUG_VALUE: MatchBytes:aFirstBuffer <- $r0
	@DEBUG_VALUE: MatchBytes:aSecondBuffer <- $r1
	@DEBUG_VALUE: MatchBytes:aLength <- $r2
	@DEBUG_VALUE: MatchBytes:aMatcher <- $r3
	.save	{r4, r5, r6, r7, r8, lr}
	push.w	{r4, r5, r6, r7, r8, lr}
	.cfi_def_cfa_offset 24
	.cfi_offset lr, -4
	.cfi_offset r8, -8
	.cfi_offset r7, -12
	.cfi_offset r6, -16
	.cfi_offset r5, -20
	.cfi_offset r4, -24
	mov	r4, r2
.Ltmp0:
	@DEBUG_VALUE: MatchBytes:aLength <- $r4
	mov	r5, r1
.Ltmp1:
	@DEBUG_VALUE: MatchBytes:aSecondBuffer <- $r5
	@DEBUG_VALUE: MatchBytes:aMatcher <- $r3
	@DEBUG_VALUE: MatchBytes:aLength <- $r4
	@DEBUG_VALUE: MatchBytes:aSecondBuffer <- $r5
	mov	r7, r0
.Ltmp2:
	@DEBUG_VALUE: MatchBytes:aFirstBuffer <- $r7
	@DEBUG_VALUE: MatchBytes:matches <- 1
	@DEBUG_VALUE: MatchBytes:aFirstBuffer <- $r7
	.loc	3 45 9 prologue_end             @ ../../../components/network/thread/subg_openthread/src/core/common/data.cpp:45:9
	cbz	r3, .LBB0_4
.Ltmp3:
@ %bb.1:
	@DEBUG_VALUE: MatchBytes:aFirstBuffer <- $r7
	@DEBUG_VALUE: MatchBytes:aSecondBuffer <- $r5
	@DEBUG_VALUE: MatchBytes:aLength <- $r4
	@DEBUG_VALUE: MatchBytes:aMatcher <- $r3
	@DEBUG_VALUE: MatchBytes:matches <- 1
	.loc	3 0 9 is_stmt 0                 @ ../../../components/network/thread/subg_openthread/src/core/common/data.cpp:0:9
	mov	r8, r3
.Ltmp4:
	@DEBUG_VALUE: MatchBytes:aMatcher <- $r8
	@DEBUG_VALUE: MatchBytes:aMatcher <- $r8
	.p2align	2
.LBB0_2:                                @ =>This Inner Loop Header: Depth=1
	@DEBUG_VALUE: MatchBytes:aMatcher <- $r8
	@DEBUG_VALUE: MatchBytes:aFirstBuffer <- $r7
	@DEBUG_VALUE: MatchBytes:aSecondBuffer <- $r5
	@DEBUG_VALUE: MatchBytes:aLength <- $r4
	@DEBUG_VALUE: MatchBytes:matches <- 1
	@DEBUG_VALUE: MatchBytes:aFirstBuffer <- $r7
	@DEBUG_VALUE: MatchBytes:aSecondBuffer <- $r5
	@DEBUG_VALUE: MatchBytes:aLength <- [DW_OP_constu 1, DW_OP_minus, DW_OP_stack_value] $r4
	.loc	3 51 22 is_stmt 1               @ ../../../components/network/thread/subg_openthread/src/core/common/data.cpp:51:22
	uxth	r0, r4
	clz	r1, r0
	lsr.w	r6, r1, #5
	.loc	3 51 5 is_stmt 0                @ ../../../components/network/thread/subg_openthread/src/core/common/data.cpp:51:5
	cbz	r0, .LBB0_5
.Ltmp5:
@ %bb.3:                                @   in Loop: Header=BB0_2 Depth=1
	@DEBUG_VALUE: MatchBytes:aMatcher <- $r8
	@DEBUG_VALUE: MatchBytes:aFirstBuffer <- $r7
	@DEBUG_VALUE: MatchBytes:aSecondBuffer <- $r5
	@DEBUG_VALUE: MatchBytes:aLength <- [DW_OP_constu 1, DW_OP_minus, DW_OP_stack_value] $r4
	@DEBUG_VALUE: MatchBytes:matches <- 1
	.loc	3 53 9 is_stmt 1                @ ../../../components/network/thread/subg_openthread/src/core/common/data.cpp:53:9
	ldrb	r0, [r7], #1
.Ltmp6:
	@DEBUG_VALUE: MatchBytes:aFirstBuffer <- $r7
	ldrb	r1, [r5], #1
.Ltmp7:
	@DEBUG_VALUE: MatchBytes:aSecondBuffer <- $r5
	.loc	3 51 19                         @ ../../../components/network/thread/subg_openthread/src/core/common/data.cpp:51:19
	subs	r4, #1
.Ltmp8:
	@DEBUG_VALUE: MatchBytes:aLength <- $r4
	.loc	3 53 9                          @ ../../../components/network/thread/subg_openthread/src/core/common/data.cpp:53:9
	blx	r8
.Ltmp9:
	.loc	3 53 9 is_stmt 0                @ ../../../components/network/thread/subg_openthread/src/core/common/data.cpp:53:9
	cmp	r0, #0
	bne	.LBB0_2
	b	.LBB0_5
.Ltmp10:
.LBB0_4:
	@DEBUG_VALUE: MatchBytes:aFirstBuffer <- $r7
	@DEBUG_VALUE: MatchBytes:aSecondBuffer <- $r5
	@DEBUG_VALUE: MatchBytes:aLength <- $r4
	@DEBUG_VALUE: MatchBytes:aMatcher <- $r3
	@DEBUG_VALUE: MatchBytes:matches <- 1
	.loc	3 47 20 is_stmt 1               @ ../../../components/network/thread/subg_openthread/src/core/common/data.cpp:47:20
	mov	r0, r7
	mov	r1, r5
	mov	r2, r4
	bl	memcmp
.Ltmp11:
	@DEBUG_VALUE: MatchBytes:aMatcher <- [DW_OP_LLVM_entry_value 1] $r3
	.loc	3 47 65 is_stmt 0               @ ../../../components/network/thread/subg_openthread/src/core/common/data.cpp:47:65
	clz	r0, r0
	lsrs	r6, r0, #5
.Ltmp12:
	@DEBUG_VALUE: MatchBytes:matches <- [DW_OP_LLVM_convert 1 7, DW_OP_LLVM_convert 8 7, DW_OP_stack_value] $r6
.LBB0_5:
	@DEBUG_VALUE: MatchBytes:aFirstBuffer <- $r7
	@DEBUG_VALUE: MatchBytes:aSecondBuffer <- $r5
	@DEBUG_VALUE: MatchBytes:matches <- undef
	@DEBUG_LABEL: MatchBytes:exit
	.loc	3 57 5 is_stmt 1                @ ../../../components/network/thread/subg_openthread/src/core/common/data.cpp:57:5
	mov	r0, r6
	pop.w	{r4, r5, r6, r7, r8, pc}
.Ltmp13:
.Lfunc_end0:
	.size	_ZN2ot9DataUtils10MatchBytesEPKhS2_tPFbhhE, .Lfunc_end0-_ZN2ot9DataUtils10MatchBytesEPKhS2_tPFbhhE
	.cfi_endproc
	.file	4 "D:\\Rafael-IoT-SDK-Internal-main\\examples\\das_subg_thread\\keil" "../../../components/network/thread/subg_openthread/src/core/common/data.hpp"
	.cantunwind
	.fnend
                                        @ -- End function
	.section	".note.GNU-stack","",%progbits
	.eabi_attribute	30, 3	@ Tag_ABI_optimization_goals
	.ARM_attribute	16, 1	@ Tag_AV_eba