	.text
	.syntax unified
	.eabi_attribute	67, "2.09"	@ Tag_conformance
	.cpu	cortex-m3
	.eabi_attribute	6, 10	@ Tag_CPU_arch
	.eabi_attribute	7, 77	@ Tag_CPU_arch_profile
	.eabi_attribute	8, 0	@ Tag_ARM_ISA_use
	.eabi_attribute	9, 2	@ Tag_THUMB_ISA_use
	.eabi_attribute	34, 1	@ Tag_CPU_unaligned_access
	.eabi_attribute	17, 1	@ Tag_ABI_PCS_GOT_use
	.eabi_attribute	20, 2	@ Tag_ABI_FP_denormal
	.eabi_attribute	21, 0	@ Tag_ABI_FP_exceptions
	.eabi_attribute	23, 1	@ Tag_ABI_FP_number_model
	.eabi_attribute	24, 1	@ Tag_ABI_align_needed
	.eabi_attribute	25, 1	@ Tag_ABI_align_preserved
	.eabi_attribute	38, 1	@ Tag_ABI_FP_16bit_format
	.eabi_attribute	18, 4	@ Tag_ABI_PCS_wchar_t
	.eabi_attribute	26, 2	@ Tag_ABI_enum_size
	.eabi_attribute	14, 0	@ Tag_ABI_PCS_R9_use
	.file	"debug_uart.c"
	.file	1 "D:\\20240115\\rafael-iot-sdk-das\\examples\\das_subg_thread\\keil" "../../../components/network/thread/subg_openthread/include\\openthread/error.h"
	.section	.text.otPlatDebugUart_printf,"ax",%progbits
	.hidden	otPlatDebugUart_printf          @ -- Begin function otPlatDebugUart_printf
	.weak	otPlatDebugUart_printf
	.p2align	1
	.type	otPlatDebugUart_printf,%function
	.code	16                              @ @otPlatDebugUart_printf
	.thumb_func
otPlatDebugUart_printf:
.Lfunc_begin0:
	.file	2 "D:\\20240115\\rafael-iot-sdk-das\\examples\\das_subg_thread\\keil" "../../../components/network/thread/subg_openthread/examples/platforms/utils/debug_uart.c"
	.loc	2 44 0                          @ ../../../components/network/thread/subg_openthread/examples/platforms/utils/debug_uart.c:44:0
	.fnstart
	.cfi_sections .debug_frame
	.cfi_startproc
@ %bb.0:
	@DEBUG_VALUE: otPlatDebugUart_printf:fmt <- $r0
	.pad	#12
	sub	sp, #12
	.cfi_def_cfa_offset 12
	.save	{r7, lr}
	push	{r7, lr}
	.cfi_def_cfa_offset 20
	.cfi_offset lr, -16
	.cfi_offset r7, -20
	.pad	#4
	sub	sp, #4
	.cfi_def_cfa_offset 24
	add.w	r12, sp, #12
	stm.w	r12, {r1, r2, r3}
	add	r1, sp, #12
	@DEBUG_VALUE: otPlatDebugUart_printf:fmt <- $r0
.Ltmp0:
	.loc	2 46 5 prologue_end             @ ../../../components/network/thread/subg_openthread/examples/platforms/utils/debug_uart.c:46:5
	str	r1, [sp]
	@DEBUG_VALUE: otPlatDebugUart_printf:fmt <- $r0
	.loc	2 47 5                          @ ../../../components/network/thread/subg_openthread/examples/platforms/utils/debug_uart.c:47:5
	bl	otPlatDebugUart_vprintf
.Ltmp1:
	@DEBUG_VALUE: otPlatDebugUart_printf:fmt <- [DW_OP_LLVM_entry_value 1] $r0
	.loc	2 49 1                          @ ../../../components/network/thread/subg_openthread/examples/platforms/utils/debug_uart.c:49:1
	add	sp, #4
	pop.w	{r7, lr}
	add	sp, #12
	bx	lr
.Ltmp2:
.Lfunc_end0:
	.size	otPlatDebugUart_printf, .Lfunc_end0-otPlatDebugUart_printf
	.cfi_endproc
	.cantunwind
	.fnend
                                        @ -- End function
	.section	.text.otPlatDebugUart_vprintf,"ax",%progbits
	.hidden	otPlatDebugUart_vprintf         @ -- Begin function otPlatDebugUart_vprintf
	.weak	otPlatDebugUart_vprintf
	.p2align	1
	.type	otPlatDebugUart_vprintf,%function
	.code	16                              @ @otPlatDebugUart_vprintf
	.thumb_func
otPlatDebugUart_vprintf:
.Lfunc_begin1:
	.loc	2 53 0                          @ ../../../components/network/thread/subg_openthread/examples/platforms/utils/debug_uart.c:53:0
	.fnstart
	.cfi_startproc
@ %bb.0:
	@DEBUG_VALUE: otPlatDebugUart_vprintf:fmt <- $r0
	.save	{r4, lr}
	push	{r4, lr}
	.cfi_def_cfa_offset 8
	.cfi_offset lr, -4
	.cfi_offset r4, -8
	.pad	#128
	sub	sp, #128
	.cfi_def_cfa_offset 136
	mov	r4, sp
	mov	r3, r1
	mov	r2, r0
	@DEBUG_VALUE: otPlatDebugUart_vprintf:ap <- undef
.Ltmp3:
	@DEBUG_VALUE: otPlatDebugUart_vprintf:fmt <- $r2
	.loc	2 58 5 prologue_end             @ ../../../components/network/thread/subg_openthread/examples/platforms/utils/debug_uart.c:58:5
	mov	r0, r4
	movs	r1, #128
	@DEBUG_VALUE: otPlatDebugUart_vprintf:fmt <- $r2
	bl	vsnprintf
.Ltmp4:
	.loc	2 0 5 is_stmt 0                 @ ../../../components/network/thread/subg_openthread/examples/platforms/utils/debug_uart.c:0:5
	movs	r0, #0
	.loc	2 60 26 is_stmt 1               @ ../../../components/network/thread/subg_openthread/examples/platforms/utils/debug_uart.c:60:26
	strb.w	r0, [sp, #127]
	.loc	2 61 5                          @ ../../../components/network/thread/subg_openthread/examples/platforms/utils/debug_uart.c:61:5
	mov	r0, r4
	bl	otPlatDebugUart_puts_no_nl
.Ltmp5:
	.loc	2 62 1                          @ ../../../components/network/thread/subg_openthread/examples/platforms/utils/debug_uart.c:62:1
	add	sp, #128
	pop	{r4, pc}
.Ltmp6:
.Lfunc_end1:
	.size	otPlatDebugUart_vprintf, .Lfunc_end1-otPlatDebugUart_vprintf
	.cfi_endproc
	.cantunwind
	.fnend
                                        @ -- End function
	.section	.text.otPlatDebugUart_puts_no_nl,"ax",%progbits
	.hidden	otPlatDebugUart_puts_no_nl      @ -- Begin function otPlatDebugUart_puts_no_nl
	.weak	otPlatDebugUart_puts_no_nl
	.p2align	1
	.type	otPlatDebugUart_puts_no_nl,%function
	.code	16                              @ @otPlatDebugUart_puts_no_nl
	.thumb_func
otPlatDebugUart_puts_no_nl:
.Lfunc_begin2:
	.loc	2 77 0                          @ ../../../components/network/thread/subg_openthread/examples/platforms/utils/debug_uart.c:77:0
	.fnstart
	.cfi_startproc
@ %bb.0:
	@DEBUG_VALUE: otPlatDebugUart_puts_no_nl:s <- $r0
	.save	{r4, lr}
	push	{r4, lr}
	.cfi_def_cfa_offset 8
	.cfi_offset lr, -4
	.cfi_offset r4, -8
	mov	r1, r0
.Ltmp7:
	@DEBUG_VALUE: otPlatDebugUart_puts_no_nl:s <- $r1
	.loc	2 78 12 prologue_end            @ ../../../components/network/thread/subg_openthread/examples/platforms/utils/debug_uart.c:78:12
	ldrb	r0, [r0]
	.loc	2 78 5 is_stmt 0                @ ../../../components/network/thread/subg_openthread/examples/platforms/utils/debug_uart.c:78:5
	cbz	r0, .LBB2_3
.Ltmp8:
@ %bb.1:
	@DEBUG_VALUE: otPlatDebugUart_puts_no_nl:s <- $r1
	adds	r4, r1, #1
.Ltmp9:
	.p2align	2
.LBB2_2:                                @ =>This Inner Loop Header: Depth=1
	@DEBUG_VALUE: otPlatDebugUart_puts_no_nl:s <- [DW_OP_constu 1, DW_OP_minus, DW_OP_stack_value] $r4
	.loc	2 80 9 is_stmt 1                @ ../../../components/network/thread/subg_openthread/examples/platforms/utils/debug_uart.c:80:9
	bl	otPlatDebugUart_putchar
.Ltmp10:
	@DEBUG_VALUE: otPlatDebugUart_puts_no_nl:s <- $r4
	.loc	2 78 12                         @ ../../../components/network/thread/subg_openthread/examples/platforms/utils/debug_uart.c:78:12
	ldrb	r0, [r4], #1
.Ltmp11:
	.loc	2 78 5 is_stmt 0                @ ../../../components/network/thread/subg_openthread/examples/platforms/utils/debug_uart.c:78:5
	cmp	r0, #0
	bne	.LBB2_2
.LBB2_3:
	.loc	2 83 1 is_stmt 1                @ ../../../components/network/thread/subg_openthread/examples/platforms/utils/debug_uart.c:83:1
	pop	{r4, pc}
.Ltmp12:
.Lfunc_end2:
	.size	otPlatDebugUart_puts_no_nl, .Lfunc_end2-otPlatDebugUart_puts_no_nl
	.cfi_endproc
	.cantunwind
	.fnend
                                        @ -- End function
	.section	.text.otPlatDebugUart_write_bytes,"ax",%progbits
	.hidden	otPlatDebugUart_write_bytes     @ -- Begin function otPlatDebugUart_write_bytes
	.weak	otPlatDebugUart_write_bytes
	.p2align	1
	.type	otPlatDebugUart_write_bytes,%function
	.code	16                              @ @otPlatDebugUart_write_bytes
	.thumb_func
otPlatDebugUart_write_bytes:
.Lfunc_begin3:
	.loc	2 66 0                          @ ../../../components/network/thread/subg_openthread/examples/platforms/utils/debug_uart.c:66:0
	.fnstart
	.cfi_startproc
@ %bb.0:
	@DEBUG_VALUE: otPlatDebugUart_write_bytes:pBytes <- $r0
	@DEBUG_VALUE: otPlatDebugUart_write_bytes:nBytes <- $r1
	@DEBUG_VALUE: otPlatDebugUart_write_bytes:nBytes <- $r1
	.save	{r4, r5, r7, lr}
	push	{r4, r5, r7, lr}
	.cfi_def_cfa_offset 16
	.cfi_offset lr, -4
	.cfi_offset r7, -8
	.cfi_offset r5, -12
	.cfi_offset r4, -16
.Ltmp13:
	.loc	2 67 5 prologue_end             @ ../../../components/network/thread/subg_openthread/examples/platforms/utils/debug_uart.c:67:5
	cmp	r1, #1
	@DEBUG_VALUE: otPlatDebugUart_write_bytes:pBytes <- $r0
	.loc	2 73 1                          @ ../../../components/network/thread/subg_openthread/examples/platforms/utils/debug_uart.c:73:1
	it	lt
	poplt	{r4, r5, r7, pc}
.Ltmp14:
.LBB3_1:
	@DEBUG_VALUE: otPlatDebugUart_write_bytes:nBytes <- $r1
	@DEBUG_VALUE: otPlatDebugUart_write_bytes:pBytes <- $r0
	.loc	2 0 1 is_stmt 0                 @ ../../../components/network/thread/subg_openthread/examples/platforms/utils/debug_uart.c:0:1
	mov	r4, r0
.Ltmp15:
	@DEBUG_VALUE: otPlatDebugUart_write_bytes:pBytes <- $r4
	@DEBUG_VALUE: otPlatDebugUart_write_bytes:pBytes <- $r4
	.loc	2 67 5 is_stmt 1                @ ../../../components/network/thread/subg_openthread/examples/platforms/utils/debug_uart.c:67:5
	adds	r5, r1, #1
.Ltmp16:
	.p2align	2
.LBB3_2:                                @ =>This Inner Loop Header: Depth=1
	@DEBUG_VALUE: otPlatDebugUart_write_bytes:pBytes <- $r4
	@DEBUG_VALUE: otPlatDebugUart_write_bytes:pBytes <- $r4
	@DEBUG_VALUE: otPlatDebugUart_write_bytes:nBytes <- [DW_OP_constu 1, DW_OP_minus, DW_OP_stack_value] $r5
	.loc	2 69 39                         @ ../../../components/network/thread/subg_openthread/examples/platforms/utils/debug_uart.c:69:39
	ldrb	r0, [r4], #1
.Ltmp17:
	.loc	2 69 9 is_stmt 0                @ ../../../components/network/thread/subg_openthread/examples/platforms/utils/debug_uart.c:69:9
	bl	otPlatDebugUart_putchar
.Ltmp18:
	@DEBUG_VALUE: otPlatDebugUart_write_bytes:nBytes <- [DW_OP_constu 2, DW_OP_minus, DW_OP_stack_value] $r5
	@DEBUG_VALUE: otPlatDebugUart_write_bytes:pBytes <- $r4
	.loc	2 67 19 is_stmt 1               @ ../../../components/network/thread/subg_openthread/examples/platforms/utils/debug_uart.c:67:19
	subs	r5, #1
.Ltmp19:
	.loc	2 67 5 is_stmt 0                @ ../../../components/network/thread/subg_openthread/examples/platforms/utils/debug_uart.c:67:5
	cmp	r5, #1
	bgt	.LBB3_2
.Ltmp20:
@ %bb.3:
	@DEBUG_VALUE: otPlatDebugUart_write_bytes:pBytes <- $r4
	.loc	2 73 1 is_stmt 1                @ ../../../components/network/thread/subg_openthread/examples/platforms/utils/debug_uart.c:73:1
	pop	{r4, r5, r7, pc}
.Ltmp21:
.Lfunc_end3:
	.size	otPlatDebugUart_write_bytes, .Lfunc_end3-otPlatDebugUart_write_bytes
	.cfi_endproc
	.cantunwind
	.fnend
                                        @ -- End function
	.section	.text.otPlatDebugUart_putchar,"ax",%progbits
	.hidden	otPlatDebugUart_putchar         @ -- Begin function otPlatDebugUart_putchar
	.weak	otPlatDebugUart_putchar
	.p2align	1
	.type	otPlatDebugUart_putchar,%function
	.code	16                              @ @otPlatDebugUart_putchar
	.thumb_func
otPlatDebugUart_putchar:
.Lfunc_begin4:
	.loc	2 94 0                          @ ../../../components/network/thread/subg_openthread/examples/platforms/utils/debug_uart.c:94:0
	.fnstart
	.cfi_startproc
@ %bb.0:
	@DEBUG_VALUE: otPlatDebugUart_putchar:c <- $r0
	.save	{r4, lr}
	push	{r4, lr}
	.cfi_def_cfa_offset 8
	.cfi_offset lr, -4
	.cfi_offset r4, -8
	mov	r4, r0
.Ltmp22:
	@DEBUG_VALUE: otPlatDebugUart_putchar:c <- $r4
	.loc	2 96 9 prologue_end             @ ../../../components/network/thread/subg_openthread/examples/platforms/utils/debug_uart.c:96:9
	cmp	r0, #10
	bne	.LBB4_2
.Ltmp23:
@ %bb.1:
	@DEBUG_VALUE: otPlatDebugUart_putchar:c <- $r4
	.loc	2 98 9                          @ ../../../components/network/thread/subg_openthread/examples/platforms/utils/debug_uart.c:98:9
	movs	r0, #13
	bl	otPlatDebugUart_putchar_raw
.Ltmp24:
.LBB4_2:
	@DEBUG_VALUE: otPlatDebugUart_putchar:c <- $r4
	.loc	2 101 5                         @ ../../../components/network/thread/subg_openthread/examples/platforms/utils/debug_uart.c:101:5
	mov	r0, r4
	pop.w	{r4, lr}
.Ltmp25:
	@DEBUG_VALUE: otPlatDebugUart_putchar:c <- [DW_OP_LLVM_entry_value 1] $r0
	b	otPlatDebugUart_putchar_raw
.Ltmp26:
.Lfunc_end4:
	.size	otPlatDebugUart_putchar, .Lfunc_end4-otPlatDebugUart_putchar
	.cfi_endproc
	.cantunwind
	.fnend
                                        @ -- End function
	.section	.text.otPlatDebugUart_puts,"ax",%progbits
	.hidden	otPlatDebugUart_puts            @ -- Begin function otPlatDebugUart_puts
	.weak	otPlatDebugUart_puts
	.p2align	1
	.type	otPlatDebugUart_puts,%function
	.code	16                              @ @otPlatDebugUart_puts
	.thumb_func
otPlatDebugUart_puts:
.Lfunc_begin5:
	.loc	2 87 0                          @ ../../../components/network/thread/subg_openthread/examples/platforms/utils/debug_uart.c:87:0
	.fnstart
	.cfi_startproc
@ %bb.0:
	@DEBUG_VALUE: otPlatDebugUart_puts:s <- $r0
	@DEBUG_VALUE: otPlatDebugUart_puts:s <- $r0
	@DEBUG_VALUE: otPlatDebugUart_puts:s <- $r0
	.save	{r7, lr}
	push	{r7, lr}
	.cfi_def_cfa_offset 8
	.cfi_offset lr, -4
	.cfi_offset r7, -8
.Ltmp27:
	.loc	2 88 5 prologue_end             @ ../../../components/network/thread/subg_openthread/examples/platforms/utils/debug_uart.c:88:5
	bl	otPlatDebugUart_puts_no_nl
.Ltmp28:
	@DEBUG_VALUE: otPlatDebugUart_puts:s <- [DW_OP_LLVM_entry_value 1] $r0
	.loc	2 89 5                          @ ../../../components/network/thread/subg_openthread/examples/platforms/utils/debug_uart.c:89:5
	movs	r0, #10
	pop.w	{r7, lr}
.Ltmp29:
	b	otPlatDebugUart_putchar
.Ltmp30:
.Lfunc_end5:
	.size	otPlatDebugUart_puts, .Lfunc_end5-otPlatDebugUart_puts
	.cfi_endproc
	.cantunwind
	.fnend
                                        @ -- End function
	.section	.text.otPlatDebugUart_putchar_raw,"ax",%progbits
	.hidden	otPlatDebugUart_putchar_raw     @ -- Begin function otPlatDebugUart_putchar_raw
	.weak	otPlatDebugUart_putchar_raw
	.p2align	1
	.type	otPlatDebugUart_putchar_raw,%function
	.code	16                              @ @otPlatDebugUart_putchar_raw
	.thumb_func
otPlatDebugUart_putchar_raw:
.Lfunc_begin6:
	.loc	2 107 0                         @ ../../../components/network/thread/subg_openthread/examples/platforms/utils/debug_uart.c:107:0
	.fnstart
	.cfi_startproc
@ %bb.0:
	@DEBUG_VALUE: otPlatDebugUart_putchar_raw:c <- $r0
	.loc	2 109 1 prologue_end            @ ../../../components/network/thread/subg_openthread/examples/platforms/utils/debug_uart.c:109:1
	bx	lr
.Ltmp31:
.Lfunc_end6:
	.size	otPlatDebugUart_putchar_raw, .Lfunc_end6-otPlatDebugUart_putchar_raw
	.cfi_endproc
	.cantunwind
	.fnend
                                        @ -- End function
	.section	.text.otPlatDebugUart_kbhit,"ax",%progbits
	.hidden	otPlatDebugUart_kbhit           @ -- Begin function otPlatDebugUart_kbhit
	.weak	otPlatDebugUart_kbhit
	.p2align	1
	.type	otPlatDebugUart_kbhit,%function
	.code	16                              @ @otPlatDebugUart_kbhit
	.thumb_func
otPlatDebugUart_kbhit:
.Lfunc_begin7:
	.loc	2 113 0                         @ ../../../components/network/thread/subg_openthread/examples/platforms/utils/debug_uart.c:113:0
	.fnstart
	.cfi_startproc
@ %bb.0:
	.loc	2 114 5 prologue_end            @ ../../../components/network/thread/subg_openthread/examples/platforms/utils/debug_uart.c:114:5
	movs	r0, #0
	bx	lr
.Ltmp32:
.Lfunc_end7:
	.size	otPlatDebugUart_kbhit, .Lfunc_end7-otPlatDebugUart_kbhit
	.cfi_endproc
	.cantunwind
	.fnend
                                        @ -- End function
	.section	.text.otPlatDebugUart_getc,"ax",%progbits
	.hidden	otPlatDebugUart_getc            @ -- Begin function otPlatDebugUart_getc
	.weak	otPlatDebugUart_getc
	.p2align	1
	.type	otPlatDebugUart_getc,%function
	.code	16                              @ @otPlatDebugUart_getc
	.thumb_func
otPlatDebugUart_getc:
.Lfunc_begin8:
	.loc	2 119 0                         @ ../../../components/network/thread/subg_openthread/examples/platforms/utils/debug_uart.c:119:0
	.fnstart
	.cfi_startproc
@ %bb.0:
	.loc	2 120 5 prologue_end            @ ../../../components/network/thread/subg_openthread/examples/platforms/utils/debug_uart.c:120:5
	mov.w	r0, #-1
	bx	lr
.Ltmp33:
.Lfunc_end8:
	.size	otPlatDebugUart_getc, .Lfunc_end8-otPlatDebugUart_getc
	.cfi_endproc
	.cantunwind
	.fnend
                                        @ -- End function
	.section	.text.otPlatDebugUart_logfile,"ax",%progbits
	.hidden	otPlatDebugUart_logfile         @ -- Begin function otPlatDebugUart_logfile
	.weak	otPlatDebugUart_logfile
	.p2align	1
	.type	otPlatDebugUart_logfile,%function
	.code	16                              @ @otPlatDebugUart_logfile
	.thumb_func
otPlatDebugUart_logfile:
.Lfunc_begin9:
	.loc	2 125 0                         @ ../../../components/network/thread/subg_openthread/examples/platforms/utils/debug_uart.c:125:0
	.fnstart
	.cfi_startproc
@ %bb.0:
	@DEBUG_VALUE: otPlatDebugUart_logfile:filename <- $r0
	.loc	2 128 5 prologue_end            @ ../../../components/network/thread/subg_openthread/examples/platforms/utils/debug_uart.c:128:5
	movs	r0, #1
.Ltmp34:
	@DEBUG_VALUE: otPlatDebugUart_logfile:filename <- [DW_OP_LLVM_entry_value 1] $r0
	bx	lr
.Ltmp35:
.Lfunc_end9:
	.size	otPlatDebugUart_logfile, .Lfunc_end9-otPlatDebugUart_logfile
	.cfi_endproc
	.cantunwind
	.fnend
                                        @ -- End function
	.file	3 "D:\\20240115\\rafael-iot-sdk-das\\examples\\das_subg_thread\\keil" "../../../components/network/thread/subg_openthread/examples/platforms/utils\\debug_uart.c"
	.file	4 "C:\\Keil_v5\\ARM\\ARMCLANG\\Bin\\..\\include" "stdarg.h"
	.file	5 "C:\\Keil_v5\\ARM\\ARMCLANG\\Bin\\..\\include" "stdint.h"
	.section	".note.GNU-stack","",%progbits
	.eabi_attribute	30, 3	@ Tag_ABI_optimization_goals
	.ARM_attribute	16, 1	@ Tag_AV_eba