	.text
	.syntax unified
	.eabi_attribute	67, "2.09"	@ Tag_conformance
	.cpu	cortex-m3
	.eabi_attribute	6, 10	@ Tag_CPU_arch
	.eabi_attribute	7, 77	@ Tag_CPU_arch_profile
	.eabi_attribute	8, 0	@ Tag_ARM_ISA_use
	.eabi_attribute	9, 2	@ Tag_THUMB_ISA_use
	.eabi_attribute	34, 1	@ Tag_CPU_unaligned_access
	.eabi_attribute	17, 1	@ Tag_ABI_PCS_GOT_use
	.eabi_attribute	20, 2	@ Tag_ABI_FP_denormal
	.eabi_attribute	21, 0	@ Tag_ABI_FP_exceptions
	.eabi_attribute	23, 1	@ Tag_ABI_FP_number_model
	.eabi_attribute	24, 1	@ Tag_ABI_align_needed
	.eabi_attribute	25, 1	@ Tag_ABI_align_preserved
	.eabi_attribute	38, 1	@ Tag_ABI_FP_16bit_format
	.eabi_attribute	18, 4	@ Tag_ABI_PCS_wchar_t
	.eabi_attribute	26, 2	@ Tag_ABI_enum_size
	.eabi_attribute	14, 0	@ Tag_ABI_PCS_R9_use
	.file	"dma.c"
	.file	1 "C:\\Keil_v5\\ARM\\ARMCLANG\\Bin\\..\\include" "stdint.h"
	.file	2 "D:\\20240115\\rafael-iot-sdk-das\\examples\\das_subg_thread\\keil" "../../../components/platform/soc/rt582/rt582_driver/Inc/dma.h"
	.file	3 "D:\\20240115\\rafael-iot-sdk-das\\examples\\das_subg_thread\\keil" "../../../components/platform/soc/rt582/rt582_driver/Src/dma.c"
	.file	4 "D:\\20240115\\rafael-iot-sdk-das\\examples\\das_subg_thread\\keil" "../../../components/platform/soc/rt582/rt582_driver/Inc/cm3_mcu.h"
	.file	5 "D:\\20240115\\rafael-iot-sdk-das\\examples\\das_subg_thread\\keil" "../../../components/platform/soc/rt582/rt582_driver/Inc/dma_reg.h"
	.file	6 "C:/Users\\P350\\AppData\\Local\\Arm\\Packs\\ARM\\CMSIS\\5.8.0\\CMSIS\\Core\\Include" "core_cm3.h"
	.section	.text.dma_register_isr,"ax",%progbits
	.hidden	dma_register_isr                @ -- Begin function dma_register_isr
	.globl	dma_register_isr
	.p2align	1
	.type	dma_register_isr,%function
	.code	16                              @ @dma_register_isr
	.thumb_func
dma_register_isr:
.Lfunc_begin0:
	.loc	3 24 0                          @ ../../../components/platform/soc/rt582/rt582_driver/Src/dma.c:24:0
	.fnstart
	.cfi_sections .debug_frame
	.cfi_startproc
@ %bb.0:
	@DEBUG_VALUE: dma_register_isr:dma_channel_id <- $r0
	@DEBUG_VALUE: dma_register_isr:dma_channel_id <- $r0
	@DEBUG_VALUE: dma_register_isr:app_dma_callback <- $r1
	.loc	3 27 47 prologue_end            @ ../../../components/platform/soc/rt582/rt582_driver/Src/dma.c:27:47
	cmp	r0, #3
	@DEBUG_VALUE: dma_register_isr:app_dma_callback <- $r1
	bhi	.LBB0_3
.Ltmp0:
@ %bb.1:
	@DEBUG_VALUE: dma_register_isr:app_dma_callback <- $r1
	@DEBUG_VALUE: dma_register_isr:dma_channel_id <- $r0
	cmp	r1, #0
.Ltmp1:
	.loc	3 41 1                          @ ../../../components/platform/soc/rt582/rt582_driver/Src/dma.c:41:1
	it	eq
	bxeq	lr
.Ltmp2:
.LBB0_2:
	@DEBUG_VALUE: dma_register_isr:app_dma_callback <- $r1
	@DEBUG_VALUE: dma_register_isr:dma_channel_id <- $r0
	.loc	3 32 21                         @ ../../../components/platform/soc/rt582/rt582_driver/Src/dma.c:32:21
	movw	r2, :lower16:dma_addr
	movt	r2, :upper16:dma_addr
	ldr.w	r2, [r2, r0, lsl #2]
	movs	r3, #15
.Ltmp3:
	@DEBUG_VALUE: dma_register_isr:DMA <- $r2
	.loc	3 34 25                         @ ../../../components/platform/soc/rt582/rt582_driver/Src/dma.c:34:25
	str	r3, [r2, #32]
	.loc	3 35 24                         @ ../../../components/platform/soc/rt582/rt582_driver/Src/dma.c:35:24
	str	r3, [r2, #28]
	.loc	3 36 5                          @ ../../../components/platform/soc/rt582/rt582_driver/Src/dma.c:36:5
	movw	r2, :lower16:dma_usr_isr_cb
.Ltmp4:
	movt	r2, :upper16:dma_usr_isr_cb
	.loc	3 36 36 is_stmt 0               @ ../../../components/platform/soc/rt582/rt582_driver/Src/dma.c:36:36
	str.w	r1, [r2, r0, lsl #2]
	.loc	3 38 47 is_stmt 1               @ ../../../components/platform/soc/rt582/rt582_driver/Src/dma.c:38:47
	adds	r0, #9
.Ltmp5:
	@DEBUG_VALUE: dma_register_isr:dma_channel_id <- [DW_OP_LLVM_entry_value 1] $r0
	@DEBUG_VALUE: __NVIC_EnableIRQ:IRQn <- $r0
	.loc	3 0 47 is_stmt 0                @ ../../../components/platform/soc/rt582/rt582_driver/Src/dma.c:0:47
	movs	r1, #1
.Ltmp6:
	@DEBUG_VALUE: dma_register_isr:app_dma_callback <- [DW_OP_LLVM_entry_value 1] $r1
	.loc	6 1513 60 is_stmt 1             @ C:/Users\P350\AppData\Local\Arm\Packs\ARM\CMSIS\5.8.0\CMSIS\Core\Include\core_cm3.h:1513:60
	lsl.w	r0, r1, r0
.Ltmp7:
	.loc	6 0 60 is_stmt 0                @ C:/Users\P350\AppData\Local\Arm\Packs\ARM\CMSIS\5.8.0\CMSIS\Core\Include\core_cm3.h:0:60
	movw	r1, #57600
	movt	r1, #57344
	.loc	6 1512 5 is_stmt 1              @ C:/Users\P350\AppData\Local\Arm\Packs\ARM\CMSIS\5.8.0\CMSIS\Core\Include\core_cm3.h:1512:5
	@APP
	@NO_APP
	.loc	6 1513 43                       @ C:/Users\P350\AppData\Local\Arm\Packs\ARM\CMSIS\5.8.0\CMSIS\Core\Include\core_cm3.h:1513:43
	str	r0, [r1]
	.loc	6 1514 5                        @ C:/Users\P350\AppData\Local\Arm\Packs\ARM\CMSIS\5.8.0\CMSIS\Core\Include\core_cm3.h:1514:5
	@APP
	@NO_APP
.Ltmp8:
.LBB0_3:
	.loc	3 41 1                          @ ../../../components/platform/soc/rt582/rt582_driver/Src/dma.c:41:1
	bx	lr
.Ltmp9:
.Lfunc_end0:
	.size	dma_register_isr, .Lfunc_end0-dma_register_isr
	.cfi_endproc
	.cantunwind
	.fnend
                                        @ -- End function
	.section	.text.dma_config,"ax",%progbits
	.hidden	dma_config                      @ -- Begin function dma_config
	.globl	dma_config
	.p2align	1
	.type	dma_config,%function
	.code	16                              @ @dma_config
	.thumb_func
dma_config:
.Lfunc_begin1:
	.loc	3 44 0                          @ ../../../components/platform/soc/rt582/rt582_driver/Src/dma.c:44:0
	.fnstart
	.cfi_startproc
@ %bb.0:
	@DEBUG_VALUE: dma_config:dma_channel_id <- $r0
	@DEBUG_VALUE: dma_config:mode <- $r1
	mov	r2, r0
	@DEBUG_VALUE: dma_config:mode <- $r1
.Ltmp10:
	@DEBUG_VALUE: dma_config:dma_channel_id <- $r2
	.loc	3 47 47 prologue_end            @ ../../../components/platform/soc/rt582/rt582_driver/Src/dma.c:47:47
	cmp	r0, #3
	mov.w	r0, #1
	bhi	.LBB1_3
.Ltmp11:
@ %bb.1:
	@DEBUG_VALUE: dma_config:dma_channel_id <- $r2
	@DEBUG_VALUE: dma_config:mode <- $r1
	cbz	r1, .LBB1_3
.Ltmp12:
@ %bb.2:
	@DEBUG_VALUE: dma_config:dma_channel_id <- $r2
	@DEBUG_VALUE: dma_config:mode <- $r1
	.save	{r7, lr}
	push	{r7, lr}
	.cfi_def_cfa_offset 8
	.cfi_offset lr, -4
	.cfi_offset r7, -8
	.loc	3 52 21                         @ ../../../components/platform/soc/rt582/rt582_driver/Src/dma.c:52:21
	movw	r0, :lower16:dma_addr
	movt	r0, :upper16:dma_addr
	ldr.w	r0, [r0, r2, lsl #2]
.Ltmp13:
	@DEBUG_VALUE: dma_config:DMA <- $r0
	.loc	3 54 27                         @ ../../../components/platform/soc/rt582/rt582_driver/Src/dma.c:54:27
	ldm.w	r1, {r2, r3, r12, lr}
.Ltmp14:
	.loc	3 54 19 is_stmt 0               @ ../../../components/platform/soc/rt582/rt582_driver/Src/dma.c:54:19
	str	r2, [r0]
	.loc	3 55 26 is_stmt 1               @ ../../../components/platform/soc/rt582/rt582_driver/Src/dma.c:55:26
	str	r3, [r0, #8]
	.loc	3 56 24                         @ ../../../components/platform/soc/rt582/rt582_driver/Src/dma.c:56:24
	str.w	r12, [r0, #12]
	.loc	3 57 23                         @ ../../../components/platform/soc/rt582/rt582_driver/Src/dma.c:57:23
	str.w	lr, [r0, #16]
	.loc	3 58 35                         @ ../../../components/platform/soc/rt582/rt582_driver/Src/dma.c:58:35
	ldr	r2, [r1, #16]
	.loc	3 58 27 is_stmt 0               @ ../../../components/platform/soc/rt582/rt582_driver/Src/dma.c:58:27
	str	r2, [r0, #44]
	.loc	3 60 32 is_stmt 1               @ ../../../components/platform/soc/rt582/rt582_driver/Src/dma.c:60:32
	ldr	r1, [r1, #20]
.Ltmp15:
	@DEBUG_VALUE: dma_config:mode <- [DW_OP_LLVM_entry_value 1] $r1
	.loc	3 60 24 is_stmt 0               @ ../../../components/platform/soc/rt582/rt582_driver/Src/dma.c:60:24
	str	r1, [r0, #28]
	movs	r0, #0
.Ltmp16:
	.loc	3 0 24                          @ ../../../components/platform/soc/rt582/rt582_driver/Src/dma.c:0:24
	pop.w	{r7, lr}
.Ltmp17:
.LBB1_3:
	.loc	3 64 1 is_stmt 1                @ ../../../components/platform/soc/rt582/rt582_driver/Src/dma.c:64:1
	bx	lr
.Ltmp18:
.Lfunc_end1:
	.size	dma_config, .Lfunc_end1-dma_config
	.cfi_endproc
	.cantunwind
	.fnend
                                        @ -- End function
	.section	.text.dma_enable,"ax",%progbits
	.hidden	dma_enable                      @ -- Begin function dma_enable
	.globl	dma_enable
	.p2align	1
	.type	dma_enable,%function
	.code	16                              @ @dma_enable
	.thumb_func
dma_enable:
.Lfunc_begin2:
	.loc	3 67 0                          @ ../../../components/platform/soc/rt582/rt582_driver/Src/dma.c:67:0
	.fnstart
	.cfi_startproc
@ %bb.0:
	@DEBUG_VALUE: dma_enable:dma_channel_id <- $r0
	@DEBUG_VALUE: dma_enable:dma_channel_id <- $r0
	.loc	3 70 9 prologue_end             @ ../../../components/platform/soc/rt582/rt582_driver/Src/dma.c:70:9
	cmp	r0, #3
	itt	hi
	movhi	r0, #1
.Ltmp19:
	@DEBUG_VALUE: dma_enable:dma_channel_id <- [DW_OP_LLVM_entry_value 1] $r0
	.loc	3 80 1                          @ ../../../components/platform/soc/rt582/rt582_driver/Src/dma.c:80:1
	bxhi	lr
.Ltmp20:
.LBB2_1:
	@DEBUG_VALUE: dma_enable:dma_channel_id <- [DW_OP_LLVM_entry_value 1] $r0
	.loc	3 75 21                         @ ../../../components/platform/soc/rt582/rt582_driver/Src/dma.c:75:21
	movw	r1, :lower16:dma_addr
	movt	r1, :upper16:dma_addr
	ldr.w	r0, [r1, r0, lsl #2]
.Ltmp21:
	@DEBUG_VALUE: dma_enable:DMA <- $r0
	.loc	3 77 21                         @ ../../../components/platform/soc/rt582/rt582_driver/Src/dma.c:77:21
	ldr	r1, [r0, #36]
	orr	r1, r1, #1
	str	r1, [r0, #36]
	movs	r0, #0
.Ltmp22:
	.loc	3 80 1                          @ ../../../components/platform/soc/rt582/rt582_driver/Src/dma.c:80:1
	bx	lr
.Ltmp23:
.Lfunc_end2:
	.size	dma_enable, .Lfunc_end2-dma_enable
	.cfi_endproc
	.cantunwind
	.fnend
                                        @ -- End function
	.section	.text.dma_set_link_list,"ax",%progbits
	.hidden	dma_set_link_list               @ -- Begin function dma_set_link_list
	.globl	dma_set_link_list
	.p2align	1
	.type	dma_set_link_list,%function
	.code	16                              @ @dma_set_link_list
	.thumb_func
dma_set_link_list:
.Lfunc_begin3:
	.loc	3 87 0                          @ ../../../components/platform/soc/rt582/rt582_driver/Src/dma.c:87:0
	.fnstart
	.cfi_startproc
@ %bb.0:
	@DEBUG_VALUE: dma_set_link_list:dma_channel_id <- $r0
	@DEBUG_VALUE: dma_set_link_list:dma_lli <- $r1
	@DEBUG_VALUE: dma_set_link_list:dma_int_enable <- $r2
	mov	r3, r0
	@DEBUG_VALUE: dma_set_link_list:dma_int_enable <- $r2
	@DEBUG_VALUE: dma_set_link_list:dma_lli <- $r1
.Ltmp24:
	@DEBUG_VALUE: dma_set_link_list:dma_channel_id <- $r3
	.loc	3 90 47 prologue_end            @ ../../../components/platform/soc/rt582/rt582_driver/Src/dma.c:90:47
	cmp	r0, #3
	mov.w	r0, #1
	bhi	.LBB3_3
.Ltmp25:
@ %bb.1:
	@DEBUG_VALUE: dma_set_link_list:dma_channel_id <- $r3
	@DEBUG_VALUE: dma_set_link_list:dma_int_enable <- $r2
	@DEBUG_VALUE: dma_set_link_list:dma_lli <- $r1
	cbz	r1, .LBB3_3
.Ltmp26:
@ %bb.2:
	@DEBUG_VALUE: dma_set_link_list:dma_channel_id <- $r3
	@DEBUG_VALUE: dma_set_link_list:dma_int_enable <- $r2
	@DEBUG_VALUE: dma_set_link_list:dma_lli <- $r1
	.loc	3 95 21                         @ ../../../components/platform/soc/rt582/rt582_driver/Src/dma.c:95:21
	movw	r0, :lower16:dma_addr
	movt	r0, :upper16:dma_addr
	ldr.w	r0, [r0, r3, lsl #2]
.Ltmp27:
	@DEBUG_VALUE: dma_set_link_list:DMA <- $r0
	.loc	3 97 26                         @ ../../../components/platform/soc/rt582/rt582_driver/Src/dma.c:97:26
	str	r1, [r0, #8]
	.loc	3 99 30                         @ ../../../components/platform/soc/rt582/rt582_driver/Src/dma.c:99:30
	ldr	r1, [r1, #12]
.Ltmp28:
	@DEBUG_VALUE: dma_set_link_list:dma_lli <- [DW_OP_LLVM_entry_value 1] $r1
	.loc	3 99 19 is_stmt 0               @ ../../../components/platform/soc/rt582/rt582_driver/Src/dma.c:99:19
	str	r1, [r0]
	.loc	3 102 24 is_stmt 1              @ ../../../components/platform/soc/rt582/rt582_driver/Src/dma.c:102:24
	str	r2, [r0, #28]
	movs	r0, #0
.Ltmp29:
.LBB3_3:
	@DEBUG_VALUE: dma_set_link_list:dma_channel_id <- $r3
	@DEBUG_VALUE: dma_set_link_list:dma_int_enable <- $r2
	.loc	3 105 1                         @ ../../../components/platform/soc/rt582/rt582_driver/Src/dma.c:105:1
	bx	lr
.Ltmp30:
.Lfunc_end3:
	.size	dma_set_link_list, .Lfunc_end3-dma_set_link_list
	.cfi_endproc
	.cantunwind
	.fnend
                                        @ -- End function
	.section	.text.create_dma_link_list,"ax",%progbits
	.hidden	create_dma_link_list            @ -- Begin function create_dma_link_list
	.globl	create_dma_link_list
	.p2align	1
	.type	create_dma_link_list,%function
	.code	16                              @ @create_dma_link_list
	.thumb_func
create_dma_link_list:
.Lfunc_begin4:
	.loc	3 120 0                         @ ../../../components/platform/soc/rt582/rt582_driver/Src/dma.c:120:0
	.fnstart
	.cfi_startproc
@ %bb.0:
	@DEBUG_VALUE: create_dma_link_list:dma_linklist_request <- $r0
	@DEBUG_VALUE: create_dma_link_list:dma_linklist_request <- $r0
	@DEBUG_VALUE: create_dma_link_list:entry_number <- $r1
	@DEBUG_VALUE: create_dma_link_list:entry_number <- $r1
	@DEBUG_VALUE: create_dma_link_list:DMA_link_list <- $r2
	@DEBUG_VALUE: create_dma_link_list:DMA_link_list <- $r2
	@DEBUG_VALUE: create_dma_link_list:control_mode <- $r3
	@DEBUG_VALUE: create_dma_link_list:control_mode <- $r3
	mov.w	r12, #1
.Ltmp31:
	.loc	3 125 40 prologue_end           @ ../../../components/platform/soc/rt582/rt582_driver/Src/dma.c:125:40
	cbz	r1, .LBB4_6
.Ltmp32:
@ %bb.1:
	@DEBUG_VALUE: create_dma_link_list:control_mode <- $r3
	@DEBUG_VALUE: create_dma_link_list:DMA_link_list <- $r2
	@DEBUG_VALUE: create_dma_link_list:entry_number <- $r1
	@DEBUG_VALUE: create_dma_link_list:dma_linklist_request <- $r0
	cbz	r0, .LBB4_6
.Ltmp33:
@ %bb.2:
	@DEBUG_VALUE: create_dma_link_list:control_mode <- $r3
	@DEBUG_VALUE: create_dma_link_list:DMA_link_list <- $r2
	@DEBUG_VALUE: create_dma_link_list:entry_number <- $r1
	@DEBUG_VALUE: create_dma_link_list:dma_linklist_request <- $r0
	cbz	r2, .LBB4_6
.Ltmp34:
@ %bb.3:
	@DEBUG_VALUE: create_dma_link_list:control_mode <- $r3
	@DEBUG_VALUE: create_dma_link_list:DMA_link_list <- $r2
	@DEBUG_VALUE: create_dma_link_list:entry_number <- $r1
	@DEBUG_VALUE: create_dma_link_list:dma_linklist_request <- $r0
	.save	{r4, r5, r6, lr}
	push	{r4, r5, r6, lr}
	.cfi_def_cfa_offset 16
	.cfi_offset lr, -4
	.cfi_offset r6, -8
	.cfi_offset r5, -12
	.cfi_offset r4, -16
.Ltmp35:
	.loc	3 133 5                         @ ../../../components/platform/soc/rt582/rt582_driver/Src/dma.c:133:5
	add.w	r12, r2, #32
	mov.w	lr, #0
.Ltmp36:
	.p2align	2
.LBB4_4:                                @ =>This Inner Loop Header: Depth=1
	@DEBUG_VALUE: create_dma_link_list:control_mode <- $r3
	.loc	3 0 5 is_stmt 0                 @ ../../../components/platform/soc/rt582/rt582_driver/Src/dma.c:0:5
	mov	r4, r2
.Ltmp37:
	@DEBUG_VALUE: create_dma_link_list:DMA_link_list <- $r4
	@DEBUG_VALUE: create_dma_link_list:cur_DMA_link_list <- $r4
	@DEBUG_VALUE: create_dma_link_list:cur_dma_list <- $r0
	@DEBUG_VALUE: create_dma_link_list:i <- undef
	.loc	3 135 65 is_stmt 1              @ ../../../components/platform/soc/rt582/rt582_driver/Src/dma.c:135:65
	ldr	r2, [r0]
	.loc	3 136 65                        @ ../../../components/platform/soc/rt582/rt582_driver/Src/dma.c:136:65
	ldr	r5, [r0, #4]
	.loc	3 137 60                        @ ../../../components/platform/soc/rt582/rt582_driver/Src/dma.c:137:60
	ldr	r6, [r0, #8]
.Ltmp38:
	@DEBUG_VALUE: create_dma_link_list:cur_DMA_link_list <- [DW_OP_plus_uconst 32, DW_OP_stack_value] $r4
	@DEBUG_VALUE: create_dma_link_list:cur_dma_list <- [DW_OP_plus_uconst 12, DW_OP_stack_value] $r0
	@DEBUG_VALUE: create_dma_link_list:i <- [DW_OP_plus_uconst 1, DW_OP_stack_value] undef
	.loc	3 135 38                        @ ../../../components/platform/soc/rt582/rt582_driver/Src/dma.c:135:38
	stm.w	r4, {r2, r5, r6}
	.loc	3 138 40                        @ ../../../components/platform/soc/rt582/rt582_driver/Src/dma.c:138:40
	add.w	r2, r4, #12
	stm.w	r2, {r3, r12, lr}
.Ltmp39:
	.loc	3 133 19                        @ ../../../components/platform/soc/rt582/rt582_driver/Src/dma.c:133:19
	subs	r1, #1
.Ltmp40:
	@DEBUG_VALUE: create_dma_link_list:entry_number <- [DW_OP_LLVM_entry_value 1] $r1
	add.w	r12, r12, #32
.Ltmp41:
	.loc	3 133 5 is_stmt 0               @ ../../../components/platform/soc/rt582/rt582_driver/Src/dma.c:133:5
	add.w	r0, r0, #12
.Ltmp42:
	@DEBUG_VALUE: create_dma_link_list:dma_linklist_request <- [DW_OP_LLVM_entry_value 1] $r0
	add.w	r2, r4, #32
.Ltmp43:
	.loc	3 144 39 is_stmt 1              @ ../../../components/platform/soc/rt582/rt582_driver/Src/dma.c:144:39
	strd	lr, lr, [r4, #24]
.Ltmp44:
	.loc	3 133 5                         @ ../../../components/platform/soc/rt582/rt582_driver/Src/dma.c:133:5
	bne	.LBB4_4
.Ltmp45:
@ %bb.5:
	@DEBUG_VALUE: create_dma_link_list:cur_DMA_link_list <- [DW_OP_plus_uconst 32, DW_OP_stack_value] $r4
	@DEBUG_VALUE: create_dma_link_list:control_mode <- $r3
	@DEBUG_VALUE: create_dma_link_list:cur_DMA_link_list <- [DW_OP_plus_uconst 32, DW_OP_constu 32, DW_OP_minus, DW_OP_stack_value] $r4
	.loc	3 0 5 is_stmt 0                 @ ../../../components/platform/soc/rt582/rt582_driver/Src/dma.c:0:5
	mov.w	r0, #-1
	mov.w	r12, #0
	.loc	3 155 38 is_stmt 1              @ ../../../components/platform/soc/rt582/rt582_driver/Src/dma.c:155:38
	str	r0, [r4, #16]
	pop.w	{r4, r5, r6, lr}
.Ltmp46:
	@DEBUG_VALUE: create_dma_link_list:DMA_link_list <- [DW_OP_LLVM_entry_value 1] $r2
.LBB4_6:
	@DEBUG_VALUE: create_dma_link_list:control_mode <- $r3
	.loc	3 158 1                         @ ../../../components/platform/soc/rt582/rt582_driver/Src/dma.c:158:1
	mov	r0, r12
	bx	lr
.Ltmp47:
.Lfunc_end4:
	.size	create_dma_link_list, .Lfunc_end4-create_dma_link_list
	.cfi_endproc
	.cantunwind
	.fnend
                                        @ -- End function
	.section	.text.dma_get_status,"ax",%progbits
	.hidden	dma_get_status                  @ -- Begin function dma_get_status
	.globl	dma_get_status
	.p2align	1
	.type	dma_get_status,%function
	.code	16                              @ @dma_get_status
	.thumb_func
dma_get_status:
.Lfunc_begin5:
	.loc	3 161 0                         @ ../../../components/platform/soc/rt582/rt582_driver/Src/dma.c:161:0
	.fnstart
	.cfi_startproc
@ %bb.0:
	@DEBUG_VALUE: dma_get_status:dma_channel_id <- $r0
	@DEBUG_VALUE: dma_get_status:status <- $r1
	mov	r2, r0
	@DEBUG_VALUE: dma_get_status:status <- $r1
.Ltmp48:
	@DEBUG_VALUE: dma_get_status:dma_channel_id <- $r2
	.loc	3 164 47 prologue_end           @ ../../../components/platform/soc/rt582/rt582_driver/Src/dma.c:164:47
	cmp	r0, #3
	mov.w	r0, #1
	bhi	.LBB5_3
.Ltmp49:
@ %bb.1:
	@DEBUG_VALUE: dma_get_status:dma_channel_id <- $r2
	@DEBUG_VALUE: dma_get_status:status <- $r1
	cbz	r1, .LBB5_3
.Ltmp50:
@ %bb.2:
	@DEBUG_VALUE: dma_get_status:dma_channel_id <- $r2
	@DEBUG_VALUE: dma_get_status:status <- $r1
	.loc	3 169 21                        @ ../../../components/platform/soc/rt582/rt582_driver/Src/dma.c:169:21
	movw	r0, :lower16:dma_addr
	movt	r0, :upper16:dma_addr
	ldr.w	r0, [r0, r2, lsl #2]
.Ltmp51:
	@DEBUG_VALUE: dma_get_status:DMA <- $r0
	.loc	3 171 21                        @ ../../../components/platform/soc/rt582/rt582_driver/Src/dma.c:171:21
	ldr	r0, [r0, #4]
.Ltmp52:
	.loc	3 171 32 is_stmt 0              @ ../../../components/platform/soc/rt582/rt582_driver/Src/dma.c:171:32
	and	r0, r0, #15
	.loc	3 171 13                        @ ../../../components/platform/soc/rt582/rt582_driver/Src/dma.c:171:13
	str	r0, [r1]
	movs	r0, #0
.Ltmp53:
.LBB5_3:
	@DEBUG_VALUE: dma_get_status:dma_channel_id <- $r2
	@DEBUG_VALUE: dma_get_status:status <- $r1
	.loc	3 174 1 is_stmt 1               @ ../../../components/platform/soc/rt582/rt582_driver/Src/dma.c:174:1
	bx	lr
.Ltmp54:
.Lfunc_end5:
	.size	dma_get_status, .Lfunc_end5-dma_get_status
	.cfi_endproc
	.cantunwind
	.fnend
                                        @ -- End function
	.section	.text.dma_get_repeatstatus,"ax",%progbits
	.hidden	dma_get_repeatstatus            @ -- Begin function dma_get_repeatstatus
	.globl	dma_get_repeatstatus
	.p2align	1
	.type	dma_get_repeatstatus,%function
	.code	16                              @ @dma_get_repeatstatus
	.thumb_func
dma_get_repeatstatus:
.Lfunc_begin6:
	.loc	3 177 0                         @ ../../../components/platform/soc/rt582/rt582_driver/Src/dma.c:177:0
	.fnstart
	.cfi_startproc
@ %bb.0:
	@DEBUG_VALUE: dma_get_repeatstatus:dma_channel_id <- $r0
	@DEBUG_VALUE: dma_get_repeatstatus:status <- $r1
	mov	r2, r0
	@DEBUG_VALUE: dma_get_repeatstatus:status <- $r1
.Ltmp55:
	@DEBUG_VALUE: dma_get_repeatstatus:dma_channel_id <- $r2
	.loc	3 180 47 prologue_end           @ ../../../components/platform/soc/rt582/rt582_driver/Src/dma.c:180:47
	cmp	r0, #3
	mov.w	r0, #1
	bhi	.LBB6_3
.Ltmp56:
@ %bb.1:
	@DEBUG_VALUE: dma_get_repeatstatus:dma_channel_id <- $r2
	@DEBUG_VALUE: dma_get_repeatstatus:status <- $r1
	cbz	r1, .LBB6_3
.Ltmp57:
@ %bb.2:
	@DEBUG_VALUE: dma_get_repeatstatus:dma_channel_id <- $r2
	@DEBUG_VALUE: dma_get_repeatstatus:status <- $r1
	.loc	3 185 21                        @ ../../../components/platform/soc/rt582/rt582_driver/Src/dma.c:185:21
	movw	r0, :lower16:dma_addr
	movt	r0, :upper16:dma_addr
	ldr.w	r0, [r0, r2, lsl #2]
.Ltmp58:
	@DEBUG_VALUE: dma_get_repeatstatus:DMA <- $r0
	.loc	3 187 21                        @ ../../../components/platform/soc/rt582/rt582_driver/Src/dma.c:187:21
	ldr	r0, [r0, #48]
.Ltmp59:
	.loc	3 187 13 is_stmt 0              @ ../../../components/platform/soc/rt582/rt582_driver/Src/dma.c:187:13
	str	r0, [r1]
	movs	r0, #0
.Ltmp60:
.LBB6_3:
	@DEBUG_VALUE: dma_get_repeatstatus:dma_channel_id <- $r2
	@DEBUG_VALUE: dma_get_repeatstatus:status <- $r1
	.loc	3 190 1 is_stmt 1               @ ../../../components/platform/soc/rt582/rt582_driver/Src/dma.c:190:1
	bx	lr
.Ltmp61:
.Lfunc_end6:
	.size	dma_get_repeatstatus, .Lfunc_end6-dma_get_repeatstatus
	.cfi_endproc
	.cantunwind
	.fnend
                                        @ -- End function
	.section	.text.dma_finish,"ax",%progbits
	.hidden	dma_finish                      @ -- Begin function dma_finish
	.globl	dma_finish
	.p2align	1
	.type	dma_finish,%function
	.code	16                              @ @dma_finish
	.thumb_func
dma_finish:
.Lfunc_begin7:
	.loc	3 193 0                         @ ../../../components/platform/soc/rt582/rt582_driver/Src/dma.c:193:0
	.fnstart
	.cfi_startproc
@ %bb.0:
	@DEBUG_VALUE: dma_finish:dma_channel_id <- $r0
	@DEBUG_VALUE: dma_finish:dma_channel_id <- $r0
	.loc	3 196 9 prologue_end            @ ../../../components/platform/soc/rt582/rt582_driver/Src/dma.c:196:9
	cmp	r0, #3
	itt	hi
	movhi	r0, #1
.Ltmp62:
	@DEBUG_VALUE: dma_finish:dma_channel_id <- [DW_OP_LLVM_entry_value 1] $r0
	.loc	3 208 1                         @ ../../../components/platform/soc/rt582/rt582_driver/Src/dma.c:208:1
	bxhi	lr
.Ltmp63:
.LBB7_1:
	@DEBUG_VALUE: dma_finish:dma_channel_id <- [DW_OP_LLVM_entry_value 1] $r0
	.loc	3 201 21                        @ ../../../components/platform/soc/rt582/rt582_driver/Src/dma.c:201:21
	movw	r1, :lower16:dma_addr
	movt	r1, :upper16:dma_addr
	ldr.w	r0, [r1, r0, lsl #2]
	movs	r1, #15
.Ltmp64:
	@DEBUG_VALUE: dma_finish:DMA <- $r0
	.loc	3 203 25                        @ ../../../components/platform/soc/rt582/rt582_driver/Src/dma.c:203:25
	str	r1, [r0, #32]
	.loc	3 205 21                        @ ../../../components/platform/soc/rt582/rt582_driver/Src/dma.c:205:21
	ldr	r1, [r0, #36]
	bic	r1, r1, #1
	str	r1, [r0, #36]
	movs	r0, #0
.Ltmp65:
	.loc	3 208 1                         @ ../../../components/platform/soc/rt582/rt582_driver/Src/dma.c:208:1
	bx	lr
.Ltmp66:
.Lfunc_end7:
	.size	dma_finish, .Lfunc_end7-dma_finish
	.cfi_endproc
	.cantunwind
	.fnend
                                        @ -- End function
	.section	.text.dma_init,"ax",%progbits
	.hidden	dma_init                        @ -- Begin function dma_init
	.globl	dma_init
	.p2align	1
	.type	dma_init,%function
	.code	16                              @ @dma_init
	.thumb_func
dma_init:
.Lfunc_begin8:
	.loc	3 212 0                         @ ../../../components/platform/soc/rt582/rt582_driver/Src/dma.c:212:0
	.fnstart
	.cfi_startproc
@ %bb.0:
	movw	r1, :lower16:dma_addr
	movs	r0, #0
.Ltmp67:
	@DEBUG_VALUE: dma_init:i <- 0
	movt	r1, :upper16:dma_addr
.Ltmp68:
	.p2align	2
.LBB8_1:                                @ =>This Inner Loop Header: Depth=1
	@DEBUG_VALUE: dma_init:i <- $r0
	.loc	3 218 25 prologue_end           @ ../../../components/platform/soc/rt582/rt582_driver/Src/dma.c:218:25
	ldr.w	r2, [r1, r0, lsl #2]
.Ltmp69:
	@DEBUG_VALUE: dma_init:DMA <- $r2
	.loc	3 216 41                        @ ../../../components/platform/soc/rt582/rt582_driver/Src/dma.c:216:41
	adds	r0, #1
.Ltmp70:
	@DEBUG_VALUE: dma_init:i <- $r0
	.loc	3 220 25                        @ ../../../components/platform/soc/rt582/rt582_driver/Src/dma.c:220:25
	ldr	r3, [r2, #36]
.Ltmp71:
	.loc	3 216 5                         @ ../../../components/platform/soc/rt582/rt582_driver/Src/dma.c:216:5
	cmp	r0, #4
.Ltmp72:
	.loc	3 220 25                        @ ../../../components/platform/soc/rt582/rt582_driver/Src/dma.c:220:25
	orr	r3, r3, #2
	str	r3, [r2, #36]
.Ltmp73:
	.loc	3 216 5                         @ ../../../components/platform/soc/rt582/rt582_driver/Src/dma.c:216:5
	bne	.LBB8_1
.Ltmp74:
@ %bb.2:
	@DEBUG_VALUE: dma_init:DMA <- $r2
	@DEBUG_VALUE: dma_init:i <- $r0
	.loc	3 223 5                         @ ../../../components/platform/soc/rt582/rt582_driver/Src/dma.c:223:5
	movs	r0, #0
.Ltmp75:
	bx	lr
.Ltmp76:
.Lfunc_end8:
	.size	dma_init, .Lfunc_end8-dma_init
	.cfi_endproc
	.cantunwind
	.fnend
                                        @ -- End function
	.section	.text.dma0_c0_handler,"ax",%progbits
	.hidden	dma0_c0_handler                 @ -- Begin function dma0_c0_handler
	.globl	dma0_c0_handler
	.p2align	1
	.type	dma0_c0_handler,%function
	.code	16                              @ @dma0_c0_handler
	.thumb_func
dma0_c0_handler:
.Lfunc_begin9:
	.loc	3 255 0                         @ ../../../components/platform/soc/rt582/rt582_driver/Src/dma.c:255:0
	.fnstart
	.cfi_startproc
@ %bb.0:
	movs	r0, #4
	movt	r0, #49152
.Ltmp77:
	@DEBUG_VALUE: dma_isr_handle:dma_channel_id <- 0
	.loc	3 233 19 prologue_end           @ ../../../components/platform/soc/rt582/rt582_driver/Src/dma.c:233:19
	ldr	r1, [r0]
.Ltmp78:
	@DEBUG_VALUE: dma_isr_handle:status <- $r1
	.loc	3 236 9                         @ ../../../components/platform/soc/rt582/rt582_driver/Src/dma.c:236:9
	lsls	r2, r1, #31
.Ltmp79:
	@DEBUG_VALUE: dma_isr_handle:DMA <- undef
	.loc	3 234 25                        @ ../../../components/platform/soc/rt582/rt582_driver/Src/dma.c:234:25
	str	r1, [r0, #28]
	.loc	3 236 9                         @ ../../../components/platform/soc/rt582/rt582_driver/Src/dma.c:236:9
	beq	.LBB9_2
.Ltmp80:
@ %bb.1:
	@DEBUG_VALUE: dma_isr_handle:status <- $r1
	@DEBUG_VALUE: dma_isr_handle:dma_channel_id <- 0
	.loc	3 242 25                        @ ../../../components/platform/soc/rt582/rt582_driver/Src/dma.c:242:25
	ldr	r2, [r0, #32]
	bic	r2, r2, #1
	str	r2, [r0, #32]
.Ltmp81:
.LBB9_2:
	@DEBUG_VALUE: dma_isr_handle:status <- $r1
	@DEBUG_VALUE: dma_isr_handle:dma_channel_id <- 0
	.loc	3 245 9                         @ ../../../components/platform/soc/rt582/rt582_driver/Src/dma.c:245:9
	movw	r0, :lower16:dma_usr_isr_cb
	movt	r0, :upper16:dma_usr_isr_cb
	ldr	r2, [r0]
.Ltmp82:
	.loc	3 245 9 is_stmt 0               @ ../../../components/platform/soc/rt582/rt582_driver/Src/dma.c:245:9
	cbz	r2, .LBB9_4
.Ltmp83:
@ %bb.3:
	@DEBUG_VALUE: dma_isr_handle:status <- $r1
	@DEBUG_VALUE: dma_isr_handle:dma_channel_id <- 0
	.loc	3 247 9 is_stmt 1               @ ../../../components/platform/soc/rt582/rt582_driver/Src/dma.c:247:9
	movs	r0, #0
.Ltmp84:
	bx	r2
.Ltmp85:
.LBB9_4:
	.loc	3 257 5                         @ ../../../components/platform/soc/rt582/rt582_driver/Src/dma.c:257:5
	bx	lr
.Ltmp86:
.Lfunc_end9:
	.size	dma0_c0_handler, .Lfunc_end9-dma0_c0_handler
	.cfi_endproc
	.cantunwind
	.fnend
                                        @ -- End function
	.section	.text.dma0_c1_handler,"ax",%progbits
	.hidden	dma0_c1_handler                 @ -- Begin function dma0_c1_handler
	.globl	dma0_c1_handler
	.p2align	1
	.type	dma0_c1_handler,%function
	.code	16                              @ @dma0_c1_handler
	.thumb_func
dma0_c1_handler:
.Lfunc_begin10:
	.loc	3 261 0                         @ ../../../components/platform/soc/rt582/rt582_driver/Src/dma.c:261:0
	.fnstart
	.cfi_startproc
@ %bb.0:
	movw	r0, #260
	movt	r0, #49152
.Ltmp87:
	@DEBUG_VALUE: dma_isr_handle:dma_channel_id <- 1
	.loc	3 233 19 prologue_end           @ ../../../components/platform/soc/rt582/rt582_driver/Src/dma.c:233:19
	ldr	r1, [r0]
.Ltmp88:
	@DEBUG_VALUE: dma_isr_handle:status <- $r1
	.loc	3 236 9                         @ ../../../components/platform/soc/rt582/rt582_driver/Src/dma.c:236:9
	lsls	r2, r1, #31
.Ltmp89:
	@DEBUG_VALUE: dma_isr_handle:DMA <- undef
	.loc	3 234 25                        @ ../../../components/platform/soc/rt582/rt582_driver/Src/dma.c:234:25
	str	r1, [r0, #28]
	.loc	3 236 9                         @ ../../../components/platform/soc/rt582/rt582_driver/Src/dma.c:236:9
	beq	.LBB10_2
.Ltmp90:
@ %bb.1:
	@DEBUG_VALUE: dma_isr_handle:status <- $r1
	@DEBUG_VALUE: dma_isr_handle:dma_channel_id <- 1
	.loc	3 242 25                        @ ../../../components/platform/soc/rt582/rt582_driver/Src/dma.c:242:25
	ldr	r2, [r0, #32]
	bic	r2, r2, #1
	str	r2, [r0, #32]
.Ltmp91:
.LBB10_2:
	@DEBUG_VALUE: dma_isr_handle:status <- $r1
	@DEBUG_VALUE: dma_isr_handle:dma_channel_id <- 1
	.loc	3 245 9                         @ ../../../components/platform/soc/rt582/rt582_driver/Src/dma.c:245:9
	movw	r0, :lower16:dma_usr_isr_cb
	movt	r0, :upper16:dma_usr_isr_cb
	ldr	r2, [r0, #4]
.Ltmp92:
	.loc	3 245 9 is_stmt 0               @ ../../../components/platform/soc/rt582/rt582_driver/Src/dma.c:245:9
	cbz	r2, .LBB10_4
.Ltmp93:
@ %bb.3:
	@DEBUG_VALUE: dma_isr_handle:status <- $r1
	@DEBUG_VALUE: dma_isr_handle:dma_channel_id <- 1
	.loc	3 247 9 is_stmt 1               @ ../../../components/platform/soc/rt582/rt582_driver/Src/dma.c:247:9
	movs	r0, #1
.Ltmp94:
	bx	r2
.Ltmp95:
.LBB10_4:
	.loc	3 263 5                         @ ../../../components/platform/soc/rt582/rt582_driver/Src/dma.c:263:5
	bx	lr
.Ltmp96:
.Lfunc_end10:
	.size	dma0_c1_handler, .Lfunc_end10-dma0_c1_handler
	.cfi_endproc
	.cantunwind
	.fnend
                                        @ -- End function
	.section	.text.dma0_c2_handler,"ax",%progbits
	.hidden	dma0_c2_handler                 @ -- Begin function dma0_c2_handler
	.globl	dma0_c2_handler
	.p2align	1
	.type	dma0_c2_handler,%function
	.code	16                              @ @dma0_c2_handler
	.thumb_func
dma0_c2_handler:
.Lfunc_begin11:
	.loc	3 267 0                         @ ../../../components/platform/soc/rt582/rt582_driver/Src/dma.c:267:0
	.fnstart
	.cfi_startproc
@ %bb.0:
	movw	r0, #516
	movt	r0, #49152
.Ltmp97:
	@DEBUG_VALUE: dma_isr_handle:dma_channel_id <- 2
	.loc	3 233 19 prologue_end           @ ../../../components/platform/soc/rt582/rt582_driver/Src/dma.c:233:19
	ldr	r1, [r0]
.Ltmp98:
	@DEBUG_VALUE: dma_isr_handle:status <- $r1
	.loc	3 236 9                         @ ../../../components/platform/soc/rt582/rt582_driver/Src/dma.c:236:9
	lsls	r2, r1, #31
.Ltmp99:
	@DEBUG_VALUE: dma_isr_handle:DMA <- undef
	.loc	3 234 25                        @ ../../../components/platform/soc/rt582/rt582_driver/Src/dma.c:234:25
	str	r1, [r0, #28]
	.loc	3 236 9                         @ ../../../components/platform/soc/rt582/rt582_driver/Src/dma.c:236:9
	beq	.LBB11_2
.Ltmp100:
@ %bb.1:
	@DEBUG_VALUE: dma_isr_handle:status <- $r1
	@DEBUG_VALUE: dma_isr_handle:dma_channel_id <- 2
	.loc	3 242 25                        @ ../../../components/platform/soc/rt582/rt582_driver/Src/dma.c:242:25
	ldr	r2, [r0, #32]
	bic	r2, r2, #1
	str	r2, [r0, #32]
.Ltmp101:
.LBB11_2:
	@DEBUG_VALUE: dma_isr_handle:status <- $r1
	@DEBUG_VALUE: dma_isr_handle:dma_channel_id <- 2
	.loc	3 245 9                         @ ../../../components/platform/soc/rt582/rt582_driver/Src/dma.c:245:9
	movw	r0, :lower16:dma_usr_isr_cb
	movt	r0, :upper16:dma_usr_isr_cb
	ldr	r2, [r0, #8]
.Ltmp102:
	.loc	3 245 9 is_stmt 0               @ ../../../components/platform/soc/rt582/rt582_driver/Src/dma.c:245:9
	cbz	r2, .LBB11_4
.Ltmp103:
@ %bb.3:
	@DEBUG_VALUE: dma_isr_handle:status <- $r1
	@DEBUG_VALUE: dma_isr_handle:dma_channel_id <- 2
	.loc	3 247 9 is_stmt 1               @ ../../../components/platform/soc/rt582/rt582_driver/Src/dma.c:247:9
	movs	r0, #2
.Ltmp104:
	bx	r2
.Ltmp105:
.LBB11_4:
	.loc	3 269 5                         @ ../../../components/platform/soc/rt582/rt582_driver/Src/dma.c:269:5
	bx	lr
.Ltmp106:
.Lfunc_end11:
	.size	dma0_c2_handler, .Lfunc_end11-dma0_c2_handler
	.cfi_endproc
	.cantunwind
	.fnend
                                        @ -- End function
	.section	.text.dma0_c3_handler,"ax",%progbits
	.hidden	dma0_c3_handler                 @ -- Begin function dma0_c3_handler
	.globl	dma0_c3_handler
	.p2align	1
	.type	dma0_c3_handler,%function
	.code	16                              @ @dma0_c3_handler
	.thumb_func
dma0_c3_handler:
.Lfunc_begin12:
	.loc	3 273 0                         @ ../../../components/platform/soc/rt582/rt582_driver/Src/dma.c:273:0
	.fnstart
	.cfi_startproc
@ %bb.0:
	movw	r0, #772
	movt	r0, #49152
.Ltmp107:
	@DEBUG_VALUE: dma_isr_handle:dma_channel_id <- 3
	.loc	3 233 19 prologue_end           @ ../../../components/platform/soc/rt582/rt582_driver/Src/dma.c:233:19
	ldr	r1, [r0]
.Ltmp108:
	@DEBUG_VALUE: dma_isr_handle:status <- $r1
	.loc	3 236 9                         @ ../../../components/platform/soc/rt582/rt582_driver/Src/dma.c:236:9
	lsls	r2, r1, #31
.Ltmp109:
	@DEBUG_VALUE: dma_isr_handle:DMA <- undef
	.loc	3 234 25                        @ ../../../components/platform/soc/rt582/rt582_driver/Src/dma.c:234:25
	str	r1, [r0, #28]
	.loc	3 236 9                         @ ../../../components/platform/soc/rt582/rt582_driver/Src/dma.c:236:9
	beq	.LBB12_2
.Ltmp110:
@ %bb.1:
	@DEBUG_VALUE: dma_isr_handle:status <- $r1
	@DEBUG_VALUE: dma_isr_handle:dma_channel_id <- 3
	.loc	3 242 25                        @ ../../../components/platform/soc/rt582/rt582_driver/Src/dma.c:242:25
	ldr	r2, [r0, #32]
	bic	r2, r2, #1
	str	r2, [r0, #32]
.Ltmp111:
.LBB12_2:
	@DEBUG_VALUE: dma_isr_handle:status <- $r1
	@DEBUG_VALUE: dma_isr_handle:dma_channel_id <- 3
	.loc	3 245 9                         @ ../../../components/platform/soc/rt582/rt582_driver/Src/dma.c:245:9
	movw	r0, :lower16:dma_usr_isr_cb
	movt	r0, :upper16:dma_usr_isr_cb
	ldr	r2, [r0, #12]
.Ltmp112:
	.loc	3 245 9 is_stmt 0               @ ../../../components/platform/soc/rt582/rt582_driver/Src/dma.c:245:9
	cbz	r2, .LBB12_4
.Ltmp113:
@ %bb.3:
	@DEBUG_VALUE: dma_isr_handle:status <- $r1
	@DEBUG_VALUE: dma_isr_handle:dma_channel_id <- 3
	.loc	3 247 9 is_stmt 1               @ ../../../components/platform/soc/rt582/rt582_driver/Src/dma.c:247:9
	movs	r0, #3
.Ltmp114:
	bx	r2
.Ltmp115:
.LBB12_4:
	.loc	3 275 5                         @ ../../../components/platform/soc/rt582/rt582_driver/Src/dma.c:275:5
	bx	lr
.Ltmp116:
.Lfunc_end12:
	.size	dma0_c3_handler, .Lfunc_end12-dma0_c3_handler
	.cfi_endproc
	.cantunwind
	.fnend
                                        @ -- End function
	.type	dma_addr,%object                @ @dma_addr
	.section	.rodata.cst16,"aM",%progbits,16
	.p2align	2
dma_addr:
	.long	3221225472                      @ 0xc0000000
	.long	3221225728                      @ 0xc0000100
	.long	3221225984                      @ 0xc0000200
	.long	3221226240                      @ 0xc0000300
	.size	dma_addr, 16

	.type	dma_usr_isr_cb,%object          @ @dma_usr_isr_cb
	.section	.bss.dma_usr_isr_cb,"aw",%nobits
	.p2align	2
dma_usr_isr_cb:
	.zero	16
	.size	dma_usr_isr_cb, 16

	.section	".note.GNU-stack","",%progbits
	.eabi_attribute	30, 3	@ Tag_ABI_optimization_goals
	.ARM_attribute	16, 1	@ Tag_AV_eba