	.text
	.syntax unified
	.eabi_attribute	67, "2.09"	@ Tag_conformance
	.cpu	cortex-m3
	.eabi_attribute	6, 10	@ Tag_CPU_arch
	.eabi_attribute	7, 77	@ Tag_CPU_arch_profile
	.eabi_attribute	8, 0	@ Tag_ARM_ISA_use
	.eabi_attribute	9, 2	@ Tag_THUMB_ISA_use
	.eabi_attribute	34, 1	@ Tag_CPU_unaligned_access
	.eabi_attribute	17, 1	@ Tag_ABI_PCS_GOT_use
	.eabi_attribute	20, 2	@ Tag_ABI_FP_denormal
	.eabi_attribute	21, 0	@ Tag_ABI_FP_exceptions
	.eabi_attribute	23, 1	@ Tag_ABI_FP_number_model
	.eabi_attribute	24, 1	@ Tag_ABI_align_needed
	.eabi_attribute	25, 1	@ Tag_ABI_align_preserved
	.eabi_attribute	38, 1	@ Tag_ABI_FP_16bit_format
	.eabi_attribute	18, 4	@ Tag_ABI_PCS_wchar_t
	.eabi_attribute	26, 2	@ Tag_ABI_enum_size
	.eabi_attribute	14, 0	@ Tag_ABI_PCS_R9_use
	.file	"ecp_curves.c"
	.file	1 "C:\\Keil_v5\\ARM\\ARMCLANG\\Bin\\..\\include" "stdint.h"
	.file	2 "D:\\20240115\\rafael-iot-sdk-das\\examples\\das_subg_thread\\keil" "../../../components/network/thread/subg_openthread/third_party/mbedtls/repo/include\\mbedtls/bignum.h"
	.file	3 "D:\\20240115\\rafael-iot-sdk-das\\examples\\das_subg_thread\\keil" "../../../components/network/thread/subg_openthread/third_party/mbedtls/repo/library/ecp_curves.c"
	.file	4 "D:\\20240115\\rafael-iot-sdk-das\\examples\\das_subg_thread\\keil" "../../../components/network/thread/subg_openthread/third_party/mbedtls/repo/include\\mbedtls/ecp.h"
	.section	.text.mbedtls_ecp_group_load,"ax",%progbits
	.hidden	mbedtls_ecp_group_load          @ -- Begin function mbedtls_ecp_group_load
	.globl	mbedtls_ecp_group_load
	.p2align	1
	.type	mbedtls_ecp_group_load,%function
	.code	16                              @ @mbedtls_ecp_group_load
	.thumb_func
mbedtls_ecp_group_load:
.Lfunc_begin0:
	.loc	3 754 0                         @ ../../../components/network/thread/subg_openthread/third_party/mbedtls/repo/library/ecp_curves.c:754:0
	.fnstart
	.cfi_sections .debug_frame
	.cfi_startproc
@ %bb.0:
	@DEBUG_VALUE: mbedtls_ecp_group_load:grp <- $r0
	@DEBUG_VALUE: mbedtls_ecp_group_load:id <- $r1
	.save	{r4, r5, r6, lr}
	push	{r4, r5, r6, lr}
	.cfi_def_cfa_offset 16
	.cfi_offset lr, -4
	.cfi_offset r6, -8
	.cfi_offset r5, -12
	.cfi_offset r4, -16
	mov	r5, r1
.Ltmp0:
	@DEBUG_VALUE: mbedtls_ecp_group_load:id <- $r5
	mov	r4, r0
	@DEBUG_VALUE: mbedtls_ecp_group_load:id <- $r5
.Ltmp1:
	@DEBUG_VALUE: mbedtls_ecp_group_load:grp <- $r4
	.loc	3 756 5 prologue_end            @ ../../../components/network/thread/subg_openthread/third_party/mbedtls/repo/library/ecp_curves.c:756:5
	bl	mbedtls_ecp_group_free
.Ltmp2:
	.loc	3 760 5                         @ ../../../components/network/thread/subg_openthread/third_party/mbedtls/repo/library/ecp_curves.c:760:5
	cmp	r5, #3
	.loc	3 758 13                        @ ../../../components/network/thread/subg_openthread/third_party/mbedtls/repo/library/ecp_curves.c:758:13
	str	r5, [r4]
	.loc	3 760 5                         @ ../../../components/network/thread/subg_openthread/third_party/mbedtls/repo/library/ecp_curves.c:760:5
	bne	.LBB0_2
.Ltmp3:
@ %bb.1:
	@DEBUG_VALUE: mbedtls_ecp_group_load:id <- $r5
	@DEBUG_VALUE: mbedtls_ecp_group_load:grp <- $r4
	.loc	3 776 13                        @ ../../../components/network/thread/subg_openthread/third_party/mbedtls/repo/library/ecp_curves.c:776:13
	movw	r0, :lower16:ecp_mod_p256
	movs	r6, #1
.Ltmp4:
	@DEBUG_VALUE: ecp_mpi_load:len <- 32
	@DEBUG_VALUE: ecp_group_load:nlen <- 32
	@DEBUG_VALUE: ecp_group_load:gylen <- 32
	@DEBUG_VALUE: ecp_group_load:gxlen <- 32
	@DEBUG_VALUE: ecp_group_load:blen <- 32
	@DEBUG_VALUE: ecp_group_load:alen <- 0
	@DEBUG_VALUE: ecp_group_load:a <- 0
	@DEBUG_VALUE: ecp_group_load:plen <- 32
	@DEBUG_VALUE: ecp_group_load:grp <- $r4
	movt	r0, :upper16:ecp_mod_p256
.Ltmp5:
	.loc	3 545 10                        @ ../../../components/network/thread/subg_openthread/third_party/mbedtls/repo/library/ecp_curves.c:545:10
	str	r6, [r4, #4]!
.Ltmp6:
	@DEBUG_VALUE: ecp_mpi_load:X <- $r4
	.loc	3 547 10                        @ ../../../components/network/thread/subg_openthread/third_party/mbedtls/repo/library/ecp_curves.c:547:10
	movw	r1, :lower16:secp256r1_p
.Ltmp7:
	.loc	3 776 13                        @ ../../../components/network/thread/subg_openthread/third_party/mbedtls/repo/library/ecp_curves.c:776:13
	str	r0, [r4, #96]
	movs	r0, #8
.Ltmp8:
	.loc	3 547 10                        @ ../../../components/network/thread/subg_openthread/third_party/mbedtls/repo/library/ecp_curves.c:547:10
	movt	r1, :upper16:secp256r1_p
.Ltmp9:
	@DEBUG_VALUE: ecp_mpi_load:p <- $r1
	@DEBUG_VALUE: ecp_group_load:p <- $r1
	@DEBUG_VALUE: ecp_mpi_load:X <- $r4
	@DEBUG_VALUE: ecp_mpi_load:len <- 32
	@DEBUG_VALUE: ecp_group_load:nlen <- 32
	@DEBUG_VALUE: ecp_group_load:gylen <- 32
	@DEBUG_VALUE: ecp_group_load:gxlen <- 32
	@DEBUG_VALUE: ecp_group_load:blen <- 32
	@DEBUG_VALUE: ecp_group_load:alen <- 0
	@DEBUG_VALUE: ecp_group_load:a <- 0
	@DEBUG_VALUE: ecp_group_load:plen <- 32
	.loc	3 546 10                        @ ../../../components/network/thread/subg_openthread/third_party/mbedtls/repo/library/ecp_curves.c:546:10
	strd	r0, r1, [r4, #4]
.Ltmp10:
	@DEBUG_VALUE: ecp_mpi_load:len <- 32
	@DEBUG_VALUE: ecp_mpi_load:X <- [DW_OP_plus_uconst 28, DW_OP_stack_value] $r4
	.loc	3 547 10                        @ ../../../components/network/thread/subg_openthread/third_party/mbedtls/repo/library/ecp_curves.c:547:10
	movw	r1, :lower16:secp256r1_b
.Ltmp11:
	.loc	3 547 10 is_stmt 0              @ ../../../components/network/thread/subg_openthread/third_party/mbedtls/repo/library/ecp_curves.c:547:10
	movw	r2, :lower16:secp256r1_n
.Ltmp12:
	.loc	3 547 10                        @ ../../../components/network/thread/subg_openthread/third_party/mbedtls/repo/library/ecp_curves.c:547:10
	movt	r1, :upper16:secp256r1_b
.Ltmp13:
	@DEBUG_VALUE: ecp_mpi_load:len <- 32
	@DEBUG_VALUE: ecp_mpi_load:p <- $r1
	@DEBUG_VALUE: ecp_group_load:b <- $r1
	.loc	3 547 10                        @ ../../../components/network/thread/subg_openthread/third_party/mbedtls/repo/library/ecp_curves.c:547:10
	movt	r2, :upper16:secp256r1_n
.Ltmp14:
	@DEBUG_VALUE: ecp_mpi_load:p <- $r2
	@DEBUG_VALUE: ecp_group_load:n <- $r2
	.loc	3 546 10 is_stmt 1              @ ../../../components/network/thread/subg_openthread/third_party/mbedtls/repo/library/ecp_curves.c:546:10
	strd	r0, r2, [r4, #76]
.Ltmp15:
	@DEBUG_VALUE: ecp_mpi_load:len <- 32
	@DEBUG_VALUE: ecp_mpi_load:X <- [DW_OP_plus_uconst 40, DW_OP_stack_value] $r4
	.loc	3 547 10                        @ ../../../components/network/thread/subg_openthread/third_party/mbedtls/repo/library/ecp_curves.c:547:10
	movw	r2, :lower16:secp256r1_gx
.Ltmp16:
	.loc	3 547 10 is_stmt 0              @ ../../../components/network/thread/subg_openthread/third_party/mbedtls/repo/library/ecp_curves.c:547:10
	strd	r1, r6, [r4, #32]
.Ltmp17:
	@DEBUG_VALUE: ecp_mpi_load:p <- $r2
	@DEBUG_VALUE: ecp_mpi_load:len <- 32
	@DEBUG_VALUE: ecp_mpi_load:X <- [DW_OP_plus_uconst 40, DW_OP_stack_value] $r4
	@DEBUG_VALUE: ecp_mpi_load:len <- 32
	@DEBUG_VALUE: ecp_mpi_load:X <- [DW_OP_plus_uconst 52, DW_OP_stack_value] $r4
	.loc	3 546 10 is_stmt 1              @ ../../../components/network/thread/subg_openthread/third_party/mbedtls/repo/library/ecp_curves.c:546:10
	add.w	r1, r4, #40
.Ltmp18:
	.loc	3 547 10                        @ ../../../components/network/thread/subg_openthread/third_party/mbedtls/repo/library/ecp_curves.c:547:10
	movt	r2, :upper16:secp256r1_gx
.Ltmp19:
	@DEBUG_VALUE: ecp_mpi_load:p <- $r2
	@DEBUG_VALUE: ecp_group_load:gx <- $r2
	@DEBUG_VALUE: ecp_mpi_load:p <- $r1
	@DEBUG_VALUE: ecp_mpi_load:len <- 32
	@DEBUG_VALUE: ecp_mpi_load:X <- [DW_OP_plus_uconst 28, DW_OP_stack_value] $r4
	.loc	3 545 10                        @ ../../../components/network/thread/subg_openthread/third_party/mbedtls/repo/library/ecp_curves.c:545:10
	strd	r6, r0, [r4, #24]
.Ltmp20:
	.loc	3 546 10                        @ ../../../components/network/thread/subg_openthread/third_party/mbedtls/repo/library/ecp_curves.c:546:10
	stm	r1!, {r0, r2, r6}
.Ltmp21:
	.loc	3 546 10 is_stmt 0              @ ../../../components/network/thread/subg_openthread/third_party/mbedtls/repo/library/ecp_curves.c:546:10
	str	r0, [r4, #52]
	.loc	3 547 10 is_stmt 1              @ ../../../components/network/thread/subg_openthread/third_party/mbedtls/repo/library/ecp_curves.c:547:10
	movw	r0, :lower16:secp256r1_gy
	movt	r0, :upper16:secp256r1_gy
.Ltmp22:
	@DEBUG_VALUE: ecp_mpi_set1:X <- [DW_OP_plus_uconst 64, DW_OP_stack_value] $r4
	@DEBUG_VALUE: ecp_mpi_load:p <- $r0
	@DEBUG_VALUE: ecp_group_load:gy <- $r0
	.loc	3 558 10                        @ ../../../components/network/thread/subg_openthread/third_party/mbedtls/repo/library/ecp_curves.c:558:10
	movw	r1, :lower16:ecp_mpi_set1.one
.Ltmp23:
	.loc	3 545 10                        @ ../../../components/network/thread/subg_openthread/third_party/mbedtls/repo/library/ecp_curves.c:545:10
	mov	r5, r4
.Ltmp24:
	.loc	3 558 10                        @ ../../../components/network/thread/subg_openthread/third_party/mbedtls/repo/library/ecp_curves.c:558:10
	movt	r1, :upper16:ecp_mpi_set1.one
.Ltmp25:
	@DEBUG_VALUE: ecp_mpi_load:p <- $r0
	@DEBUG_VALUE: ecp_mpi_load:len <- 32
	@DEBUG_VALUE: ecp_mpi_load:X <- [DW_OP_plus_uconst 52, DW_OP_stack_value] $r4
	.loc	3 547 10                        @ ../../../components/network/thread/subg_openthread/third_party/mbedtls/repo/library/ecp_curves.c:547:10
	strd	r0, r6, [r4, #56]
.Ltmp26:
	@DEBUG_VALUE: ecp_mpi_set1:X <- [DW_OP_plus_uconst 64, DW_OP_stack_value] $r4
	.loc	3 582 18                        @ ../../../components/network/thread/subg_openthread/third_party/mbedtls/repo/library/ecp_curves.c:582:18
	mov	r0, r4
.Ltmp27:
	.loc	3 545 10                        @ ../../../components/network/thread/subg_openthread/third_party/mbedtls/repo/library/ecp_curves.c:545:10
	str	r6, [r5, #72]!
.Ltmp28:
	@DEBUG_VALUE: ecp_mpi_load:X <- $r5
	.loc	3 557 10                        @ ../../../components/network/thread/subg_openthread/third_party/mbedtls/repo/library/ecp_curves.c:557:10
	strd	r6, r1, [r4, #64]
.Ltmp29:
	.loc	3 582 18                        @ ../../../components/network/thread/subg_openthread/third_party/mbedtls/repo/library/ecp_curves.c:582:18
	bl	mbedtls_mpi_bitlen
.Ltmp30:
	.loc	3 582 16 is_stmt 0              @ ../../../components/network/thread/subg_openthread/third_party/mbedtls/repo/library/ecp_curves.c:582:16
	str	r0, [r4, #84]
	.loc	3 583 18 is_stmt 1              @ ../../../components/network/thread/subg_openthread/third_party/mbedtls/repo/library/ecp_curves.c:583:18
	mov	r0, r5
	bl	mbedtls_mpi_bitlen
.Ltmp31:
	.loc	3 583 16 is_stmt 0              @ ../../../components/network/thread/subg_openthread/third_party/mbedtls/repo/library/ecp_curves.c:583:16
	strd	r0, r6, [r4, #88]
	movs	r0, #0
.Ltmp32:
	.loc	3 841 1 is_stmt 1               @ ../../../components/network/thread/subg_openthread/third_party/mbedtls/repo/library/ecp_curves.c:841:1
	pop	{r4, r5, r6, pc}
.Ltmp33:
.LBB0_2:
	@DEBUG_VALUE: mbedtls_ecp_group_load:id <- $r5
	@DEBUG_VALUE: mbedtls_ecp_group_load:grp <- $r4
	.loc	3 0 1 is_stmt 0                 @ ../../../components/network/thread/subg_openthread/third_party/mbedtls/repo/library/ecp_curves.c:0:1
	movs	r0, #0
.Ltmp34:
	.loc	3 838 21 is_stmt 1              @ ../../../components/network/thread/subg_openthread/third_party/mbedtls/repo/library/ecp_curves.c:838:21
	str	r0, [r4]
	movw	r0, #45440
	movt	r0, #65535
.Ltmp35:
	.loc	3 841 1                         @ ../../../components/network/thread/subg_openthread/third_party/mbedtls/repo/library/ecp_curves.c:841:1
	pop	{r4, r5, r6, pc}
.Ltmp36:
.Lfunc_end0:
	.size	mbedtls_ecp_group_load, .Lfunc_end0-mbedtls_ecp_group_load
	.cfi_endproc
	.file	5 "C:\\Keil_v5\\ARM\\ARMCLANG\\Bin\\..\\include" "stdio.h"
	.cantunwind
	.fnend
                                        @ -- End function
	.section	.text.ecp_mod_p256,"ax",%progbits
	.p2align	1                               @ -- Begin function ecp_mod_p256
	.type	ecp_mod_p256,%function
	.code	16                              @ @ecp_mod_p256
	.thumb_func
ecp_mod_p256:
.Lfunc_begin1:
	.loc	3 1079 0                        @ ../../../components/network/thread/subg_openthread/third_party/mbedtls/repo/library/ecp_curves.c:1079:0
	.fnstart
	.cfi_startproc
@ %bb.0:
	@DEBUG_VALUE: ecp_mod_p256:N <- $r0
	.save	{r4, r5, r6, r7, r8, r9, r10, r11, lr}
	push.w	{r4, r5, r6, r7, r8, r9, r10, r11, lr}
	.cfi_def_cfa_offset 36
	.cfi_offset lr, -4
	.cfi_offset r11, -8
	.cfi_offset r10, -12
	.cfi_offset r9, -16
	.cfi_offset r8, -20
	.cfi_offset r7, -24
	.cfi_offset r6, -28
	.cfi_offset r5, -32
	.cfi_offset r4, -36
	.pad	#20
	sub	sp, #20
	.cfi_def_cfa_offset 56
.Ltmp37:
	.loc	3 1080 5 prologue_end           @ ../../../components/network/thread/subg_openthread/third_party/mbedtls/repo/library/ecp_curves.c:1080:5
	movs	r1, #17
	mov	r4, r0
.Ltmp38:
	@DEBUG_VALUE: ecp_mod_p256:bits <- 256
	@DEBUG_VALUE: ecp_mod_p256:i <- 0
	@DEBUG_VALUE: ecp_mod_p256:c <- 0
	@DEBUG_VALUE: ecp_mod_p256:ret <- -110
	@DEBUG_VALUE: ecp_mod_p256:N <- $r4
	bl	mbedtls_mpi_grow
.Ltmp39:
	mov	r12, r0
.Ltmp40:
	@DEBUG_VALUE: ecp_mod_p256:ret <- $r12
	.loc	3 1080 5 is_stmt 0              @ ../../../components/network/thread/subg_openthread/third_party/mbedtls/repo/library/ecp_curves.c:1080:5
	cmp	r0, #0
	bne.w	.LBB1_32
.Ltmp41:
@ %bb.1:
	@DEBUG_VALUE: ecp_mod_p256:ret <- $r12
	@DEBUG_VALUE: ecp_mod_p256:N <- $r4
	@DEBUG_VALUE: ecp_mod_p256:c <- 0
	@DEBUG_VALUE: ecp_mod_p256:i <- 0
	@DEBUG_VALUE: ecp_mod_p256:bits <- 256
	.loc	3 1080 5                        @ ../../../components/network/thread/subg_openthread/third_party/mbedtls/repo/library/ecp_curves.c:1080:5
	ldr	r1, [r4, #8]
.Ltmp42:
	@DEBUG_VALUE: ecp_mod_p256:cur <- undef
	@DEBUG_VALUE: ecp_mod_p256:i <- 1
	ldrd	r3, r9, [r1]
.Ltmp43:
	@DEBUG_VALUE: add32:carry <- undef
	@DEBUG_VALUE: add32:dst <- undef
	@DEBUG_VALUE: add32:src <- undef
	@DEBUG_VALUE: add32:src <- undef
	.loc	3 1082 5 is_stmt 1              @ ../../../components/network/thread/subg_openthread/third_party/mbedtls/repo/library/ecp_curves.c:1082:5
	ldrd	r2, r0, [r1, #32]
	.loc	3 1083 27                       @ ../../../components/network/thread/subg_openthread/third_party/mbedtls/repo/library/ecp_curves.c:1083:27
	ldrd	r8, lr, [r1, #52]
.Ltmp44:
	.loc	3 975 10                        @ ../../../components/network/thread/subg_openthread/third_party/mbedtls/repo/library/ecp_curves.c:975:10
	adds	r7, r2, r3
.Ltmp45:
	@DEBUG_VALUE: add32:carry <- undef
	@DEBUG_VALUE: add32:dst <- undef
	.loc	3 975 10 is_stmt 0              @ ../../../components/network/thread/subg_openthread/third_party/mbedtls/repo/library/ecp_curves.c:975:10
	adds	r6, r7, r0
	mov.w	r7, #0
	mov	r5, r2
	str	r0, [sp, #12]                   @ 4-byte Spill
	adc	r0, r7, #0
.Ltmp46:
	.loc	3 975 10                        @ ../../../components/network/thread/subg_openthread/third_party/mbedtls/repo/library/ecp_curves.c:975:10
	adds	r3, r3, r2
.Ltmp47:
	.loc	3 1083 5 is_stmt 1              @ ../../../components/network/thread/subg_openthread/third_party/mbedtls/repo/library/ecp_curves.c:1083:5
	ldrd	r5, r11, [r1, #44]
.Ltmp48:
	.loc	3 976 12                        @ ../../../components/network/thread/subg_openthread/third_party/mbedtls/repo/library/ecp_curves.c:976:12
	adc	r3, r0, #0
.Ltmp49:
	@DEBUG_VALUE: sub32:carry <- undef
	@DEBUG_VALUE: sub32:dst <- undef
	@DEBUG_VALUE: sub32:src <- undef
	.loc	3 981 12                        @ ../../../components/network/thread/subg_openthread/third_party/mbedtls/repo/library/ecp_curves.c:981:12
	sbc	r0, r0, #0
.Ltmp50:
	.loc	3 975 10                        @ ../../../components/network/thread/subg_openthread/third_party/mbedtls/repo/library/ecp_curves.c:975:10
	str	r2, [sp, #8]                    @ 4-byte Spill
.Ltmp51:
	.loc	3 981 12                        @ ../../../components/network/thread/subg_openthread/third_party/mbedtls/repo/library/ecp_curves.c:981:12
	cmp	r6, r5
	it	hs
	movhs	r0, r3
	.loc	3 982 10                        @ ../../../components/network/thread/subg_openthread/third_party/mbedtls/repo/library/ecp_curves.c:982:10
	subs	r3, r6, r5
.Ltmp52:
	@DEBUG_VALUE: sub32:carry <- undef
	@DEBUG_VALUE: sub32:dst <- undef
	@DEBUG_VALUE: sub32:src <- $r11
	.loc	3 0 10 is_stmt 0                @ ../../../components/network/thread/subg_openthread/third_party/mbedtls/repo/library/ecp_curves.c:0:10
	str	r5, [sp, #16]                   @ 4-byte Spill
.Ltmp53:
	.loc	3 981 12 is_stmt 1              @ ../../../components/network/thread/subg_openthread/third_party/mbedtls/repo/library/ecp_curves.c:981:12
	cmp	r3, r11
	it	lo
	sublo	r0, #1
	.loc	3 982 10                        @ ../../../components/network/thread/subg_openthread/third_party/mbedtls/repo/library/ecp_curves.c:982:10
	sub.w	r3, r3, r11
.Ltmp54:
	@DEBUG_VALUE: sub32:carry <- undef
	@DEBUG_VALUE: sub32:dst <- undef
	@DEBUG_VALUE: sub32:src <- $r8
	.loc	3 981 12                        @ ../../../components/network/thread/subg_openthread/third_party/mbedtls/repo/library/ecp_curves.c:981:12
	cmp	r3, r8
	it	lo
	sublo	r0, #1
	.loc	3 982 10                        @ ../../../components/network/thread/subg_openthread/third_party/mbedtls/repo/library/ecp_curves.c:982:10
	sub.w	r3, r3, r8
.Ltmp55:
	@DEBUG_VALUE: sub32:carry <- undef
	@DEBUG_VALUE: sub32:dst <- undef
	@DEBUG_VALUE: sub32:src <- $lr
	.loc	3 981 12                        @ ../../../components/network/thread/subg_openthread/third_party/mbedtls/repo/library/ecp_curves.c:981:12
	cmp	r3, lr
	it	lo
	sublo	r0, #1
.Ltmp56:
	@DEBUG_VALUE: ecp_mod_p256:cc <- $r0
	.loc	3 982 10                        @ ../../../components/network/thread/subg_openthread/third_party/mbedtls/repo/library/ecp_curves.c:982:10
	sub.w	r5, r3, lr
.Ltmp57:
	@DEBUG_VALUE: ecp_mod_p256:cur <- $r5
	.loc	3 981 12                        @ ../../../components/network/thread/subg_openthread/third_party/mbedtls/repo/library/ecp_curves.c:981:12
	sxtb	r3, r0
.Ltmp58:
	.loc	3 1083 61                       @ ../../../components/network/thread/subg_openthread/third_party/mbedtls/repo/library/ecp_curves.c:1083:61
	cmp.w	r3, #-1
	mov	r0, r5
.Ltmp59:
	@DEBUG_VALUE: ecp_mod_p256:cur <- $r0
	str	r5, [sp]                        @ 4-byte Spill
.Ltmp60:
	@DEBUG_VALUE: ecp_mod_p256:cur <- [$sp+0]
	str	r5, [r1]
	@DEBUG_VALUE: ecp_mod_p256:c <- 0
	ble	.LBB1_3
.Ltmp61:
@ %bb.2:
	@DEBUG_VALUE: ecp_mod_p256:ret <- $r12
	@DEBUG_VALUE: ecp_mod_p256:N <- $r4
	@DEBUG_VALUE: ecp_mod_p256:cur <- [$sp+0]
	@DEBUG_VALUE: ecp_mod_p256:i <- 1
	@DEBUG_VALUE: ecp_mod_p256:c <- 0
	@DEBUG_VALUE: ecp_mod_p256:bits <- 256
	@DEBUG_VALUE: add32:dst <- undef
	@DEBUG_VALUE: add32:src <- $r3
	@DEBUG_VALUE: add32:carry <- undef
	.loc	3 975 10                        @ ../../../components/network/thread/subg_openthread/third_party/mbedtls/repo/library/ecp_curves.c:975:10
	adds.w	r2, r9, r3
	adc	r7, r7, #0
	b	.LBB1_4
.Ltmp62:
.LBB1_3:
	@DEBUG_VALUE: ecp_mod_p256:ret <- $r12
	@DEBUG_VALUE: ecp_mod_p256:N <- $r4
	@DEBUG_VALUE: ecp_mod_p256:cur <- [$sp+0]
	@DEBUG_VALUE: ecp_mod_p256:i <- 1
	@DEBUG_VALUE: ecp_mod_p256:c <- 0
	@DEBUG_VALUE: ecp_mod_p256:bits <- 256
	.loc	3 1083 61                       @ ../../../components/network/thread/subg_openthread/third_party/mbedtls/repo/library/ecp_curves.c:1083:61
	rsbs	r0, r3, #0
.Ltmp63:
	@DEBUG_VALUE: sub32:carry <- undef
	@DEBUG_VALUE: sub32:dst <- undef
	@DEBUG_VALUE: sub32:src <- $r0
	.loc	3 981 22                        @ ../../../components/network/thread/subg_openthread/third_party/mbedtls/repo/library/ecp_curves.c:981:22
	cmp	r9, r0
	it	lo
	movlo.w	r7, #-1
	.loc	3 982 10                        @ ../../../components/network/thread/subg_openthread/third_party/mbedtls/repo/library/ecp_curves.c:982:10
	add.w	r2, r9, r3
.Ltmp64:
.LBB1_4:
	@DEBUG_VALUE: ecp_mod_p256:ret <- $r12
	@DEBUG_VALUE: ecp_mod_p256:N <- $r4
	@DEBUG_VALUE: ecp_mod_p256:cur <- [$sp+0]
	@DEBUG_VALUE: ecp_mod_p256:i <- 1
	@DEBUG_VALUE: ecp_mod_p256:c <- 0
	@DEBUG_VALUE: ecp_mod_p256:bits <- 256
	@DEBUG_VALUE: add32:dst <- undef
	@DEBUG_VALUE: add32:src <- [DW_OP_plus_uconst 12] [$sp+0]
	@DEBUG_VALUE: add32:carry <- undef
	.loc	3 975 10                        @ ../../../components/network/thread/subg_openthread/third_party/mbedtls/repo/library/ecp_curves.c:975:10
	ldr	r0, [sp, #12]                   @ 4-byte Reload
.Ltmp65:
	@DEBUG_VALUE: add32:src <- $r0
	.loc	3 1085 16                       @ ../../../components/network/thread/subg_openthread/third_party/mbedtls/repo/library/ecp_curves.c:1085:16
	ldr.w	r10, [r1, #40]
.Ltmp66:
	.loc	3 975 10                        @ ../../../components/network/thread/subg_openthread/third_party/mbedtls/repo/library/ecp_curves.c:975:10
	adds	r0, r0, r2
.Ltmp67:
	@DEBUG_VALUE: add32:src <- [DW_OP_plus_uconst 12] [$sp+0]
	.loc	3 0 10 is_stmt 0                @ ../../../components/network/thread/subg_openthread/third_party/mbedtls/repo/library/ecp_curves.c:0:10
	mov.w	r2, #0
	.loc	3 975 10                        @ ../../../components/network/thread/subg_openthread/third_party/mbedtls/repo/library/ecp_curves.c:975:10
	adc	r5, r2, #0
	.loc	3 976 12 is_stmt 1              @ ../../../components/network/thread/subg_openthread/third_party/mbedtls/repo/library/ecp_curves.c:976:12
	adc	r6, r7, #0
.Ltmp68:
	@DEBUG_VALUE: ecp_mod_p256:i <- 2
	.loc	3 975 10                        @ ../../../components/network/thread/subg_openthread/third_party/mbedtls/repo/library/ecp_curves.c:975:10
	adds.w	r0, r0, r10
.Ltmp69:
	.loc	3 981 12                        @ ../../../components/network/thread/subg_openthread/third_party/mbedtls/repo/library/ecp_curves.c:981:12
	sbc	r6, r6, #0
.Ltmp70:
	.loc	3 1086 61                       @ ../../../components/network/thread/subg_openthread/third_party/mbedtls/repo/library/ecp_curves.c:1086:61
	ldr	r3, [r1, #8]
.Ltmp71:
	@DEBUG_VALUE: ecp_mod_p256:cur <- $r3
	.loc	3 1086 38 is_stmt 0             @ ../../../components/network/thread/subg_openthread/third_party/mbedtls/repo/library/ecp_curves.c:1086:38
	ldr.w	r9, [r1, #60]
.Ltmp72:
	@DEBUG_VALUE: add32:carry <- undef
	@DEBUG_VALUE: add32:dst <- undef
	@DEBUG_VALUE: add32:src <- $r10
	.loc	3 976 12 is_stmt 1              @ ../../../components/network/thread/subg_openthread/third_party/mbedtls/repo/library/ecp_curves.c:976:12
	adcs	r7, r5
.Ltmp73:
	@DEBUG_VALUE: sub32:carry <- undef
	@DEBUG_VALUE: sub32:src <- $r11
	@DEBUG_VALUE: sub32:dst <- undef
	.loc	3 981 12                        @ ../../../components/network/thread/subg_openthread/third_party/mbedtls/repo/library/ecp_curves.c:981:12
	cmp	r0, r11
	it	hs
	movhs	r6, r7
	.loc	3 982 10                        @ ../../../components/network/thread/subg_openthread/third_party/mbedtls/repo/library/ecp_curves.c:982:10
	sub.w	r0, r0, r11
.Ltmp74:
	@DEBUG_VALUE: sub32:carry <- undef
	@DEBUG_VALUE: sub32:src <- $r8
	@DEBUG_VALUE: sub32:dst <- undef
	.loc	3 981 12                        @ ../../../components/network/thread/subg_openthread/third_party/mbedtls/repo/library/ecp_curves.c:981:12
	cmp	r0, r8
	it	lo
	sublo	r6, #1
	.loc	3 982 10                        @ ../../../components/network/thread/subg_openthread/third_party/mbedtls/repo/library/ecp_curves.c:982:10
	sub.w	r0, r0, r8
.Ltmp75:
	@DEBUG_VALUE: sub32:carry <- undef
	@DEBUG_VALUE: sub32:src <- $lr
	@DEBUG_VALUE: sub32:dst <- undef
	.loc	3 981 12                        @ ../../../components/network/thread/subg_openthread/third_party/mbedtls/repo/library/ecp_curves.c:981:12
	cmp	r0, lr
	it	lo
	sublo	r6, #1
	.loc	3 982 10                        @ ../../../components/network/thread/subg_openthread/third_party/mbedtls/repo/library/ecp_curves.c:982:10
	sub.w	r0, r0, lr
.Ltmp76:
	@DEBUG_VALUE: sub32:carry <- undef
	@DEBUG_VALUE: sub32:dst <- undef
	@DEBUG_VALUE: sub32:src <- $r9
	.loc	3 981 12                        @ ../../../components/network/thread/subg_openthread/third_party/mbedtls/repo/library/ecp_curves.c:981:12
	cmp	r0, r9
	it	lo
	sublo	r6, #1
.Ltmp77:
	@DEBUG_VALUE: ecp_mod_p256:cc <- $r6
	sxtb	r7, r6
	.loc	3 982 10                        @ ../../../components/network/thread/subg_openthread/third_party/mbedtls/repo/library/ecp_curves.c:982:10
	sub.w	r0, r0, r9
.Ltmp78:
	@DEBUG_VALUE: ecp_mod_p256:cur <- $r0
	.loc	3 1086 61                       @ ../../../components/network/thread/subg_openthread/third_party/mbedtls/repo/library/ecp_curves.c:1086:61
	cmp.w	r7, #-1
	str	r0, [r1, #4]
	@DEBUG_VALUE: ecp_mod_p256:c <- 0
	ble	.LBB1_6
.Ltmp79:
@ %bb.5:
	@DEBUG_VALUE: ecp_mod_p256:ret <- $r12
	@DEBUG_VALUE: ecp_mod_p256:cc <- $r6
	@DEBUG_VALUE: ecp_mod_p256:N <- $r4
	@DEBUG_VALUE: ecp_mod_p256:cur <- $r0
	@DEBUG_VALUE: ecp_mod_p256:i <- 2
	@DEBUG_VALUE: ecp_mod_p256:c <- 0
	@DEBUG_VALUE: ecp_mod_p256:bits <- 256
	@DEBUG_VALUE: add32:dst <- undef
	@DEBUG_VALUE: add32:src <- $r7
	@DEBUG_VALUE: add32:carry <- undef
	.loc	3 975 10                        @ ../../../components/network/thread/subg_openthread/third_party/mbedtls/repo/library/ecp_curves.c:975:10
	adds	r3, r3, r7
	adc	r2, r2, #0
	b	.LBB1_7
.Ltmp80:
.LBB1_6:
	@DEBUG_VALUE: ecp_mod_p256:ret <- $r12
	@DEBUG_VALUE: ecp_mod_p256:cc <- $r6
	@DEBUG_VALUE: ecp_mod_p256:N <- $r4
	@DEBUG_VALUE: ecp_mod_p256:cur <- $r0
	@DEBUG_VALUE: ecp_mod_p256:i <- 2
	@DEBUG_VALUE: ecp_mod_p256:c <- 0
	@DEBUG_VALUE: ecp_mod_p256:bits <- 256
	.loc	3 1086 61                       @ ../../../components/network/thread/subg_openthread/third_party/mbedtls/repo/library/ecp_curves.c:1086:61
	rsbs	r0, r7, #0
.Ltmp81:
	@DEBUG_VALUE: sub32:carry <- undef
	@DEBUG_VALUE: sub32:dst <- undef
	@DEBUG_VALUE: sub32:src <- $r0
	.loc	3 981 22                        @ ../../../components/network/thread/subg_openthread/third_party/mbedtls/repo/library/ecp_curves.c:981:22
	cmp	r3, r0
	it	lo
	movlo.w	r2, #-1
	.loc	3 982 10                        @ ../../../components/network/thread/subg_openthread/third_party/mbedtls/repo/library/ecp_curves.c:982:10
	add	r3, r7
.Ltmp82:
.LBB1_7:
	@DEBUG_VALUE: ecp_mod_p256:ret <- $r12
	@DEBUG_VALUE: ecp_mod_p256:cc <- $r6
	@DEBUG_VALUE: ecp_mod_p256:N <- $r4
	@DEBUG_VALUE: ecp_mod_p256:i <- 2
	@DEBUG_VALUE: ecp_mod_p256:c <- 0
	@DEBUG_VALUE: ecp_mod_p256:bits <- 256
	@DEBUG_VALUE: add32:dst <- undef
	@DEBUG_VALUE: add32:src <- $r10
	@DEBUG_VALUE: add32:carry <- undef
	.loc	3 975 10                        @ ../../../components/network/thread/subg_openthread/third_party/mbedtls/repo/library/ecp_curves.c:975:10
	ldr	r5, [sp, #16]                   @ 4-byte Reload
.Ltmp83:
	@DEBUG_VALUE: add32:src <- $r5
	.loc	3 975 10 is_stmt 0              @ ../../../components/network/thread/subg_openthread/third_party/mbedtls/repo/library/ecp_curves.c:975:10
	adds.w	r0, r10, r3
	mov.w	r3, #0
	adc	r7, r3, #0
	.loc	3 976 12 is_stmt 1              @ ../../../components/network/thread/subg_openthread/third_party/mbedtls/repo/library/ecp_curves.c:976:12
	adc	r6, r2, #0
.Ltmp84:
	@DEBUG_VALUE: add32:carry <- undef
	@DEBUG_VALUE: add32:dst <- undef
	.loc	3 975 10                        @ ../../../components/network/thread/subg_openthread/third_party/mbedtls/repo/library/ecp_curves.c:975:10
	adds	r0, r0, r5
.Ltmp85:
	@DEBUG_VALUE: add32:src <- [DW_OP_plus_uconst 16] [$sp+0]
	.loc	3 976 12                        @ ../../../components/network/thread/subg_openthread/third_party/mbedtls/repo/library/ecp_curves.c:976:12
	adc.w	r2, r2, r7
.Ltmp86:
	@DEBUG_VALUE: sub32:carry <- undef
	@DEBUG_VALUE: sub32:src <- $r8
	@DEBUG_VALUE: sub32:dst <- undef
	.loc	3 981 12                        @ ../../../components/network/thread/subg_openthread/third_party/mbedtls/repo/library/ecp_curves.c:981:12
	sbc	r7, r6, #0
	cmp	r0, r8
	it	hs
	movhs	r7, r2
	.loc	3 982 10                        @ ../../../components/network/thread/subg_openthread/third_party/mbedtls/repo/library/ecp_curves.c:982:10
	sub.w	r0, r0, r8
.Ltmp87:
	@DEBUG_VALUE: sub32:carry <- undef
	@DEBUG_VALUE: sub32:src <- $lr
	@DEBUG_VALUE: sub32:dst <- undef
	.loc	3 981 12                        @ ../../../components/network/thread/subg_openthread/third_party/mbedtls/repo/library/ecp_curves.c:981:12
	cmp	r0, lr
	it	lo
	sublo	r7, #1
	.loc	3 982 10                        @ ../../../components/network/thread/subg_openthread/third_party/mbedtls/repo/library/ecp_curves.c:982:10
	sub.w	r0, r0, lr
.Ltmp88:
	@DEBUG_VALUE: sub32:carry <- undef
	@DEBUG_VALUE: sub32:src <- $r9
	@DEBUG_VALUE: sub32:dst <- undef
	.loc	3 981 12                        @ ../../../components/network/thread/subg_openthread/third_party/mbedtls/repo/library/ecp_curves.c:981:12
	cmp	r0, r9
	it	lo
	sublo	r7, #1
.Ltmp89:
	@DEBUG_VALUE: ecp_mod_p256:cc <- $r7
	@DEBUG_VALUE: ecp_mod_p256:i <- 3
	.loc	3 1089 61                       @ ../../../components/network/thread/subg_openthread/third_party/mbedtls/repo/library/ecp_curves.c:1089:61
	ldr	r2, [r1, #12]
.Ltmp90:
	@DEBUG_VALUE: ecp_mod_p256:cur <- $r2
	@DEBUG_VALUE: ecp_mod_p256:c <- 0
	.loc	3 981 12                        @ ../../../components/network/thread/subg_openthread/third_party/mbedtls/repo/library/ecp_curves.c:981:12
	sxtb	r7, r7
.Ltmp91:
	@DEBUG_VALUE: sub32:src <- $r9
	.loc	3 982 10                        @ ../../../components/network/thread/subg_openthread/third_party/mbedtls/repo/library/ecp_curves.c:982:10
	sub.w	r0, r0, r9
.Ltmp92:
	@DEBUG_VALUE: ecp_mod_p256:cur <- $r0
	.loc	3 1089 61                       @ ../../../components/network/thread/subg_openthread/third_party/mbedtls/repo/library/ecp_curves.c:1089:61
	cmp.w	r7, #-1
	str	r0, [r1, #8]
	ble	.LBB1_9
.Ltmp93:
@ %bb.8:
	@DEBUG_VALUE: ecp_mod_p256:ret <- $r12
	@DEBUG_VALUE: ecp_mod_p256:N <- $r4
	@DEBUG_VALUE: ecp_mod_p256:cur <- $r0
	@DEBUG_VALUE: ecp_mod_p256:i <- 3
	@DEBUG_VALUE: ecp_mod_p256:c <- 0
	@DEBUG_VALUE: ecp_mod_p256:bits <- 256
	@DEBUG_VALUE: add32:dst <- undef
	@DEBUG_VALUE: add32:src <- $r7
	@DEBUG_VALUE: add32:carry <- undef
	.loc	3 975 10                        @ ../../../components/network/thread/subg_openthread/third_party/mbedtls/repo/library/ecp_curves.c:975:10
	adds	r2, r2, r7
	adc	r3, r3, #0
	b	.LBB1_10
.Ltmp94:
.LBB1_9:
	@DEBUG_VALUE: ecp_mod_p256:ret <- $r12
	@DEBUG_VALUE: ecp_mod_p256:N <- $r4
	@DEBUG_VALUE: ecp_mod_p256:cur <- $r0
	@DEBUG_VALUE: ecp_mod_p256:i <- 3
	@DEBUG_VALUE: ecp_mod_p256:c <- 0
	@DEBUG_VALUE: ecp_mod_p256:bits <- 256
	.loc	3 1089 61                       @ ../../../components/network/thread/subg_openthread/third_party/mbedtls/repo/library/ecp_curves.c:1089:61
	rsbs	r0, r7, #0
.Ltmp95:
	@DEBUG_VALUE: sub32:carry <- undef
	@DEBUG_VALUE: sub32:dst <- undef
	@DEBUG_VALUE: sub32:src <- $r0
	.loc	3 981 22                        @ ../../../components/network/thread/subg_openthread/third_party/mbedtls/repo/library/ecp_curves.c:981:22
	cmp	r2, r0
	it	lo
	movlo.w	r3, #-1
	.loc	3 982 10                        @ ../../../components/network/thread/subg_openthread/third_party/mbedtls/repo/library/ecp_curves.c:982:10
	add	r2, r7
.Ltmp96:
.LBB1_10:
	@DEBUG_VALUE: ecp_mod_p256:ret <- $r12
	@DEBUG_VALUE: ecp_mod_p256:N <- $r4
	@DEBUG_VALUE: ecp_mod_p256:i <- 3
	@DEBUG_VALUE: ecp_mod_p256:c <- 0
	@DEBUG_VALUE: ecp_mod_p256:bits <- 256
	@DEBUG_VALUE: add32:dst <- undef
	@DEBUG_VALUE: add32:src <- [DW_OP_plus_uconst 16] [$sp+0]
	@DEBUG_VALUE: add32:carry <- undef
	.loc	3 0 10 is_stmt 0                @ ../../../components/network/thread/subg_openthread/third_party/mbedtls/repo/library/ecp_curves.c:0:10
	ldr	r5, [sp, #16]                   @ 4-byte Reload
	movs	r7, #0
.Ltmp97:
	.loc	3 975 10 is_stmt 1              @ ../../../components/network/thread/subg_openthread/third_party/mbedtls/repo/library/ecp_curves.c:975:10
	adds	r0, r5, r2
	adc	r2, r7, #0
	.loc	3 976 12                        @ ../../../components/network/thread/subg_openthread/third_party/mbedtls/repo/library/ecp_curves.c:976:12
	adc	r6, r3, #0
.Ltmp98:
	@DEBUG_VALUE: add32:carry <- undef
	@DEBUG_VALUE: add32:src <- [DW_OP_plus_uconst 16] [$sp+0]
	@DEBUG_VALUE: add32:dst <- undef
	.loc	3 975 10                        @ ../../../components/network/thread/subg_openthread/third_party/mbedtls/repo/library/ecp_curves.c:975:10
	adds	r0, r0, r5
	adc	r5, r7, #0
	.loc	3 976 12                        @ ../../../components/network/thread/subg_openthread/third_party/mbedtls/repo/library/ecp_curves.c:976:12
	adcs	r2, r3
.Ltmp99:
	@DEBUG_VALUE: add32:carry <- undef
	@DEBUG_VALUE: add32:src <- $r11
	@DEBUG_VALUE: add32:dst <- undef
	.loc	3 975 10                        @ ../../../components/network/thread/subg_openthread/third_party/mbedtls/repo/library/ecp_curves.c:975:10
	adds.w	r0, r0, r11
	adc	r3, r7, #0
	.loc	3 976 12                        @ ../../../components/network/thread/subg_openthread/third_party/mbedtls/repo/library/ecp_curves.c:976:12
	adcs	r6, r5
.Ltmp100:
	@DEBUG_VALUE: add32:carry <- undef
	@DEBUG_VALUE: add32:src <- $r11
	@DEBUG_VALUE: add32:dst <- undef
	.loc	3 975 10                        @ ../../../components/network/thread/subg_openthread/third_party/mbedtls/repo/library/ecp_curves.c:975:10
	adds.w	r0, r0, r11
	adc	r5, r7, #0
	.loc	3 976 12                        @ ../../../components/network/thread/subg_openthread/third_party/mbedtls/repo/library/ecp_curves.c:976:12
	adcs	r2, r3
.Ltmp101:
	@DEBUG_VALUE: add32:carry <- undef
	@DEBUG_VALUE: add32:src <- $r8
	@DEBUG_VALUE: add32:dst <- undef
	.loc	3 975 10                        @ ../../../components/network/thread/subg_openthread/third_party/mbedtls/repo/library/ecp_curves.c:975:10
	adds.w	r0, r0, r8
	.loc	3 976 12                        @ ../../../components/network/thread/subg_openthread/third_party/mbedtls/repo/library/ecp_curves.c:976:12
	adc.w	r3, r6, r5
.Ltmp102:
	@DEBUG_VALUE: sub32:carry <- undef
	@DEBUG_VALUE: sub32:src <- $r9
	@DEBUG_VALUE: sub32:dst <- undef
	.loc	3 981 12                        @ ../../../components/network/thread/subg_openthread/third_party/mbedtls/repo/library/ecp_curves.c:981:12
	sbc	r6, r2, #0
	cmp	r0, r9
	it	hs
	movhs	r6, r3
	ldr	r2, [sp, #8]                    @ 4-byte Reload
.Ltmp103:
	@DEBUG_VALUE: sub32:src <- [DW_OP_plus_uconst 8] [$sp+0]
	.loc	3 982 10                        @ ../../../components/network/thread/subg_openthread/third_party/mbedtls/repo/library/ecp_curves.c:982:10
	sub.w	r0, r0, r9
.Ltmp104:
	@DEBUG_VALUE: sub32:carry <- undef
	@DEBUG_VALUE: sub32:dst <- undef
	.loc	3 981 12                        @ ../../../components/network/thread/subg_openthread/third_party/mbedtls/repo/library/ecp_curves.c:981:12
	cmp	r0, r2
	it	lo
	sublo	r6, #1
	.loc	3 982 10                        @ ../../../components/network/thread/subg_openthread/third_party/mbedtls/repo/library/ecp_curves.c:982:10
	subs	r0, r0, r2
.Ltmp105:
	@DEBUG_VALUE: sub32:carry <- undef
	@DEBUG_VALUE: sub32:dst <- undef
	.loc	3 0 10 is_stmt 0                @ ../../../components/network/thread/subg_openthread/third_party/mbedtls/repo/library/ecp_curves.c:0:10
	ldr	r2, [sp, #12]                   @ 4-byte Reload
.Ltmp106:
	@DEBUG_VALUE: sub32:src <- [DW_OP_plus_uconst 12] [$sp+0]
	.loc	3 981 12 is_stmt 1              @ ../../../components/network/thread/subg_openthread/third_party/mbedtls/repo/library/ecp_curves.c:981:12
	cmp	r0, r2
	it	lo
	sublo	r6, #1
.Ltmp107:
	@DEBUG_VALUE: ecp_mod_p256:cc <- $r6
	@DEBUG_VALUE: ecp_mod_p256:i <- 4
	.loc	3 982 10                        @ ../../../components/network/thread/subg_openthread/third_party/mbedtls/repo/library/ecp_curves.c:982:10
	subs	r0, r0, r2
.Ltmp108:
	@DEBUG_VALUE: ecp_mod_p256:cur <- $r0
	.loc	3 1092 61                       @ ../../../components/network/thread/subg_openthread/third_party/mbedtls/repo/library/ecp_curves.c:1092:61
	ldr	r2, [r1, #16]
.Ltmp109:
	@DEBUG_VALUE: ecp_mod_p256:cur <- $r2
	@DEBUG_VALUE: ecp_mod_p256:c <- 0
	.loc	3 981 12                        @ ../../../components/network/thread/subg_openthread/third_party/mbedtls/repo/library/ecp_curves.c:981:12
	sxtb	r3, r6
.Ltmp110:
	@DEBUG_VALUE: sub32:src <- [DW_OP_plus_uconst 12] [$sp+0]
	.loc	3 1092 61                       @ ../../../components/network/thread/subg_openthread/third_party/mbedtls/repo/library/ecp_curves.c:1092:61
	cmp.w	r3, #-1
	str	r0, [r1, #12]
	ble	.LBB1_12
.Ltmp111:
@ %bb.11:
	@DEBUG_VALUE: ecp_mod_p256:ret <- $r12
	@DEBUG_VALUE: ecp_mod_p256:cc <- $r6
	@DEBUG_VALUE: ecp_mod_p256:N <- $r4
	@DEBUG_VALUE: ecp_mod_p256:cur <- $r2
	@DEBUG_VALUE: ecp_mod_p256:i <- 4
	@DEBUG_VALUE: ecp_mod_p256:c <- 0
	@DEBUG_VALUE: ecp_mod_p256:bits <- 256
	@DEBUG_VALUE: add32:dst <- undef
	@DEBUG_VALUE: add32:src <- $r3
	@DEBUG_VALUE: add32:carry <- undef
	.loc	3 975 10                        @ ../../../components/network/thread/subg_openthread/third_party/mbedtls/repo/library/ecp_curves.c:975:10
	adds	r2, r2, r3
.Ltmp112:
	adc	r7, r7, #0
	b	.LBB1_13
.Ltmp113:
.LBB1_12:
	@DEBUG_VALUE: ecp_mod_p256:ret <- $r12
	@DEBUG_VALUE: ecp_mod_p256:cc <- $r6
	@DEBUG_VALUE: ecp_mod_p256:N <- $r4
	@DEBUG_VALUE: ecp_mod_p256:cur <- $r2
	@DEBUG_VALUE: ecp_mod_p256:i <- 4
	@DEBUG_VALUE: ecp_mod_p256:c <- 0
	@DEBUG_VALUE: ecp_mod_p256:bits <- 256
	.loc	3 1092 61                       @ ../../../components/network/thread/subg_openthread/third_party/mbedtls/repo/library/ecp_curves.c:1092:61
	rsbs	r0, r3, #0
.Ltmp114:
	@DEBUG_VALUE: sub32:carry <- undef
	@DEBUG_VALUE: sub32:dst <- undef
	@DEBUG_VALUE: sub32:src <- $r0
	.loc	3 981 22                        @ ../../../components/network/thread/subg_openthread/third_party/mbedtls/repo/library/ecp_curves.c:981:22
	cmp	r2, r0
	it	lo
	movlo.w	r7, #-1
	.loc	3 982 10                        @ ../../../components/network/thread/subg_openthread/third_party/mbedtls/repo/library/ecp_curves.c:982:10
	add	r2, r3
.Ltmp115:
.LBB1_13:
	@DEBUG_VALUE: ecp_mod_p256:ret <- $r12
	@DEBUG_VALUE: ecp_mod_p256:cc <- $r6
	@DEBUG_VALUE: ecp_mod_p256:N <- $r4
	@DEBUG_VALUE: ecp_mod_p256:i <- 4
	@DEBUG_VALUE: ecp_mod_p256:c <- 0
	@DEBUG_VALUE: ecp_mod_p256:bits <- 256
	@DEBUG_VALUE: add32:dst <- undef
	@DEBUG_VALUE: add32:src <- $r11
	@DEBUG_VALUE: add32:carry <- undef
	.loc	3 975 10                        @ ../../../components/network/thread/subg_openthread/third_party/mbedtls/repo/library/ecp_curves.c:975:10
	adds.w	r0, r11, r2
	mov.w	r2, #0
	adc	r3, r2, #0
	.loc	3 976 12                        @ ../../../components/network/thread/subg_openthread/third_party/mbedtls/repo/library/ecp_curves.c:976:12
	adc	r6, r7, #0
.Ltmp116:
	@DEBUG_VALUE: add32:carry <- undef
	@DEBUG_VALUE: add32:src <- $r11
	@DEBUG_VALUE: add32:dst <- undef
	.loc	3 975 10                        @ ../../../components/network/thread/subg_openthread/third_party/mbedtls/repo/library/ecp_curves.c:975:10
	adds.w	r0, r0, r11
	adc	r5, r2, #0
	.loc	3 976 12                        @ ../../../components/network/thread/subg_openthread/third_party/mbedtls/repo/library/ecp_curves.c:976:12
	adcs	r3, r7
.Ltmp117:
	@DEBUG_VALUE: add32:carry <- undef
	@DEBUG_VALUE: add32:src <- $r8
	@DEBUG_VALUE: add32:dst <- undef
	.loc	3 975 10                        @ ../../../components/network/thread/subg_openthread/third_party/mbedtls/repo/library/ecp_curves.c:975:10
	adds.w	r0, r0, r8
	adc	r7, r2, #0
	.loc	3 976 12                        @ ../../../components/network/thread/subg_openthread/third_party/mbedtls/repo/library/ecp_curves.c:976:12
	adcs	r6, r5
.Ltmp118:
	@DEBUG_VALUE: add32:carry <- undef
	@DEBUG_VALUE: add32:src <- $r8
	@DEBUG_VALUE: add32:dst <- undef
	.loc	3 975 10                        @ ../../../components/network/thread/subg_openthread/third_party/mbedtls/repo/library/ecp_curves.c:975:10
	adds.w	r0, r0, r8
	adc	r5, r2, #0
	.loc	3 976 12                        @ ../../../components/network/thread/subg_openthread/third_party/mbedtls/repo/library/ecp_curves.c:976:12
	adcs	r3, r7
.Ltmp119:
	@DEBUG_VALUE: add32:carry <- undef
	@DEBUG_VALUE: add32:src <- $lr
	@DEBUG_VALUE: add32:dst <- undef
	.loc	3 975 10                        @ ../../../components/network/thread/subg_openthread/third_party/mbedtls/repo/library/ecp_curves.c:975:10
	adds.w	r0, r0, lr
	.loc	3 976 12                        @ ../../../components/network/thread/subg_openthread/third_party/mbedtls/repo/library/ecp_curves.c:976:12
	adc.w	r7, r6, r5
.Ltmp120:
	@DEBUG_VALUE: sub32:carry <- undef
	@DEBUG_VALUE: sub32:src <- [DW_OP_plus_uconst 12] [$sp+0]
	@DEBUG_VALUE: sub32:dst <- undef
	.loc	3 981 12                        @ ../../../components/network/thread/subg_openthread/third_party/mbedtls/repo/library/ecp_curves.c:981:12
	sbc	r6, r3, #0
	ldr	r3, [sp, #12]                   @ 4-byte Reload
	cmp	r0, r3
	it	hs
	movhs	r6, r7
	.loc	3 982 10                        @ ../../../components/network/thread/subg_openthread/third_party/mbedtls/repo/library/ecp_curves.c:982:10
	subs	r0, r0, r3
.Ltmp121:
	@DEBUG_VALUE: sub32:carry <- undef
	@DEBUG_VALUE: sub32:src <- $r10
	@DEBUG_VALUE: sub32:dst <- undef
	.loc	3 981 12                        @ ../../../components/network/thread/subg_openthread/third_party/mbedtls/repo/library/ecp_curves.c:981:12
	cmp	r0, r10
	it	lo
	sublo	r6, #1
.Ltmp122:
	@DEBUG_VALUE: ecp_mod_p256:cc <- $r6
	@DEBUG_VALUE: ecp_mod_p256:i <- 5
	.loc	3 1095 61                       @ ../../../components/network/thread/subg_openthread/third_party/mbedtls/repo/library/ecp_curves.c:1095:61
	ldr	r3, [r1, #20]
.Ltmp123:
	@DEBUG_VALUE: ecp_mod_p256:cur <- $r3
	@DEBUG_VALUE: ecp_mod_p256:c <- 0
	.loc	3 981 12                        @ ../../../components/network/thread/subg_openthread/third_party/mbedtls/repo/library/ecp_curves.c:981:12
	sxtb	r7, r6
	@DEBUG_VALUE: sub32:src <- $r10
	.loc	3 982 10                        @ ../../../components/network/thread/subg_openthread/third_party/mbedtls/repo/library/ecp_curves.c:982:10
	sub.w	r0, r0, r10
.Ltmp124:
	@DEBUG_VALUE: ecp_mod_p256:cur <- $r0
	.loc	3 1095 61                       @ ../../../components/network/thread/subg_openthread/third_party/mbedtls/repo/library/ecp_curves.c:1095:61
	cmp.w	r7, #-1
	str	r0, [r1, #16]
	str.w	r12, [sp, #4]                   @ 4-byte Spill
.Ltmp125:
	@DEBUG_VALUE: ecp_mod_p256:ret <- [DW_OP_plus_uconst 4] [$sp+0]
	ble	.LBB1_15
.Ltmp126:
@ %bb.14:
	@DEBUG_VALUE: ecp_mod_p256:ret <- [DW_OP_plus_uconst 4] [$sp+0]
	@DEBUG_VALUE: ecp_mod_p256:cc <- $r6
	@DEBUG_VALUE: ecp_mod_p256:N <- $r4
	@DEBUG_VALUE: ecp_mod_p256:cur <- $r0
	@DEBUG_VALUE: ecp_mod_p256:i <- 5
	@DEBUG_VALUE: ecp_mod_p256:c <- 0
	@DEBUG_VALUE: ecp_mod_p256:bits <- 256
	@DEBUG_VALUE: add32:dst <- undef
	@DEBUG_VALUE: add32:src <- $r7
	@DEBUG_VALUE: add32:carry <- undef
	.loc	3 975 10                        @ ../../../components/network/thread/subg_openthread/third_party/mbedtls/repo/library/ecp_curves.c:975:10
	adds	r3, r3, r7
	adc	r2, r2, #0
	b	.LBB1_16
.Ltmp127:
.LBB1_15:
	@DEBUG_VALUE: ecp_mod_p256:ret <- [DW_OP_plus_uconst 4] [$sp+0]
	@DEBUG_VALUE: ecp_mod_p256:cc <- $r6
	@DEBUG_VALUE: ecp_mod_p256:N <- $r4
	@DEBUG_VALUE: ecp_mod_p256:cur <- $r0
	@DEBUG_VALUE: ecp_mod_p256:i <- 5
	@DEBUG_VALUE: ecp_mod_p256:c <- 0
	@DEBUG_VALUE: ecp_mod_p256:bits <- 256
	.loc	3 1095 61                       @ ../../../components/network/thread/subg_openthread/third_party/mbedtls/repo/library/ecp_curves.c:1095:61
	rsbs	r0, r7, #0
.Ltmp128:
	@DEBUG_VALUE: sub32:carry <- undef
	@DEBUG_VALUE: sub32:dst <- undef
	@DEBUG_VALUE: sub32:src <- $r0
	.loc	3 981 22                        @ ../../../components/network/thread/subg_openthread/third_party/mbedtls/repo/library/ecp_curves.c:981:22
	cmp	r3, r0
	it	lo
	movlo.w	r2, #-1
	.loc	3 982 10                        @ ../../../components/network/thread/subg_openthread/third_party/mbedtls/repo/library/ecp_curves.c:982:10
	add	r3, r7
.Ltmp129:
.LBB1_16:
	@DEBUG_VALUE: ecp_mod_p256:ret <- [DW_OP_plus_uconst 4] [$sp+0]
	@DEBUG_VALUE: ecp_mod_p256:cc <- $r6
	@DEBUG_VALUE: ecp_mod_p256:N <- $r4
	@DEBUG_VALUE: ecp_mod_p256:i <- 5
	@DEBUG_VALUE: ecp_mod_p256:c <- 0
	@DEBUG_VALUE: ecp_mod_p256:bits <- 256
	@DEBUG_VALUE: add32:dst <- undef
	@DEBUG_VALUE: add32:src <- $r8
	@DEBUG_VALUE: add32:carry <- undef
	.loc	3 975 10                        @ ../../../components/network/thread/subg_openthread/third_party/mbedtls/repo/library/ecp_curves.c:975:10
	adds.w	r0, r8, r3
	mov.w	r12, #0
	adc	r3, r12, #0
	.loc	3 976 12                        @ ../../../components/network/thread/subg_openthread/third_party/mbedtls/repo/library/ecp_curves.c:976:12
	adc	r5, r2, #0
.Ltmp130:
	@DEBUG_VALUE: add32:carry <- undef
	@DEBUG_VALUE: add32:src <- $r8
	@DEBUG_VALUE: add32:dst <- undef
	.loc	3 975 10                        @ ../../../components/network/thread/subg_openthread/third_party/mbedtls/repo/library/ecp_curves.c:975:10
	adds.w	r0, r0, r8
	adc	r6, r12, #0
.Ltmp131:
	.loc	3 976 12                        @ ../../../components/network/thread/subg_openthread/third_party/mbedtls/repo/library/ecp_curves.c:976:12
	adcs	r2, r3
.Ltmp132:
	@DEBUG_VALUE: add32:carry <- undef
	@DEBUG_VALUE: add32:src <- $lr
	@DEBUG_VALUE: add32:dst <- undef
	.loc	3 975 10                        @ ../../../components/network/thread/subg_openthread/third_party/mbedtls/repo/library/ecp_curves.c:975:10
	adds.w	r0, r0, lr
	adc	r3, r12, #0
	.loc	3 976 12                        @ ../../../components/network/thread/subg_openthread/third_party/mbedtls/repo/library/ecp_curves.c:976:12
	adcs	r5, r6
.Ltmp133:
	@DEBUG_VALUE: add32:carry <- undef
	@DEBUG_VALUE: add32:src <- $lr
	@DEBUG_VALUE: add32:dst <- undef
	.loc	3 975 10                        @ ../../../components/network/thread/subg_openthread/third_party/mbedtls/repo/library/ecp_curves.c:975:10
	adds.w	r0, r0, lr
	adc	r6, r12, #0
	.loc	3 976 12                        @ ../../../components/network/thread/subg_openthread/third_party/mbedtls/repo/library/ecp_curves.c:976:12
	adcs	r2, r3
.Ltmp134:
	@DEBUG_VALUE: add32:carry <- undef
	@DEBUG_VALUE: add32:src <- $r9
	@DEBUG_VALUE: add32:dst <- undef
	.loc	3 975 10                        @ ../../../components/network/thread/subg_openthread/third_party/mbedtls/repo/library/ecp_curves.c:975:10
	adds.w	r0, r0, r9
	.loc	3 976 12                        @ ../../../components/network/thread/subg_openthread/third_party/mbedtls/repo/library/ecp_curves.c:976:12
	adc.w	r3, r5, r6
.Ltmp135:
	@DEBUG_VALUE: sub32:carry <- undef
	@DEBUG_VALUE: sub32:src <- $r10
	@DEBUG_VALUE: sub32:dst <- undef
	.loc	3 981 12                        @ ../../../components/network/thread/subg_openthread/third_party/mbedtls/repo/library/ecp_curves.c:981:12
	sbc	r5, r2, #0
	cmp	r0, r10
	it	hs
	movhs	r5, r3
	ldr	r2, [sp, #16]                   @ 4-byte Reload
.Ltmp136:
	@DEBUG_VALUE: sub32:src <- [DW_OP_plus_uconst 16] [$sp+0]
	.loc	3 982 10                        @ ../../../components/network/thread/subg_openthread/third_party/mbedtls/repo/library/ecp_curves.c:982:10
	sub.w	r0, r0, r10
.Ltmp137:
	@DEBUG_VALUE: sub32:carry <- undef
	@DEBUG_VALUE: sub32:dst <- undef
	.loc	3 981 12                        @ ../../../components/network/thread/subg_openthread/third_party/mbedtls/repo/library/ecp_curves.c:981:12
	cmp	r0, r2
	it	lo
	sublo	r5, #1
.Ltmp138:
	@DEBUG_VALUE: ecp_mod_p256:cc <- $r5
	@DEBUG_VALUE: ecp_mod_p256:i <- 6
	.loc	3 982 10                        @ ../../../components/network/thread/subg_openthread/third_party/mbedtls/repo/library/ecp_curves.c:982:10
	subs	r0, r0, r2
.Ltmp139:
	@DEBUG_VALUE: ecp_mod_p256:cur <- $r0
	.loc	3 1098 61                       @ ../../../components/network/thread/subg_openthread/third_party/mbedtls/repo/library/ecp_curves.c:1098:61
	ldr	r2, [r1, #24]
.Ltmp140:
	@DEBUG_VALUE: ecp_mod_p256:cur <- $r2
	@DEBUG_VALUE: ecp_mod_p256:c <- 0
	.loc	3 981 12                        @ ../../../components/network/thread/subg_openthread/third_party/mbedtls/repo/library/ecp_curves.c:981:12
	sxtb	r3, r5
.Ltmp141:
	@DEBUG_VALUE: sub32:src <- [DW_OP_plus_uconst 16] [$sp+0]
	.loc	3 1098 61                       @ ../../../components/network/thread/subg_openthread/third_party/mbedtls/repo/library/ecp_curves.c:1098:61
	cmp.w	r3, #-1
	str	r0, [r1, #20]
	ble	.LBB1_18
.Ltmp142:
@ %bb.17:
	@DEBUG_VALUE: ecp_mod_p256:ret <- [DW_OP_plus_uconst 4] [$sp+0]
	@DEBUG_VALUE: ecp_mod_p256:cc <- $r5
	@DEBUG_VALUE: ecp_mod_p256:N <- $r4
	@DEBUG_VALUE: ecp_mod_p256:cur <- $r2
	@DEBUG_VALUE: ecp_mod_p256:i <- 6
	@DEBUG_VALUE: ecp_mod_p256:c <- 0
	@DEBUG_VALUE: ecp_mod_p256:bits <- 256
	@DEBUG_VALUE: add32:dst <- undef
	@DEBUG_VALUE: add32:src <- $r3
	@DEBUG_VALUE: add32:carry <- undef
	.loc	3 975 10                        @ ../../../components/network/thread/subg_openthread/third_party/mbedtls/repo/library/ecp_curves.c:975:10
	adds	r2, r2, r3
.Ltmp143:
	adc	r12, r12, #0
	b	.LBB1_19
.Ltmp144:
.LBB1_18:
	@DEBUG_VALUE: ecp_mod_p256:ret <- [DW_OP_plus_uconst 4] [$sp+0]
	@DEBUG_VALUE: ecp_mod_p256:cc <- $r5
	@DEBUG_VALUE: ecp_mod_p256:N <- $r4
	@DEBUG_VALUE: ecp_mod_p256:cur <- $r2
	@DEBUG_VALUE: ecp_mod_p256:i <- 6
	@DEBUG_VALUE: ecp_mod_p256:c <- 0
	@DEBUG_VALUE: ecp_mod_p256:bits <- 256
	.loc	3 1098 61                       @ ../../../components/network/thread/subg_openthread/third_party/mbedtls/repo/library/ecp_curves.c:1098:61
	rsbs	r0, r3, #0
.Ltmp145:
	@DEBUG_VALUE: sub32:carry <- undef
	@DEBUG_VALUE: sub32:dst <- undef
	@DEBUG_VALUE: sub32:src <- $r0
	.loc	3 981 22                        @ ../../../components/network/thread/subg_openthread/third_party/mbedtls/repo/library/ecp_curves.c:981:22
	cmp	r2, r0
	it	lo
	movlo.w	r12, #-1
	.loc	3 982 10                        @ ../../../components/network/thread/subg_openthread/third_party/mbedtls/repo/library/ecp_curves.c:982:10
	add	r2, r3
.Ltmp146:
.LBB1_19:
	@DEBUG_VALUE: ecp_mod_p256:ret <- [DW_OP_plus_uconst 4] [$sp+0]
	@DEBUG_VALUE: ecp_mod_p256:cc <- $r5
	@DEBUG_VALUE: ecp_mod_p256:N <- $r4
	@DEBUG_VALUE: ecp_mod_p256:i <- 6
	@DEBUG_VALUE: ecp_mod_p256:c <- 0
	@DEBUG_VALUE: ecp_mod_p256:bits <- 256
	@DEBUG_VALUE: add32:dst <- undef
	@DEBUG_VALUE: add32:src <- $lr
	@DEBUG_VALUE: add32:carry <- undef
	.loc	3 975 10                        @ ../../../components/network/thread/subg_openthread/third_party/mbedtls/repo/library/ecp_curves.c:975:10
	adds.w	r0, lr, r2
	mov.w	r7, #0
	adc	r2, r7, #0
	.loc	3 976 12                        @ ../../../components/network/thread/subg_openthread/third_party/mbedtls/repo/library/ecp_curves.c:976:12
	adc	r3, r12, #0
.Ltmp147:
	@DEBUG_VALUE: add32:carry <- undef
	@DEBUG_VALUE: add32:src <- $lr
	@DEBUG_VALUE: add32:dst <- undef
	.loc	3 975 10                        @ ../../../components/network/thread/subg_openthread/third_party/mbedtls/repo/library/ecp_curves.c:975:10
	adds.w	r0, r0, lr
	adc	r5, r7, #0
.Ltmp148:
	.loc	3 976 12                        @ ../../../components/network/thread/subg_openthread/third_party/mbedtls/repo/library/ecp_curves.c:976:12
	adc.w	r2, r2, r12
.Ltmp149:
	@DEBUG_VALUE: add32:carry <- undef
	@DEBUG_VALUE: add32:src <- $r9
	@DEBUG_VALUE: add32:dst <- undef
	.loc	3 975 10                        @ ../../../components/network/thread/subg_openthread/third_party/mbedtls/repo/library/ecp_curves.c:975:10
	adds.w	r0, r0, r9
	adc	r6, r7, #0
	.loc	3 976 12                        @ ../../../components/network/thread/subg_openthread/third_party/mbedtls/repo/library/ecp_curves.c:976:12
	adcs	r3, r5
.Ltmp150:
	@DEBUG_VALUE: add32:carry <- undef
	@DEBUG_VALUE: add32:src <- $r9
	@DEBUG_VALUE: add32:dst <- undef
	.loc	3 975 10                        @ ../../../components/network/thread/subg_openthread/third_party/mbedtls/repo/library/ecp_curves.c:975:10
	adds.w	r0, r0, r9
	adc	r5, r7, #0
	.loc	3 976 12                        @ ../../../components/network/thread/subg_openthread/third_party/mbedtls/repo/library/ecp_curves.c:976:12
	adcs	r2, r6
.Ltmp151:
	@DEBUG_VALUE: add32:carry <- undef
	@DEBUG_VALUE: add32:src <- $lr
	@DEBUG_VALUE: add32:dst <- undef
	.loc	3 975 10                        @ ../../../components/network/thread/subg_openthread/third_party/mbedtls/repo/library/ecp_curves.c:975:10
	adds.w	r0, r0, lr
	adc	r6, r7, #0
	.loc	3 976 12                        @ ../../../components/network/thread/subg_openthread/third_party/mbedtls/repo/library/ecp_curves.c:976:12
	adcs	r3, r5
.Ltmp152:
	@DEBUG_VALUE: add32:carry <- undef
	@DEBUG_VALUE: add32:src <- $r8
	@DEBUG_VALUE: add32:dst <- undef
	.loc	3 975 10                        @ ../../../components/network/thread/subg_openthread/third_party/mbedtls/repo/library/ecp_curves.c:975:10
	adds.w	r0, r0, r8
	.loc	3 976 12                        @ ../../../components/network/thread/subg_openthread/third_party/mbedtls/repo/library/ecp_curves.c:976:12
	adc.w	r2, r2, r6
.Ltmp153:
	@DEBUG_VALUE: sub32:carry <- undef
	@DEBUG_VALUE: sub32:src <- [DW_OP_plus_uconst 8] [$sp+0]
	@DEBUG_VALUE: sub32:dst <- undef
	.loc	3 0 12 is_stmt 0                @ ../../../components/network/thread/subg_openthread/third_party/mbedtls/repo/library/ecp_curves.c:0:12
	ldr	r6, [sp, #8]                    @ 4-byte Reload
.Ltmp154:
	.loc	3 981 12 is_stmt 1              @ ../../../components/network/thread/subg_openthread/third_party/mbedtls/repo/library/ecp_curves.c:981:12
	sbc	r3, r3, #0
	cmp	r0, r6
	it	hs
	movhs	r3, r2
	ldr	r2, [sp, #12]                   @ 4-byte Reload
.Ltmp155:
	@DEBUG_VALUE: sub32:src <- $r2
	.loc	3 982 10                        @ ../../../components/network/thread/subg_openthread/third_party/mbedtls/repo/library/ecp_curves.c:982:10
	subs	r0, r0, r6
.Ltmp156:
	@DEBUG_VALUE: sub32:carry <- undef
	@DEBUG_VALUE: sub32:dst <- undef
	.loc	3 981 12                        @ ../../../components/network/thread/subg_openthread/third_party/mbedtls/repo/library/ecp_curves.c:981:12
	cmp	r0, r2
	it	lo
	sublo	r3, #1
.Ltmp157:
	@DEBUG_VALUE: ecp_mod_p256:cc <- $r3
	@DEBUG_VALUE: ecp_mod_p256:i <- 7
	.loc	3 982 10                        @ ../../../components/network/thread/subg_openthread/third_party/mbedtls/repo/library/ecp_curves.c:982:10
	subs	r0, r0, r2
.Ltmp158:
	@DEBUG_VALUE: ecp_mod_p256:cur <- $r0
	.loc	3 1101 61                       @ ../../../components/network/thread/subg_openthread/third_party/mbedtls/repo/library/ecp_curves.c:1101:61
	ldr	r2, [r1, #28]
.Ltmp159:
	@DEBUG_VALUE: ecp_mod_p256:cur <- $r2
	@DEBUG_VALUE: ecp_mod_p256:c <- 0
	.loc	3 981 12                        @ ../../../components/network/thread/subg_openthread/third_party/mbedtls/repo/library/ecp_curves.c:981:12
	sxtb	r3, r3
.Ltmp160:
	.loc	3 1101 61                       @ ../../../components/network/thread/subg_openthread/third_party/mbedtls/repo/library/ecp_curves.c:1101:61
	cmp.w	r3, #-1
	str	r0, [r1, #24]
	ble	.LBB1_21
.Ltmp161:
@ %bb.20:
	@DEBUG_VALUE: ecp_mod_p256:ret <- [DW_OP_plus_uconst 4] [$sp+0]
	@DEBUG_VALUE: ecp_mod_p256:N <- $r4
	@DEBUG_VALUE: ecp_mod_p256:cur <- $r2
	@DEBUG_VALUE: ecp_mod_p256:i <- 7
	@DEBUG_VALUE: ecp_mod_p256:c <- 0
	@DEBUG_VALUE: ecp_mod_p256:bits <- 256
	@DEBUG_VALUE: add32:dst <- undef
	@DEBUG_VALUE: add32:src <- $r3
	@DEBUG_VALUE: add32:carry <- undef
	.loc	3 975 10                        @ ../../../components/network/thread/subg_openthread/third_party/mbedtls/repo/library/ecp_curves.c:975:10
	adds	r2, r2, r3
.Ltmp162:
	adc	r7, r7, #0
	b	.LBB1_22
.Ltmp163:
.LBB1_21:
	@DEBUG_VALUE: ecp_mod_p256:ret <- [DW_OP_plus_uconst 4] [$sp+0]
	@DEBUG_VALUE: ecp_mod_p256:N <- $r4
	@DEBUG_VALUE: ecp_mod_p256:cur <- $r2
	@DEBUG_VALUE: ecp_mod_p256:i <- 7
	@DEBUG_VALUE: ecp_mod_p256:c <- 0
	@DEBUG_VALUE: ecp_mod_p256:bits <- 256
	.loc	3 1101 61                       @ ../../../components/network/thread/subg_openthread/third_party/mbedtls/repo/library/ecp_curves.c:1101:61
	rsbs	r0, r3, #0
.Ltmp164:
	@DEBUG_VALUE: sub32:carry <- undef
	@DEBUG_VALUE: sub32:dst <- undef
	@DEBUG_VALUE: sub32:src <- $r0
	.loc	3 981 22                        @ ../../../components/network/thread/subg_openthread/third_party/mbedtls/repo/library/ecp_curves.c:981:22
	cmp	r2, r0
	it	lo
	movlo.w	r7, #-1
	.loc	3 982 10                        @ ../../../components/network/thread/subg_openthread/third_party/mbedtls/repo/library/ecp_curves.c:982:10
	add	r2, r3
.Ltmp165:
.LBB1_22:
	@DEBUG_VALUE: ecp_mod_p256:ret <- [DW_OP_plus_uconst 4] [$sp+0]
	@DEBUG_VALUE: ecp_mod_p256:N <- $r4
	@DEBUG_VALUE: ecp_mod_p256:i <- 7
	@DEBUG_VALUE: ecp_mod_p256:c <- 0
	@DEBUG_VALUE: ecp_mod_p256:bits <- 256
	.loc	3 975 10                        @ ../../../components/network/thread/subg_openthread/third_party/mbedtls/repo/library/ecp_curves.c:975:10
	adds.w	r0, r9, r2
	mov.w	r3, #0
	adc	r2, r3, #0
	.loc	3 976 12                        @ ../../../components/network/thread/subg_openthread/third_party/mbedtls/repo/library/ecp_curves.c:976:12
	adc	r6, r7, #0
.Ltmp166:
	@DEBUG_VALUE: add32:carry <- undef
	@DEBUG_VALUE: add32:src <- $r9
	@DEBUG_VALUE: add32:dst <- undef
	.loc	3 975 10                        @ ../../../components/network/thread/subg_openthread/third_party/mbedtls/repo/library/ecp_curves.c:975:10
	adds.w	r0, r0, r9
	adc	r5, r3, #0
	.loc	3 976 12                        @ ../../../components/network/thread/subg_openthread/third_party/mbedtls/repo/library/ecp_curves.c:976:12
	adcs	r2, r7
.Ltmp167:
	@DEBUG_VALUE: add32:carry <- undef
	@DEBUG_VALUE: add32:src <- $r9
	@DEBUG_VALUE: add32:dst <- undef
	.loc	3 975 10                        @ ../../../components/network/thread/subg_openthread/third_party/mbedtls/repo/library/ecp_curves.c:975:10
	adds.w	r0, r0, r9
	.loc	3 976 12                        @ ../../../components/network/thread/subg_openthread/third_party/mbedtls/repo/library/ecp_curves.c:976:12
	adc.w	r6, r6, r5
.Ltmp168:
	@DEBUG_VALUE: add32:carry <- undef
	@DEBUG_VALUE: add32:dst <- undef
	.loc	3 975 10                        @ ../../../components/network/thread/subg_openthread/third_party/mbedtls/repo/library/ecp_curves.c:975:10
	ldr	r5, [sp, #8]                    @ 4-byte Reload
.Ltmp169:
	@DEBUG_VALUE: add32:src <- $r5
	.loc	3 975 10 is_stmt 0              @ ../../../components/network/thread/subg_openthread/third_party/mbedtls/repo/library/ecp_curves.c:975:10
	adc	r7, r3, #0
.Ltmp170:
	.loc	3 975 10                        @ ../../../components/network/thread/subg_openthread/third_party/mbedtls/repo/library/ecp_curves.c:975:10
	adds	r0, r0, r5
	.loc	3 976 12 is_stmt 1              @ ../../../components/network/thread/subg_openthread/third_party/mbedtls/repo/library/ecp_curves.c:976:12
	adc.w	r2, r2, r7
.Ltmp171:
	@DEBUG_VALUE: sub32:carry <- undef
	@DEBUG_VALUE: sub32:src <- $r10
	@DEBUG_VALUE: sub32:dst <- undef
	.loc	3 981 12                        @ ../../../components/network/thread/subg_openthread/third_party/mbedtls/repo/library/ecp_curves.c:981:12
	sbc	r7, r6, #0
	ldr.w	r12, [sp, #4]                   @ 4-byte Reload
.Ltmp172:
	@DEBUG_VALUE: ecp_mod_p256:ret <- $r12
	@DEBUG_VALUE: add32:dst <- undef
	@DEBUG_VALUE: add32:src <- $r9
	@DEBUG_VALUE: add32:carry <- undef
	cmp	r0, r10
	it	hs
	movhs	r7, r2
	ldr	r2, [sp, #16]                   @ 4-byte Reload
.Ltmp173:
	@DEBUG_VALUE: sub32:src <- $r2
	.loc	3 982 10                        @ ../../../components/network/thread/subg_openthread/third_party/mbedtls/repo/library/ecp_curves.c:982:10
	sub.w	r0, r0, r10
.Ltmp174:
	@DEBUG_VALUE: sub32:carry <- undef
	@DEBUG_VALUE: sub32:dst <- undef
	.loc	3 981 12                        @ ../../../components/network/thread/subg_openthread/third_party/mbedtls/repo/library/ecp_curves.c:981:12
	cmp	r0, r2
	it	lo
	sublo	r7, #1
	.loc	3 982 10                        @ ../../../components/network/thread/subg_openthread/third_party/mbedtls/repo/library/ecp_curves.c:982:10
	subs	r0, r0, r2
.Ltmp175:
	@DEBUG_VALUE: sub32:carry <- undef
	@DEBUG_VALUE: sub32:src <- $r11
	@DEBUG_VALUE: sub32:dst <- undef
	.loc	3 981 12                        @ ../../../components/network/thread/subg_openthread/third_party/mbedtls/repo/library/ecp_curves.c:981:12
	cmp	r0, r11
	it	lo
	sublo	r7, #1
	.loc	3 982 10                        @ ../../../components/network/thread/subg_openthread/third_party/mbedtls/repo/library/ecp_curves.c:982:10
	sub.w	r0, r0, r11
.Ltmp176:
	@DEBUG_VALUE: sub32:carry <- undef
	@DEBUG_VALUE: sub32:src <- $r8
	@DEBUG_VALUE: sub32:dst <- undef
	.loc	3 981 12                        @ ../../../components/network/thread/subg_openthread/third_party/mbedtls/repo/library/ecp_curves.c:981:12
	cmp	r0, r8
	it	lo
	sublo	r7, #1
.Ltmp177:
	@DEBUG_VALUE: ecp_mod_p256:c <- $r7
	sxtb	r2, r7
.Ltmp178:
	.loc	3 982 10                        @ ../../../components/network/thread/subg_openthread/third_party/mbedtls/repo/library/ecp_curves.c:982:10
	sub.w	r0, r0, r8
.Ltmp179:
	@DEBUG_VALUE: ecp_mod_p256:cur <- $r0
	@DEBUG_VALUE: ecp_mod_p256:i <- 8
	.loc	3 1104 61                       @ ../../../components/network/thread/subg_openthread/third_party/mbedtls/repo/library/ecp_curves.c:1104:61
	bic.w	r7, r2, r2, asr #31
.Ltmp180:
	@DEBUG_VALUE: ecp_mod_p256:cur <- 0
	@DEBUG_VALUE: ecp_mod_p256:i <- 9
	strd	r0, r7, [r1, #28]
	ldr	r0, [r4, #4]
	cmp	r0, #10
	blo	.LBB1_25
.Ltmp181:
@ %bb.23:
	@DEBUG_VALUE: ecp_mod_p256:ret <- $r12
	@DEBUG_VALUE: sub32:src <- $r11
	@DEBUG_VALUE: sub32:src <- $r10
	@DEBUG_VALUE: add32:src <- $r9
	@DEBUG_VALUE: add32:src <- $r9
	@DEBUG_VALUE: add32:src <- $r9
	@DEBUG_VALUE: sub32:src <- $r8
	@DEBUG_VALUE: add32:src <- $r5
	@DEBUG_VALUE: ecp_mod_p256:N <- $r4
	@DEBUG_VALUE: ecp_mod_p256:i <- 9
	@DEBUG_VALUE: ecp_mod_p256:cur <- 0
	@DEBUG_VALUE: ecp_mod_p256:bits <- 256
	.loc	3 0 61 is_stmt 0                @ ../../../components/network/thread/subg_openthread/third_party/mbedtls/repo/library/ecp_curves.c:0:61
	movs	r0, #9
.Ltmp182:
	.p2align	2
.LBB1_24:                               @ =>This Inner Loop Header: Depth=1
	@DEBUG_VALUE: ecp_mod_p256:ret <- $r12
	@DEBUG_VALUE: ecp_mod_p256:N <- $r4
	@DEBUG_VALUE: ecp_mod_p256:cur <- 0
	@DEBUG_VALUE: ecp_mod_p256:bits <- 256
	@DEBUG_VALUE: ecp_mod_p256:cur <- 0
	.loc	3 1104 61                       @ ../../../components/network/thread/subg_openthread/third_party/mbedtls/repo/library/ecp_curves.c:1104:61
	str.w	r3, [r1, r0, lsl #2]
.Ltmp183:
	@DEBUG_VALUE: ecp_mod_p256:i <- $r0
	.loc	3 1104 61                       @ ../../../components/network/thread/subg_openthread/third_party/mbedtls/repo/library/ecp_curves.c:1104:61
	ldr	r7, [r4, #4]
	adds	r0, #1
.Ltmp184:
	@DEBUG_VALUE: ecp_mod_p256:i <- $r0
	cmp	r0, r7
	blo	.LBB1_24
.Ltmp185:
.LBB1_25:
	@DEBUG_VALUE: ecp_mod_p256:ret <- $r12
	@DEBUG_VALUE: ecp_mod_p256:N <- $r4
	@DEBUG_VALUE: ecp_mod_p256:cur <- 0
	@DEBUG_VALUE: ecp_mod_p256:bits <- 256
	@DEBUG_VALUE: ecp_mod_p256:c <- $r2
	cmp.w	r2, #-1
	bgt	.LBB1_32
.Ltmp186:
@ %bb.26:
	@DEBUG_VALUE: ecp_mod_p256:ret <- $r12
	@DEBUG_VALUE: ecp_mod_p256:N <- $r4
	@DEBUG_VALUE: ecp_mod_p256:c <- $r2
	@DEBUG_VALUE: ecp_mod_p256:cur <- 0
	@DEBUG_VALUE: ecp_mod_p256:bits <- 256
	@DEBUG_VALUE: mbedtls_ecp_fix_negative:i <- 0
	.loc	3 1032 40 is_stmt 1             @ ../../../components/network/thread/subg_openthread/third_party/mbedtls/repo/library/ecp_curves.c:1032:40
	ldr	r0, [sp]                        @ 4-byte Reload
	mvns	r3, r0
	.loc	3 1032 17 is_stmt 0             @ ../../../components/network/thread/subg_openthread/third_party/mbedtls/repo/library/ecp_curves.c:1032:17
	mov	r0, r1
	str	r3, [r0], #4
	movs	r3, #0
.Ltmp187:
	@DEBUG_VALUE: mbedtls_ecp_fix_negative:i <- 1
	.p2align	2
.LBB1_27:                               @ =>This Inner Loop Header: Depth=1
	@DEBUG_VALUE: ecp_mod_p256:ret <- $r12
	@DEBUG_VALUE: ecp_mod_p256:N <- $r4
	@DEBUG_VALUE: ecp_mod_p256:c <- $r2
	@DEBUG_VALUE: ecp_mod_p256:cur <- 0
	@DEBUG_VALUE: ecp_mod_p256:bits <- 256
	.loc	3 1032 42                       @ ../../../components/network/thread/subg_openthread/third_party/mbedtls/repo/library/ecp_curves.c:1032:42
	ldr.w	r7, [r0, r3, lsl #2]
.Ltmp188:
	@DEBUG_VALUE: mbedtls_ecp_fix_negative:i <- [DW_OP_plus_uconst 1, DW_OP_stack_value] $r3
	.loc	3 1032 40                       @ ../../../components/network/thread/subg_openthread/third_party/mbedtls/repo/library/ecp_curves.c:1032:40
	mvns	r7, r7
	.loc	3 1032 17                       @ ../../../components/network/thread/subg_openthread/third_party/mbedtls/repo/library/ecp_curves.c:1032:17
	str.w	r7, [r0, r3, lsl #2]
.Ltmp189:
	@DEBUG_VALUE: mbedtls_ecp_fix_negative:i <- [DW_OP_plus_uconst 2, DW_OP_stack_value] $r3
	.loc	3 1030 19 is_stmt 1             @ ../../../components/network/thread/subg_openthread/third_party/mbedtls/repo/library/ecp_curves.c:1030:19
	adds	r3, #1
.Ltmp190:
	.loc	3 1030 5 is_stmt 0              @ ../../../components/network/thread/subg_openthread/third_party/mbedtls/repo/library/ecp_curves.c:1030:5
	cmp	r3, #8
	bne	.LBB1_27
.Ltmp191:
@ %bb.28:
	@DEBUG_VALUE: ecp_mod_p256:ret <- $r12
	@DEBUG_VALUE: ecp_mod_p256:N <- $r4
	@DEBUG_VALUE: ecp_mod_p256:c <- $r2
	@DEBUG_VALUE: ecp_mod_p256:cur <- 0
	@DEBUG_VALUE: ecp_mod_p256:bits <- 256
	.loc	3 0 5                           @ ../../../components/network/thread/subg_openthread/third_party/mbedtls/repo/library/ecp_curves.c:0:5
	movs	r0, #0
	movs	r3, #0
.Ltmp192:
	.p2align	2
.LBB1_29:                               @ =>This Inner Loop Header: Depth=1
	@DEBUG_VALUE: ecp_mod_p256:ret <- $r12
	@DEBUG_VALUE: ecp_mod_p256:N <- $r4
	@DEBUG_VALUE: ecp_mod_p256:c <- $r2
	@DEBUG_VALUE: ecp_mod_p256:cur <- 0
	@DEBUG_VALUE: ecp_mod_p256:bits <- 256
	@DEBUG_VALUE: mbedtls_ecp_fix_negative:i <- $r3
	.loc	3 1037 9 is_stmt 1              @ ../../../components/network/thread/subg_openthread/third_party/mbedtls/repo/library/ecp_curves.c:1037:9
	ldr.w	r7, [r1, r3, lsl #2]
	adds	r6, r7, #1
	adc	r7, r0, #0
	.loc	3 1038 27                       @ ../../../components/network/thread/subg_openthread/third_party/mbedtls/repo/library/ecp_curves.c:1038:27
	cmp	r3, #7
	.loc	3 1037 9                        @ ../../../components/network/thread/subg_openthread/third_party/mbedtls/repo/library/ecp_curves.c:1037:9
	str.w	r6, [r1, r3, lsl #2]
.Ltmp193:
	@DEBUG_VALUE: mbedtls_ecp_fix_negative:i <- undef
	.loc	3 1038 27                       @ ../../../components/network/thread/subg_openthread/third_party/mbedtls/repo/library/ecp_curves.c:1038:27
	bhi	.LBB1_31
.Ltmp194:
@ %bb.30:                               @   in Loop: Header=BB1_29 Depth=1
	@DEBUG_VALUE: ecp_mod_p256:ret <- $r12
	@DEBUG_VALUE: ecp_mod_p256:N <- $r4
	@DEBUG_VALUE: ecp_mod_p256:c <- $r2
	@DEBUG_VALUE: ecp_mod_p256:cur <- 0
	@DEBUG_VALUE: ecp_mod_p256:bits <- 256
	cmp	r7, #0
	.loc	3 0 0 is_stmt 0                 @ ../../../components/network/thread/subg_openthread/third_party/mbedtls/repo/library/ecp_curves.c:0:0
	add.w	r3, r3, #1
.Ltmp195:
	@DEBUG_VALUE: mbedtls_ecp_fix_negative:i <- $r3
	.loc	3 1038 27                       @ ../../../components/network/thread/subg_openthread/third_party/mbedtls/repo/library/ecp_curves.c:1038:27
	bne	.LBB1_29
.Ltmp196:
.LBB1_31:
	@DEBUG_VALUE: ecp_mod_p256:ret <- $r12
	@DEBUG_VALUE: ecp_mod_p256:N <- $r4
	@DEBUG_VALUE: ecp_mod_p256:c <- $r2
	@DEBUG_VALUE: ecp_mod_p256:cur <- 0
	@DEBUG_VALUE: ecp_mod_p256:bits <- 256
	.loc	3 0 27                          @ ../../../components/network/thread/subg_openthread/third_party/mbedtls/repo/library/ecp_curves.c:0:27
	mov.w	r0, #-1
	.loc	3 1041 10 is_stmt 1             @ ../../../components/network/thread/subg_openthread/third_party/mbedtls/repo/library/ecp_curves.c:1041:10
	str	r0, [r4]
.Ltmp197:
	@DEBUG_VALUE: mbedtls_ecp_fix_negative:msw <- undef
	.loc	3 1050 48                       @ ../../../components/network/thread/subg_openthread/third_party/mbedtls/repo/library/ecp_curves.c:1050:48
	ldr	r0, [r1, #32]
	subs	r0, r0, r2
	str	r0, [r1, #32]
.Ltmp198:
.LBB1_32:
	@DEBUG_VALUE: ecp_mod_p256:ret <- $r12
	@DEBUG_VALUE: ecp_mod_p256:N <- $r4
	@DEBUG_VALUE: ecp_mod_p256:bits <- 256
	@DEBUG_LABEL: ecp_mod_p256:cleanup
	.loc	3 1107 5                        @ ../../../components/network/thread/subg_openthread/third_party/mbedtls/repo/library/ecp_curves.c:1107:5
	mov	r0, r12
	add	sp, #20
	pop.w	{r4, r5, r6, r7, r8, r9, r10, r11, pc}
.Ltmp199:
.Lfunc_end1:
	.size	ecp_mod_p256, .Lfunc_end1-ecp_mod_p256
	.cfi_endproc
	.cantunwind
	.fnend
                                        @ -- End function
	.type	secp256r1_p,%object             @ @secp256r1_p
	.section	.rodata.secp256r1_p,"a",%progbits
	.p2align	2
secp256r1_p:
	.long	4294967295                      @ 0xffffffff
	.long	4294967295                      @ 0xffffffff
	.long	4294967295                      @ 0xffffffff
	.long	0                               @ 0x0
	.long	0                               @ 0x0
	.long	0                               @ 0x0
	.long	1                               @ 0x1
	.long	4294967295                      @ 0xffffffff
	.size	secp256r1_p, 32

	.type	secp256r1_b,%object             @ @secp256r1_b
	.section	.rodata.secp256r1_b,"a",%progbits
	.p2align	2
secp256r1_b:
	.long	668098635                       @ 0x27d2604b
	.long	1003371582                      @ 0x3bce3c3e
	.long	3428036854                      @ 0xcc53b0f6
	.long	1696401072                      @ 0x651d06b0
	.long	1989707452                      @ 0x769886bc
	.long	3018571093                      @ 0xb3ebbd55
	.long	2855965671                      @ 0xaa3a93e7
	.long	1522939352                      @ 0x5ac635d8
	.size	secp256r1_b, 32

	.type	secp256r1_gx,%object            @ @secp256r1_gx
	.section	.rodata.secp256r1_gx,"a",%progbits
	.p2align	2
secp256r1_gx:
	.long	3633889942                      @ 0xd898c296
	.long	4104206661                      @ 0xf4a13945
	.long	770388896                       @ 0x2deb33a0
	.long	1996717441                      @ 0x77037d81
	.long	1671708914                      @ 0x63a440f2
	.long	4173129445                      @ 0xf8bce6e5
	.long	3777774151                      @ 0xe12c4247
	.long	1796723186                      @ 0x6b17d1f2
	.size	secp256r1_gx, 32

	.type	secp256r1_gy,%object            @ @secp256r1_gy
	.section	.rodata.secp256r1_gy,"a",%progbits
	.p2align	2
secp256r1_gy:
	.long	935285237                       @ 0x37bf51f5
	.long	3417718888                      @ 0xcbb64068
	.long	1798397646                      @ 0x6b315ece
	.long	734933847                       @ 0x2bce3357
	.long	2081398294                      @ 0x7c0f9e16
	.long	2397563722                      @ 0x8ee7eb4a
	.long	4263149467                      @ 0xfe1a7f9b
	.long	1340293858                      @ 0x4fe342e2
	.size	secp256r1_gy, 32

	.type	secp256r1_n,%object             @ @secp256r1_n
	.section	.rodata.secp256r1_n,"a",%progbits
	.p2align	2
secp256r1_n:
	.long	4234356049                      @ 0xfc632551
	.long	4089039554                      @ 0xf3b9cac2
	.long	2803342980                      @ 0xa7179e84
	.long	3169254061                      @ 0xbce6faad
	.long	4294967295                      @ 0xffffffff
	.long	4294967295                      @ 0xffffffff
	.long	0                               @ 0x0
	.long	4294967295                      @ 0xffffffff
	.size	secp256r1_n, 32

	.type	ecp_mpi_set1.one,%object        @ @ecp_mpi_set1.one
	.section	.data.ecp_mpi_set1.one,"aw",%progbits
	.p2align	2
ecp_mpi_set1.one:
	.long	1                               @ 0x1
	.size	ecp_mpi_set1.one, 4

	.section	".note.GNU-stack","",%progbits
	.eabi_attribute	30, 3	@ Tag_ABI_optimization_goals
	.ARM_attribute	16, 1	@ Tag_AV_eba