	.text
	.syntax unified
	.eabi_attribute	67, "2.09"	@ Tag_conformance
	.cpu	cortex-m3
	.eabi_attribute	6, 10	@ Tag_CPU_arch
	.eabi_attribute	7, 77	@ Tag_CPU_arch_profile
	.eabi_attribute	8, 0	@ Tag_ARM_ISA_use
	.eabi_attribute	9, 2	@ Tag_THUMB_ISA_use
	.eabi_attribute	34, 1	@ Tag_CPU_unaligned_access
	.eabi_attribute	17, 1	@ Tag_ABI_PCS_GOT_use
	.eabi_attribute	20, 2	@ Tag_ABI_FP_denormal
	.eabi_attribute	21, 0	@ Tag_ABI_FP_exceptions
	.eabi_attribute	23, 1	@ Tag_ABI_FP_number_model
	.eabi_attribute	24, 1	@ Tag_ABI_align_needed
	.eabi_attribute	25, 1	@ Tag_ABI_align_preserved
	.eabi_attribute	38, 1	@ Tag_ABI_FP_16bit_format
	.eabi_attribute	18, 4	@ Tag_ABI_PCS_wchar_t
	.eabi_attribute	26, 2	@ Tag_ABI_enum_size
	.eabi_attribute	14, 0	@ Tag_ABI_PCS_R9_use
	.file	"efd_port.c"
	.file	1 "C:\\Keil_v5\\ARM\\ARMCLANG\\Bin\\..\\include" "stdint.h"
	.file	2 "D:\\Rafael-IoT-SDK-Internal-main\\examples\\das_subg_thread\\keil" "../../../components/utility/EnhancedFlashDataset/Src/efd_port.c"
	.file	3 "D:\\Rafael-IoT-SDK-Internal-main\\examples\\das_subg_thread\\keil" "../../../components/utility/EnhancedFlashDataset/Inc\\efd_def.h"
	.file	4 "C:\\Keil_v5\\ARM\\ARMCLANG\\Bin\\..\\include" "stddef.h"
	.file	5 "D:\\Rafael-IoT-SDK-Internal-main\\examples\\das_subg_thread\\keil" "../../../components/platform/soc/rt582/rt582_driver/Inc/flashctl.h"
	.file	6 "D:\\Rafael-IoT-SDK-Internal-main\\examples\\das_subg_thread\\keil" "../../../components/platform/soc/rt582/rt582_driver/Inc/flashctl_reg.h"
	.section	.text.efd_port_init,"ax",%progbits
	.hidden	efd_port_init                   @ -- Begin function efd_port_init
	.globl	efd_port_init
	.p2align	1
	.type	efd_port_init,%function
	.code	16                              @ @efd_port_init
	.thumb_func
efd_port_init:
.Lfunc_begin0:
	.loc	2 23 0                          @ ../../../components/utility/EnhancedFlashDataset/Src/efd_port.c:23:0
	.fnstart
	.cfi_sections .debug_frame
	.cfi_startproc
@ %bb.0:
	@DEBUG_VALUE: efd_port_init:default_env <- $r0
	@DEBUG_VALUE: efd_port_init:default_env <- $r0
	@DEBUG_VALUE: efd_port_init:default_env_size <- $r1
	@DEBUG_VALUE: efd_port_init:default_env_size <- $r1
	@DEBUG_VALUE: efd_port_init:result <- 0
	.loc	2 26 23 prologue_end            @ ../../../components/utility/EnhancedFlashDataset/Src/efd_port.c:26:23
	movw	r2, :lower16:default_env_set
	movt	r2, :upper16:default_env_set
	str	r2, [r0]
	movs	r2, #1
	.loc	2 29 5                          @ ../../../components/utility/EnhancedFlashDataset/Src/efd_port.c:29:5
	movs	r0, #0
.Ltmp0:
	@DEBUG_VALUE: efd_port_init:default_env <- [DW_OP_LLVM_entry_value 1] $r0
	.loc	2 27 23                         @ ../../../components/utility/EnhancedFlashDataset/Src/efd_port.c:27:23
	str	r2, [r1]
	.loc	2 29 5                          @ ../../../components/utility/EnhancedFlashDataset/Src/efd_port.c:29:5
	bx	lr
.Ltmp1:
.Lfunc_end0:
	.size	efd_port_init, .Lfunc_end0-efd_port_init
	.cfi_endproc
	.cantunwind
	.fnend
                                        @ -- End function
	.section	.text.efd_port_read,"ax",%progbits
	.hidden	efd_port_read                   @ -- Begin function efd_port_read
	.globl	efd_port_read
	.p2align	1
	.type	efd_port_read,%function
	.code	16                              @ @efd_port_read
	.thumb_func
efd_port_read:
.Lfunc_begin1:
	.loc	2 43 0                          @ ../../../components/utility/EnhancedFlashDataset/Src/efd_port.c:43:0
	.fnstart
	.cfi_startproc
@ %bb.0:
	@DEBUG_VALUE: efd_port_read:addr <- $r0
	@DEBUG_VALUE: efd_port_read:buf <- $r1
	@DEBUG_VALUE: efd_port_read:size <- $r2
	.save	{r4, r5, r6, r7, r8, r9, r10, r11, lr}
	push.w	{r4, r5, r6, r7, r8, r9, r10, r11, lr}
	.cfi_def_cfa_offset 36
	.cfi_offset lr, -4
	.cfi_offset r11, -8
	.cfi_offset r10, -12
	.cfi_offset r9, -16
	.cfi_offset r8, -20
	.cfi_offset r7, -24
	.cfi_offset r6, -28
	.cfi_offset r5, -32
	.cfi_offset r4, -36
	.pad	#4
	sub	sp, #4
	.cfi_def_cfa_offset 40
	movs	r6, #8
	movw	r9, :lower16:mpcache_buf
	mov	r4, r2
.Ltmp2:
	@DEBUG_VALUE: efd_port_read:size <- $r4
	mov	r8, r1
.Ltmp3:
	@DEBUG_VALUE: efd_port_read:buf <- $r8
	movt	r6, #41008
.Ltmp4:
	@DEBUG_VALUE: efd_port_read:tmp <- undef
	@DEBUG_VALUE: efd_port_read:r_pos <- 0
	@DEBUG_VALUE: efd_port_read:r_size <- 0
	@DEBUG_VALUE: efd_port_read:start_pos <- $r0
	@DEBUG_VALUE: efd_port_read:ptr <- undef
	@DEBUG_VALUE: efd_port_read:result <- 0
	@DEBUG_VALUE: efd_port_read:size <- $r4
	@DEBUG_VALUE: efd_port_read:buf <- $r8
	@DEBUG_VALUE: efd_port_read:addr <- $r0
	.loc	2 53 5 prologue_end             @ ../../../components/utility/EnhancedFlashDataset/Src/efd_port.c:53:5
	uxtb	r7, r0
	mov.w	r11, #0
	movt	r9, :upper16:mpcache_buf
.Ltmp5:
	.p2align	2
.LBB1_1:                                @ =>This Loop Header: Depth=1
                                        @     Child Loop BB1_3 Depth 2
                                        @     Child Loop BB1_5 Depth 2
	@DEBUG_VALUE: efd_port_read:buf <- $r8
	@DEBUG_VALUE: efd_port_read:addr <- $r0
	@DEBUG_VALUE: efd_port_read:result <- 0
	@DEBUG_VALUE: efd_port_read:addr <- $r0
	@DEBUG_VALUE: efd_port_read:start_pos <- undef
	@DEBUG_VALUE: efd_port_read:r_pos <- $r11
	@DEBUG_VALUE: efd_port_read:tmp <- $r4
	.loc	2 56 13                         @ ../../../components/utility/EnhancedFlashDataset/Src/efd_port.c:56:13
	cmp	r4, #1
	beq	.LBB1_7
.Ltmp6:
@ %bb.2:                                @   in Loop: Header=BB1_1 Depth=1
	@DEBUG_VALUE: efd_port_read:r_pos <- $r11
	@DEBUG_VALUE: efd_port_read:buf <- $r8
	@DEBUG_VALUE: efd_port_read:tmp <- $r4
	@DEBUG_VALUE: efd_port_read:addr <- $r0
	@DEBUG_VALUE: efd_port_read:result <- 0
	.loc	2 68 18                         @ ../../../components/utility/EnhancedFlashDataset/Src/efd_port.c:68:18
	adds	r5, r4, r7
.Ltmp7:
	.p2align	2
.LBB1_3:                                @   Parent Loop BB1_1 Depth=1
                                        @ =>  This Inner Loop Header: Depth=2
	@DEBUG_VALUE: efd_port_read:r_pos <- $r11
	@DEBUG_VALUE: efd_port_read:buf <- $r8
	@DEBUG_VALUE: efd_port_read:tmp <- $r4
	@DEBUG_VALUE: efd_port_read:addr <- $r0
	@DEBUG_VALUE: efd_port_read:result <- 0
	.loc	5 566 21                        @ ../../../components/platform/soc/rt582/rt582_driver/Inc/flashctl.h:566:21
	ldr	r1, [r6]
.Ltmp8:
	.loc	2 77 9                          @ ../../../components/utility/EnhancedFlashDataset/Src/efd_port.c:77:9
	lsls	r1, r1, #23
	bmi	.LBB1_3
.Ltmp9:
@ %bb.4:                                @   in Loop: Header=BB1_1 Depth=1
	@DEBUG_VALUE: efd_port_read:r_pos <- $r11
	@DEBUG_VALUE: efd_port_read:buf <- $r8
	@DEBUG_VALUE: efd_port_read:tmp <- $r4
	@DEBUG_VALUE: efd_port_read:addr <- $r0
	@DEBUG_VALUE: efd_port_read:result <- 0
	.loc	2 66 14                         @ ../../../components/utility/EnhancedFlashDataset/Src/efd_port.c:66:14
	sub.w	r10, r0, r7
.Ltmp10:
	@DEBUG_VALUE: efd_port_read:addr <- $r10
	.loc	2 79 9                          @ ../../../components/utility/EnhancedFlashDataset/Src/efd_port.c:79:9
	mov	r0, r9
	mov	r1, r10
	bl	flash_read_page
.Ltmp11:
	.p2align	2
.LBB1_5:                                @   Parent Loop BB1_1 Depth=1
                                        @ =>  This Inner Loop Header: Depth=2
	@DEBUG_VALUE: efd_port_read:r_pos <- $r11
	@DEBUG_VALUE: efd_port_read:addr <- $r10
	@DEBUG_VALUE: efd_port_read:buf <- $r8
	@DEBUG_VALUE: efd_port_read:tmp <- $r4
	@DEBUG_VALUE: efd_port_read:result <- 0
	.loc	5 566 21                        @ ../../../components/platform/soc/rt582/rt582_driver/Inc/flashctl.h:566:21
	ldr	r0, [r6]
.Ltmp12:
	.loc	2 81 9                          @ ../../../components/utility/EnhancedFlashDataset/Src/efd_port.c:81:9
	lsls	r0, r0, #23
	bmi	.LBB1_5
.Ltmp13:
@ %bb.6:                                @   in Loop: Header=BB1_1 Depth=1
	@DEBUG_VALUE: efd_port_read:r_pos <- $r11
	@DEBUG_VALUE: efd_port_read:addr <- $r10
	@DEBUG_VALUE: efd_port_read:buf <- $r8
	@DEBUG_VALUE: efd_port_read:tmp <- $r4
	@DEBUG_VALUE: efd_port_read:result <- 0
	.loc	2 68 13                         @ ../../../components/utility/EnhancedFlashDataset/Src/efd_port.c:68:13
	cmp.w	r5, #256
	mov	r5, r4
	it	hs
	rsbhs.w	r5, r7, #256
.Ltmp14:
	@DEBUG_VALUE: efd_port_read:r_size <- $r5
	.loc	2 84 17                         @ ../../../components/utility/EnhancedFlashDataset/Src/efd_port.c:84:17
	add.w	r0, r8, r11
	.loc	2 84 30 is_stmt 0               @ ../../../components/utility/EnhancedFlashDataset/Src/efd_port.c:84:30
	add.w	r1, r9, r7
	.loc	2 84 9                          @ ../../../components/utility/EnhancedFlashDataset/Src/efd_port.c:84:9
	mov	r2, r5
	bl	__aeabi_memcpy
.Ltmp15:
	.loc	2 86 13 is_stmt 1               @ ../../../components/utility/EnhancedFlashDataset/Src/efd_port.c:86:13
	subs	r4, r4, r5
.Ltmp16:
	@DEBUG_VALUE: efd_port_read:tmp <- $r4
	.loc	2 87 15                         @ ../../../components/utility/EnhancedFlashDataset/Src/efd_port.c:87:15
	add	r11, r5
.Ltmp17:
	@DEBUG_VALUE: efd_port_read:r_pos <- $r11
	@DEBUG_VALUE: efd_port_read:start_pos <- 0
	.loc	2 89 14                         @ ../../../components/utility/EnhancedFlashDataset/Src/efd_port.c:89:14
	add.w	r0, r10, #256
.Ltmp18:
	@DEBUG_VALUE: efd_port_read:addr <- $r0
	.loc	2 0 14 is_stmt 0                @ ../../../components/utility/EnhancedFlashDataset/Src/efd_port.c:0:14
	mov.w	r7, #0
	.loc	2 91 5 is_stmt 1                @ ../../../components/utility/EnhancedFlashDataset/Src/efd_port.c:91:5
	bne	.LBB1_1
	b	.LBB1_10
.Ltmp19:
	.p2align	2
.LBB1_7:                                @ =>This Inner Loop Header: Depth=1
	@DEBUG_VALUE: efd_port_read:r_pos <- $r11
	@DEBUG_VALUE: efd_port_read:buf <- $r8
	@DEBUG_VALUE: efd_port_read:tmp <- $r4
	@DEBUG_VALUE: efd_port_read:addr <- $r0
	@DEBUG_VALUE: efd_port_read:result <- 0
	.loc	5 566 21                        @ ../../../components/platform/soc/rt582/rt582_driver/Inc/flashctl.h:566:21
	ldr	r1, [r6]
.Ltmp20:
	.loc	2 58 13                         @ ../../../components/utility/EnhancedFlashDataset/Src/efd_port.c:58:13
	lsls	r1, r1, #23
	bmi	.LBB1_7
.Ltmp21:
@ %bb.8:
	@DEBUG_VALUE: efd_port_read:r_pos <- $r11
	@DEBUG_VALUE: efd_port_read:buf <- $r8
	@DEBUG_VALUE: efd_port_read:tmp <- $r4
	@DEBUG_VALUE: efd_port_read:addr <- $r0
	@DEBUG_VALUE: efd_port_read:result <- 0
	.loc	2 60 26                         @ ../../../components/utility/EnhancedFlashDataset/Src/efd_port.c:60:26
	bl	flash_read_byte
.Ltmp22:
	@DEBUG_VALUE: efd_port_read:addr <- [DW_OP_LLVM_entry_value 1] $r0
	.loc	2 60 24 is_stmt 0               @ ../../../components/utility/EnhancedFlashDataset/Src/efd_port.c:60:24
	strb.w	r0, [r8, r11]
.Ltmp23:
	.p2align	2
.LBB1_9:                                @ =>This Inner Loop Header: Depth=1
	@DEBUG_VALUE: efd_port_read:r_pos <- $r11
	@DEBUG_VALUE: efd_port_read:buf <- $r8
	@DEBUG_VALUE: efd_port_read:tmp <- $r4
	@DEBUG_VALUE: efd_port_read:result <- 0
	.loc	5 566 21 is_stmt 1              @ ../../../components/platform/soc/rt582/rt582_driver/Inc/flashctl.h:566:21
	ldr	r0, [r6]
.Ltmp24:
	.loc	2 61 13                         @ ../../../components/utility/EnhancedFlashDataset/Src/efd_port.c:61:13
	lsls	r0, r0, #23
	bmi	.LBB1_9
.Ltmp25:
.LBB1_10:
	@DEBUG_VALUE: efd_port_read:r_pos <- $r11
	@DEBUG_VALUE: efd_port_read:buf <- $r8
	@DEBUG_VALUE: efd_port_read:tmp <- $r4
	@DEBUG_VALUE: efd_port_read:result <- 0
	.loc	2 93 5                          @ ../../../components/utility/EnhancedFlashDataset/Src/efd_port.c:93:5
	movs	r0, #0
	add	sp, #4
	pop.w	{r4, r5, r6, r7, r8, r9, r10, r11, pc}
.Ltmp26:
.Lfunc_end1:
	.size	efd_port_read, .Lfunc_end1-efd_port_read
	.cfi_endproc
	.cantunwind
	.fnend
                                        @ -- End function
	.section	.text.efd_port_erase,"ax",%progbits
	.hidden	efd_port_erase                  @ -- Begin function efd_port_erase
	.globl	efd_port_erase
	.p2align	2
	.type	efd_port_erase,%function
	.code	16                              @ @efd_port_erase
	.thumb_func
efd_port_erase:
.Lfunc_begin2:
	.loc	2 107 0                         @ ../../../components/utility/EnhancedFlashDataset/Src/efd_port.c:107:0
	.fnstart
	.cfi_startproc
@ %bb.0:
	@DEBUG_VALUE: efd_port_erase:addr <- $r0
	@DEBUG_VALUE: efd_port_erase:size <- $r1
	.save	{r7, lr}
	push	{r7, lr}
	.cfi_def_cfa_offset 8
	.cfi_offset lr, -4
	.cfi_offset r7, -8
	mov	r1, r0
.Ltmp27:
	@DEBUG_VALUE: efd_port_erase:size <- [DW_OP_LLVM_entry_value 1] $r1
	@DEBUG_VALUE: efd_port_erase:result <- 0
	@DEBUG_VALUE: efd_port_erase:addr <- $r1
	.loc	2 112 5 prologue_end            @ ../../../components/utility/EnhancedFlashDataset/Src/efd_port.c:112:5
	lsls	r0, r0, #20
	beq	.LBB2_3
.Ltmp28:
@ %bb.1:
	@DEBUG_VALUE: efd_port_erase:addr <- $r1
	@DEBUG_VALUE: efd_port_erase:result <- 0
	@DEBUG_VALUE: efd_port_erase:size <- [DW_OP_LLVM_entry_value 1] $r1
	.loc	2 112 5 is_stmt 0               @ ../../../components/utility/EnhancedFlashDataset/Src/efd_port.c:112:5
	adr	r0, .LCPI2_0
	adr	r1, .LCPI2_1
.Ltmp29:
	movs	r2, #112
	bl	__2printf
.Ltmp30:
	.p2align	2
.LBB2_2:                                @ =>This Inner Loop Header: Depth=1
	@DEBUG_VALUE: efd_port_erase:result <- 0
	@DEBUG_VALUE: efd_port_erase:size <- [DW_OP_LLVM_entry_value 1] $r1
	b	.LBB2_2
.Ltmp31:
.LBB2_3:
	@DEBUG_VALUE: efd_port_erase:addr <- $r1
	@DEBUG_VALUE: efd_port_erase:result <- 0
	@DEBUG_VALUE: efd_port_erase:size <- [DW_OP_LLVM_entry_value 1] $r1
	.loc	2 115 5 is_stmt 1               @ ../../../components/utility/EnhancedFlashDataset/Src/efd_port.c:115:5
	movs	r0, #1
	bl	flash_erase
.Ltmp32:
	.loc	2 0 5 is_stmt 0                 @ ../../../components/utility/EnhancedFlashDataset/Src/efd_port.c:0:5
	movs	r0, #8
	movt	r0, #41008
.Ltmp33:
	.p2align	2
.LBB2_4:                                @ =>This Inner Loop Header: Depth=1
	@DEBUG_VALUE: efd_port_erase:result <- 0
	@DEBUG_VALUE: efd_port_erase:size <- [DW_OP_LLVM_entry_value 1] $r1
	.loc	5 566 21 is_stmt 1              @ ../../../components/platform/soc/rt582/rt582_driver/Inc/flashctl.h:566:21
	ldr	r1, [r0]
.Ltmp34:
	.loc	2 116 5                         @ ../../../components/utility/EnhancedFlashDataset/Src/efd_port.c:116:5
	lsls	r1, r1, #23
	bmi	.LBB2_4
.Ltmp35:
@ %bb.5:
	@DEBUG_VALUE: efd_port_erase:result <- 0
	@DEBUG_VALUE: efd_port_erase:size <- [DW_OP_LLVM_entry_value 1] $r1
	.loc	2 119 5                         @ ../../../components/utility/EnhancedFlashDataset/Src/efd_port.c:119:5
	movs	r0, #0
	pop	{r7, pc}
.Ltmp36:
	.p2align	2
@ %bb.6:
	.loc	2 0 5 is_stmt 0                 @ ../../../components/utility/EnhancedFlashDataset/Src/efd_port.c:0:5
.LCPI2_0:
.L.str:
	.asciz	"assert: %s:%d\n\r\n\000\000\000"
.LCPI2_1:
.L.str.1:
	.asciz	"../../../components/utility/EnhancedFlashDataset/Src/efd_port.c"
.Lfunc_end2:
	.size	efd_port_erase, .Lfunc_end2-efd_port_erase
	.cfi_endproc
	.cantunwind
	.fnend
                                        @ -- End function
	.section	.text.efd_port_write,"ax",%progbits
	.hidden	efd_port_write                  @ -- Begin function efd_port_write
	.globl	efd_port_write
	.p2align	1
	.type	efd_port_write,%function
	.code	16                              @ @efd_port_write
	.thumb_func
efd_port_write:
.Lfunc_begin3:
	.loc	2 133 0 is_stmt 1               @ ../../../components/utility/EnhancedFlashDataset/Src/efd_port.c:133:0
	.fnstart
	.cfi_startproc
@ %bb.0:
	@DEBUG_VALUE: efd_port_write:addr <- $r0
	@DEBUG_VALUE: efd_port_write:buf <- $r1
	@DEBUG_VALUE: efd_port_write:size <- $r2
	.save	{r4, r5, r6, r7, r8, r9, r10, r11, lr}
	push.w	{r4, r5, r6, r7, r8, r9, r10, r11, lr}
	.cfi_def_cfa_offset 36
	.cfi_offset lr, -4
	.cfi_offset r11, -8
	.cfi_offset r10, -12
	.cfi_offset r9, -16
	.cfi_offset r8, -20
	.cfi_offset r7, -24
	.cfi_offset r6, -28
	.cfi_offset r5, -32
	.cfi_offset r4, -36
	.pad	#4
	sub	sp, #4
	.cfi_def_cfa_offset 40
	movs	r7, #8
	movw	r9, :lower16:mpcache_buf
	mov	r4, r2
.Ltmp37:
	@DEBUG_VALUE: efd_port_write:size <- $r4
	mov	r8, r1
.Ltmp38:
	@DEBUG_VALUE: efd_port_write:buf <- $r8
	mov	r11, r0
	movt	r7, #41008
.Ltmp39:
	@DEBUG_VALUE: efd_port_write:tmp <- undef
	@DEBUG_VALUE: efd_port_write:w_pos <- 0
	@DEBUG_VALUE: efd_port_write:w_size <- 0
	@DEBUG_VALUE: efd_port_write:start_pos <- $r11
	@DEBUG_VALUE: efd_port_write:ptr <- undef
	@DEBUG_VALUE: efd_port_write:result <- 0
	@DEBUG_VALUE: efd_port_write:size <- $r4
	@DEBUG_VALUE: efd_port_write:buf <- $r8
	@DEBUG_VALUE: efd_port_write:addr <- $r11
	.loc	2 143 5 prologue_end            @ ../../../components/utility/EnhancedFlashDataset/Src/efd_port.c:143:5
	uxtb	r6, r0
	mov.w	r10, #0
	movt	r9, :upper16:mpcache_buf
.Ltmp40:
	.p2align	2
.LBB3_1:                                @ =>This Loop Header: Depth=1
                                        @     Child Loop BB3_3 Depth 2
                                        @     Child Loop BB3_5 Depth 2
	@DEBUG_VALUE: efd_port_write:addr <- $r11
	@DEBUG_VALUE: efd_port_write:buf <- $r8
	@DEBUG_VALUE: efd_port_write:result <- 0
	@DEBUG_VALUE: efd_port_write:addr <- $r11
	@DEBUG_VALUE: efd_port_write:start_pos <- undef
	@DEBUG_VALUE: efd_port_write:w_pos <- $r10
	@DEBUG_VALUE: efd_port_write:tmp <- $r4
	.loc	2 146 13                        @ ../../../components/utility/EnhancedFlashDataset/Src/efd_port.c:146:13
	cmp	r4, #1
	beq	.LBB3_7
.Ltmp41:
@ %bb.2:                                @   in Loop: Header=BB3_1 Depth=1
	@DEBUG_VALUE: efd_port_write:addr <- $r11
	@DEBUG_VALUE: efd_port_write:w_pos <- $r10
	@DEBUG_VALUE: efd_port_write:buf <- $r8
	@DEBUG_VALUE: efd_port_write:tmp <- $r4
	@DEBUG_VALUE: efd_port_write:result <- 0
	.loc	2 158 9                         @ ../../../components/utility/EnhancedFlashDataset/Src/efd_port.c:158:9
	mov	r0, r9
	mov.w	r1, #256
	movs	r2, #255
	bl	__aeabi_memset4
.Ltmp42:
	.loc	2 160 18                        @ ../../../components/utility/EnhancedFlashDataset/Src/efd_port.c:160:18
	adds	r0, r4, r6
.Ltmp43:
	.loc	2 160 13 is_stmt 0              @ ../../../components/utility/EnhancedFlashDataset/Src/efd_port.c:160:13
	mov	r5, r4
	cmp.w	r0, #256
	it	hs
	rsbhs.w	r5, r6, #256
.Ltmp44:
	@DEBUG_VALUE: efd_port_write:w_size <- $r5
	.loc	2 169 17 is_stmt 1              @ ../../../components/utility/EnhancedFlashDataset/Src/efd_port.c:169:17
	add.w	r0, r9, r6
	.loc	2 169 42 is_stmt 0              @ ../../../components/utility/EnhancedFlashDataset/Src/efd_port.c:169:42
	add.w	r1, r8, r10
	.loc	2 169 9                         @ ../../../components/utility/EnhancedFlashDataset/Src/efd_port.c:169:9
	mov	r2, r5
	bl	__aeabi_memcpy
.Ltmp45:
	.p2align	2
.LBB3_3:                                @   Parent Loop BB3_1 Depth=1
                                        @ =>  This Inner Loop Header: Depth=2
	@DEBUG_VALUE: efd_port_write:addr <- $r11
	@DEBUG_VALUE: efd_port_write:w_pos <- $r10
	@DEBUG_VALUE: efd_port_write:buf <- $r8
	@DEBUG_VALUE: efd_port_write:w_size <- $r5
	@DEBUG_VALUE: efd_port_write:tmp <- $r4
	@DEBUG_VALUE: efd_port_write:result <- 0
	.loc	5 566 21 is_stmt 1              @ ../../../components/platform/soc/rt582/rt582_driver/Inc/flashctl.h:566:21
	ldr	r0, [r7]
.Ltmp46:
	.loc	2 170 9                         @ ../../../components/utility/EnhancedFlashDataset/Src/efd_port.c:170:9
	lsls	r0, r0, #23
	bmi	.LBB3_3
.Ltmp47:
@ %bb.4:                                @   in Loop: Header=BB3_1 Depth=1
	@DEBUG_VALUE: efd_port_write:addr <- $r11
	@DEBUG_VALUE: efd_port_write:w_pos <- $r10
	@DEBUG_VALUE: efd_port_write:buf <- $r8
	@DEBUG_VALUE: efd_port_write:w_size <- $r5
	@DEBUG_VALUE: efd_port_write:tmp <- $r4
	@DEBUG_VALUE: efd_port_write:result <- 0
	.loc	2 156 14                        @ ../../../components/utility/EnhancedFlashDataset/Src/efd_port.c:156:14
	sub.w	r6, r11, r6
.Ltmp48:
	@DEBUG_VALUE: efd_port_write:addr <- $r6
	.loc	2 172 9                         @ ../../../components/utility/EnhancedFlashDataset/Src/efd_port.c:172:9
	mov	r0, r9
	mov	r1, r6
	bl	flash_write_page
.Ltmp49:
	.p2align	2
.LBB3_5:                                @   Parent Loop BB3_1 Depth=1
                                        @ =>  This Inner Loop Header: Depth=2
	@DEBUG_VALUE: efd_port_write:w_pos <- $r10
	@DEBUG_VALUE: efd_port_write:buf <- $r8
	@DEBUG_VALUE: efd_port_write:addr <- $r6
	@DEBUG_VALUE: efd_port_write:w_size <- $r5
	@DEBUG_VALUE: efd_port_write:tmp <- $r4
	@DEBUG_VALUE: efd_port_write:result <- 0
	.loc	5 566 21                        @ ../../../components/platform/soc/rt582/rt582_driver/Inc/flashctl.h:566:21
	ldr	r0, [r7]
.Ltmp50:
	.loc	2 174 9                         @ ../../../components/utility/EnhancedFlashDataset/Src/efd_port.c:174:9
	lsls	r0, r0, #23
	bmi	.LBB3_5
.Ltmp51:
@ %bb.6:                                @   in Loop: Header=BB3_1 Depth=1
	@DEBUG_VALUE: efd_port_write:w_pos <- $r10
	@DEBUG_VALUE: efd_port_write:buf <- $r8
	@DEBUG_VALUE: efd_port_write:addr <- $r6
	@DEBUG_VALUE: efd_port_write:w_size <- $r5
	@DEBUG_VALUE: efd_port_write:tmp <- $r4
	@DEBUG_VALUE: efd_port_write:result <- 0
	.loc	2 177 13                        @ ../../../components/utility/EnhancedFlashDataset/Src/efd_port.c:177:13
	subs	r4, r4, r5
.Ltmp52:
	@DEBUG_VALUE: efd_port_write:tmp <- $r4
	.loc	2 178 15                        @ ../../../components/utility/EnhancedFlashDataset/Src/efd_port.c:178:15
	add	r10, r5
.Ltmp53:
	@DEBUG_VALUE: efd_port_write:w_pos <- $r10
	@DEBUG_VALUE: efd_port_write:start_pos <- 0
	.loc	2 180 14                        @ ../../../components/utility/EnhancedFlashDataset/Src/efd_port.c:180:14
	add.w	r11, r6, #256
.Ltmp54:
	@DEBUG_VALUE: efd_port_write:addr <- $r11
	.loc	2 0 14 is_stmt 0                @ ../../../components/utility/EnhancedFlashDataset/Src/efd_port.c:0:14
	mov.w	r6, #0
	.loc	2 182 5 is_stmt 1               @ ../../../components/utility/EnhancedFlashDataset/Src/efd_port.c:182:5
	bne	.LBB3_1
	b	.LBB3_10
.Ltmp55:
	.p2align	2
.LBB3_7:                                @ =>This Inner Loop Header: Depth=1
	@DEBUG_VALUE: efd_port_write:addr <- $r11
	@DEBUG_VALUE: efd_port_write:w_pos <- $r10
	@DEBUG_VALUE: efd_port_write:buf <- $r8
	@DEBUG_VALUE: efd_port_write:tmp <- $r4
	@DEBUG_VALUE: efd_port_write:result <- 0
	.loc	5 566 21                        @ ../../../components/platform/soc/rt582/rt582_driver/Inc/flashctl.h:566:21
	ldr	r0, [r7]
.Ltmp56:
	.loc	2 148 13                        @ ../../../components/utility/EnhancedFlashDataset/Src/efd_port.c:148:13
	lsls	r0, r0, #23
	bmi	.LBB3_7
.Ltmp57:
@ %bb.8:
	@DEBUG_VALUE: efd_port_write:addr <- $r11
	@DEBUG_VALUE: efd_port_write:w_pos <- $r10
	@DEBUG_VALUE: efd_port_write:buf <- $r8
	@DEBUG_VALUE: efd_port_write:tmp <- $r4
	@DEBUG_VALUE: efd_port_write:result <- 0
	.loc	2 150 36                        @ ../../../components/utility/EnhancedFlashDataset/Src/efd_port.c:150:36
	ldrb.w	r1, [r8, r10]
	.loc	2 150 13 is_stmt 0              @ ../../../components/utility/EnhancedFlashDataset/Src/efd_port.c:150:13
	mov	r0, r11
	bl	flash_write_byte
.Ltmp58:
	.p2align	2
.LBB3_9:                                @ =>This Inner Loop Header: Depth=1
	@DEBUG_VALUE: efd_port_write:addr <- $r11
	@DEBUG_VALUE: efd_port_write:w_pos <- $r10
	@DEBUG_VALUE: efd_port_write:buf <- $r8
	@DEBUG_VALUE: efd_port_write:tmp <- $r4
	@DEBUG_VALUE: efd_port_write:result <- 0
	.loc	5 566 21 is_stmt 1              @ ../../../components/platform/soc/rt582/rt582_driver/Inc/flashctl.h:566:21
	ldr	r0, [r7]
.Ltmp59:
	.loc	2 151 13                        @ ../../../components/utility/EnhancedFlashDataset/Src/efd_port.c:151:13
	lsls	r0, r0, #23
	bmi	.LBB3_9
.Ltmp60:
.LBB3_10:
	@DEBUG_VALUE: efd_port_write:addr <- $r11
	@DEBUG_VALUE: efd_port_write:w_pos <- $r10
	@DEBUG_VALUE: efd_port_write:buf <- $r8
	@DEBUG_VALUE: efd_port_write:tmp <- $r4
	@DEBUG_VALUE: efd_port_write:result <- 0
	.loc	2 184 5                         @ ../../../components/utility/EnhancedFlashDataset/Src/efd_port.c:184:5
	movs	r0, #0
	add	sp, #4
	pop.w	{r4, r5, r6, r7, r8, r9, r10, r11, pc}
.Ltmp61:
.Lfunc_end3:
	.size	efd_port_write, .Lfunc_end3-efd_port_write
	.cfi_endproc
	.cantunwind
	.fnend
                                        @ -- End function
	.section	.text.efd_port_env_lock,"ax",%progbits
	.hidden	efd_port_env_lock               @ -- Begin function efd_port_env_lock
	.globl	efd_port_env_lock
	.p2align	1
	.type	efd_port_env_lock,%function
	.code	16                              @ @efd_port_env_lock
	.thumb_func
efd_port_env_lock:
.Lfunc_begin4:
	.loc	2 190 0                         @ ../../../components/utility/EnhancedFlashDataset/Src/efd_port.c:190:0
	.fnstart
	.cfi_startproc
@ %bb.0:
	.loc	2 192 5 prologue_end            @ ../../../components/utility/EnhancedFlashDataset/Src/efd_port.c:192:5
	b	vTaskSuspendAll
.Ltmp62:
.Lfunc_end4:
	.size	efd_port_env_lock, .Lfunc_end4-efd_port_env_lock
	.cfi_endproc
	.file	7 "D:\\Rafael-IoT-SDK-Internal-main\\examples\\das_subg_thread\\keil" "../../../components/platform/soc/rt582/rt582_freertos/Inc/task.h"
	.cantunwind
	.fnend
                                        @ -- End function
	.section	.text.efd_port_env_unlock,"ax",%progbits
	.hidden	efd_port_env_unlock             @ -- Begin function efd_port_env_unlock
	.globl	efd_port_env_unlock
	.p2align	1
	.type	efd_port_env_unlock,%function
	.code	16                              @ @efd_port_env_unlock
	.thumb_func
efd_port_env_unlock:
.Lfunc_begin5:
	.loc	2 199 0                         @ ../../../components/utility/EnhancedFlashDataset/Src/efd_port.c:199:0
	.fnstart
	.cfi_startproc
@ %bb.0:
	.loc	2 201 5 prologue_end            @ ../../../components/utility/EnhancedFlashDataset/Src/efd_port.c:201:5
	b	xTaskResumeAll
.Ltmp63:
.Lfunc_end5:
	.size	efd_port_env_unlock, .Lfunc_end5-efd_port_env_unlock
	.cfi_endproc
	.cantunwind
	.fnend
                                        @ -- End function
	.section	.text.efd_log_debug,"ax",%progbits
	.hidden	efd_log_debug                   @ -- Begin function efd_log_debug
	.globl	efd_log_debug
	.p2align	1
	.type	efd_log_debug,%function
	.code	16                              @ @efd_log_debug
	.thumb_func
efd_log_debug:
.Lfunc_begin6:
	.loc	2 214 0                         @ ../../../components/utility/EnhancedFlashDataset/Src/efd_port.c:214:0
	.fnstart
	.cfi_startproc
@ %bb.0:
	@DEBUG_VALUE: efd_log_debug:file <- $r0
	@DEBUG_VALUE: efd_log_debug:line <- $r1
	@DEBUG_VALUE: efd_log_debug:format <- $r2
	.loc	2 230 1 prologue_end            @ ../../../components/utility/EnhancedFlashDataset/Src/efd_port.c:230:1
	bx	lr
.Ltmp64:
.Lfunc_end6:
	.size	efd_log_debug, .Lfunc_end6-efd_log_debug
	.cfi_endproc
	.cantunwind
	.fnend
                                        @ -- End function
	.section	.text.efd_log_info,"ax",%progbits
	.hidden	efd_log_info                    @ -- Begin function efd_log_info
	.globl	efd_log_info
	.p2align	1
	.type	efd_log_info,%function
	.code	16                              @ @efd_log_info
	.thumb_func
efd_log_info:
.Lfunc_begin7:
	.loc	2 239 0                         @ ../../../components/utility/EnhancedFlashDataset/Src/efd_port.c:239:0
	.fnstart
	.cfi_startproc
@ %bb.0:
	@DEBUG_VALUE: efd_log_info:format <- $r0
	.loc	2 251 1 prologue_end            @ ../../../components/utility/EnhancedFlashDataset/Src/efd_port.c:251:1
	bx	lr
.Ltmp65:
.Lfunc_end7:
	.size	efd_log_info, .Lfunc_end7-efd_log_info
	.cfi_endproc
	.cantunwind
	.fnend
                                        @ -- End function
	.section	.text.efd_print,"ax",%progbits
	.hidden	efd_print                       @ -- Begin function efd_print
	.globl	efd_print
	.p2align	1
	.type	efd_print,%function
	.code	16                              @ @efd_print
	.thumb_func
efd_print:
.Lfunc_begin8:
	.loc	2 259 0                         @ ../../../components/utility/EnhancedFlashDataset/Src/efd_port.c:259:0
	.fnstart
	.cfi_startproc
@ %bb.0:
	@DEBUG_VALUE: efd_print:format <- $r0
	.loc	2 271 1 prologue_end            @ ../../../components/utility/EnhancedFlashDataset/Src/efd_port.c:271:1
	bx	lr
.Ltmp66:
.Lfunc_end8:
	.size	efd_print, .Lfunc_end8-efd_print
	.cfi_endproc
	.cantunwind
	.fnend
                                        @ -- End function
	.type	default_env_set,%object         @ @default_env_set
	.section	.rodata.default_env_set,"a",%progbits
	.p2align	2
default_env_set:
	.long	.L.str.2
	.long	.L.str.3
	.long	1                               @ 0x1
	.size	default_env_set, 12

	.type	mpcache_buf,%object             @ @mpcache_buf
	.section	.bss.mpcache_buf,"aw",%nobits
	.p2align	2
mpcache_buf:
	.zero	256
	.size	mpcache_buf, 256

	.type	.L.str.2,%object                @ @.str.2
	.section	.rodata.str1.1,"aMS",%progbits,1
.L.str.2:
	.asciz	"boot_times"
	.size	.L.str.2, 11

	.type	.L.str.3,%object                @ @.str.3
.L.str.3:
	.asciz	"3"
	.size	.L.str.3, 2

	.globl	_printf_percent
	.globl	_printf_s
	.globl	_printf_d
	.globl	_printf_int_dec
	.globl	_printf_str
	.hidden	_printf_percent
	.hidden	_printf_s
	.hidden	_printf_d
	.hidden	_printf_int_dec
	.hidden	_printf_str
	.section	".note.GNU-stack","",%progbits
	.eabi_attribute	30, 3	@ Tag_ABI_optimization_goals
	.ARM_attribute	16, 1	@ Tag_AV_eba