	.text
	.syntax unified
	.eabi_attribute	67, "2.09"	@ Tag_conformance
	.cpu	cortex-m3
	.eabi_attribute	6, 10	@ Tag_CPU_arch
	.eabi_attribute	7, 77	@ Tag_CPU_arch_profile
	.eabi_attribute	8, 0	@ Tag_ARM_ISA_use
	.eabi_attribute	9, 2	@ Tag_THUMB_ISA_use
	.eabi_attribute	34, 1	@ Tag_CPU_unaligned_access
	.eabi_attribute	17, 1	@ Tag_ABI_PCS_GOT_use
	.eabi_attribute	20, 2	@ Tag_ABI_FP_denormal
	.eabi_attribute	21, 0	@ Tag_ABI_FP_exceptions
	.eabi_attribute	23, 1	@ Tag_ABI_FP_number_model
	.eabi_attribute	24, 1	@ Tag_ABI_align_needed
	.eabi_attribute	25, 1	@ Tag_ABI_align_preserved
	.eabi_attribute	38, 1	@ Tag_ABI_FP_16bit_format
	.eabi_attribute	18, 4	@ Tag_ABI_PCS_wchar_t
	.eabi_attribute	26, 2	@ Tag_ABI_enum_size
	.eabi_attribute	14, 0	@ Tag_ABI_PCS_R9_use
	.file	"efd_kv.c"
	.file	1 "C:\\Keil_v5\\ARM\\ARMCLANG\\Bin\\..\\include" "stdint.h"
	.file	2 "D:\\Rafael-IoT-SDK-Internal-main\\examples\\das_subg_thread\\keil" "../../../components/utility/EnhancedFlashDataset/Src/efd_kv.c"
	.file	3 "D:\\Rafael-IoT-SDK-Internal-main\\examples\\das_subg_thread\\keil" "../../../components/utility/EnhancedFlashDataset/Inc\\efd_def.h"
	.file	4 "C:\\Keil_v5\\ARM\\ARMCLANG\\Bin\\..\\include" "stddef.h"
	.section	.text.efd_get_env_obj,"ax",%progbits
	.hidden	efd_get_env_obj                 @ -- Begin function efd_get_env_obj
	.globl	efd_get_env_obj
	.p2align	1
	.type	efd_get_env_obj,%function
	.code	16                              @ @efd_get_env_obj
	.thumb_func
efd_get_env_obj:
.Lfunc_begin0:
	.loc	2 904 0                         @ ../../../components/utility/EnhancedFlashDataset/Src/efd_kv.c:904:0
	.fnstart
	.cfi_sections .debug_frame
	.cfi_startproc
@ %bb.0:
	@DEBUG_VALUE: efd_get_env_obj:key <- $r0
	@DEBUG_VALUE: efd_get_env_obj:env <- $r1
	.save	{r4, r5, r7, lr}
	push	{r4, r5, r7, lr}
	.cfi_def_cfa_offset 16
	.cfi_offset lr, -4
	.cfi_offset r7, -8
	.cfi_offset r5, -12
	.cfi_offset r4, -16
.Ltmp0:
	.loc	2 907 10 prologue_end           @ ../../../components/utility/EnhancedFlashDataset/Src/efd_kv.c:907:10
	movw	r2, :lower16:init_ok
	movt	r2, :upper16:init_ok
	ldrb	r2, [r2]
.Ltmp1:
	@DEBUG_VALUE: efd_get_env_obj:env <- $r1
	.loc	2 907 9 is_stmt 0               @ ../../../components/utility/EnhancedFlashDataset/Src/efd_kv.c:907:9
	cmp	r2, #1
.Ltmp2:
	@DEBUG_VALUE: efd_get_env_obj:find_ok <- 0
	@DEBUG_VALUE: efd_get_env_obj:key <- $r0
	.loc	2 922 1 is_stmt 1               @ ../../../components/utility/EnhancedFlashDataset/Src/efd_kv.c:922:1
	itt	ne
	movne	r0, #0
.Ltmp3:
	@DEBUG_VALUE: efd_get_env_obj:key <- [DW_OP_LLVM_entry_value 1] $r0
	popne	{r4, r5, r7, pc}
.Ltmp4:
.LBB0_1:
	@DEBUG_VALUE: efd_get_env_obj:env <- $r1
	@DEBUG_VALUE: efd_get_env_obj:key <- [DW_OP_LLVM_entry_value 1] $r0
	@DEBUG_VALUE: efd_get_env_obj:find_ok <- 0
	.loc	2 0 1 is_stmt 0                 @ ../../../components/utility/EnhancedFlashDataset/Src/efd_kv.c:0:1
	mov	r4, r1
.Ltmp5:
	@DEBUG_VALUE: efd_get_env_obj:env <- $r4
	@DEBUG_VALUE: efd_get_env_obj:env <- $r4
	mov	r5, r0
.Ltmp6:
	@DEBUG_VALUE: efd_get_env_obj:key <- $r5
	.loc	2 914 5 is_stmt 1               @ ../../../components/utility/EnhancedFlashDataset/Src/efd_kv.c:914:5
	bl	efd_port_env_lock
.Ltmp7:
	.loc	2 916 15                        @ ../../../components/utility/EnhancedFlashDataset/Src/efd_kv.c:916:15
	mov	r0, r5
	mov	r1, r4
	bl	find_env
.Ltmp8:
	mov	r4, r0
.Ltmp9:
	@DEBUG_VALUE: efd_get_env_obj:env <- [DW_OP_LLVM_entry_value 1] $r1
	@DEBUG_VALUE: efd_get_env_obj:find_ok <- [DW_OP_LLVM_convert 1 7, DW_OP_LLVM_convert 8 7, DW_OP_stack_value] undef
	.loc	2 919 5                         @ ../../../components/utility/EnhancedFlashDataset/Src/efd_kv.c:919:5
	bl	efd_port_env_unlock
.Ltmp10:
	.loc	2 922 1                         @ ../../../components/utility/EnhancedFlashDataset/Src/efd_kv.c:922:1
	mov	r0, r4
	pop	{r4, r5, r7, pc}
.Ltmp11:
.Lfunc_end0:
	.size	efd_get_env_obj, .Lfunc_end0-efd_get_env_obj
	.cfi_endproc
	.cantunwind
	.fnend
                                        @ -- End function
	.section	.text.find_env,"ax",%progbits
	.p2align	1                               @ -- Begin function find_env
	.type	find_env,%function
	.code	16                              @ @find_env
	.thumb_func
find_env:
.Lfunc_begin1:
	.loc	2 823 0                         @ ../../../components/utility/EnhancedFlashDataset/Src/efd_kv.c:823:0
	.fnstart
	.cfi_startproc
@ %bb.0:
	@DEBUG_VALUE: find_env:key <- $r0
	@DEBUG_VALUE: find_env:env <- $r1
	.save	{r4, r5, r6, r7, r8, r9, r10, r11, lr}
	push.w	{r4, r5, r6, r7, r8, r9, r10, r11, lr}
	.cfi_def_cfa_offset 36
	.cfi_offset lr, -4
	.cfi_offset r11, -8
	.cfi_offset r10, -12
	.cfi_offset r9, -16
	.cfi_offset r8, -20
	.cfi_offset r7, -24
	.cfi_offset r6, -28
	.cfi_offset r5, -32
	.cfi_offset r4, -36
	.pad	#68
	sub	sp, #68
	.cfi_def_cfa_offset 104
	str	r1, [sp]                        @ 4-byte Spill
.Ltmp12:
	@DEBUG_VALUE: find_env:env <- [$sp+0]
	mov	r10, r0
.Ltmp13:
	@DEBUG_VALUE: find_env:find_ok <- 0
	@DEBUG_VALUE: find_env:env <- [$sp+0]
	@DEBUG_VALUE: find_env:key <- $r10
	.loc	2 827 22 prologue_end           @ ../../../components/utility/EnhancedFlashDataset/Src/efd_kv.c:827:22
	bl	strlen
.Ltmp14:
	mov	r9, r0
.Ltmp15:
	@DEBUG_VALUE: get_env_from_cache:addr <- [DW_OP_plus_uconst 82, DW_OP_stack_value] undef
	@DEBUG_VALUE: get_env_from_cache:name <- $r10
	@DEBUG_VALUE: get_env_from_cache:name_len <- $r9
	@DEBUG_VALUE: find_env:key_len <- $r9
	.loc	2 417 37                        @ ../../../components/utility/EnhancedFlashDataset/Src/efd_kv.c:417:37
	movs	r0, #0
	mov	r1, r10
	mov	r2, r9
	movs	r5, #0
	bl	efd_calc_crc32
.Ltmp16:
	.loc	2 0 37 is_stmt 0                @ ../../../components/utility/EnhancedFlashDataset/Src/efd_kv.c:0:37
	movw	r7, :lower16:env_cache_table
	.loc	2 417 71                        @ ../../../components/utility/EnhancedFlashDataset/Src/efd_kv.c:417:71
	lsrs	r6, r0, #16
.Ltmp17:
	@DEBUG_VALUE: get_env_from_cache:name_crc <- [DW_OP_LLVM_convert 32 7, DW_OP_LLVM_convert 16 7, DW_OP_stack_value] $r6
	.loc	2 0 71                          @ ../../../components/utility/EnhancedFlashDataset/Src/efd_kv.c:0:71
	movs	r4, #1
.Ltmp18:
	@DEBUG_VALUE: get_env_from_cache:i <- 0
	movt	r7, :upper16:env_cache_table
	add.w	r11, sp, #4
.Ltmp19:
	.p2align	2
.LBB1_1:                                @ =>This Inner Loop Header: Depth=1
	@DEBUG_VALUE: get_env_from_cache:name <- $r10
	@DEBUG_VALUE: find_env:key <- $r10
	@DEBUG_VALUE: find_env:key_len <- $r9
	@DEBUG_VALUE: get_env_from_cache:name_len <- $r9
	@DEBUG_VALUE: get_env_from_cache:name_crc <- [DW_OP_LLVM_convert 32 7, DW_OP_LLVM_convert 16 7, DW_OP_stack_value] $r6
	@DEBUG_VALUE: find_env:env <- [$sp+0]
	@DEBUG_VALUE: find_env:find_ok <- 0
	@DEBUG_VALUE: get_env_from_cache:i <- $r5
	.loc	2 421 33 is_stmt 1              @ ../../../components/utility/EnhancedFlashDataset/Src/efd_kv.c:421:33
	add.w	r8, r7, r5, lsl #3
	ldr.w	r0, [r8, #4]
	.loc	2 421 54 is_stmt 0              @ ../../../components/utility/EnhancedFlashDataset/Src/efd_kv.c:421:54
	adds	r1, r0, #1
	beq	.LBB1_4
.Ltmp20:
@ %bb.2:                                @   in Loop: Header=BB1_1 Depth=1
	@DEBUG_VALUE: get_env_from_cache:name <- $r10
	@DEBUG_VALUE: find_env:key <- $r10
	@DEBUG_VALUE: find_env:key_len <- $r9
	@DEBUG_VALUE: get_env_from_cache:name_len <- $r9
	@DEBUG_VALUE: get_env_from_cache:name_crc <- [DW_OP_LLVM_convert 32 7, DW_OP_LLVM_convert 16 7, DW_OP_stack_value] $r6
	@DEBUG_VALUE: get_env_from_cache:i <- $r5
	@DEBUG_VALUE: find_env:env <- [$sp+0]
	@DEBUG_VALUE: find_env:find_ok <- 0
	.loc	2 421 77                        @ ../../../components/utility/EnhancedFlashDataset/Src/efd_kv.c:421:77
	ldrh.w	r1, [r7, r5, lsl #3]
.Ltmp21:
	.loc	2 421 13                        @ ../../../components/utility/EnhancedFlashDataset/Src/efd_kv.c:421:13
	cmp	r6, r1
	bne	.LBB1_4
.Ltmp22:
@ %bb.3:                                @   in Loop: Header=BB1_1 Depth=1
	@DEBUG_VALUE: get_env_from_cache:name <- $r10
	@DEBUG_VALUE: find_env:key <- $r10
	@DEBUG_VALUE: find_env:key_len <- $r9
	@DEBUG_VALUE: get_env_from_cache:name_len <- $r9
	@DEBUG_VALUE: get_env_from_cache:name_crc <- [DW_OP_LLVM_convert 32 7, DW_OP_LLVM_convert 16 7, DW_OP_stack_value] $r6
	@DEBUG_VALUE: get_env_from_cache:i <- $r5
	@DEBUG_VALUE: find_env:env <- [$sp+0]
	@DEBUG_VALUE: find_env:find_ok <- 0
	.loc	2 425 51 is_stmt 1              @ ../../../components/utility/EnhancedFlashDataset/Src/efd_kv.c:425:51
	adds	r0, #22
	.loc	2 425 13 is_stmt 0              @ ../../../components/utility/EnhancedFlashDataset/Src/efd_kv.c:425:13
	mov	r1, r11
	movs	r2, #64
	bl	efd_port_read
.Ltmp23:
	.loc	2 426 18 is_stmt 1              @ ../../../components/utility/EnhancedFlashDataset/Src/efd_kv.c:426:18
	mov	r0, r10
	mov	r1, r11
	mov	r2, r9
	bl	memcmp
.Ltmp24:
	.loc	2 426 17 is_stmt 0              @ ../../../components/utility/EnhancedFlashDataset/Src/efd_kv.c:426:17
	cbz	r0, .LBB1_9
.Ltmp25:
.LBB1_4:                                @   in Loop: Header=BB1_1 Depth=1
	@DEBUG_VALUE: get_env_from_cache:name <- $r10
	@DEBUG_VALUE: find_env:key <- $r10
	@DEBUG_VALUE: find_env:key_len <- $r9
	@DEBUG_VALUE: get_env_from_cache:name_len <- $r9
	@DEBUG_VALUE: get_env_from_cache:name_crc <- [DW_OP_LLVM_convert 32 7, DW_OP_LLVM_convert 16 7, DW_OP_stack_value] $r6
	@DEBUG_VALUE: get_env_from_cache:i <- $r5
	@DEBUG_VALUE: find_env:env <- [$sp+0]
	@DEBUG_VALUE: find_env:find_ok <- 0
	.loc	2 419 19 is_stmt 1              @ ../../../components/utility/EnhancedFlashDataset/Src/efd_kv.c:419:19
	cmp	r5, #255
	.loc	2 419 48 is_stmt 0              @ ../../../components/utility/EnhancedFlashDataset/Src/efd_kv.c:419:48
	add.w	r5, r5, #1
.Ltmp26:
	@DEBUG_VALUE: get_env_from_cache:i <- $r5
	.loc	2 419 19                        @ ../../../components/utility/EnhancedFlashDataset/Src/efd_kv.c:419:19
	mov.w	r4, #0
	it	lo
	movlo	r4, #1
.Ltmp27:
	.loc	2 419 5                         @ ../../../components/utility/EnhancedFlashDataset/Src/efd_kv.c:419:5
	cmp.w	r5, #256
	@DEBUG_VALUE: get_env_from_cache:i <- $r5
	bne	.LBB1_1
.Ltmp28:
.LBB1_5:
	@DEBUG_VALUE: find_env:key <- $r10
	@DEBUG_VALUE: find_env:key_len <- $r9
	@DEBUG_VALUE: find_env:env <- [$sp+0]
	@DEBUG_VALUE: find_env:find_ok <- 0
	.loc	2 0 5                           @ ../../../components/utility/EnhancedFlashDataset/Src/efd_kv.c:0:5
	ldr	r4, [sp]                        @ 4-byte Reload
.Ltmp29:
	@DEBUG_VALUE: find_env_no_cache:env <- $r4
	.loc	2 817 5 is_stmt 1               @ ../../../components/utility/EnhancedFlashDataset/Src/efd_kv.c:817:5
	movw	r3, :lower16:find_env_cb
	movs	r7, #0
.Ltmp30:
	@DEBUG_VALUE: find_env_no_cache:find_ok <- 0
	@DEBUG_VALUE: find_env_no_cache:env <- [$sp+0]
	@DEBUG_VALUE: find_env_no_cache:key <- $r10
	movt	r3, :upper16:find_env_cb
	add	r2, sp, #4
	mov	r0, r4
	mov	r1, r10
	.loc	2 815 10                        @ ../../../components/utility/EnhancedFlashDataset/Src/efd_kv.c:815:10
	strb.w	r7, [sp, #4]
.Ltmp31:
	@DEBUG_VALUE: find_env_no_cache:find_ok <- [DW_OP_plus_uconst 4, DW_OP_deref] $sp
	.loc	2 817 5                         @ ../../../components/utility/EnhancedFlashDataset/Src/efd_kv.c:817:5
	bl	env_iterator
.Ltmp32:
	.loc	2 819 12                        @ ../../../components/utility/EnhancedFlashDataset/Src/efd_kv.c:819:12
	ldrb.w	r0, [sp, #4]
.Ltmp33:
	@DEBUG_VALUE: find_env_no_cache:find_ok <- $r0
	@DEBUG_VALUE: find_env:find_ok <- [DW_OP_LLVM_convert 1 7, DW_OP_LLVM_convert 8 7, DW_OP_stack_value] undef
	.loc	2 839 9                         @ ../../../components/utility/EnhancedFlashDataset/Src/efd_kv.c:839:9
	cbz	r0, .LBB1_8
.Ltmp34:
@ %bb.6:
	@DEBUG_VALUE: find_env:key <- $r10
	@DEBUG_VALUE: find_env:key_len <- $r9
	@DEBUG_VALUE: find_env:env <- [$sp+0]
	.loc	2 841 50                        @ ../../../components/utility/EnhancedFlashDataset/Src/efd_kv.c:841:50
	ldr.w	r2, [r4, #82]
	.loc	2 841 9 is_stmt 0               @ ../../../components/utility/EnhancedFlashDataset/Src/efd_kv.c:841:9
	mov	r0, r10
	mov	r1, r9
	bl	update_env_cache
.Ltmp35:
.LBB1_7:
	@DEBUG_VALUE: find_env:key <- $r10
	@DEBUG_VALUE: find_env:key_len <- $r9
	@DEBUG_VALUE: find_env:env <- [$sp+0]
	.loc	2 0 9                           @ ../../../components/utility/EnhancedFlashDataset/Src/efd_kv.c:0:9
	movs	r7, #1
.Ltmp36:
.LBB1_8:
	@DEBUG_VALUE: find_env:key <- $r10
	@DEBUG_VALUE: find_env:key_len <- $r9
	@DEBUG_VALUE: find_env:env <- [$sp+0]
	.loc	2 846 1 is_stmt 1               @ ../../../components/utility/EnhancedFlashDataset/Src/efd_kv.c:846:1
	mov	r0, r7
	add	sp, #68
	pop.w	{r4, r5, r6, r7, r8, r9, r10, r11, pc}
.Ltmp37:
.LBB1_9:
	@DEBUG_VALUE: get_env_from_cache:name <- $r10
	@DEBUG_VALUE: find_env:key <- $r10
	@DEBUG_VALUE: find_env:key_len <- $r9
	@DEBUG_VALUE: get_env_from_cache:name_len <- $r9
	@DEBUG_VALUE: get_env_from_cache:name_crc <- [DW_OP_LLVM_convert 32 7, DW_OP_LLVM_convert 16 7, DW_OP_stack_value] $r6
	@DEBUG_VALUE: get_env_from_cache:i <- $r5
	@DEBUG_VALUE: find_env:env <- [$sp+0]
	@DEBUG_VALUE: find_env:find_ok <- 0
	.loc	2 428 44                        @ ../../../components/utility/EnhancedFlashDataset/Src/efd_kv.c:428:44
	ldr.w	r0, [r8, #4]
	.loc	2 428 23 is_stmt 0              @ ../../../components/utility/EnhancedFlashDataset/Src/efd_kv.c:428:23
	ldr	r1, [sp]                        @ 4-byte Reload
	movw	r2, #65278
	str.w	r0, [r1, #82]
.Ltmp38:
	.loc	2 429 40 is_stmt 1              @ ../../../components/utility/EnhancedFlashDataset/Src/efd_kv.c:429:40
	ldrh.w	r0, [r8, #2]
.Ltmp39:
	.loc	2 429 21 is_stmt 0              @ ../../../components/utility/EnhancedFlashDataset/Src/efd_kv.c:429:21
	add.w	r1, r0, #256
	cmp	r0, r2
	it	hi
	movhi.w	r1, #-1
.Ltmp40:
	.loc	2 829 9 is_stmt 1               @ ../../../components/utility/EnhancedFlashDataset/Src/efd_kv.c:829:9
	lsls	r0, r4, #31
.Ltmp41:
	.loc	2 0 0 is_stmt 0                 @ ../../../components/utility/EnhancedFlashDataset/Src/efd_kv.c:0:0
	strh.w	r1, [r8, #2]
.Ltmp42:
	.loc	2 829 9                         @ ../../../components/utility/EnhancedFlashDataset/Src/efd_kv.c:829:9
	beq	.LBB1_5
.Ltmp43:
@ %bb.10:
	@DEBUG_VALUE: find_env:key <- $r10
	@DEBUG_VALUE: find_env:key_len <- $r9
	@DEBUG_VALUE: find_env:env <- [$sp+0]
	@DEBUG_VALUE: find_env:find_ok <- 0
	.loc	2 831 9 is_stmt 1               @ ../../../components/utility/EnhancedFlashDataset/Src/efd_kv.c:831:9
	ldr	r0, [sp]                        @ 4-byte Reload
	bl	read_env
.Ltmp44:
	.loc	2 0 9 is_stmt 0                 @ ../../../components/utility/EnhancedFlashDataset/Src/efd_kv.c:0:9
	b	.LBB1_7
.Ltmp45:
.Lfunc_end1:
	.size	find_env, .Lfunc_end1-find_env
	.cfi_endproc
	.cantunwind
	.fnend
                                        @ -- End function
	.section	.text.efd_get_env_blob,"ax",%progbits
	.hidden	efd_get_env_blob                @ -- Begin function efd_get_env_blob
	.globl	efd_get_env_blob
	.p2align	1
	.type	efd_get_env_blob,%function
	.code	16                              @ @efd_get_env_blob
	.thumb_func
efd_get_env_blob:
.Lfunc_begin2:
	.loc	2 935 0 is_stmt 1               @ ../../../components/utility/EnhancedFlashDataset/Src/efd_kv.c:935:0
	.fnstart
	.cfi_startproc
@ %bb.0:
	@DEBUG_VALUE: efd_get_env_blob:key <- $r0
	@DEBUG_VALUE: efd_get_env_blob:value_buf <- $r1
	@DEBUG_VALUE: efd_get_env_blob:buf_len <- $r2
	@DEBUG_VALUE: efd_get_env_blob:saved_value_len <- $r3
	.save	{r4, r5, r6, r7, lr}
	push	{r4, r5, r6, r7, lr}
	.cfi_def_cfa_offset 20
	.cfi_offset lr, -4
	.cfi_offset r7, -8
	.cfi_offset r6, -12
	.cfi_offset r5, -16
	.cfi_offset r4, -20
	.pad	#92
	sub	sp, #92
	.cfi_def_cfa_offset 112
	mov	r4, r2
.Ltmp46:
	@DEBUG_VALUE: efd_get_env_blob:buf_len <- $r4
	@DEBUG_VALUE: efd_get_env_blob:saved_value_len <- $r3
	@DEBUG_VALUE: efd_get_env_blob:buf_len <- $r4
	.loc	2 938 10 prologue_end           @ ../../../components/utility/EnhancedFlashDataset/Src/efd_kv.c:938:10
	movw	r2, :lower16:init_ok
	movt	r2, :upper16:init_ok
	ldrb	r2, [r2]
.Ltmp47:
	@DEBUG_VALUE: efd_get_env_blob:value_buf <- $r1
	.loc	2 938 9 is_stmt 0               @ ../../../components/utility/EnhancedFlashDataset/Src/efd_kv.c:938:9
	cmp	r2, #1
.Ltmp48:
	@DEBUG_VALUE: efd_get_env_blob:read_len <- 0
	@DEBUG_VALUE: efd_get_env_blob:key <- $r0
	bne	.LBB2_6
.Ltmp49:
@ %bb.1:
	@DEBUG_VALUE: efd_get_env_blob:buf_len <- $r4
	@DEBUG_VALUE: efd_get_env_blob:saved_value_len <- $r3
	@DEBUG_VALUE: efd_get_env_blob:value_buf <- $r1
	@DEBUG_VALUE: efd_get_env_blob:key <- $r0
	@DEBUG_VALUE: efd_get_env_blob:read_len <- 0
	.loc	2 0 9                           @ ../../../components/utility/EnhancedFlashDataset/Src/efd_kv.c:0:9
	mov	r6, r3
.Ltmp50:
	@DEBUG_VALUE: efd_get_env_blob:saved_value_len <- $r6
	@DEBUG_VALUE: efd_get_env_blob:saved_value_len <- $r6
	mov	r5, r1
.Ltmp51:
	@DEBUG_VALUE: efd_get_env_blob:value_buf <- $r5
	@DEBUG_VALUE: efd_get_env_blob:value_buf <- $r5
	mov	r7, r0
.Ltmp52:
	@DEBUG_VALUE: efd_get_env_blob:key <- $r7
	@DEBUG_VALUE: efd_get_env_blob:key <- $r7
	.loc	2 945 5 is_stmt 1               @ ../../../components/utility/EnhancedFlashDataset/Src/efd_kv.c:945:5
	bl	efd_port_env_lock
.Ltmp53:
	@DEBUG_VALUE: get_env:read_len <- 0
	@DEBUG_VALUE: get_env:value_len <- $r6
	@DEBUG_VALUE: get_env:buf_len <- $r4
	@DEBUG_VALUE: get_env:value_buf <- $r5
	@DEBUG_VALUE: get_env:key <- $r7
	.loc	2 0 5 is_stmt 0                 @ ../../../components/utility/EnhancedFlashDataset/Src/efd_kv.c:0:5
	mov	r1, sp
.Ltmp54:
	.loc	2 868 9 is_stmt 1               @ ../../../components/utility/EnhancedFlashDataset/Src/efd_kv.c:868:9
	mov	r0, r7
	bl	find_env
.Ltmp55:
	.loc	2 868 9 is_stmt 0               @ ../../../components/utility/EnhancedFlashDataset/Src/efd_kv.c:868:9
	cbz	r0, .LBB2_7
.Ltmp56:
@ %bb.2:
	@DEBUG_VALUE: get_env:key <- $r7
	@DEBUG_VALUE: efd_get_env_blob:key <- $r7
	@DEBUG_VALUE: get_env:value_len <- $r6
	@DEBUG_VALUE: efd_get_env_blob:saved_value_len <- $r6
	@DEBUG_VALUE: get_env:value_buf <- $r5
	@DEBUG_VALUE: efd_get_env_blob:value_buf <- $r5
	@DEBUG_VALUE: get_env:buf_len <- $r4
	@DEBUG_VALUE: efd_get_env_blob:buf_len <- $r4
	@DEBUG_VALUE: get_env:read_len <- 0
	@DEBUG_VALUE: efd_get_env_blob:read_len <- 0
	.loc	2 0 0                           @ ../../../components/utility/EnhancedFlashDataset/Src/efd_kv.c:0:0
	ldr.w	r0, [sp, #14]
	.loc	2 870 13 is_stmt 1              @ ../../../components/utility/EnhancedFlashDataset/Src/efd_kv.c:870:13
	cbz	r6, .LBB2_4
.Ltmp57:
@ %bb.3:
	@DEBUG_VALUE: get_env:key <- $r7
	@DEBUG_VALUE: efd_get_env_blob:key <- $r7
	@DEBUG_VALUE: get_env:value_len <- $r6
	@DEBUG_VALUE: efd_get_env_blob:saved_value_len <- $r6
	@DEBUG_VALUE: get_env:value_buf <- $r5
	@DEBUG_VALUE: efd_get_env_blob:value_buf <- $r5
	@DEBUG_VALUE: get_env:buf_len <- $r4
	@DEBUG_VALUE: efd_get_env_blob:buf_len <- $r4
	@DEBUG_VALUE: get_env:read_len <- 0
	@DEBUG_VALUE: efd_get_env_blob:read_len <- 0
	.loc	2 872 24                        @ ../../../components/utility/EnhancedFlashDataset/Src/efd_kv.c:872:24
	str	r0, [r6]
.Ltmp58:
.LBB2_4:
	@DEBUG_VALUE: get_env:key <- $r7
	@DEBUG_VALUE: efd_get_env_blob:key <- $r7
	@DEBUG_VALUE: get_env:value_len <- $r6
	@DEBUG_VALUE: efd_get_env_blob:saved_value_len <- $r6
	@DEBUG_VALUE: get_env:value_buf <- $r5
	@DEBUG_VALUE: efd_get_env_blob:value_buf <- $r5
	@DEBUG_VALUE: get_env:buf_len <- $r4
	@DEBUG_VALUE: efd_get_env_blob:buf_len <- $r4
	@DEBUG_VALUE: get_env:read_len <- 0
	@DEBUG_VALUE: efd_get_env_blob:read_len <- 0
	.loc	2 874 13                        @ ../../../components/utility/EnhancedFlashDataset/Src/efd_kv.c:874:13
	cmp	r0, r4
	it	lo
	movlo	r4, r0
.Ltmp59:
	@DEBUG_VALUE: get_env:read_len <- $r4
	.loc	2 882 13                        @ ../../../components/utility/EnhancedFlashDataset/Src/efd_kv.c:882:13
	cbz	r5, .LBB2_9
.Ltmp60:
@ %bb.5:
	@DEBUG_VALUE: get_env:key <- $r7
	@DEBUG_VALUE: efd_get_env_blob:key <- $r7
	@DEBUG_VALUE: get_env:value_len <- $r6
	@DEBUG_VALUE: efd_get_env_blob:saved_value_len <- $r6
	@DEBUG_VALUE: get_env:value_buf <- $r5
	@DEBUG_VALUE: efd_get_env_blob:value_buf <- $r5
	@DEBUG_VALUE: get_env:read_len <- $r4
	@DEBUG_VALUE: efd_get_env_blob:read_len <- 0
	.loc	2 884 36                        @ ../../../components/utility/EnhancedFlashDataset/Src/efd_kv.c:884:36
	ldr.w	r0, [sp, #86]
	.loc	2 884 13 is_stmt 0              @ ../../../components/utility/EnhancedFlashDataset/Src/efd_kv.c:884:13
	mov	r1, r5
	mov	r2, r4
	bl	efd_port_read
.Ltmp61:
	.loc	2 0 13                          @ ../../../components/utility/EnhancedFlashDataset/Src/efd_kv.c:0:13
	b	.LBB2_9
.Ltmp62:
.LBB2_6:
	@DEBUG_VALUE: efd_get_env_blob:buf_len <- $r4
	@DEBUG_VALUE: efd_get_env_blob:saved_value_len <- $r3
	@DEBUG_VALUE: efd_get_env_blob:value_buf <- $r1
	@DEBUG_VALUE: efd_get_env_blob:key <- $r0
	@DEBUG_VALUE: efd_get_env_blob:read_len <- 0
	movs	r4, #0
.Ltmp63:
	b	.LBB2_10
.Ltmp64:
.LBB2_7:
	@DEBUG_VALUE: get_env:key <- $r7
	@DEBUG_VALUE: efd_get_env_blob:key <- $r7
	@DEBUG_VALUE: get_env:value_len <- $r6
	@DEBUG_VALUE: efd_get_env_blob:saved_value_len <- $r6
	@DEBUG_VALUE: get_env:value_buf <- $r5
	@DEBUG_VALUE: efd_get_env_blob:value_buf <- $r5
	@DEBUG_VALUE: get_env:buf_len <- $r4
	@DEBUG_VALUE: efd_get_env_blob:buf_len <- $r4
	@DEBUG_VALUE: get_env:read_len <- 0
	@DEBUG_VALUE: efd_get_env_blob:read_len <- 0
	mov.w	r4, #0
.Ltmp65:
	.loc	2 887 14 is_stmt 1              @ ../../../components/utility/EnhancedFlashDataset/Src/efd_kv.c:887:14
	cbz	r6, .LBB2_9
.Ltmp66:
@ %bb.8:
	@DEBUG_VALUE: get_env:key <- $r7
	@DEBUG_VALUE: efd_get_env_blob:key <- $r7
	@DEBUG_VALUE: get_env:value_len <- $r6
	@DEBUG_VALUE: efd_get_env_blob:saved_value_len <- $r6
	@DEBUG_VALUE: get_env:value_buf <- $r5
	@DEBUG_VALUE: efd_get_env_blob:value_buf <- $r5
	@DEBUG_VALUE: get_env:read_len <- 0
	@DEBUG_VALUE: efd_get_env_blob:read_len <- 0
	.loc	2 889 20                        @ ../../../components/utility/EnhancedFlashDataset/Src/efd_kv.c:889:20
	str	r4, [r6]
.Ltmp67:
.LBB2_9:
	@DEBUG_VALUE: efd_get_env_blob:key <- $r7
	@DEBUG_VALUE: efd_get_env_blob:saved_value_len <- $r6
	@DEBUG_VALUE: efd_get_env_blob:value_buf <- $r5
	@DEBUG_VALUE: efd_get_env_blob:read_len <- 0
	@DEBUG_VALUE: efd_get_env_blob:read_len <- $r4
	@DEBUG_VALUE: get_env:read_len <- $r4
	.loc	2 950 5                         @ ../../../components/utility/EnhancedFlashDataset/Src/efd_kv.c:950:5
	bl	efd_port_env_unlock
.Ltmp68:
.LBB2_10:
	.loc	2 953 1                         @ ../../../components/utility/EnhancedFlashDataset/Src/efd_kv.c:953:1
	mov	r0, r4
	add	sp, #92
	pop	{r4, r5, r6, r7, pc}
.Ltmp69:
.Lfunc_end2:
	.size	efd_get_env_blob, .Lfunc_end2-efd_get_env_blob
	.cfi_endproc
	.cantunwind
	.fnend
                                        @ -- End function
	.section	.text.efd_get_env,"ax",%progbits
	.hidden	efd_get_env                     @ -- Begin function efd_get_env
	.globl	efd_get_env
	.p2align	1
	.type	efd_get_env,%function
	.code	16                              @ @efd_get_env
	.thumb_func
efd_get_env:
.Lfunc_begin3:
	.loc	2 966 0                         @ ../../../components/utility/EnhancedFlashDataset/Src/efd_kv.c:966:0
	.fnstart
	.cfi_startproc
@ %bb.0:
	@DEBUG_VALUE: efd_get_env:key <- $r0
	@DEBUG_VALUE: efd_get_env:key <- $r0
	.save	{r4, r5, r7, lr}
	push	{r4, r5, r7, lr}
	.cfi_def_cfa_offset 16
	.cfi_offset lr, -4
	.cfi_offset r7, -8
	.cfi_offset r5, -12
	.cfi_offset r4, -16
.Ltmp70:
	.loc	2 970 21 prologue_end           @ ../../../components/utility/EnhancedFlashDataset/Src/efd_kv.c:970:21
	movw	r4, :lower16:efd_get_env.value
	movt	r4, :upper16:efd_get_env.value
	@DEBUG_VALUE: efd_get_env:key <- $r0
	mov	r1, r4
	movs	r2, #128
	movs	r3, #0
	movs	r5, #0
	bl	efd_get_env_blob
.Ltmp71:
	@DEBUG_VALUE: efd_get_env:key <- [DW_OP_LLVM_entry_value 1] $r0
	@DEBUG_VALUE: efd_get_env:get_size <- $r0
	.loc	2 970 9 is_stmt 0               @ ../../../components/utility/EnhancedFlashDataset/Src/efd_kv.c:970:9
	cbz	r0, .LBB3_7
.Ltmp72:
@ %bb.1:
	@DEBUG_VALUE: efd_get_env:get_size <- $r0
	@DEBUG_VALUE: efd_get_env:key <- [DW_OP_LLVM_entry_value 1] $r0
	@DEBUG_VALUE: efd_is_str:i <- 0
	.loc	2 855 14 is_stmt 1              @ ../../../components/utility/EnhancedFlashDataset/Src/efd_kv.c:855:14
	ldrb	r1, [r4]
	subs	r1, #32
.Ltmp73:
	@DEBUG_VALUE: efd_is_str:i <- 1
	.loc	2 855 13 is_stmt 0              @ ../../../components/utility/EnhancedFlashDataset/Src/efd_kv.c:855:13
	cmp	r1, #94
	bhi	.LBB3_6
.Ltmp74:
@ %bb.2:
	@DEBUG_VALUE: efd_get_env:get_size <- $r0
	@DEBUG_VALUE: efd_is_str:i <- 1
	@DEBUG_VALUE: efd_get_env:key <- [DW_OP_LLVM_entry_value 1] $r0
	.loc	2 0 13                          @ ../../../components/utility/EnhancedFlashDataset/Src/efd_kv.c:0:13
	movs	r2, #1
.Ltmp75:
	.p2align	2
.LBB3_3:                                @ =>This Inner Loop Header: Depth=1
	@DEBUG_VALUE: efd_get_env:get_size <- $r0
	@DEBUG_VALUE: efd_get_env:key <- [DW_OP_LLVM_entry_value 1] $r0
	mov	r1, r2
.Ltmp76:
	@DEBUG_VALUE: efd_is_str:i <- $r1
	.loc	2 853 5 is_stmt 1               @ ../../../components/utility/EnhancedFlashDataset/Src/efd_kv.c:853:5
	cmp	r0, r2
	beq	.LBB3_5
.Ltmp77:
@ %bb.4:                                @   in Loop: Header=BB3_3 Depth=1
	@DEBUG_VALUE: efd_is_str:i <- $r1
	@DEBUG_VALUE: efd_get_env:get_size <- $r0
	@DEBUG_VALUE: efd_get_env:key <- [DW_OP_LLVM_entry_value 1] $r0
	@DEBUG_VALUE: efd_is_str:i <- $r1
	.loc	2 855 14                        @ ../../../components/utility/EnhancedFlashDataset/Src/efd_kv.c:855:14
	ldrb	r2, [r4, r1]
	subs	r2, #32
.Ltmp78:
	.loc	2 855 13 is_stmt 0              @ ../../../components/utility/EnhancedFlashDataset/Src/efd_kv.c:855:13
	cmp	r2, #95
.Ltmp79:
	.loc	2 853 27 is_stmt 1              @ ../../../components/utility/EnhancedFlashDataset/Src/efd_kv.c:853:27
	add.w	r2, r1, #1
.Ltmp80:
	@DEBUG_VALUE: efd_is_str:i <- $r2
	.loc	2 855 13                        @ ../../../components/utility/EnhancedFlashDataset/Src/efd_kv.c:855:13
	blo	.LBB3_3
.Ltmp81:
.LBB3_5:
	@DEBUG_VALUE: efd_get_env:get_size <- $r0
	@DEBUG_VALUE: efd_get_env:key <- [DW_OP_LLVM_entry_value 1] $r0
	.loc	2 0 13 is_stmt 0                @ ../../../components/utility/EnhancedFlashDataset/Src/efd_kv.c:0:13
	movs	r5, #0
	.loc	2 973 13 is_stmt 1              @ ../../../components/utility/EnhancedFlashDataset/Src/efd_kv.c:973:13
	cmp	r1, r0
.Ltmp82:
	.loc	2 975 29                        @ ../../../components/utility/EnhancedFlashDataset/Src/efd_kv.c:975:29
	itt	hs
	strbhs	r5, [r4, r0]
.Ltmp83:
	.loc	2 0 0 is_stmt 0                 @ ../../../components/utility/EnhancedFlashDataset/Src/efd_kv.c:0:0
	movhs	r5, r4
	b	.LBB3_7
.Ltmp84:
.LBB3_6:
	@DEBUG_VALUE: efd_get_env:get_size <- $r0
	@DEBUG_VALUE: efd_is_str:i <- 1
	@DEBUG_VALUE: efd_get_env:key <- [DW_OP_LLVM_entry_value 1] $r0
	movs	r5, #0
.Ltmp85:
.LBB3_7:
	@DEBUG_VALUE: efd_get_env:get_size <- $r0
	@DEBUG_VALUE: efd_get_env:key <- [DW_OP_LLVM_entry_value 1] $r0
	.loc	2 986 1 is_stmt 1               @ ../../../components/utility/EnhancedFlashDataset/Src/efd_kv.c:986:1
	mov	r0, r5
.Ltmp86:
	pop	{r4, r5, r7, pc}
.Ltmp87:
.Lfunc_end3:
	.size	efd_get_env, .Lfunc_end3-efd_get_env
	.cfi_endproc
	.cantunwind
	.fnend
                                        @ -- End function
	.section	.text.efd_read_env_value,"ax",%progbits
	.hidden	efd_read_env_value              @ -- Begin function efd_read_env_value
	.globl	efd_read_env_value
	.p2align	1
	.type	efd_read_env_value,%function
	.code	16                              @ @efd_read_env_value
	.thumb_func
efd_read_env_value:
.Lfunc_begin4:
	.loc	2 998 0                         @ ../../../components/utility/EnhancedFlashDataset/Src/efd_kv.c:998:0
	.fnstart
	.cfi_startproc
@ %bb.0:
	@DEBUG_VALUE: efd_read_env_value:env <- $r0
	@DEBUG_VALUE: efd_read_env_value:value_buf <- $r1
	@DEBUG_VALUE: efd_read_env_value:buf_len <- $r2
	@DEBUG_VALUE: efd_read_env_value:buf_len <- $r2
	@DEBUG_VALUE: efd_read_env_value:env <- $r0
	.save	{r4, r5, r6, lr}
	push	{r4, r5, r6, lr}
	.cfi_def_cfa_offset 16
	.cfi_offset lr, -4
	.cfi_offset r6, -8
	.cfi_offset r5, -12
	.cfi_offset r4, -16
.Ltmp88:
	@DEBUG_VALUE: efd_read_env_value:read_len <- 0
	@DEBUG_VALUE: efd_read_env_value:value_buf <- $r1
	.loc	2 1001 5 prologue_end           @ ../../../components/utility/EnhancedFlashDataset/Src/efd_kv.c:1001:5
	cbz	r0, .LBB4_5
.Ltmp89:
@ %bb.1:
	@DEBUG_VALUE: efd_read_env_value:buf_len <- $r2
	@DEBUG_VALUE: efd_read_env_value:value_buf <- $r1
	@DEBUG_VALUE: efd_read_env_value:env <- $r0
	@DEBUG_VALUE: efd_read_env_value:read_len <- 0
	@DEBUG_VALUE: efd_read_env_value:buf_len <- $r2
	@DEBUG_VALUE: efd_read_env_value:env <- $r0
	.loc	2 0 5 is_stmt 0                 @ ../../../components/utility/EnhancedFlashDataset/Src/efd_kv.c:0:5
	mov	r5, r1
.Ltmp90:
	@DEBUG_VALUE: efd_read_env_value:value_buf <- $r5
	.loc	2 1002 5 is_stmt 1              @ ../../../components/utility/EnhancedFlashDataset/Src/efd_kv.c:1002:5
	cbz	r1, .LBB4_9
.Ltmp91:
@ %bb.2:
	@DEBUG_VALUE: efd_read_env_value:value_buf <- $r5
	@DEBUG_VALUE: efd_read_env_value:buf_len <- $r2
	@DEBUG_VALUE: efd_read_env_value:env <- $r0
	@DEBUG_VALUE: efd_read_env_value:read_len <- 0
	@DEBUG_VALUE: efd_read_env_value:buf_len <- $r2
	.loc	2 0 5 is_stmt 0                 @ ../../../components/utility/EnhancedFlashDataset/Src/efd_kv.c:0:5
	mov	r6, r0
.Ltmp92:
	@DEBUG_VALUE: efd_read_env_value:env <- $r6
	@DEBUG_VALUE: efd_read_env_value:env <- $r6
	.loc	2 1004 10 is_stmt 1             @ ../../../components/utility/EnhancedFlashDataset/Src/efd_kv.c:1004:10
	movw	r0, :lower16:init_ok
	movt	r0, :upper16:init_ok
	ldrb	r0, [r0]
.Ltmp93:
	.loc	2 1004 9 is_stmt 0              @ ../../../components/utility/EnhancedFlashDataset/Src/efd_kv.c:1004:9
	cmp	r0, #1
	bne	.LBB4_7
.Ltmp94:
@ %bb.3:
	@DEBUG_VALUE: efd_read_env_value:env <- $r6
	@DEBUG_VALUE: efd_read_env_value:value_buf <- $r5
	@DEBUG_VALUE: efd_read_env_value:buf_len <- $r2
	@DEBUG_VALUE: efd_read_env_value:read_len <- 0
	@DEBUG_VALUE: efd_read_env_value:buf_len <- $r2
	.loc	2 1010 14 is_stmt 1             @ ../../../components/utility/EnhancedFlashDataset/Src/efd_kv.c:1010:14
	ldrb	r0, [r6, #4]
.Ltmp95:
	.loc	2 1010 9 is_stmt 0              @ ../../../components/utility/EnhancedFlashDataset/Src/efd_kv.c:1010:9
	cbz	r0, .LBB4_7
.Ltmp96:
@ %bb.4:
	@DEBUG_VALUE: efd_read_env_value:env <- $r6
	@DEBUG_VALUE: efd_read_env_value:value_buf <- $r5
	@DEBUG_VALUE: efd_read_env_value:buf_len <- $r2
	@DEBUG_VALUE: efd_read_env_value:read_len <- 0
	.loc	2 0 9                           @ ../../../components/utility/EnhancedFlashDataset/Src/efd_kv.c:0:9
	mov	r4, r2
.Ltmp97:
	@DEBUG_VALUE: efd_read_env_value:buf_len <- $r4
	@DEBUG_VALUE: efd_read_env_value:buf_len <- $r4
	.loc	2 1013 9 is_stmt 1              @ ../../../components/utility/EnhancedFlashDataset/Src/efd_kv.c:1013:9
	bl	efd_port_env_lock
.Ltmp98:
	.loc	2 1015 28                       @ ../../../components/utility/EnhancedFlashDataset/Src/efd_kv.c:1015:28
	ldr.w	r1, [r6, #14]
.Ltmp99:
	.loc	2 1024 33                       @ ../../../components/utility/EnhancedFlashDataset/Src/efd_kv.c:1024:33
	ldr.w	r0, [r6, #86]
	.loc	2 1015 13                       @ ../../../components/utility/EnhancedFlashDataset/Src/efd_kv.c:1015:13
	cmp	r1, r4
	it	lo
	movlo	r4, r1
.Ltmp100:
	@DEBUG_VALUE: efd_read_env_value:buf_len <- [DW_OP_LLVM_entry_value 1] $r2
	@DEBUG_VALUE: efd_read_env_value:read_len <- $r4
	.loc	2 1024 9                        @ ../../../components/utility/EnhancedFlashDataset/Src/efd_kv.c:1024:9
	mov	r1, r5
	mov	r2, r4
	bl	efd_port_read
.Ltmp101:
	.loc	2 1026 9                        @ ../../../components/utility/EnhancedFlashDataset/Src/efd_kv.c:1026:9
	bl	efd_port_env_unlock
.Ltmp102:
	.loc	2 0 9 is_stmt 0                 @ ../../../components/utility/EnhancedFlashDataset/Src/efd_kv.c:0:9
	b	.LBB4_8
.Ltmp103:
.LBB4_5:
	@DEBUG_VALUE: efd_read_env_value:buf_len <- $r2
	@DEBUG_VALUE: efd_read_env_value:value_buf <- $r1
	@DEBUG_VALUE: efd_read_env_value:env <- $r0
	@DEBUG_VALUE: efd_read_env_value:read_len <- 0
	.loc	2 1001 5 is_stmt 1              @ ../../../components/utility/EnhancedFlashDataset/Src/efd_kv.c:1001:5
	movw	r0, :lower16:.L.str
.Ltmp104:
	@DEBUG_VALUE: efd_read_env_value:env <- [DW_OP_LLVM_entry_value 1] $r0
	movw	r1, :lower16:.L.str.1
.Ltmp105:
	@DEBUG_VALUE: efd_read_env_value:value_buf <- [DW_OP_LLVM_entry_value 1] $r1
	movt	r0, :upper16:.L.str
	movt	r1, :upper16:.L.str.1
	movw	r2, #1001
.Ltmp106:
	@DEBUG_VALUE: efd_read_env_value:buf_len <- [DW_OP_LLVM_entry_value 1] $r2
	bl	__2printf
.Ltmp107:
	.p2align	2
.LBB4_6:                                @ =>This Inner Loop Header: Depth=1
	@DEBUG_VALUE: efd_read_env_value:value_buf <- [DW_OP_LLVM_entry_value 1] $r1
	@DEBUG_VALUE: efd_read_env_value:buf_len <- [DW_OP_LLVM_entry_value 1] $r2
	@DEBUG_VALUE: efd_read_env_value:env <- [DW_OP_LLVM_entry_value 1] $r0
	@DEBUG_VALUE: efd_read_env_value:read_len <- 0
	b	.LBB4_6
.Ltmp108:
.LBB4_7:
	@DEBUG_VALUE: efd_read_env_value:env <- $r6
	@DEBUG_VALUE: efd_read_env_value:value_buf <- $r5
	@DEBUG_VALUE: efd_read_env_value:buf_len <- $r2
	@DEBUG_VALUE: efd_read_env_value:read_len <- 0
	.loc	2 0 5 is_stmt 0                 @ ../../../components/utility/EnhancedFlashDataset/Src/efd_kv.c:0:5
	movs	r4, #0
.Ltmp109:
.LBB4_8:
	@DEBUG_VALUE: efd_read_env_value:env <- $r6
	@DEBUG_VALUE: efd_read_env_value:value_buf <- $r5
	.loc	2 1030 1 is_stmt 1              @ ../../../components/utility/EnhancedFlashDataset/Src/efd_kv.c:1030:1
	mov	r0, r4
	pop	{r4, r5, r6, pc}
.Ltmp110:
.LBB4_9:
	@DEBUG_VALUE: efd_read_env_value:value_buf <- $r5
	@DEBUG_VALUE: efd_read_env_value:buf_len <- $r2
	@DEBUG_VALUE: efd_read_env_value:env <- $r0
	@DEBUG_VALUE: efd_read_env_value:read_len <- 0
	.loc	2 1002 5                        @ ../../../components/utility/EnhancedFlashDataset/Src/efd_kv.c:1002:5
	movw	r0, :lower16:.L.str
.Ltmp111:
	@DEBUG_VALUE: efd_read_env_value:env <- [DW_OP_LLVM_entry_value 1] $r0
	movw	r1, :lower16:.L.str.1
	movt	r0, :upper16:.L.str
	movt	r1, :upper16:.L.str.1
	movw	r2, #1002
.Ltmp112:
	@DEBUG_VALUE: efd_read_env_value:buf_len <- [DW_OP_LLVM_entry_value 1] $r2
	bl	__2printf
.Ltmp113:
	.p2align	2
.LBB4_10:                               @ =>This Inner Loop Header: Depth=1
	@DEBUG_VALUE: efd_read_env_value:value_buf <- $r5
	@DEBUG_VALUE: efd_read_env_value:buf_len <- [DW_OP_LLVM_entry_value 1] $r2
	@DEBUG_VALUE: efd_read_env_value:env <- [DW_OP_LLVM_entry_value 1] $r0
	@DEBUG_VALUE: efd_read_env_value:read_len <- 0
	b	.LBB4_10
.Ltmp114:
.Lfunc_end4:
	.size	efd_read_env_value, .Lfunc_end4-efd_read_env_value
	.cfi_endproc
	.cantunwind
	.fnend
                                        @ -- End function
	.section	.text.efd_del_env,"ax",%progbits
	.hidden	efd_del_env                     @ -- Begin function efd_del_env
	.globl	efd_del_env
	.p2align	1
	.type	efd_del_env,%function
	.code	16                              @ @efd_del_env
	.thumb_func
efd_del_env:
.Lfunc_begin5:
	.loc	2 1572 0                        @ ../../../components/utility/EnhancedFlashDataset/Src/efd_kv.c:1572:0
	.fnstart
	.cfi_startproc
@ %bb.0:
	@DEBUG_VALUE: efd_del_env:key <- $r0
	.save	{r4, lr}
	push	{r4, lr}
	.cfi_def_cfa_offset 8
	.cfi_offset lr, -4
	.cfi_offset r4, -8
.Ltmp115:
	.loc	2 1575 10 prologue_end          @ ../../../components/utility/EnhancedFlashDataset/Src/efd_kv.c:1575:10
	movw	r1, :lower16:init_ok
	movt	r1, :upper16:init_ok
	ldrb	r1, [r1]
.Ltmp116:
	.loc	2 1575 9 is_stmt 0              @ ../../../components/utility/EnhancedFlashDataset/Src/efd_kv.c:1575:9
	cmp	r1, #1
.Ltmp117:
	@DEBUG_VALUE: efd_del_env:result <- 0
	@DEBUG_VALUE: efd_del_env:key <- $r0
	.loc	2 1590 1 is_stmt 1              @ ../../../components/utility/EnhancedFlashDataset/Src/efd_kv.c:1590:1
	itt	ne
	movne	r0, #7
.Ltmp118:
	@DEBUG_VALUE: efd_del_env:key <- [DW_OP_LLVM_entry_value 1] $r0
	popne	{r4, pc}
.Ltmp119:
.LBB5_1:
	@DEBUG_VALUE: efd_del_env:key <- [DW_OP_LLVM_entry_value 1] $r0
	@DEBUG_VALUE: efd_del_env:result <- 0
	.loc	2 0 1 is_stmt 0                 @ ../../../components/utility/EnhancedFlashDataset/Src/efd_kv.c:0:1
	mov	r4, r0
.Ltmp120:
	@DEBUG_VALUE: efd_del_env:key <- $r4
	.loc	2 1582 5 is_stmt 1              @ ../../../components/utility/EnhancedFlashDataset/Src/efd_kv.c:1582:5
	bl	efd_port_env_lock
.Ltmp121:
	.loc	2 1584 14                       @ ../../../components/utility/EnhancedFlashDataset/Src/efd_kv.c:1584:14
	mov	r0, r4
	movs	r1, #0
	movs	r2, #1
	bl	del_env
.Ltmp122:
	mov	r4, r0
.Ltmp123:
	@DEBUG_VALUE: efd_del_env:key <- [DW_OP_LLVM_entry_value 1] $r0
	@DEBUG_VALUE: efd_del_env:result <- $r4
	.loc	2 1587 5                        @ ../../../components/utility/EnhancedFlashDataset/Src/efd_kv.c:1587:5
	bl	efd_port_env_unlock
.Ltmp124:
	.loc	2 1590 1                        @ ../../../components/utility/EnhancedFlashDataset/Src/efd_kv.c:1590:1
	mov	r0, r4
	pop	{r4, pc}
.Ltmp125:
.Lfunc_end5:
	.size	efd_del_env, .Lfunc_end5-efd_del_env
	.cfi_endproc
	.cantunwind
	.fnend
                                        @ -- End function
	.section	.text.del_env,"ax",%progbits
	.p2align	1                               @ -- Begin function del_env
	.type	del_env,%function
	.code	16                              @ @del_env
	.thumb_func
del_env:
.Lfunc_begin6:
	.loc	2 1202 0                        @ ../../../components/utility/EnhancedFlashDataset/Src/efd_kv.c:1202:0
	.fnstart
	.cfi_startproc
@ %bb.0:
	@DEBUG_VALUE: del_env:key <- $r0
	@DEBUG_VALUE: del_env:old_env <- $r1
	@DEBUG_VALUE: del_env:complete_del <- [DW_OP_LLVM_convert 1 7, DW_OP_LLVM_convert 8 7, DW_OP_stack_value] $r2
	.save	{r4, r5, r6, r7, lr}
	push	{r4, r5, r6, r7, lr}
	.cfi_def_cfa_offset 20
	.cfi_offset lr, -4
	.cfi_offset r7, -8
	.cfi_offset r6, -12
	.cfi_offset r5, -16
	.cfi_offset r4, -20
	.pad	#92
	sub	sp, #92
	.cfi_def_cfa_offset 112
	mov	r5, r2
.Ltmp126:
	@DEBUG_VALUE: del_env:complete_del <- [DW_OP_LLVM_convert 1 7, DW_OP_LLVM_convert 8 7, DW_OP_stack_value] $r5
	mov	r4, r1
	@DEBUG_VALUE: del_env:complete_del <- [DW_OP_LLVM_convert 1 7, DW_OP_LLVM_convert 8 7, DW_OP_stack_value] $r5
.Ltmp127:
	@DEBUG_VALUE: del_env:old_env <- $r4
	mov	r6, r0
.Ltmp128:
	@DEBUG_VALUE: del_env:key <- $r6
	@DEBUG_VALUE: del_env:result <- 0
	@DEBUG_VALUE: del_env:key <- $r6
	.loc	2 1214 9 prologue_end           @ ../../../components/utility/EnhancedFlashDataset/Src/efd_kv.c:1214:9
	cbnz	r1, .LBB6_2
.Ltmp129:
@ %bb.1:
	@DEBUG_VALUE: del_env:key <- $r6
	@DEBUG_VALUE: del_env:complete_del <- [DW_OP_LLVM_convert 1 7, DW_OP_LLVM_convert 8 7, DW_OP_stack_value] $r5
	@DEBUG_VALUE: del_env:old_env <- $r4
	@DEBUG_VALUE: del_env:result <- 0
	.loc	2 0 9 is_stmt 0                 @ ../../../components/utility/EnhancedFlashDataset/Src/efd_kv.c:0:9
	mov	r4, sp
.Ltmp130:
	.loc	2 1218 13 is_stmt 1             @ ../../../components/utility/EnhancedFlashDataset/Src/efd_kv.c:1218:13
	mov	r0, r6
	mov	r1, r4
	bl	find_env
.Ltmp131:
	@DEBUG_VALUE: del_env:old_env <- undef
	.loc	2 0 13 is_stmt 0                @ ../../../components/utility/EnhancedFlashDataset/Src/efd_kv.c:0:13
	cbz	r0, .LBB6_8
.Ltmp132:
.LBB6_2:
	@DEBUG_VALUE: del_env:key <- $r6
	@DEBUG_VALUE: del_env:complete_del <- [DW_OP_LLVM_convert 1 7, DW_OP_LLVM_convert 8 7, DW_OP_stack_value] $r5
	@DEBUG_VALUE: del_env:result <- 0
	@DEBUG_VALUE: del_env:old_env <- $r4
	ldr.w	r0, [r4, #82]
	@DEBUG_VALUE: write_status:addr <- $r0
	@DEBUG_VALUE: write_status:addr <- $r0
	mov.w	r1, #-1
	@DEBUG_VALUE: write_status:status_num <- 6
	@DEBUG_VALUE: write_status:status_num <- 6
	@DEBUG_VALUE: write_status:status_table <- $sp
	movw	r7, :lower16:del_env.last_is_complete_del
	str	r1, [sp]
	strb.w	r1, [sp, #4]
	@DEBUG_VALUE: write_status:status_table <- $sp
	movt	r7, :upper16:del_env.last_is_complete_del
	mov	r1, sp
.Ltmp133:
	@DEBUG_VALUE: set_status:byte_index <- 3
	@DEBUG_VALUE: set_status:status_index <- 4
	@DEBUG_VALUE: set_status:status_num <- 6
	@DEBUG_VALUE: write_status:result <- 0
	@DEBUG_VALUE: write_status:status_index <- 4
	.loc	2 1229 9 is_stmt 1              @ ../../../components/utility/EnhancedFlashDataset/Src/efd_kv.c:1229:9
	cbz	r5, .LBB6_7
.Ltmp134:
@ %bb.3:
	@DEBUG_VALUE: del_env:key <- $r6
	@DEBUG_VALUE: del_env:complete_del <- [DW_OP_LLVM_convert 1 7, DW_OP_LLVM_convert 8 7, DW_OP_stack_value] $r5
	@DEBUG_VALUE: del_env:old_env <- $r4
	@DEBUG_VALUE: write_status:addr <- $r0
	@DEBUG_VALUE: write_status:status_table <- $sp
	@DEBUG_VALUE: write_status:status_index <- 4
	@DEBUG_VALUE: write_status:result <- 0
	@DEBUG_VALUE: set_status:status_num <- 6
	@DEBUG_VALUE: set_status:status_index <- 4
	@DEBUG_VALUE: set_status:byte_index <- 3
	@DEBUG_VALUE: write_status:status_num <- 6
	@DEBUG_VALUE: del_env:result <- 0
	.loc	2 0 9 is_stmt 0                 @ ../../../components/utility/EnhancedFlashDataset/Src/efd_kv.c:0:9
	movs	r2, #0
.Ltmp135:
	.loc	2 228 9 is_stmt 1               @ ../../../components/utility/EnhancedFlashDataset/Src/efd_kv.c:228:9
	adds	r1, #3
	.loc	2 228 34 is_stmt 0              @ ../../../components/utility/EnhancedFlashDataset/Src/efd_kv.c:228:34
	strb.w	r2, [sp, #3]
.Ltmp136:
	@DEBUG_VALUE: write_status:byte_index <- 3
	.loc	2 280 34 is_stmt 1              @ ../../../components/utility/EnhancedFlashDataset/Src/efd_kv.c:280:34
	adds	r0, #3
.Ltmp137:
	.loc	2 280 14 is_stmt 0              @ ../../../components/utility/EnhancedFlashDataset/Src/efd_kv.c:280:14
	movs	r2, #1
	bl	efd_port_write
.Ltmp138:
	.loc	2 1238 14 is_stmt 1             @ ../../../components/utility/EnhancedFlashDataset/Src/efd_kv.c:1238:14
	ldrb	r1, [r7]
	@DEBUG_VALUE: set_status:status_table <- $sp
	@DEBUG_VALUE: write_status:byte_index <- 3
.Ltmp139:
	@DEBUG_VALUE: write_status:result <- $r0
	@DEBUG_VALUE: write_status:result <- 0
	@DEBUG_VALUE: write_status:status_index <- 4
	@DEBUG_VALUE: del_env:result <- $r0
	.loc	2 1238 35 is_stmt 0             @ ../../../components/utility/EnhancedFlashDataset/Src/efd_kv.c:1238:35
	cbnz	r1, .LBB6_11
.Ltmp140:
@ %bb.4:
	@DEBUG_VALUE: del_env:key <- $r6
	@DEBUG_VALUE: del_env:complete_del <- [DW_OP_LLVM_convert 1 7, DW_OP_LLVM_convert 8 7, DW_OP_stack_value] $r5
	@DEBUG_VALUE: del_env:old_env <- $r4
	@DEBUG_VALUE: del_env:result <- $r0
	cbnz	r0, .LBB6_11
.Ltmp141:
@ %bb.5:
	@DEBUG_VALUE: del_env:key <- $r6
	@DEBUG_VALUE: del_env:complete_del <- [DW_OP_LLVM_convert 1 7, DW_OP_LLVM_convert 8 7, DW_OP_stack_value] $r5
	@DEBUG_VALUE: del_env:old_env <- $r4
	@DEBUG_VALUE: del_env:result <- $r0
	.loc	2 1242 17 is_stmt 1             @ ../../../components/utility/EnhancedFlashDataset/Src/efd_kv.c:1242:17
	cbz	r6, .LBB6_9
.Ltmp142:
@ %bb.6:
	@DEBUG_VALUE: del_env:key <- $r6
	@DEBUG_VALUE: del_env:complete_del <- [DW_OP_LLVM_convert 1 7, DW_OP_LLVM_convert 8 7, DW_OP_stack_value] $r5
	@DEBUG_VALUE: del_env:old_env <- $r4
	@DEBUG_VALUE: del_env:result <- $r0
	.loc	2 1245 39                       @ ../../../components/utility/EnhancedFlashDataset/Src/efd_kv.c:1245:39
	mov	r0, r6
.Ltmp143:
	bl	strlen
.Ltmp144:
	mov	r1, r0
	.loc	2 1245 17 is_stmt 0             @ ../../../components/utility/EnhancedFlashDataset/Src/efd_kv.c:1245:17
	mov	r0, r6
	b	.LBB6_10
.Ltmp145:
.LBB6_7:
	@DEBUG_VALUE: del_env:key <- $r6
	@DEBUG_VALUE: del_env:complete_del <- [DW_OP_LLVM_convert 1 7, DW_OP_LLVM_convert 8 7, DW_OP_stack_value] $r5
	@DEBUG_VALUE: del_env:old_env <- $r4
	@DEBUG_VALUE: write_status:addr <- $r0
	@DEBUG_VALUE: write_status:status_table <- $sp
	@DEBUG_VALUE: write_status:status_num <- 6
	@DEBUG_VALUE: del_env:result <- 0
	.loc	2 0 17                          @ ../../../components/utility/EnhancedFlashDataset/Src/efd_kv.c:0:17
	movs	r2, #0
.Ltmp146:
	.loc	2 228 9 is_stmt 1               @ ../../../components/utility/EnhancedFlashDataset/Src/efd_kv.c:228:9
	adds	r1, #2
	.loc	2 228 34 is_stmt 0              @ ../../../components/utility/EnhancedFlashDataset/Src/efd_kv.c:228:34
	strb.w	r2, [sp, #2]
.Ltmp147:
	@DEBUG_VALUE: write_status:byte_index <- 2
	.loc	2 280 34 is_stmt 1              @ ../../../components/utility/EnhancedFlashDataset/Src/efd_kv.c:280:34
	adds	r0, #2
.Ltmp148:
	.loc	2 280 14 is_stmt 0              @ ../../../components/utility/EnhancedFlashDataset/Src/efd_kv.c:280:14
	movs	r2, #1
	bl	efd_port_write
.Ltmp149:
	@DEBUG_VALUE: set_status:status_table <- $sp
	@DEBUG_VALUE: write_status:result <- $r0
	@DEBUG_VALUE: del_env:result <- $r0
	.loc	2 0 14                          @ ../../../components/utility/EnhancedFlashDataset/Src/efd_kv.c:0:14
	b	.LBB6_11
.Ltmp150:
.LBB6_8:
	@DEBUG_VALUE: del_env:key <- $r6
	@DEBUG_VALUE: del_env:complete_del <- [DW_OP_LLVM_convert 1 7, DW_OP_LLVM_convert 8 7, DW_OP_stack_value] $r5
	@DEBUG_VALUE: del_env:result <- 0
	movs	r0, #4
	b	.LBB6_18
.Ltmp151:
.LBB6_9:
	@DEBUG_VALUE: del_env:key <- $r6
	@DEBUG_VALUE: del_env:complete_del <- [DW_OP_LLVM_convert 1 7, DW_OP_LLVM_convert 8 7, DW_OP_stack_value] $r5
	@DEBUG_VALUE: del_env:old_env <- $r4
	@DEBUG_VALUE: del_env:result <- $r0
	.loc	2 1250 58 is_stmt 1             @ ../../../components/utility/EnhancedFlashDataset/Src/efd_kv.c:1250:58
	ldrb	r1, [r4, #5]
	.loc	2 1250 34 is_stmt 0             @ ../../../components/utility/EnhancedFlashDataset/Src/efd_kv.c:1250:34
	add.w	r0, r4, #18
.Ltmp152:
.LBB6_10:
	@DEBUG_VALUE: del_env:key <- $r6
	@DEBUG_VALUE: del_env:complete_del <- [DW_OP_LLVM_convert 1 7, DW_OP_LLVM_convert 8 7, DW_OP_stack_value] $r5
	@DEBUG_VALUE: del_env:old_env <- $r4
	.loc	2 0 0                           @ ../../../components/utility/EnhancedFlashDataset/Src/efd_kv.c:0:0
	mov.w	r2, #-1
	bl	update_env_cache
.Ltmp153:
	movs	r0, #0
.Ltmp154:
.LBB6_11:
	@DEBUG_VALUE: del_env:key <- $r6
	@DEBUG_VALUE: del_env:complete_del <- [DW_OP_LLVM_convert 1 7, DW_OP_LLVM_convert 8 7, DW_OP_stack_value] $r5
	@DEBUG_VALUE: del_env:old_env <- $r4
	eor	r1, r5, #1
	strb	r1, [r7]
.Ltmp155:
	@DEBUG_VALUE: del_env:dirty_status_addr <- undef
	@DEBUG_VALUE: del_env:result <- $r0
	.loc	2 1260 30 is_stmt 1             @ ../../../components/utility/EnhancedFlashDataset/Src/efd_kv.c:1260:30
	cbnz	r0, .LBB6_18
.Ltmp156:
@ %bb.12:
	@DEBUG_VALUE: del_env:key <- $r6
	@DEBUG_VALUE: del_env:complete_del <- [DW_OP_LLVM_convert 1 7, DW_OP_LLVM_convert 8 7, DW_OP_stack_value] $r5
	@DEBUG_VALUE: del_env:old_env <- $r4
	@DEBUG_VALUE: del_env:result <- $r0
	.loc	2 0 30 is_stmt 0                @ ../../../components/utility/EnhancedFlashDataset/Src/efd_kv.c:0:30
	ldr.w	r4, [r4, #82]
.Ltmp157:
	movs	r0, #3
.Ltmp158:
	bfi	r4, r0, #0, #12
.Ltmp159:
	@DEBUG_VALUE: read_status:total_num <- 4
	@DEBUG_VALUE: read_status:addr <- $r4
	@DEBUG_VALUE: del_env:dirty_status_addr <- $r4
	mov	r5, sp
.Ltmp160:
	.loc	2 290 5 is_stmt 1               @ ../../../components/utility/EnhancedFlashDataset/Src/efd_kv.c:290:5
	mov	r0, r4
	mov	r1, r5
	movs	r2, #3
	bl	efd_port_read
.Ltmp161:
	.loc	2 0 5 is_stmt 0                 @ ../../../components/utility/EnhancedFlashDataset/Src/efd_kv.c:0:5
	movs	r0, #2
	@DEBUG_VALUE: get_status:status_table <- $sp
.Ltmp162:
	@DEBUG_VALUE: read_status:status_table <- $sp
	@DEBUG_VALUE: get_status:status_num <- 2
	@DEBUG_VALUE: get_status:i <- 0
	@DEBUG_VALUE: get_status:status_num_bak <- 3
	.p2align	2
.LBB6_13:                               @ =>This Inner Loop Header: Depth=1
	@DEBUG_VALUE: del_env:key <- $r6
	@DEBUG_VALUE: del_env:dirty_status_addr <- $r4
	@DEBUG_VALUE: read_status:addr <- $r4
	@DEBUG_VALUE: read_status:status_table <- $sp
	@DEBUG_VALUE: get_status:status_table <- $sp
	@DEBUG_VALUE: get_status:status_num_bak <- 3
	@DEBUG_VALUE: read_status:total_num <- 4
	@DEBUG_VALUE: get_status:i <- undef
	.loc	2 248 54 is_stmt 1              @ ../../../components/utility/EnhancedFlashDataset/Src/efd_kv.c:248:54
	bic	r1, r0, #-536870912
	.loc	2 248 13 is_stmt 0              @ ../../../components/utility/EnhancedFlashDataset/Src/efd_kv.c:248:13
	ldrb	r1, [r5, r1]
.Ltmp163:
	.loc	2 248 13                        @ ../../../components/utility/EnhancedFlashDataset/Src/efd_kv.c:248:13
	cbz	r1, .LBB6_16
.Ltmp164:
@ %bb.14:                               @   in Loop: Header=BB6_13 Depth=1
	@DEBUG_VALUE: del_env:key <- $r6
	@DEBUG_VALUE: del_env:dirty_status_addr <- $r4
	@DEBUG_VALUE: read_status:addr <- $r4
	@DEBUG_VALUE: read_status:status_table <- $sp
	@DEBUG_VALUE: get_status:status_table <- $sp
	@DEBUG_VALUE: get_status:status_num_bak <- 3
	@DEBUG_VALUE: read_status:total_num <- 4
	@DEBUG_VALUE: get_status:i <- [DW_OP_plus_uconst 1, DW_OP_stack_value] undef
	@DEBUG_VALUE: get_status:status_num <- $r0
	.loc	2 239 22 is_stmt 1              @ ../../../components/utility/EnhancedFlashDataset/Src/efd_kv.c:239:22
	subs	r0, #1
.Ltmp165:
	@DEBUG_VALUE: get_status:status_num <- $r0
	.loc	2 239 5 is_stmt 0               @ ../../../components/utility/EnhancedFlashDataset/Src/efd_kv.c:239:5
	adds	r1, r0, #1
	bne	.LBB6_13
.Ltmp166:
@ %bb.15:
	@DEBUG_VALUE: del_env:key <- $r6
	@DEBUG_VALUE: del_env:dirty_status_addr <- $r4
	@DEBUG_VALUE: read_status:addr <- $r4
	@DEBUG_VALUE: get_status:status_num <- $r0
	@DEBUG_VALUE: read_status:status_table <- $sp
	@DEBUG_VALUE: get_status:status_table <- $sp
	@DEBUG_VALUE: get_status:status_num_bak <- 3
	@DEBUG_VALUE: read_status:total_num <- 4
	.loc	2 0 5                           @ ../../../components/utility/EnhancedFlashDataset/Src/efd_kv.c:0:5
	movs	r0, #0
	b	.LBB6_18
.Ltmp167:
.LBB6_16:
	@DEBUG_VALUE: del_env:key <- $r6
	@DEBUG_VALUE: del_env:dirty_status_addr <- $r4
	.loc	2 1260 9 is_stmt 1              @ ../../../components/utility/EnhancedFlashDataset/Src/efd_kv.c:1260:9
	cmp	r0, #0
	mov.w	r0, #0
	bne	.LBB6_18
.Ltmp168:
@ %bb.17:
	@DEBUG_VALUE: del_env:key <- $r6
	@DEBUG_VALUE: del_env:dirty_status_addr <- $r4
	@DEBUG_VALUE: write_status:addr <- undef
	.loc	2 0 9 is_stmt 0                 @ ../../../components/utility/EnhancedFlashDataset/Src/efd_kv.c:0:9
	mov.w	r1, #-1
.Ltmp169:
	@DEBUG_VALUE: set_status:byte_index <- -1
	@DEBUG_VALUE: set_status:status_index <- 2
	@DEBUG_VALUE: set_status:status_num <- 4
	@DEBUG_VALUE: write_status:result <- 0
	@DEBUG_VALUE: write_status:status_index <- 2
	@DEBUG_VALUE: write_status:status_num <- 4
	.loc	2 220 5 is_stmt 1               @ ../../../components/utility/EnhancedFlashDataset/Src/efd_kv.c:220:5
	strh.w	r1, [sp]
	strb.w	r1, [sp, #2]
.Ltmp170:
	@DEBUG_VALUE: set_status:byte_index <- 1
	.loc	2 228 9                         @ ../../../components/utility/EnhancedFlashDataset/Src/efd_kv.c:228:9
	adds	r1, r5, #1
	.loc	2 228 34 is_stmt 0              @ ../../../components/utility/EnhancedFlashDataset/Src/efd_kv.c:228:34
	strb.w	r0, [sp, #1]
.Ltmp171:
	@DEBUG_VALUE: write_status:byte_index <- 1
	.loc	2 280 34 is_stmt 1              @ ../../../components/utility/EnhancedFlashDataset/Src/efd_kv.c:280:34
	adds	r0, r4, #1
	.loc	2 280 14 is_stmt 0              @ ../../../components/utility/EnhancedFlashDataset/Src/efd_kv.c:280:14
	movs	r2, #1
	bl	efd_port_write
.Ltmp172:
	@DEBUG_VALUE: set_status:status_table <- $sp
	@DEBUG_VALUE: write_status:status_table <- $sp
	@DEBUG_VALUE: write_status:result <- $r0
	@DEBUG_VALUE: del_env:result <- $r0
.LBB6_18:
	@DEBUG_VALUE: del_env:key <- $r6
	.loc	2 1266 1 is_stmt 1              @ ../../../components/utility/EnhancedFlashDataset/Src/efd_kv.c:1266:1
	add	sp, #92
	pop	{r4, r5, r6, r7, pc}
.Ltmp173:
.Lfunc_end6:
	.size	del_env, .Lfunc_end6-del_env
	.cfi_endproc
	.cantunwind
	.fnend
                                        @ -- End function
	.section	.text.efd_del_and_save_env,"ax",%progbits
	.hidden	efd_del_and_save_env            @ -- Begin function efd_del_and_save_env
	.globl	efd_del_and_save_env
	.p2align	1
	.type	efd_del_and_save_env,%function
	.code	16                              @ @efd_del_and_save_env
	.thumb_func
efd_del_and_save_env:
.Lfunc_begin7:
	.loc	2 1603 0                        @ ../../../components/utility/EnhancedFlashDataset/Src/efd_kv.c:1603:0
	.fnstart
	.cfi_startproc
@ %bb.0:
	@DEBUG_VALUE: efd_del_and_save_env:key <- $r0
	@DEBUG_VALUE: efd_del_and_save_env:key <- $r0
	@DEBUG_VALUE: efd_del_and_save_env:key <- $r0
	.loc	2 1604 12 prologue_end          @ ../../../components/utility/EnhancedFlashDataset/Src/efd_kv.c:1604:12
	b	efd_del_env
.Ltmp174:
.Lfunc_end7:
	.size	efd_del_and_save_env, .Lfunc_end7-efd_del_and_save_env
	.cfi_endproc
	.cantunwind
	.fnend
                                        @ -- End function
	.section	.text.efd_set_env_blob,"ax",%progbits
	.hidden	efd_set_env_blob                @ -- Begin function efd_set_env_blob
	.globl	efd_set_env_blob
	.p2align	1
	.type	efd_set_env_blob,%function
	.code	16                              @ @efd_set_env_blob
	.thumb_func
efd_set_env_blob:
.Lfunc_begin8:
	.loc	2 1662 0                        @ ../../../components/utility/EnhancedFlashDataset/Src/efd_kv.c:1662:0
	.fnstart
	.cfi_startproc
@ %bb.0:
	@DEBUG_VALUE: efd_set_env_blob:key <- $r0
	@DEBUG_VALUE: efd_set_env_blob:value_buf <- $r1
	@DEBUG_VALUE: efd_set_env_blob:buf_len <- $r2
	.save	{r4, r5, r6, r7, lr}
	push	{r4, r5, r6, r7, lr}
	.cfi_def_cfa_offset 20
	.cfi_offset lr, -4
	.cfi_offset r7, -8
	.cfi_offset r6, -12
	.cfi_offset r5, -16
	.cfi_offset r4, -20
	.pad	#4
	sub	sp, #4
	.cfi_def_cfa_offset 24
	mov	r5, r2
.Ltmp175:
	@DEBUG_VALUE: efd_set_env_blob:buf_len <- $r5
	@DEBUG_VALUE: efd_set_env_blob:buf_len <- $r5
	.loc	2 1665 10 prologue_end          @ ../../../components/utility/EnhancedFlashDataset/Src/efd_kv.c:1665:10
	movw	r2, :lower16:init_ok
	movt	r2, :upper16:init_ok
	ldrb	r2, [r2]
.Ltmp176:
	@DEBUG_VALUE: efd_set_env_blob:value_buf <- $r1
	.loc	2 1665 9 is_stmt 0              @ ../../../components/utility/EnhancedFlashDataset/Src/efd_kv.c:1665:9
	cmp	r2, #1
.Ltmp177:
	@DEBUG_VALUE: efd_set_env_blob:result <- 0
	@DEBUG_VALUE: efd_set_env_blob:key <- $r0
	bne	.LBB8_7
.Ltmp178:
@ %bb.1:
	@DEBUG_VALUE: efd_set_env_blob:buf_len <- $r5
	@DEBUG_VALUE: efd_set_env_blob:value_buf <- $r1
	@DEBUG_VALUE: efd_set_env_blob:key <- $r0
	@DEBUG_VALUE: efd_set_env_blob:result <- 0
	.loc	2 0 9                           @ ../../../components/utility/EnhancedFlashDataset/Src/efd_kv.c:0:9
	mov	r6, r1
.Ltmp179:
	@DEBUG_VALUE: efd_set_env_blob:value_buf <- $r6
	@DEBUG_VALUE: efd_set_env_blob:value_buf <- $r6
	mov	r4, r0
.Ltmp180:
	@DEBUG_VALUE: efd_set_env_blob:key <- $r4
	@DEBUG_VALUE: efd_set_env_blob:key <- $r4
	.loc	2 1672 5 is_stmt 1              @ ../../../components/utility/EnhancedFlashDataset/Src/efd_kv.c:1672:5
	bl	efd_port_env_lock
.Ltmp181:
	@DEBUG_VALUE: set_env:env_is_found <- 0
	@DEBUG_VALUE: set_env:result <- 0
	@DEBUG_VALUE: set_env:buf_len <- $r5
	@DEBUG_VALUE: set_env:value_buf <- $r6
	@DEBUG_VALUE: set_env:key <- $r4
	.loc	2 1614 9                        @ ../../../components/utility/EnhancedFlashDataset/Src/efd_kv.c:1614:9
	cbz	r6, .LBB8_8
.Ltmp182:
@ %bb.2:
	@DEBUG_VALUE: set_env:value_buf <- $r6
	@DEBUG_VALUE: efd_set_env_blob:value_buf <- $r6
	@DEBUG_VALUE: set_env:buf_len <- $r5
	@DEBUG_VALUE: efd_set_env_blob:buf_len <- $r5
	@DEBUG_VALUE: set_env:key <- $r4
	@DEBUG_VALUE: efd_set_env_blob:key <- $r4
	@DEBUG_VALUE: set_env:result <- 0
	@DEBUG_VALUE: set_env:env_is_found <- 0
	@DEBUG_VALUE: efd_set_env_blob:result <- 0
	.loc	2 1621 36                       @ ../../../components/utility/EnhancedFlashDataset/Src/efd_kv.c:1621:36
	mov	r0, r4
	bl	strlen
.Ltmp183:
	@DEBUG_VALUE: new_env_by_kv:buf_len <- $r5
	@DEBUG_VALUE: new_env_by_kv:key_len <- $r0
	.loc	2 1365 40                       @ ../../../components/utility/EnhancedFlashDataset/Src/efd_kv.c:1365:40
	add	r0, r5
.Ltmp184:
	.loc	2 1365 64 is_stmt 0             @ ../../../components/utility/EnhancedFlashDataset/Src/efd_kv.c:1365:64
	add.w	r1, r0, #22
.Ltmp185:
	@DEBUG_VALUE: new_env_by_kv:env_len <- $r1
	.loc	2 1367 12 is_stmt 1             @ ../../../components/utility/EnhancedFlashDataset/Src/efd_kv.c:1367:12
	movw	r0, :lower16:set_env.sector
	movt	r0, :upper16:set_env.sector
.Ltmp186:
	@DEBUG_VALUE: new_env_by_kv:sector <- $r0
	bl	new_env
.Ltmp187:
	.loc	2 1621 13                       @ ../../../components/utility/EnhancedFlashDataset/Src/efd_kv.c:1621:13
	adds	r0, #1
	beq	.LBB8_9
.Ltmp188:
@ %bb.3:
	@DEBUG_VALUE: set_env:value_buf <- $r6
	@DEBUG_VALUE: efd_set_env_blob:value_buf <- $r6
	@DEBUG_VALUE: set_env:buf_len <- $r5
	@DEBUG_VALUE: efd_set_env_blob:buf_len <- $r5
	@DEBUG_VALUE: set_env:key <- $r4
	@DEBUG_VALUE: efd_set_env_blob:key <- $r4
	@DEBUG_VALUE: set_env:result <- 0
	@DEBUG_VALUE: set_env:env_is_found <- 0
	@DEBUG_VALUE: efd_set_env_blob:result <- 0
	.loc	2 1625 24                       @ ../../../components/utility/EnhancedFlashDataset/Src/efd_kv.c:1625:24
	movw	r1, :lower16:set_env.env
	movt	r1, :upper16:set_env.env
	mov	r0, r4
	bl	find_env
.Ltmp189:
	@DEBUG_VALUE: set_env:env_is_found <- [DW_OP_LLVM_convert 1 7, DW_OP_LLVM_convert 8 7, DW_OP_stack_value] $r0
	.loc	2 1627 13                       @ ../../../components/utility/EnhancedFlashDataset/Src/efd_kv.c:1627:13
	cbz	r0, .LBB8_10
.Ltmp190:
@ %bb.4:
	@DEBUG_VALUE: set_env:value_buf <- $r6
	@DEBUG_VALUE: efd_set_env_blob:value_buf <- $r6
	@DEBUG_VALUE: set_env:buf_len <- $r5
	@DEBUG_VALUE: efd_set_env_blob:buf_len <- $r5
	@DEBUG_VALUE: set_env:key <- $r4
	@DEBUG_VALUE: efd_set_env_blob:key <- $r4
	@DEBUG_VALUE: set_env:env_is_found <- [DW_OP_LLVM_convert 1 7, DW_OP_LLVM_convert 8 7, DW_OP_stack_value] $r0
	@DEBUG_VALUE: set_env:result <- 0
	@DEBUG_VALUE: efd_set_env_blob:result <- 0
	.loc	2 1629 22                       @ ../../../components/utility/EnhancedFlashDataset/Src/efd_kv.c:1629:22
	movw	r1, :lower16:set_env.env
	movt	r1, :upper16:set_env.env
	mov	r0, r4
.Ltmp191:
	movs	r2, #0
	bl	del_env
.Ltmp192:
	mov	r7, r0
.Ltmp193:
	@DEBUG_VALUE: set_env:result <- $r7
	.loc	2 1632 13                       @ ../../../components/utility/EnhancedFlashDataset/Src/efd_kv.c:1632:13
	cbnz	r0, .LBB8_12
.Ltmp194:
@ %bb.5:
	@DEBUG_VALUE: set_env:result <- $r7
	@DEBUG_VALUE: set_env:value_buf <- $r6
	@DEBUG_VALUE: efd_set_env_blob:value_buf <- $r6
	@DEBUG_VALUE: set_env:buf_len <- $r5
	@DEBUG_VALUE: efd_set_env_blob:buf_len <- $r5
	@DEBUG_VALUE: set_env:key <- $r4
	@DEBUG_VALUE: efd_set_env_blob:key <- $r4
	@DEBUG_VALUE: efd_set_env_blob:result <- 0
	.loc	2 1634 22                       @ ../../../components/utility/EnhancedFlashDataset/Src/efd_kv.c:1634:22
	movw	r0, :lower16:set_env.sector
	movt	r0, :upper16:set_env.sector
	mov	r1, r4
	mov	r2, r6
	mov	r3, r5
	bl	create_env_blob
.Ltmp195:
	mov	r7, r0
.Ltmp196:
	@DEBUG_VALUE: set_env:result <- $r7
	.loc	2 1637 26                       @ ../../../components/utility/EnhancedFlashDataset/Src/efd_kv.c:1637:26
	cbnz	r0, .LBB8_12
.Ltmp197:
@ %bb.6:
	@DEBUG_VALUE: set_env:result <- $r7
	@DEBUG_VALUE: set_env:value_buf <- $r6
	@DEBUG_VALUE: efd_set_env_blob:value_buf <- $r6
	@DEBUG_VALUE: set_env:buf_len <- $r5
	@DEBUG_VALUE: efd_set_env_blob:buf_len <- $r5
	@DEBUG_VALUE: set_env:key <- $r4
	@DEBUG_VALUE: efd_set_env_blob:key <- $r4
	@DEBUG_VALUE: efd_set_env_blob:result <- 0
	.loc	2 1639 22                       @ ../../../components/utility/EnhancedFlashDataset/Src/efd_kv.c:1639:22
	movw	r1, :lower16:set_env.env
	movt	r1, :upper16:set_env.env
	mov	r0, r4
	movs	r2, #1
	bl	del_env
.Ltmp198:
	.loc	2 0 22 is_stmt 0                @ ../../../components/utility/EnhancedFlashDataset/Src/efd_kv.c:0:22
	b	.LBB8_11
.Ltmp199:
.LBB8_7:
	@DEBUG_VALUE: efd_set_env_blob:buf_len <- $r5
	@DEBUG_VALUE: efd_set_env_blob:value_buf <- $r1
	@DEBUG_VALUE: efd_set_env_blob:key <- $r0
	@DEBUG_VALUE: efd_set_env_blob:result <- 0
	movs	r7, #7
	b	.LBB8_14
.Ltmp200:
.LBB8_8:
	@DEBUG_VALUE: set_env:value_buf <- $r6
	@DEBUG_VALUE: efd_set_env_blob:value_buf <- $r6
	@DEBUG_VALUE: set_env:buf_len <- $r5
	@DEBUG_VALUE: efd_set_env_blob:buf_len <- $r5
	@DEBUG_VALUE: set_env:key <- $r4
	@DEBUG_VALUE: efd_set_env_blob:key <- $r4
	@DEBUG_VALUE: set_env:result <- 0
	@DEBUG_VALUE: set_env:env_is_found <- 0
	@DEBUG_VALUE: efd_set_env_blob:result <- 0
	.loc	2 1616 18 is_stmt 1             @ ../../../components/utility/EnhancedFlashDataset/Src/efd_kv.c:1616:18
	mov	r0, r4
	movs	r1, #0
	movs	r2, #1
	bl	del_env
.Ltmp201:
	mov	r7, r0
.Ltmp202:
	@DEBUG_VALUE: set_env:result <- $r7
	.loc	2 0 18 is_stmt 0                @ ../../../components/utility/EnhancedFlashDataset/Src/efd_kv.c:0:18
	b	.LBB8_13
.Ltmp203:
.LBB8_9:
	@DEBUG_VALUE: set_env:value_buf <- $r6
	@DEBUG_VALUE: efd_set_env_blob:value_buf <- $r6
	@DEBUG_VALUE: new_env_by_kv:buf_len <- $r5
	@DEBUG_VALUE: set_env:buf_len <- $r5
	@DEBUG_VALUE: efd_set_env_blob:buf_len <- $r5
	@DEBUG_VALUE: set_env:key <- $r4
	@DEBUG_VALUE: efd_set_env_blob:key <- $r4
	@DEBUG_VALUE: set_env:result <- 0
	@DEBUG_VALUE: set_env:env_is_found <- 0
	@DEBUG_VALUE: efd_set_env_blob:result <- 0
	movs	r7, #6
	b	.LBB8_13
.Ltmp204:
.LBB8_10:
	@DEBUG_VALUE: set_env:value_buf <- $r6
	@DEBUG_VALUE: efd_set_env_blob:value_buf <- $r6
	@DEBUG_VALUE: set_env:buf_len <- $r5
	@DEBUG_VALUE: efd_set_env_blob:buf_len <- $r5
	@DEBUG_VALUE: set_env:key <- $r4
	@DEBUG_VALUE: efd_set_env_blob:key <- $r4
	@DEBUG_VALUE: set_env:env_is_found <- [DW_OP_LLVM_convert 1 7, DW_OP_LLVM_convert 8 7, DW_OP_stack_value] $r0
	@DEBUG_VALUE: set_env:result <- 0
	@DEBUG_VALUE: efd_set_env_blob:result <- 0
	.loc	2 1634 22 is_stmt 1             @ ../../../components/utility/EnhancedFlashDataset/Src/efd_kv.c:1634:22
	movw	r0, :lower16:set_env.sector
.Ltmp205:
	movt	r0, :upper16:set_env.sector
	mov	r1, r4
	mov	r2, r6
	mov	r3, r5
	bl	create_env_blob
.Ltmp206:
.LBB8_11:
	@DEBUG_VALUE: set_env:value_buf <- $r6
	@DEBUG_VALUE: efd_set_env_blob:value_buf <- $r6
	@DEBUG_VALUE: set_env:buf_len <- $r5
	@DEBUG_VALUE: efd_set_env_blob:buf_len <- $r5
	@DEBUG_VALUE: set_env:key <- $r4
	@DEBUG_VALUE: efd_set_env_blob:key <- $r4
	@DEBUG_VALUE: efd_set_env_blob:result <- 0
	.loc	2 0 0 is_stmt 0                 @ ../../../components/utility/EnhancedFlashDataset/Src/efd_kv.c:0:0
	mov	r7, r0
.Ltmp207:
	@DEBUG_VALUE: set_env:result <- $r7
.LBB8_12:
	@DEBUG_VALUE: set_env:result <- $r7
	@DEBUG_VALUE: set_env:value_buf <- $r6
	@DEBUG_VALUE: efd_set_env_blob:value_buf <- $r6
	@DEBUG_VALUE: set_env:buf_len <- $r5
	@DEBUG_VALUE: efd_set_env_blob:buf_len <- $r5
	@DEBUG_VALUE: set_env:key <- $r4
	@DEBUG_VALUE: efd_set_env_blob:key <- $r4
	@DEBUG_VALUE: efd_set_env_blob:result <- 0
	@DEBUG_VALUE: set_env:result <- $r7
	.loc	2 1642 13 is_stmt 1             @ ../../../components/utility/EnhancedFlashDataset/Src/efd_kv.c:1642:13
	movw	r0, :lower16:gc_request
	movt	r0, :upper16:gc_request
	ldrb	r0, [r0]
.Ltmp208:
	.loc	2 1642 13 is_stmt 0             @ ../../../components/utility/EnhancedFlashDataset/Src/efd_kv.c:1642:13
	cmp	r0, #1
.Ltmp209:
	.loc	2 1644 13 is_stmt 1             @ ../../../components/utility/EnhancedFlashDataset/Src/efd_kv.c:1644:13
	it	eq
	bleq	gc_collect
.Ltmp210:
.LBB8_13:
	@DEBUG_VALUE: efd_set_env_blob:value_buf <- $r6
	@DEBUG_VALUE: efd_set_env_blob:buf_len <- $r5
	@DEBUG_VALUE: efd_set_env_blob:key <- $r4
	@DEBUG_VALUE: efd_set_env_blob:result <- 0
	@DEBUG_VALUE: efd_set_env_blob:result <- $r7
	.loc	2 1677 5                        @ ../../../components/utility/EnhancedFlashDataset/Src/efd_kv.c:1677:5
	bl	efd_port_env_unlock
.Ltmp211:
.LBB8_14:
	@DEBUG_VALUE: efd_set_env_blob:buf_len <- $r5
	.loc	2 1680 1                        @ ../../../components/utility/EnhancedFlashDataset/Src/efd_kv.c:1680:1
	mov	r0, r7
	add	sp, #4
	pop	{r4, r5, r6, r7, pc}
.Ltmp212:
.Lfunc_end8:
	.size	efd_set_env_blob, .Lfunc_end8-efd_set_env_blob
	.cfi_endproc
	.cantunwind
	.fnend
                                        @ -- End function
	.section	.text.efd_set_env,"ax",%progbits
	.hidden	efd_set_env                     @ -- Begin function efd_set_env
	.globl	efd_set_env
	.p2align	1
	.type	efd_set_env,%function
	.code	16                              @ @efd_set_env
	.thumb_func
efd_set_env:
.Lfunc_begin9:
	.loc	2 1692 0                        @ ../../../components/utility/EnhancedFlashDataset/Src/efd_kv.c:1692:0
	.fnstart
	.cfi_startproc
@ %bb.0:
	@DEBUG_VALUE: efd_set_env:key <- $r0
	@DEBUG_VALUE: efd_set_env:value <- $r1
	.save	{r4, r5, r7, lr}
	push	{r4, r5, r7, lr}
	.cfi_def_cfa_offset 16
	.cfi_offset lr, -4
	.cfi_offset r7, -8
	.cfi_offset r5, -12
	.cfi_offset r4, -16
	mov	r5, r0
.Ltmp213:
	@DEBUG_VALUE: efd_set_env:key <- $r5
	@DEBUG_VALUE: efd_set_env:value <- $r4
	@DEBUG_VALUE: efd_set_env:key <- $r5
	.loc	2 1693 41 prologue_end          @ ../../../components/utility/EnhancedFlashDataset/Src/efd_kv.c:1693:41
	mov	r0, r1
	mov	r4, r1
.Ltmp214:
	bl	strlen
.Ltmp215:
	mov	r2, r0
	.loc	2 1693 12 is_stmt 0             @ ../../../components/utility/EnhancedFlashDataset/Src/efd_kv.c:1693:12
	mov	r0, r5
.Ltmp216:
	@DEBUG_VALUE: efd_set_env:key <- $r0
	mov	r1, r4
	pop.w	{r4, r5, r7, lr}
.Ltmp217:
	b	efd_set_env_blob
.Ltmp218:
.Lfunc_end9:
	.size	efd_set_env, .Lfunc_end9-efd_set_env
	.cfi_endproc
	.cantunwind
	.fnend
                                        @ -- End function
	.section	.text.efd_set_and_save_env,"ax",%progbits
	.hidden	efd_set_and_save_env            @ -- Begin function efd_set_and_save_env
	.globl	efd_set_and_save_env
	.p2align	1
	.type	efd_set_and_save_env,%function
	.code	16                              @ @efd_set_and_save_env
	.thumb_func
efd_set_and_save_env:
.Lfunc_begin10:
	.loc	2 1708 0 is_stmt 1              @ ../../../components/utility/EnhancedFlashDataset/Src/efd_kv.c:1708:0
	.fnstart
	.cfi_startproc
@ %bb.0:
	@DEBUG_VALUE: efd_set_and_save_env:key <- $r0
	@DEBUG_VALUE: efd_set_and_save_env:value <- $r1
	.save	{r4, r5, r7, lr}
	push	{r4, r5, r7, lr}
	.cfi_def_cfa_offset 16
	.cfi_offset lr, -4
	.cfi_offset r7, -8
	.cfi_offset r5, -12
	.cfi_offset r4, -16
	mov	r5, r0
.Ltmp219:
	@DEBUG_VALUE: efd_set_and_save_env:key <- $r5
	@DEBUG_VALUE: efd_set_and_save_env:value <- $r4
	@DEBUG_VALUE: efd_set_and_save_env:key <- $r5
	.loc	2 1709 41 prologue_end          @ ../../../components/utility/EnhancedFlashDataset/Src/efd_kv.c:1709:41
	mov	r0, r1
	mov	r4, r1
.Ltmp220:
	bl	strlen
.Ltmp221:
	mov	r2, r0
	.loc	2 1709 12 is_stmt 0             @ ../../../components/utility/EnhancedFlashDataset/Src/efd_kv.c:1709:12
	mov	r0, r5
.Ltmp222:
	@DEBUG_VALUE: efd_set_and_save_env:key <- $r0
	mov	r1, r4
	pop.w	{r4, r5, r7, lr}
.Ltmp223:
	b	efd_set_env_blob
.Ltmp224:
.Lfunc_end10:
	.size	efd_set_and_save_env, .Lfunc_end10-efd_set_and_save_env
	.cfi_endproc
	.cantunwind
	.fnend
                                        @ -- End function
	.section	.text.efd_save_env,"ax",%progbits
	.hidden	efd_save_env                    @ -- Begin function efd_save_env
	.globl	efd_save_env
	.p2align	1
	.type	efd_save_env,%function
	.code	16                              @ @efd_save_env
	.thumb_func
efd_save_env:
.Lfunc_begin11:
	.loc	2 1718 0 is_stmt 1              @ ../../../components/utility/EnhancedFlashDataset/Src/efd_kv.c:1718:0
	.fnstart
	.cfi_startproc
@ %bb.0:
	.loc	2 1720 5 prologue_end           @ ../../../components/utility/EnhancedFlashDataset/Src/efd_kv.c:1720:5
	movs	r0, #0
	bx	lr
.Ltmp225:
.Lfunc_end11:
	.size	efd_save_env, .Lfunc_end11-efd_save_env
	.cfi_endproc
	.cantunwind
	.fnend
                                        @ -- End function
	.section	.text.efd_env_set_default,"ax",%progbits
	.hidden	efd_env_set_default             @ -- Begin function efd_env_set_default
	.globl	efd_env_set_default
	.p2align	1
	.type	efd_env_set_default,%function
	.code	16                              @ @efd_env_set_default
	.thumb_func
efd_env_set_default:
.Lfunc_begin12:
	.loc	2 1729 0                        @ ../../../components/utility/EnhancedFlashDataset/Src/efd_kv.c:1729:0
	.fnstart
	.cfi_startproc
@ %bb.0:
	.save	{r4, r5, r6, r7, r8, r9, r10, r11, lr}
	push.w	{r4, r5, r6, r7, r8, r9, r10, r11, lr}
	.cfi_def_cfa_offset 36
	.cfi_offset lr, -4
	.cfi_offset r11, -8
	.cfi_offset r10, -12
	.cfi_offset r9, -16
	.cfi_offset r8, -20
	.cfi_offset r7, -24
	.cfi_offset r6, -28
	.cfi_offset r5, -32
	.cfi_offset r4, -36
	.pad	#36
	sub	sp, #36
	.cfi_def_cfa_offset 72
.Ltmp226:
	@DEBUG_VALUE: efd_env_set_default:result <- 0
	.loc	2 1734 5 prologue_end           @ ../../../components/utility/EnhancedFlashDataset/Src/efd_kv.c:1734:5
	movw	r9, :lower16:default_env_set
	movt	r9, :upper16:default_env_set
	ldr.w	r0, [r9]
.Ltmp227:
	.loc	2 1734 5 is_stmt 0              @ ../../../components/utility/EnhancedFlashDataset/Src/efd_kv.c:1734:5
	cmp	r0, #0
	beq	.LBB12_11
.Ltmp228:
@ %bb.1:
	@DEBUG_VALUE: efd_env_set_default:result <- 0
	.loc	2 1735 5 is_stmt 1              @ ../../../components/utility/EnhancedFlashDataset/Src/efd_kv.c:1735:5
	movw	r8, :lower16:default_env_set_size
	movt	r8, :upper16:default_env_set_size
	ldr.w	r0, [r8]
.Ltmp229:
	.loc	2 1735 5 is_stmt 0              @ ../../../components/utility/EnhancedFlashDataset/Src/efd_kv.c:1735:5
	cmp	r0, #0
	beq	.LBB12_13
.Ltmp230:
@ %bb.2:
	@DEBUG_VALUE: efd_env_set_default:result <- 0
	.loc	2 1738 5 is_stmt 1              @ ../../../components/utility/EnhancedFlashDataset/Src/efd_kv.c:1738:5
	bl	efd_port_env_lock
.Ltmp231:
	@DEBUG_VALUE: efd_env_set_default:addr <- undef
	@DEBUG_VALUE: efd_env_set_default:result <- 0
	.loc	2 1740 17                       @ ../../../components/utility/EnhancedFlashDataset/Src/efd_kv.c:1740:17
	movw	r6, :lower16:env_start_addr
	movt	r6, :upper16:env_start_addr
	ldrb	r4, [r6]
	cmp	r4, #0
	it	ne
	movne.w	r4, #995328
.Ltmp232:
	@DEBUG_VALUE: efd_env_set_default:addr <- $r4
	.p2align	2
.LBB12_3:                               @ =>This Inner Loop Header: Depth=1
	@DEBUG_VALUE: efd_env_set_default:addr <- $r4
	@DEBUG_VALUE: efd_env_set_default:result <- 0
	@DEBUG_VALUE: efd_env_set_default:addr <- $r4
	.loc	2 1742 18                       @ ../../../components/utility/EnhancedFlashDataset/Src/efd_kv.c:1742:18
	mov	r0, r4
	bl	format_sector
.Ltmp233:
	@DEBUG_VALUE: efd_env_set_default:addr <- undef
	@DEBUG_VALUE: efd_env_set_default:result <- $r0
	.loc	2 1743 13                       @ ../../../components/utility/EnhancedFlashDataset/Src/efd_kv.c:1743:13
	cmp	r0, #0
	bne	.LBB12_15
.Ltmp234:
@ %bb.4:                                @   in Loop: Header=BB12_3 Depth=1
	@DEBUG_VALUE: efd_env_set_default:result <- $r0
	.loc	2 1740 40                       @ ../../../components/utility/EnhancedFlashDataset/Src/efd_kv.c:1740:40
	ldrb	r0, [r6]
.Ltmp235:
	.loc	2 0 0 is_stmt 0                 @ ../../../components/utility/EnhancedFlashDataset/Src/efd_kv.c:0:0
	add.w	r4, r4, #4096
.Ltmp236:
	@DEBUG_VALUE: efd_env_set_default:addr <- $r4
	@DEBUG_VALUE: efd_env_set_default:result <- 0
	.loc	2 1740 55                       @ ../../../components/utility/EnhancedFlashDataset/Src/efd_kv.c:1740:55
	cmp	r0, #0
	mov.w	r0, #32768
	it	ne
	movne.w	r0, #1028096
.Ltmp237:
	.loc	2 1740 5                        @ ../../../components/utility/EnhancedFlashDataset/Src/efd_kv.c:1740:5
	cmp	r4, r0
	blo	.LBB12_3
.Ltmp238:
@ %bb.5:
	@DEBUG_VALUE: efd_env_set_default:addr <- $r4
	@DEBUG_VALUE: efd_env_set_default:result <- 0
	@DEBUG_VALUE: efd_env_set_default:i <- 0
	.loc	2 1749 21 is_stmt 1             @ ../../../components/utility/EnhancedFlashDataset/Src/efd_kv.c:1749:21
	ldr.w	r0, [r8]
.Ltmp239:
	.loc	2 1749 5 is_stmt 0              @ ../../../components/utility/EnhancedFlashDataset/Src/efd_kv.c:1749:5
	cbz	r0, .LBB12_10
.Ltmp240:
@ %bb.6:
	@DEBUG_VALUE: efd_env_set_default:addr <- $r4
	@DEBUG_VALUE: efd_env_set_default:i <- 0
	@DEBUG_VALUE: efd_env_set_default:result <- 0
	.loc	2 0 5                           @ ../../../components/utility/EnhancedFlashDataset/Src/efd_kv.c:0:5
	movs	r7, #0
	mov.w	r10, #-1
	add.w	r11, sp, #4
	movs	r6, #0
.Ltmp241:
	.p2align	2
.LBB12_7:                               @ =>This Inner Loop Header: Depth=1
	@DEBUG_VALUE: efd_env_set_default:result <- 0
	@DEBUG_VALUE: efd_env_set_default:i <- $r6
	.loc	2 1753 13 is_stmt 1             @ ../../../components/utility/EnhancedFlashDataset/Src/efd_kv.c:1753:13
	ldr.w	r4, [r9]
	.loc	2 1753 32 is_stmt 0             @ ../../../components/utility/EnhancedFlashDataset/Src/efd_kv.c:1753:32
	adds	r0, r4, r7
.Ltmp242:
	.loc	2 0 0                           @ ../../../components/utility/EnhancedFlashDataset/Src/efd_kv.c:0:0
	ldrd	r5, r3, [r0, #4]
	cbnz	r3, .LBB12_9
.Ltmp243:
@ %bb.8:                                @   in Loop: Header=BB12_7 Depth=1
	@DEBUG_VALUE: efd_env_set_default:i <- $r6
	@DEBUG_VALUE: efd_env_set_default:result <- 0
	.loc	2 1755 25 is_stmt 1             @ ../../../components/utility/EnhancedFlashDataset/Src/efd_kv.c:1755:25
	mov	r0, r5
	bl	strlen
.Ltmp244:
	mov	r3, r0
.Ltmp245:
	@DEBUG_VALUE: efd_env_set_default:value_len <- $r3
.LBB12_9:                               @   in Loop: Header=BB12_7 Depth=1
	@DEBUG_VALUE: efd_env_set_default:i <- $r6
	@DEBUG_VALUE: efd_env_set_default:result <- 0
	@DEBUG_VALUE: efd_env_set_default:value_len <- $r3
	.loc	2 1761 26                       @ ../../../components/utility/EnhancedFlashDataset/Src/efd_kv.c:1761:26
	str.w	r10, [sp, #29]
	.loc	2 1762 53                       @ ../../../components/utility/EnhancedFlashDataset/Src/efd_kv.c:1762:53
	ldr	r1, [r4, r7]
	.loc	2 1762 9 is_stmt 0              @ ../../../components/utility/EnhancedFlashDataset/Src/efd_kv.c:1762:9
	mov	r0, r11
	mov	r2, r5
	bl	create_env_blob
.Ltmp246:
	.loc	2 1749 21 is_stmt 1             @ ../../../components/utility/EnhancedFlashDataset/Src/efd_kv.c:1749:21
	ldr.w	r0, [r8]
	.loc	2 1749 44 is_stmt 0             @ ../../../components/utility/EnhancedFlashDataset/Src/efd_kv.c:1749:44
	adds	r6, #1
.Ltmp247:
	@DEBUG_VALUE: efd_env_set_default:i <- $r6
	.loc	2 1749 5                        @ ../../../components/utility/EnhancedFlashDataset/Src/efd_kv.c:1749:5
	cmp	r6, r0
.Ltmp248:
	.loc	2 1749 19                       @ ../../../components/utility/EnhancedFlashDataset/Src/efd_kv.c:1749:19
	add.w	r7, r7, #12
	blo	.LBB12_7
.Ltmp249:
.LBB12_10:
	@DEBUG_VALUE: efd_env_set_default:result <- 0
	.loc	2 0 19                          @ ../../../components/utility/EnhancedFlashDataset/Src/efd_kv.c:0:19
	movs	r5, #0
	b	.LBB12_16
.Ltmp250:
.LBB12_11:
	@DEBUG_VALUE: efd_env_set_default:result <- 0
	.loc	2 1734 5 is_stmt 1              @ ../../../components/utility/EnhancedFlashDataset/Src/efd_kv.c:1734:5
	movw	r0, :lower16:.L.str
	movw	r1, :lower16:.L.str.1
	movt	r0, :upper16:.L.str
	movt	r1, :upper16:.L.str.1
	movw	r2, #1734
	bl	__2printf
.Ltmp251:
	.p2align	2
.LBB12_12:                              @ =>This Inner Loop Header: Depth=1
	@DEBUG_VALUE: efd_env_set_default:result <- 0
	b	.LBB12_12
.Ltmp252:
.LBB12_13:
	@DEBUG_VALUE: efd_env_set_default:result <- 0
	.loc	2 1735 5                        @ ../../../components/utility/EnhancedFlashDataset/Src/efd_kv.c:1735:5
	movw	r0, :lower16:.L.str
	movw	r1, :lower16:.L.str.1
	movt	r0, :upper16:.L.str
	movt	r1, :upper16:.L.str.1
	movw	r2, #1735
	bl	__2printf
.Ltmp253:
	.p2align	2
.LBB12_14:                              @ =>This Inner Loop Header: Depth=1
	@DEBUG_VALUE: efd_env_set_default:result <- 0
	b	.LBB12_14
.Ltmp254:
.LBB12_15:
	@DEBUG_VALUE: efd_env_set_default:result <- $r0
	.loc	2 0 5 is_stmt 0                 @ ../../../components/utility/EnhancedFlashDataset/Src/efd_kv.c:0:5
	mov	r5, r0
.Ltmp255:
	@DEBUG_VALUE: efd_env_set_default:result <- $r5
	@DEBUG_VALUE: efd_env_set_default:result <- $r5
.LBB12_16:
	@DEBUG_VALUE: efd_env_set_default:result <- $r5
	@DEBUG_LABEL: efd_env_set_default:__exit
	.loc	2 1771 5 is_stmt 1              @ ../../../components/utility/EnhancedFlashDataset/Src/efd_kv.c:1771:5
	bl	efd_port_env_unlock
.Ltmp256:
	.loc	2 1773 5                        @ ../../../components/utility/EnhancedFlashDataset/Src/efd_kv.c:1773:5
	mov	r0, r5
	add	sp, #36
	pop.w	{r4, r5, r6, r7, r8, r9, r10, r11, pc}
.Ltmp257:
.Lfunc_end12:
	.size	efd_env_set_default, .Lfunc_end12-efd_env_set_default
	.cfi_endproc
	.cantunwind
	.fnend
                                        @ -- End function
	.section	.text.format_sector,"ax",%progbits
	.p2align	1                               @ -- Begin function format_sector
	.type	format_sector,%function
	.code	16                              @ @format_sector
	.thumb_func
format_sector:
.Lfunc_begin13:
	.loc	2 1048 0                        @ ../../../components/utility/EnhancedFlashDataset/Src/efd_kv.c:1048:0
	.fnstart
	.cfi_startproc
@ %bb.0:
	@DEBUG_VALUE: format_sector:addr <- $r0
	.save	{r4, r5, r7, lr}
	push	{r4, r5, r7, lr}
	.cfi_def_cfa_offset 16
	.cfi_offset lr, -4
	.cfi_offset r7, -8
	.cfi_offset r5, -12
	.cfi_offset r4, -16
	.pad	#24
	sub	sp, #24
	.cfi_def_cfa_offset 40
	mov	r4, r0
.Ltmp258:
	@DEBUG_VALUE: format_sector:result <- 0
	@DEBUG_VALUE: format_sector:combined_value <- -1
	@DEBUG_VALUE: format_sector:addr <- $r4
	.loc	2 1052 5 prologue_end           @ ../../../components/utility/EnhancedFlashDataset/Src/efd_kv.c:1052:5
	lsls	r0, r0, #20
	beq	.LBB13_3
.Ltmp259:
@ %bb.1:
	@DEBUG_VALUE: format_sector:addr <- $r4
	@DEBUG_VALUE: format_sector:combined_value <- -1
	@DEBUG_VALUE: format_sector:result <- 0
	.loc	2 1052 5 is_stmt 0              @ ../../../components/utility/EnhancedFlashDataset/Src/efd_kv.c:1052:5
	movw	r0, :lower16:.L.str
	movw	r1, :lower16:.L.str.1
	movt	r0, :upper16:.L.str
	movt	r1, :upper16:.L.str.1
	movw	r2, #1052
	bl	__2printf
.Ltmp260:
	.p2align	2
.LBB13_2:                               @ =>This Inner Loop Header: Depth=1
	@DEBUG_VALUE: format_sector:addr <- $r4
	@DEBUG_VALUE: format_sector:combined_value <- -1
	@DEBUG_VALUE: format_sector:result <- 0
	b	.LBB13_2
.Ltmp261:
.LBB13_3:
	@DEBUG_VALUE: format_sector:addr <- $r4
	@DEBUG_VALUE: format_sector:combined_value <- -1
	@DEBUG_VALUE: format_sector:result <- 0
	.loc	2 1054 14 is_stmt 1             @ ../../../components/utility/EnhancedFlashDataset/Src/efd_kv.c:1054:14
	mov	r0, r4
	mov.w	r1, #4096
	bl	efd_port_erase
.Ltmp262:
	mov	r5, r0
.Ltmp263:
	@DEBUG_VALUE: format_sector:result <- $r5
	.loc	2 1055 9                        @ ../../../components/utility/EnhancedFlashDataset/Src/efd_kv.c:1055:9
	cbnz	r0, .LBB13_5
.Ltmp264:
@ %bb.4:
	@DEBUG_VALUE: format_sector:result <- $r5
	@DEBUG_VALUE: format_sector:addr <- $r4
	@DEBUG_VALUE: format_sector:combined_value <- -1
	.loc	2 0 9 is_stmt 0                 @ ../../../components/utility/EnhancedFlashDataset/Src/efd_kv.c:0:9
	movs	r1, #0
.Ltmp265:
	.loc	2 228 34 is_stmt 1              @ ../../../components/utility/EnhancedFlashDataset/Src/efd_kv.c:228:34
	strb.w	r1, [sp, #4]
.Ltmp266:
	@DEBUG_VALUE: set_status:status_table <- undef
	@DEBUG_VALUE: set_status:byte_index <- -1
	@DEBUG_VALUE: set_status:status_index <- 1
	@DEBUG_VALUE: set_status:status_num <- 4
	@DEBUG_VALUE: set_status:status_table <- [DW_OP_plus_uconst 4, DW_OP_stack_value] $sp
	.loc	2 228 34 is_stmt 0              @ ../../../components/utility/EnhancedFlashDataset/Src/efd_kv.c:228:34
	strb.w	r1, [sp, #7]
	movw	r1, #17989
	mov.w	r0, #-1
.Ltmp267:
	@DEBUG_VALUE: set_status:byte_index <- 0
	@DEBUG_VALUE: set_status:status_index <- 1
	@DEBUG_VALUE: set_status:status_num <- 4
	.loc	2 0 34                          @ ../../../components/utility/EnhancedFlashDataset/Src/efd_kv.c:0:34
	movt	r1, #12340
.Ltmp268:
	.loc	2 220 5 is_stmt 1               @ ../../../components/utility/EnhancedFlashDataset/Src/efd_kv.c:220:5
	strh.w	r0, [sp, #5]
.Ltmp269:
	.loc	2 220 5 is_stmt 0               @ ../../../components/utility/EnhancedFlashDataset/Src/efd_kv.c:220:5
	strh.w	r0, [sp, #8]
.Ltmp270:
	@DEBUG_VALUE: set_status:byte_index <- 0
	.loc	2 1061 26 is_stmt 1             @ ../../../components/utility/EnhancedFlashDataset/Src/efd_kv.c:1061:26
	str.w	r1, [sp, #10]
	.loc	2 1062 26                       @ ../../../components/utility/EnhancedFlashDataset/Src/efd_kv.c:1062:26
	str.w	r0, [sp, #14]
	.loc	2 1063 26                       @ ../../../components/utility/EnhancedFlashDataset/Src/efd_kv.c:1063:26
	str.w	r0, [sp, #18]
	add	r1, sp, #4
	.loc	2 1065 18                       @ ../../../components/utility/EnhancedFlashDataset/Src/efd_kv.c:1065:18
	mov	r0, r4
	movs	r2, #18
	bl	efd_port_write
.Ltmp271:
	mov	r5, r0
.Ltmp272:
	@DEBUG_VALUE: format_sector:result <- $r5
	.loc	2 1069 40                       @ ../../../components/utility/EnhancedFlashDataset/Src/efd_kv.c:1069:40
	add.w	r1, r4, #4096
	.loc	2 1069 9 is_stmt 0              @ ../../../components/utility/EnhancedFlashDataset/Src/efd_kv.c:1069:9
	mov	r0, r4
	bl	update_sector_cache
.Ltmp273:
.LBB13_5:
	@DEBUG_VALUE: format_sector:result <- $r5
	@DEBUG_VALUE: format_sector:addr <- $r4
	@DEBUG_VALUE: format_sector:combined_value <- -1
	@DEBUG_VALUE: format_sector:result <- $r5
	.loc	2 1073 5 is_stmt 1              @ ../../../components/utility/EnhancedFlashDataset/Src/efd_kv.c:1073:5
	mov	r0, r5
	add	sp, #24
	pop	{r4, r5, r7, pc}
.Ltmp274:
.Lfunc_end13:
	.size	format_sector, .Lfunc_end13-format_sector
	.cfi_endproc
	.cantunwind
	.fnend
                                        @ -- End function
	.section	.text.create_env_blob,"ax",%progbits
	.p2align	1                               @ -- Begin function create_env_blob
	.type	create_env_blob,%function
	.code	16                              @ @create_env_blob
	.thumb_func
create_env_blob:
.Lfunc_begin14:
	.loc	2 1473 0                        @ ../../../components/utility/EnhancedFlashDataset/Src/efd_kv.c:1473:0
	.fnstart
	.cfi_startproc
@ %bb.0:
	@DEBUG_VALUE: create_env_blob:sector <- $r0
	@DEBUG_VALUE: create_env_blob:key <- $r1
	@DEBUG_VALUE: create_env_blob:value <- $r2
	@DEBUG_VALUE: create_env_blob:len <- $r3
	.save	{r4, r5, r6, r7, r8, r9, r10, r11, lr}
	push.w	{r4, r5, r6, r7, r8, r9, r10, r11, lr}
	.cfi_def_cfa_offset 36
	.cfi_offset lr, -4
	.cfi_offset r11, -8
	.cfi_offset r10, -12
	.cfi_offset r9, -16
	.cfi_offset r8, -20
	.cfi_offset r7, -24
	.cfi_offset r6, -28
	.cfi_offset r5, -32
	.cfi_offset r4, -36
	.pad	#28
	sub	sp, #28
	.cfi_def_cfa_offset 64
	mov	r7, r0
.Ltmp275:
	@DEBUG_VALUE: create_env_blob:sector <- $r7
	movs	r0, #0
.Ltmp276:
	@DEBUG_VALUE: create_env_blob:is_full <- 0
	@DEBUG_VALUE: create_env_blob:result <- 0
	@DEBUG_VALUE: create_env_blob:len <- $r5
	@DEBUG_VALUE: create_env_blob:value <- $r10
	@DEBUG_VALUE: create_env_blob:key <- $r6
	@DEBUG_VALUE: create_env_blob:sector <- $r7
	.loc	2 1477 33 prologue_end          @ ../../../components/utility/EnhancedFlashDataset/Src/efd_kv.c:1477:33
	ldr.w	r11, [r7, #25]
.Ltmp277:
	@DEBUG_VALUE: create_env_blob:env_addr <- $r11
	.loc	2 1476 10                       @ ../../../components/utility/EnhancedFlashDataset/Src/efd_kv.c:1476:10
	strb.w	r0, [sp, #3]
.Ltmp278:
	.loc	2 1479 9                        @ ../../../components/utility/EnhancedFlashDataset/Src/efd_kv.c:1479:9
	mov	r0, r1
	mov	r5, r3
.Ltmp279:
	.loc	2 0 9 is_stmt 0                 @ ../../../components/utility/EnhancedFlashDataset/Src/efd_kv.c:0:9
	mov	r10, r2
.Ltmp280:
	mov	r6, r1
.Ltmp281:
	.loc	2 1479 9                        @ ../../../components/utility/EnhancedFlashDataset/Src/efd_kv.c:1479:9
	bl	strlen
.Ltmp282:
	.loc	2 1479 9                        @ ../../../components/utility/EnhancedFlashDataset/Src/efd_kv.c:1479:9
	cmp	r0, #64
	bls	.LBB14_2
.Ltmp283:
@ %bb.1:
	@DEBUG_VALUE: create_env_blob:env_addr <- $r11
	@DEBUG_VALUE: create_env_blob:sector <- $r7
	@DEBUG_VALUE: create_env_blob:result <- 0
	@DEBUG_VALUE: create_env_blob:is_full <- 0
	.loc	2 0 9                           @ ../../../components/utility/EnhancedFlashDataset/Src/efd_kv.c:0:9
	movs	r5, #4
	b	.LBB14_15
.Ltmp284:
.LBB14_2:
	@DEBUG_VALUE: create_env_blob:env_addr <- $r11
	@DEBUG_VALUE: create_env_blob:sector <- $r7
	@DEBUG_VALUE: create_env_blob:result <- 0
	@DEBUG_VALUE: create_env_blob:is_full <- 0
	add.w	r9, sp, #4
	mov	r4, r0
	.loc	2 1485 5 is_stmt 1              @ ../../../components/utility/EnhancedFlashDataset/Src/efd_kv.c:1485:5
	mov	r0, r9
	movs	r1, #17
	movs	r2, #255
	bl	__aeabi_memset4
.Ltmp285:
	.loc	2 0 5 is_stmt 0                 @ ../../../components/utility/EnhancedFlashDataset/Src/efd_kv.c:0:5
	movw	r0, #22091
	movt	r0, #12340
	.loc	2 1486 23 is_stmt 1             @ ../../../components/utility/EnhancedFlashDataset/Src/efd_kv.c:1486:23
	str.w	r0, [sp, #9]
	.loc	2 1489 43                       @ ../../../components/utility/EnhancedFlashDataset/Src/efd_kv.c:1489:43
	adds	r0, r5, r4
	.loc	2 1488 23                       @ ../../../components/utility/EnhancedFlashDataset/Src/efd_kv.c:1488:23
	str.w	r5, [sp, #22]
	.loc	2 1489 76                       @ ../../../components/utility/EnhancedFlashDataset/Src/efd_kv.c:1489:76
	add.w	r5, r0, #22
	movw	r0, #4078
	.loc	2 1491 9                        @ ../../../components/utility/EnhancedFlashDataset/Src/efd_kv.c:1491:9
	cmp	r5, r0
	.loc	2 1487 23                       @ ../../../components/utility/EnhancedFlashDataset/Src/efd_kv.c:1487:23
	strb.w	r4, [sp, #21]
	.loc	2 1489 23                       @ ../../../components/utility/EnhancedFlashDataset/Src/efd_kv.c:1489:23
	str.w	r5, [sp, #13]
	.loc	2 1491 9                        @ ../../../components/utility/EnhancedFlashDataset/Src/efd_kv.c:1491:9
	bls	.LBB14_4
.Ltmp286:
.LBB14_3:
	@DEBUG_VALUE: create_env_blob:env_addr <- $r11
	@DEBUG_VALUE: create_env_blob:sector <- $r7
	@DEBUG_VALUE: create_env_blob:result <- 0
	@DEBUG_VALUE: create_env_blob:is_full <- 0
	.loc	2 0 9 is_stmt 0                 @ ../../../components/utility/EnhancedFlashDataset/Src/efd_kv.c:0:9
	movs	r5, #6
	b	.LBB14_15
.Ltmp287:
.LBB14_4:
	@DEBUG_VALUE: create_env_blob:env_addr <- $r11
	@DEBUG_VALUE: create_env_blob:sector <- $r7
	@DEBUG_VALUE: create_env_blob:result <- 0
	@DEBUG_VALUE: create_env_blob:is_full <- 0
	.loc	2 1497 33 is_stmt 1             @ ../../../components/utility/EnhancedFlashDataset/Src/efd_kv.c:1497:33
	adds.w	r0, r11, #1
	bne	.LBB14_6
.Ltmp288:
@ %bb.5:
	@DEBUG_VALUE: create_env_blob:env_addr <- $r11
	@DEBUG_VALUE: create_env_blob:sector <- $r7
	@DEBUG_VALUE: create_env_blob:result <- 0
	@DEBUG_VALUE: create_env_blob:is_full <- 0
	.loc	2 1497 48 is_stmt 0             @ ../../../components/utility/EnhancedFlashDataset/Src/efd_kv.c:1497:48
	mov	r0, r7
	mov	r1, r5
	bl	new_env
.Ltmp289:
	mov	r11, r0
.Ltmp290:
	@DEBUG_VALUE: create_env_blob:env_addr <- $r11
	.loc	2 1497 9                        @ ../../../components/utility/EnhancedFlashDataset/Src/efd_kv.c:1497:9
	adds	r0, #1
	beq	.LBB14_3
.Ltmp291:
.LBB14_6:
	@DEBUG_VALUE: create_env_blob:env_addr <- $r11
	@DEBUG_VALUE: create_env_blob:sector <- $r7
	@DEBUG_VALUE: create_env_blob:result <- 0
	@DEBUG_VALUE: create_env_blob:is_full <- 0
	@DEBUG_VALUE: create_env_blob:is_full <- [DW_OP_plus_uconst 3, DW_OP_deref] $sp
	@DEBUG_VALUE: create_env_blob:env_addr <- $r11
	.loc	2 0 9                           @ ../../../components/utility/EnhancedFlashDataset/Src/efd_kv.c:0:9
	add.w	r2, sp, #3
.Ltmp292:
	.loc	2 1503 22 is_stmt 1             @ ../../../components/utility/EnhancedFlashDataset/Src/efd_kv.c:1503:22
	mov	r0, r7
	mov	r1, r5
	bl	update_sec_status
.Ltmp293:
	mov	r5, r0
.Ltmp294:
	@DEBUG_VALUE: create_env_blob:result <- $r5
	.loc	2 1505 13                       @ ../../../components/utility/EnhancedFlashDataset/Src/efd_kv.c:1505:13
	cmp	r0, #0
	bne	.LBB14_15
.Ltmp295:
@ %bb.7:
	@DEBUG_VALUE: create_env_blob:env_addr <- $r11
	@DEBUG_VALUE: create_env_blob:sector <- $r7
	@DEBUG_VALUE: create_env_blob:result <- $r5
	@DEBUG_VALUE: create_env_blob:is_full <- [DW_OP_plus_uconst 3, DW_OP_deref] $sp
	.loc	2 0 0 is_stmt 0                 @ ../../../components/utility/EnhancedFlashDataset/Src/efd_kv.c:0:0
	add.w	r1, r9, #17
.Ltmp296:
	@DEBUG_VALUE: ff <- -1
	.loc	2 1509 29 is_stmt 1             @ ../../../components/utility/EnhancedFlashDataset/Src/efd_kv.c:1509:29
	movs	r0, #0
	movs	r2, #5
	movs	r4, #0
	bl	efd_calc_crc32
.Ltmp297:
	.loc	2 1510 72                       @ ../../../components/utility/EnhancedFlashDataset/Src/efd_kv.c:1510:72
	ldrb.w	r2, [sp, #21]
	.loc	2 1510 29 is_stmt 0             @ ../../../components/utility/EnhancedFlashDataset/Src/efd_kv.c:1510:29
	mov	r1, r6
	.loc	2 1509 27 is_stmt 1             @ ../../../components/utility/EnhancedFlashDataset/Src/efd_kv.c:1509:27
	str.w	r0, [sp, #17]
	.loc	2 1510 29                       @ ../../../components/utility/EnhancedFlashDataset/Src/efd_kv.c:1510:29
	bl	efd_calc_crc32
.Ltmp298:
	.loc	2 1516 74                       @ ../../../components/utility/EnhancedFlashDataset/Src/efd_kv.c:1516:74
	ldr.w	r2, [sp, #22]
	.loc	2 1516 29 is_stmt 0             @ ../../../components/utility/EnhancedFlashDataset/Src/efd_kv.c:1516:29
	mov	r1, r10
	.loc	2 1510 27 is_stmt 1             @ ../../../components/utility/EnhancedFlashDataset/Src/efd_kv.c:1510:27
	str.w	r0, [sp, #17]
.Ltmp299:
	@DEBUG_VALUE: align_remain <- -1
	.loc	2 1516 29                       @ ../../../components/utility/EnhancedFlashDataset/Src/efd_kv.c:1516:29
	bl	efd_calc_crc32
.Ltmp300:
	.loc	2 1516 27 is_stmt 0             @ ../../../components/utility/EnhancedFlashDataset/Src/efd_kv.c:1516:27
	str.w	r0, [sp, #17]
	mov.w	r0, #-1
.Ltmp301:
	@DEBUG_VALUE: set_status:byte_index <- -1
	@DEBUG_VALUE: set_status:status_index <- 1
	@DEBUG_VALUE: set_status:status_num <- 6
	@DEBUG_VALUE: write_status:result <- 0
	@DEBUG_VALUE: write_status:status_index <- 1
	@DEBUG_VALUE: write_status:status_num <- 6
	@DEBUG_VALUE: write_status:addr <- $r11
	@DEBUG_VALUE: write_env_hdr:result <- 0
	@DEBUG_VALUE: write_env_hdr:env_hdr <- [DW_OP_plus_uconst 4, DW_OP_stack_value] $sp
	@DEBUG_VALUE: write_env_hdr:addr <- $r11
	.loc	2 0 27                          @ ../../../components/utility/EnhancedFlashDataset/Src/efd_kv.c:0:27
	add.w	r8, sp, #4
.Ltmp302:
	.loc	2 220 5 is_stmt 1               @ ../../../components/utility/EnhancedFlashDataset/Src/efd_kv.c:220:5
	str.w	r0, [sp, #5]
.Ltmp303:
	@DEBUG_VALUE: set_status:byte_index <- 0
	.loc	2 280 14                        @ ../../../components/utility/EnhancedFlashDataset/Src/efd_kv.c:280:14
	mov	r0, r11
	mov	r1, r8
	movs	r2, #1
.Ltmp304:
	.loc	2 228 34                        @ ../../../components/utility/EnhancedFlashDataset/Src/efd_kv.c:228:34
	strb.w	r4, [sp, #4]
.Ltmp305:
	@DEBUG_VALUE: write_status:byte_index <- 0
	.loc	2 280 14                        @ ../../../components/utility/EnhancedFlashDataset/Src/efd_kv.c:280:14
	bl	efd_port_write
.Ltmp306:
	mov	r5, r0
.Ltmp307:
	@DEBUG_VALUE: write_status:result <- $r5
	@DEBUG_VALUE: write_env_hdr:result <- $r5
	@DEBUG_VALUE: set_status:status_table <- [DW_OP_plus_uconst 4, DW_OP_stack_value] $sp
	@DEBUG_VALUE: write_status:status_table <- [DW_OP_plus_uconst 4, DW_OP_stack_value] $sp
	.loc	2 1037 9                        @ ../../../components/utility/EnhancedFlashDataset/Src/efd_kv.c:1037:9
	cbnz	r0, .LBB14_15
.Ltmp308:
@ %bb.8:
	@DEBUG_VALUE: write_env_hdr:addr <- $r11
	@DEBUG_VALUE: create_env_blob:env_addr <- $r11
	@DEBUG_VALUE: create_env_blob:sector <- $r7
	@DEBUG_VALUE: write_env_hdr:result <- $r5
	@DEBUG_VALUE: write_env_hdr:env_hdr <- [DW_OP_plus_uconst 4, DW_OP_stack_value] $sp
	@DEBUG_VALUE: create_env_blob:is_full <- [DW_OP_plus_uconst 3, DW_OP_deref] $sp
	@DEBUG_VALUE: align_remain <- -1
	@DEBUG_VALUE: ff <- -1
	.loc	2 0 0 is_stmt 0                 @ ../../../components/utility/EnhancedFlashDataset/Src/efd_kv.c:0:0
	add.w	r1, r9, #5
.Ltmp309:
	.loc	2 1042 34 is_stmt 1             @ ../../../components/utility/EnhancedFlashDataset/Src/efd_kv.c:1042:34
	add.w	r0, r11, #5
	.loc	2 1042 14 is_stmt 0             @ ../../../components/utility/EnhancedFlashDataset/Src/efd_kv.c:1042:14
	movs	r2, #17
	bl	efd_port_write
.Ltmp310:
	mov	r5, r0
.Ltmp311:
	@DEBUG_VALUE: write_env_hdr:result <- $r5
	@DEBUG_VALUE: create_env_blob:result <- $r5
	.loc	2 1526 13 is_stmt 1             @ ../../../components/utility/EnhancedFlashDataset/Src/efd_kv.c:1526:13
	cbnz	r0, .LBB14_15
.Ltmp312:
@ %bb.9:
	@DEBUG_VALUE: create_env_blob:env_addr <- $r11
	@DEBUG_VALUE: create_env_blob:sector <- $r7
	@DEBUG_VALUE: create_env_blob:result <- $r5
	@DEBUG_VALUE: create_env_blob:is_full <- [DW_OP_plus_uconst 3, DW_OP_deref] $sp
	@DEBUG_VALUE: align_remain <- -1
	.loc	2 1528 90                       @ ../../../components/utility/EnhancedFlashDataset/Src/efd_kv.c:1528:90
	ldrb.w	r2, [sp, #21]
.Ltmp313:
	@DEBUG_VALUE: align_write:align_remain <- [DW_OP_LLVM_convert 8 7, DW_OP_LLVM_convert 32 7, DW_OP_stack_value] undef
	@DEBUG_VALUE: align_write:align_data_size <- 1
	@DEBUG_VALUE: align_write:result <- 0
	@DEBUG_VALUE: align_write:size <- [DW_OP_LLVM_convert 8 7, DW_OP_LLVM_convert 32 7, DW_OP_stack_value] undef
	@DEBUG_VALUE: align_write:buf <- $r6
	@DEBUG_VALUE: align_write:addr <- undef
	.loc	2 1528 43 is_stmt 0             @ ../../../components/utility/EnhancedFlashDataset/Src/efd_kv.c:1528:43
	add.w	r9, r11, #22
	@DEBUG_VALUE: align_write:buf <- $r6
	@DEBUG_VALUE: align_write:result <- 0
	@DEBUG_VALUE: align_write:align_data_size <- 1
.Ltmp314:
	.loc	2 1457 9 is_stmt 1              @ ../../../components/utility/EnhancedFlashDataset/Src/efd_kv.c:1457:9
	cbz	r2, .LBB14_11
.Ltmp315:
@ %bb.10:
	@DEBUG_VALUE: create_env_blob:env_addr <- $r11
	@DEBUG_VALUE: create_env_blob:sector <- $r7
	@DEBUG_VALUE: align_write:buf <- $r6
	@DEBUG_VALUE: create_env_blob:result <- $r5
	@DEBUG_VALUE: create_env_blob:is_full <- [DW_OP_plus_uconst 3, DW_OP_deref] $sp
	@DEBUG_VALUE: align_write:result <- 0
	@DEBUG_VALUE: align_write:align_data_size <- 1
	@DEBUG_VALUE: align_remain <- -1
	@DEBUG_VALUE: align_write:buf <- $r6
	@DEBUG_VALUE: align_write:size <- $r2
	@DEBUG_VALUE: align_write:align_remain <- $r2
	.loc	2 1459 18                       @ ../../../components/utility/EnhancedFlashDataset/Src/efd_kv.c:1459:18
	mov	r0, r9
	mov	r1, r6
	bl	efd_port_write
.Ltmp316:
	mov	r5, r0
.Ltmp317:
	@DEBUG_VALUE: align_write:result <- $r5
	.loc	2 0 18 is_stmt 0                @ ../../../components/utility/EnhancedFlashDataset/Src/efd_kv.c:0:18
	b	.LBB14_12
.Ltmp318:
.LBB14_11:
	@DEBUG_VALUE: create_env_blob:env_addr <- $r11
	@DEBUG_VALUE: create_env_blob:sector <- $r7
	@DEBUG_VALUE: align_write:buf <- $r6
	@DEBUG_VALUE: create_env_blob:result <- $r5
	@DEBUG_VALUE: create_env_blob:is_full <- [DW_OP_plus_uconst 3, DW_OP_deref] $sp
	@DEBUG_VALUE: align_write:result <- 0
	@DEBUG_VALUE: align_write:align_data_size <- 1
	@DEBUG_VALUE: align_remain <- -1
	movs	r5, #0
.Ltmp319:
.LBB14_12:
	@DEBUG_VALUE: create_env_blob:env_addr <- $r11
	@DEBUG_VALUE: create_env_blob:sector <- $r7
	@DEBUG_VALUE: create_env_blob:is_full <- [DW_OP_plus_uconst 3, DW_OP_deref] $sp
	@DEBUG_VALUE: align_remain <- -1
	@DEBUG_VALUE: create_env_blob:result <- $r5
	@DEBUG_VALUE: align_write:align_remain <- 0
	.loc	2 1531 18 is_stmt 1             @ ../../../components/utility/EnhancedFlashDataset/Src/efd_kv.c:1531:18
	ldrb.w	r0, [sp, #3]
.Ltmp320:
	@DEBUG_VALUE: create_env_blob:is_full <- $r0
	.loc	2 1531 17 is_stmt 0             @ ../../../components/utility/EnhancedFlashDataset/Src/efd_kv.c:1531:17
	cbnz	r0, .LBB14_14
.Ltmp321:
@ %bb.13:
	@DEBUG_VALUE: create_env_blob:env_addr <- $r11
	@DEBUG_VALUE: create_env_blob:sector <- $r7
	@DEBUG_VALUE: create_env_blob:result <- $r5
	@DEBUG_VALUE: create_env_blob:is_full <- $r0
	@DEBUG_VALUE: align_remain <- -1
	.loc	2 1534 66 is_stmt 1             @ ../../../components/utility/EnhancedFlashDataset/Src/efd_kv.c:1534:66
	ldrb.w	r1, [sp, #21]
	.loc	2 1534 99 is_stmt 0             @ ../../../components/utility/EnhancedFlashDataset/Src/efd_kv.c:1534:99
	ldr.w	r2, [sp, #22]
	.loc	2 1534 29                       @ ../../../components/utility/EnhancedFlashDataset/Src/efd_kv.c:1534:29
	ldr.w	r0, [r7, #9]
.Ltmp322:
	.loc	2 1534 64                       @ ../../../components/utility/EnhancedFlashDataset/Src/efd_kv.c:1534:64
	add	r1, r9
	.loc	2 1534 97                       @ ../../../components/utility/EnhancedFlashDataset/Src/efd_kv.c:1534:97
	add	r1, r2
	.loc	2 1533 17 is_stmt 1             @ ../../../components/utility/EnhancedFlashDataset/Src/efd_kv.c:1533:17
	bl	update_sector_cache
.Ltmp323:
.LBB14_14:
	@DEBUG_VALUE: create_env_blob:env_addr <- $r11
	@DEBUG_VALUE: create_env_blob:sector <- $r7
	@DEBUG_VALUE: create_env_blob:result <- $r5
	@DEBUG_VALUE: align_remain <- -1
	.loc	2 1536 43                       @ ../../../components/utility/EnhancedFlashDataset/Src/efd_kv.c:1536:43
	ldrb.w	r1, [sp, #21]
	.loc	2 1536 13 is_stmt 0             @ ../../../components/utility/EnhancedFlashDataset/Src/efd_kv.c:1536:13
	mov	r0, r6
	mov	r2, r11
	bl	update_env_cache
.Ltmp324:
	@DEBUG_VALUE: create_env_blob:result <- $r5
	.loc	2 1540 13 is_stmt 1             @ ../../../components/utility/EnhancedFlashDataset/Src/efd_kv.c:1540:13
	cbz	r5, .LBB14_16
.Ltmp325:
.LBB14_15:
	@DEBUG_VALUE: create_env_blob:env_addr <- $r11
	@DEBUG_VALUE: create_env_blob:sector <- $r7
	.loc	2 1562 1                        @ ../../../components/utility/EnhancedFlashDataset/Src/efd_kv.c:1562:1
	mov	r0, r5
	add	sp, #28
	pop.w	{r4, r5, r6, r7, r8, r9, r10, r11, pc}
.Ltmp326:
.LBB14_16:
	@DEBUG_VALUE: create_env_blob:env_addr <- $r11
	@DEBUG_VALUE: create_env_blob:sector <- $r7
	@DEBUG_VALUE: create_env_blob:result <- $r5
	@DEBUG_VALUE: align_remain <- -1
	.loc	2 1542 112                      @ ../../../components/utility/EnhancedFlashDataset/Src/efd_kv.c:1542:112
	ldr.w	r2, [sp, #22]
.Ltmp327:
	@DEBUG_VALUE: align_write:align_data_size <- 1
	@DEBUG_VALUE: align_write:result <- 0
	@DEBUG_VALUE: align_write:buf <- $r10
	@DEBUG_VALUE: align_write:addr <- undef
	@DEBUG_VALUE: align_write:align_remain <- $r2
	@DEBUG_VALUE: align_write:size <- $r2
	.loc	2 1457 9                        @ ../../../components/utility/EnhancedFlashDataset/Src/efd_kv.c:1457:9
	cbz	r2, .LBB14_18
.Ltmp328:
@ %bb.17:
	@DEBUG_VALUE: create_env_blob:env_addr <- $r11
	@DEBUG_VALUE: align_write:buf <- $r10
	@DEBUG_VALUE: create_env_blob:sector <- $r7
	@DEBUG_VALUE: create_env_blob:result <- $r5
	@DEBUG_VALUE: align_write:size <- $r2
	@DEBUG_VALUE: align_write:align_remain <- $r2
	@DEBUG_VALUE: align_write:result <- 0
	@DEBUG_VALUE: align_write:align_data_size <- 1
	@DEBUG_VALUE: align_remain <- -1
	.loc	2 1542 65                       @ ../../../components/utility/EnhancedFlashDataset/Src/efd_kv.c:1542:65
	ldrb.w	r0, [sp, #21]
.Ltmp329:
	.loc	2 1459 18                       @ ../../../components/utility/EnhancedFlashDataset/Src/efd_kv.c:1459:18
	mov	r1, r10
.Ltmp330:
	.loc	2 1542 63                       @ ../../../components/utility/EnhancedFlashDataset/Src/efd_kv.c:1542:63
	add	r0, r9
.Ltmp331:
	@DEBUG_VALUE: align_write:addr <- $r0
	@DEBUG_VALUE: align_write:buf <- $r10
	.loc	2 1459 18                       @ ../../../components/utility/EnhancedFlashDataset/Src/efd_kv.c:1459:18
	bl	efd_port_write
.Ltmp332:
	mov	r5, r0
.Ltmp333:
	@DEBUG_VALUE: align_write:result <- $r5
	@DEBUG_VALUE: create_env_blob:result <- $r5
	.loc	2 1545 13                       @ ../../../components/utility/EnhancedFlashDataset/Src/efd_kv.c:1545:13
	cmp	r0, #0
	bne	.LBB14_15
.Ltmp334:
.LBB14_18:
	@DEBUG_VALUE: create_env_blob:env_addr <- $r11
	@DEBUG_VALUE: create_env_blob:sector <- $r7
	@DEBUG_VALUE: create_env_blob:result <- $r5
	@DEBUG_VALUE: align_remain <- -1
	.loc	2 0 13 is_stmt 0                @ ../../../components/utility/EnhancedFlashDataset/Src/efd_kv.c:0:13
	mov.w	r0, #-1
.Ltmp335:
	@DEBUG_VALUE: set_status:byte_index <- -1
	@DEBUG_VALUE: set_status:status_index <- 2
	@DEBUG_VALUE: set_status:status_num <- 6
	@DEBUG_VALUE: write_status:result <- 0
	@DEBUG_VALUE: write_status:status_index <- 2
	@DEBUG_VALUE: write_status:status_num <- 6
	@DEBUG_VALUE: write_status:addr <- $r11
	.loc	2 220 5 is_stmt 1               @ ../../../components/utility/EnhancedFlashDataset/Src/efd_kv.c:220:5
	str	r0, [sp, #4]
	strb.w	r0, [sp, #8]
.Ltmp336:
	@DEBUG_VALUE: set_status:byte_index <- 1
	.loc	2 0 5 is_stmt 0                 @ ../../../components/utility/EnhancedFlashDataset/Src/efd_kv.c:0:5
	movs	r0, #0
.Ltmp337:
	.loc	2 228 9 is_stmt 1               @ ../../../components/utility/EnhancedFlashDataset/Src/efd_kv.c:228:9
	add.w	r1, r8, #1
	.loc	2 228 34 is_stmt 0              @ ../../../components/utility/EnhancedFlashDataset/Src/efd_kv.c:228:34
	strb.w	r0, [sp, #5]
.Ltmp338:
	@DEBUG_VALUE: write_status:byte_index <- 1
	.loc	2 280 34 is_stmt 1              @ ../../../components/utility/EnhancedFlashDataset/Src/efd_kv.c:280:34
	add.w	r0, r11, #1
	.loc	2 280 14 is_stmt 0              @ ../../../components/utility/EnhancedFlashDataset/Src/efd_kv.c:280:14
	movs	r2, #1
	bl	efd_port_write
.Ltmp339:
	mov	r5, r0
.Ltmp340:
	@DEBUG_VALUE: write_status:result <- $r5
	@DEBUG_VALUE: create_env_blob:is_full <- undef
	@DEBUG_VALUE: create_env_blob:result <- $r5
	.loc	2 1550 34 is_stmt 1             @ ../../../components/utility/EnhancedFlashDataset/Src/efd_kv.c:1550:34
	cmp	r0, #0
	@DEBUG_VALUE: set_status:status_table <- [DW_OP_plus_uconst 4, DW_OP_stack_value] $sp
	@DEBUG_VALUE: write_status:status_table <- [DW_OP_plus_uconst 4, DW_OP_stack_value] $sp
	bne	.LBB14_15
.Ltmp341:
@ %bb.19:
	@DEBUG_VALUE: create_env_blob:env_addr <- $r11
	@DEBUG_VALUE: create_env_blob:sector <- $r7
	@DEBUG_VALUE: create_env_blob:result <- $r5
	@DEBUG_VALUE: align_remain <- -1
	.loc	2 0 34 is_stmt 0                @ ../../../components/utility/EnhancedFlashDataset/Src/efd_kv.c:0:34
	ldrb.w	r0, [sp, #3]
	.loc	2 1550 34                       @ ../../../components/utility/EnhancedFlashDataset/Src/efd_kv.c:1550:34
	cmp	r0, #0
	beq	.LBB14_15
.Ltmp342:
@ %bb.20:
	@DEBUG_VALUE: create_env_blob:env_addr <- $r11
	@DEBUG_VALUE: create_env_blob:sector <- $r7
	@DEBUG_VALUE: create_env_blob:result <- $r5
	@DEBUG_VALUE: align_remain <- -1
	.loc	2 1553 24 is_stmt 1             @ ../../../components/utility/EnhancedFlashDataset/Src/efd_kv.c:1553:24
	movw	r0, :lower16:gc_request
	movt	r0, :upper16:gc_request
	movs	r1, #1
	movs	r5, #0
.Ltmp343:
	strb	r1, [r0]
	b	.LBB14_15
.Ltmp344:
.Lfunc_end14:
	.size	create_env_blob, .Lfunc_end14-create_env_blob
	.cfi_endproc
	.cantunwind
	.fnend
                                        @ -- End function
	.section	.text.info_env,"ax",%progbits
	.hidden	info_env                        @ -- Begin function info_env
	.globl	info_env
	.p2align	2
	.type	info_env,%function
	.code	16                              @ @info_env
	.thumb_func
info_env:
.Lfunc_begin15:
	.loc	2 1842 0                        @ ../../../components/utility/EnhancedFlashDataset/Src/efd_kv.c:1842:0
	.fnstart
	.cfi_startproc
@ %bb.0:
	.save	{r7, lr}
	push	{r7, lr}
	.cfi_def_cfa_offset 8
	.cfi_offset lr, -4
	.cfi_offset r7, -8
	.pad	#96
	sub	sp, #96
	.cfi_def_cfa_offset 104
.Ltmp345:
	.loc	2 1846 10 prologue_end          @ ../../../components/utility/EnhancedFlashDataset/Src/efd_kv.c:1846:10
	movw	r0, :lower16:init_ok
	movt	r0, :upper16:init_ok
	ldrb	r0, [r0]
	movs	r1, #0
.Ltmp346:
	@DEBUG_VALUE: info_env:using_size <- 0
	.loc	2 1846 9 is_stmt 0              @ ../../../components/utility/EnhancedFlashDataset/Src/efd_kv.c:1846:9
	cmp	r0, #1
	.loc	2 1844 12 is_stmt 1             @ ../../../components/utility/EnhancedFlashDataset/Src/efd_kv.c:1844:12
	str	r1, [sp]
	.loc	2 1846 9                        @ ../../../components/utility/EnhancedFlashDataset/Src/efd_kv.c:1846:9
	bne	.LBB15_2
.Ltmp347:
@ %bb.1:
	@DEBUG_VALUE: info_env:using_size <- 0
	.loc	2 1853 5                        @ ../../../components/utility/EnhancedFlashDataset/Src/efd_kv.c:1853:5
	bl	efd_port_env_lock
.Ltmp348:
	@DEBUG_VALUE: info_env:using_size <- [DW_OP_deref] $sp
	.loc	2 1855 5                        @ ../../../components/utility/EnhancedFlashDataset/Src/efd_kv.c:1855:5
	movw	r3, :lower16:print_env_cb
	movt	r3, :upper16:print_env_cb
	add	r0, sp, #4
	mov	r1, sp
	movs	r2, #0
	bl	env_iterator
.Ltmp349:
	.loc	2 1857 5                        @ ../../../components/utility/EnhancedFlashDataset/Src/efd_kv.c:1857:5
	ldr	r0, [sp]
.Ltmp350:
	@DEBUG_VALUE: info_env:using_size <- $r0
	mov.w	r2, #24576
	add.w	r1, r0, #108
	adr	r0, .LCPI15_0
.Ltmp351:
	bl	__2printf
.Ltmp352:
	.loc	2 1860 5                        @ ../../../components/utility/EnhancedFlashDataset/Src/efd_kv.c:1860:5
	bl	efd_port_env_unlock
.Ltmp353:
.LBB15_2:
	.loc	2 1861 1                        @ ../../../components/utility/EnhancedFlashDataset/Src/efd_kv.c:1861:1
	add	sp, #96
	pop	{r7, pc}
.Ltmp354:
	.p2align	2
@ %bb.3:
	.loc	2 0 1 is_stmt 0                 @ ../../../components/utility/EnhancedFlashDataset/Src/efd_kv.c:0:1
.LCPI15_0:
.L.str.2:
	.asciz	"size: %lu/%lu bytes.\n\r\n"
.Lfunc_end15:
	.size	info_env, .Lfunc_end15-info_env
	.cfi_endproc
	.cantunwind
	.fnend
                                        @ -- End function
	.section	.text.env_iterator,"ax",%progbits
	.p2align	1                               @ -- Begin function env_iterator
	.type	env_iterator,%function
	.code	16                              @ @env_iterator
	.thumb_func
env_iterator:
.Lfunc_begin16:
	.loc	2 760 0 is_stmt 1               @ ../../../components/utility/EnhancedFlashDataset/Src/efd_kv.c:760:0
	.fnstart
	.cfi_startproc
@ %bb.0:
	@DEBUG_VALUE: env_iterator:env <- $r0
	@DEBUG_VALUE: env_iterator:arg1 <- $r1
	@DEBUG_VALUE: env_iterator:arg2 <- $r2
	@DEBUG_VALUE: env_iterator:callback <- $r3
	.save	{r4, r5, r6, r7, r8, r9, r10, lr}
	push.w	{r4, r5, r6, r7, r8, r9, r10, lr}
	.cfi_def_cfa_offset 32
	.cfi_offset lr, -4
	.cfi_offset r10, -8
	.cfi_offset r9, -12
	.cfi_offset r8, -16
	.cfi_offset r7, -20
	.cfi_offset r6, -24
	.cfi_offset r5, -28
	.cfi_offset r4, -32
	.pad	#32
	sub	sp, #32
	.cfi_def_cfa_offset 64
	mov.w	r9, #-1
.Ltmp355:
	@DEBUG_VALUE: env_iterator:callback <- $r4
	@DEBUG_VALUE: env_iterator:arg2 <- $r5
	@DEBUG_VALUE: env_iterator:arg1 <- $r6
	@DEBUG_VALUE: env_iterator:env <- $r7
	movw	r10, :lower16:env_start_addr
	mov	r4, r3
.Ltmp356:
	mov	r5, r2
.Ltmp357:
	mov	r6, r1
.Ltmp358:
	mov	r7, r0
.Ltmp359:
	.loc	2 764 17 prologue_end           @ ../../../components/utility/EnhancedFlashDataset/Src/efd_kv.c:764:17
	str.w	r9, [sp, #9]
	movt	r10, :upper16:env_start_addr
	mov	r8, sp
.Ltmp360:
	.loc	2 730 18                        @ ../../../components/utility/EnhancedFlashDataset/Src/efd_kv.c:730:18
	mov.w	r0, #-1
.Ltmp361:
	.p2align	2
.LBB16_1:                               @ =>This Loop Header: Depth=1
                                        @     Child Loop BB16_8 Depth 2
	@DEBUG_VALUE: get_next_sector_addr:pre_sec <- $sp
	.loc	2 730 9 is_stmt 0               @ ../../../components/utility/EnhancedFlashDataset/Src/efd_kv.c:730:9
	adds	r1, r0, #1
	beq	.LBB16_3
.Ltmp362:
@ %bb.2:                                @   in Loop: Header=BB16_1 Depth=1
	@DEBUG_VALUE: get_next_sector_addr:pre_sec <- $sp
	.loc	2 737 22 is_stmt 1              @ ../../../components/utility/EnhancedFlashDataset/Src/efd_kv.c:737:22
	ldr.w	r1, [sp, #17]
.Ltmp363:
	.loc	2 737 13 is_stmt 0              @ ../../../components/utility/EnhancedFlashDataset/Src/efd_kv.c:737:13
	lsls	r2, r1, #12
	adds	r1, #1
	it	eq
	moveq.w	r2, #4096
.Ltmp364:
	.loc	2 746 25 is_stmt 1              @ ../../../components/utility/EnhancedFlashDataset/Src/efd_kv.c:746:25
	ldrb.w	r1, [r10]
.Ltmp365:
	.loc	2 737 13                        @ ../../../components/utility/EnhancedFlashDataset/Src/efd_kv.c:737:13
	add	r0, r2
.Ltmp366:
	@DEBUG_VALUE: get_next_sector_addr:next_addr <- $r0
	.loc	2 746 40                        @ ../../../components/utility/EnhancedFlashDataset/Src/efd_kv.c:746:40
	cmp	r1, #0
	mov.w	r1, #32768
	it	ne
	movne.w	r1, #1028096
	cmp	r0, r1
	blo	.LBB16_4
	b	.LBB16_11
.Ltmp367:
	.p2align	2
.LBB16_3:                               @   in Loop: Header=BB16_1 Depth=1
	@DEBUG_VALUE: get_next_sector_addr:pre_sec <- $sp
	.loc	2 732 16                        @ ../../../components/utility/EnhancedFlashDataset/Src/efd_kv.c:732:16
	ldrb.w	r0, [r10]
	cmp	r0, #0
	it	ne
	movne.w	r0, #995328
.Ltmp368:
.LBB16_4:                               @   in Loop: Header=BB16_1 Depth=1
	@DEBUG_VALUE: env_iterator:sec_addr <- undef
	.loc	2 768 13                        @ ../../../components/utility/EnhancedFlashDataset/Src/efd_kv.c:768:13
	mov	r1, r8
	movs	r2, #0
	bl	read_sector_meta_data
.Ltmp369:
	.loc	2 768 13 is_stmt 0              @ ../../../components/utility/EnhancedFlashDataset/Src/efd_kv.c:768:13
	cbz	r4, .LBB16_10
.Ltmp370:
@ %bb.5:                                @   in Loop: Header=BB16_1 Depth=1
	cbnz	r0, .LBB16_10
@ %bb.6:                                @   in Loop: Header=BB16_1 Depth=1
.Ltmp371:
	.loc	2 777 27 is_stmt 1              @ ../../../components/utility/EnhancedFlashDataset/Src/efd_kv.c:777:27
	ldr.w	r0, [sp, #1]
	.loc	2 777 55 is_stmt 0              @ ../../../components/utility/EnhancedFlashDataset/Src/efd_kv.c:777:55
	bic	r0, r0, #1
	cmp	r0, #2
	bne	.LBB16_10
@ %bb.7:                                @   in Loop: Header=BB16_1 Depth=1
.Ltmp372:
	.loc	2 779 29 is_stmt 1              @ ../../../components/utility/EnhancedFlashDataset/Src/efd_kv.c:779:29
	str.w	r9, [r7, #82]
	.p2align	2
.LBB16_8:                               @   Parent Loop BB16_1 Depth=1
                                        @ =>  This Inner Loop Header: Depth=2
	.loc	2 781 39                        @ ../../../components/utility/EnhancedFlashDataset/Src/efd_kv.c:781:39
	mov	r0, r8
	mov	r1, r7
	bl	get_next_env_addr
.Ltmp373:
	.loc	2 781 13 is_stmt 0              @ ../../../components/utility/EnhancedFlashDataset/Src/efd_kv.c:781:13
	adds	r1, r0, #1
	.loc	2 781 37                        @ ../../../components/utility/EnhancedFlashDataset/Src/efd_kv.c:781:37
	str.w	r0, [r7, #82]
	.loc	2 781 13                        @ ../../../components/utility/EnhancedFlashDataset/Src/efd_kv.c:781:13
	beq	.LBB16_10
@ %bb.9:                                @   in Loop: Header=BB16_8 Depth=2
.Ltmp374:
	.loc	2 783 17 is_stmt 1              @ ../../../components/utility/EnhancedFlashDataset/Src/efd_kv.c:783:17
	mov	r0, r7
	bl	read_env
.Ltmp375:
	.loc	2 785 21                        @ ../../../components/utility/EnhancedFlashDataset/Src/efd_kv.c:785:21
	mov	r0, r7
	mov	r1, r6
	mov	r2, r5
	blx	r4
.Ltmp376:
	.loc	2 785 21 is_stmt 0              @ ../../../components/utility/EnhancedFlashDataset/Src/efd_kv.c:785:21
	cmp	r0, #0
	beq	.LBB16_8
	b	.LBB16_11
.Ltmp377:
	.p2align	2
.LBB16_10:                              @   in Loop: Header=BB16_1 Depth=1
	.loc	2 730 18 is_stmt 1              @ ../../../components/utility/EnhancedFlashDataset/Src/efd_kv.c:730:18
	ldr.w	r0, [sp, #9]
	b	.LBB16_1
.Ltmp378:
.LBB16_11:
	.loc	2 792 1                         @ ../../../components/utility/EnhancedFlashDataset/Src/efd_kv.c:792:1
	add	sp, #32
	pop.w	{r4, r5, r6, r7, r8, r9, r10, pc}
.Ltmp379:
.Lfunc_end16:
	.size	env_iterator, .Lfunc_end16-env_iterator
	.cfi_endproc
	.cantunwind
	.fnend
                                        @ -- End function
	.section	.text.print_env_cb,"ax",%progbits
	.p2align	2                               @ -- Begin function print_env_cb
	.type	print_env_cb,%function
	.code	16                              @ @print_env_cb
	.thumb_func
print_env_cb:
.Lfunc_begin17:
	.loc	2 1777 0                        @ ../../../components/utility/EnhancedFlashDataset/Src/efd_kv.c:1777:0
	.fnstart
	.cfi_startproc
@ %bb.0:
	@DEBUG_VALUE: print_env_cb:env <- $r0
	@DEBUG_VALUE: print_env_cb:arg1 <- $r1
	@DEBUG_VALUE: print_env_cb:arg2 <- $r2
	.save	{r4, r5, r6, r7, r8, r9, lr}
	push.w	{r4, r5, r6, r7, r8, r9, lr}
	.cfi_def_cfa_offset 28
	.cfi_offset lr, -4
	.cfi_offset r9, -8
	.cfi_offset r8, -12
	.cfi_offset r7, -16
	.cfi_offset r6, -20
	.cfi_offset r5, -24
	.cfi_offset r4, -28
	.pad	#36
	sub	sp, #36
	.cfi_def_cfa_offset 64
	mov	r4, r0
.Ltmp380:
	@DEBUG_VALUE: print_env_cb:using_size <- undef
	@DEBUG_VALUE: print_env_cb:print_value <- 0
	@DEBUG_VALUE: print_env_cb:value_is_str <- 1
	@DEBUG_VALUE: print_env_cb:env <- $r4
	.loc	2 1781 14 prologue_end          @ ../../../components/utility/EnhancedFlashDataset/Src/efd_kv.c:1781:14
	ldrb	r0, [r0, #4]
.Ltmp381:
	.loc	2 1781 9 is_stmt 0              @ ../../../components/utility/EnhancedFlashDataset/Src/efd_kv.c:1781:9
	cmp	r0, #0
	@DEBUG_VALUE: print_env_cb:arg1 <- $r1
	beq	.LBB17_20
.Ltmp382:
@ %bb.1:
	@DEBUG_VALUE: print_env_cb:env <- $r4
	@DEBUG_VALUE: print_env_cb:arg2 <- $r2
	@DEBUG_VALUE: print_env_cb:arg1 <- $r1
	@DEBUG_VALUE: print_env_cb:value_is_str <- 1
	@DEBUG_VALUE: print_env_cb:print_value <- 0
	.loc	2 1784 29 is_stmt 1             @ ../../../components/utility/EnhancedFlashDataset/Src/efd_kv.c:1784:29
	ldr.w	r0, [r4, #10]
	.loc	2 1784 21 is_stmt 0             @ ../../../components/utility/EnhancedFlashDataset/Src/efd_kv.c:1784:21
	ldr	r2, [r1]
.Ltmp383:
	@DEBUG_VALUE: print_env_cb:arg2 <- [DW_OP_LLVM_entry_value 1] $r2
	.loc	2 1786 18 is_stmt 1             @ ../../../components/utility/EnhancedFlashDataset/Src/efd_kv.c:1786:18
	ldr	r3, [r4]
.Ltmp384:
	.loc	2 1784 21                       @ ../../../components/utility/EnhancedFlashDataset/Src/efd_kv.c:1784:21
	add	r0, r2
	.loc	2 1786 13                       @ ../../../components/utility/EnhancedFlashDataset/Src/efd_kv.c:1786:13
	cmp	r3, #2
	.loc	2 1784 21                       @ ../../../components/utility/EnhancedFlashDataset/Src/efd_kv.c:1784:21
	str	r0, [r1]
	.loc	2 1786 13                       @ ../../../components/utility/EnhancedFlashDataset/Src/efd_kv.c:1786:13
	bne	.LBB17_20
.Ltmp385:
@ %bb.2:
	@DEBUG_VALUE: print_env_cb:env <- $r4
	@DEBUG_VALUE: print_env_cb:arg1 <- $r1
	@DEBUG_VALUE: print_env_cb:arg2 <- [DW_OP_LLVM_entry_value 1] $r2
	@DEBUG_VALUE: print_env_cb:value_is_str <- 1
	@DEBUG_VALUE: print_env_cb:print_value <- 0
	.loc	2 1788 13                       @ ../../../components/utility/EnhancedFlashDataset/Src/efd_kv.c:1788:13
	ldrb	r1, [r4, #5]
.Ltmp386:
	@DEBUG_VALUE: print_env_cb:arg1 <- [DW_OP_LLVM_entry_value 1] $r1
	add.w	r2, r4, #18
	adr	r0, .LCPI17_0
	bl	__2printf
.Ltmp387:
	.loc	2 1790 22                       @ ../../../components/utility/EnhancedFlashDataset/Src/efd_kv.c:1790:22
	ldr.w	r2, [r4, #14]
.Ltmp388:
	.loc	2 1790 17 is_stmt 0             @ ../../../components/utility/EnhancedFlashDataset/Src/efd_kv.c:1790:17
	cmp	r2, #127
	bhi	.LBB17_18
.Ltmp389:
@ %bb.3:
	@DEBUG_VALUE: print_env_cb:env <- $r4
	@DEBUG_VALUE: print_env_cb:arg1 <- [DW_OP_LLVM_entry_value 1] $r1
	@DEBUG_VALUE: print_env_cb:arg2 <- [DW_OP_LLVM_entry_value 1] $r2
	@DEBUG_VALUE: print_env_cb:value_is_str <- 1
	@DEBUG_VALUE: print_env_cb:print_value <- 0
	.loc	2 0 17                          @ ../../../components/utility/EnhancedFlashDataset/Src/efd_kv.c:0:17
	mov.w	r9, #0
	add	r5, sp, #4
	adr.w	r8, .LCPI17_2
.Ltmp390:
.LBB17_4:                               @ =>This Loop Header: Depth=1
                                        @     Child Loop BB17_6 Depth 2
                                        @       Child Loop BB17_11 Depth 3
	@DEBUG_VALUE: print_env_cb:env <- $r4
	@DEBUG_VALUE: print_env_cb:arg1 <- [DW_OP_LLVM_entry_value 1] $r1
	@DEBUG_VALUE: print_env_cb:arg2 <- [DW_OP_LLVM_entry_value 1] $r2
	@DEBUG_VALUE: print_env_cb:value_is_str <- undef
	@DEBUG_VALUE: print_env_cb:print_value <- undef
	@DEBUG_LABEL: __reload
	.loc	2 1796 17 is_stmt 1             @ ../../../components/utility/EnhancedFlashDataset/Src/efd_kv.c:1796:17
	cbz	r2, .LBB17_15
.Ltmp391:
@ %bb.5:                                @   in Loop: Header=BB17_4 Depth=1
	@DEBUG_VALUE: print_env_cb:env <- $r4
	@DEBUG_VALUE: print_env_cb:arg1 <- [DW_OP_LLVM_entry_value 1] $r1
	@DEBUG_VALUE: print_env_cb:arg2 <- [DW_OP_LLVM_entry_value 1] $r2
	.loc	2 0 17 is_stmt 0                @ ../../../components/utility/EnhancedFlashDataset/Src/efd_kv.c:0:17
	movs	r6, #0
.Ltmp392:
	.p2align	2
.LBB17_6:                               @   Parent Loop BB17_4 Depth=1
                                        @ =>  This Loop Header: Depth=2
                                        @       Child Loop BB17_11 Depth 3
	@DEBUG_VALUE: print_env_cb:env <- $r4
	@DEBUG_VALUE: print_env_cb:arg1 <- [DW_OP_LLVM_entry_value 1] $r1
	@DEBUG_VALUE: print_env_cb:arg2 <- [DW_OP_LLVM_entry_value 1] $r2
	.loc	2 1798 29 is_stmt 1             @ ../../../components/utility/EnhancedFlashDataset/Src/efd_kv.c:1798:29
	add.w	r0, r6, #32
.Ltmp393:
	.loc	2 1798 25 is_stmt 0             @ ../../../components/utility/EnhancedFlashDataset/Src/efd_kv.c:1798:25
	cmp	r0, r2
	.loc	2 1806 45 is_stmt 1             @ ../../../components/utility/EnhancedFlashDataset/Src/efd_kv.c:1806:45
	ldr.w	r0, [r4, #86]
	.loc	2 1798 25                       @ ../../../components/utility/EnhancedFlashDataset/Src/efd_kv.c:1798:25
	sub.w	r7, r2, r6
	it	lo
	movlo	r7, #32
	.loc	2 1806 51                       @ ../../../components/utility/EnhancedFlashDataset/Src/efd_kv.c:1806:51
	add	r0, r6
	.loc	2 1806 21 is_stmt 0             @ ../../../components/utility/EnhancedFlashDataset/Src/efd_kv.c:1806:21
	mov	r1, r5
	mov	r2, r7
	bl	efd_port_read
.Ltmp394:
	.loc	2 1807 25 is_stmt 1             @ ../../../components/utility/EnhancedFlashDataset/Src/efd_kv.c:1807:25
	lsls.w	r0, r9, #31
	beq	.LBB17_8
.Ltmp395:
@ %bb.7:                                @   in Loop: Header=BB17_6 Depth=2
	@DEBUG_VALUE: print_env_cb:env <- $r4
	@DEBUG_VALUE: print_env_cb:arg1 <- [DW_OP_LLVM_entry_value 1] $r1
	@DEBUG_VALUE: print_env_cb:arg2 <- [DW_OP_LLVM_entry_value 1] $r2
	.loc	2 1809 25                       @ ../../../components/utility/EnhancedFlashDataset/Src/efd_kv.c:1809:25
	mov	r0, r8
	mov	r1, r7
	mov	r2, r5
	bl	__2printf
.Ltmp396:
	.loc	2 0 25 is_stmt 0                @ ../../../components/utility/EnhancedFlashDataset/Src/efd_kv.c:0:25
	b	.LBB17_14
.Ltmp397:
	.p2align	2
.LBB17_8:                               @   in Loop: Header=BB17_6 Depth=2
	@DEBUG_VALUE: print_env_cb:env <- $r4
	@DEBUG_VALUE: print_env_cb:arg1 <- [DW_OP_LLVM_entry_value 1] $r1
	@DEBUG_VALUE: print_env_cb:arg2 <- [DW_OP_LLVM_entry_value 1] $r2
	@DEBUG_VALUE: efd_is_str:value <- [DW_OP_plus_uconst 4, DW_OP_stack_value] $sp
	@DEBUG_VALUE: efd_is_str:len <- $r7
	@DEBUG_VALUE: efd_is_str:i <- 0
	.loc	2 853 5 is_stmt 1               @ ../../../components/utility/EnhancedFlashDataset/Src/efd_kv.c:853:5
	cbz	r7, .LBB17_14
.Ltmp398:
@ %bb.9:                                @   in Loop: Header=BB17_6 Depth=2
	@DEBUG_VALUE: efd_is_str:len <- $r7
	@DEBUG_VALUE: print_env_cb:env <- $r4
	@DEBUG_VALUE: efd_is_str:value <- [DW_OP_plus_uconst 4, DW_OP_stack_value] $sp
	@DEBUG_VALUE: efd_is_str:i <- 0
	@DEBUG_VALUE: print_env_cb:arg1 <- [DW_OP_LLVM_entry_value 1] $r1
	@DEBUG_VALUE: print_env_cb:arg2 <- [DW_OP_LLVM_entry_value 1] $r2
	@DEBUG_VALUE: efd_is_str:i <- 0
	.loc	2 855 14                        @ ../../../components/utility/EnhancedFlashDataset/Src/efd_kv.c:855:14
	ldrb.w	r0, [sp, #4]
	subs	r0, #32
.Ltmp399:
	@DEBUG_VALUE: efd_is_str:i <- 1
	.loc	2 855 13 is_stmt 0              @ ../../../components/utility/EnhancedFlashDataset/Src/efd_kv.c:855:13
	cmp	r0, #94
	bhi	.LBB17_17
.Ltmp400:
@ %bb.10:                               @   in Loop: Header=BB17_6 Depth=2
	@DEBUG_VALUE: efd_is_str:len <- $r7
	@DEBUG_VALUE: print_env_cb:env <- $r4
	@DEBUG_VALUE: efd_is_str:value <- [DW_OP_plus_uconst 4, DW_OP_stack_value] $sp
	@DEBUG_VALUE: efd_is_str:i <- 1
	@DEBUG_VALUE: print_env_cb:arg1 <- [DW_OP_LLVM_entry_value 1] $r1
	@DEBUG_VALUE: print_env_cb:arg2 <- [DW_OP_LLVM_entry_value 1] $r2
	.loc	2 0 13                          @ ../../../components/utility/EnhancedFlashDataset/Src/efd_kv.c:0:13
	movs	r1, #1
.Ltmp401:
	.p2align	2
.LBB17_11:                              @   Parent Loop BB17_4 Depth=1
                                        @     Parent Loop BB17_6 Depth=2
                                        @ =>    This Inner Loop Header: Depth=3
	@DEBUG_VALUE: efd_is_str:len <- $r7
	@DEBUG_VALUE: print_env_cb:env <- $r4
	@DEBUG_VALUE: efd_is_str:value <- [DW_OP_plus_uconst 4, DW_OP_stack_value] $sp
	@DEBUG_VALUE: print_env_cb:arg1 <- [DW_OP_LLVM_entry_value 1] $r1
	@DEBUG_VALUE: print_env_cb:arg2 <- [DW_OP_LLVM_entry_value 1] $r2
	mov	r0, r1
.Ltmp402:
	@DEBUG_VALUE: efd_is_str:i <- $r0
	.loc	2 853 5 is_stmt 1               @ ../../../components/utility/EnhancedFlashDataset/Src/efd_kv.c:853:5
	cmp	r7, r1
	beq	.LBB17_13
.Ltmp403:
@ %bb.12:                               @   in Loop: Header=BB17_11 Depth=3
	@DEBUG_VALUE: efd_is_str:len <- $r7
	@DEBUG_VALUE: print_env_cb:env <- $r4
	@DEBUG_VALUE: efd_is_str:i <- $r0
	@DEBUG_VALUE: efd_is_str:value <- [DW_OP_plus_uconst 4, DW_OP_stack_value] $sp
	@DEBUG_VALUE: print_env_cb:arg1 <- [DW_OP_LLVM_entry_value 1] $r1
	@DEBUG_VALUE: print_env_cb:arg2 <- [DW_OP_LLVM_entry_value 1] $r2
	@DEBUG_VALUE: efd_is_str:i <- $r0
	.loc	2 855 14                        @ ../../../components/utility/EnhancedFlashDataset/Src/efd_kv.c:855:14
	ldrb	r1, [r5, r0]
	subs	r1, #32
.Ltmp404:
	.loc	2 855 13 is_stmt 0              @ ../../../components/utility/EnhancedFlashDataset/Src/efd_kv.c:855:13
	cmp	r1, #95
.Ltmp405:
	.loc	2 853 27 is_stmt 1              @ ../../../components/utility/EnhancedFlashDataset/Src/efd_kv.c:853:27
	add.w	r1, r0, #1
.Ltmp406:
	@DEBUG_VALUE: efd_is_str:i <- $r1
	.loc	2 855 13                        @ ../../../components/utility/EnhancedFlashDataset/Src/efd_kv.c:855:13
	blo	.LBB17_11
.Ltmp407:
.LBB17_13:                              @   in Loop: Header=BB17_6 Depth=2
	@DEBUG_VALUE: print_env_cb:env <- $r4
	@DEBUG_VALUE: print_env_cb:arg1 <- [DW_OP_LLVM_entry_value 1] $r1
	@DEBUG_VALUE: print_env_cb:arg2 <- [DW_OP_LLVM_entry_value 1] $r2
	.loc	2 1811 30                       @ ../../../components/utility/EnhancedFlashDataset/Src/efd_kv.c:1811:30
	cmp	r0, r7
	blo	.LBB17_17
.Ltmp408:
.LBB17_14:                              @   in Loop: Header=BB17_6 Depth=2
	@DEBUG_VALUE: print_env_cb:env <- $r4
	@DEBUG_VALUE: print_env_cb:arg1 <- [DW_OP_LLVM_entry_value 1] $r1
	@DEBUG_VALUE: print_env_cb:arg2 <- [DW_OP_LLVM_entry_value 1] $r2
	.loc	2 1796 52                       @ ../../../components/utility/EnhancedFlashDataset/Src/efd_kv.c:1796:52
	ldr.w	r2, [r4, #14]
	.loc	2 1796 67 is_stmt 0             @ ../../../components/utility/EnhancedFlashDataset/Src/efd_kv.c:1796:67
	add	r6, r7
.Ltmp409:
	.loc	2 1796 17                       @ ../../../components/utility/EnhancedFlashDataset/Src/efd_kv.c:1796:17
	cmp	r2, r6
	bhi	.LBB17_6
	b	.LBB17_16
.Ltmp410:
	.p2align	2
.LBB17_15:                              @   in Loop: Header=BB17_4 Depth=1
	@DEBUG_VALUE: print_env_cb:env <- $r4
	@DEBUG_VALUE: print_env_cb:arg1 <- [DW_OP_LLVM_entry_value 1] $r1
	@DEBUG_VALUE: print_env_cb:arg2 <- [DW_OP_LLVM_entry_value 1] $r2
	.loc	2 0 17                          @ ../../../components/utility/EnhancedFlashDataset/Src/efd_kv.c:0:17
	movs	r2, #0
.Ltmp411:
.LBB17_16:                              @   in Loop: Header=BB17_4 Depth=1
	@DEBUG_VALUE: print_env_cb:env <- $r4
	@DEBUG_VALUE: print_env_cb:arg1 <- [DW_OP_LLVM_entry_value 1] $r1
	@DEBUG_VALUE: print_env_cb:arg2 <- [DW_OP_LLVM_entry_value 1] $r2
	@DEBUG_VALUE: print_env_cb:value_is_str <- undef
	@DEBUG_VALUE: print_env_cb:print_value <- undef
	.loc	2 1822 30 is_stmt 1             @ ../../../components/utility/EnhancedFlashDataset/Src/efd_kv.c:1822:30
	lsls.w	r0, r9, #31
	mov.w	r9, #1
	beq	.LBB17_4
	b	.LBB17_19
.Ltmp412:
.LBB17_17:
	@DEBUG_VALUE: print_env_cb:env <- $r4
	@DEBUG_VALUE: print_env_cb:arg1 <- [DW_OP_LLVM_entry_value 1] $r1
	@DEBUG_VALUE: print_env_cb:arg2 <- [DW_OP_LLVM_entry_value 1] $r2
	.loc	2 1829 17                       @ ../../../components/utility/EnhancedFlashDataset/Src/efd_kv.c:1829:17
	ldr.w	r2, [r4, #14]
.Ltmp413:
.LBB17_18:
	@DEBUG_VALUE: print_env_cb:env <- $r4
	@DEBUG_VALUE: print_env_cb:arg1 <- [DW_OP_LLVM_entry_value 1] $r1
	@DEBUG_VALUE: print_env_cb:arg2 <- [DW_OP_LLVM_entry_value 1] $r2
	ldr.w	r1, [r4, #86]
	adr	r0, .LCPI17_1
	bl	__2printf
.Ltmp414:
.LBB17_19:
	@DEBUG_VALUE: print_env_cb:env <- $r4
	@DEBUG_VALUE: print_env_cb:arg1 <- [DW_OP_LLVM_entry_value 1] $r1
	@DEBUG_VALUE: print_env_cb:arg2 <- [DW_OP_LLVM_entry_value 1] $r2
	.loc	2 1831 13                       @ ../../../components/utility/EnhancedFlashDataset/Src/efd_kv.c:1831:13
	adr	r0, .LCPI17_3
	bl	puts
.Ltmp415:
.LBB17_20:
	@DEBUG_VALUE: print_env_cb:env <- $r4
	.loc	2 1835 5                        @ ../../../components/utility/EnhancedFlashDataset/Src/efd_kv.c:1835:5
	movs	r0, #0
	add	sp, #36
	pop.w	{r4, r5, r6, r7, r8, r9, pc}
.Ltmp416:
	.p2align	2
@ %bb.21:
	.loc	2 0 5 is_stmt 0                 @ ../../../components/utility/EnhancedFlashDataset/Src/efd_kv.c:0:5
.LCPI17_0:
.L.str.3:
	.asciz	"%.*s=\r\n"
.LCPI17_1:
.L.str.5:
	.asciz	"blob @0x%08X %dbytes\r\n\000"
.LCPI17_2:
.L.str.4:
	.asciz	"%.*s\r\n\000"
.LCPI17_3:
.Lstr:
	.asciz	"\n\r\000"
.Lfunc_end17:
	.size	print_env_cb, .Lfunc_end17-print_env_cb
	.cfi_endproc
	.cantunwind
	.fnend
                                        @ -- End function
	.section	.text.efd_load_env,"ax",%progbits
	.hidden	efd_load_env                    @ -- Begin function efd_load_env
	.globl	efd_load_env
	.p2align	1
	.type	efd_load_env,%function
	.code	16                              @ @efd_load_env
	.thumb_func
efd_load_env:
.Lfunc_begin18:
	.loc	2 1973 0 is_stmt 1              @ ../../../components/utility/EnhancedFlashDataset/Src/efd_kv.c:1973:0
	.fnstart
	.cfi_startproc
@ %bb.0:
	.save	{r4, r5, r6, r7, lr}
	push	{r4, r5, r6, r7, lr}
	.cfi_def_cfa_offset 20
	.cfi_offset lr, -4
	.cfi_offset r7, -8
	.cfi_offset r6, -12
	.cfi_offset r5, -16
	.cfi_offset r4, -20
	.pad	#140
	sub	sp, #140
	.cfi_def_cfa_offset 160
.Ltmp417:
	.loc	2 1979 23 prologue_end          @ ../../../components/utility/EnhancedFlashDataset/Src/efd_kv.c:1979:23
	movw	r6, :lower16:in_recovery_check
	movt	r6, :upper16:in_recovery_check
	movs	r0, #1
	strb	r0, [r6]
.Ltmp418:
	@DEBUG_VALUE: efd_load_env:check_failed_count <- [DW_OP_plus_uconst 12, DW_OP_deref] $sp
	.loc	2 1981 5                        @ ../../../components/utility/EnhancedFlashDataset/Src/efd_kv.c:1981:5
	movw	r0, :lower16:check_sec_hdr_cb
	movt	r0, :upper16:check_sec_hdr_cb
	movs	r4, #0
.Ltmp419:
	@DEBUG_VALUE: efd_load_env:check_failed_count <- 0
	@DEBUG_VALUE: efd_load_env:result <- 0
	str	r0, [sp]
	add	r0, sp, #16
	add	r2, sp, #12
	movs	r1, #0
	movs	r3, #0
	.loc	2 1977 12                       @ ../../../components/utility/EnhancedFlashDataset/Src/efd_kv.c:1977:12
	str	r4, [sp, #12]
	.loc	2 1981 5                        @ ../../../components/utility/EnhancedFlashDataset/Src/efd_kv.c:1981:5
	str	r4, [sp, #4]
	bl	sector_iterator
.Ltmp420:
	.loc	2 1983 9                        @ ../../../components/utility/EnhancedFlashDataset/Src/efd_kv.c:1983:9
	ldr	r0, [sp, #12]
.Ltmp421:
	@DEBUG_VALUE: efd_load_env:check_failed_count <- $r0
	.loc	2 1983 9 is_stmt 0              @ ../../../components/utility/EnhancedFlashDataset/Src/efd_kv.c:1983:9
	cmp	r0, #8
.Ltmp422:
	.loc	2 1986 9 is_stmt 1              @ ../../../components/utility/EnhancedFlashDataset/Src/efd_kv.c:1986:9
	it	eq
	bleq	efd_env_set_default
.Ltmp423:
	.loc	2 1990 5                        @ ../../../components/utility/EnhancedFlashDataset/Src/efd_kv.c:1990:5
	bl	efd_port_env_lock
.Ltmp424:
	.loc	2 1992 5                        @ ../../../components/utility/EnhancedFlashDataset/Src/efd_kv.c:1992:5
	movw	r0, :lower16:check_and_recovery_gc_cb
	movt	r0, :upper16:check_and_recovery_gc_cb
	str	r0, [sp]
	add	r0, sp, #16
	movs	r1, #0
	movs	r2, #0
	movs	r3, #0
	str	r4, [sp, #4]
	bl	sector_iterator
.Ltmp425:
	@DEBUG_LABEL: efd_load_env:__retry
	.loc	2 1996 5                        @ ../../../components/utility/EnhancedFlashDataset/Src/efd_kv.c:1996:5
	movw	r3, :lower16:check_and_recovery_env_cb
	movt	r3, :upper16:check_and_recovery_env_cb
	add	r0, sp, #48
	movs	r1, #0
	movs	r2, #0
	bl	env_iterator
.Ltmp426:
	.loc	2 1997 9                        @ ../../../components/utility/EnhancedFlashDataset/Src/efd_kv.c:1997:9
	movw	r7, :lower16:gc_request
	movt	r7, :upper16:gc_request
	ldrb	r0, [r7]
.Ltmp427:
	.loc	2 1997 9 is_stmt 0              @ ../../../components/utility/EnhancedFlashDataset/Src/efd_kv.c:1997:9
	cmp	r0, #1
	bne	.LBB18_3
.Ltmp428:
@ %bb.1:
	@DEBUG_VALUE: efd_load_env:result <- 0
	.loc	2 0 9                           @ ../../../components/utility/EnhancedFlashDataset/Src/efd_kv.c:0:9
	movw	r4, :lower16:check_and_recovery_env_cb
	movt	r4, :upper16:check_and_recovery_env_cb
	add	r5, sp, #48
.Ltmp429:
	.p2align	2
.LBB18_2:                               @ =>This Inner Loop Header: Depth=1
	@DEBUG_VALUE: efd_load_env:result <- 0
	.loc	2 1999 9 is_stmt 1              @ ../../../components/utility/EnhancedFlashDataset/Src/efd_kv.c:1999:9
	bl	gc_collect
.Ltmp430:
	@DEBUG_LABEL: efd_load_env:__retry
	.loc	2 1996 5                        @ ../../../components/utility/EnhancedFlashDataset/Src/efd_kv.c:1996:5
	mov	r0, r5
	movs	r1, #0
	movs	r2, #0
	mov	r3, r4
	bl	env_iterator
.Ltmp431:
	.loc	2 1997 9                        @ ../../../components/utility/EnhancedFlashDataset/Src/efd_kv.c:1997:9
	ldrb	r0, [r7]
.Ltmp432:
	.loc	2 1997 9 is_stmt 0              @ ../../../components/utility/EnhancedFlashDataset/Src/efd_kv.c:1997:9
	cmp	r0, #0
	bne	.LBB18_2
.Ltmp433:
.LBB18_3:
	@DEBUG_VALUE: efd_load_env:result <- 0
	.loc	2 0 9                           @ ../../../components/utility/EnhancedFlashDataset/Src/efd_kv.c:0:9
	movs	r0, #0
	.loc	2 2003 23 is_stmt 1             @ ../../../components/utility/EnhancedFlashDataset/Src/efd_kv.c:2003:23
	strb	r0, [r6]
	.loc	2 2006 5                        @ ../../../components/utility/EnhancedFlashDataset/Src/efd_kv.c:2006:5
	bl	efd_port_env_unlock
.Ltmp434:
	.loc	2 2008 5                        @ ../../../components/utility/EnhancedFlashDataset/Src/efd_kv.c:2008:5
	movs	r0, #0
	add	sp, #140
	pop	{r4, r5, r6, r7, pc}
.Ltmp435:
.Lfunc_end18:
	.size	efd_load_env, .Lfunc_end18-efd_load_env
	.cfi_endproc
	.cantunwind
	.fnend
                                        @ -- End function
	.section	.text.sector_iterator,"ax",%progbits
	.p2align	1                               @ -- Begin function sector_iterator
	.type	sector_iterator,%function
	.code	16                              @ @sector_iterator
	.thumb_func
sector_iterator:
.Lfunc_begin19:
	.loc	2 1115 0                        @ ../../../components/utility/EnhancedFlashDataset/Src/efd_kv.c:1115:0
	.fnstart
	.cfi_startproc
@ %bb.0:
	@DEBUG_VALUE: sector_iterator:sector <- $r0
	@DEBUG_VALUE: sector_iterator:status <- $r1
	@DEBUG_VALUE: sector_iterator:arg1 <- $r2
	@DEBUG_VALUE: sector_iterator:arg2 <- $r3
	.save	{r4, r5, r6, r7, r8, r9, r10, r11, lr}
	push.w	{r4, r5, r6, r7, r8, r9, r10, r11, lr}
	.cfi_def_cfa_offset 36
	.cfi_offset lr, -4
	.cfi_offset r11, -8
	.cfi_offset r10, -12
	.cfi_offset r9, -16
	.cfi_offset r8, -20
	.cfi_offset r7, -24
	.cfi_offset r6, -28
	.cfi_offset r5, -32
	.cfi_offset r4, -36
	.pad	#4
	sub	sp, #4
	.cfi_def_cfa_offset 40
	ldrd	r5, r9, [sp, #40]
	movw	r11, :lower16:env_start_addr
	mov	r8, r3
.Ltmp436:
	@DEBUG_VALUE: sector_iterator:arg2 <- $r8
	mov	r10, r2
.Ltmp437:
	@DEBUG_VALUE: sector_iterator:arg1 <- $r10
	mov	r6, r1
.Ltmp438:
	@DEBUG_VALUE: sector_iterator:status <- $r6
	mov	r7, r0
.Ltmp439:
	@DEBUG_VALUE: sector_iterator:sector <- $r7
	mov.w	r0, #-1
.Ltmp440:
	@DEBUG_VALUE: sector_iterator:traversal_env <- [DW_OP_LLVM_convert 1 7, DW_OP_LLVM_convert 8 7, DW_OP_stack_value] $r9
	@DEBUG_VALUE: sector_iterator:callback <- [DW_OP_plus_uconst 40] [$sp+0]
	@DEBUG_VALUE: sector_iterator:arg2 <- $r8
	@DEBUG_VALUE: sector_iterator:arg1 <- $r10
	@DEBUG_VALUE: sector_iterator:status <- $r6
	@DEBUG_VALUE: sector_iterator:sector <- $r7
	movt	r11, :upper16:env_start_addr
.Ltmp441:
	.loc	2 1119 18 prologue_end          @ ../../../components/utility/EnhancedFlashDataset/Src/efd_kv.c:1119:18
	str.w	r0, [r7, #9]
.Ltmp442:
	.p2align	2
.LBB19_1:                               @ =>This Inner Loop Header: Depth=1
	@DEBUG_VALUE: sector_iterator:arg1 <- $r10
	@DEBUG_VALUE: sector_iterator:traversal_env <- [DW_OP_LLVM_convert 1 7, DW_OP_LLVM_convert 8 7, DW_OP_stack_value] $r9
	@DEBUG_VALUE: sector_iterator:arg2 <- $r8
	@DEBUG_VALUE: sector_iterator:sector <- $r7
	@DEBUG_VALUE: sector_iterator:status <- $r6
	@DEBUG_VALUE: sector_iterator:callback <- [DW_OP_plus_uconst 40] [$sp+0]
	@DEBUG_VALUE: get_next_sector_addr:pre_sec <- $r7
	.loc	2 730 9                         @ ../../../components/utility/EnhancedFlashDataset/Src/efd_kv.c:730:9
	adds	r1, r0, #1
	beq	.LBB19_3
.Ltmp443:
@ %bb.2:                                @   in Loop: Header=BB19_1 Depth=1
	@DEBUG_VALUE: sector_iterator:arg1 <- $r10
	@DEBUG_VALUE: sector_iterator:traversal_env <- [DW_OP_LLVM_convert 1 7, DW_OP_LLVM_convert 8 7, DW_OP_stack_value] $r9
	@DEBUG_VALUE: sector_iterator:arg2 <- $r8
	@DEBUG_VALUE: get_next_sector_addr:pre_sec <- $r7
	@DEBUG_VALUE: sector_iterator:sector <- $r7
	@DEBUG_VALUE: sector_iterator:status <- $r6
	@DEBUG_VALUE: sector_iterator:callback <- [DW_OP_plus_uconst 40] [$sp+0]
	.loc	2 737 22                        @ ../../../components/utility/EnhancedFlashDataset/Src/efd_kv.c:737:22
	ldr.w	r1, [r7, #17]
.Ltmp444:
	.loc	2 737 13 is_stmt 0              @ ../../../components/utility/EnhancedFlashDataset/Src/efd_kv.c:737:13
	lsls	r2, r1, #12
	adds	r1, #1
	it	eq
	moveq.w	r2, #4096
.Ltmp445:
	.loc	2 746 25 is_stmt 1              @ ../../../components/utility/EnhancedFlashDataset/Src/efd_kv.c:746:25
	ldrb.w	r1, [r11]
.Ltmp446:
	.loc	2 737 13                        @ ../../../components/utility/EnhancedFlashDataset/Src/efd_kv.c:737:13
	adds	r4, r2, r0
.Ltmp447:
	@DEBUG_VALUE: get_next_sector_addr:next_addr <- $r4
	.loc	2 746 40                        @ ../../../components/utility/EnhancedFlashDataset/Src/efd_kv.c:746:40
	cmp	r1, #0
	mov.w	r0, #32768
	it	ne
	movne.w	r0, #1028096
	cmp	r4, r0
	blo	.LBB19_4
	b	.LBB19_11
.Ltmp448:
	.p2align	2
.LBB19_3:                               @   in Loop: Header=BB19_1 Depth=1
	@DEBUG_VALUE: sector_iterator:arg1 <- $r10
	@DEBUG_VALUE: sector_iterator:traversal_env <- [DW_OP_LLVM_convert 1 7, DW_OP_LLVM_convert 8 7, DW_OP_stack_value] $r9
	@DEBUG_VALUE: sector_iterator:arg2 <- $r8
	@DEBUG_VALUE: get_next_sector_addr:pre_sec <- $r7
	@DEBUG_VALUE: sector_iterator:sector <- $r7
	@DEBUG_VALUE: sector_iterator:status <- $r6
	@DEBUG_VALUE: sector_iterator:callback <- [DW_OP_plus_uconst 40] [$sp+0]
	.loc	2 732 16                        @ ../../../components/utility/EnhancedFlashDataset/Src/efd_kv.c:732:16
	ldrb.w	r4, [r11]
	cmp	r4, #0
	it	ne
	movne.w	r4, #995328
.Ltmp449:
.LBB19_4:                               @   in Loop: Header=BB19_1 Depth=1
	@DEBUG_VALUE: sector_iterator:arg1 <- $r10
	@DEBUG_VALUE: sector_iterator:traversal_env <- [DW_OP_LLVM_convert 1 7, DW_OP_LLVM_convert 8 7, DW_OP_stack_value] $r9
	@DEBUG_VALUE: sector_iterator:arg2 <- $r8
	@DEBUG_VALUE: sector_iterator:sector <- $r7
	@DEBUG_VALUE: sector_iterator:status <- $r6
	@DEBUG_VALUE: sector_iterator:callback <- [DW_OP_plus_uconst 40] [$sp+0]
	@DEBUG_VALUE: sector_iterator:sec_addr <- undef
	.loc	2 1122 9                        @ ../../../components/utility/EnhancedFlashDataset/Src/efd_kv.c:1122:9
	mov	r0, r4
	mov	r1, r7
	movs	r2, #0
	bl	read_sector_meta_data
.Ltmp450:
	.loc	2 1123 43                       @ ../../../components/utility/EnhancedFlashDataset/Src/efd_kv.c:1123:43
	cbz	r6, .LBB19_6
.Ltmp451:
@ %bb.5:                                @   in Loop: Header=BB19_1 Depth=1
	@DEBUG_VALUE: sector_iterator:arg1 <- $r10
	@DEBUG_VALUE: sector_iterator:traversal_env <- [DW_OP_LLVM_convert 1 7, DW_OP_LLVM_convert 8 7, DW_OP_stack_value] $r9
	@DEBUG_VALUE: sector_iterator:arg2 <- $r8
	@DEBUG_VALUE: sector_iterator:sector <- $r7
	@DEBUG_VALUE: sector_iterator:status <- $r6
	@DEBUG_VALUE: sector_iterator:callback <- [DW_OP_plus_uconst 40] [$sp+0]
	.loc	2 1123 71 is_stmt 0             @ ../../../components/utility/EnhancedFlashDataset/Src/efd_kv.c:1123:71
	ldr.w	r0, [r7, #1]
.Ltmp452:
	.loc	2 1123 13                       @ ../../../components/utility/EnhancedFlashDataset/Src/efd_kv.c:1123:13
	cmp	r0, r6
	bne	.LBB19_10
.Ltmp453:
.LBB19_6:                               @   in Loop: Header=BB19_1 Depth=1
	@DEBUG_VALUE: sector_iterator:arg1 <- $r10
	@DEBUG_VALUE: sector_iterator:traversal_env <- [DW_OP_LLVM_convert 1 7, DW_OP_LLVM_convert 8 7, DW_OP_stack_value] $r9
	@DEBUG_VALUE: sector_iterator:arg2 <- $r8
	@DEBUG_VALUE: sector_iterator:sector <- $r7
	@DEBUG_VALUE: sector_iterator:status <- $r6
	@DEBUG_VALUE: sector_iterator:callback <- [DW_OP_plus_uconst 40] [$sp+0]
	.loc	2 1125 17 is_stmt 1             @ ../../../components/utility/EnhancedFlashDataset/Src/efd_kv.c:1125:17
	cmp.w	r9, #0
	beq	.LBB19_8
.Ltmp454:
@ %bb.7:                                @   in Loop: Header=BB19_1 Depth=1
	@DEBUG_VALUE: sector_iterator:arg1 <- $r10
	@DEBUG_VALUE: sector_iterator:traversal_env <- [DW_OP_LLVM_convert 1 7, DW_OP_LLVM_convert 8 7, DW_OP_stack_value] $r9
	@DEBUG_VALUE: sector_iterator:arg2 <- $r8
	@DEBUG_VALUE: sector_iterator:sector <- $r7
	@DEBUG_VALUE: sector_iterator:status <- $r6
	@DEBUG_VALUE: sector_iterator:callback <- [DW_OP_plus_uconst 40] [$sp+0]
	.loc	2 1127 17                       @ ../../../components/utility/EnhancedFlashDataset/Src/efd_kv.c:1127:17
	mov	r0, r4
	mov	r1, r7
	movs	r2, #1
	bl	read_sector_meta_data
.Ltmp455:
.LBB19_8:                               @   in Loop: Header=BB19_1 Depth=1
	@DEBUG_VALUE: sector_iterator:arg1 <- $r10
	@DEBUG_VALUE: sector_iterator:traversal_env <- [DW_OP_LLVM_convert 1 7, DW_OP_LLVM_convert 8 7, DW_OP_stack_value] $r9
	@DEBUG_VALUE: sector_iterator:arg2 <- $r8
	@DEBUG_VALUE: sector_iterator:sector <- $r7
	@DEBUG_VALUE: sector_iterator:status <- $r6
	@DEBUG_VALUE: sector_iterator:callback <- [DW_OP_plus_uconst 40] [$sp+0]
	.loc	2 1130 26                       @ ../../../components/utility/EnhancedFlashDataset/Src/efd_kv.c:1130:26
	cbz	r5, .LBB19_10
.Ltmp456:
@ %bb.9:                                @   in Loop: Header=BB19_1 Depth=1
	@DEBUG_VALUE: sector_iterator:arg1 <- $r10
	@DEBUG_VALUE: sector_iterator:traversal_env <- [DW_OP_LLVM_convert 1 7, DW_OP_LLVM_convert 8 7, DW_OP_stack_value] $r9
	@DEBUG_VALUE: sector_iterator:arg2 <- $r8
	@DEBUG_VALUE: sector_iterator:sector <- $r7
	@DEBUG_VALUE: sector_iterator:status <- $r6
	@DEBUG_VALUE: sector_iterator:callback <- [DW_OP_plus_uconst 40] [$sp+0]
	.loc	2 1130 29 is_stmt 0             @ ../../../components/utility/EnhancedFlashDataset/Src/efd_kv.c:1130:29
	mov	r0, r7
	mov	r1, r10
	mov	r2, r8
	blx	r5
.Ltmp457:
	.loc	2 1130 17                       @ ../../../components/utility/EnhancedFlashDataset/Src/efd_kv.c:1130:17
	cbnz	r0, .LBB19_11
.Ltmp458:
.LBB19_10:                              @   in Loop: Header=BB19_1 Depth=1
	@DEBUG_VALUE: sector_iterator:arg1 <- $r10
	@DEBUG_VALUE: sector_iterator:traversal_env <- [DW_OP_LLVM_convert 1 7, DW_OP_LLVM_convert 8 7, DW_OP_stack_value] $r9
	@DEBUG_VALUE: sector_iterator:arg2 <- $r8
	@DEBUG_VALUE: sector_iterator:sector <- $r7
	@DEBUG_VALUE: sector_iterator:status <- $r6
	@DEBUG_VALUE: sector_iterator:callback <- [DW_OP_plus_uconst 40] [$sp+0]
	.loc	2 730 18 is_stmt 1              @ ../../../components/utility/EnhancedFlashDataset/Src/efd_kv.c:730:18
	ldr.w	r0, [r7, #9]
	b	.LBB19_1
.Ltmp459:
.LBB19_11:
	@DEBUG_VALUE: sector_iterator:arg1 <- $r10
	@DEBUG_VALUE: sector_iterator:traversal_env <- [DW_OP_LLVM_convert 1 7, DW_OP_LLVM_convert 8 7, DW_OP_stack_value] $r9
	@DEBUG_VALUE: sector_iterator:arg2 <- $r8
	@DEBUG_VALUE: sector_iterator:sector <- $r7
	@DEBUG_VALUE: sector_iterator:status <- $r6
	@DEBUG_VALUE: sector_iterator:callback <- [DW_OP_plus_uconst 40] [$sp+0]
	.loc	2 1136 1                        @ ../../../components/utility/EnhancedFlashDataset/Src/efd_kv.c:1136:1
	add	sp, #4
	pop.w	{r4, r5, r6, r7, r8, r9, r10, r11, pc}
.Ltmp460:
.Lfunc_end19:
	.size	sector_iterator, .Lfunc_end19-sector_iterator
	.cfi_endproc
	.cantunwind
	.fnend
                                        @ -- End function
	.section	.text.check_sec_hdr_cb,"ax",%progbits
	.p2align	1                               @ -- Begin function check_sec_hdr_cb
	.type	check_sec_hdr_cb,%function
	.code	16                              @ @check_sec_hdr_cb
	.thumb_func
check_sec_hdr_cb:
.Lfunc_begin20:
	.loc	2 1912 0                        @ ../../../components/utility/EnhancedFlashDataset/Src/efd_kv.c:1912:0
	.fnstart
	.cfi_startproc
@ %bb.0:
	@DEBUG_VALUE: check_sec_hdr_cb:sector <- $r0
	@DEBUG_VALUE: check_sec_hdr_cb:sector <- $r0
	@DEBUG_VALUE: check_sec_hdr_cb:arg1 <- $r1
	@DEBUG_VALUE: check_sec_hdr_cb:arg2 <- $r2
	.save	{r7, lr}
	push	{r7, lr}
	.cfi_def_cfa_offset 8
	.cfi_offset lr, -4
	.cfi_offset r7, -8
.Ltmp461:
	.loc	2 1913 18 prologue_end          @ ../../../components/utility/EnhancedFlashDataset/Src/efd_kv.c:1913:18
	ldrb	r2, [r0]
.Ltmp462:
	@DEBUG_VALUE: check_sec_hdr_cb:arg2 <- [DW_OP_LLVM_entry_value 1] $r2
	@DEBUG_VALUE: check_sec_hdr_cb:arg1 <- $r1
	.loc	2 1913 9 is_stmt 0              @ ../../../components/utility/EnhancedFlashDataset/Src/efd_kv.c:1913:9
	cbnz	r2, .LBB20_2
.Ltmp463:
@ %bb.1:
	@DEBUG_VALUE: check_sec_hdr_cb:arg1 <- $r1
	@DEBUG_VALUE: check_sec_hdr_cb:sector <- $r0
	@DEBUG_VALUE: check_sec_hdr_cb:arg2 <- [DW_OP_LLVM_entry_value 1] $r2
	@DEBUG_VALUE: failed_count <- $r1
	.loc	2 1918 24 is_stmt 1             @ ../../../components/utility/EnhancedFlashDataset/Src/efd_kv.c:1918:24
	ldr	r2, [r1]
	adds	r2, #1
	str	r2, [r1]
	.loc	2 1919 31                       @ ../../../components/utility/EnhancedFlashDataset/Src/efd_kv.c:1919:31
	ldr.w	r0, [r0, #9]
.Ltmp464:
	@DEBUG_VALUE: check_sec_hdr_cb:sector <- [DW_OP_LLVM_entry_value 1] $r0
	.loc	2 1919 9 is_stmt 0              @ ../../../components/utility/EnhancedFlashDataset/Src/efd_kv.c:1919:9
	bl	format_sector
.Ltmp465:
	@DEBUG_VALUE: check_sec_hdr_cb:arg1 <- [DW_OP_LLVM_entry_value 1] $r1
.LBB20_2:
	@DEBUG_VALUE: check_sec_hdr_cb:arg2 <- [DW_OP_LLVM_entry_value 1] $r2
	.loc	2 1922 5 is_stmt 1              @ ../../../components/utility/EnhancedFlashDataset/Src/efd_kv.c:1922:5
	movs	r0, #0
	pop	{r7, pc}
.Ltmp466:
.Lfunc_end20:
	.size	check_sec_hdr_cb, .Lfunc_end20-check_sec_hdr_cb
	.cfi_endproc
	.cantunwind
	.fnend
                                        @ -- End function
	.section	.text.check_and_recovery_gc_cb,"ax",%progbits
	.p2align	1                               @ -- Begin function check_and_recovery_gc_cb
	.type	check_and_recovery_gc_cb,%function
	.code	16                              @ @check_and_recovery_gc_cb
	.thumb_func
check_and_recovery_gc_cb:
.Lfunc_begin21:
	.loc	2 1926 0                        @ ../../../components/utility/EnhancedFlashDataset/Src/efd_kv.c:1926:0
	.fnstart
	.cfi_startproc
@ %bb.0:
	@DEBUG_VALUE: check_and_recovery_gc_cb:sector <- $r0
	@DEBUG_VALUE: check_and_recovery_gc_cb:sector <- $r0
	@DEBUG_VALUE: check_and_recovery_gc_cb:arg1 <- $r1
	@DEBUG_VALUE: check_and_recovery_gc_cb:arg2 <- $r2
	.save	{r7, lr}
	push	{r7, lr}
	.cfi_def_cfa_offset 8
	.cfi_offset lr, -4
	.cfi_offset r7, -8
.Ltmp467:
	.loc	2 1927 17 prologue_end          @ ../../../components/utility/EnhancedFlashDataset/Src/efd_kv.c:1927:17
	ldrb	r1, [r0]
.Ltmp468:
	@DEBUG_VALUE: check_and_recovery_gc_cb:arg1 <- [DW_OP_LLVM_entry_value 1] $r1
	.loc	2 1927 26 is_stmt 0             @ ../../../components/utility/EnhancedFlashDataset/Src/efd_kv.c:1927:26
	cbz	r1, .LBB21_3
.Ltmp469:
@ %bb.1:
	@DEBUG_VALUE: check_and_recovery_gc_cb:arg2 <- $r2
	@DEBUG_VALUE: check_and_recovery_gc_cb:sector <- $r0
	@DEBUG_VALUE: check_and_recovery_gc_cb:arg1 <- [DW_OP_LLVM_entry_value 1] $r1
	.loc	2 1927 44                       @ ../../../components/utility/EnhancedFlashDataset/Src/efd_kv.c:1927:44
	ldr.w	r0, [r0, #5]
.Ltmp470:
	@DEBUG_VALUE: check_and_recovery_gc_cb:sector <- [DW_OP_LLVM_entry_value 1] $r0
	.loc	2 1927 9                        @ ../../../components/utility/EnhancedFlashDataset/Src/efd_kv.c:1927:9
	cmp	r0, #3
	bne	.LBB21_3
.Ltmp471:
@ %bb.2:
	@DEBUG_VALUE: check_and_recovery_gc_cb:arg2 <- $r2
	@DEBUG_VALUE: check_and_recovery_gc_cb:sector <- [DW_OP_LLVM_entry_value 1] $r0
	@DEBUG_VALUE: check_and_recovery_gc_cb:arg1 <- [DW_OP_LLVM_entry_value 1] $r1
	.loc	2 1930 20 is_stmt 1             @ ../../../components/utility/EnhancedFlashDataset/Src/efd_kv.c:1930:20
	movw	r0, :lower16:gc_request
	movt	r0, :upper16:gc_request
	movs	r1, #1
	strb	r1, [r0]
	.loc	2 1932 9                        @ ../../../components/utility/EnhancedFlashDataset/Src/efd_kv.c:1932:9
	bl	gc_collect
.Ltmp472:
	@DEBUG_VALUE: check_and_recovery_gc_cb:arg2 <- [DW_OP_LLVM_entry_value 1] $r2
.LBB21_3:
	@DEBUG_VALUE: check_and_recovery_gc_cb:arg1 <- [DW_OP_LLVM_entry_value 1] $r1
	.loc	2 1935 5                        @ ../../../components/utility/EnhancedFlashDataset/Src/efd_kv.c:1935:5
	movs	r0, #0
	pop	{r7, pc}
.Ltmp473:
.Lfunc_end21:
	.size	check_and_recovery_gc_cb, .Lfunc_end21-check_and_recovery_gc_cb
	.cfi_endproc
	.cantunwind
	.fnend
                                        @ -- End function
	.section	.text.check_and_recovery_env_cb,"ax",%progbits
	.p2align	1                               @ -- Begin function check_and_recovery_env_cb
	.type	check_and_recovery_env_cb,%function
	.code	16                              @ @check_and_recovery_env_cb
	.thumb_func
check_and_recovery_env_cb:
.Lfunc_begin22:
	.loc	2 1939 0                        @ ../../../components/utility/EnhancedFlashDataset/Src/efd_kv.c:1939:0
	.fnstart
	.cfi_startproc
@ %bb.0:
	@DEBUG_VALUE: check_and_recovery_env_cb:env <- $r0
	@DEBUG_VALUE: check_and_recovery_env_cb:env <- $r0
	@DEBUG_VALUE: check_and_recovery_env_cb:arg1 <- $r1
	@DEBUG_VALUE: check_and_recovery_env_cb:arg2 <- $r2
	.save	{r4, lr}
	push	{r4, lr}
	.cfi_def_cfa_offset 8
	.cfi_offset lr, -4
	.cfi_offset r4, -8
	.pad	#8
	sub	sp, #8
	.cfi_def_cfa_offset 16
.Ltmp474:
	.loc	2 1941 14 prologue_end          @ ../../../components/utility/EnhancedFlashDataset/Src/efd_kv.c:1941:14
	ldrb	r2, [r0, #4]
.Ltmp475:
	@DEBUG_VALUE: check_and_recovery_env_cb:arg2 <- [DW_OP_LLVM_entry_value 1] $r2
	.loc	2 0 0 is_stmt 0                 @ ../../../components/utility/EnhancedFlashDataset/Src/efd_kv.c:0:0
	ldr	r1, [r0]
.Ltmp476:
	@DEBUG_VALUE: check_and_recovery_env_cb:arg1 <- [DW_OP_LLVM_entry_value 1] $r1
	.loc	2 1941 24                       @ ../../../components/utility/EnhancedFlashDataset/Src/efd_kv.c:1941:24
	cbz	r2, .LBB22_4
.Ltmp477:
@ %bb.1:
	@DEBUG_VALUE: check_and_recovery_env_cb:env <- $r0
	@DEBUG_VALUE: check_and_recovery_env_cb:arg1 <- [DW_OP_LLVM_entry_value 1] $r1
	@DEBUG_VALUE: check_and_recovery_env_cb:arg2 <- [DW_OP_LLVM_entry_value 1] $r2
	cmp	r1, #3
	bne	.LBB22_4
.Ltmp478:
@ %bb.2:
	@DEBUG_VALUE: check_and_recovery_env_cb:env <- $r0
	@DEBUG_VALUE: check_and_recovery_env_cb:arg1 <- [DW_OP_LLVM_entry_value 1] $r1
	@DEBUG_VALUE: check_and_recovery_env_cb:arg2 <- [DW_OP_LLVM_entry_value 1] $r2
	.loc	2 1945 13 is_stmt 1             @ ../../../components/utility/EnhancedFlashDataset/Src/efd_kv.c:1945:13
	bl	move_env
.Ltmp479:
	@DEBUG_VALUE: check_and_recovery_env_cb:env <- [DW_OP_LLVM_entry_value 1] $r0
	.loc	2 1945 13 is_stmt 0             @ ../../../components/utility/EnhancedFlashDataset/Src/efd_kv.c:1945:13
	cbz	r0, .LBB22_6
.Ltmp480:
@ %bb.3:
	@DEBUG_VALUE: check_and_recovery_env_cb:env <- [DW_OP_LLVM_entry_value 1] $r0
	@DEBUG_VALUE: check_and_recovery_env_cb:arg1 <- [DW_OP_LLVM_entry_value 1] $r1
	@DEBUG_VALUE: check_and_recovery_env_cb:arg2 <- [DW_OP_LLVM_entry_value 1] $r2
	.loc	2 0 13                          @ ../../../components/utility/EnhancedFlashDataset/Src/efd_kv.c:0:13
	movs	r4, #1
	b	.LBB22_7
.Ltmp481:
.LBB22_4:
	@DEBUG_VALUE: check_and_recovery_env_cb:env <- $r0
	@DEBUG_VALUE: check_and_recovery_env_cb:arg1 <- [DW_OP_LLVM_entry_value 1] $r1
	@DEBUG_VALUE: check_and_recovery_env_cb:arg2 <- [DW_OP_LLVM_entry_value 1] $r2
	.loc	2 1955 14 is_stmt 1             @ ../../../components/utility/EnhancedFlashDataset/Src/efd_kv.c:1955:14
	cmp	r1, #1
	bne	.LBB22_6
.Ltmp482:
@ %bb.5:
	@DEBUG_VALUE: check_and_recovery_env_cb:env <- $r0
	@DEBUG_VALUE: check_and_recovery_env_cb:arg1 <- [DW_OP_LLVM_entry_value 1] $r1
	@DEBUG_VALUE: check_and_recovery_env_cb:arg2 <- [DW_OP_LLVM_entry_value 1] $r2
	.loc	2 1960 32                       @ ../../../components/utility/EnhancedFlashDataset/Src/efd_kv.c:1960:32
	ldr.w	r0, [r0, #82]
.Ltmp483:
	@DEBUG_VALUE: check_and_recovery_env_cb:env <- [DW_OP_LLVM_entry_value 1] $r0
	.loc	2 0 32 is_stmt 0                @ ../../../components/utility/EnhancedFlashDataset/Src/efd_kv.c:0:32
	mov.w	r1, #-1
.Ltmp484:
	@DEBUG_VALUE: set_status:byte_index <- -1
	@DEBUG_VALUE: set_status:status_index <- 5
	@DEBUG_VALUE: set_status:status_num <- 6
	@DEBUG_VALUE: write_status:result <- 0
	@DEBUG_VALUE: write_status:status_index <- 5
	@DEBUG_VALUE: write_status:status_num <- 6
	@DEBUG_VALUE: write_status:addr <- $r0
	.loc	2 220 5 is_stmt 1               @ ../../../components/utility/EnhancedFlashDataset/Src/efd_kv.c:220:5
	str	r1, [sp]
	mov	r1, sp
.Ltmp485:
	@DEBUG_VALUE: set_status:status_table <- $sp
	@DEBUG_VALUE: write_status:status_table <- $sp
	@DEBUG_VALUE: set_status:byte_index <- 4
	.loc	2 0 5 is_stmt 0                 @ ../../../components/utility/EnhancedFlashDataset/Src/efd_kv.c:0:5
	movs	r2, #0
.Ltmp486:
	.loc	2 228 9 is_stmt 1               @ ../../../components/utility/EnhancedFlashDataset/Src/efd_kv.c:228:9
	adds	r1, #4
	.loc	2 228 34 is_stmt 0              @ ../../../components/utility/EnhancedFlashDataset/Src/efd_kv.c:228:34
	strb.w	r2, [sp, #4]
.Ltmp487:
	@DEBUG_VALUE: write_status:byte_index <- 4
	.loc	2 280 34 is_stmt 1              @ ../../../components/utility/EnhancedFlashDataset/Src/efd_kv.c:280:34
	adds	r0, #4
.Ltmp488:
	.loc	2 280 14 is_stmt 0              @ ../../../components/utility/EnhancedFlashDataset/Src/efd_kv.c:280:14
	movs	r2, #1
	movs	r4, #1
	bl	efd_port_write
.Ltmp489:
	@DEBUG_VALUE: write_status:result <- undef
	.loc	2 0 14                          @ ../../../components/utility/EnhancedFlashDataset/Src/efd_kv.c:0:14
	b	.LBB22_7
.Ltmp490:
.LBB22_6:
	@DEBUG_VALUE: check_and_recovery_env_cb:arg1 <- [DW_OP_LLVM_entry_value 1] $r1
	@DEBUG_VALUE: check_and_recovery_env_cb:arg2 <- [DW_OP_LLVM_entry_value 1] $r2
	movs	r4, #0
.Ltmp491:
.LBB22_7:
	@DEBUG_VALUE: check_and_recovery_env_cb:arg1 <- [DW_OP_LLVM_entry_value 1] $r1
	@DEBUG_VALUE: check_and_recovery_env_cb:arg2 <- [DW_OP_LLVM_entry_value 1] $r2
	.loc	2 1965 1 is_stmt 1              @ ../../../components/utility/EnhancedFlashDataset/Src/efd_kv.c:1965:1
	mov	r0, r4
	add	sp, #8
	pop	{r4, pc}
.Ltmp492:
.Lfunc_end22:
	.size	check_and_recovery_env_cb, .Lfunc_end22-check_and_recovery_env_cb
	.cfi_endproc
	.cantunwind
	.fnend
                                        @ -- End function
	.section	.text.gc_collect,"ax",%progbits
	.p2align	1                               @ -- Begin function gc_collect
	.type	gc_collect,%function
	.code	16                              @ @gc_collect
	.thumb_func
gc_collect:
.Lfunc_begin23:
	.loc	2 1418 0                        @ ../../../components/utility/EnhancedFlashDataset/Src/efd_kv.c:1418:0
	.fnstart
	.cfi_startproc
@ %bb.0:
	.save	{r4, r5, r6, lr}
	push	{r4, r5, r6, lr}
	.cfi_def_cfa_offset 16
	.cfi_offset lr, -4
	.cfi_offset r6, -8
	.cfi_offset r5, -12
	.cfi_offset r4, -16
	.pad	#40
	sub	sp, #40
	.cfi_def_cfa_offset 56
	movw	r6, :lower16:env_start_addr
	mov.w	r0, #-1
.Ltmp493:
	@DEBUG_VALUE: sector_iterator:traversal_env <- [DW_OP_LLVM_convert 1 7, DW_OP_LLVM_convert 8 7, DW_OP_stack_value] 0
	@DEBUG_VALUE: sector_iterator:arg2 <- 0
	@DEBUG_VALUE: sector_iterator:arg1 <- undef
	@DEBUG_VALUE: sector_iterator:status <- 1
	@DEBUG_VALUE: sector_iterator:sector <- [DW_OP_plus_uconst 8, DW_OP_stack_value] $sp
	@DEBUG_VALUE: gc_collect:empty_sec <- 0
	movs	r5, #0
	movt	r6, :upper16:env_start_addr
	add	r4, sp, #8
.Ltmp494:
	.loc	2 1119 18 prologue_end          @ ../../../components/utility/EnhancedFlashDataset/Src/efd_kv.c:1119:18
	str.w	r0, [sp, #17]
.Ltmp495:
	.p2align	2
.LBB23_1:                               @ =>This Inner Loop Header: Depth=1
	@DEBUG_VALUE: sector_iterator:sector <- [DW_OP_plus_uconst 8, DW_OP_stack_value] $sp
	@DEBUG_VALUE: gc_collect:empty_sec <- 0
	@DEBUG_VALUE: sector_iterator:status <- 1
	@DEBUG_VALUE: sector_iterator:arg2 <- 0
	@DEBUG_VALUE: sector_iterator:traversal_env <- [DW_OP_LLVM_convert 1 7, DW_OP_LLVM_convert 8 7, DW_OP_stack_value] 0
	@DEBUG_VALUE: get_next_sector_addr:pre_sec <- [DW_OP_plus_uconst 8, DW_OP_stack_value] $sp
	.loc	2 730 9                         @ ../../../components/utility/EnhancedFlashDataset/Src/efd_kv.c:730:9
	adds	r1, r0, #1
	beq	.LBB23_3
.Ltmp496:
@ %bb.2:                                @   in Loop: Header=BB23_1 Depth=1
	@DEBUG_VALUE: get_next_sector_addr:pre_sec <- [DW_OP_plus_uconst 8, DW_OP_stack_value] $sp
	@DEBUG_VALUE: sector_iterator:sector <- [DW_OP_plus_uconst 8, DW_OP_stack_value] $sp
	@DEBUG_VALUE: gc_collect:empty_sec <- 0
	@DEBUG_VALUE: sector_iterator:status <- 1
	@DEBUG_VALUE: sector_iterator:arg2 <- 0
	@DEBUG_VALUE: sector_iterator:traversal_env <- [DW_OP_LLVM_convert 1 7, DW_OP_LLVM_convert 8 7, DW_OP_stack_value] 0
	.loc	2 737 22                        @ ../../../components/utility/EnhancedFlashDataset/Src/efd_kv.c:737:22
	ldr.w	r1, [sp, #25]
.Ltmp497:
	.loc	2 737 13 is_stmt 0              @ ../../../components/utility/EnhancedFlashDataset/Src/efd_kv.c:737:13
	lsls	r2, r1, #12
	adds	r1, #1
	it	eq
	moveq.w	r2, #4096
.Ltmp498:
	.loc	2 746 25 is_stmt 1              @ ../../../components/utility/EnhancedFlashDataset/Src/efd_kv.c:746:25
	ldrb	r1, [r6]
.Ltmp499:
	.loc	2 737 13                        @ ../../../components/utility/EnhancedFlashDataset/Src/efd_kv.c:737:13
	add	r0, r2
.Ltmp500:
	@DEBUG_VALUE: get_next_sector_addr:next_addr <- $r0
	.loc	2 746 40                        @ ../../../components/utility/EnhancedFlashDataset/Src/efd_kv.c:746:40
	cmp	r1, #0
	mov.w	r1, #32768
	it	ne
	movne.w	r1, #1028096
	cmp	r0, r1
	blo	.LBB23_4
	b	.LBB23_5
.Ltmp501:
	.p2align	2
.LBB23_3:                               @   in Loop: Header=BB23_1 Depth=1
	@DEBUG_VALUE: get_next_sector_addr:pre_sec <- [DW_OP_plus_uconst 8, DW_OP_stack_value] $sp
	@DEBUG_VALUE: sector_iterator:sector <- [DW_OP_plus_uconst 8, DW_OP_stack_value] $sp
	@DEBUG_VALUE: gc_collect:empty_sec <- 0
	@DEBUG_VALUE: sector_iterator:status <- 1
	@DEBUG_VALUE: sector_iterator:arg2 <- 0
	@DEBUG_VALUE: sector_iterator:traversal_env <- [DW_OP_LLVM_convert 1 7, DW_OP_LLVM_convert 8 7, DW_OP_stack_value] 0
	.loc	2 732 16                        @ ../../../components/utility/EnhancedFlashDataset/Src/efd_kv.c:732:16
	ldrb	r0, [r6]
	cmp	r0, #0
	it	ne
	movne.w	r0, #995328
.Ltmp502:
.LBB23_4:                               @   in Loop: Header=BB23_1 Depth=1
	@DEBUG_VALUE: get_next_sector_addr:pre_sec <- [DW_OP_plus_uconst 8, DW_OP_stack_value] $sp
	@DEBUG_VALUE: sector_iterator:sector <- [DW_OP_plus_uconst 8, DW_OP_stack_value] $sp
	@DEBUG_VALUE: gc_collect:empty_sec <- 0
	@DEBUG_VALUE: sector_iterator:status <- 1
	@DEBUG_VALUE: sector_iterator:arg2 <- 0
	@DEBUG_VALUE: sector_iterator:traversal_env <- [DW_OP_LLVM_convert 1 7, DW_OP_LLVM_convert 8 7, DW_OP_stack_value] 0
	@DEBUG_VALUE: sector_iterator:sec_addr <- undef
	.loc	2 1122 9                        @ ../../../components/utility/EnhancedFlashDataset/Src/efd_kv.c:1122:9
	mov	r1, r4
	movs	r2, #0
	bl	read_sector_meta_data
.Ltmp503:
	.loc	2 1123 71                       @ ../../../components/utility/EnhancedFlashDataset/Src/efd_kv.c:1123:71
	ldr.w	r0, [sp, #9]
	ldrb.w	r1, [sp, #8]
	.loc	2 1123 53 is_stmt 0             @ ../../../components/utility/EnhancedFlashDataset/Src/efd_kv.c:1123:53
	subs	r0, #1
	clz	r0, r0
	lsrs	r0, r0, #5
	cmp	r1, #0
	it	ne
	movne	r1, #1
.Ltmp504:
	.loc	2 1123 13                       @ ../../../components/utility/EnhancedFlashDataset/Src/efd_kv.c:1123:13
	ands	r1, r0
.Ltmp505:
	.loc	2 730 18 is_stmt 1              @ ../../../components/utility/EnhancedFlashDataset/Src/efd_kv.c:730:18
	ldr.w	r0, [sp, #17]
.Ltmp506:
	.loc	2 1123 13                       @ ../../../components/utility/EnhancedFlashDataset/Src/efd_kv.c:1123:13
	add	r5, r1
	b	.LBB23_1
.Ltmp507:
.LBB23_5:
	@DEBUG_VALUE: gc_collect:empty_sec <- 0
	@DEBUG_VALUE: gc_collect:empty_sec <- $r5
	.loc	2 1430 9                        @ ../../../components/utility/EnhancedFlashDataset/Src/efd_kv.c:1430:9
	cmp	r5, #2
	bhi	.LBB23_7
.Ltmp508:
@ %bb.6:
	@DEBUG_VALUE: gc_collect:empty_sec <- $r5
	.loc	2 1432 9                        @ ../../../components/utility/EnhancedFlashDataset/Src/efd_kv.c:1432:9
	bl	Comp_Int_Disable
.Ltmp509:
	.loc	2 1433 9                        @ ../../../components/utility/EnhancedFlashDataset/Src/efd_kv.c:1433:9
	movw	r0, :lower16:do_gc
	movt	r0, :upper16:do_gc
	movs	r6, #0
	str	r0, [sp]
	add	r0, sp, #8
	movs	r1, #0
	movs	r2, #0
	movs	r3, #0
	str	r6, [sp, #4]
	bl	sector_iterator
.Ltmp510:
	.loc	2 1434 9                        @ ../../../components/utility/EnhancedFlashDataset/Src/efd_kv.c:1434:9
	bl	Comp_Int_Enable
.Ltmp511:
.LBB23_7:
	@DEBUG_VALUE: gc_collect:empty_sec <- $r5
	.loc	2 1437 16                       @ ../../../components/utility/EnhancedFlashDataset/Src/efd_kv.c:1437:16
	movw	r0, :lower16:gc_request
	movt	r0, :upper16:gc_request
	movs	r1, #0
	strb	r1, [r0]
	.loc	2 1438 1                        @ ../../../components/utility/EnhancedFlashDataset/Src/efd_kv.c:1438:1
	add	sp, #40
	pop	{r4, r5, r6, pc}
.Ltmp512:
.Lfunc_end23:
	.size	gc_collect, .Lfunc_end23-gc_collect
	.cfi_endproc
	.cantunwind
	.fnend
                                        @ -- End function
	.section	.text.efd_env_init,"ax",%progbits
	.hidden	efd_env_init                    @ -- Begin function efd_env_init
	.globl	efd_env_init
	.p2align	1
	.type	efd_env_init,%function
	.code	16                              @ @efd_env_init
	.thumb_func
efd_env_init:
.Lfunc_begin24:
	.loc	2 2020 0                        @ ../../../components/utility/EnhancedFlashDataset/Src/efd_kv.c:2020:0
	.fnstart
	.cfi_startproc
@ %bb.0:
	@DEBUG_VALUE: efd_env_init:default_env <- $r0
	@DEBUG_VALUE: efd_env_init:default_env <- $r0
	@DEBUG_VALUE: efd_env_init:default_env_size <- $r1
	.save	{r4, r5, r6, lr}
	push	{r4, r5, r6, lr}
	.cfi_def_cfa_offset 16
	.cfi_offset lr, -4
	.cfi_offset r6, -8
	.cfi_offset r5, -12
	.cfi_offset r4, -16
.Ltmp513:
	@DEBUG_VALUE: efd_env_init:result <- 0
	@DEBUG_VALUE: efd_env_init:default_env_size <- $r1
	.loc	2 2027 5 prologue_end           @ ../../../components/utility/EnhancedFlashDataset/Src/efd_kv.c:2027:5
	cbz	r0, .LBB24_8
.Ltmp514:
@ %bb.1:
	@DEBUG_VALUE: efd_env_init:default_env_size <- $r1
	@DEBUG_VALUE: efd_env_init:default_env <- $r0
	@DEBUG_VALUE: efd_env_init:result <- 0
	.loc	2 2036 9                        @ ../../../components/utility/EnhancedFlashDataset/Src/efd_kv.c:2036:9
	movw	r6, :lower16:init_ok
	movt	r6, :upper16:init_ok
	ldrb	r2, [r6]
.Ltmp515:
	.loc	2 2036 9 is_stmt 0              @ ../../../components/utility/EnhancedFlashDataset/Src/efd_kv.c:2036:9
	cbnz	r2, .LBB24_7
.Ltmp516:
@ %bb.2:
	@DEBUG_VALUE: efd_env_init:default_env_size <- $r1
	@DEBUG_VALUE: efd_env_init:default_env <- $r0
	@DEBUG_VALUE: efd_env_init:result <- 0
	.loc	2 0 9                           @ ../../../components/utility/EnhancedFlashDataset/Src/efd_kv.c:0:9
	movw	r3, :lower16:sector_cache_table
	movs	r2, #0
	movt	r3, :upper16:sector_cache_table
	mov.w	r4, #-1
.Ltmp517:
	.p2align	2
.LBB24_3:                               @ =>This Inner Loop Header: Depth=1
	@DEBUG_VALUE: efd_env_init:default_env_size <- $r1
	@DEBUG_VALUE: efd_env_init:default_env <- $r0
	@DEBUG_VALUE: efd_env_init:result <- 0
	@DEBUG_VALUE: efd_env_init:i <- $r2
	.loc	2 2044 36 is_stmt 1             @ ../../../components/utility/EnhancedFlashDataset/Src/efd_kv.c:2044:36
	str.w	r4, [r3, r2, lsl #3]
.Ltmp518:
	.loc	2 2042 51                       @ ../../../components/utility/EnhancedFlashDataset/Src/efd_kv.c:2042:51
	adds	r2, #1
.Ltmp519:
	@DEBUG_VALUE: efd_env_init:i <- $r2
	.loc	2 2042 5 is_stmt 0              @ ../../../components/utility/EnhancedFlashDataset/Src/efd_kv.c:2042:5
	cmp	r2, #8
	bne	.LBB24_3
.Ltmp520:
@ %bb.4:
	@DEBUG_VALUE: efd_env_init:i <- $r2
	@DEBUG_VALUE: efd_env_init:default_env_size <- $r1
	@DEBUG_VALUE: efd_env_init:default_env <- $r0
	@DEBUG_VALUE: efd_env_init:result <- 0
	.loc	2 0 5                           @ ../../../components/utility/EnhancedFlashDataset/Src/efd_kv.c:0:5
	movw	r3, :lower16:env_cache_table
	movs	r2, #0
.Ltmp521:
	movt	r3, :upper16:env_cache_table
	mov.w	r4, #-1
.Ltmp522:
	.p2align	2
.LBB24_5:                               @ =>This Inner Loop Header: Depth=1
	@DEBUG_VALUE: efd_env_init:default_env_size <- $r1
	@DEBUG_VALUE: efd_env_init:default_env <- $r0
	@DEBUG_VALUE: efd_env_init:result <- 0
	@DEBUG_VALUE: efd_env_init:i <- $r2
	.loc	2 2048 33 is_stmt 1             @ ../../../components/utility/EnhancedFlashDataset/Src/efd_kv.c:2048:33
	add.w	r5, r3, r2, lsl #3
.Ltmp523:
	.loc	2 2046 48                       @ ../../../components/utility/EnhancedFlashDataset/Src/efd_kv.c:2046:48
	adds	r2, #1
.Ltmp524:
	@DEBUG_VALUE: efd_env_init:i <- $r2
	.loc	2 2046 5 is_stmt 0              @ ../../../components/utility/EnhancedFlashDataset/Src/efd_kv.c:2046:5
	cmp.w	r2, #256
.Ltmp525:
	.loc	2 2048 33 is_stmt 1             @ ../../../components/utility/EnhancedFlashDataset/Src/efd_kv.c:2048:33
	str	r4, [r5, #4]
.Ltmp526:
	.loc	2 2046 5                        @ ../../../components/utility/EnhancedFlashDataset/Src/efd_kv.c:2046:5
	bne	.LBB24_5
.Ltmp527:
@ %bb.6:
	@DEBUG_VALUE: efd_env_init:i <- $r2
	@DEBUG_VALUE: efd_env_init:default_env_size <- $r1
	@DEBUG_VALUE: efd_env_init:default_env <- $r0
	@DEBUG_VALUE: efd_env_init:result <- 0
	.loc	2 2052 26                       @ ../../../components/utility/EnhancedFlashDataset/Src/efd_kv.c:2052:26
	movw	r2, :lower16:env_start_addr
.Ltmp528:
	movt	r2, :upper16:env_start_addr
	movs	r4, #1
	strb	r4, [r2]
	.loc	2 2053 26                       @ ../../../components/utility/EnhancedFlashDataset/Src/efd_kv.c:2053:26
	movw	r2, :lower16:default_env_set
	movt	r2, :upper16:default_env_set
	str	r0, [r2]
	.loc	2 2054 26                       @ ../../../components/utility/EnhancedFlashDataset/Src/efd_kv.c:2054:26
	movw	r0, :lower16:default_env_set_size
.Ltmp529:
	@DEBUG_VALUE: efd_env_init:default_env <- [DW_OP_LLVM_entry_value 1] $r0
	movt	r0, :upper16:default_env_set_size
	str	r1, [r0]
	.loc	2 2058 14                       @ ../../../components/utility/EnhancedFlashDataset/Src/efd_kv.c:2058:14
	bl	efd_load_env
.Ltmp530:
	@DEBUG_VALUE: efd_env_init:default_env_size <- [DW_OP_LLVM_entry_value 1] $r1
	@DEBUG_VALUE: efd_env_init:result <- 0
	.loc	2 2069 17                       @ ../../../components/utility/EnhancedFlashDataset/Src/efd_kv.c:2069:17
	strb	r4, [r6]
.Ltmp531:
.LBB24_7:
	@DEBUG_VALUE: efd_env_init:result <- 0
	.loc	2 2073 1                        @ ../../../components/utility/EnhancedFlashDataset/Src/efd_kv.c:2073:1
	movs	r0, #0
	pop	{r4, r5, r6, pc}
.Ltmp532:
.LBB24_8:
	@DEBUG_VALUE: efd_env_init:default_env_size <- $r1
	@DEBUG_VALUE: efd_env_init:default_env <- $r0
	@DEBUG_VALUE: efd_env_init:result <- 0
	.loc	2 2027 5                        @ ../../../components/utility/EnhancedFlashDataset/Src/efd_kv.c:2027:5
	movw	r0, :lower16:.L.str
.Ltmp533:
	@DEBUG_VALUE: efd_env_init:default_env <- [DW_OP_LLVM_entry_value 1] $r0
	movw	r1, :lower16:.L.str.1
.Ltmp534:
	@DEBUG_VALUE: efd_env_init:default_env_size <- [DW_OP_LLVM_entry_value 1] $r1
	movt	r0, :upper16:.L.str
	movt	r1, :upper16:.L.str.1
	movw	r2, #2027
	bl	__2printf
.Ltmp535:
	.p2align	2
.LBB24_9:                               @ =>This Inner Loop Header: Depth=1
	@DEBUG_VALUE: efd_env_init:default_env_size <- [DW_OP_LLVM_entry_value 1] $r1
	@DEBUG_VALUE: efd_env_init:default_env <- [DW_OP_LLVM_entry_value 1] $r0
	@DEBUG_VALUE: efd_env_init:result <- 0
	b	.LBB24_9
.Ltmp536:
.Lfunc_end24:
	.size	efd_env_init, .Lfunc_end24-efd_env_init
	.cfi_endproc
	.cantunwind
	.fnend
                                        @ -- End function
	.section	.text.read_env,"ax",%progbits
	.p2align	1                               @ -- Begin function read_env
	.type	read_env,%function
	.code	16                              @ @read_env
	.thumb_func
read_env:
.Lfunc_begin25:
	.loc	2 571 0                         @ ../../../components/utility/EnhancedFlashDataset/Src/efd_kv.c:571:0
	.fnstart
	.cfi_startproc
@ %bb.0:
	@DEBUG_VALUE: read_env:env <- $r0
	.save	{r4, r5, r6, r7, r8, r9, lr}
	push.w	{r4, r5, r6, r7, r8, r9, lr}
	.cfi_def_cfa_offset 28
	.cfi_offset lr, -4
	.cfi_offset r9, -8
	.cfi_offset r8, -12
	.cfi_offset r7, -16
	.cfi_offset r6, -20
	.cfi_offset r5, -24
	.cfi_offset r4, -28
	.pad	#60
	sub	sp, #60
	.cfi_def_cfa_offset 88
	mov	r8, r0
.Ltmp537:
	@DEBUG_VALUE: read_env:result <- 0
	@DEBUG_VALUE: read_env:calc_crc32 <- 0
	@DEBUG_VALUE: read_env:env <- $r8
	.loc	2 578 29 prologue_end           @ ../../../components/utility/EnhancedFlashDataset/Src/efd_kv.c:578:29
	ldr.w	r0, [r0, #82]
	add	r5, sp, #36
	@DEBUG_VALUE: get_status:status_table <- [DW_OP_plus_uconst 36, DW_OP_stack_value] $sp
	.loc	2 578 5 is_stmt 0               @ ../../../components/utility/EnhancedFlashDataset/Src/efd_kv.c:578:5
	mov	r1, r5
	movs	r2, #22
	bl	efd_port_read
.Ltmp538:
	.loc	2 0 5                           @ ../../../components/utility/EnhancedFlashDataset/Src/efd_kv.c:0:5
	movs	r0, #0
	movs	r1, #4
	@DEBUG_VALUE: get_status:status_num_bak <- 5
	@DEBUG_VALUE: get_status:i <- 0
	@DEBUG_VALUE: get_status:status_num <- 4
.Ltmp539:
	.p2align	2
.LBB25_1:                               @ =>This Inner Loop Header: Depth=1
	@DEBUG_VALUE: read_env:env <- $r8
	@DEBUG_VALUE: get_status:status_table <- [DW_OP_plus_uconst 36, DW_OP_stack_value] $sp
	@DEBUG_VALUE: get_status:status_num_bak <- 5
	@DEBUG_VALUE: read_env:calc_crc32 <- 0
	@DEBUG_VALUE: read_env:result <- 0
	@DEBUG_VALUE: get_status:i <- $r0
	.loc	2 248 54 is_stmt 1              @ ../../../components/utility/EnhancedFlashDataset/Src/efd_kv.c:248:54
	bic	r2, r1, #-536870912
	.loc	2 248 13 is_stmt 0              @ ../../../components/utility/EnhancedFlashDataset/Src/efd_kv.c:248:13
	ldrb	r2, [r5, r2]
.Ltmp540:
	.loc	2 248 13                        @ ../../../components/utility/EnhancedFlashDataset/Src/efd_kv.c:248:13
	cbz	r2, .LBB25_4
.Ltmp541:
@ %bb.2:                                @   in Loop: Header=BB25_1 Depth=1
	@DEBUG_VALUE: read_env:env <- $r8
	@DEBUG_VALUE: get_status:i <- $r0
	@DEBUG_VALUE: get_status:status_table <- [DW_OP_plus_uconst 36, DW_OP_stack_value] $sp
	@DEBUG_VALUE: get_status:status_num_bak <- 5
	@DEBUG_VALUE: read_env:calc_crc32 <- 0
	@DEBUG_VALUE: read_env:result <- 0
	.loc	2 253 10 is_stmt 1              @ ../../../components/utility/EnhancedFlashDataset/Src/efd_kv.c:253:10
	adds	r0, #1
.Ltmp542:
	@DEBUG_VALUE: get_status:i <- $r0
	@DEBUG_VALUE: get_status:status_num <- $r1
	.loc	2 239 5                         @ ../../../components/utility/EnhancedFlashDataset/Src/efd_kv.c:239:5
	cmp	r0, #5
	.loc	2 239 22 is_stmt 0              @ ../../../components/utility/EnhancedFlashDataset/Src/efd_kv.c:239:22
	sub.w	r1, r1, #1
.Ltmp543:
	@DEBUG_VALUE: get_status:status_num <- $r1
	.loc	2 239 5                         @ ../../../components/utility/EnhancedFlashDataset/Src/efd_kv.c:239:5
	bne	.LBB25_1
.Ltmp544:
@ %bb.3:
	@DEBUG_VALUE: read_env:env <- $r8
	@DEBUG_VALUE: get_status:status_num <- $r1
	@DEBUG_VALUE: get_status:i <- $r0
	@DEBUG_VALUE: get_status:status_table <- [DW_OP_plus_uconst 36, DW_OP_stack_value] $sp
	@DEBUG_VALUE: get_status:status_num_bak <- 5
	@DEBUG_VALUE: read_env:calc_crc32 <- 0
	@DEBUG_VALUE: read_env:result <- 0
	.loc	2 0 5                           @ ../../../components/utility/EnhancedFlashDataset/Src/efd_kv.c:0:5
	movs	r0, #5
.Ltmp545:
.LBB25_4:
	@DEBUG_VALUE: read_env:env <- $r8
	@DEBUG_VALUE: get_status:status_table <- [DW_OP_plus_uconst 36, DW_OP_stack_value] $sp
	@DEBUG_VALUE: get_status:status_num_bak <- 5
	@DEBUG_VALUE: read_env:calc_crc32 <- 0
	@DEBUG_VALUE: read_env:result <- 0
	.loc	2 580 27 is_stmt 1              @ ../../../components/utility/EnhancedFlashDataset/Src/efd_kv.c:580:27
	ldr.w	r1, [sp, #45]
.Ltmp546:
	.loc	2 256 27                        @ ../../../components/utility/EnhancedFlashDataset/Src/efd_kv.c:256:27
	rsb.w	r2, r0, #5
.Ltmp547:
	.loc	2 579 17                        @ ../../../components/utility/EnhancedFlashDataset/Src/efd_kv.c:579:17
	str.w	r2, [r8]
.Ltmp548:
	.loc	2 582 26                        @ ../../../components/utility/EnhancedFlashDataset/Src/efd_kv.c:582:26
	sub.w	r4, r1, #17
	movw	r2, #32752
	cmp	r4, r2
.Ltmp549:
	.loc	2 580 17                        @ ../../../components/utility/EnhancedFlashDataset/Src/efd_kv.c:580:17
	str.w	r1, [r8, #10]
.Ltmp550:
	.loc	2 582 26                        @ ../../../components/utility/EnhancedFlashDataset/Src/efd_kv.c:582:26
	blo	.LBB25_7
.Ltmp551:
@ %bb.5:
	@DEBUG_VALUE: read_env:env <- $r8
	@DEBUG_VALUE: read_env:calc_crc32 <- 0
	@DEBUG_VALUE: read_env:result <- 0
	.loc	2 0 26 is_stmt 0                @ ../../../components/utility/EnhancedFlashDataset/Src/efd_kv.c:0:26
	movs	r1, #22
.Ltmp552:
	.loc	2 586 13 is_stmt 1              @ ../../../components/utility/EnhancedFlashDataset/Src/efd_kv.c:586:13
	cmp	r0, #0
	.loc	2 585 18                        @ ../../../components/utility/EnhancedFlashDataset/Src/efd_kv.c:585:18
	str.w	r1, [r8, #10]
	.loc	2 586 13                        @ ../../../components/utility/EnhancedFlashDataset/Src/efd_kv.c:586:13
	beq	.LBB25_16
.Ltmp553:
@ %bb.6:
	@DEBUG_VALUE: read_env:env <- $r8
	@DEBUG_VALUE: read_env:calc_crc32 <- 0
	@DEBUG_VALUE: read_env:result <- 0
	.loc	2 0 13 is_stmt 0                @ ../../../components/utility/EnhancedFlashDataset/Src/efd_kv.c:0:13
	movs	r0, #5
.Ltmp554:
	.loc	2 588 25 is_stmt 1              @ ../../../components/utility/EnhancedFlashDataset/Src/efd_kv.c:588:25
	str.w	r0, [r8]
	.loc	2 590 36                        @ ../../../components/utility/EnhancedFlashDataset/Src/efd_kv.c:590:36
	ldr.w	r0, [r8, #82]
	mov.w	r1, #-1
.Ltmp555:
	@DEBUG_VALUE: set_status:byte_index <- -1
	@DEBUG_VALUE: set_status:status_index <- 5
	@DEBUG_VALUE: set_status:status_num <- 6
	@DEBUG_VALUE: write_status:result <- 0
	@DEBUG_VALUE: write_status:status_index <- 5
	@DEBUG_VALUE: write_status:status_num <- 6
	@DEBUG_VALUE: write_status:addr <- $r0
	.loc	2 0 36 is_stmt 0                @ ../../../components/utility/EnhancedFlashDataset/Src/efd_kv.c:0:36
	movs	r2, #0
.Ltmp556:
	.loc	2 220 5 is_stmt 1               @ ../../../components/utility/EnhancedFlashDataset/Src/efd_kv.c:220:5
	str	r1, [sp, #36]
.Ltmp557:
	@DEBUG_VALUE: set_status:byte_index <- 4
	.loc	2 228 9                         @ ../../../components/utility/EnhancedFlashDataset/Src/efd_kv.c:228:9
	adds	r1, r5, #4
	.loc	2 228 34 is_stmt 0              @ ../../../components/utility/EnhancedFlashDataset/Src/efd_kv.c:228:34
	strb.w	r2, [sp, #40]
.Ltmp558:
	@DEBUG_VALUE: write_status:byte_index <- 4
	.loc	2 280 34 is_stmt 1              @ ../../../components/utility/EnhancedFlashDataset/Src/efd_kv.c:280:34
	adds	r0, #4
.Ltmp559:
	.loc	2 280 14 is_stmt 0              @ ../../../components/utility/EnhancedFlashDataset/Src/efd_kv.c:280:14
	movs	r2, #1
	bl	efd_port_write
.Ltmp560:
	@DEBUG_VALUE: set_status:status_table <- [DW_OP_plus_uconst 36, DW_OP_stack_value] $sp
	@DEBUG_VALUE: write_status:status_table <- [DW_OP_plus_uconst 36, DW_OP_stack_value] $sp
	@DEBUG_VALUE: write_status:result <- undef
	.loc	2 0 14                          @ ../../../components/utility/EnhancedFlashDataset/Src/efd_kv.c:0:14
	b	.LBB25_16
.Ltmp561:
.LBB25_7:
	@DEBUG_VALUE: read_env:env <- $r8
	@DEBUG_VALUE: read_env:calc_crc32 <- 0
	@DEBUG_VALUE: read_env:result <- 0
	.loc	2 595 60 is_stmt 1              @ ../../../components/utility/EnhancedFlashDataset/Src/efd_kv.c:595:60
	subw	r0, r1, #4079
	movw	r1, #28688
	cmp	r0, r1
	bhi	.LBB25_10
.Ltmp562:
@ %bb.8:
	@DEBUG_VALUE: read_env:env <- $r8
	@DEBUG_VALUE: read_env:calc_crc32 <- 0
	@DEBUG_VALUE: read_env:result <- 0
	.loc	2 598 9                         @ ../../../components/utility/EnhancedFlashDataset/Src/efd_kv.c:598:9
	movw	r0, :lower16:.L.str
	movw	r1, :lower16:.L.str.1
	movt	r0, :upper16:.L.str
	movt	r1, :upper16:.L.str.1
	movw	r2, #598
	bl	__2printf
.Ltmp563:
	.p2align	2
.LBB25_9:                               @ =>This Inner Loop Header: Depth=1
	@DEBUG_VALUE: read_env:env <- $r8
	@DEBUG_VALUE: read_env:calc_crc32 <- 0
	@DEBUG_VALUE: read_env:result <- 0
	b	.LBB25_9
.Ltmp564:
.LBB25_10:
	@DEBUG_VALUE: read_env:env <- $r8
	@DEBUG_VALUE: read_env:calc_crc32 <- 0
	@DEBUG_VALUE: read_env:result <- 0
	@DEBUG_VALUE: read_env:calc_crc32 <- 0
	@DEBUG_VALUE: read_env:crc_data_len <- $r4
	@DEBUG_VALUE: read_env:len <- 0
	@DEBUG_VALUE: read_env:size <- 0
	.loc	2 604 5                         @ ../../../components/utility/EnhancedFlashDataset/Src/efd_kv.c:604:5
	cbz	r4, .LBB25_13
.Ltmp565:
@ %bb.11:
	@DEBUG_VALUE: read_env:env <- $r8
	@DEBUG_VALUE: read_env:crc_data_len <- $r4
	@DEBUG_VALUE: read_env:size <- 0
	@DEBUG_VALUE: read_env:len <- 0
	@DEBUG_VALUE: read_env:calc_crc32 <- 0
	@DEBUG_VALUE: read_env:result <- 0
	.loc	2 0 5 is_stmt 0                 @ ../../../components/utility/EnhancedFlashDataset/Src/efd_kv.c:0:5
	movs	r5, #0
	add.w	r9, sp, #4
	movs	r6, #0
.Ltmp566:
	.p2align	2
.LBB25_12:                              @ =>This Inner Loop Header: Depth=1
	@DEBUG_VALUE: read_env:env <- $r8
	@DEBUG_VALUE: read_env:crc_data_len <- $r4
	@DEBUG_VALUE: read_env:result <- 0
	@DEBUG_VALUE: read_env:calc_crc32 <- $r6
	@DEBUG_VALUE: read_env:len <- $r5
	.loc	2 606 17 is_stmt 1              @ ../../../components/utility/EnhancedFlashDataset/Src/efd_kv.c:606:17
	add.w	r0, r5, #32
.Ltmp567:
	.loc	2 606 13 is_stmt 0              @ ../../../components/utility/EnhancedFlashDataset/Src/efd_kv.c:606:13
	cmp	r0, r4
	.loc	2 615 33 is_stmt 1              @ ../../../components/utility/EnhancedFlashDataset/Src/efd_kv.c:615:33
	ldr.w	r0, [r8, #82]
	.loc	2 606 13                        @ ../../../components/utility/EnhancedFlashDataset/Src/efd_kv.c:606:13
	sub.w	r7, r4, r5
	.loc	2 615 39                        @ ../../../components/utility/EnhancedFlashDataset/Src/efd_kv.c:615:39
	add	r0, r5
	.loc	2 606 13                        @ ../../../components/utility/EnhancedFlashDataset/Src/efd_kv.c:606:13
	it	lo
	movlo	r7, #32
.Ltmp568:
	@DEBUG_VALUE: read_env:size <- $r7
	.loc	2 615 61                        @ ../../../components/utility/EnhancedFlashDataset/Src/efd_kv.c:615:61
	adds	r0, #17
	.loc	2 615 9 is_stmt 0               @ ../../../components/utility/EnhancedFlashDataset/Src/efd_kv.c:615:9
	mov	r1, r9
	mov	r2, r7
	bl	efd_port_read
.Ltmp569:
	.loc	2 616 22 is_stmt 1              @ ../../../components/utility/EnhancedFlashDataset/Src/efd_kv.c:616:22
	mov	r0, r6
	mov	r1, r9
	mov	r2, r7
	bl	efd_calc_crc32
.Ltmp570:
	.loc	2 604 53                        @ ../../../components/utility/EnhancedFlashDataset/Src/efd_kv.c:604:53
	add	r5, r7
.Ltmp571:
	@DEBUG_VALUE: read_env:len <- $r5
	.loc	2 604 5 is_stmt 0               @ ../../../components/utility/EnhancedFlashDataset/Src/efd_kv.c:604:5
	cmp	r4, r5
.Ltmp572:
	.loc	2 616 22 is_stmt 1              @ ../../../components/utility/EnhancedFlashDataset/Src/efd_kv.c:616:22
	mov	r6, r0
.Ltmp573:
	@DEBUG_VALUE: read_env:calc_crc32 <- $r6
	.loc	2 604 5                         @ ../../../components/utility/EnhancedFlashDataset/Src/efd_kv.c:604:5
	bhi	.LBB25_12
	b	.LBB25_14
.Ltmp574:
.LBB25_13:
	@DEBUG_VALUE: read_env:env <- $r8
	@DEBUG_VALUE: read_env:crc_data_len <- $r4
	@DEBUG_VALUE: read_env:size <- 0
	@DEBUG_VALUE: read_env:len <- 0
	@DEBUG_VALUE: read_env:calc_crc32 <- 0
	@DEBUG_VALUE: read_env:result <- 0
	.loc	2 0 5 is_stmt 0                 @ ../../../components/utility/EnhancedFlashDataset/Src/efd_kv.c:0:5
	movs	r6, #0
.Ltmp575:
.LBB25_14:
	@DEBUG_VALUE: read_env:env <- $r8
	@DEBUG_VALUE: read_env:crc_data_len <- $r4
	@DEBUG_VALUE: read_env:result <- 0
	.loc	2 619 31 is_stmt 1              @ ../../../components/utility/EnhancedFlashDataset/Src/efd_kv.c:619:31
	ldr.w	r0, [sp, #49]
.Ltmp576:
	.loc	2 619 9 is_stmt 0               @ ../../../components/utility/EnhancedFlashDataset/Src/efd_kv.c:619:9
	cmp	r6, r0
	bne	.LBB25_16
.Ltmp577:
@ %bb.15:
	@DEBUG_VALUE: read_env:env <- $r8
	@DEBUG_VALUE: read_env:crc_data_len <- $r4
	@DEBUG_VALUE: read_env:result <- 0
	.loc	2 628 35 is_stmt 1              @ ../../../components/utility/EnhancedFlashDataset/Src/efd_kv.c:628:35
	ldr.w	r1, [r8, #82]
	movs	r0, #1
	.loc	2 628 41 is_stmt 0              @ ../../../components/utility/EnhancedFlashDataset/Src/efd_kv.c:628:41
	add.w	r5, r1, #22
.Ltmp578:
	@DEBUG_VALUE: read_env:env_name_addr <- $r5
	.loc	2 629 62 is_stmt 1              @ ../../../components/utility/EnhancedFlashDataset/Src/efd_kv.c:629:62
	ldrb.w	r2, [sp, #53]
	.loc	2 626 24                        @ ../../../components/utility/EnhancedFlashDataset/Src/efd_kv.c:626:24
	strb.w	r0, [r8, #4]
	.loc	2 629 51                        @ ../../../components/utility/EnhancedFlashDataset/Src/efd_kv.c:629:51
	add.w	r1, r8, #18
	.loc	2 629 9 is_stmt 0               @ ../../../components/utility/EnhancedFlashDataset/Src/efd_kv.c:629:9
	mov	r0, r5
	bl	efd_port_read
.Ltmp579:
	.loc	2 631 43 is_stmt 1              @ ../../../components/utility/EnhancedFlashDataset/Src/efd_kv.c:631:43
	ldrb.w	r0, [sp, #53]
	.loc	2 632 35                        @ ../../../components/utility/EnhancedFlashDataset/Src/efd_kv.c:632:35
	ldr.w	r2, [sp, #54]
	.loc	2 631 41                        @ ../../../components/utility/EnhancedFlashDataset/Src/efd_kv.c:631:41
	adds	r1, r5, r0
	.loc	2 631 25 is_stmt 0              @ ../../../components/utility/EnhancedFlashDataset/Src/efd_kv.c:631:25
	str.w	r1, [r8, #86]
	.loc	2 632 25 is_stmt 1              @ ../../../components/utility/EnhancedFlashDataset/Src/efd_kv.c:632:25
	str.w	r2, [r8, #14]
	.loc	2 633 25                        @ ../../../components/utility/EnhancedFlashDataset/Src/efd_kv.c:633:25
	strb.w	r0, [r8, #5]
	b	.LBB25_17
.Ltmp580:
.LBB25_16:
	@DEBUG_VALUE: read_env:env <- $r8
	@DEBUG_VALUE: read_env:result <- 0
	.loc	2 0 25 is_stmt 0                @ ../../../components/utility/EnhancedFlashDataset/Src/efd_kv.c:0:25
	movs	r0, #0
	strb.w	r0, [r8, #4]
.Ltmp581:
.LBB25_17:
	@DEBUG_VALUE: read_env:env <- $r8
	@DEBUG_VALUE: read_env:result <- 0
	.loc	2 637 1 is_stmt 1               @ ../../../components/utility/EnhancedFlashDataset/Src/efd_kv.c:637:1
	add	sp, #60
	pop.w	{r4, r5, r6, r7, r8, r9, pc}
.Ltmp582:
.Lfunc_end25:
	.size	read_env, .Lfunc_end25-read_env
	.cfi_endproc
	.cantunwind
	.fnend
                                        @ -- End function
	.section	.text.update_env_cache,"ax",%progbits
	.p2align	1                               @ -- Begin function update_env_cache
	.type	update_env_cache,%function
	.code	16                              @ @update_env_cache
	.thumb_func
update_env_cache:
.Lfunc_begin26:
	.loc	2 357 0                         @ ../../../components/utility/EnhancedFlashDataset/Src/efd_kv.c:357:0
	.fnstart
	.cfi_startproc
@ %bb.0:
	@DEBUG_VALUE: update_env_cache:name <- $r0
	@DEBUG_VALUE: update_env_cache:name_len <- $r1
	@DEBUG_VALUE: update_env_cache:addr <- $r2
	.save	{r4, r5, r6, r7, r8, lr}
	push.w	{r4, r5, r6, r7, r8, lr}
	.cfi_def_cfa_offset 24
	.cfi_offset lr, -4
	.cfi_offset r8, -8
	.cfi_offset r7, -12
	.cfi_offset r6, -16
	.cfi_offset r5, -20
	.cfi_offset r4, -24
	mov	r8, r2
.Ltmp583:
	@DEBUG_VALUE: update_env_cache:addr <- $r8
	mov	r2, r1
	mov	r1, r0
.Ltmp584:
	@DEBUG_VALUE: update_env_cache:name_len <- [DW_OP_LLVM_entry_value 1] $r1
	@DEBUG_VALUE: update_env_cache:min_activity_index <- 256
	@DEBUG_VALUE: update_env_cache:empty_index <- 256
	@DEBUG_VALUE: update_env_cache:addr <- $r8
	@DEBUG_VALUE: update_env_cache:name_len <- $r2
	@DEBUG_VALUE: update_env_cache:name <- $r1
	.loc	2 359 37 prologue_end           @ ../../../components/utility/EnhancedFlashDataset/Src/efd_kv.c:359:37
	movs	r0, #0
	@DEBUG_VALUE: update_env_cache:name_len <- $r2
	@DEBUG_VALUE: update_env_cache:name <- $r1
	movs	r5, #0
	bl	efd_calc_crc32
.Ltmp585:
	.loc	2 0 37 is_stmt 0                @ ../../../components/utility/EnhancedFlashDataset/Src/efd_kv.c:0:37
	movw	lr, :lower16:env_cache_table
	.loc	2 359 71                        @ ../../../components/utility/EnhancedFlashDataset/Src/efd_kv.c:359:71
	lsrs	r0, r0, #16
.Ltmp586:
	@DEBUG_VALUE: update_env_cache:name_crc <- [DW_OP_LLVM_convert 32 7, DW_OP_LLVM_convert 16 7, DW_OP_stack_value] $r0
	.loc	2 0 71                          @ ../../../components/utility/EnhancedFlashDataset/Src/efd_kv.c:0:71
	mov.w	r12, #256
	movw	r3, #65535
.Ltmp587:
	@DEBUG_VALUE: update_env_cache:i <- 0
	@DEBUG_VALUE: update_env_cache:min_activity <- -1
	movt	lr, :upper16:env_cache_table
	add.w	r6, r8, #1
	mov.w	r4, #256
.Ltmp588:
	.p2align	2
.LBB26_1:                               @ =>This Inner Loop Header: Depth=1
	@DEBUG_VALUE: update_env_cache:addr <- $r8
	@DEBUG_VALUE: update_env_cache:name_crc <- [DW_OP_LLVM_convert 32 7, DW_OP_LLVM_convert 16 7, DW_OP_stack_value] $r0
	@DEBUG_VALUE: update_env_cache:empty_index <- $r4
	@DEBUG_VALUE: update_env_cache:min_activity_index <- $r12
	@DEBUG_VALUE: update_env_cache:min_activity <- $r3
	@DEBUG_VALUE: update_env_cache:i <- $r5
	ldrh.w	r1, [lr, r5, lsl #3]
.Ltmp589:
	.loc	2 363 13 is_stmt 1              @ ../../../components/utility/EnhancedFlashDataset/Src/efd_kv.c:363:13
	cbz	r6, .LBB26_5
.Ltmp590:
@ %bb.2:                                @   in Loop: Header=BB26_1 Depth=1
	@DEBUG_VALUE: update_env_cache:min_activity_index <- $r12
	@DEBUG_VALUE: update_env_cache:addr <- $r8
	@DEBUG_VALUE: update_env_cache:i <- $r5
	@DEBUG_VALUE: update_env_cache:empty_index <- $r4
	@DEBUG_VALUE: update_env_cache:min_activity <- $r3
	@DEBUG_VALUE: update_env_cache:name_crc <- [DW_OP_LLVM_convert 32 7, DW_OP_LLVM_convert 16 7, DW_OP_stack_value] $r0
	.loc	2 366 17                        @ ../../../components/utility/EnhancedFlashDataset/Src/efd_kv.c:366:17
	cmp	r0, r1
	add.w	r7, lr, r5, lsl #3
	beq	.LBB26_10
.Ltmp591:
@ %bb.3:                                @   in Loop: Header=BB26_1 Depth=1
	@DEBUG_VALUE: update_env_cache:min_activity_index <- $r12
	@DEBUG_VALUE: update_env_cache:addr <- $r8
	@DEBUG_VALUE: update_env_cache:i <- $r5
	@DEBUG_VALUE: update_env_cache:empty_index <- $r4
	@DEBUG_VALUE: update_env_cache:min_activity <- $r3
	@DEBUG_VALUE: update_env_cache:name_crc <- [DW_OP_LLVM_convert 32 7, DW_OP_LLVM_convert 16 7, DW_OP_stack_value] $r0
	.loc	2 371 42                        @ ../../../components/utility/EnhancedFlashDataset/Src/efd_kv.c:371:42
	ldr	r2, [r7, #4]
	eor	r1, r4, #256
	.loc	2 371 63 is_stmt 0              @ ../../../components/utility/EnhancedFlashDataset/Src/efd_kv.c:371:63
	orn	r1, r1, r2
	cmp	r1, #0
	mov	r1, r4
	it	eq
	moveq	r1, r5
	adds	r2, #1
	beq	.LBB26_6
.Ltmp592:
@ %bb.4:                                @   in Loop: Header=BB26_1 Depth=1
	@DEBUG_VALUE: update_env_cache:min_activity_index <- $r12
	@DEBUG_VALUE: update_env_cache:addr <- $r8
	@DEBUG_VALUE: update_env_cache:i <- $r5
	@DEBUG_VALUE: update_env_cache:empty_index <- $r4
	@DEBUG_VALUE: update_env_cache:min_activity <- $r3
	@DEBUG_VALUE: update_env_cache:name_crc <- [DW_OP_LLVM_convert 32 7, DW_OP_LLVM_convert 16 7, DW_OP_stack_value] $r0
	.loc	2 377 40 is_stmt 1              @ ../../../components/utility/EnhancedFlashDataset/Src/efd_kv.c:377:40
	ldrh	r1, [r7, #2]
.Ltmp593:
	.loc	2 381 47                        @ ../../../components/utility/EnhancedFlashDataset/Src/efd_kv.c:381:47
	uxth	r2, r3
.Ltmp594:
	.loc	2 377 21                        @ ../../../components/utility/EnhancedFlashDataset/Src/efd_kv.c:377:21
	cmp	r1, #0
.Ltmp595:
	.loc	2 379 46                        @ ../../../components/utility/EnhancedFlashDataset/Src/efd_kv.c:379:46
	itte	ne
	subne	r1, #1
	strhne	r1, [r7, #2]
	moveq	r1, #0
.Ltmp596:
	.loc	2 381 47                        @ ../../../components/utility/EnhancedFlashDataset/Src/efd_kv.c:381:47
	uxth	r7, r1
.Ltmp597:
	.loc	2 381 21 is_stmt 0              @ ../../../components/utility/EnhancedFlashDataset/Src/efd_kv.c:381:21
	cmp	r7, r2
	itt	lo
	movlo	r12, r5
.Ltmp598:
	movlo	r3, r1
.Ltmp599:
	.loc	2 0 21                          @ ../../../components/utility/EnhancedFlashDataset/Src/efd_kv.c:0:21
	b	.LBB26_7
.Ltmp600:
	.p2align	2
.LBB26_5:                               @   in Loop: Header=BB26_1 Depth=1
	@DEBUG_VALUE: update_env_cache:min_activity_index <- $r12
	@DEBUG_VALUE: update_env_cache:addr <- $r8
	@DEBUG_VALUE: update_env_cache:i <- $r5
	@DEBUG_VALUE: update_env_cache:empty_index <- $r4
	@DEBUG_VALUE: update_env_cache:min_activity <- $r3
	@DEBUG_VALUE: update_env_cache:name_crc <- [DW_OP_LLVM_convert 32 7, DW_OP_LLVM_convert 16 7, DW_OP_stack_value] $r0
	.loc	2 388 18 is_stmt 1              @ ../../../components/utility/EnhancedFlashDataset/Src/efd_kv.c:388:18
	cmp	r0, r1
	bne	.LBB26_7
	b	.LBB26_14
.Ltmp601:
	.p2align	2
.LBB26_6:                               @   in Loop: Header=BB26_1 Depth=1
	@DEBUG_VALUE: update_env_cache:min_activity_index <- $r12
	@DEBUG_VALUE: update_env_cache:addr <- $r8
	@DEBUG_VALUE: update_env_cache:i <- $r5
	@DEBUG_VALUE: update_env_cache:empty_index <- $r4
	@DEBUG_VALUE: update_env_cache:min_activity <- $r3
	@DEBUG_VALUE: update_env_cache:name_crc <- [DW_OP_LLVM_convert 32 7, DW_OP_LLVM_convert 16 7, DW_OP_stack_value] $r0
	.loc	2 0 0 is_stmt 0                 @ ../../../components/utility/EnhancedFlashDataset/Src/efd_kv.c:0:0
	mov	r4, r1
.Ltmp602:
.LBB26_7:                               @   in Loop: Header=BB26_1 Depth=1
	@DEBUG_VALUE: update_env_cache:addr <- $r8
	@DEBUG_VALUE: update_env_cache:i <- $r5
	@DEBUG_VALUE: update_env_cache:name_crc <- [DW_OP_LLVM_convert 32 7, DW_OP_LLVM_convert 16 7, DW_OP_stack_value] $r0
	@DEBUG_VALUE: update_env_cache:empty_index <- $r4
	@DEBUG_VALUE: update_env_cache:min_activity_index <- $r12
	@DEBUG_VALUE: update_env_cache:min_activity <- $r3
	.loc	2 361 48 is_stmt 1              @ ../../../components/utility/EnhancedFlashDataset/Src/efd_kv.c:361:48
	adds	r5, #1
.Ltmp603:
	@DEBUG_VALUE: update_env_cache:i <- $r5
	.loc	2 361 5 is_stmt 0               @ ../../../components/utility/EnhancedFlashDataset/Src/efd_kv.c:361:5
	cmp.w	r5, #256
	bne	.LBB26_1
.Ltmp604:
@ %bb.8:
	@DEBUG_VALUE: update_env_cache:min_activity_index <- $r12
	@DEBUG_VALUE: update_env_cache:addr <- $r8
	@DEBUG_VALUE: update_env_cache:i <- $r5
	@DEBUG_VALUE: update_env_cache:empty_index <- $r4
	@DEBUG_VALUE: update_env_cache:min_activity <- $r3
	@DEBUG_VALUE: update_env_cache:name_crc <- [DW_OP_LLVM_convert 32 7, DW_OP_LLVM_convert 16 7, DW_OP_stack_value] $r0
	.loc	2 397 9 is_stmt 1               @ ../../../components/utility/EnhancedFlashDataset/Src/efd_kv.c:397:9
	cmp	r4, #255
	bhi	.LBB26_11
.Ltmp605:
@ %bb.9:
	@DEBUG_VALUE: update_env_cache:min_activity_index <- $r12
	@DEBUG_VALUE: update_env_cache:addr <- $r8
	@DEBUG_VALUE: update_env_cache:i <- $r5
	@DEBUG_VALUE: update_env_cache:empty_index <- $r4
	@DEBUG_VALUE: update_env_cache:min_activity <- $r3
	@DEBUG_VALUE: update_env_cache:name_crc <- [DW_OP_LLVM_convert 32 7, DW_OP_LLVM_convert 16 7, DW_OP_stack_value] $r0
	.loc	2 399 38                        @ ../../../components/utility/EnhancedFlashDataset/Src/efd_kv.c:399:38
	add.w	r1, lr, r4, lsl #3
	.loc	2 399 47 is_stmt 0              @ ../../../components/utility/EnhancedFlashDataset/Src/efd_kv.c:399:47
	str.w	r8, [r1, #4]
	.loc	2 400 47 is_stmt 1              @ ../../../components/utility/EnhancedFlashDataset/Src/efd_kv.c:400:47
	strh.w	r0, [lr, r4, lsl #3]
	b	.LBB26_13
.Ltmp606:
.LBB26_10:
	@DEBUG_VALUE: update_env_cache:min_activity_index <- $r12
	@DEBUG_VALUE: update_env_cache:addr <- $r8
	@DEBUG_VALUE: update_env_cache:i <- $r5
	@DEBUG_VALUE: update_env_cache:empty_index <- $r4
	@DEBUG_VALUE: update_env_cache:min_activity <- $r3
	@DEBUG_VALUE: update_env_cache:name_crc <- [DW_OP_LLVM_convert 32 7, DW_OP_LLVM_convert 16 7, DW_OP_stack_value] $r0
	.loc	2 368 41                        @ ../../../components/utility/EnhancedFlashDataset/Src/efd_kv.c:368:41
	str.w	r8, [r7, #4]
.Ltmp607:
	.loc	2 409 1                         @ ../../../components/utility/EnhancedFlashDataset/Src/efd_kv.c:409:1
	pop.w	{r4, r5, r6, r7, r8, pc}
.Ltmp608:
.LBB26_11:
	@DEBUG_VALUE: update_env_cache:min_activity_index <- $r12
	@DEBUG_VALUE: update_env_cache:addr <- $r8
	@DEBUG_VALUE: update_env_cache:i <- $r5
	@DEBUG_VALUE: update_env_cache:empty_index <- $r4
	@DEBUG_VALUE: update_env_cache:min_activity <- $r3
	@DEBUG_VALUE: update_env_cache:name_crc <- [DW_OP_LLVM_convert 32 7, DW_OP_LLVM_convert 16 7, DW_OP_stack_value] $r0
	.loc	2 403 14                        @ ../../../components/utility/EnhancedFlashDataset/Src/efd_kv.c:403:14
	cmp.w	r12, #255
.Ltmp609:
	.loc	2 409 1                         @ ../../../components/utility/EnhancedFlashDataset/Src/efd_kv.c:409:1
	it	hi
	pophi.w	{r4, r5, r6, r7, r8, pc}
.Ltmp610:
.LBB26_12:
	@DEBUG_VALUE: update_env_cache:min_activity_index <- $r12
	@DEBUG_VALUE: update_env_cache:min_activity <- $r3
	@DEBUG_VALUE: update_env_cache:name_crc <- [DW_OP_LLVM_convert 32 7, DW_OP_LLVM_convert 16 7, DW_OP_stack_value] $r0
	.loc	2 405 45                        @ ../../../components/utility/EnhancedFlashDataset/Src/efd_kv.c:405:45
	add.w	r1, lr, r12, lsl #3
	.loc	2 405 54 is_stmt 0              @ ../../../components/utility/EnhancedFlashDataset/Src/efd_kv.c:405:54
	str.w	r8, [r1, #4]
	.loc	2 406 54 is_stmt 1              @ ../../../components/utility/EnhancedFlashDataset/Src/efd_kv.c:406:54
	strh.w	r0, [lr, r12, lsl #3]
.Ltmp611:
.LBB26_13:
	@DEBUG_VALUE: update_env_cache:min_activity_index <- $r12
	@DEBUG_VALUE: update_env_cache:min_activity <- $r3
	@DEBUG_VALUE: update_env_cache:name_crc <- [DW_OP_LLVM_convert 32 7, DW_OP_LLVM_convert 16 7, DW_OP_stack_value] $r0
	.loc	2 0 54 is_stmt 0                @ ../../../components/utility/EnhancedFlashDataset/Src/efd_kv.c:0:54
	movs	r0, #0
.Ltmp612:
	strh	r0, [r1, #2]
.Ltmp613:
	.loc	2 409 1 is_stmt 1               @ ../../../components/utility/EnhancedFlashDataset/Src/efd_kv.c:409:1
	pop.w	{r4, r5, r6, r7, r8, pc}
.Ltmp614:
.LBB26_14:
	@DEBUG_VALUE: update_env_cache:min_activity_index <- $r12
	@DEBUG_VALUE: update_env_cache:addr <- $r8
	@DEBUG_VALUE: update_env_cache:i <- $r5
	@DEBUG_VALUE: update_env_cache:empty_index <- $r4
	@DEBUG_VALUE: update_env_cache:min_activity <- $r3
	@DEBUG_VALUE: update_env_cache:name_crc <- [DW_OP_LLVM_convert 32 7, DW_OP_LLVM_convert 16 7, DW_OP_stack_value] $r0
	.loc	2 391 39                        @ ../../../components/utility/EnhancedFlashDataset/Src/efd_kv.c:391:39
	add.w	r0, lr, r5, lsl #3
.Ltmp615:
	.loc	2 0 39 is_stmt 0                @ ../../../components/utility/EnhancedFlashDataset/Src/efd_kv.c:0:39
	mov.w	r1, #-1
	.loc	2 391 39                        @ ../../../components/utility/EnhancedFlashDataset/Src/efd_kv.c:391:39
	str	r1, [r0, #4]
	movs	r1, #0
	.loc	2 392 39 is_stmt 1              @ ../../../components/utility/EnhancedFlashDataset/Src/efd_kv.c:392:39
	strh	r1, [r0, #2]
.Ltmp616:
	.loc	2 409 1                         @ ../../../components/utility/EnhancedFlashDataset/Src/efd_kv.c:409:1
	pop.w	{r4, r5, r6, r7, r8, pc}
.Ltmp617:
.Lfunc_end26:
	.size	update_env_cache, .Lfunc_end26-update_env_cache
	.cfi_endproc
	.cantunwind
	.fnend
                                        @ -- End function
	.section	.text.find_env_cb,"ax",%progbits
	.p2align	1                               @ -- Begin function find_env_cb
	.type	find_env_cb,%function
	.code	16                              @ @find_env_cb
	.thumb_func
find_env_cb:
.Lfunc_begin27:
	.loc	2 795 0                         @ ../../../components/utility/EnhancedFlashDataset/Src/efd_kv.c:795:0
	.fnstart
	.cfi_startproc
@ %bb.0:
	@DEBUG_VALUE: find_env_cb:env <- $r0
	@DEBUG_VALUE: find_env_cb:arg1 <- $r1
	@DEBUG_VALUE: find_env_cb:arg2 <- $r2
	.save	{r4, r5, r6, lr}
	push	{r4, r5, r6, lr}
	.cfi_def_cfa_offset 16
	.cfi_offset lr, -4
	.cfi_offset r6, -8
	.cfi_offset r5, -12
	.cfi_offset r4, -16
.Ltmp618:
	@DEBUG_VALUE: find_env_cb:key <- $r1
	@DEBUG_VALUE: find_env_cb:find_ok <- $r2
	mov	r6, r0
.Ltmp619:
	@DEBUG_VALUE: find_env_cb:env <- $r6
	@DEBUG_VALUE: find_env_cb:find_ok <- $r4
	@DEBUG_VALUE: find_env_cb:key <- $r5
	@DEBUG_VALUE: find_env_cb:arg2 <- $r4
	@DEBUG_VALUE: find_env_cb:arg1 <- $r5
	@DEBUG_VALUE: find_env_cb:env <- $r6
	.loc	2 798 24 prologue_end           @ ../../../components/utility/EnhancedFlashDataset/Src/efd_kv.c:798:24
	mov	r0, r1
	mov	r4, r2
.Ltmp620:
	.loc	2 0 24 is_stmt 0                @ ../../../components/utility/EnhancedFlashDataset/Src/efd_kv.c:0:24
	mov	r5, r1
.Ltmp621:
	.loc	2 798 24                        @ ../../../components/utility/EnhancedFlashDataset/Src/efd_kv.c:798:24
	bl	strlen
.Ltmp622:
	.loc	2 800 25 is_stmt 1              @ ../../../components/utility/EnhancedFlashDataset/Src/efd_kv.c:800:25
	ldrb	r1, [r6, #5]
.Ltmp623:
	@DEBUG_VALUE: find_env_cb:key_len <- $r0
	.loc	2 800 9 is_stmt 0               @ ../../../components/utility/EnhancedFlashDataset/Src/efd_kv.c:800:9
	cmp	r0, r1
	bne	.LBB27_4
.Ltmp624:
@ %bb.1:
	@DEBUG_VALUE: find_env_cb:env <- $r6
	@DEBUG_VALUE: find_env_cb:key_len <- $r0
	.loc	2 0 0                           @ ../../../components/utility/EnhancedFlashDataset/Src/efd_kv.c:0:0
	mov	r2, r0
.Ltmp625:
	@DEBUG_VALUE: find_env_cb:key_len <- $r2
	.loc	2 805 14 is_stmt 1              @ ../../../components/utility/EnhancedFlashDataset/Src/efd_kv.c:805:14
	ldrb	r0, [r6, #4]
	.loc	2 805 24 is_stmt 0              @ ../../../components/utility/EnhancedFlashDataset/Src/efd_kv.c:805:24
	cbz	r0, .LBB27_4
.Ltmp626:
@ %bb.2:
	@DEBUG_VALUE: find_env_cb:env <- $r6
	@DEBUG_VALUE: find_env_cb:key_len <- $r2
	.loc	2 805 32                        @ ../../../components/utility/EnhancedFlashDataset/Src/efd_kv.c:805:32
	ldr	r0, [r6]
	.loc	2 805 52                        @ ../../../components/utility/EnhancedFlashDataset/Src/efd_kv.c:805:52
	cmp	r0, #2
	bne	.LBB27_4
.Ltmp627:
@ %bb.3:
	@DEBUG_VALUE: find_env_cb:env <- $r6
	@DEBUG_VALUE: find_env_cb:key_len <- $r2
	.loc	2 805 63                        @ ../../../components/utility/EnhancedFlashDataset/Src/efd_kv.c:805:63
	add.w	r0, r6, #18
	.loc	2 805 56                        @ ../../../components/utility/EnhancedFlashDataset/Src/efd_kv.c:805:56
	mov	r1, r5
	bl	memcmp
.Ltmp628:
	.loc	2 805 9                         @ ../../../components/utility/EnhancedFlashDataset/Src/efd_kv.c:805:9
	cbz	r0, .LBB27_5
.Ltmp629:
.LBB27_4:
	@DEBUG_VALUE: find_env_cb:env <- $r6
	.loc	2 0 9                           @ ../../../components/utility/EnhancedFlashDataset/Src/efd_kv.c:0:9
	movs	r0, #0
	.loc	2 811 1 is_stmt 1               @ ../../../components/utility/EnhancedFlashDataset/Src/efd_kv.c:811:1
	pop	{r4, r5, r6, pc}
.Ltmp630:
.LBB27_5:
	@DEBUG_VALUE: find_env_cb:env <- $r6
	.loc	2 0 1 is_stmt 0                 @ ../../../components/utility/EnhancedFlashDataset/Src/efd_kv.c:0:1
	movs	r0, #1
.Ltmp631:
	.loc	2 807 18 is_stmt 1              @ ../../../components/utility/EnhancedFlashDataset/Src/efd_kv.c:807:18
	strb	r0, [r4]
.Ltmp632:
	.loc	2 811 1                         @ ../../../components/utility/EnhancedFlashDataset/Src/efd_kv.c:811:1
	pop	{r4, r5, r6, pc}
.Ltmp633:
.Lfunc_end27:
	.size	find_env_cb, .Lfunc_end27-find_env_cb
	.cfi_endproc
	.cantunwind
	.fnend
                                        @ -- End function
	.section	.text.new_env,"ax",%progbits
	.p2align	1                               @ -- Begin function new_env
	.type	new_env,%function
	.code	16                              @ @new_env
	.thumb_func
new_env:
.Lfunc_begin28:
	.loc	2 1346 0                        @ ../../../components/utility/EnhancedFlashDataset/Src/efd_kv.c:1346:0
	.fnstart
	.cfi_startproc
@ %bb.0:
	@DEBUG_VALUE: new_env:sector <- $r0
	@DEBUG_VALUE: new_env:env_size <- $r1
	.save	{r4, r5, r6, lr}
	push	{r4, r5, r6, lr}
	.cfi_def_cfa_offset 16
	.cfi_offset lr, -4
	.cfi_offset r6, -8
	.cfi_offset r5, -12
	.cfi_offset r4, -16
	mov	r4, r1
	mov	r5, r0
	@DEBUG_LABEL: new_env:__retry
.Ltmp634:
	@DEBUG_VALUE: new_env:empty_env <- -1
	@DEBUG_VALUE: new_env:already_gc <- undef
	@DEBUG_VALUE: new_env:env_size <- $r4
	@DEBUG_VALUE: new_env:sector <- $r5
	.loc	2 1352 22 prologue_end          @ ../../../components/utility/EnhancedFlashDataset/Src/efd_kv.c:1352:22
	bl	alloc_env
.Ltmp635:
	@DEBUG_VALUE: new_env:empty_env <- $r0
	.loc	2 1352 66 is_stmt 0             @ ../../../components/utility/EnhancedFlashDataset/Src/efd_kv.c:1352:66
	adds	r1, r0, #1
	bne	.LBB28_5
.Ltmp636:
@ %bb.1:
	@DEBUG_VALUE: new_env:sector <- $r5
	@DEBUG_VALUE: new_env:env_size <- $r4
	@DEBUG_VALUE: new_env:empty_env <- $r0
	.loc	2 0 66                          @ ../../../components/utility/EnhancedFlashDataset/Src/efd_kv.c:0:66
	movw	r6, :lower16:gc_request
	movs	r1, #0
	movt	r6, :upper16:gc_request
.Ltmp637:
	.p2align	2
.LBB28_2:                               @ =>This Inner Loop Header: Depth=1
	@DEBUG_VALUE: new_env:empty_env <- $r0
	.loc	2 1352 80                       @ ../../../components/utility/EnhancedFlashDataset/Src/efd_kv.c:1352:80
	lsls	r0, r1, #31
.Ltmp638:
	.loc	2 0 80                          @ ../../../components/utility/EnhancedFlashDataset/Src/efd_kv.c:0:80
	mov.w	r0, #-1
	.loc	2 1352 80                       @ ../../../components/utility/EnhancedFlashDataset/Src/efd_kv.c:1352:80
	bne	.LBB28_5
@ %bb.3:                                @   in Loop: Header=BB28_2 Depth=1
	.loc	2 0 0                           @ ../../../components/utility/EnhancedFlashDataset/Src/efd_kv.c:0:0
	ldrb	r1, [r6]
	.loc	2 1352 80                       @ ../../../components/utility/EnhancedFlashDataset/Src/efd_kv.c:1352:80
	cmp	r1, #0
.Ltmp639:
	.loc	2 1360 5 is_stmt 1              @ ../../../components/utility/EnhancedFlashDataset/Src/efd_kv.c:1360:5
	it	eq
	popeq	{r4, r5, r6, pc}
.LBB28_4:                               @   in Loop: Header=BB28_2 Depth=1
.Ltmp640:
	.loc	2 1355 9                        @ ../../../components/utility/EnhancedFlashDataset/Src/efd_kv.c:1355:9
	bl	gc_collect
.Ltmp641:
	@DEBUG_LABEL: new_env:__retry
	@DEBUG_VALUE: new_env:already_gc <- undef
	.loc	2 1352 22                       @ ../../../components/utility/EnhancedFlashDataset/Src/efd_kv.c:1352:22
	mov	r0, r5
	mov	r1, r4
	bl	alloc_env
.Ltmp642:
	@DEBUG_VALUE: new_env:empty_env <- $r0
	.loc	2 1352 66 is_stmt 0             @ ../../../components/utility/EnhancedFlashDataset/Src/efd_kv.c:1352:66
	adds	r1, r0, #1
	mov.w	r1, #1
	beq	.LBB28_2
.Ltmp643:
.LBB28_5:
	.loc	2 1360 5 is_stmt 1              @ ../../../components/utility/EnhancedFlashDataset/Src/efd_kv.c:1360:5
	pop	{r4, r5, r6, pc}
.Ltmp644:
.Lfunc_end28:
	.size	new_env, .Lfunc_end28-new_env
	.cfi_endproc
	.cantunwind
	.fnend
                                        @ -- End function
	.section	.text.alloc_env,"ax",%progbits
	.p2align	1                               @ -- Begin function alloc_env
	.type	alloc_env,%function
	.code	16                              @ @alloc_env
	.thumb_func
alloc_env:
.Lfunc_begin29:
	.loc	2 1173 0                        @ ../../../components/utility/EnhancedFlashDataset/Src/efd_kv.c:1173:0
	.fnstart
	.cfi_startproc
@ %bb.0:
	@DEBUG_VALUE: alloc_env:sector <- $r0
	@DEBUG_VALUE: alloc_env:env_size <- $r1
	@DEBUG_VALUE: alloc_env:env_size <- $r1
	.save	{r4, r5, r6, lr}
	push	{r4, r5, r6, lr}
	.cfi_def_cfa_offset 16
	.cfi_offset lr, -4
	.cfi_offset r6, -8
	.cfi_offset r5, -12
	.cfi_offset r4, -16
	.pad	#24
	sub	sp, #24
	.cfi_def_cfa_offset 40
	mov	r4, r0
.Ltmp645:
	@DEBUG_VALUE: alloc_env:sector <- $r4
	.loc	2 1178 5 prologue_end           @ ../../../components/utility/EnhancedFlashDataset/Src/efd_kv.c:1178:5
	movw	r0, :lower16:sector_statistics_cb
	movt	r0, :upper16:sector_statistics_cb
	str	r1, [sp, #20]
	mov.w	r5, #-1
.Ltmp646:
	@DEBUG_VALUE: alloc_env:empty_env <- -1
	@DEBUG_VALUE: alloc_env:sector <- $r4
	.loc	2 0 5 is_stmt 0                 @ ../../../components/utility/EnhancedFlashDataset/Src/efd_kv.c:0:5
	movs	r6, #0
.Ltmp647:
	@DEBUG_VALUE: alloc_env:empty_sector <- 0
	@DEBUG_VALUE: alloc_env:using_sector <- 0
	.loc	2 1178 5                        @ ../../../components/utility/EnhancedFlashDataset/Src/efd_kv.c:1178:5
	str	r0, [sp]
	add	r2, sp, #12
	add	r3, sp, #8
	mov	r0, r4
	movs	r1, #0
.Ltmp648:
	@DEBUG_VALUE: alloc_env:env_size <- [DW_OP_LLVM_entry_value 1] $r1
	.loc	2 1174 14 is_stmt 1             @ ../../../components/utility/EnhancedFlashDataset/Src/efd_kv.c:1174:14
	str	r5, [sp, #16]
	.loc	2 1175 30                       @ ../../../components/utility/EnhancedFlashDataset/Src/efd_kv.c:1175:30
	strd	r6, r6, [sp, #8]
.Ltmp649:
	@DEBUG_VALUE: alloc_env:using_sector <- [DW_OP_plus_uconst 8, DW_OP_deref] $sp
	@DEBUG_VALUE: alloc_env:empty_sector <- [DW_OP_plus_uconst 12, DW_OP_deref] $sp
	.loc	2 1178 5                        @ ../../../components/utility/EnhancedFlashDataset/Src/efd_kv.c:1178:5
	str	r6, [sp, #4]
	bl	sector_iterator
.Ltmp650:
	.loc	2 1179 9                        @ ../../../components/utility/EnhancedFlashDataset/Src/efd_kv.c:1179:9
	ldr	r0, [sp, #8]
.Ltmp651:
	@DEBUG_VALUE: alloc_env:using_sector <- $r0
	.loc	2 0 9 is_stmt 0                 @ ../../../components/utility/EnhancedFlashDataset/Src/efd_kv.c:0:9
	movw	r6, :lower16:alloc_env_cb
	movt	r6, :upper16:alloc_env_cb
.Ltmp652:
	.loc	2 1179 9                        @ ../../../components/utility/EnhancedFlashDataset/Src/efd_kv.c:1179:9
	cbz	r0, .LBB29_2
.Ltmp653:
@ %bb.1:
	@DEBUG_VALUE: alloc_env:sector <- $r4
	@DEBUG_VALUE: alloc_env:using_sector <- $r0
	@DEBUG_VALUE: alloc_env:empty_sector <- [DW_OP_plus_uconst 12, DW_OP_deref] $sp
	@DEBUG_VALUE: alloc_env:env_size <- [DW_OP_LLVM_entry_value 1] $r1
	@DEBUG_VALUE: alloc_env:empty_env <- -1
	@DEBUG_VALUE: alloc_env:env_size <- [DW_OP_plus_uconst 20, DW_OP_deref] $sp
	@DEBUG_VALUE: alloc_env:empty_env <- [DW_OP_plus_uconst 16, DW_OP_deref] $sp
	.loc	2 0 9                           @ ../../../components/utility/EnhancedFlashDataset/Src/efd_kv.c:0:9
	movs	r0, #1
.Ltmp654:
	.loc	2 1182 9 is_stmt 1              @ ../../../components/utility/EnhancedFlashDataset/Src/efd_kv.c:1182:9
	str	r0, [sp, #4]
	add	r2, sp, #20
	add	r3, sp, #16
	mov	r0, r4
	movs	r1, #2
	str	r6, [sp]
	bl	sector_iterator
.Ltmp655:
	.loc	2 0 9 is_stmt 0                 @ ../../../components/utility/EnhancedFlashDataset/Src/efd_kv.c:0:9
	ldr	r5, [sp, #16]
.Ltmp656:
.LBB29_2:
	@DEBUG_VALUE: alloc_env:sector <- $r4
	@DEBUG_VALUE: alloc_env:empty_sector <- [DW_OP_plus_uconst 12, DW_OP_deref] $sp
	.loc	2 1184 9 is_stmt 1              @ ../../../components/utility/EnhancedFlashDataset/Src/efd_kv.c:1184:9
	ldr	r0, [sp, #12]
.Ltmp657:
	@DEBUG_VALUE: alloc_env:empty_sector <- $r0
	@DEBUG_VALUE: alloc_env:empty_env <- $r5
	.loc	2 1184 26 is_stmt 0             @ ../../../components/utility/EnhancedFlashDataset/Src/efd_kv.c:1184:26
	cbz	r0, .LBB29_8
.Ltmp658:
@ %bb.3:
	@DEBUG_VALUE: alloc_env:empty_env <- $r5
	@DEBUG_VALUE: alloc_env:sector <- $r4
	@DEBUG_VALUE: alloc_env:empty_sector <- $r0
	adds	r1, r5, #1
	bne	.LBB29_8
.Ltmp659:
@ %bb.4:
	@DEBUG_VALUE: alloc_env:empty_env <- $r5
	@DEBUG_VALUE: alloc_env:sector <- $r4
	@DEBUG_VALUE: alloc_env:empty_sector <- $r0
	.loc	2 1186 55 is_stmt 1             @ ../../../components/utility/EnhancedFlashDataset/Src/efd_kv.c:1186:55
	cmp	r0, #2
	bhi	.LBB29_6
.Ltmp660:
@ %bb.5:
	@DEBUG_VALUE: alloc_env:empty_env <- $r5
	@DEBUG_VALUE: alloc_env:sector <- $r4
	@DEBUG_VALUE: alloc_env:empty_sector <- $r0
	.loc	2 1186 58 is_stmt 0             @ ../../../components/utility/EnhancedFlashDataset/Src/efd_kv.c:1186:58
	movw	r0, :lower16:gc_request
.Ltmp661:
	movt	r0, :upper16:gc_request
	ldrb	r1, [r0]
.Ltmp662:
	.loc	2 1186 13                       @ ../../../components/utility/EnhancedFlashDataset/Src/efd_kv.c:1186:13
	cmp	r1, #1
	bne	.LBB29_7
.Ltmp663:
.LBB29_6:
	@DEBUG_VALUE: alloc_env:empty_env <- $r5
	@DEBUG_VALUE: alloc_env:sector <- $r4
	@DEBUG_VALUE: alloc_env:env_size <- [DW_OP_plus_uconst 20, DW_OP_deref] $sp
	@DEBUG_VALUE: alloc_env:empty_env <- [DW_OP_plus_uconst 16, DW_OP_deref] $sp
	.loc	2 0 13                          @ ../../../components/utility/EnhancedFlashDataset/Src/efd_kv.c:0:13
	movs	r5, #1
	add	r2, sp, #20
	add	r3, sp, #16
.Ltmp664:
	.loc	2 1188 13 is_stmt 1             @ ../../../components/utility/EnhancedFlashDataset/Src/efd_kv.c:1188:13
	mov	r0, r4
	movs	r1, #1
	str	r6, [sp]
	str	r5, [sp, #4]
	bl	sector_iterator
.Ltmp665:
	.loc	2 1198 12                       @ ../../../components/utility/EnhancedFlashDataset/Src/efd_kv.c:1198:12
	ldr	r5, [sp, #16]
	b	.LBB29_8
.Ltmp666:
.LBB29_7:
	@DEBUG_VALUE: alloc_env:empty_env <- $r5
	@DEBUG_VALUE: alloc_env:sector <- $r4
	.loc	2 0 12 is_stmt 0                @ ../../../components/utility/EnhancedFlashDataset/Src/efd_kv.c:0:12
	movs	r1, #1
	mov.w	r5, #-1
.Ltmp667:
	.loc	2 1194 24 is_stmt 1             @ ../../../components/utility/EnhancedFlashDataset/Src/efd_kv.c:1194:24
	strb	r1, [r0]
.Ltmp668:
.LBB29_8:
	@DEBUG_VALUE: alloc_env:sector <- $r4
	@DEBUG_VALUE: alloc_env:empty_env <- $r5
	.loc	2 1198 5                        @ ../../../components/utility/EnhancedFlashDataset/Src/efd_kv.c:1198:5
	mov	r0, r5
	add	sp, #24
	pop	{r4, r5, r6, pc}
.Ltmp669:
.Lfunc_end29:
	.size	alloc_env, .Lfunc_end29-alloc_env
	.cfi_endproc
	.cantunwind
	.fnend
                                        @ -- End function
	.section	.text.sector_statistics_cb,"ax",%progbits
	.p2align	1                               @ -- Begin function sector_statistics_cb
	.type	sector_statistics_cb,%function
	.code	16                              @ @sector_statistics_cb
	.thumb_func
sector_statistics_cb:
.Lfunc_begin30:
	.loc	2 1139 0                        @ ../../../components/utility/EnhancedFlashDataset/Src/efd_kv.c:1139:0
	.fnstart
	.cfi_startproc
@ %bb.0:
	@DEBUG_VALUE: sector_statistics_cb:sector <- $r0
	@DEBUG_VALUE: sector_statistics_cb:sector <- $r0
	@DEBUG_VALUE: sector_statistics_cb:arg1 <- $r1
	@DEBUG_VALUE: sector_statistics_cb:arg2 <- $r2
	@DEBUG_VALUE: sector_statistics_cb:empty_sector <- $r1
	@DEBUG_VALUE: sector_statistics_cb:using_sector <- $r2
	.loc	2 1142 17 prologue_end          @ ../../../components/utility/EnhancedFlashDataset/Src/efd_kv.c:1142:17
	ldrb	r3, [r0]
	@DEBUG_VALUE: sector_statistics_cb:using_sector <- $r2
	@DEBUG_VALUE: sector_statistics_cb:arg2 <- $r2
	@DEBUG_VALUE: sector_statistics_cb:empty_sector <- $r1
	@DEBUG_VALUE: sector_statistics_cb:arg1 <- $r1
	.loc	2 1142 26 is_stmt 0             @ ../../../components/utility/EnhancedFlashDataset/Src/efd_kv.c:1142:26
	cbz	r3, .LBB30_5
.Ltmp670:
@ %bb.1:
	@DEBUG_VALUE: sector_statistics_cb:using_sector <- $r2
	@DEBUG_VALUE: sector_statistics_cb:arg2 <- $r2
	@DEBUG_VALUE: sector_statistics_cb:empty_sector <- $r1
	@DEBUG_VALUE: sector_statistics_cb:arg1 <- $r1
	@DEBUG_VALUE: sector_statistics_cb:sector <- $r0
	.loc	2 1142 44                       @ ../../../components/utility/EnhancedFlashDataset/Src/efd_kv.c:1142:44
	ldr.w	r0, [r0, #1]
.Ltmp671:
	@DEBUG_VALUE: sector_statistics_cb:sector <- [DW_OP_LLVM_entry_value 1] $r0
	.loc	2 1142 9                        @ ../../../components/utility/EnhancedFlashDataset/Src/efd_kv.c:1142:9
	cmp	r0, #2
	beq	.LBB30_4
.Ltmp672:
@ %bb.2:
	@DEBUG_VALUE: sector_statistics_cb:using_sector <- $r2
	@DEBUG_VALUE: sector_statistics_cb:arg2 <- $r2
	@DEBUG_VALUE: sector_statistics_cb:empty_sector <- $r1
	@DEBUG_VALUE: sector_statistics_cb:arg1 <- $r1
	@DEBUG_VALUE: sector_statistics_cb:sector <- [DW_OP_LLVM_entry_value 1] $r0
	cmp	r0, #1
	bne	.LBB30_5
.Ltmp673:
@ %bb.3:
	@DEBUG_VALUE: sector_statistics_cb:using_sector <- $r2
	@DEBUG_VALUE: sector_statistics_cb:arg2 <- $r2
	@DEBUG_VALUE: sector_statistics_cb:empty_sector <- $r1
	@DEBUG_VALUE: sector_statistics_cb:arg1 <- $r1
	@DEBUG_VALUE: sector_statistics_cb:sector <- [DW_OP_LLVM_entry_value 1] $r0
	.loc	2 1144 24 is_stmt 1             @ ../../../components/utility/EnhancedFlashDataset/Src/efd_kv.c:1144:24
	ldr	r0, [r1]
	adds	r0, #1
	str	r0, [r1]
	b	.LBB30_5
.Ltmp674:
.LBB30_4:
	@DEBUG_VALUE: sector_statistics_cb:using_sector <- $r2
	@DEBUG_VALUE: sector_statistics_cb:arg2 <- $r2
	@DEBUG_VALUE: sector_statistics_cb:empty_sector <- $r1
	@DEBUG_VALUE: sector_statistics_cb:arg1 <- $r1
	@DEBUG_VALUE: sector_statistics_cb:sector <- [DW_OP_LLVM_entry_value 1] $r0
	.loc	2 1148 24                       @ ../../../components/utility/EnhancedFlashDataset/Src/efd_kv.c:1148:24
	ldr	r0, [r2]
	adds	r0, #1
	str	r0, [r2]
.Ltmp675:
.LBB30_5:
	@DEBUG_VALUE: sector_statistics_cb:using_sector <- $r2
	@DEBUG_VALUE: sector_statistics_cb:arg2 <- $r2
	@DEBUG_VALUE: sector_statistics_cb:empty_sector <- $r1
	@DEBUG_VALUE: sector_statistics_cb:arg1 <- $r1
	.loc	2 1151 5                        @ ../../../components/utility/EnhancedFlashDataset/Src/efd_kv.c:1151:5
	movs	r0, #0
	bx	lr
.Ltmp676:
.Lfunc_end30:
	.size	sector_statistics_cb, .Lfunc_end30-sector_statistics_cb
	.cfi_endproc
	.cantunwind
	.fnend
                                        @ -- End function
	.section	.text.alloc_env_cb,"ax",%progbits
	.p2align	1                               @ -- Begin function alloc_env_cb
	.type	alloc_env_cb,%function
	.code	16                              @ @alloc_env_cb
	.thumb_func
alloc_env_cb:
.Lfunc_begin31:
	.loc	2 1155 0                        @ ../../../components/utility/EnhancedFlashDataset/Src/efd_kv.c:1155:0
	.fnstart
	.cfi_startproc
@ %bb.0:
	@DEBUG_VALUE: alloc_env_cb:sector <- $r0
	@DEBUG_VALUE: alloc_env_cb:sector <- $r0
	@DEBUG_VALUE: alloc_env_cb:arg1 <- $r1
	@DEBUG_VALUE: alloc_env_cb:arg2 <- $r2
	@DEBUG_VALUE: alloc_env_cb:env_size <- $r1
	@DEBUG_VALUE: alloc_env_cb:empty_env <- $r2
	.loc	2 1162 17 prologue_end          @ ../../../components/utility/EnhancedFlashDataset/Src/efd_kv.c:1162:17
	ldrb	r3, [r0]
	@DEBUG_VALUE: alloc_env_cb:empty_env <- $r2
	@DEBUG_VALUE: alloc_env_cb:arg2 <- $r2
	@DEBUG_VALUE: alloc_env_cb:env_size <- $r1
	@DEBUG_VALUE: alloc_env_cb:arg1 <- $r1
	.loc	2 1162 26 is_stmt 0             @ ../../../components/utility/EnhancedFlashDataset/Src/efd_kv.c:1162:26
	cbz	r3, .LBB31_5
.Ltmp677:
@ %bb.1:
	@DEBUG_VALUE: alloc_env_cb:empty_env <- $r2
	@DEBUG_VALUE: alloc_env_cb:arg2 <- $r2
	@DEBUG_VALUE: alloc_env_cb:env_size <- $r1
	@DEBUG_VALUE: alloc_env_cb:arg1 <- $r1
	@DEBUG_VALUE: alloc_env_cb:sector <- $r0
	@DEBUG_VALUE: alloc_env_cb:env_size <- $r1
	.loc	2 1162 37                       @ ../../../components/utility/EnhancedFlashDataset/Src/efd_kv.c:1162:37
	ldr.w	r3, [r0, #21]
	.loc	2 1162 46                       @ ../../../components/utility/EnhancedFlashDataset/Src/efd_kv.c:1162:46
	ldr	r1, [r1]
.Ltmp678:
	@DEBUG_VALUE: alloc_env_cb:arg1 <- [DW_OP_LLVM_entry_value 1] $r1
	.loc	2 1162 56                       @ ../../../components/utility/EnhancedFlashDataset/Src/efd_kv.c:1162:56
	cmp	r3, r1
	bls	.LBB31_5
.Ltmp679:
@ %bb.2:
	@DEBUG_VALUE: alloc_env_cb:empty_env <- $r2
	@DEBUG_VALUE: alloc_env_cb:arg2 <- $r2
	@DEBUG_VALUE: alloc_env_cb:sector <- $r0
	@DEBUG_VALUE: alloc_env_cb:arg1 <- [DW_OP_LLVM_entry_value 1] $r1
	.loc	2 1163 26 is_stmt 1             @ ../../../components/utility/EnhancedFlashDataset/Src/efd_kv.c:1163:26
	ldr.w	r1, [r0, #5]
	.loc	2 1163 55 is_stmt 0             @ ../../../components/utility/EnhancedFlashDataset/Src/efd_kv.c:1163:55
	cmp	r1, #1
	beq	.LBB31_6
.Ltmp680:
@ %bb.3:
	@DEBUG_VALUE: alloc_env_cb:empty_env <- $r2
	@DEBUG_VALUE: alloc_env_cb:arg2 <- $r2
	@DEBUG_VALUE: alloc_env_cb:sector <- $r0
	@DEBUG_VALUE: alloc_env_cb:arg1 <- [DW_OP_LLVM_entry_value 1] $r1
	cmp	r1, #2
	bne	.LBB31_5
.Ltmp681:
@ %bb.4:
	@DEBUG_VALUE: alloc_env_cb:empty_env <- $r2
	@DEBUG_VALUE: alloc_env_cb:arg2 <- $r2
	@DEBUG_VALUE: alloc_env_cb:sector <- $r0
	@DEBUG_VALUE: alloc_env_cb:arg1 <- [DW_OP_LLVM_entry_value 1] $r1
	.loc	2 1163 105                      @ ../../../components/utility/EnhancedFlashDataset/Src/efd_kv.c:1163:105
	movw	r1, :lower16:gc_request
	movt	r1, :upper16:gc_request
	ldrb	r1, [r1]
.Ltmp682:
	.loc	2 1162 9 is_stmt 1              @ ../../../components/utility/EnhancedFlashDataset/Src/efd_kv.c:1162:9
	cbz	r1, .LBB31_6
.Ltmp683:
.LBB31_5:
	@DEBUG_VALUE: alloc_env_cb:empty_env <- $r2
	@DEBUG_VALUE: alloc_env_cb:arg2 <- $r2
	@DEBUG_VALUE: alloc_env_cb:sector <- $r0
	.loc	2 0 9 is_stmt 0                 @ ../../../components/utility/EnhancedFlashDataset/Src/efd_kv.c:0:9
	movs	r0, #0
.Ltmp684:
	@DEBUG_VALUE: alloc_env_cb:sector <- [DW_OP_LLVM_entry_value 1] $r0
	.loc	2 1170 1 is_stmt 1              @ ../../../components/utility/EnhancedFlashDataset/Src/efd_kv.c:1170:1
	bx	lr
.Ltmp685:
.LBB31_6:
	@DEBUG_VALUE: alloc_env_cb:empty_env <- $r2
	@DEBUG_VALUE: alloc_env_cb:arg2 <- $r2
	@DEBUG_VALUE: alloc_env_cb:sector <- $r0
	@DEBUG_VALUE: alloc_env_cb:arg1 <- [DW_OP_LLVM_entry_value 1] $r1
	.loc	2 1165 30                       @ ../../../components/utility/EnhancedFlashDataset/Src/efd_kv.c:1165:30
	ldr.w	r0, [r0, #25]
.Ltmp686:
	@DEBUG_VALUE: alloc_env_cb:sector <- [DW_OP_LLVM_entry_value 1] $r0
	.loc	2 1165 20 is_stmt 0             @ ../../../components/utility/EnhancedFlashDataset/Src/efd_kv.c:1165:20
	str	r0, [r2]
	movs	r0, #1
.Ltmp687:
	.loc	2 1170 1 is_stmt 1              @ ../../../components/utility/EnhancedFlashDataset/Src/efd_kv.c:1170:1
	bx	lr
.Ltmp688:
.Lfunc_end31:
	.size	alloc_env_cb, .Lfunc_end31-alloc_env_cb
	.cfi_endproc
	.cantunwind
	.fnend
                                        @ -- End function
	.section	.text.update_sector_cache,"ax",%progbits
	.p2align	1                               @ -- Begin function update_sector_cache
	.type	update_sector_cache,%function
	.code	16                              @ @update_sector_cache
	.thumb_func
update_sector_cache:
.Lfunc_begin32:
	.loc	2 300 0                         @ ../../../components/utility/EnhancedFlashDataset/Src/efd_kv.c:300:0
	.fnstart
	.cfi_startproc
@ %bb.0:
	@DEBUG_VALUE: update_sector_cache:sec_addr <- $r0
	@DEBUG_VALUE: update_sector_cache:sec_addr <- $r0
	@DEBUG_VALUE: update_sector_cache:empty_addr <- $r1
	@DEBUG_VALUE: update_sector_cache:empty_addr <- $r1
	.save	{r4, r5, r7, lr}
	push	{r4, r5, r7, lr}
	.cfi_def_cfa_offset 16
	.cfi_offset lr, -4
	.cfi_offset r7, -8
	.cfi_offset r5, -12
	.cfi_offset r4, -16
.Ltmp689:
	@DEBUG_VALUE: update_sector_cache:empty_index <- 8
	@DEBUG_VALUE: update_sector_cache:i <- 0
	cmp	r1, r0
	mov.w	r3, #0
	add.w	r4, r0, #4096
	it	hi
	movhi	r3, #1
	cmp	r4, r1
	mov.w	r4, #0
	movw	r12, :lower16:sector_cache_table
	mov.w	r2, #0
	it	hi
	movhi	r4, #1
	and.w	lr, r3, r4
	movs	r3, #8
	movt	r12, :upper16:sector_cache_table
.Ltmp690:
	.p2align	2
.LBB32_1:                               @ =>This Inner Loop Header: Depth=1
	@DEBUG_VALUE: update_sector_cache:empty_addr <- $r1
	@DEBUG_VALUE: update_sector_cache:sec_addr <- $r0
	@DEBUG_VALUE: update_sector_cache:empty_index <- $r3
	@DEBUG_VALUE: update_sector_cache:i <- $r2
	.loc	2 0 0 prologue_end              @ ../../../components/utility/EnhancedFlashDataset/Src/efd_kv.c:0:0
	ldr.w	r4, [r12, r2, lsl #3]
	.loc	2 305 37                        @ ../../../components/utility/EnhancedFlashDataset/Src/efd_kv.c:305:37
	cmp.w	lr, #0
	beq	.LBB32_4
.Ltmp691:
@ %bb.2:                                @   in Loop: Header=BB32_1 Depth=1
	@DEBUG_VALUE: update_sector_cache:empty_index <- $r3
	@DEBUG_VALUE: update_sector_cache:i <- $r2
	@DEBUG_VALUE: update_sector_cache:empty_addr <- $r1
	@DEBUG_VALUE: update_sector_cache:sec_addr <- $r0
	.loc	2 308 17                        @ ../../../components/utility/EnhancedFlashDataset/Src/efd_kv.c:308:17
	cmp	r4, r0
	beq	.LBB32_7
.Ltmp692:
@ %bb.3:                                @   in Loop: Header=BB32_1 Depth=1
	@DEBUG_VALUE: update_sector_cache:empty_index <- $r3
	@DEBUG_VALUE: update_sector_cache:i <- $r2
	@DEBUG_VALUE: update_sector_cache:empty_addr <- $r1
	@DEBUG_VALUE: update_sector_cache:sec_addr <- $r0
	.loc	2 0 17 is_stmt 0                @ ../../../components/utility/EnhancedFlashDataset/Src/efd_kv.c:0:17
	eor	r5, r3, #8
.Ltmp693:
	.loc	2 314 66 is_stmt 1              @ ../../../components/utility/EnhancedFlashDataset/Src/efd_kv.c:314:66
	orn	r4, r5, r4
	cmp	r4, #0
	it	eq
	moveq	r3, r2
.Ltmp694:
	.loc	2 0 66 is_stmt 0                @ ../../../components/utility/EnhancedFlashDataset/Src/efd_kv.c:0:66
	b	.LBB32_5
.Ltmp695:
	.p2align	2
.LBB32_4:                               @   in Loop: Header=BB32_1 Depth=1
	@DEBUG_VALUE: update_sector_cache:empty_index <- $r3
	@DEBUG_VALUE: update_sector_cache:i <- $r2
	@DEBUG_VALUE: update_sector_cache:empty_addr <- $r1
	@DEBUG_VALUE: update_sector_cache:sec_addr <- $r0
	.loc	2 319 18 is_stmt 1              @ ../../../components/utility/EnhancedFlashDataset/Src/efd_kv.c:319:18
	cmp	r4, r0
	beq	.LBB32_8
.Ltmp696:
.LBB32_5:                               @   in Loop: Header=BB32_1 Depth=1
	@DEBUG_VALUE: update_sector_cache:i <- $r2
	@DEBUG_VALUE: update_sector_cache:empty_addr <- $r1
	@DEBUG_VALUE: update_sector_cache:sec_addr <- $r0
	@DEBUG_VALUE: update_sector_cache:empty_index <- $r3
	.loc	2 303 51                        @ ../../../components/utility/EnhancedFlashDataset/Src/efd_kv.c:303:51
	adds	r2, #1
.Ltmp697:
	@DEBUG_VALUE: update_sector_cache:i <- $r2
	.loc	2 303 5 is_stmt 0               @ ../../../components/utility/EnhancedFlashDataset/Src/efd_kv.c:303:5
	cmp	r2, #8
	bne	.LBB32_1
.Ltmp698:
@ %bb.6:
	@DEBUG_VALUE: update_sector_cache:empty_index <- $r3
	@DEBUG_VALUE: update_sector_cache:i <- $r2
	@DEBUG_VALUE: update_sector_cache:empty_addr <- $r1
	@DEBUG_VALUE: update_sector_cache:sec_addr <- $r0
	.loc	2 327 9 is_stmt 1               @ ../../../components/utility/EnhancedFlashDataset/Src/efd_kv.c:327:9
	cmp	r3, #7
.Ltmp699:
	.loc	2 329 41                        @ ../../../components/utility/EnhancedFlashDataset/Src/efd_kv.c:329:41
	ittt	ls
	addls.w	r2, r12, r3, lsl #3
.Ltmp700:
	.loc	2 329 52 is_stmt 0              @ ../../../components/utility/EnhancedFlashDataset/Src/efd_kv.c:329:52
	strls.w	r0, [r12, r3, lsl #3]
	.loc	2 330 52 is_stmt 1              @ ../../../components/utility/EnhancedFlashDataset/Src/efd_kv.c:330:52
	strls	r1, [r2, #4]
.Ltmp701:
	.loc	2 332 1                         @ ../../../components/utility/EnhancedFlashDataset/Src/efd_kv.c:332:1
	pop	{r4, r5, r7, pc}
.Ltmp702:
.LBB32_7:
	@DEBUG_VALUE: update_sector_cache:empty_index <- $r3
	@DEBUG_VALUE: update_sector_cache:i <- $r2
	@DEBUG_VALUE: update_sector_cache:empty_addr <- $r1
	@DEBUG_VALUE: update_sector_cache:sec_addr <- $r0
	.loc	2 310 50                        @ ../../../components/utility/EnhancedFlashDataset/Src/efd_kv.c:310:50
	add.w	r3, r12, r2, lsl #3
.Ltmp703:
	str.w	r0, [r12, r2, lsl #3]
	.loc	2 311 50                        @ ../../../components/utility/EnhancedFlashDataset/Src/efd_kv.c:311:50
	str	r1, [r3, #4]
.Ltmp704:
	.loc	2 332 1                         @ ../../../components/utility/EnhancedFlashDataset/Src/efd_kv.c:332:1
	pop	{r4, r5, r7, pc}
.Ltmp705:
.LBB32_8:
	@DEBUG_VALUE: update_sector_cache:empty_index <- $r3
	@DEBUG_VALUE: update_sector_cache:i <- $r2
	@DEBUG_VALUE: update_sector_cache:empty_addr <- $r1
	@DEBUG_VALUE: update_sector_cache:sec_addr <- $r0
	.loc	2 0 1 is_stmt 0                 @ ../../../components/utility/EnhancedFlashDataset/Src/efd_kv.c:0:1
	mov.w	r0, #-1
.Ltmp706:
	@DEBUG_VALUE: update_sector_cache:sec_addr <- [DW_OP_LLVM_entry_value 1] $r0
	.loc	2 322 40 is_stmt 1              @ ../../../components/utility/EnhancedFlashDataset/Src/efd_kv.c:322:40
	str.w	r0, [r12, r2, lsl #3]
.Ltmp707:
	.loc	2 332 1                         @ ../../../components/utility/EnhancedFlashDataset/Src/efd_kv.c:332:1
	pop	{r4, r5, r7, pc}
.Ltmp708:
.Lfunc_end32:
	.size	update_sector_cache, .Lfunc_end32-update_sector_cache
	.cfi_endproc
	.cantunwind
	.fnend
                                        @ -- End function
	.section	.text.update_sec_status,"ax",%progbits
	.p2align	1                               @ -- Begin function update_sec_status
	.type	update_sec_status,%function
	.code	16                              @ @update_sec_status
	.thumb_func
update_sec_status:
.Lfunc_begin33:
	.loc	2 1077 0                        @ ../../../components/utility/EnhancedFlashDataset/Src/efd_kv.c:1077:0
	.fnstart
	.cfi_startproc
@ %bb.0:
	@DEBUG_VALUE: update_sec_status:sector <- $r0
	@DEBUG_VALUE: update_sec_status:new_env_len <- $r1
	@DEBUG_VALUE: update_sec_status:is_full <- $r2
	.save	{r4, r5, r6, lr}
	push	{r4, r5, r6, lr}
	.cfi_def_cfa_offset 16
	.cfi_offset lr, -4
	.cfi_offset r6, -8
	.cfi_offset r5, -12
	.cfi_offset r4, -16
	.pad	#8
	sub	sp, #8
	.cfi_def_cfa_offset 24
	mov	r5, r0
.Ltmp709:
	@DEBUG_VALUE: update_sec_status:result <- 0
	@DEBUG_VALUE: update_sec_status:sector <- $r5
	.loc	2 1081 24 prologue_end          @ ../../../components/utility/EnhancedFlashDataset/Src/efd_kv.c:1081:24
	ldr.w	r0, [r0, #1]
.Ltmp710:
	@DEBUG_VALUE: update_sec_status:is_full <- $r2
	.loc	2 1081 9 is_stmt 0              @ ../../../components/utility/EnhancedFlashDataset/Src/efd_kv.c:1081:9
	cmp	r0, #2
	@DEBUG_VALUE: update_sec_status:new_env_len <- $r1
	beq	.LBB33_3
.Ltmp711:
@ %bb.1:
	@DEBUG_VALUE: update_sec_status:sector <- $r5
	@DEBUG_VALUE: update_sec_status:is_full <- $r2
	@DEBUG_VALUE: update_sec_status:new_env_len <- $r1
	@DEBUG_VALUE: update_sec_status:result <- 0
	cmp	r0, #1
	bne	.LBB33_7
.Ltmp712:
@ %bb.2:
	@DEBUG_VALUE: update_sec_status:sector <- $r5
	@DEBUG_VALUE: update_sec_status:is_full <- $r2
	@DEBUG_VALUE: update_sec_status:new_env_len <- $r1
	@DEBUG_VALUE: update_sec_status:result <- 0
	.loc	2 1084 39 is_stmt 1             @ ../../../components/utility/EnhancedFlashDataset/Src/efd_kv.c:1084:39
	ldr.w	r0, [r5, #9]
	mov.w	r1, #-1
.Ltmp713:
	@DEBUG_VALUE: update_sec_status:new_env_len <- [DW_OP_LLVM_entry_value 1] $r1
	@DEBUG_VALUE: set_status:byte_index <- -1
	@DEBUG_VALUE: set_status:status_index <- 2
	@DEBUG_VALUE: set_status:status_num <- 4
	@DEBUG_VALUE: write_status:result <- 0
	@DEBUG_VALUE: write_status:status_index <- 2
	@DEBUG_VALUE: write_status:status_num <- 4
	@DEBUG_VALUE: write_status:addr <- $r0
	.loc	2 220 5                         @ ../../../components/utility/EnhancedFlashDataset/Src/efd_kv.c:220:5
	strh.w	r1, [sp, #4]
	strb.w	r1, [sp, #6]
	add	r1, sp, #4
.Ltmp714:
	@DEBUG_VALUE: set_status:byte_index <- 1
	.loc	2 0 5 is_stmt 0                 @ ../../../components/utility/EnhancedFlashDataset/Src/efd_kv.c:0:5
	movs	r2, #0
.Ltmp715:
	@DEBUG_VALUE: update_sec_status:is_full <- [DW_OP_LLVM_entry_value 1] $r2
	.loc	2 228 9 is_stmt 1               @ ../../../components/utility/EnhancedFlashDataset/Src/efd_kv.c:228:9
	adds	r1, #1
	.loc	2 228 34 is_stmt 0              @ ../../../components/utility/EnhancedFlashDataset/Src/efd_kv.c:228:34
	strb.w	r2, [sp, #5]
.Ltmp716:
	@DEBUG_VALUE: write_status:byte_index <- 1
	.loc	2 280 34 is_stmt 1              @ ../../../components/utility/EnhancedFlashDataset/Src/efd_kv.c:280:34
	adds	r0, #1
.Ltmp717:
	.loc	2 280 14 is_stmt 0              @ ../../../components/utility/EnhancedFlashDataset/Src/efd_kv.c:280:14
	movs	r2, #1
	bl	efd_port_write
.Ltmp718:
	mov	r5, r0
.Ltmp719:
	@DEBUG_VALUE: set_status:status_table <- [DW_OP_plus_uconst 4, DW_OP_stack_value] $sp
	@DEBUG_VALUE: write_status:status_table <- [DW_OP_plus_uconst 4, DW_OP_stack_value] $sp
	@DEBUG_VALUE: write_status:result <- $r5
	@DEBUG_VALUE: update_sec_status:result <- $r5
	.loc	2 0 14                          @ ../../../components/utility/EnhancedFlashDataset/Src/efd_kv.c:0:14
	b	.LBB33_10
.Ltmp720:
.LBB33_3:
	@DEBUG_VALUE: update_sec_status:sector <- $r5
	@DEBUG_VALUE: update_sec_status:is_full <- $r2
	@DEBUG_VALUE: update_sec_status:new_env_len <- $r1
	@DEBUG_VALUE: update_sec_status:result <- 0
	.loc	2 1089 21 is_stmt 1             @ ../../../components/utility/EnhancedFlashDataset/Src/efd_kv.c:1089:21
	ldr.w	r0, [r5, #21]
	mov	r4, r2
.Ltmp721:
	@DEBUG_VALUE: update_sec_status:is_full <- $r4
	@DEBUG_VALUE: update_sec_status:is_full <- $r4
	.loc	2 1089 55 is_stmt 0             @ ../../../components/utility/EnhancedFlashDataset/Src/efd_kv.c:1089:55
	cmp	r0, #86
	blo	.LBB33_8
.Ltmp722:
@ %bb.4:
	@DEBUG_VALUE: update_sec_status:sector <- $r5
	@DEBUG_VALUE: update_sec_status:is_full <- $r4
	@DEBUG_VALUE: update_sec_status:new_env_len <- $r1
	@DEBUG_VALUE: update_sec_status:result <- 0
	.loc	2 0 55                          @ ../../../components/utility/EnhancedFlashDataset/Src/efd_kv.c:0:55
	subs	r0, r0, r1
	.loc	2 1089 55                       @ ../../../components/utility/EnhancedFlashDataset/Src/efd_kv.c:1089:55
	cmp	r0, #85
	bls	.LBB33_8
.Ltmp723:
@ %bb.5:
	@DEBUG_VALUE: update_sec_status:sector <- $r5
	@DEBUG_VALUE: update_sec_status:is_full <- $r4
	@DEBUG_VALUE: update_sec_status:new_env_len <- $r1
	@DEBUG_VALUE: update_sec_status:result <- 0
	.loc	2 0 55                          @ ../../../components/utility/EnhancedFlashDataset/Src/efd_kv.c:0:55
	mov.w	r5, #0
.Ltmp724:
	.loc	2 1104 18 is_stmt 1             @ ../../../components/utility/EnhancedFlashDataset/Src/efd_kv.c:1104:18
	cbz	r4, .LBB33_10
.Ltmp725:
@ %bb.6:
	@DEBUG_VALUE: update_sec_status:is_full <- $r4
	@DEBUG_VALUE: update_sec_status:new_env_len <- $r1
	@DEBUG_VALUE: update_sec_status:result <- 0
	.loc	2 1106 22                       @ ../../../components/utility/EnhancedFlashDataset/Src/efd_kv.c:1106:22
	strb	r5, [r4]
	b	.LBB33_10
.Ltmp726:
.LBB33_7:
	@DEBUG_VALUE: update_sec_status:sector <- $r5
	@DEBUG_VALUE: update_sec_status:is_full <- $r2
	@DEBUG_VALUE: update_sec_status:new_env_len <- $r1
	@DEBUG_VALUE: update_sec_status:result <- 0
	.loc	2 0 22 is_stmt 0                @ ../../../components/utility/EnhancedFlashDataset/Src/efd_kv.c:0:22
	movs	r5, #0
.Ltmp727:
	b	.LBB33_10
.Ltmp728:
.LBB33_8:
	@DEBUG_VALUE: update_sec_status:sector <- $r5
	@DEBUG_VALUE: update_sec_status:is_full <- $r4
	@DEBUG_VALUE: update_sec_status:new_env_len <- $r1
	@DEBUG_VALUE: update_sec_status:result <- 0
	.loc	2 1092 43 is_stmt 1             @ ../../../components/utility/EnhancedFlashDataset/Src/efd_kv.c:1092:43
	ldr.w	r0, [r5, #9]
	movw	r1, #65535
.Ltmp729:
	@DEBUG_VALUE: update_sec_status:new_env_len <- [DW_OP_LLVM_entry_value 1] $r1
	@DEBUG_VALUE: set_status:byte_index <- -1
	@DEBUG_VALUE: set_status:status_index <- 3
	@DEBUG_VALUE: set_status:status_num <- 4
	@DEBUG_VALUE: write_status:result <- 0
	@DEBUG_VALUE: write_status:status_index <- 3
	@DEBUG_VALUE: write_status:status_num <- 4
	@DEBUG_VALUE: write_status:addr <- $r0
	.loc	2 220 5                         @ ../../../components/utility/EnhancedFlashDataset/Src/efd_kv.c:220:5
	strh.w	r1, [sp, #4]
	add	r1, sp, #4
.Ltmp730:
	@DEBUG_VALUE: set_status:byte_index <- 2
	.loc	2 0 5 is_stmt 0                 @ ../../../components/utility/EnhancedFlashDataset/Src/efd_kv.c:0:5
	movs	r2, #0
.Ltmp731:
	.loc	2 228 9 is_stmt 1               @ ../../../components/utility/EnhancedFlashDataset/Src/efd_kv.c:228:9
	adds	r1, #2
	.loc	2 228 34 is_stmt 0              @ ../../../components/utility/EnhancedFlashDataset/Src/efd_kv.c:228:34
	strb.w	r2, [sp, #6]
.Ltmp732:
	@DEBUG_VALUE: write_status:byte_index <- 2
	.loc	2 280 34 is_stmt 1              @ ../../../components/utility/EnhancedFlashDataset/Src/efd_kv.c:280:34
	adds	r0, #2
.Ltmp733:
	.loc	2 280 14 is_stmt 0              @ ../../../components/utility/EnhancedFlashDataset/Src/efd_kv.c:280:14
	movs	r2, #1
	movs	r6, #1
	bl	efd_port_write
.Ltmp734:
	.loc	2 1096 41 is_stmt 1             @ ../../../components/utility/EnhancedFlashDataset/Src/efd_kv.c:1096:41
	ldr.w	r2, [r5, #9]
.Ltmp735:
	.loc	2 280 14                        @ ../../../components/utility/EnhancedFlashDataset/Src/efd_kv.c:280:14
	mov	r5, r0
.Ltmp736:
	@DEBUG_VALUE: write_status:byte_index <- 2
	@DEBUG_VALUE: write_status:result <- $r5
	@DEBUG_VALUE: write_status:result <- 0
	@DEBUG_VALUE: write_status:status_index <- 3
	@DEBUG_VALUE: write_status:status_num <- 4
	@DEBUG_VALUE: update_sec_status:result <- $r5
	.loc	2 1096 60                       @ ../../../components/utility/EnhancedFlashDataset/Src/efd_kv.c:1096:60
	add.w	r1, r2, #4096
	.loc	2 1096 13 is_stmt 0             @ ../../../components/utility/EnhancedFlashDataset/Src/efd_kv.c:1096:13
	mov	r0, r2
	bl	update_sector_cache
.Ltmp737:
	@DEBUG_VALUE: set_status:status_table <- [DW_OP_plus_uconst 4, DW_OP_stack_value] $sp
	@DEBUG_VALUE: write_status:status_table <- [DW_OP_plus_uconst 4, DW_OP_stack_value] $sp
	.loc	2 1099 17 is_stmt 1             @ ../../../components/utility/EnhancedFlashDataset/Src/efd_kv.c:1099:17
	cbz	r4, .LBB33_10
.Ltmp738:
@ %bb.9:
	@DEBUG_VALUE: update_sec_status:result <- $r5
	@DEBUG_VALUE: update_sec_status:is_full <- $r4
	@DEBUG_VALUE: update_sec_status:new_env_len <- [DW_OP_LLVM_entry_value 1] $r1
	.loc	2 1101 26                       @ ../../../components/utility/EnhancedFlashDataset/Src/efd_kv.c:1101:26
	strb	r6, [r4]
.Ltmp739:
.LBB33_10:
	@DEBUG_VALUE: update_sec_status:result <- $r5
	.loc	2 1110 5                        @ ../../../components/utility/EnhancedFlashDataset/Src/efd_kv.c:1110:5
	mov	r0, r5
	add	sp, #8
	pop	{r4, r5, r6, pc}
.Ltmp740:
.Lfunc_end33:
	.size	update_sec_status, .Lfunc_end33-update_sec_status
	.cfi_endproc
	.cantunwind
	.fnend
                                        @ -- End function
	.section	.text.read_sector_meta_data,"ax",%progbits
	.p2align	1                               @ -- Begin function read_sector_meta_data
	.type	read_sector_meta_data,%function
	.code	16                              @ @read_sector_meta_data
	.thumb_func
read_sector_meta_data:
.Lfunc_begin34:
	.loc	2 640 0                         @ ../../../components/utility/EnhancedFlashDataset/Src/efd_kv.c:640:0
	.fnstart
	.cfi_startproc
@ %bb.0:
	@DEBUG_VALUE: read_sector_meta_data:addr <- $r0
	@DEBUG_VALUE: read_sector_meta_data:sector <- $r1
	@DEBUG_VALUE: read_sector_meta_data:traversal <- [DW_OP_LLVM_convert 1 7, DW_OP_LLVM_convert 8 7, DW_OP_stack_value] $r2
	.save	{r4, r5, r6, r7, r8, r9, r10, r11, lr}
	push.w	{r4, r5, r6, r7, r8, r9, r10, r11, lr}
	.cfi_def_cfa_offset 36
	.cfi_offset lr, -4
	.cfi_offset r11, -8
	.cfi_offset r10, -12
	.cfi_offset r9, -16
	.cfi_offset r8, -20
	.cfi_offset r7, -24
	.cfi_offset r6, -28
	.cfi_offset r5, -32
	.cfi_offset r4, -36
	.pad	#148
	sub	sp, #148
	.cfi_def_cfa_offset 184
	mov	r6, r0
.Ltmp741:
	@DEBUG_VALUE: read_sector_meta_data:result <- 0
	@DEBUG_VALUE: read_sector_meta_data:traversal <- [DW_OP_LLVM_convert 1 7, DW_OP_LLVM_convert 8 7, DW_OP_stack_value] $r2
	@DEBUG_VALUE: read_sector_meta_data:addr <- $r6
	.loc	2 644 5 prologue_end            @ ../../../components/utility/EnhancedFlashDataset/Src/efd_kv.c:644:5
	lsls	r0, r0, #20
	@DEBUG_VALUE: read_sector_meta_data:sector <- $r1
	beq	.LBB34_3
.Ltmp742:
@ %bb.1:
	@DEBUG_VALUE: read_sector_meta_data:addr <- $r6
	@DEBUG_VALUE: read_sector_meta_data:traversal <- [DW_OP_LLVM_convert 1 7, DW_OP_LLVM_convert 8 7, DW_OP_stack_value] $r2
	@DEBUG_VALUE: read_sector_meta_data:sector <- $r1
	@DEBUG_VALUE: read_sector_meta_data:result <- 0
	.loc	2 644 5 is_stmt 0               @ ../../../components/utility/EnhancedFlashDataset/Src/efd_kv.c:644:5
	movw	r0, :lower16:.L.str
	movw	r1, :lower16:.L.str.1
.Ltmp743:
	@DEBUG_VALUE: read_sector_meta_data:sector <- [DW_OP_LLVM_entry_value 1] $r1
	movt	r0, :upper16:.L.str
	movt	r1, :upper16:.L.str.1
	mov.w	r2, #644
.Ltmp744:
	bl	__2printf
.Ltmp745:
	.p2align	2
.LBB34_2:                               @ =>This Inner Loop Header: Depth=1
	@DEBUG_VALUE: read_sector_meta_data:addr <- $r6
	@DEBUG_VALUE: read_sector_meta_data:sector <- [DW_OP_LLVM_entry_value 1] $r1
	@DEBUG_VALUE: read_sector_meta_data:result <- 0
	b	.LBB34_2
.Ltmp746:
.LBB34_3:
	@DEBUG_VALUE: read_sector_meta_data:addr <- $r6
	@DEBUG_VALUE: read_sector_meta_data:traversal <- [DW_OP_LLVM_convert 1 7, DW_OP_LLVM_convert 8 7, DW_OP_stack_value] $r2
	@DEBUG_VALUE: read_sector_meta_data:sector <- $r1
	@DEBUG_VALUE: read_sector_meta_data:result <- 0
	@DEBUG_VALUE: read_sector_meta_data:traversal <- [DW_OP_LLVM_convert 1 7, DW_OP_LLVM_convert 8 7, DW_OP_stack_value] $r2
	.loc	2 0 5                           @ ../../../components/utility/EnhancedFlashDataset/Src/efd_kv.c:0:5
	mov	r9, r1
.Ltmp747:
	@DEBUG_VALUE: read_sector_meta_data:sector <- $r9
	.loc	2 645 5 is_stmt 1               @ ../../../components/utility/EnhancedFlashDataset/Src/efd_kv.c:645:5
	cmp	r1, #0
	beq	.LBB34_17
.Ltmp748:
@ %bb.4:
	@DEBUG_VALUE: read_sector_meta_data:sector <- $r9
	@DEBUG_VALUE: read_sector_meta_data:addr <- $r6
	@DEBUG_VALUE: read_sector_meta_data:traversal <- [DW_OP_LLVM_convert 1 7, DW_OP_LLVM_convert 8 7, DW_OP_stack_value] $r2
	@DEBUG_VALUE: read_sector_meta_data:result <- 0
	.loc	2 0 5 is_stmt 0                 @ ../../../components/utility/EnhancedFlashDataset/Src/efd_kv.c:0:5
	add	r7, sp, #96
	mov	r5, r2
.Ltmp749:
	@DEBUG_VALUE: read_sector_meta_data:traversal <- [DW_OP_LLVM_convert 1 7, DW_OP_LLVM_convert 8 7, DW_OP_stack_value] $r5
	@DEBUG_VALUE: read_sector_meta_data:traversal <- [DW_OP_LLVM_convert 1 7, DW_OP_LLVM_convert 8 7, DW_OP_stack_value] $r5
	.loc	2 648 5 is_stmt 1               @ ../../../components/utility/EnhancedFlashDataset/Src/efd_kv.c:648:5
	mov	r0, r6
	mov	r1, r7
	movs	r2, #18
	bl	efd_port_read
.Ltmp750:
	.loc	2 651 29                        @ ../../../components/utility/EnhancedFlashDataset/Src/efd_kv.c:651:29
	ldr.w	r0, [sp, #102]
	movw	r1, #17989
	movt	r1, #12340
	.loc	2 653 9                         @ ../../../components/utility/EnhancedFlashDataset/Src/efd_kv.c:653:9
	cmp	r0, r1
	.loc	2 650 19                        @ ../../../components/utility/EnhancedFlashDataset/Src/efd_kv.c:650:19
	str.w	r6, [r9, #9]
	.loc	2 651 19                        @ ../../../components/utility/EnhancedFlashDataset/Src/efd_kv.c:651:19
	str.w	r0, [r9, #13]
	.loc	2 653 9                         @ ../../../components/utility/EnhancedFlashDataset/Src/efd_kv.c:653:9
	bne	.LBB34_19
.Ltmp751:
@ %bb.5:
	@DEBUG_VALUE: read_sector_meta_data:sector <- $r9
	@DEBUG_VALUE: read_sector_meta_data:addr <- $r6
	@DEBUG_VALUE: read_sector_meta_data:traversal <- [DW_OP_LLVM_convert 1 7, DW_OP_LLVM_convert 8 7, DW_OP_stack_value] $r5
	@DEBUG_VALUE: read_sector_meta_data:result <- 0
	.loc	2 661 36                        @ ../../../components/utility/EnhancedFlashDataset/Src/efd_kv.c:661:36
	ldr.w	r1, [sp, #106]
	movs	r0, #1
	.loc	2 659 22                        @ ../../../components/utility/EnhancedFlashDataset/Src/efd_kv.c:659:22
	strb.w	r0, [r9]
	.loc	2 661 26                        @ ../../../components/utility/EnhancedFlashDataset/Src/efd_kv.c:661:26
	str.w	r1, [r9, #17]
	movs	r0, #0
	movs	r1, #2
	@DEBUG_VALUE: get_status:status_table <- [DW_OP_plus_uconst 96, DW_OP_stack_value] $sp
	@DEBUG_VALUE: get_status:status_num_bak <- 3
	@DEBUG_VALUE: get_status:i <- 0
	@DEBUG_VALUE: get_status:status_num <- 2
.Ltmp752:
	.p2align	2
.LBB34_6:                               @ =>This Inner Loop Header: Depth=1
	@DEBUG_VALUE: read_sector_meta_data:sector <- $r9
	@DEBUG_VALUE: read_sector_meta_data:addr <- $r6
	@DEBUG_VALUE: read_sector_meta_data:traversal <- [DW_OP_LLVM_convert 1 7, DW_OP_LLVM_convert 8 7, DW_OP_stack_value] $r5
	@DEBUG_VALUE: get_status:status_table <- [DW_OP_plus_uconst 96, DW_OP_stack_value] $sp
	@DEBUG_VALUE: get_status:status_num_bak <- 3
	@DEBUG_VALUE: read_sector_meta_data:result <- 0
	@DEBUG_VALUE: get_status:i <- $r0
	.loc	2 248 54                        @ ../../../components/utility/EnhancedFlashDataset/Src/efd_kv.c:248:54
	bic	r2, r1, #-536870912
	.loc	2 248 13 is_stmt 0              @ ../../../components/utility/EnhancedFlashDataset/Src/efd_kv.c:248:13
	ldrb	r2, [r7, r2]
.Ltmp753:
	.loc	2 248 13                        @ ../../../components/utility/EnhancedFlashDataset/Src/efd_kv.c:248:13
	cbz	r2, .LBB34_9
.Ltmp754:
@ %bb.7:                                @   in Loop: Header=BB34_6 Depth=1
	@DEBUG_VALUE: read_sector_meta_data:sector <- $r9
	@DEBUG_VALUE: read_sector_meta_data:addr <- $r6
	@DEBUG_VALUE: read_sector_meta_data:traversal <- [DW_OP_LLVM_convert 1 7, DW_OP_LLVM_convert 8 7, DW_OP_stack_value] $r5
	@DEBUG_VALUE: get_status:i <- $r0
	@DEBUG_VALUE: get_status:status_table <- [DW_OP_plus_uconst 96, DW_OP_stack_value] $sp
	@DEBUG_VALUE: get_status:status_num_bak <- 3
	@DEBUG_VALUE: read_sector_meta_data:result <- 0
	.loc	2 253 10 is_stmt 1              @ ../../../components/utility/EnhancedFlashDataset/Src/efd_kv.c:253:10
	adds	r0, #1
.Ltmp755:
	@DEBUG_VALUE: get_status:i <- $r0
	@DEBUG_VALUE: get_status:status_num <- $r1
	.loc	2 239 5                         @ ../../../components/utility/EnhancedFlashDataset/Src/efd_kv.c:239:5
	cmp	r0, #3
	.loc	2 239 22 is_stmt 0              @ ../../../components/utility/EnhancedFlashDataset/Src/efd_kv.c:239:22
	sub.w	r1, r1, #1
.Ltmp756:
	@DEBUG_VALUE: get_status:status_num <- $r1
	.loc	2 239 5                         @ ../../../components/utility/EnhancedFlashDataset/Src/efd_kv.c:239:5
	bne	.LBB34_6
.Ltmp757:
@ %bb.8:
	@DEBUG_VALUE: read_sector_meta_data:sector <- $r9
	@DEBUG_VALUE: read_sector_meta_data:addr <- $r6
	@DEBUG_VALUE: read_sector_meta_data:traversal <- [DW_OP_LLVM_convert 1 7, DW_OP_LLVM_convert 8 7, DW_OP_stack_value] $r5
	@DEBUG_VALUE: get_status:status_num <- $r1
	@DEBUG_VALUE: get_status:i <- $r0
	@DEBUG_VALUE: get_status:status_table <- [DW_OP_plus_uconst 96, DW_OP_stack_value] $sp
	@DEBUG_VALUE: get_status:status_num_bak <- 3
	@DEBUG_VALUE: read_sector_meta_data:result <- 0
	.loc	2 0 5                           @ ../../../components/utility/EnhancedFlashDataset/Src/efd_kv.c:0:5
	movs	r0, #3
.Ltmp758:
.LBB34_9:
	@DEBUG_VALUE: read_sector_meta_data:sector <- $r9
	@DEBUG_VALUE: read_sector_meta_data:addr <- $r6
	@DEBUG_VALUE: read_sector_meta_data:traversal <- [DW_OP_LLVM_convert 1 7, DW_OP_LLVM_convert 8 7, DW_OP_stack_value] $r5
	@DEBUG_VALUE: get_status:status_table <- [DW_OP_plus_uconst 96, DW_OP_stack_value] $sp
	@DEBUG_VALUE: get_status:status_num_bak <- 3
	@DEBUG_VALUE: read_sector_meta_data:result <- 0
	.loc	2 256 27 is_stmt 1              @ ../../../components/utility/EnhancedFlashDataset/Src/efd_kv.c:256:27
	rsb.w	r0, r0, #3
	movs	r1, #0
	movs	r2, #2
.Ltmp759:
	@DEBUG_VALUE: get_status:status_num_bak <- 3
	@DEBUG_VALUE: get_status:i <- 0
	@DEBUG_VALUE: get_status:status_num <- 2
	@DEBUG_VALUE: get_status:status_table <- [DW_OP_plus_uconst 96, DW_OP_plus_uconst 3, DW_OP_stack_value] $sp
	.loc	2 662 26                        @ ../../../components/utility/EnhancedFlashDataset/Src/efd_kv.c:662:26
	str.w	r0, [r9, #1]
.Ltmp760:
	.p2align	2
.LBB34_10:                              @ =>This Inner Loop Header: Depth=1
	@DEBUG_VALUE: read_sector_meta_data:sector <- $r9
	@DEBUG_VALUE: read_sector_meta_data:addr <- $r6
	@DEBUG_VALUE: read_sector_meta_data:traversal <- [DW_OP_LLVM_convert 1 7, DW_OP_LLVM_convert 8 7, DW_OP_stack_value] $r5
	@DEBUG_VALUE: get_status:status_table <- [DW_OP_plus_uconst 96, DW_OP_plus_uconst 3, DW_OP_stack_value] $sp
	@DEBUG_VALUE: get_status:status_num_bak <- 3
	@DEBUG_VALUE: read_sector_meta_data:result <- 0
	@DEBUG_VALUE: get_status:i <- $r1
	.loc	2 248 54                        @ ../../../components/utility/EnhancedFlashDataset/Src/efd_kv.c:248:54
	bic	r3, r2, #-536870912
	.loc	2 248 13 is_stmt 0              @ ../../../components/utility/EnhancedFlashDataset/Src/efd_kv.c:248:13
	add	r3, r7
	ldrb	r3, [r3, #3]
.Ltmp761:
	.loc	2 248 13                        @ ../../../components/utility/EnhancedFlashDataset/Src/efd_kv.c:248:13
	cbz	r3, .LBB34_13
.Ltmp762:
@ %bb.11:                               @   in Loop: Header=BB34_10 Depth=1
	@DEBUG_VALUE: read_sector_meta_data:sector <- $r9
	@DEBUG_VALUE: read_sector_meta_data:addr <- $r6
	@DEBUG_VALUE: read_sector_meta_data:traversal <- [DW_OP_LLVM_convert 1 7, DW_OP_LLVM_convert 8 7, DW_OP_stack_value] $r5
	@DEBUG_VALUE: get_status:i <- $r1
	@DEBUG_VALUE: get_status:status_table <- [DW_OP_plus_uconst 96, DW_OP_plus_uconst 3, DW_OP_stack_value] $sp
	@DEBUG_VALUE: get_status:status_num_bak <- 3
	@DEBUG_VALUE: read_sector_meta_data:result <- 0
	.loc	2 253 10 is_stmt 1              @ ../../../components/utility/EnhancedFlashDataset/Src/efd_kv.c:253:10
	adds	r1, #1
.Ltmp763:
	@DEBUG_VALUE: get_status:i <- $r1
	@DEBUG_VALUE: get_status:status_num <- $r2
	.loc	2 239 5                         @ ../../../components/utility/EnhancedFlashDataset/Src/efd_kv.c:239:5
	cmp	r1, #3
	.loc	2 239 22 is_stmt 0              @ ../../../components/utility/EnhancedFlashDataset/Src/efd_kv.c:239:22
	sub.w	r2, r2, #1
.Ltmp764:
	@DEBUG_VALUE: get_status:status_num <- $r2
	.loc	2 239 5                         @ ../../../components/utility/EnhancedFlashDataset/Src/efd_kv.c:239:5
	bne	.LBB34_10
.Ltmp765:
@ %bb.12:
	@DEBUG_VALUE: read_sector_meta_data:sector <- $r9
	@DEBUG_VALUE: read_sector_meta_data:addr <- $r6
	@DEBUG_VALUE: read_sector_meta_data:traversal <- [DW_OP_LLVM_convert 1 7, DW_OP_LLVM_convert 8 7, DW_OP_stack_value] $r5
	@DEBUG_VALUE: get_status:status_num <- $r2
	@DEBUG_VALUE: get_status:i <- $r1
	@DEBUG_VALUE: get_status:status_table <- [DW_OP_plus_uconst 96, DW_OP_plus_uconst 3, DW_OP_stack_value] $sp
	@DEBUG_VALUE: get_status:status_num_bak <- 3
	@DEBUG_VALUE: read_sector_meta_data:result <- 0
	.loc	2 0 5                           @ ../../../components/utility/EnhancedFlashDataset/Src/efd_kv.c:0:5
	movs	r1, #3
.Ltmp766:
.LBB34_13:
	@DEBUG_VALUE: read_sector_meta_data:sector <- $r9
	@DEBUG_VALUE: read_sector_meta_data:addr <- $r6
	@DEBUG_VALUE: read_sector_meta_data:traversal <- [DW_OP_LLVM_convert 1 7, DW_OP_LLVM_convert 8 7, DW_OP_stack_value] $r5
	@DEBUG_VALUE: get_status:status_table <- [DW_OP_plus_uconst 96, DW_OP_plus_uconst 3, DW_OP_stack_value] $sp
	@DEBUG_VALUE: get_status:status_num_bak <- 3
	@DEBUG_VALUE: read_sector_meta_data:result <- 0
	.loc	2 256 27 is_stmt 1              @ ../../../components/utility/EnhancedFlashDataset/Src/efd_kv.c:256:27
	rsb.w	r1, r1, #3
	mov.w	r4, #0
.Ltmp767:
	.loc	2 663 26                        @ ../../../components/utility/EnhancedFlashDataset/Src/efd_kv.c:663:26
	str.w	r1, [r9, #5]
	.loc	2 665 9                         @ ../../../components/utility/EnhancedFlashDataset/Src/efd_kv.c:665:9
	cbz	r5, .LBB34_24
.Ltmp768:
@ %bb.14:
	@DEBUG_VALUE: read_sector_meta_data:sector <- $r9
	@DEBUG_VALUE: read_sector_meta_data:addr <- $r6
	@DEBUG_VALUE: read_sector_meta_data:traversal <- [DW_OP_LLVM_convert 1 7, DW_OP_LLVM_convert 8 7, DW_OP_stack_value] $r5
	@DEBUG_VALUE: read_sector_meta_data:result <- 0
	.loc	2 668 42                        @ ../../../components/utility/EnhancedFlashDataset/Src/efd_kv.c:668:42
	add.w	r1, r6, #18
	.loc	2 669 13                        @ ../../../components/utility/EnhancedFlashDataset/Src/efd_kv.c:669:13
	cmp	r0, #2
	.loc	2 667 27                        @ ../../../components/utility/EnhancedFlashDataset/Src/efd_kv.c:667:27
	str.w	r4, [r9, #21]
	.loc	2 668 27                        @ ../../../components/utility/EnhancedFlashDataset/Src/efd_kv.c:668:27
	str.w	r1, [r9, #25]
	.loc	2 669 13                        @ ../../../components/utility/EnhancedFlashDataset/Src/efd_kv.c:669:13
	beq	.LBB34_20
.Ltmp769:
@ %bb.15:
	@DEBUG_VALUE: read_sector_meta_data:sector <- $r9
	@DEBUG_VALUE: read_sector_meta_data:addr <- $r6
	@DEBUG_VALUE: read_sector_meta_data:traversal <- [DW_OP_LLVM_convert 1 7, DW_OP_LLVM_convert 8 7, DW_OP_stack_value] $r5
	@DEBUG_VALUE: read_sector_meta_data:result <- 0
	cmp	r0, #1
	bne	.LBB34_24
.Ltmp770:
@ %bb.16:
	@DEBUG_VALUE: read_sector_meta_data:sector <- $r9
	@DEBUG_VALUE: read_sector_meta_data:addr <- $r6
	@DEBUG_VALUE: read_sector_meta_data:traversal <- [DW_OP_LLVM_convert 1 7, DW_OP_LLVM_convert 8 7, DW_OP_stack_value] $r5
	@DEBUG_VALUE: read_sector_meta_data:result <- 0
	.loc	2 0 13 is_stmt 0                @ ../../../components/utility/EnhancedFlashDataset/Src/efd_kv.c:0:13
	movw	r0, #4078
	b	.LBB34_23
.Ltmp771:
.LBB34_17:
	@DEBUG_VALUE: read_sector_meta_data:sector <- $r9
	@DEBUG_VALUE: read_sector_meta_data:addr <- $r6
	@DEBUG_VALUE: read_sector_meta_data:traversal <- [DW_OP_LLVM_convert 1 7, DW_OP_LLVM_convert 8 7, DW_OP_stack_value] $r2
	@DEBUG_VALUE: read_sector_meta_data:result <- 0
	.loc	2 645 5 is_stmt 1               @ ../../../components/utility/EnhancedFlashDataset/Src/efd_kv.c:645:5
	movw	r0, :lower16:.L.str
	movw	r1, :lower16:.L.str.1
	movt	r0, :upper16:.L.str
	movt	r1, :upper16:.L.str.1
	movw	r2, #645
.Ltmp772:
	bl	__2printf
.Ltmp773:
	.p2align	2
.LBB34_18:                              @ =>This Inner Loop Header: Depth=1
	@DEBUG_VALUE: read_sector_meta_data:sector <- $r9
	@DEBUG_VALUE: read_sector_meta_data:addr <- $r6
	@DEBUG_VALUE: read_sector_meta_data:result <- 0
	b	.LBB34_18
.Ltmp774:
.LBB34_19:
	@DEBUG_VALUE: read_sector_meta_data:sector <- $r9
	@DEBUG_VALUE: read_sector_meta_data:addr <- $r6
	@DEBUG_VALUE: read_sector_meta_data:traversal <- [DW_OP_LLVM_convert 1 7, DW_OP_LLVM_convert 8 7, DW_OP_stack_value] $r5
	@DEBUG_VALUE: read_sector_meta_data:result <- 0
	.loc	2 0 5 is_stmt 0                 @ ../../../components/utility/EnhancedFlashDataset/Src/efd_kv.c:0:5
	movs	r0, #0
.Ltmp775:
	.loc	2 655 26 is_stmt 1              @ ../../../components/utility/EnhancedFlashDataset/Src/efd_kv.c:655:26
	strb.w	r0, [r9]
	mov.w	r0, #-1
	.loc	2 656 26                        @ ../../../components/utility/EnhancedFlashDataset/Src/efd_kv.c:656:26
	str.w	r0, [r9, #17]
	movs	r4, #7
	b	.LBB34_24
.Ltmp776:
.LBB34_20:
	@DEBUG_VALUE: read_sector_meta_data:sector <- $r9
	@DEBUG_VALUE: read_sector_meta_data:addr <- $r6
	@DEBUG_VALUE: read_sector_meta_data:traversal <- [DW_OP_LLVM_convert 1 7, DW_OP_LLVM_convert 8 7, DW_OP_stack_value] $r5
	@DEBUG_VALUE: read_sector_meta_data:result <- 0
	@DEBUG_VALUE: get_sector_from_cache:sec_addr <- $r6
	@DEBUG_VALUE: get_sector_from_cache:i <- 0
	.loc	2 343 35                        @ ../../../components/utility/EnhancedFlashDataset/Src/efd_kv.c:343:35
	movw	r0, :lower16:sector_cache_table
	movt	r0, :upper16:sector_cache_table
	ldr	r1, [r0]
.Ltmp777:
	.loc	2 343 13 is_stmt 0              @ ../../../components/utility/EnhancedFlashDataset/Src/efd_kv.c:343:13
	cmp	r1, r6
.Ltmp778:
	@DEBUG_VALUE: get_sector_from_cache:empty_addr <- [DW_OP_plus_uconst 25, DW_OP_stack_value] $r9
	bne	.LBB34_25
.Ltmp779:
@ %bb.21:
	@DEBUG_VALUE: get_sector_from_cache:empty_addr <- [DW_OP_plus_uconst 25, DW_OP_stack_value] $r9
	@DEBUG_VALUE: read_sector_meta_data:sector <- $r9
	@DEBUG_VALUE: get_sector_from_cache:sec_addr <- $r6
	@DEBUG_VALUE: read_sector_meta_data:addr <- $r6
	@DEBUG_VALUE: read_sector_meta_data:traversal <- [DW_OP_LLVM_convert 1 7, DW_OP_LLVM_convert 8 7, DW_OP_stack_value] $r5
	@DEBUG_VALUE: get_sector_from_cache:i <- 0
	@DEBUG_VALUE: read_sector_meta_data:result <- 0
	.loc	2 347 53 is_stmt 1              @ ../../../components/utility/EnhancedFlashDataset/Src/efd_kv.c:347:53
	ldr	r0, [r0, #4]
	.loc	2 347 29 is_stmt 0              @ ../../../components/utility/EnhancedFlashDataset/Src/efd_kv.c:347:29
	str.w	r0, [r9, #25]
.Ltmp780:
.LBB34_22:
	@DEBUG_VALUE: read_sector_meta_data:sector <- $r9
	@DEBUG_VALUE: read_sector_meta_data:addr <- $r6
	@DEBUG_VALUE: read_sector_meta_data:traversal <- [DW_OP_LLVM_convert 1 7, DW_OP_LLVM_convert 8 7, DW_OP_stack_value] $r5
	@DEBUG_VALUE: read_sector_meta_data:result <- 0
	.loc	2 680 46 is_stmt 1              @ ../../../components/utility/EnhancedFlashDataset/Src/efd_kv.c:680:46
	subs	r0, r6, r0
	add.w	r0, r0, #4096
.Ltmp781:
.LBB34_23:
	@DEBUG_VALUE: read_sector_meta_data:sector <- $r9
	@DEBUG_VALUE: read_sector_meta_data:addr <- $r6
	@DEBUG_VALUE: read_sector_meta_data:traversal <- [DW_OP_LLVM_convert 1 7, DW_OP_LLVM_convert 8 7, DW_OP_stack_value] $r5
	@DEBUG_VALUE: read_sector_meta_data:result <- 0
	.loc	2 0 0 is_stmt 0                 @ ../../../components/utility/EnhancedFlashDataset/Src/efd_kv.c:0:0
	str.w	r0, [r9, #21]
	movs	r4, #0
.Ltmp782:
.LBB34_24:
	@DEBUG_VALUE: read_sector_meta_data:sector <- $r9
	.loc	2 724 1 is_stmt 1               @ ../../../components/utility/EnhancedFlashDataset/Src/efd_kv.c:724:1
	mov	r0, r4
	add	sp, #148
	pop.w	{r4, r5, r6, r7, r8, r9, r10, r11, pc}
.Ltmp783:
.LBB34_25:
	@DEBUG_VALUE: get_sector_from_cache:empty_addr <- [DW_OP_plus_uconst 25, DW_OP_stack_value] $r9
	@DEBUG_VALUE: read_sector_meta_data:sector <- $r9
	@DEBUG_VALUE: get_sector_from_cache:sec_addr <- $r6
	@DEBUG_VALUE: read_sector_meta_data:addr <- $r6
	@DEBUG_VALUE: read_sector_meta_data:traversal <- [DW_OP_LLVM_convert 1 7, DW_OP_LLVM_convert 8 7, DW_OP_stack_value] $r5
	@DEBUG_VALUE: get_sector_from_cache:i <- 0
	@DEBUG_VALUE: read_sector_meta_data:result <- 0
	.loc	2 0 1 is_stmt 0                 @ ../../../components/utility/EnhancedFlashDataset/Src/efd_kv.c:0:1
	movs	r1, #0
.Ltmp784:
.LBB34_26:                              @ =>This Inner Loop Header: Depth=1
	@DEBUG_VALUE: get_sector_from_cache:empty_addr <- [DW_OP_plus_uconst 25, DW_OP_stack_value] $r9
	@DEBUG_VALUE: read_sector_meta_data:sector <- $r9
	@DEBUG_VALUE: get_sector_from_cache:sec_addr <- $r6
	@DEBUG_VALUE: read_sector_meta_data:addr <- $r6
	@DEBUG_VALUE: read_sector_meta_data:traversal <- [DW_OP_LLVM_convert 1 7, DW_OP_LLVM_convert 8 7, DW_OP_stack_value] $r5
	@DEBUG_VALUE: read_sector_meta_data:result <- 0
	@DEBUG_VALUE: get_sector_from_cache:i <- undef
	.loc	2 341 5 is_stmt 1               @ ../../../components/utility/EnhancedFlashDataset/Src/efd_kv.c:341:5
	cmp	r1, #7
	beq	.LBB34_29
.Ltmp785:
@ %bb.27:                               @   in Loop: Header=BB34_26 Depth=1
	@DEBUG_VALUE: get_sector_from_cache:empty_addr <- [DW_OP_plus_uconst 25, DW_OP_stack_value] $r9
	@DEBUG_VALUE: read_sector_meta_data:sector <- $r9
	@DEBUG_VALUE: get_sector_from_cache:sec_addr <- $r6
	@DEBUG_VALUE: read_sector_meta_data:addr <- $r6
	@DEBUG_VALUE: read_sector_meta_data:traversal <- [DW_OP_LLVM_convert 1 7, DW_OP_LLVM_convert 8 7, DW_OP_stack_value] $r5
	@DEBUG_VALUE: read_sector_meta_data:result <- 0
	.loc	2 343 35                        @ ../../../components/utility/EnhancedFlashDataset/Src/efd_kv.c:343:35
	add.w	r2, r0, r1, lsl #3
	ldr	r3, [r2, #8]
.Ltmp786:
	.loc	2 0 0 is_stmt 0                 @ ../../../components/utility/EnhancedFlashDataset/Src/efd_kv.c:0:0
	adds	r2, r1, #1
.Ltmp787:
	@DEBUG_VALUE: get_sector_from_cache:i <- $r2
	.loc	2 343 13                        @ ../../../components/utility/EnhancedFlashDataset/Src/efd_kv.c:343:13
	cmp	r3, r6
	mov	r1, r2
	bne	.LBB34_26
.Ltmp788:
@ %bb.28:
	@DEBUG_VALUE: get_sector_from_cache:empty_addr <- [DW_OP_plus_uconst 25, DW_OP_stack_value] $r9
	@DEBUG_VALUE: read_sector_meta_data:sector <- $r9
	@DEBUG_VALUE: get_sector_from_cache:sec_addr <- $r6
	@DEBUG_VALUE: read_sector_meta_data:addr <- $r6
	@DEBUG_VALUE: read_sector_meta_data:traversal <- [DW_OP_LLVM_convert 1 7, DW_OP_LLVM_convert 8 7, DW_OP_stack_value] $r5
	@DEBUG_VALUE: get_sector_from_cache:i <- $r2
	@DEBUG_VALUE: read_sector_meta_data:result <- 0
	.loc	2 347 53 is_stmt 1              @ ../../../components/utility/EnhancedFlashDataset/Src/efd_kv.c:347:53
	add.w	r0, r0, r2, lsl #3
.Ltmp789:
	.loc	2 341 19                        @ ../../../components/utility/EnhancedFlashDataset/Src/efd_kv.c:341:19
	subs	r1, r2, #1
.Ltmp790:
	.loc	2 347 53                        @ ../../../components/utility/EnhancedFlashDataset/Src/efd_kv.c:347:53
	ldr	r0, [r0, #4]
.Ltmp791:
	.loc	2 678 17                        @ ../../../components/utility/EnhancedFlashDataset/Src/efd_kv.c:678:17
	cmp	r1, #7
.Ltmp792:
	.loc	2 347 29                        @ ../../../components/utility/EnhancedFlashDataset/Src/efd_kv.c:347:29
	str.w	r0, [r9, #25]
.Ltmp793:
	.loc	2 678 17                        @ ../../../components/utility/EnhancedFlashDataset/Src/efd_kv.c:678:17
	blo	.LBB34_22
.Ltmp794:
.LBB34_29:
	@DEBUG_VALUE: read_sector_meta_data:sector <- $r9
	@DEBUG_VALUE: read_sector_meta_data:addr <- $r6
	@DEBUG_VALUE: read_sector_meta_data:traversal <- [DW_OP_LLVM_convert 1 7, DW_OP_LLVM_convert 8 7, DW_OP_stack_value] $r5
