	.text
	.syntax unified
	.eabi_attribute	67, "2.09"	@ Tag_conformance
	.cpu	cortex-m3
	.eabi_attribute	6, 10	@ Tag_CPU_arch
	.eabi_attribute	7, 77	@ Tag_CPU_arch_profile
	.eabi_attribute	8, 0	@ Tag_ARM_ISA_use
	.eabi_attribute	9, 2	@ Tag_THUMB_ISA_use
	.eabi_attribute	34, 1	@ Tag_CPU_unaligned_access
	.eabi_attribute	17, 1	@ Tag_ABI_PCS_GOT_use
	.eabi_attribute	20, 2	@ Tag_ABI_FP_denormal
	.eabi_attribute	21, 0	@ Tag_ABI_FP_exceptions
	.eabi_attribute	23, 1	@ Tag_ABI_FP_number_model
	.eabi_attribute	24, 1	@ Tag_ABI_align_needed
	.eabi_attribute	25, 1	@ Tag_ABI_align_preserved
	.eabi_attribute	38, 1	@ Tag_ABI_FP_16bit_format
	.eabi_attribute	18, 4	@ Tag_ABI_PCS_wchar_t
	.eabi_attribute	26, 2	@ Tag_ABI_enum_size
	.eabi_attribute	14, 0	@ Tag_ABI_PCS_R9_use
	.file	"entropy.c"
	.file	1 "C:\\Users\\testo\\Desktop\\rafael-iot-sdk-das -0515\\examples\\das_subg_thread\\keil" "../../../components/network/thread/subg_openthread/third_party/mbedtls/repo/include\\mbedtls/entropy.h"
	.file	2 "C:\\" "Keil_v5\\ARM\\ARMCLANG\\Bin\\..\\include\\stdint.h"
	.file	3 "C:\\Users\\testo\\Desktop\\rafael-iot-sdk-das -0515\\examples\\das_subg_thread\\keil" "../../../components/network/thread/subg_openthread/third_party/mbedtls/repo/include\\mbedtls/sha256.h"
	.file	4 "C:\\" "Keil_v5\\ARM\\ARMCLANG\\Bin\\..\\include\\stdio.h"
	.section	.text.mbedtls_entropy_init,"ax",%progbits
	.hidden	mbedtls_entropy_init            @ -- Begin function mbedtls_entropy_init
	.globl	mbedtls_entropy_init
	.p2align	1
	.type	mbedtls_entropy_init,%function
	.code	16                              @ @mbedtls_entropy_init
	.thumb_func
mbedtls_entropy_init:
.Lfunc_begin0:
	.file	5 "C:\\Users\\testo\\Desktop\\rafael-iot-sdk-das -0515\\examples\\das_subg_thread\\keil" "../../../components/network/thread/subg_openthread/third_party/mbedtls/repo/library/entropy.c"
	.loc	5 61 0                          @ ../../../components/network/thread/subg_openthread/third_party/mbedtls/repo/library/entropy.c:61:0
	.fnstart
	.cfi_sections .debug_frame
	.cfi_startproc
@ %bb.0:
	@DEBUG_VALUE: mbedtls_entropy_init:ctx <- $r0
	.save	{r4, lr}
	push	{r4, lr}
	.cfi_def_cfa_offset 8
	.cfi_offset lr, -4
	.cfi_offset r4, -8
	mov	r4, r0
.Ltmp0:
	@DEBUG_VALUE: mbedtls_entropy_init:ctx <- $r4
	movs	r1, #0
.Ltmp1:
	.loc	5 62 10 prologue_end            @ ../../../components/network/thread/subg_openthread/third_party/mbedtls/repo/library/entropy.c:62:10
	adds	r0, #112
	.loc	5 69 30                         @ ../../../components/network/thread/subg_openthread/third_party/mbedtls/repo/library/entropy.c:69:30
	str	r1, [r4], #4
.Ltmp2:
	@DEBUG_VALUE: mbedtls_entropy_init:ctx <- [DW_OP_LLVM_entry_value 1] $r0
	.loc	5 63 5                          @ ../../../components/network/thread/subg_openthread/third_party/mbedtls/repo/library/entropy.c:63:5
	movs	r1, #24
	bl	__aeabi_memclr4
.Ltmp3:
	.loc	5 73 5                          @ ../../../components/network/thread/subg_openthread/third_party/mbedtls/repo/library/entropy.c:73:5
	mov	r0, r4
	pop.w	{r4, lr}
.Ltmp4:
	b	mbedtls_sha256_init
.Ltmp5:
.Lfunc_end0:
	.size	mbedtls_entropy_init, .Lfunc_end0-mbedtls_entropy_init
	.cfi_endproc
	.cantunwind
	.fnend
                                        @ -- End function
	.section	.text.mbedtls_entropy_free,"ax",%progbits
	.hidden	mbedtls_entropy_free            @ -- Begin function mbedtls_entropy_free
	.globl	mbedtls_entropy_free
	.p2align	1
	.type	mbedtls_entropy_free,%function
	.code	16                              @ @mbedtls_entropy_free
	.thumb_func
mbedtls_entropy_free:
.Lfunc_begin1:
	.loc	5 118 0                         @ ../../../components/network/thread/subg_openthread/third_party/mbedtls/repo/library/entropy.c:118:0
	.fnstart
	.cfi_startproc
@ %bb.0:
	@DEBUG_VALUE: mbedtls_entropy_free:ctx <- $r0
	.save	{r4, lr}
	push	{r4, lr}
	.cfi_def_cfa_offset 8
	.cfi_offset lr, -4
	.cfi_offset r4, -8
	mov	r4, r0
.Ltmp6:
	@DEBUG_VALUE: mbedtls_entropy_free:ctx <- $r4
	.loc	5 121 14 prologue_end           @ ../../../components/network/thread/subg_openthread/third_party/mbedtls/repo/library/entropy.c:121:14
	ldr	r0, [r0]
.Ltmp7:
	.loc	5 121 9 is_stmt 0               @ ../../../components/network/thread/subg_openthread/third_party/mbedtls/repo/library/entropy.c:121:9
	adds	r0, #1
	.loc	5 141 1 is_stmt 1               @ ../../../components/network/thread/subg_openthread/third_party/mbedtls/repo/library/entropy.c:141:1
	it	eq
	popeq	{r4, pc}
.Ltmp8:
.LBB1_1:
	.loc	5 133 32                        @ ../../../components/network/thread/subg_openthread/third_party/mbedtls/repo/library/entropy.c:133:32
	adds	r0, r4, #4
	.loc	5 133 5 is_stmt 0               @ ../../../components/network/thread/subg_openthread/third_party/mbedtls/repo/library/entropy.c:133:5
	bl	mbedtls_sha256_free
.Ltmp9:
	.loc	5 0 5                           @ ../../../components/network/thread/subg_openthread/third_party/mbedtls/repo/library/entropy.c:0:5
	movs	r0, #0
	.loc	5 138 23 is_stmt 1              @ ../../../components/network/thread/subg_openthread/third_party/mbedtls/repo/library/entropy.c:138:23
	str	r0, [r4, #112]
	.loc	5 139 31                        @ ../../../components/network/thread/subg_openthread/third_party/mbedtls/repo/library/entropy.c:139:31
	add.w	r0, r4, #116
	.loc	5 139 5 is_stmt 0               @ ../../../components/network/thread/subg_openthread/third_party/mbedtls/repo/library/entropy.c:139:5
	movs	r1, #20
	bl	mbedtls_platform_zeroize
.Ltmp10:
	.loc	5 0 5                           @ ../../../components/network/thread/subg_openthread/third_party/mbedtls/repo/library/entropy.c:0:5
	mov.w	r0, #-1
	.loc	5 140 30 is_stmt 1              @ ../../../components/network/thread/subg_openthread/third_party/mbedtls/repo/library/entropy.c:140:30
	str	r0, [r4]
	.loc	5 141 1                         @ ../../../components/network/thread/subg_openthread/third_party/mbedtls/repo/library/entropy.c:141:1
	pop	{r4, pc}
.Ltmp11:
.Lfunc_end1:
	.size	mbedtls_entropy_free, .Lfunc_end1-mbedtls_entropy_free
	.cfi_endproc
	.cantunwind
	.fnend
                                        @ -- End function
	.section	.text.mbedtls_entropy_add_source,"ax",%progbits
	.hidden	mbedtls_entropy_add_source      @ -- Begin function mbedtls_entropy_add_source
	.globl	mbedtls_entropy_add_source
	.p2align	1
	.type	mbedtls_entropy_add_source,%function
	.code	16                              @ @mbedtls_entropy_add_source
	.thumb_func
mbedtls_entropy_add_source:
.Lfunc_begin2:
	.loc	5 146 0                         @ ../../../components/network/thread/subg_openthread/third_party/mbedtls/repo/library/entropy.c:146:0
	.fnstart
	.cfi_startproc
@ %bb.0:
	@DEBUG_VALUE: mbedtls_entropy_add_source:ctx <- $r0
	@DEBUG_VALUE: mbedtls_entropy_add_source:ctx <- $r0
	@DEBUG_VALUE: mbedtls_entropy_add_source:f_source <- $r1
	@DEBUG_VALUE: mbedtls_entropy_add_source:p_source <- $r2
	@DEBUG_VALUE: mbedtls_entropy_add_source:threshold <- $r3
	@DEBUG_VALUE: mbedtls_entropy_add_source:threshold <- $r3
	.save	{r4, lr}
	push	{r4, lr}
	.cfi_def_cfa_offset 8
	.cfi_offset lr, -4
	.cfi_offset r4, -8
.Ltmp12:
	@DEBUG_VALUE: mbedtls_entropy_add_source:strong <- [DW_OP_plus_uconst 8] [$sp+0]
	@DEBUG_VALUE: mbedtls_entropy_add_source:ret <- 0
	.loc	5 154 16 prologue_end           @ ../../../components/network/thread/subg_openthread/third_party/mbedtls/repo/library/entropy.c:154:16
	ldr.w	r12, [r0, #112]
.Ltmp13:
	@DEBUG_VALUE: mbedtls_entropy_add_source:idx <- $r12
	@DEBUG_VALUE: mbedtls_entropy_add_source:p_source <- $r2
	.loc	5 155 9                         @ ../../../components/network/thread/subg_openthread/third_party/mbedtls/repo/library/entropy.c:155:9
	cmp.w	r12, #0
	@DEBUG_VALUE: mbedtls_entropy_add_source:f_source <- $r1
	itt	gt
	mvngt	r0, #61
.Ltmp14:
	@DEBUG_VALUE: mbedtls_entropy_add_source:ctx <- [DW_OP_LLVM_entry_value 1] $r0
	@DEBUG_VALUE: mbedtls_entropy_add_source:ret <- $r0
	@DEBUG_LABEL: mbedtls_entropy_add_source:exit
	.loc	5 174 5                         @ ../../../components/network/thread/subg_openthread/third_party/mbedtls/repo/library/entropy.c:174:5
	popgt	{r4, pc}
.Ltmp15:
.LBB2_1:
	@DEBUG_VALUE: mbedtls_entropy_add_source:idx <- $r12
	@DEBUG_VALUE: mbedtls_entropy_add_source:threshold <- $r3
	@DEBUG_VALUE: mbedtls_entropy_add_source:p_source <- $r2
	@DEBUG_VALUE: mbedtls_entropy_add_source:f_source <- $r1
	@DEBUG_VALUE: mbedtls_entropy_add_source:ret <- $r0
	@DEBUG_VALUE: mbedtls_entropy_add_source:strong <- [DW_OP_plus_uconst 8] [$sp+0]
	@DEBUG_VALUE: mbedtls_entropy_add_source:ctx <- [DW_OP_LLVM_entry_value 1] $r0
	.loc	5 161 22                        @ ../../../components/network/thread/subg_openthread/third_party/mbedtls/repo/library/entropy.c:161:22
	add.w	r4, r12, r12, lsl #2
	add.w	r4, r0, r4, lsl #2
	ldr.w	lr, [sp, #8]
	.loc	5 161 32 is_stmt 0              @ ../../../components/network/thread/subg_openthread/third_party/mbedtls/repo/library/entropy.c:161:32
	strd	r1, r2, [r4, #116]
	.loc	5 166 22 is_stmt 1              @ ../../../components/network/thread/subg_openthread/third_party/mbedtls/repo/library/entropy.c:166:22
	add.w	r1, r12, #1
.Ltmp16:
	@DEBUG_VALUE: mbedtls_entropy_add_source:f_source <- [DW_OP_LLVM_entry_value 1] $r1
	str	r1, [r0, #112]
	movs	r0, #0
.Ltmp17:
	@DEBUG_VALUE: mbedtls_entropy_add_source:ret <- $r0
	.loc	5 163 32                        @ ../../../components/network/thread/subg_openthread/third_party/mbedtls/repo/library/entropy.c:163:32
	strd	r3, lr, [r4, #128]
.Ltmp18:
	@DEBUG_LABEL: mbedtls_entropy_add_source:exit
	.loc	5 174 5                         @ ../../../components/network/thread/subg_openthread/third_party/mbedtls/repo/library/entropy.c:174:5
	pop	{r4, pc}
.Ltmp19:
.Lfunc_end2:
	.size	mbedtls_entropy_add_source, .Lfunc_end2-mbedtls_entropy_add_source
	.cfi_endproc
	.cantunwind
	.fnend
                                        @ -- End function
	.section	.text.mbedtls_entropy_update_manual,"ax",%progbits
	.hidden	mbedtls_entropy_update_manual   @ -- Begin function mbedtls_entropy_update_manual
	.globl	mbedtls_entropy_update_manual
	.p2align	1
	.type	mbedtls_entropy_update_manual,%function
	.code	16                              @ @mbedtls_entropy_update_manual
	.thumb_func
mbedtls_entropy_update_manual:
.Lfunc_begin3:
	.loc	5 238 0                         @ ../../../components/network/thread/subg_openthread/third_party/mbedtls/repo/library/entropy.c:238:0
	.fnstart
	.cfi_startproc
@ %bb.0:
	@DEBUG_VALUE: mbedtls_entropy_update_manual:ctx <- $r0
	@DEBUG_VALUE: mbedtls_entropy_update_manual:data <- $r1
	@DEBUG_VALUE: mbedtls_entropy_update_manual:len <- $r2
	mov	r3, r2
	mov	r2, r1
.Ltmp20:
	@DEBUG_VALUE: mbedtls_entropy_update_manual:len <- [DW_OP_LLVM_entry_value 1] $r2
	@DEBUG_VALUE: mbedtls_entropy_update_manual:ret <- -110
	@DEBUG_VALUE: mbedtls_entropy_update_manual:len <- $r3
	@DEBUG_VALUE: mbedtls_entropy_update_manual:data <- $r2
	@DEBUG_VALUE: mbedtls_entropy_update_manual:ctx <- $r0
	@DEBUG_VALUE: mbedtls_entropy_update_manual:ctx <- $r0
	.loc	5 246 11 prologue_end           @ ../../../components/network/thread/subg_openthread/third_party/mbedtls/repo/library/entropy.c:246:11
	movs	r1, #1
	@DEBUG_VALUE: mbedtls_entropy_update_manual:len <- $r3
	@DEBUG_VALUE: mbedtls_entropy_update_manual:data <- $r2
.Ltmp21:
	b	entropy_update
.Ltmp22:
.Lfunc_end3:
	.size	mbedtls_entropy_update_manual, .Lfunc_end3-mbedtls_entropy_update_manual
	.cfi_endproc
	.cantunwind
	.fnend
                                        @ -- End function
	.section	.text.entropy_update,"ax",%progbits
	.p2align	1                               @ -- Begin function entropy_update
	.type	entropy_update,%function
	.code	16                              @ @entropy_update
	.thumb_func
entropy_update:
.Lfunc_begin4:
	.loc	5 182 0                         @ ../../../components/network/thread/subg_openthread/third_party/mbedtls/repo/library/entropy.c:182:0
	.fnstart
	.cfi_startproc
@ %bb.0:
	@DEBUG_VALUE: entropy_update:ctx <- $r0
	@DEBUG_VALUE: entropy_update:source_id <- $r1
	@DEBUG_VALUE: entropy_update:data <- $r2
	@DEBUG_VALUE: entropy_update:len <- $r3
	.save	{r4, r5, r6, r7, r8, r9, lr}
	push.w	{r4, r5, r6, r7, r8, r9, lr}
	.cfi_def_cfa_offset 28
	.cfi_offset lr, -4
	.cfi_offset r9, -8
	.cfi_offset r8, -12
	.cfi_offset r7, -16
	.cfi_offset r6, -20
	.cfi_offset r5, -24
	.cfi_offset r4, -28
	.pad	#36
	sub	sp, #36
	.cfi_def_cfa_offset 64
	mov	r5, r3
	mov	r8, r2
.Ltmp23:
	@DEBUG_VALUE: entropy_update:data <- $r8
	mov	r7, r1
.Ltmp24:
	@DEBUG_VALUE: entropy_update:source_id <- $r7
	@DEBUG_VALUE: entropy_update:len <- $r5
	@DEBUG_VALUE: entropy_update:data <- $r8
	@DEBUG_VALUE: entropy_update:source_id <- $r7
	.loc	5 189 9 prologue_end            @ ../../../components/network/thread/subg_openthread/third_party/mbedtls/repo/library/entropy.c:189:9
	cmp	r3, #33
	mov	r4, r0
.Ltmp25:
	@DEBUG_VALUE: entropy_update:ctx <- $r4
	@DEBUG_VALUE: entropy_update:ret <- 0
	@DEBUG_VALUE: entropy_update:p <- undef
	@DEBUG_VALUE: entropy_update:use_len <- $r5
	@DEBUG_VALUE: entropy_update:ctx <- $r4
	blo	.LBB4_3
.Ltmp26:
@ %bb.1:
	@DEBUG_VALUE: entropy_update:data <- $r8
	@DEBUG_VALUE: entropy_update:source_id <- $r7
	@DEBUG_VALUE: entropy_update:use_len <- $r5
	@DEBUG_VALUE: entropy_update:len <- $r5
	@DEBUG_VALUE: entropy_update:ctx <- $r4
	@DEBUG_VALUE: entropy_update:ret <- 0
	.loc	5 0 9 is_stmt 0                 @ ../../../components/network/thread/subg_openthread/third_party/mbedtls/repo/library/entropy.c:0:9
	add.w	r9, sp, #2
.Ltmp27:
	.loc	5 195 21 is_stmt 1              @ ../../../components/network/thread/subg_openthread/third_party/mbedtls/repo/library/entropy.c:195:21
	mov	r0, r8
	mov	r1, r5
	mov	r2, r9
	movs	r3, #0
	bl	mbedtls_sha256_ret
.Ltmp28:
	mov	r6, r0
.Ltmp29:
	@DEBUG_VALUE: entropy_update:ret <- $r6
	.loc	5 195 13 is_stmt 0              @ ../../../components/network/thread/subg_openthread/third_party/mbedtls/repo/library/entropy.c:195:13
	cbnz	r0, .LBB4_7
.Ltmp30:
@ %bb.2:
	@DEBUG_VALUE: entropy_update:data <- $r8
	@DEBUG_VALUE: entropy_update:source_id <- $r7
	@DEBUG_VALUE: entropy_update:ret <- $r6
	@DEBUG_VALUE: entropy_update:use_len <- $r5
	@DEBUG_VALUE: entropy_update:len <- $r5
	@DEBUG_VALUE: entropy_update:ctx <- $r4
	.loc	5 0 13                          @ ../../../components/network/thread/subg_openthread/third_party/mbedtls/repo/library/entropy.c:0:13
	movs	r5, #32
.Ltmp31:
	mov	r8, r9
.Ltmp32:
.LBB4_3:
	@DEBUG_VALUE: entropy_update:source_id <- $r7
	@DEBUG_VALUE: entropy_update:ctx <- $r4
	@DEBUG_VALUE: entropy_update:source_id <- $r7
	@DEBUG_VALUE: entropy_update:use_len <- $r5
	@DEBUG_VALUE: entropy_update:p <- $r8
	.loc	5 220 14 is_stmt 1              @ ../../../components/network/thread/subg_openthread/third_party/mbedtls/repo/library/entropy.c:220:14
	ldr	r0, [r4]
.Ltmp33:
	.loc	5 202 15                        @ ../../../components/network/thread/subg_openthread/third_party/mbedtls/repo/library/entropy.c:202:15
	strb.w	r7, [sp, #34]
	.loc	5 203 15                        @ ../../../components/network/thread/subg_openthread/third_party/mbedtls/repo/library/entropy.c:203:15
	strb.w	r5, [sp, #35]
.Ltmp34:
	.loc	5 220 39                        @ ../../../components/network/thread/subg_openthread/third_party/mbedtls/repo/library/entropy.c:220:39
	cbnz	r0, .LBB4_5
.Ltmp35:
@ %bb.4:
	@DEBUG_VALUE: entropy_update:p <- $r8
	@DEBUG_VALUE: entropy_update:source_id <- $r7
	@DEBUG_VALUE: entropy_update:use_len <- $r5
	@DEBUG_VALUE: entropy_update:ctx <- $r4
	.loc	5 221 50                        @ ../../../components/network/thread/subg_openthread/third_party/mbedtls/repo/library/entropy.c:221:50
	adds	r0, r4, #4
	.loc	5 221 17 is_stmt 0              @ ../../../components/network/thread/subg_openthread/third_party/mbedtls/repo/library/entropy.c:221:17
	movs	r1, #0
	bl	mbedtls_sha256_starts_ret
.Ltmp36:
	mov	r6, r0
.Ltmp37:
	@DEBUG_VALUE: entropy_update:ret <- $r6
	.loc	5 220 9 is_stmt 1               @ ../../../components/network/thread/subg_openthread/third_party/mbedtls/repo/library/entropy.c:220:9
	cbnz	r0, .LBB4_7
.Ltmp38:
.LBB4_5:
	@DEBUG_VALUE: entropy_update:p <- $r8
	@DEBUG_VALUE: entropy_update:source_id <- $r7
	@DEBUG_VALUE: entropy_update:use_len <- $r5
	@DEBUG_VALUE: entropy_update:ctx <- $r4
	.loc	5 0 9 is_stmt 0                 @ ../../../components/network/thread/subg_openthread/third_party/mbedtls/repo/library/entropy.c:0:9
	movs	r0, #1
.Ltmp39:
	.loc	5 224 34 is_stmt 1              @ ../../../components/network/thread/subg_openthread/third_party/mbedtls/repo/library/entropy.c:224:34
	str	r0, [r4], #4
.Ltmp40:
	.loc	5 0 34 is_stmt 0                @ ../../../components/network/thread/subg_openthread/third_party/mbedtls/repo/library/entropy.c:0:34
	add.w	r1, sp, #34
.Ltmp41:
	.loc	5 225 17 is_stmt 1              @ ../../../components/network/thread/subg_openthread/third_party/mbedtls/repo/library/entropy.c:225:17
	mov	r0, r4
	movs	r2, #2
	bl	mbedtls_sha256_update_ret
.Ltmp42:
	mov	r6, r0
.Ltmp43:
	@DEBUG_VALUE: entropy_update:ret <- $r6
	.loc	5 225 9 is_stmt 0               @ ../../../components/network/thread/subg_openthread/third_party/mbedtls/repo/library/entropy.c:225:9
	cbnz	r0, .LBB4_7
.Ltmp44:
@ %bb.6:
	@DEBUG_VALUE: entropy_update:p <- $r8
	@DEBUG_VALUE: entropy_update:source_id <- $r7
	@DEBUG_VALUE: entropy_update:ret <- $r6
	@DEBUG_VALUE: entropy_update:use_len <- $r5
	.loc	5 227 11 is_stmt 1              @ ../../../components/network/thread/subg_openthread/third_party/mbedtls/repo/library/entropy.c:227:11
	mov	r0, r4
	mov	r1, r8
	mov	r2, r5
	bl	mbedtls_sha256_update_ret
.Ltmp45:
	mov	r6, r0
.Ltmp46:
	@DEBUG_VALUE: entropy_update:ret <- $r6
.LBB4_7:
	@DEBUG_VALUE: entropy_update:source_id <- $r7
	@DEBUG_VALUE: entropy_update:ret <- $r6
	@DEBUG_VALUE: entropy_update:use_len <- $r5
	@DEBUG_VALUE: entropy_update:ret <- $r6
	@DEBUG_LABEL: entropy_update:cleanup
	.loc	5 0 11 is_stmt 0                @ ../../../components/network/thread/subg_openthread/third_party/mbedtls/repo/library/entropy.c:0:11
	add.w	r0, sp, #2
	.loc	5 231 5 is_stmt 1               @ ../../../components/network/thread/subg_openthread/third_party/mbedtls/repo/library/entropy.c:231:5
	movs	r1, #32
	bl	mbedtls_platform_zeroize
.Ltmp47:
	.loc	5 233 5                         @ ../../../components/network/thread/subg_openthread/third_party/mbedtls/repo/library/entropy.c:233:5
	mov	r0, r6
	add	sp, #36
	pop.w	{r4, r5, r6, r7, r8, r9, pc}
.Ltmp48:
.Lfunc_end4:
	.size	entropy_update, .Lfunc_end4-entropy_update
	.cfi_endproc
	.cantunwind
	.fnend
                                        @ -- End function
	.section	.text.mbedtls_entropy_gather,"ax",%progbits
	.hidden	mbedtls_entropy_gather          @ -- Begin function mbedtls_entropy_gather
	.globl	mbedtls_entropy_gather
	.p2align	1
	.type	mbedtls_entropy_gather,%function
	.code	16                              @ @mbedtls_entropy_gather
	.thumb_func
mbedtls_entropy_gather:
.Lfunc_begin5:
	.loc	5 310 0                         @ ../../../components/network/thread/subg_openthread/third_party/mbedtls/repo/library/entropy.c:310:0
	.fnstart
	.cfi_startproc
@ %bb.0:
	@DEBUG_VALUE: mbedtls_entropy_gather:ctx <- $r0
	@DEBUG_VALUE: mbedtls_entropy_gather:ctx <- $r0
	@DEBUG_VALUE: mbedtls_entropy_gather:ctx <- $r0
	@DEBUG_VALUE: mbedtls_entropy_gather:ret <- -110
	.loc	5 318 11 prologue_end           @ ../../../components/network/thread/subg_openthread/third_party/mbedtls/repo/library/entropy.c:318:11
	b	entropy_gather_internal
.Ltmp49:
.Lfunc_end5:
	.size	mbedtls_entropy_gather, .Lfunc_end5-mbedtls_entropy_gather
	.cfi_endproc
	.cantunwind
	.fnend
                                        @ -- End function
	.section	.text.entropy_gather_internal,"ax",%progbits
	.p2align	1                               @ -- Begin function entropy_gather_internal
	.type	entropy_gather_internal,%function
	.code	16                              @ @entropy_gather_internal
	.thumb_func
entropy_gather_internal:
.Lfunc_begin6:
	.loc	5 260 0                         @ ../../../components/network/thread/subg_openthread/third_party/mbedtls/repo/library/entropy.c:260:0
	.fnstart
	.cfi_startproc
@ %bb.0:
	@DEBUG_VALUE: entropy_gather_internal:ctx <- $r0
	.save	{r4, r5, r6, r7, r8, r9, r10, r11, lr}
	push.w	{r4, r5, r6, r7, r8, r9, r10, r11, lr}
	.cfi_def_cfa_offset 36
	.cfi_offset lr, -4
	.cfi_offset r11, -8
	.cfi_offset r10, -12
	.cfi_offset r9, -16
	.cfi_offset r8, -20
	.cfi_offset r7, -24
	.cfi_offset r6, -28
	.cfi_offset r5, -32
	.cfi_offset r4, -36
	.pad	#132
	sub	sp, #132
	.cfi_def_cfa_offset 168
	mov	r11, r0
.Ltmp50:
	@DEBUG_VALUE: entropy_gather_internal:have_one_strong <- 0
	@DEBUG_VALUE: entropy_gather_internal:ret <- -60
	@DEBUG_VALUE: entropy_gather_internal:ctx <- $r11
	.loc	5 267 14 prologue_end           @ ../../../components/network/thread/subg_openthread/third_party/mbedtls/repo/library/entropy.c:267:14
	ldr	r0, [r0, #112]
.Ltmp51:
	.loc	5 267 9 is_stmt 0               @ ../../../components/network/thread/subg_openthread/third_party/mbedtls/repo/library/entropy.c:267:9
	cbz	r0, .LBB6_9
.Ltmp52:
@ %bb.1:
	@DEBUG_VALUE: entropy_gather_internal:ctx <- $r11
	@DEBUG_VALUE: entropy_gather_internal:ret <- -60
	@DEBUG_VALUE: entropy_gather_internal:have_one_strong <- 0
	@DEBUG_VALUE: entropy_gather_internal:ret <- -60
	@DEBUG_VALUE: entropy_gather_internal:have_one_strong <- 0
	@DEBUG_VALUE: entropy_gather_internal:i <- 0
	.loc	5 273 5 is_stmt 1               @ ../../../components/network/thread/subg_openthread/third_party/mbedtls/repo/library/entropy.c:273:5
	cmp	r0, #1
	blt	.LBB6_10
.Ltmp53:
@ %bb.2:
	@DEBUG_VALUE: entropy_gather_internal:ctx <- $r11
	@DEBUG_VALUE: entropy_gather_internal:i <- 0
	@DEBUG_VALUE: entropy_gather_internal:ret <- -60
	@DEBUG_VALUE: entropy_gather_internal:have_one_strong <- 0
	add.w	r6, r11, #116
	mov.w	r9, #0
	add.w	r10, sp, #4
	mov	r8, sp
	movs	r5, #0
	movs	r4, #0
.Ltmp54:
	.p2align	2
.LBB6_3:                                @ =>This Inner Loop Header: Depth=1
	@DEBUG_VALUE: entropy_gather_internal:ctx <- $r11
	@DEBUG_VALUE: entropy_gather_internal:have_one_strong <- $r5
	@DEBUG_VALUE: entropy_gather_internal:i <- $r4
	.loc	5 275 28                        @ ../../../components/network/thread/subg_openthread/third_party/mbedtls/repo/library/entropy.c:275:28
	ldr	r1, [r6, #16]
.Ltmp55:
	.loc	5 279 36                        @ ../../../components/network/thread/subg_openthread/third_party/mbedtls/repo/library/entropy.c:279:36
	ldrd	r7, r0, [r6]
.Ltmp56:
	.loc	5 275 13                        @ ../../../components/network/thread/subg_openthread/third_party/mbedtls/repo/library/entropy.c:275:13
	cmp	r1, #1
	it	eq
	moveq	r5, r1
.Ltmp57:
	@DEBUG_VALUE: entropy_gather_internal:olen <- 0
	@DEBUG_VALUE: entropy_gather_internal:have_one_strong <- $r5
	.loc	5 279 21                        @ ../../../components/network/thread/subg_openthread/third_party/mbedtls/repo/library/entropy.c:279:21
	mov	r1, r10
	movs	r2, #128
	mov	r3, r8
.Ltmp58:
	.loc	5 278 14                        @ ../../../components/network/thread/subg_openthread/third_party/mbedtls/repo/library/entropy.c:278:14
	str.w	r9, [sp]
.Ltmp59:
	@DEBUG_VALUE: entropy_gather_internal:olen <- [DW_OP_deref] $sp
	.loc	5 279 21                        @ ../../../components/network/thread/subg_openthread/third_party/mbedtls/repo/library/entropy.c:279:21
	blx	r7
.Ltmp60:
	@DEBUG_VALUE: entropy_gather_internal:ret <- $r0
	.loc	5 279 13 is_stmt 0              @ ../../../components/network/thread/subg_openthread/third_party/mbedtls/repo/library/entropy.c:279:13
	cbnz	r0, .LBB6_11
.Ltmp61:
@ %bb.4:                                @   in Loop: Header=BB6_3 Depth=1
	@DEBUG_VALUE: entropy_gather_internal:ctx <- $r11
	@DEBUG_VALUE: entropy_gather_internal:have_one_strong <- $r5
	@DEBUG_VALUE: entropy_gather_internal:i <- $r4
	@DEBUG_VALUE: entropy_gather_internal:ret <- $r0
	@DEBUG_VALUE: entropy_gather_internal:olen <- [DW_OP_deref] $sp
	.loc	5 288 13 is_stmt 1              @ ../../../components/network/thread/subg_openthread/third_party/mbedtls/repo/library/entropy.c:288:13
	ldr	r3, [sp]
.Ltmp62:
	@DEBUG_VALUE: entropy_gather_internal:olen <- $r3
	.loc	5 288 13 is_stmt 0              @ ../../../components/network/thread/subg_openthread/third_party/mbedtls/repo/library/entropy.c:288:13
	cbz	r3, .LBB6_7
.Ltmp63:
@ %bb.5:                                @   in Loop: Header=BB6_3 Depth=1
	@DEBUG_VALUE: entropy_gather_internal:ctx <- $r11
	@DEBUG_VALUE: entropy_gather_internal:have_one_strong <- $r5
	@DEBUG_VALUE: entropy_gather_internal:i <- $r4
	@DEBUG_VALUE: entropy_gather_internal:olen <- $r3
	@DEBUG_VALUE: entropy_gather_internal:ret <- $r0
	.loc	5 290 25 is_stmt 1              @ ../../../components/network/thread/subg_openthread/third_party/mbedtls/repo/library/entropy.c:290:25
	uxtb	r1, r4
	mov	r0, r11
.Ltmp64:
	mov	r2, r10
	bl	entropy_update
.Ltmp65:
	@DEBUG_VALUE: entropy_gather_internal:ret <- $r0
	.loc	5 290 17 is_stmt 0              @ ../../../components/network/thread/subg_openthread/third_party/mbedtls/repo/library/entropy.c:290:17
	cbnz	r0, .LBB6_14
.Ltmp66:
@ %bb.6:                                @   in Loop: Header=BB6_3 Depth=1
	@DEBUG_VALUE: entropy_gather_internal:ctx <- $r11
	@DEBUG_VALUE: entropy_gather_internal:have_one_strong <- $r5
	@DEBUG_VALUE: entropy_gather_internal:i <- $r4
	@DEBUG_VALUE: entropy_gather_internal:ret <- $r0
	.loc	5 293 36 is_stmt 1              @ ../../../components/network/thread/subg_openthread/third_party/mbedtls/repo/library/entropy.c:293:36
	ldr	r0, [sp]
.Ltmp67:
	@DEBUG_VALUE: entropy_gather_internal:olen <- $r0
	.loc	5 293 33 is_stmt 0              @ ../../../components/network/thread/subg_openthread/third_party/mbedtls/repo/library/entropy.c:293:33
	ldr	r1, [r6, #8]
	add	r0, r1
.Ltmp68:
	str	r0, [r6, #8]
.Ltmp69:
.LBB6_7:                                @   in Loop: Header=BB6_3 Depth=1
	@DEBUG_VALUE: entropy_gather_internal:ctx <- $r11
	@DEBUG_VALUE: entropy_gather_internal:have_one_strong <- $r5
	@DEBUG_VALUE: entropy_gather_internal:i <- $r4
	@DEBUG_VALUE: entropy_gather_internal:ret <- 0
	.loc	5 273 26 is_stmt 1              @ ../../../components/network/thread/subg_openthread/third_party/mbedtls/repo/library/entropy.c:273:26
	ldr.w	r0, [r11, #112]
	.loc	5 273 41 is_stmt 0              @ ../../../components/network/thread/subg_openthread/third_party/mbedtls/repo/library/entropy.c:273:41
	adds	r4, #1
.Ltmp70:
	@DEBUG_VALUE: entropy_gather_internal:i <- $r4
	@DEBUG_VALUE: entropy_gather_internal:have_one_strong <- undef
	.loc	5 273 5                         @ ../../../components/network/thread/subg_openthread/third_party/mbedtls/repo/library/entropy.c:273:5
	cmp	r4, r0
.Ltmp71:
	.loc	5 273 19                        @ ../../../components/network/thread/subg_openthread/third_party/mbedtls/repo/library/entropy.c:273:19
	add.w	r6, r6, #20
.Ltmp72:
	.loc	5 273 5                         @ ../../../components/network/thread/subg_openthread/third_party/mbedtls/repo/library/entropy.c:273:5
	blt	.LBB6_3
.Ltmp73:
@ %bb.8:
	@DEBUG_VALUE: entropy_gather_internal:ctx <- $r11
	@DEBUG_VALUE: entropy_gather_internal:i <- $r4
	@DEBUG_VALUE: entropy_gather_internal:ret <- 0
	.loc	5 0 5                           @ ../../../components/network/thread/subg_openthread/third_party/mbedtls/repo/library/entropy.c:0:5
	movs	r7, #0
.Ltmp74:
	.loc	5 297 25 is_stmt 1              @ ../../../components/network/thread/subg_openthread/third_party/mbedtls/repo/library/entropy.c:297:25
	cmp	r5, #0
	it	eq
	mvneq	r7, #60
	b	.LBB6_12
.Ltmp75:
.LBB6_9:
	@DEBUG_VALUE: entropy_gather_internal:ctx <- $r11
	@DEBUG_VALUE: entropy_gather_internal:ret <- -60
	@DEBUG_VALUE: entropy_gather_internal:have_one_strong <- 0
	.loc	5 0 25 is_stmt 0                @ ../../../components/network/thread/subg_openthread/third_party/mbedtls/repo/library/entropy.c:0:25
	mvn	r7, #63
	b	.LBB6_13
.Ltmp76:
.LBB6_10:
	@DEBUG_VALUE: entropy_gather_internal:ctx <- $r11
	@DEBUG_VALUE: entropy_gather_internal:i <- 0
	@DEBUG_VALUE: entropy_gather_internal:ret <- -60
	@DEBUG_VALUE: entropy_gather_internal:have_one_strong <- 0
	mvn	r7, #60
	b	.LBB6_12
.Ltmp77:
.LBB6_11:
	@DEBUG_VALUE: entropy_gather_internal:ctx <- $r11
	@DEBUG_VALUE: entropy_gather_internal:have_one_strong <- $r5
	@DEBUG_VALUE: entropy_gather_internal:i <- $r4
	@DEBUG_VALUE: entropy_gather_internal:ret <- $r0
	@DEBUG_VALUE: entropy_gather_internal:olen <- [DW_OP_deref] $sp
	mov	r7, r0
.Ltmp78:
	@DEBUG_VALUE: entropy_gather_internal:ret <- $r7
	@DEBUG_VALUE: entropy_gather_internal:ret <- $r7
.LBB6_12:
	@DEBUG_VALUE: entropy_gather_internal:ctx <- $r11
	@DEBUG_VALUE: entropy_gather_internal:ret <- $r7
	@DEBUG_LABEL: entropy_gather_internal:cleanup
	add	r0, sp, #4
	.loc	5 301 5 is_stmt 1               @ ../../../components/network/thread/subg_openthread/third_party/mbedtls/repo/library/entropy.c:301:5
	movs	r1, #128
	bl	mbedtls_platform_zeroize
.Ltmp79:
.LBB6_13:
	@DEBUG_VALUE: entropy_gather_internal:ctx <- $r11
	.loc	5 304 1                         @ ../../../components/network/thread/subg_openthread/third_party/mbedtls/repo/library/entropy.c:304:1
	mov	r0, r7
	add	sp, #132
	pop.w	{r4, r5, r6, r7, r8, r9, r10, r11, pc}
.Ltmp80:
.LBB6_14:
	@DEBUG_VALUE: entropy_gather_internal:ctx <- $r11
	@DEBUG_VALUE: entropy_gather_internal:have_one_strong <- $r5
	@DEBUG_VALUE: entropy_gather_internal:i <- $r4
	@DEBUG_VALUE: entropy_gather_internal:ret <- $r0
	.loc	5 0 1 is_stmt 0                 @ ../../../components/network/thread/subg_openthread/third_party/mbedtls/repo/library/entropy.c:0:1
	mov	r7, r0
.Ltmp81:
	@DEBUG_VALUE: entropy_gather_internal:ret <- $r7
	@DEBUG_VALUE: entropy_gather_internal:ret <- $r7
	b	.LBB6_13
.Lfunc_end6:
	.size	entropy_gather_internal, .Lfunc_end6-entropy_gather_internal
	.cfi_endproc
	.cantunwind
	.fnend
                                        @ -- End function
	.section	.text.mbedtls_entropy_func,"ax",%progbits
	.hidden	mbedtls_entropy_func            @ -- Begin function mbedtls_entropy_func
	.globl	mbedtls_entropy_func
	.p2align	1
	.type	mbedtls_entropy_func,%function
	.code	16                              @ @mbedtls_entropy_func
	.thumb_func
mbedtls_entropy_func:
.Lfunc_begin7:
	.loc	5 329 0 is_stmt 1               @ ../../../components/network/thread/subg_openthread/third_party/mbedtls/repo/library/entropy.c:329:0
	.fnstart
	.cfi_startproc
@ %bb.0:
	@DEBUG_VALUE: mbedtls_entropy_func:data <- $r0
	@DEBUG_VALUE: mbedtls_entropy_func:output <- $r1
	@DEBUG_VALUE: mbedtls_entropy_func:len <- $r2
	@DEBUG_VALUE: mbedtls_entropy_func:len <- $r2
	@DEBUG_VALUE: mbedtls_entropy_func:output <- $r1
	.save	{r4, r5, r6, r7, r8, r9, r10, r11, lr}
	push.w	{r4, r5, r6, r7, r8, r9, r10, r11, lr}
	.cfi_def_cfa_offset 36
	.cfi_offset lr, -4
	.cfi_offset r11, -8
	.cfi_offset r10, -12
	.cfi_offset r9, -16
	.cfi_offset r8, -20
	.cfi_offset r7, -24
	.cfi_offset r6, -28
	.cfi_offset r5, -32
	.cfi_offset r4, -36
	.pad	#36
	sub	sp, #36
	.cfi_def_cfa_offset 72
.Ltmp82:
	.loc	5 335 9 prologue_end            @ ../../../components/network/thread/subg_openthread/third_party/mbedtls/repo/library/entropy.c:335:9
	cmp	r2, #32
.Ltmp83:
	@DEBUG_VALUE: mbedtls_entropy_func:ctx <- undef
	@DEBUG_VALUE: mbedtls_entropy_func:count <- 0
	@DEBUG_VALUE: mbedtls_entropy_func:data <- $r0
	bls	.LBB7_2
.Ltmp84:
@ %bb.1:
	@DEBUG_VALUE: mbedtls_entropy_func:len <- $r2
	@DEBUG_VALUE: mbedtls_entropy_func:output <- $r1
	@DEBUG_VALUE: mbedtls_entropy_func:data <- $r0
	@DEBUG_VALUE: mbedtls_entropy_func:count <- 0
	.loc	5 0 9 is_stmt 0                 @ ../../../components/network/thread/subg_openthread/third_party/mbedtls/repo/library/entropy.c:0:9
	mvn	r7, #59
	b	.LBB7_22
.Ltmp85:
.LBB7_2:
	@DEBUG_VALUE: mbedtls_entropy_func:len <- $r2
	@DEBUG_VALUE: mbedtls_entropy_func:output <- $r1
	@DEBUG_VALUE: mbedtls_entropy_func:data <- $r0
	@DEBUG_VALUE: mbedtls_entropy_func:count <- 0
	mov	r10, r2
.Ltmp86:
	@DEBUG_VALUE: mbedtls_entropy_func:len <- $r10
	@DEBUG_VALUE: mbedtls_entropy_func:len <- $r10
	mov	r8, r0
.Ltmp87:
	@DEBUG_VALUE: mbedtls_entropy_func:data <- $r8
	.loc	5 358 5 is_stmt 1               @ ../../../components/network/thread/subg_openthread/third_party/mbedtls/repo/library/entropy.c:358:5
	add.w	r11, r0, #124
	movs	r4, #0
	movw	r9, #257
	str	r1, [sp]                        @ 4-byte Spill
.Ltmp88:
	@DEBUG_VALUE: mbedtls_entropy_func:output <- [$sp+0]
	.p2align	2
.LBB7_3:                                @ =>This Loop Header: Depth=1
                                        @     Child Loop BB7_7 Depth 2
	@DEBUG_VALUE: mbedtls_entropy_func:output <- [$sp+0]
	@DEBUG_VALUE: mbedtls_entropy_func:len <- $r10
	@DEBUG_VALUE: mbedtls_entropy_func:data <- $r8
	@DEBUG_VALUE: mbedtls_entropy_func:count <- undef
	.loc	5 360 13                        @ ../../../components/network/thread/subg_openthread/third_party/mbedtls/repo/library/entropy.c:360:13
	cmp	r4, r9
	beq	.LBB7_19
.Ltmp89:
@ %bb.4:                                @   in Loop: Header=BB7_3 Depth=1
	@DEBUG_VALUE: mbedtls_entropy_func:output <- [$sp+0]
	@DEBUG_VALUE: mbedtls_entropy_func:len <- $r10
	@DEBUG_VALUE: mbedtls_entropy_func:data <- $r8
	@DEBUG_VALUE: mbedtls_entropy_func:count <- undef
	.loc	5 366 21                        @ ../../../components/network/thread/subg_openthread/third_party/mbedtls/repo/library/entropy.c:366:21
	mov	r0, r8
	bl	entropy_gather_internal
.Ltmp90:
	@DEBUG_VALUE: mbedtls_entropy_func:ret <- $r0
	.loc	5 366 13 is_stmt 0              @ ../../../components/network/thread/subg_openthread/third_party/mbedtls/repo/library/entropy.c:366:13
	cmp	r0, #0
	bne	.LBB7_20
.Ltmp91:
@ %bb.5:                                @   in Loop: Header=BB7_3 Depth=1
	@DEBUG_VALUE: mbedtls_entropy_func:output <- [$sp+0]
	@DEBUG_VALUE: mbedtls_entropy_func:len <- $r10
	@DEBUG_VALUE: mbedtls_entropy_func:data <- $r8
	@DEBUG_VALUE: mbedtls_entropy_func:ret <- $r0
	@DEBUG_VALUE: mbedtls_entropy_func:count <- undef
	@DEBUG_VALUE: mbedtls_entropy_func:strong_size <- 0
	@DEBUG_VALUE: mbedtls_entropy_func:thresholds_reached <- 1
	@DEBUG_VALUE: mbedtls_entropy_func:i <- 0
	.loc	5 371 30 is_stmt 1              @ ../../../components/network/thread/subg_openthread/third_party/mbedtls/repo/library/entropy.c:371:30
	ldr.w	r2, [r8, #112]
.Ltmp92:
	.loc	5 371 9 is_stmt 0               @ ../../../components/network/thread/subg_openthread/third_party/mbedtls/repo/library/entropy.c:371:9
	cmp	r2, #1
	blt	.LBB7_8
.Ltmp93:
@ %bb.6:                                @   in Loop: Header=BB7_3 Depth=1
	@DEBUG_VALUE: mbedtls_entropy_func:output <- [$sp+0]
	@DEBUG_VALUE: mbedtls_entropy_func:len <- $r10
	@DEBUG_VALUE: mbedtls_entropy_func:data <- $r8
	@DEBUG_VALUE: mbedtls_entropy_func:ret <- $r0
	@DEBUG_VALUE: mbedtls_entropy_func:i <- 0
	@DEBUG_VALUE: mbedtls_entropy_func:thresholds_reached <- 1
	@DEBUG_VALUE: mbedtls_entropy_func:strong_size <- 0
	.loc	5 0 9                           @ ../../../components/network/thread/subg_openthread/third_party/mbedtls/repo/library/entropy.c:0:9
	movs	r1, #1
	movs	r0, #0
.Ltmp94:
	mov	r3, r11
.Ltmp95:
	.p2align	2
.LBB7_7:                                @   Parent Loop BB7_3 Depth=1
                                        @ =>  This Inner Loop Header: Depth=2
	@DEBUG_VALUE: mbedtls_entropy_func:output <- [$sp+0]
	@DEBUG_VALUE: mbedtls_entropy_func:len <- $r10
	@DEBUG_VALUE: mbedtls_entropy_func:data <- $r8
	@DEBUG_VALUE: mbedtls_entropy_func:strong_size <- $r0
	@DEBUG_VALUE: mbedtls_entropy_func:thresholds_reached <- $r1
	@DEBUG_VALUE: mbedtls_entropy_func:i <- undef
	.loc	5 373 32 is_stmt 1              @ ../../../components/network/thread/subg_openthread/third_party/mbedtls/repo/library/entropy.c:373:32
	ldrd	r7, r5, [r3]
.Ltmp96:
	.loc	5 375 32                        @ ../../../components/network/thread/subg_openthread/third_party/mbedtls/repo/library/entropy.c:375:32
	ldr	r6, [r3, #8]
.Ltmp97:
	.loc	5 373 17                        @ ../../../components/network/thread/subg_openthread/third_party/mbedtls/repo/library/entropy.c:373:17
	cmp	r7, r5
	it	lo
	movlo	r1, #0
.Ltmp98:
	@DEBUG_VALUE: mbedtls_entropy_func:thresholds_reached <- $r1
	.loc	5 375 17                        @ ../../../components/network/thread/subg_openthread/third_party/mbedtls/repo/library/entropy.c:375:17
	cmp	r6, #1
	it	eq
	addeq	r0, r7
.Ltmp99:
	@DEBUG_VALUE: mbedtls_entropy_func:i <- [DW_OP_plus_uconst 1, DW_OP_stack_value] undef
	@DEBUG_VALUE: mbedtls_entropy_func:strong_size <- $r0
	.loc	5 371 23                        @ ../../../components/network/thread/subg_openthread/third_party/mbedtls/repo/library/entropy.c:371:23
	subs	r2, #1
	add.w	r3, r3, #20
.Ltmp100:
	.loc	5 371 9 is_stmt 0               @ ../../../components/network/thread/subg_openthread/third_party/mbedtls/repo/library/entropy.c:371:9
	bne	.LBB7_7
	b	.LBB7_9
.Ltmp101:
	.p2align	2
.LBB7_8:                                @   in Loop: Header=BB7_3 Depth=1
	@DEBUG_VALUE: mbedtls_entropy_func:output <- [$sp+0]
	@DEBUG_VALUE: mbedtls_entropy_func:len <- $r10
	@DEBUG_VALUE: mbedtls_entropy_func:data <- $r8
	@DEBUG_VALUE: mbedtls_entropy_func:ret <- $r0
	@DEBUG_VALUE: mbedtls_entropy_func:i <- 0
	@DEBUG_VALUE: mbedtls_entropy_func:thresholds_reached <- 1
	@DEBUG_VALUE: mbedtls_entropy_func:strong_size <- 0
	.loc	5 0 9                           @ ../../../components/network/thread/subg_openthread/third_party/mbedtls/repo/library/entropy.c:0:9
	movs	r0, #0
.Ltmp102:
	movs	r1, #1
.Ltmp103:
.LBB7_9:                                @   in Loop: Header=BB7_3 Depth=1
	@DEBUG_VALUE: mbedtls_entropy_func:output <- [$sp+0]
	@DEBUG_VALUE: mbedtls_entropy_func:len <- $r10
	@DEBUG_VALUE: mbedtls_entropy_func:data <- $r8
	.loc	5 378 5 is_stmt 1               @ ../../../components/network/thread/subg_openthread/third_party/mbedtls/repo/library/entropy.c:378:5
	cmp	r1, #0
.Ltmp104:
	.loc	5 0 0 is_stmt 0                 @ ../../../components/network/thread/subg_openthread/third_party/mbedtls/repo/library/entropy.c:0:0
	add.w	r4, r4, #1
.Ltmp105:
	@DEBUG_VALUE: mbedtls_entropy_func:count <- $r4
	.loc	5 378 5                         @ ../../../components/network/thread/subg_openthread/third_party/mbedtls/repo/library/entropy.c:378:5
	beq	.LBB7_3
.Ltmp106:
@ %bb.10:                               @   in Loop: Header=BB7_3 Depth=1
	@DEBUG_VALUE: mbedtls_entropy_func:output <- [$sp+0]
	@DEBUG_VALUE: mbedtls_entropy_func:len <- $r10
	@DEBUG_VALUE: mbedtls_entropy_func:data <- $r8
	@DEBUG_VALUE: mbedtls_entropy_func:count <- $r4
	cmp	r0, #32
	blo	.LBB7_3
.Ltmp107:
@ %bb.11:
	@DEBUG_VALUE: mbedtls_entropy_func:output <- [$sp+0]
	@DEBUG_VALUE: mbedtls_entropy_func:len <- $r10
	@DEBUG_VALUE: mbedtls_entropy_func:data <- $r8
	@DEBUG_VALUE: mbedtls_entropy_func:count <- $r4
	.loc	5 0 5                           @ ../../../components/network/thread/subg_openthread/third_party/mbedtls/repo/library/entropy.c:0:5
	add	r7, sp, #4
	.loc	5 381 5 is_stmt 1               @ ../../../components/network/thread/subg_openthread/third_party/mbedtls/repo/library/entropy.c:381:5
	mov	r0, r7
	movs	r1, #32
	bl	__aeabi_memclr4
.Ltmp108:
	.loc	5 410 50                        @ ../../../components/network/thread/subg_openthread/third_party/mbedtls/repo/library/entropy.c:410:50
	add.w	r9, r8, #4
	.loc	5 410 17 is_stmt 0              @ ../../../components/network/thread/subg_openthread/third_party/mbedtls/repo/library/entropy.c:410:17
	mov	r0, r9
	mov	r1, r7
	bl	mbedtls_sha256_finish_ret
.Ltmp109:
	mov	r7, r0
.Ltmp110:
	@DEBUG_VALUE: mbedtls_entropy_func:ret <- $r7
	.loc	5 410 9                         @ ../../../components/network/thread/subg_openthread/third_party/mbedtls/repo/library/entropy.c:410:9
	cbnz	r0, .LBB7_21
.Ltmp111:
@ %bb.12:
	@DEBUG_VALUE: mbedtls_entropy_func:output <- [$sp+0]
	@DEBUG_VALUE: mbedtls_entropy_func:len <- $r10
	@DEBUG_VALUE: mbedtls_entropy_func:data <- $r8
	@DEBUG_VALUE: mbedtls_entropy_func:ret <- $r7
	@DEBUG_VALUE: mbedtls_entropy_func:count <- $r4
	.loc	5 416 5 is_stmt 1               @ ../../../components/network/thread/subg_openthread/third_party/mbedtls/repo/library/entropy.c:416:5
	mov	r0, r9
	bl	mbedtls_sha256_free
.Ltmp112:
	.loc	5 417 5                         @ ../../../components/network/thread/subg_openthread/third_party/mbedtls/repo/library/entropy.c:417:5
	mov	r0, r9
	bl	mbedtls_sha256_init
.Ltmp113:
	.loc	5 418 17                        @ ../../../components/network/thread/subg_openthread/third_party/mbedtls/repo/library/entropy.c:418:17
	mov	r0, r9
	movs	r1, #0
	bl	mbedtls_sha256_starts_ret
.Ltmp114:
	mov	r7, r0
.Ltmp115:
	@DEBUG_VALUE: mbedtls_entropy_func:ret <- $r7
	.loc	5 418 9 is_stmt 0               @ ../../../components/network/thread/subg_openthread/third_party/mbedtls/repo/library/entropy.c:418:9
	cbnz	r0, .LBB7_21
.Ltmp116:
@ %bb.13:
	@DEBUG_VALUE: mbedtls_entropy_func:output <- [$sp+0]
	@DEBUG_VALUE: mbedtls_entropy_func:len <- $r10
	@DEBUG_VALUE: mbedtls_entropy_func:data <- $r8
	@DEBUG_VALUE: mbedtls_entropy_func:ret <- $r7
	@DEBUG_VALUE: mbedtls_entropy_func:count <- $r4
	.loc	5 0 9                           @ ../../../components/network/thread/subg_openthread/third_party/mbedtls/repo/library/entropy.c:0:9
	add	r1, sp, #4
.Ltmp117:
	.loc	5 420 17 is_stmt 1              @ ../../../components/network/thread/subg_openthread/third_party/mbedtls/repo/library/entropy.c:420:17
	mov	r0, r9
	movs	r2, #32
	bl	mbedtls_sha256_update_ret
.Ltmp118:
	mov	r7, r0
.Ltmp119:
	@DEBUG_VALUE: mbedtls_entropy_func:ret <- $r7
	.loc	5 420 9 is_stmt 0               @ ../../../components/network/thread/subg_openthread/third_party/mbedtls/repo/library/entropy.c:420:9
	cbnz	r0, .LBB7_21
.Ltmp120:
@ %bb.14:
	@DEBUG_VALUE: mbedtls_entropy_func:output <- [$sp+0]
	@DEBUG_VALUE: mbedtls_entropy_func:len <- $r10
	@DEBUG_VALUE: mbedtls_entropy_func:data <- $r8
	@DEBUG_VALUE: mbedtls_entropy_func:ret <- $r7
	@DEBUG_VALUE: mbedtls_entropy_func:count <- $r4
	.loc	5 0 9                           @ ../../../components/network/thread/subg_openthread/third_party/mbedtls/repo/library/entropy.c:0:9
	add	r0, sp, #4
.Ltmp121:
	.loc	5 427 17 is_stmt 1              @ ../../../components/network/thread/subg_openthread/third_party/mbedtls/repo/library/entropy.c:427:17
	movs	r1, #32
	mov	r2, r0
	movs	r3, #0
	bl	mbedtls_sha256_ret
.Ltmp122:
	mov	r7, r0
.Ltmp123:
	@DEBUG_VALUE: mbedtls_entropy_func:ret <- $r7
	.loc	5 427 9 is_stmt 0               @ ../../../components/network/thread/subg_openthread/third_party/mbedtls/repo/library/entropy.c:427:9
	cbnz	r0, .LBB7_21
.Ltmp124:
@ %bb.15:
	@DEBUG_VALUE: mbedtls_entropy_func:output <- [$sp+0]
	@DEBUG_VALUE: mbedtls_entropy_func:len <- $r10
	@DEBUG_VALUE: mbedtls_entropy_func:data <- $r8
	@DEBUG_VALUE: mbedtls_entropy_func:ret <- $r7
	@DEBUG_VALUE: mbedtls_entropy_func:count <- $r4
	@DEBUG_VALUE: mbedtls_entropy_func:i <- 0
	.loc	5 432 26 is_stmt 1              @ ../../../components/network/thread/subg_openthread/third_party/mbedtls/repo/library/entropy.c:432:26
	ldr.w	r0, [r8, #112]
.Ltmp125:
	.loc	5 432 5 is_stmt 0               @ ../../../components/network/thread/subg_openthread/third_party/mbedtls/repo/library/entropy.c:432:5
	cmp	r0, #1
	blt	.LBB7_18
.Ltmp126:
@ %bb.16:
	@DEBUG_VALUE: mbedtls_entropy_func:output <- [$sp+0]
	@DEBUG_VALUE: mbedtls_entropy_func:len <- $r10
	@DEBUG_VALUE: mbedtls_entropy_func:data <- $r8
	@DEBUG_VALUE: mbedtls_entropy_func:ret <- $r7
	@DEBUG_VALUE: mbedtls_entropy_func:count <- $r4
	@DEBUG_VALUE: mbedtls_entropy_func:i <- 0
	.loc	5 0 5                           @ ../../../components/network/thread/subg_openthread/third_party/mbedtls/repo/library/entropy.c:0:5
	movs	r1, #0
.Ltmp127:
.LBB7_17:                               @ =>This Inner Loop Header: Depth=1
	@DEBUG_VALUE: mbedtls_entropy_func:output <- [$sp+0]
	@DEBUG_VALUE: mbedtls_entropy_func:len <- $r10
	@DEBUG_VALUE: mbedtls_entropy_func:data <- $r8
	@DEBUG_VALUE: mbedtls_entropy_func:ret <- $r7
	@DEBUG_VALUE: mbedtls_entropy_func:count <- $r4
	@DEBUG_VALUE: mbedtls_entropy_func:i <- undef
	.loc	5 432 19                        @ ../../../components/network/thread/subg_openthread/third_party/mbedtls/repo/library/entropy.c:432:19
	subs	r0, #1
	.loc	5 433 29 is_stmt 1              @ ../../../components/network/thread/subg_openthread/third_party/mbedtls/repo/library/entropy.c:433:29
	str	r1, [r11], #20
.Ltmp128:
	@DEBUG_VALUE: mbedtls_entropy_func:i <- [DW_OP_plus_uconst 1, DW_OP_stack_value] undef
	.loc	5 432 5                         @ ../../../components/network/thread/subg_openthread/third_party/mbedtls/repo/library/entropy.c:432:5
	bne	.LBB7_17
.Ltmp129:
.LBB7_18:
	@DEBUG_VALUE: mbedtls_entropy_func:output <- [$sp+0]
	@DEBUG_VALUE: mbedtls_entropy_func:len <- $r10
	@DEBUG_VALUE: mbedtls_entropy_func:data <- $r8
	@DEBUG_VALUE: mbedtls_entropy_func:ret <- $r7
	@DEBUG_VALUE: mbedtls_entropy_func:count <- $r4
	.loc	5 435 5                         @ ../../../components/network/thread/subg_openthread/third_party/mbedtls/repo/library/entropy.c:435:5
	ldr	r0, [sp]                        @ 4-byte Reload
.Ltmp130:
	@DEBUG_VALUE: mbedtls_entropy_func:output <- $r0
	.loc	5 0 5 is_stmt 0                 @ ../../../components/network/thread/subg_openthread/third_party/mbedtls/repo/library/entropy.c:0:5
	add	r1, sp, #4
	.loc	5 435 5                         @ ../../../components/network/thread/subg_openthread/third_party/mbedtls/repo/library/entropy.c:435:5
	mov	r2, r10
	bl	__aeabi_memcpy
.Ltmp131:
	@DEBUG_VALUE: mbedtls_entropy_func:output <- [DW_OP_LLVM_entry_value 1] $r1
	.loc	5 0 5                           @ ../../../components/network/thread/subg_openthread/third_party/mbedtls/repo/library/entropy.c:0:5
	movs	r7, #0
.Ltmp132:
	@DEBUG_VALUE: mbedtls_entropy_func:ret <- 0
	b	.LBB7_21
.Ltmp133:
.LBB7_19:
	@DEBUG_VALUE: mbedtls_entropy_func:output <- [$sp+0]
	@DEBUG_VALUE: mbedtls_entropy_func:len <- $r10
	@DEBUG_VALUE: mbedtls_entropy_func:data <- $r8
	mvn	r7, #59
	b	.LBB7_21
.Ltmp134:
.LBB7_20:
	@DEBUG_VALUE: mbedtls_entropy_func:output <- [$sp+0]
	@DEBUG_VALUE: mbedtls_entropy_func:len <- $r10
	@DEBUG_VALUE: mbedtls_entropy_func:data <- $r8
	@DEBUG_VALUE: mbedtls_entropy_func:ret <- $r0
	mov	r7, r0
.Ltmp135:
	@DEBUG_VALUE: mbedtls_entropy_func:ret <- $r7
	@DEBUG_VALUE: mbedtls_entropy_func:ret <- $r7
.LBB7_21:
	@DEBUG_VALUE: mbedtls_entropy_func:len <- $r10
	@DEBUG_VALUE: mbedtls_entropy_func:data <- $r8
	@DEBUG_VALUE: mbedtls_entropy_func:ret <- $r7
	@DEBUG_LABEL: mbedtls_entropy_func:exit
	add	r0, sp, #4
	.loc	5 440 5 is_stmt 1               @ ../../../components/network/thread/subg_openthread/third_party/mbedtls/repo/library/entropy.c:440:5
	movs	r1, #32
	bl	mbedtls_platform_zeroize
.Ltmp136:
.LBB7_22:
	.loc	5 448 1                         @ ../../../components/network/thread/subg_openthread/third_party/mbedtls/repo/library/entropy.c:448:1
	mov	r0, r7
	add	sp, #36
	pop.w	{r4, r5, r6, r7, r8, r9, r10, r11, pc}
.Ltmp137:
.Lfunc_end7:
	.size	mbedtls_entropy_func, .Lfunc_end7-mbedtls_entropy_func
	.cfi_endproc
	.cantunwind
	.fnend
                                        @ -- End function
	.section	".note.GNU-stack","",%progbits
	.eabi_attribute	30, 3	@ Tag_ABI_optimization_goals
	.ARM_attribute	16, 1	@ Tag_AV_eba