	.text
	.syntax unified
	.eabi_attribute	67, "2.09"	@ Tag_conformance
	.cpu	cortex-m3
	.eabi_attribute	6, 10	@ Tag_CPU_arch
	.eabi_attribute	7, 77	@ Tag_CPU_arch_profile
	.eabi_attribute	8, 0	@ Tag_ARM_ISA_use
	.eabi_attribute	9, 2	@ Tag_THUMB_ISA_use
	.eabi_attribute	34, 1	@ Tag_CPU_unaligned_access
	.eabi_attribute	17, 1	@ Tag_ABI_PCS_GOT_use
	.eabi_attribute	20, 2	@ Tag_ABI_FP_denormal
	.eabi_attribute	21, 0	@ Tag_ABI_FP_exceptions
	.eabi_attribute	23, 1	@ Tag_ABI_FP_number_model
	.eabi_attribute	24, 1	@ Tag_ABI_align_needed
	.eabi_attribute	25, 1	@ Tag_ABI_align_preserved
	.eabi_attribute	38, 1	@ Tag_ABI_FP_16bit_format
	.eabi_attribute	18, 4	@ Tag_ABI_PCS_wchar_t
	.eabi_attribute	26, 2	@ Tag_ABI_enum_size
	.eabi_attribute	14, 0	@ Tag_ABI_PCS_R9_use
	.file	"frame_builder.cpp"
	.file	1 "D:\\Rafael-IoT-SDK-Internal-main\\examples\\das_subg_thread\\keil" "../../../components/network/thread/subg_openthread/include\\openthread/error.h"
	.file	2 "D:\\Rafael-IoT-SDK-Internal-main\\examples\\das_subg_thread\\keil" "../../../components/network/thread/subg_openthread/src/core\\common/error.hpp"
	.file	3 "C:\\Keil_v5\\ARM\\ARMCLANG\\Bin\\..\\include" "stdint.h"
	.file	4 "D:\\Rafael-IoT-SDK-Internal-main\\examples\\das_subg_thread\\keil" "../../../components/network/thread/subg_openthread/include\\openthread/platform/radio.h"
	.file	5 "D:\\Rafael-IoT-SDK-Internal-main\\examples\\das_subg_thread\\keil" "../../../components/network/thread/subg_openthread/src/core\\common/equatable.hpp"
	.file	6 "D:\\Rafael-IoT-SDK-Internal-main\\examples\\das_subg_thread\\keil" "../../../components/network/thread/subg_openthread/src/core\\common/clearable.hpp"
	.file	7 "D:\\Rafael-IoT-SDK-Internal-main\\examples\\das_subg_thread\\keil" "../../../components/network/thread/subg_openthread/src/core\\mac/mac_types.hpp"
	.file	8 "D:\\Rafael-IoT-SDK-Internal-main\\examples\\das_subg_thread\\keil" "../../../components/network/thread/subg_openthread/src/core\\common/message.hpp"
	.file	9 "D:\\Rafael-IoT-SDK-Internal-main\\examples\\das_subg_thread\\keil" "../../../components/network/thread/subg_openthread/include\\openthread/message.h"
	.file	10 "D:\\Rafael-IoT-SDK-Internal-main\\examples\\das_subg_thread\\keil" "../../../components/network/thread/subg_openthread/include\\openthread/platform/messagepool.h"
	.file	11 "D:\\Rafael-IoT-SDK-Internal-main\\examples\\das_subg_thread\\keil" "../../../components/network/thread/subg_openthread/src/core\\common/linked_list.hpp"
	.file	12 "D:\\Rafael-IoT-SDK-Internal-main\\examples\\das_subg_thread\\keil" "../../../components/network/thread/subg_openthread/src/core\\common/locator.hpp"
	.file	13 "D:\\Rafael-IoT-SDK-Internal-main\\examples\\das_subg_thread\\keil" "../../../components/network/thread/subg_openthread/src/core\\common/non_copyable.hpp"
	.file	14 "D:\\Rafael-IoT-SDK-Internal-main\\examples\\das_subg_thread\\keil" "../../../components/network/thread/subg_openthread/src/core\\common/pool.hpp"
	.file	15 "D:\\Rafael-IoT-SDK-Internal-main\\examples\\das_subg_thread\\keil" "../../../components/network/thread/subg_openthread/src/core\\common/time.hpp"
	.file	16 "D:\\Rafael-IoT-SDK-Internal-main\\examples\\das_subg_thread\\keil" "../../../components/network/thread/subg_openthread/src/core\\thread/link_quality.hpp"
	.file	17 "D:\\Rafael-IoT-SDK-Internal-main\\examples\\das_subg_thread\\keil" "../../../components/network/thread/subg_openthread/src/core\\common/bit_vector.hpp"
	.file	18 "D:\\Rafael-IoT-SDK-Internal-main\\examples\\das_subg_thread\\keil" "../../../components/network/thread/subg_openthread/src/core\\thread/child_mask.hpp"
	.file	19 "D:\\Rafael-IoT-SDK-Internal-main\\examples\\das_subg_thread\\keil" "../../../components/network/thread/subg_openthread/src/core\\common/data.hpp"
	.file	20 "D:\\Rafael-IoT-SDK-Internal-main\\examples\\das_subg_thread\\keil" "../../../components/network/thread/subg_openthread/src/core\\common/iterator_utils.hpp"
	.file	21 "D:\\Rafael-IoT-SDK-Internal-main\\examples\\das_subg_thread\\keil" "../../../components/network/thread/subg_openthread/src/core\\common/type_traits.hpp"
	.file	22 "C:\\Keil_v5\\ARM\\ARMCLANG\\Bin\\..\\include" "string.h"
	.file	23 "C:\\Keil_v5\\ARM\\ARMCLANG\\Bin\\..\\include" "stdlib.h"
	.file	24 "C:\\Keil_v5\\ARM\\ARMCLANG\\Bin\\..\\include" "stdarg.h"
	.file	25 "C:\\Keil_v5\\ARM\\ARMCLANG\\Bin\\..\\include" "ctype.h"
	.file	26 "C:\\Keil_v5\\ARM\\ARMCLANG\\Bin\\..\\include" "stdio.h"
	.file	27 "C:\\Keil_v5\\ARM\\ARMCLANG\\Bin\\..\\include" "stddef.h"
	.file	28 "C:\\Keil_v5\\ARM\\ARMCLANG\\Bin\\..\\include\\libcxx" "__nullptr"
	.file	29 "C:\\Keil_v5\\ARM\\ARMCLANG\\Bin\\..\\include\\libcxx" "stddef.h"
	.file	30 "D:\\Rafael-IoT-SDK-Internal-main\\examples\\das_subg_thread\\keil" "../../../components/network/thread/subg_openthread/src/core\\net/ip6_address.hpp"
	.section	.text._ZN2ot12FrameBuilder4InitEPvt,"ax",%progbits
	.hidden	_ZN2ot12FrameBuilder4InitEPvt   @ -- Begin function _ZN2ot12FrameBuilder4InitEPvt
	.globl	_ZN2ot12FrameBuilder4InitEPvt
	.p2align	1
	.type	_ZN2ot12FrameBuilder4InitEPvt,%function
	.code	16                              @ @_ZN2ot12FrameBuilder4InitEPvt
	.thumb_func
_ZN2ot12FrameBuilder4InitEPvt:
.Lfunc_begin0:
	.file	31 "D:\\Rafael-IoT-SDK-Internal-main\\examples\\das_subg_thread\\keil" "../../../components/network/thread/subg_openthread/src/core/common/frame_builder.cpp"
	.loc	31 49 0                         @ ../../../components/network/thread/subg_openthread/src/core/common/frame_builder.cpp:49:0
	.fnstart
	.cfi_sections .debug_frame
	.cfi_startproc
@ %bb.0:
	@DEBUG_VALUE: Init:this <- $r0
	@DEBUG_VALUE: Init:this <- $r0
	@DEBUG_VALUE: Init:aBuffer <- $r1
	@DEBUG_VALUE: Init:aBuffer <- $r1
	@DEBUG_VALUE: Init:aLength <- $r2
	@DEBUG_VALUE: Init:aLength <- $r2
	.loc	31 50 16 prologue_end           @ ../../../components/network/thread/subg_openthread/src/core/common/frame_builder.cpp:50:16
	str	r1, [r0]
	movs	r1, #0
.Ltmp0:
	@DEBUG_VALUE: Init:aBuffer <- [DW_OP_LLVM_entry_value 1] $r1
	.loc	31 51 16                        @ ../../../components/network/thread/subg_openthread/src/core/common/frame_builder.cpp:51:16
	strh	r1, [r0, #4]
	.loc	31 52 16                        @ ../../../components/network/thread/subg_openthread/src/core/common/frame_builder.cpp:52:16
	strh	r2, [r0, #6]
	.loc	31 53 1                         @ ../../../components/network/thread/subg_openthread/src/core/common/frame_builder.cpp:53:1
	bx	lr
.Ltmp1:
.Lfunc_end0:
	.size	_ZN2ot12FrameBuilder4InitEPvt, .Lfunc_end0-_ZN2ot12FrameBuilder4InitEPvt
	.cfi_endproc
	.file	32 "D:\\Rafael-IoT-SDK-Internal-main\\examples\\das_subg_thread\\keil" "../../../components/network/thread/subg_openthread/src/core/common/frame_builder.hpp"
	.cantunwind
	.fnend
                                        @ -- End function
	.section	.text._ZN2ot12FrameBuilder11AppendUint8Eh,"ax",%progbits
	.hidden	_ZN2ot12FrameBuilder11AppendUint8Eh @ -- Begin function _ZN2ot12FrameBuilder11AppendUint8Eh
	.globl	_ZN2ot12FrameBuilder11AppendUint8Eh
	.p2align	1
	.type	_ZN2ot12FrameBuilder11AppendUint8Eh,%function
	.code	16                              @ @_ZN2ot12FrameBuilder11AppendUint8Eh
	.thumb_func
_ZN2ot12FrameBuilder11AppendUint8Eh:
.Lfunc_begin1:
	.loc	31 55 0                         @ ../../../components/network/thread/subg_openthread/src/core/common/frame_builder.cpp:55:0
	.fnstart
	.cfi_startproc
@ %bb.0:
	@DEBUG_VALUE: AppendUint8:this <- $r0
	@DEBUG_VALUE: AppendUint8:this <- $r0
	@DEBUG_VALUE: AppendUint8:aUint8 <- $r1
	@DEBUG_VALUE: AppendUint8:aUint8 <- undef
	@DEBUG_VALUE: Append<unsigned char>:this <- $r0
	@DEBUG_VALUE: Append<unsigned char>:this <- $r0
	@DEBUG_VALUE: AppendBytes:this <- $r0
	@DEBUG_VALUE: AppendBytes:this <- $r0
	@DEBUG_VALUE: CanAppend:this <- $r0
	@DEBUG_VALUE: CanAppend:this <- $r0
	@DEBUG_VALUE: Append<unsigned char>:aObject <- undef
	@DEBUG_VALUE: AppendBytes:aBuffer <- undef
	@DEBUG_VALUE: AppendBytes:aLength <- 1
	@DEBUG_VALUE: CanAppend:aLength <- 1
	@DEBUG_VALUE: AppendBytes:error <- 0
	.loc	32 117 76 prologue_end          @ ../../../components/network/thread/subg_openthread/src/core/common/frame_builder.hpp:117:76
	ldrh	r2, [r0, #4]
	.loc	32 117 99 is_stmt 0             @ ../../../components/network/thread/subg_openthread/src/core/common/frame_builder.hpp:117:99
	ldrh	r3, [r0, #6]
.Ltmp2:
	.loc	31 81 5 is_stmt 1               @ ../../../components/network/thread/subg_openthread/src/core/common/frame_builder.cpp:81:5
	cmp	r2, r3
.Ltmp3:
	@DEBUG_VALUE: AppendUint8:aUint8 <- $r1
	.loc	31 0 5 is_stmt 0                @ ../../../components/network/thread/subg_openthread/src/core/common/frame_builder.cpp:0:5
	itt	hs
	movhs	r0, #3
.Ltmp4:
	@DEBUG_VALUE: AppendUint8:this <- [DW_OP_LLVM_entry_value 1] $r0
	@DEBUG_VALUE: AppendBytes:error <- $r0
	@DEBUG_LABEL: AppendBytes:exit
	.loc	31 55 51 is_stmt 1              @ ../../../components/network/thread/subg_openthread/src/core/common/frame_builder.cpp:55:51
	bxhs	lr
.Ltmp5:
.LBB1_1:
	@DEBUG_VALUE: AppendUint8:aUint8 <- $r1
	@DEBUG_VALUE: AppendBytes:error <- $r0
	@DEBUG_VALUE: AppendUint8:this <- [DW_OP_LLVM_entry_value 1] $r0
	@DEBUG_VALUE: AppendBytes:aLength <- 1
	@DEBUG_VALUE: AppendUint8:aUint8 <- $r1
	.loc	31 82 12                        @ ../../../components/network/thread/subg_openthread/src/core/common/frame_builder.cpp:82:12
	ldr	r3, [r0]
	.loc	31 82 5 is_stmt 0               @ ../../../components/network/thread/subg_openthread/src/core/common/frame_builder.cpp:82:5
	strb	r1, [r3, r2]
	.loc	31 83 13 is_stmt 1              @ ../../../components/network/thread/subg_openthread/src/core/common/frame_builder.cpp:83:13
	ldrh	r1, [r0, #4]
.Ltmp6:
	adds	r1, #1
	strh	r1, [r0, #4]
	movs	r0, #0
.Ltmp7:
	@DEBUG_VALUE: AppendBytes:error <- $r0
	@DEBUG_LABEL: AppendBytes:exit
	.loc	31 55 51                        @ ../../../components/network/thread/subg_openthread/src/core/common/frame_builder.cpp:55:51
	bx	lr
.Ltmp8:
.Lfunc_end1:
	.size	_ZN2ot12FrameBuilder11AppendUint8Eh, .Lfunc_end1-_ZN2ot12FrameBuilder11AppendUint8Eh
	.cfi_endproc
	.cantunwind
	.fnend
                                        @ -- End function
	.section	.text._ZN2ot12FrameBuilder21AppendBigEndianUint16Et,"ax",%progbits
	.hidden	_ZN2ot12FrameBuilder21AppendBigEndianUint16Et @ -- Begin function _ZN2ot12FrameBuilder21AppendBigEndianUint16Et
	.globl	_ZN2ot12FrameBuilder21AppendBigEndianUint16Et
	.p2align	1
	.type	_ZN2ot12FrameBuilder21AppendBigEndianUint16Et,%function
	.code	16                              @ @_ZN2ot12FrameBuilder21AppendBigEndianUint16Et
	.thumb_func
_ZN2ot12FrameBuilder21AppendBigEndianUint16Et:
.Lfunc_begin2:
	.loc	31 58 0                         @ ../../../components/network/thread/subg_openthread/src/core/common/frame_builder.cpp:58:0
	.fnstart
	.cfi_startproc
@ %bb.0:
	@DEBUG_VALUE: AppendBigEndianUint16:this <- $r0
	@DEBUG_VALUE: AppendBigEndianUint16:this <- $r0
	@DEBUG_VALUE: AppendBigEndianUint16:aUint16 <- $r1
	@DEBUG_VALUE: AppendBigEndianUint16:aUint16 <- undef
	@DEBUG_VALUE: Append<unsigned short>:this <- $r0
	@DEBUG_VALUE: Append<unsigned short>:this <- $r0
	@DEBUG_VALUE: AppendBytes:this <- $r0
	@DEBUG_VALUE: AppendBytes:this <- $r0
	@DEBUG_VALUE: CanAppend:this <- $r0
	@DEBUG_VALUE: CanAppend:this <- $r0
	@DEBUG_VALUE: Append<unsigned short>:aObject <- undef
	@DEBUG_VALUE: AppendBytes:aBuffer <- undef
	@DEBUG_VALUE: AppendBytes:aLength <- 2
	@DEBUG_VALUE: CanAppend:aLength <- 2
	@DEBUG_VALUE: AppendBytes:error <- 0
	.loc	32 117 76 prologue_end          @ ../../../components/network/thread/subg_openthread/src/core/common/frame_builder.hpp:117:76
	ldrh.w	r12, [r0, #4]
	.loc	32 117 99 is_stmt 0             @ ../../../components/network/thread/subg_openthread/src/core/common/frame_builder.hpp:117:99
	ldrh	r3, [r0, #6]
	.loc	32 117 85                       @ ../../../components/network/thread/subg_openthread/src/core/common/frame_builder.hpp:117:85
	add.w	r2, r12, #2
.Ltmp9:
	.loc	31 81 5 is_stmt 1               @ ../../../components/network/thread/subg_openthread/src/core/common/frame_builder.cpp:81:5
	cmp	r2, r3
.Ltmp10:
	@DEBUG_VALUE: AppendBigEndianUint16:aUint16 <- $r1
	.loc	31 0 5 is_stmt 0                @ ../../../components/network/thread/subg_openthread/src/core/common/frame_builder.cpp:0:5
	itt	hi
	movhi	r0, #3
.Ltmp11:
	@DEBUG_VALUE: AppendBigEndianUint16:this <- [DW_OP_LLVM_entry_value 1] $r0
	@DEBUG_VALUE: AppendBytes:error <- $r0
	@DEBUG_LABEL: AppendBytes:exit
	.loc	31 59 5 is_stmt 1               @ ../../../components/network/thread/subg_openthread/src/core/common/frame_builder.cpp:59:5
	bxhi	lr
.Ltmp12:
.LBB2_1:
	@DEBUG_VALUE: AppendBigEndianUint16:aUint16 <- $r1
	@DEBUG_VALUE: AppendBytes:error <- $r0
	@DEBUG_VALUE: AppendBigEndianUint16:this <- [DW_OP_LLVM_entry_value 1] $r0
	@DEBUG_VALUE: AppendBytes:aLength <- 2
	.loc	31 82 12                        @ ../../../components/network/thread/subg_openthread/src/core/common/frame_builder.cpp:82:12
	ldr	r2, [r0]
	rev16	r1, r1
.Ltmp13:
	@DEBUG_VALUE: AppendBytes:aBuffer <- undef
	.loc	31 82 5 is_stmt 0               @ ../../../components/network/thread/subg_openthread/src/core/common/frame_builder.cpp:82:5
	strh.w	r1, [r2, r12]
	.loc	31 83 13 is_stmt 1              @ ../../../components/network/thread/subg_openthread/src/core/common/frame_builder.cpp:83:13
	ldrh	r1, [r0, #4]
	adds	r1, #2
	strh	r1, [r0, #4]
	movs	r0, #0
.Ltmp14:
	@DEBUG_VALUE: AppendBytes:error <- $r0
	@DEBUG_LABEL: AppendBytes:exit
	.loc	31 59 5                         @ ../../../components/network/thread/subg_openthread/src/core/common/frame_builder.cpp:59:5
	bx	lr
.Ltmp15:
.Lfunc_end2:
	.size	_ZN2ot12FrameBuilder21AppendBigEndianUint16Et, .Lfunc_end2-_ZN2ot12FrameBuilder21AppendBigEndianUint16Et
	.cfi_endproc
	.cantunwind
	.fnend
                                        @ -- End function
	.section	.text._ZN2ot12FrameBuilder21AppendBigEndianUint32Ej,"ax",%progbits
	.hidden	_ZN2ot12FrameBuilder21AppendBigEndianUint32Ej @ -- Begin function _ZN2ot12FrameBuilder21AppendBigEndianUint32Ej
	.globl	_ZN2ot12FrameBuilder21AppendBigEndianUint32Ej
	.p2align	1
	.type	_ZN2ot12FrameBuilder21AppendBigEndianUint32Ej,%function
	.code	16                              @ @_ZN2ot12FrameBuilder21AppendBigEndianUint32Ej
	.thumb_func
_ZN2ot12FrameBuilder21AppendBigEndianUint32Ej:
.Lfunc_begin3:
	.loc	31 63 0                         @ ../../../components/network/thread/subg_openthread/src/core/common/frame_builder.cpp:63:0
	.fnstart
	.cfi_startproc
@ %bb.0:
	@DEBUG_VALUE: AppendBigEndianUint32:this <- $r0
	@DEBUG_VALUE: AppendBigEndianUint32:this <- $r0
	@DEBUG_VALUE: AppendBigEndianUint32:aUint32 <- $r1
	@DEBUG_VALUE: HostSwap32:v <- $r1
	@DEBUG_VALUE: Swap32:v <- $r1
	@DEBUG_VALUE: Append<unsigned int>:this <- $r0
	@DEBUG_VALUE: Append<unsigned int>:this <- $r0
	@DEBUG_VALUE: AppendBytes:this <- $r0
	@DEBUG_VALUE: AppendBytes:this <- $r0
	@DEBUG_VALUE: CanAppend:this <- $r0
	@DEBUG_VALUE: CanAppend:this <- $r0
	@DEBUG_VALUE: Append<unsigned int>:aObject <- undef
	@DEBUG_VALUE: AppendBytes:aBuffer <- undef
	@DEBUG_VALUE: AppendBytes:aLength <- 4
	@DEBUG_VALUE: CanAppend:aLength <- 4
	@DEBUG_VALUE: AppendBytes:error <- 0
	.loc	32 117 76 prologue_end          @ ../../../components/network/thread/subg_openthread/src/core/common/frame_builder.hpp:117:76
	ldrh.w	r12, [r0, #4]
	.loc	32 117 99 is_stmt 0             @ ../../../components/network/thread/subg_openthread/src/core/common/frame_builder.hpp:117:99
	ldrh	r3, [r0, #6]
	.loc	32 117 85                       @ ../../../components/network/thread/subg_openthread/src/core/common/frame_builder.hpp:117:85
	add.w	r2, r12, #4
.Ltmp16:
	.loc	31 81 5 is_stmt 1               @ ../../../components/network/thread/subg_openthread/src/core/common/frame_builder.cpp:81:5
	cmp	r2, r3
	@DEBUG_VALUE: Swap32:v <- $r1
	@DEBUG_VALUE: HostSwap32:v <- $r1
	@DEBUG_VALUE: AppendBigEndianUint32:aUint32 <- $r1
	itt	hi
	movhi	r0, #3
.Ltmp17:
	@DEBUG_VALUE: AppendBigEndianUint32:this <- [DW_OP_LLVM_entry_value 1] $r0
	@DEBUG_VALUE: AppendBytes:error <- $r0
	@DEBUG_LABEL: AppendBytes:exit
	.loc	31 64 5                         @ ../../../components/network/thread/subg_openthread/src/core/common/frame_builder.cpp:64:5
	bxhi	lr
.Ltmp18:
.LBB3_1:
	@DEBUG_VALUE: Swap32:v <- $r1
	@DEBUG_VALUE: HostSwap32:v <- $r1
	@DEBUG_VALUE: AppendBigEndianUint32:aUint32 <- $r1
	@DEBUG_VALUE: AppendBytes:error <- $r0
	@DEBUG_VALUE: AppendBigEndianUint32:this <- [DW_OP_LLVM_entry_value 1] $r0
	@DEBUG_VALUE: AppendBytes:aLength <- 4
	.loc	31 82 12                        @ ../../../components/network/thread/subg_openthread/src/core/common/frame_builder.cpp:82:12
	ldr	r2, [r0]
.Ltmp19:
	.file	33 "D:\\Rafael-IoT-SDK-Internal-main\\examples\\das_subg_thread\\keil" "../../../components/network/thread/subg_openthread/src/core\\common/encoding.hpp"
	.loc	33 59 61                        @ ../../../components/network/thread/subg_openthread/src/core\common/encoding.hpp:59:61
	rev	r1, r1
.Ltmp20:
	@DEBUG_VALUE: AppendBigEndianUint32:aUint32 <- [DW_OP_LLVM_entry_value 1] $r1
	@DEBUG_VALUE: AppendBytes:aBuffer <- undef
	.loc	31 82 5                         @ ../../../components/network/thread/subg_openthread/src/core/common/frame_builder.cpp:82:5
	str.w	r1, [r2, r12]
	.loc	31 83 13                        @ ../../../components/network/thread/subg_openthread/src/core/common/frame_builder.cpp:83:13
	ldrh	r1, [r0, #4]
	adds	r1, #4
	strh	r1, [r0, #4]
	movs	r0, #0
.Ltmp21:
	@DEBUG_VALUE: AppendBytes:error <- $r0
	@DEBUG_LABEL: AppendBytes:exit
	.loc	31 64 5                         @ ../../../components/network/thread/subg_openthread/src/core/common/frame_builder.cpp:64:5
	bx	lr
.Ltmp22:
.Lfunc_end3:
	.size	_ZN2ot12FrameBuilder21AppendBigEndianUint32Ej, .Lfunc_end3-_ZN2ot12FrameBuilder21AppendBigEndianUint32Ej
	.cfi_endproc
	.cantunwind
	.fnend
                                        @ -- End function
	.section	.text._ZN2ot12FrameBuilder24AppendLittleEndianUint16Et,"ax",%progbits
	.hidden	_ZN2ot12FrameBuilder24AppendLittleEndianUint16Et @ -- Begin function _ZN2ot12FrameBuilder24AppendLittleEndianUint16Et
	.globl	_ZN2ot12FrameBuilder24AppendLittleEndianUint16Et
	.p2align	1
	.type	_ZN2ot12FrameBuilder24AppendLittleEndianUint16Et,%function
	.code	16                              @ @_ZN2ot12FrameBuilder24AppendLittleEndianUint16Et
	.thumb_func
_ZN2ot12FrameBuilder24AppendLittleEndianUint16Et:
.Lfunc_begin4:
	.loc	31 68 0                         @ ../../../components/network/thread/subg_openthread/src/core/common/frame_builder.cpp:68:0
	.fnstart
	.cfi_startproc
@ %bb.0:
	@DEBUG_VALUE: AppendLittleEndianUint16:this <- $r0
	@DEBUG_VALUE: AppendLittleEndianUint16:this <- $r0
	@DEBUG_VALUE: AppendLittleEndianUint16:aUint16 <- $r1
	@DEBUG_VALUE: AppendLittleEndianUint16:aUint16 <- undef
	@DEBUG_VALUE: Append<unsigned short>:this <- $r0
	@DEBUG_VALUE: Append<unsigned short>:this <- $r0
	@DEBUG_VALUE: AppendBytes:this <- $r0
	@DEBUG_VALUE: AppendBytes:this <- $r0
	@DEBUG_VALUE: CanAppend:this <- $r0
	@DEBUG_VALUE: CanAppend:this <- $r0
	@DEBUG_VALUE: Append<unsigned short>:aObject <- undef
	@DEBUG_VALUE: AppendBytes:aBuffer <- undef
	@DEBUG_VALUE: AppendBytes:aLength <- 2
	@DEBUG_VALUE: CanAppend:aLength <- 2
	@DEBUG_VALUE: AppendBytes:error <- 0
	.loc	32 117 76 prologue_end          @ ../../../components/network/thread/subg_openthread/src/core/common/frame_builder.hpp:117:76
	ldrh.w	r12, [r0, #4]
	.loc	32 117 99 is_stmt 0             @ ../../../components/network/thread/subg_openthread/src/core/common/frame_builder.hpp:117:99
	ldrh	r3, [r0, #6]
	.loc	32 117 85                       @ ../../../components/network/thread/subg_openthread/src/core/common/frame_builder.hpp:117:85
	add.w	r2, r12, #2
.Ltmp23:
	.loc	31 81 5 is_stmt 1               @ ../../../components/network/thread/subg_openthread/src/core/common/frame_builder.cpp:81:5
	cmp	r2, r3
.Ltmp24:
	@DEBUG_VALUE: AppendLittleEndianUint16:aUint16 <- $r1
	.loc	31 0 5 is_stmt 0                @ ../../../components/network/thread/subg_openthread/src/core/common/frame_builder.cpp:0:5
	itt	hi
	movhi	r0, #3
.Ltmp25:
	@DEBUG_VALUE: AppendLittleEndianUint16:this <- [DW_OP_LLVM_entry_value 1] $r0
	@DEBUG_VALUE: AppendBytes:error <- $r0
	@DEBUG_LABEL: AppendBytes:exit
	.loc	31 69 5 is_stmt 1               @ ../../../components/network/thread/subg_openthread/src/core/common/frame_builder.cpp:69:5
	bxhi	lr
.Ltmp26:
.LBB4_1:
	@DEBUG_VALUE: AppendLittleEndianUint16:aUint16 <- $r1
	@DEBUG_VALUE: AppendBytes:error <- $r0
	@DEBUG_VALUE: AppendLittleEndianUint16:this <- [DW_OP_LLVM_entry_value 1] $r0
	@DEBUG_VALUE: AppendBytes:aLength <- 2
	@DEBUG_VALUE: AppendLittleEndianUint16:aUint16 <- $r1
	@DEBUG_VALUE: AppendBytes:aBuffer <- undef
	.loc	31 82 12                        @ ../../../components/network/thread/subg_openthread/src/core/common/frame_builder.cpp:82:12
	ldr	r2, [r0]
	.loc	31 82 5 is_stmt 0               @ ../../../components/network/thread/subg_openthread/src/core/common/frame_builder.cpp:82:5
	strh.w	r1, [r2, r12]
	.loc	31 83 13 is_stmt 1              @ ../../../components/network/thread/subg_openthread/src/core/common/frame_builder.cpp:83:13
	ldrh	r1, [r0, #4]
.Ltmp27:
	adds	r1, #2
	strh	r1, [r0, #4]
	movs	r0, #0
.Ltmp28:
	@DEBUG_VALUE: AppendBytes:error <- $r0
	@DEBUG_LABEL: AppendBytes:exit
	.loc	31 69 5                         @ ../../../components/network/thread/subg_openthread/src/core/common/frame_builder.cpp:69:5
	bx	lr
.Ltmp29:
.Lfunc_end4:
	.size	_ZN2ot12FrameBuilder24AppendLittleEndianUint16Et, .Lfunc_end4-_ZN2ot12FrameBuilder24AppendLittleEndianUint16Et
	.cfi_endproc
	.cantunwind
	.fnend
                                        @ -- End function
	.section	.text._ZN2ot12FrameBuilder24AppendLittleEndianUint32Ej,"ax",%progbits
	.hidden	_ZN2ot12FrameBuilder24AppendLittleEndianUint32Ej @ -- Begin function _ZN2ot12FrameBuilder24AppendLittleEndianUint32Ej
	.globl	_ZN2ot12FrameBuilder24AppendLittleEndianUint32Ej
	.p2align	1
	.type	_ZN2ot12FrameBuilder24AppendLittleEndianUint32Ej,%function
	.code	16                              @ @_ZN2ot12FrameBuilder24AppendLittleEndianUint32Ej
	.thumb_func
_ZN2ot12FrameBuilder24AppendLittleEndianUint32Ej:
.Lfunc_begin5:
	.loc	31 73 0                         @ ../../../components/network/thread/subg_openthread/src/core/common/frame_builder.cpp:73:0
	.fnstart
	.cfi_startproc
@ %bb.0:
	@DEBUG_VALUE: AppendLittleEndianUint32:this <- $r0
	@DEBUG_VALUE: AppendLittleEndianUint32:this <- $r0
	@DEBUG_VALUE: AppendLittleEndianUint32:aUint32 <- $r1
	@DEBUG_VALUE: Append<unsigned int>:this <- $r0
	@DEBUG_VALUE: Append<unsigned int>:this <- $r0
	@DEBUG_VALUE: AppendBytes:this <- $r0
	@DEBUG_VALUE: AppendBytes:this <- $r0
	@DEBUG_VALUE: CanAppend:this <- $r0
	@DEBUG_VALUE: CanAppend:this <- $r0
	@DEBUG_VALUE: Append<unsigned int>:aObject <- undef
	@DEBUG_VALUE: AppendBytes:aBuffer <- undef
	@DEBUG_VALUE: AppendBytes:aLength <- 4
	@DEBUG_VALUE: CanAppend:aLength <- 4
	@DEBUG_VALUE: AppendBytes:error <- 0
	.loc	32 117 76 prologue_end          @ ../../../components/network/thread/subg_openthread/src/core/common/frame_builder.hpp:117:76
	ldrh.w	r12, [r0, #4]
	.loc	32 117 99 is_stmt 0             @ ../../../components/network/thread/subg_openthread/src/core/common/frame_builder.hpp:117:99
	ldrh	r3, [r0, #6]
	.loc	32 117 85                       @ ../../../components/network/thread/subg_openthread/src/core/common/frame_builder.hpp:117:85
	add.w	r2, r12, #4
.Ltmp30:
	.loc	31 81 5 is_stmt 1               @ ../../../components/network/thread/subg_openthread/src/core/common/frame_builder.cpp:81:5
	cmp	r2, r3
	@DEBUG_VALUE: AppendLittleEndianUint32:aUint32 <- $r1
	itt	hi
	movhi	r0, #3
.Ltmp31:
	@DEBUG_VALUE: AppendLittleEndianUint32:this <- [DW_OP_LLVM_entry_value 1] $r0
	@DEBUG_VALUE: AppendBytes:error <- $r0
	@DEBUG_LABEL: AppendBytes:exit
	.loc	31 74 5                         @ ../../../components/network/thread/subg_openthread/src/core/common/frame_builder.cpp:74:5
	bxhi	lr
.Ltmp32:
.LBB5_1:
	@DEBUG_VALUE: AppendLittleEndianUint32:aUint32 <- $r1
	@DEBUG_VALUE: AppendBytes:error <- $r0
	@DEBUG_VALUE: AppendLittleEndianUint32:this <- [DW_OP_LLVM_entry_value 1] $r0
	@DEBUG_VALUE: AppendBytes:aLength <- 4
	@DEBUG_VALUE: AppendBytes:aBuffer <- undef
	.loc	31 82 12                        @ ../../../components/network/thread/subg_openthread/src/core/common/frame_builder.cpp:82:12
	ldr	r2, [r0]
	.loc	31 82 5 is_stmt 0               @ ../../../components/network/thread/subg_openthread/src/core/common/frame_builder.cpp:82:5
	str.w	r1, [r2, r12]
	.loc	31 83 13 is_stmt 1              @ ../../../components/network/thread/subg_openthread/src/core/common/frame_builder.cpp:83:13
	ldrh	r1, [r0, #4]
.Ltmp33:
	@DEBUG_VALUE: AppendLittleEndianUint32:aUint32 <- [DW_OP_LLVM_entry_value 1] $r1
	adds	r1, #4
	strh	r1, [r0, #4]
	movs	r0, #0
.Ltmp34:
	@DEBUG_VALUE: AppendBytes:error <- $r0
	@DEBUG_LABEL: AppendBytes:exit
	.loc	31 74 5                         @ ../../../components/network/thread/subg_openthread/src/core/common/frame_builder.cpp:74:5
	bx	lr
.Ltmp35:
.Lfunc_end5:
	.size	_ZN2ot12FrameBuilder24AppendLittleEndianUint32Ej, .Lfunc_end5-_ZN2ot12FrameBuilder24AppendLittleEndianUint32Ej
	.cfi_endproc
	.cantunwind
	.fnend
                                        @ -- End function
	.section	.text._ZN2ot12FrameBuilder11AppendBytesEPKvt,"ax",%progbits
	.hidden	_ZN2ot12FrameBuilder11AppendBytesEPKvt @ -- Begin function _ZN2ot12FrameBuilder11AppendBytesEPKvt
	.globl	_ZN2ot12FrameBuilder11AppendBytesEPKvt
	.p2align	1
	.type	_ZN2ot12FrameBuilder11AppendBytesEPKvt,%function
	.code	16                              @ @_ZN2ot12FrameBuilder11AppendBytesEPKvt
	.thumb_func
_ZN2ot12FrameBuilder11AppendBytesEPKvt:
.Lfunc_begin6:
	.loc	31 78 0                         @ ../../../components/network/thread/subg_openthread/src/core/common/frame_builder.cpp:78:0
	.fnstart
	.cfi_startproc
@ %bb.0:
	@DEBUG_VALUE: AppendBytes:this <- $r0
	@DEBUG_VALUE: AppendBytes:aBuffer <- $r1
	@DEBUG_VALUE: AppendBytes:aLength <- $r2
	@DEBUG_VALUE: CanAppend:this <- $r0
	@DEBUG_VALUE: CanAppend:aLength <- $r2
	.save	{r4, r5, r7, lr}
	push	{r4, r5, r7, lr}
	.cfi_def_cfa_offset 16
	.cfi_offset lr, -4
	.cfi_offset r7, -8
	.cfi_offset r5, -12
	.cfi_offset r4, -16
	mov	r5, r0
.Ltmp36:
	@DEBUG_VALUE: AppendBytes:error <- 0
	@DEBUG_VALUE: CanAppend:aLength <- $r4
	@DEBUG_VALUE: CanAppend:this <- $r5
	@DEBUG_VALUE: AppendBytes:aLength <- $r4
	@DEBUG_VALUE: AppendBytes:this <- $r5
	.loc	32 117 76 prologue_end          @ ../../../components/network/thread/subg_openthread/src/core/common/frame_builder.hpp:117:76
	ldrh	r0, [r0, #4]
	mov	r4, r2
.Ltmp37:
	.loc	32 117 99 is_stmt 0             @ ../../../components/network/thread/subg_openthread/src/core/common/frame_builder.hpp:117:99
	ldrh	r2, [r5, #6]
	.loc	32 117 85                       @ ../../../components/network/thread/subg_openthread/src/core/common/frame_builder.hpp:117:85
	adds	r3, r0, r4
.Ltmp38:
	.loc	31 81 5 is_stmt 1               @ ../../../components/network/thread/subg_openthread/src/core/common/frame_builder.cpp:81:5
	cmp	r3, r2
	@DEBUG_VALUE: AppendBytes:aBuffer <- $r1
	itt	hi
	movhi	r0, #3
.Ltmp39:
	@DEBUG_VALUE: AppendBytes:error <- $r0
	@DEBUG_LABEL: AppendBytes:exit
	.loc	31 86 5                         @ ../../../components/network/thread/subg_openthread/src/core/common/frame_builder.cpp:86:5
	pophi	{r4, r5, r7, pc}
.Ltmp40:
.LBB6_1:
	@DEBUG_VALUE: AppendBytes:aBuffer <- $r1
	@DEBUG_VALUE: AppendBytes:error <- $r0
	.loc	31 82 12                        @ ../../../components/network/thread/subg_openthread/src/core/common/frame_builder.cpp:82:12
	ldr	r2, [r5]
	.loc	31 82 20 is_stmt 0              @ ../../../components/network/thread/subg_openthread/src/core/common/frame_builder.cpp:82:20
	add	r0, r2
.Ltmp41:
	.loc	31 82 5                         @ ../../../components/network/thread/subg_openthread/src/core/common/frame_builder.cpp:82:5
	mov	r2, r4
	bl	__aeabi_memcpy
.Ltmp42:
	@DEBUG_VALUE: AppendBytes:aBuffer <- [DW_OP_LLVM_entry_value 1] $r1
	.loc	31 83 13 is_stmt 1              @ ../../../components/network/thread/subg_openthread/src/core/common/frame_builder.cpp:83:13
	ldrh	r0, [r5, #4]
	add	r0, r4
	strh	r0, [r5, #4]
	movs	r0, #0
.Ltmp43:
	@DEBUG_VALUE: AppendBytes:error <- $r0
	@DEBUG_LABEL: AppendBytes:exit
	.loc	31 86 5                         @ ../../../components/network/thread/subg_openthread/src/core/common/frame_builder.cpp:86:5
	pop	{r4, r5, r7, pc}
.Ltmp44:
.Lfunc_end6:
	.size	_ZN2ot12FrameBuilder11AppendBytesEPKvt, .Lfunc_end6-_ZN2ot12FrameBuilder11AppendBytesEPKvt
	.cfi_endproc
	.cantunwind
	.fnend
                                        @ -- End function
	.section	.text._ZN2ot12FrameBuilder16AppendMacAddressERKNS_3Mac7AddressE,"ax",%progbits
	.hidden	_ZN2ot12FrameBuilder16AppendMacAddressERKNS_3Mac7AddressE @ -- Begin function _ZN2ot12FrameBuilder16AppendMacAddressERKNS_3Mac7AddressE
	.globl	_ZN2ot12FrameBuilder16AppendMacAddressERKNS_3Mac7AddressE
	.p2align	1
	.type	_ZN2ot12FrameBuilder16AppendMacAddressERKNS_3Mac7AddressE,%function
	.code	16                              @ @_ZN2ot12FrameBuilder16AppendMacAddressERKNS_3Mac7AddressE
	.thumb_func
_ZN2ot12FrameBuilder16AppendMacAddressERKNS_3Mac7AddressE:
.Lfunc_begin7:
	.loc	31 90 0                         @ ../../../components/network/thread/subg_openthread/src/core/common/frame_builder.cpp:90:0
	.fnstart
	.cfi_startproc
@ %bb.0:
	@DEBUG_VALUE: AppendMacAddress:this <- $r0
	@DEBUG_VALUE: AppendMacAddress:aMacAddress <- $r1
	@DEBUG_VALUE: AppendMacAddress:aMacAddress <- $r1
	@DEBUG_VALUE: GetType:this <- $r1
	@DEBUG_VALUE: GetType:this <- $r1
	.save	{r4, lr}
	push	{r4, lr}
	.cfi_def_cfa_offset 8
	.cfi_offset lr, -4
	.cfi_offset r4, -8
.Ltmp45:
	.loc	7 272 39 prologue_end           @ ../../../components/network/thread/subg_openthread/src/core\mac/mac_types.hpp:272:39
	ldrb	r2, [r1, #8]
	mov	r4, r0
.Ltmp46:
	@DEBUG_VALUE: AppendMacAddress:this <- $r4
	@DEBUG_VALUE: AppendMacAddress:error <- 0
	@DEBUG_VALUE: AppendMacAddress:this <- $r4
	.loc	31 93 5                         @ ../../../components/network/thread/subg_openthread/src/core/common/frame_builder.cpp:93:5
	cmp	r2, #2
	beq	.LBB7_4
.Ltmp47:
@ %bb.1:
	@DEBUG_VALUE: AppendMacAddress:this <- $r4
	@DEBUG_VALUE: AppendMacAddress:aMacAddress <- $r1
	@DEBUG_VALUE: AppendMacAddress:error <- 0
	cmp	r2, #1
	bne	.LBB7_8
.Ltmp48:
@ %bb.2:
	@DEBUG_VALUE: AppendMacAddress:this <- $r4
	@DEBUG_VALUE: AppendMacAddress:aMacAddress <- $r1
	@DEBUG_VALUE: AppendMacAddress:error <- 0
	@DEBUG_VALUE: GetShort:this <- $r1
	@DEBUG_VALUE: AppendLittleEndianUint16:this <- $r4
	@DEBUG_VALUE: AppendLittleEndianUint16:aUint16 <- undef
	@DEBUG_VALUE: Append<unsigned short>:this <- $r4
	@DEBUG_VALUE: Append<unsigned short>:aObject <- undef
	@DEBUG_VALUE: AppendBytes:this <- $r4
	@DEBUG_VALUE: AppendBytes:aBuffer <- undef
	@DEBUG_VALUE: AppendBytes:aLength <- 2
	@DEBUG_VALUE: AppendBytes:error <- 0
	@DEBUG_VALUE: CanAppend:this <- $r4
	@DEBUG_VALUE: CanAppend:aLength <- 2
	.loc	32 117 76                       @ ../../../components/network/thread/subg_openthread/src/core/common/frame_builder.hpp:117:76
	ldrh	r0, [r4, #4]
	.loc	32 117 99 is_stmt 0             @ ../../../components/network/thread/subg_openthread/src/core/common/frame_builder.hpp:117:99
	ldrh	r2, [r4, #6]
	.loc	32 117 85                       @ ../../../components/network/thread/subg_openthread/src/core/common/frame_builder.hpp:117:85
	adds	r3, r0, #2
.Ltmp49:
	.loc	31 81 5 is_stmt 1               @ ../../../components/network/thread/subg_openthread/src/core/common/frame_builder.cpp:81:5
	cmp	r3, r2
	bhi	.LBB7_5
.Ltmp50:
@ %bb.3:
	@DEBUG_VALUE: AppendBytes:this <- $r4
	@DEBUG_VALUE: Append<unsigned short>:this <- $r4
	@DEBUG_VALUE: AppendLittleEndianUint16:this <- $r4
	@DEBUG_VALUE: AppendMacAddress:this <- $r4
	@DEBUG_VALUE: GetShort:this <- $r1
	@DEBUG_VALUE: AppendMacAddress:aMacAddress <- $r1
	@DEBUG_VALUE: AppendBytes:error <- 0
	@DEBUG_VALUE: AppendBytes:aLength <- 2
	@DEBUG_VALUE: AppendMacAddress:error <- 0
	.loc	7 306 56                        @ ../../../components/network/thread/subg_openthread/src/core\mac/mac_types.hpp:306:56
	ldrh	r1, [r1]
.Ltmp51:
	@DEBUG_VALUE: AppendMacAddress:aMacAddress <- [DW_OP_LLVM_entry_value 1] $r1
	@DEBUG_VALUE: AppendBytes:aBuffer <- undef
	@DEBUG_VALUE: AppendLittleEndianUint16:aUint16 <- $r1
	.loc	31 82 12                        @ ../../../components/network/thread/subg_openthread/src/core/common/frame_builder.cpp:82:12
	ldr	r2, [r4]
	.loc	31 82 5 is_stmt 0               @ ../../../components/network/thread/subg_openthread/src/core/common/frame_builder.cpp:82:5
	strh	r1, [r2, r0]
	.loc	31 83 13 is_stmt 1              @ ../../../components/network/thread/subg_openthread/src/core/common/frame_builder.cpp:83:13
	ldrh	r0, [r4, #4]
	adds	r0, #2
	b	.LBB7_7
.Ltmp52:
.LBB7_4:
	@DEBUG_VALUE: AppendMacAddress:this <- $r4
	@DEBUG_VALUE: AppendMacAddress:aMacAddress <- $r1
	@DEBUG_VALUE: AppendMacAddress:error <- 0
	@DEBUG_VALUE: CanAppend:this <- $r4
	@DEBUG_VALUE: CanAppend:aLength <- 8
	.loc	32 117 76                       @ ../../../components/network/thread/subg_openthread/src/core/common/frame_builder.hpp:117:76
	ldrh	r0, [r4, #4]
	.loc	32 117 99 is_stmt 0             @ ../../../components/network/thread/subg_openthread/src/core/common/frame_builder.hpp:117:99
	ldrh	r2, [r4, #6]
	.loc	32 117 85                       @ ../../../components/network/thread/subg_openthread/src/core/common/frame_builder.hpp:117:85
	add.w	r3, r0, #8
.Ltmp53:
	.loc	31 103 9 is_stmt 1              @ ../../../components/network/thread/subg_openthread/src/core/common/frame_builder.cpp:103:9
	cmp	r3, r2
	bls	.LBB7_6
.Ltmp54:
.LBB7_5:
	@DEBUG_VALUE: AppendMacAddress:this <- $r4
	@DEBUG_VALUE: AppendMacAddress:aMacAddress <- $r1
	@DEBUG_VALUE: AppendMacAddress:error <- 0
	.loc	31 0 9 is_stmt 0                @ ../../../components/network/thread/subg_openthread/src/core/common/frame_builder.cpp:0:9
	movs	r0, #3
.Ltmp55:
	@DEBUG_VALUE: AppendMacAddress:error <- $r0
	@DEBUG_LABEL: AppendMacAddress:exit
	.loc	31 110 5 is_stmt 1              @ ../../../components/network/thread/subg_openthread/src/core/common/frame_builder.cpp:110:5
	pop	{r4, pc}
.Ltmp56:
.LBB7_6:
	@DEBUG_VALUE: AppendMacAddress:this <- $r4
	@DEBUG_VALUE: AppendMacAddress:aMacAddress <- $r1
	@DEBUG_VALUE: AppendMacAddress:error <- 0
	.loc	31 104 42                       @ ../../../components/network/thread/subg_openthread/src/core/common/frame_builder.cpp:104:42
	ldr	r2, [r4]
	.loc	31 104 50 is_stmt 0             @ ../../../components/network/thread/subg_openthread/src/core/common/frame_builder.cpp:104:50
	add	r0, r2
.Ltmp57:
	@DEBUG_VALUE: CopyTo:aByteOrder <- 1
	@DEBUG_VALUE: CopyTo:this <- $r1
	@DEBUG_VALUE: CopyTo:aBuffer <- $r0
	.loc	7 215 9 is_stmt 1               @ ../../../components/network/thread/subg_openthread/src/core\mac/mac_types.hpp:215:9
	movs	r2, #1
	bl	_ZN2ot3Mac10ExtAddress11CopyAddressEPhPKhNS1_13CopyByteOrderE
.Ltmp58:
	@DEBUG_VALUE: AppendMacAddress:aMacAddress <- [DW_OP_LLVM_entry_value 1] $r1
	.loc	31 105 17                       @ ../../../components/network/thread/subg_openthread/src/core/common/frame_builder.cpp:105:17
	ldrh	r0, [r4, #4]
	adds	r0, #8
.Ltmp59:
.LBB7_7:
	@DEBUG_VALUE: AppendMacAddress:this <- $r4
	@DEBUG_VALUE: AppendMacAddress:aMacAddress <- [DW_OP_LLVM_entry_value 1] $r1
	@DEBUG_VALUE: AppendMacAddress:error <- 0
	.loc	31 0 0 is_stmt 0                @ ../../../components/network/thread/subg_openthread/src/core/common/frame_builder.cpp:0:0
	strh	r0, [r4, #4]
.Ltmp60:
.LBB7_8:
	@DEBUG_VALUE: AppendMacAddress:this <- $r4
	@DEBUG_VALUE: AppendMacAddress:error <- 0
	movs	r0, #0
.Ltmp61:
	@DEBUG_VALUE: AppendMacAddress:error <- $r0
	@DEBUG_LABEL: AppendMacAddress:exit
	.loc	31 110 5 is_stmt 1              @ ../../../components/network/thread/subg_openthread/src/core/common/frame_builder.cpp:110:5
	pop	{r4, pc}
.Ltmp62:
.Lfunc_end7:
	.size	_ZN2ot12FrameBuilder16AppendMacAddressERKNS_3Mac7AddressE, .Lfunc_end7-_ZN2ot12FrameBuilder16AppendMacAddressERKNS_3Mac7AddressE
	.cfi_endproc
	.cantunwind
	.fnend
                                        @ -- End function
	.section	.text._ZN2ot12FrameBuilder22AppendBytesFromMessageERKNS_7MessageEtt,"ax",%progbits
	.hidden	_ZN2ot12FrameBuilder22AppendBytesFromMessageERKNS_7MessageEtt @ -- Begin function _ZN2ot12FrameBuilder22AppendBytesFromMessageERKNS_7MessageEtt
	.globl	_ZN2ot12FrameBuilder22AppendBytesFromMessageERKNS_7MessageEtt
	.p2align	1
	.type	_ZN2ot12FrameBuilder22AppendBytesFromMessageERKNS_7MessageEtt,%function
	.code	16                              @ @_ZN2ot12FrameBuilder22AppendBytesFromMessageERKNS_7MessageEtt
	.thumb_func
_ZN2ot12FrameBuilder22AppendBytesFromMessageERKNS_7MessageEtt:
.Lfunc_begin8:
	.loc	31 115 0                        @ ../../../components/network/thread/subg_openthread/src/core/common/frame_builder.cpp:115:0
	.fnstart
	.cfi_startproc
@ %bb.0:
	@DEBUG_VALUE: AppendBytesFromMessage:this <- $r0
	@DEBUG_VALUE: AppendBytesFromMessage:aMessage <- $r1
	@DEBUG_VALUE: AppendBytesFromMessage:aOffset <- $r2
	@DEBUG_VALUE: AppendBytesFromMessage:aLength <- $r3
	@DEBUG_VALUE: CanAppend:this <- $r0
	@DEBUG_VALUE: CanAppend:aLength <- $r3
	.save	{r4, r5, r6, lr}
	push	{r4, r5, r6, lr}
	.cfi_def_cfa_offset 16
	.cfi_offset lr, -4
	.cfi_offset r6, -8
	.cfi_offset r5, -12
	.cfi_offset r4, -16
	mov	r5, r0
.Ltmp63:
	@DEBUG_VALUE: AppendBytesFromMessage:error <- 0
	@DEBUG_VALUE: CanAppend:aLength <- $r6
	@DEBUG_VALUE: CanAppend:this <- $r5
	@DEBUG_VALUE: AppendBytesFromMessage:aLength <- $r6
	@DEBUG_VALUE: AppendBytesFromMessage:aOffset <- $r2
	@DEBUG_VALUE: AppendBytesFromMessage:this <- $r5
	.loc	32 117 76 prologue_end          @ ../../../components/network/thread/subg_openthread/src/core/common/frame_builder.hpp:117:76
	ldrh	r0, [r0, #4]
	mov	r6, r3
.Ltmp64:
	.loc	32 117 99 is_stmt 0             @ ../../../components/network/thread/subg_openthread/src/core/common/frame_builder.hpp:117:99
	ldrh	r3, [r5, #6]
	.loc	32 117 85                       @ ../../../components/network/thread/subg_openthread/src/core/common/frame_builder.hpp:117:85
	adds	r4, r0, r6
.Ltmp65:
	.loc	31 118 5 is_stmt 1              @ ../../../components/network/thread/subg_openthread/src/core/common/frame_builder.cpp:118:5
	cmp	r4, r3
	@DEBUG_VALUE: AppendBytesFromMessage:aMessage <- $r1
	itt	hi
	movhi	r0, #3
.Ltmp66:
	@DEBUG_VALUE: AppendBytesFromMessage:error <- $r0
	@DEBUG_LABEL: AppendBytesFromMessage:exit
	.loc	31 123 5                        @ ../../../components/network/thread/subg_openthread/src/core/common/frame_builder.cpp:123:5
	pophi	{r4, r5, r6, pc}
.Ltmp67:
.LBB8_1:
	@DEBUG_VALUE: AppendBytesFromMessage:aOffset <- $r2
	@DEBUG_VALUE: AppendBytesFromMessage:aMessage <- $r1
	@DEBUG_VALUE: AppendBytesFromMessage:error <- $r0
	@DEBUG_VALUE: AppendBytesFromMessage:aOffset <- $r2
	.loc	31 119 5                        @ ../../../components/network/thread/subg_openthread/src/core/common/frame_builder.cpp:119:5
	ldr	r3, [r5]
	add	r3, r0
	mov	r0, r1
.Ltmp68:
	mov	r1, r2
.Ltmp69:
	@DEBUG_VALUE: AppendBytesFromMessage:aMessage <- [DW_OP_LLVM_entry_value 1] $r1
	mov	r2, r3
.Ltmp70:
	@DEBUG_VALUE: AppendBytesFromMessage:aOffset <- [DW_OP_LLVM_entry_value 1] $r2
	mov	r3, r6
	bl	_ZNK2ot7Message4ReadEtPvt
.Ltmp71:
	@DEBUG_VALUE: AppendBytesFromMessage:error <- $r0
	.loc	31 119 5 is_stmt 0              @ ../../../components/network/thread/subg_openthread/src/core/common/frame_builder.cpp:119:5
	cbz	r0, .LBB8_3
.Ltmp72:
@ %bb.2:
	@DEBUG_VALUE: AppendBytesFromMessage:error <- $r0
	@DEBUG_VALUE: AppendBytesFromMessage:aOffset <- [DW_OP_LLVM_entry_value 1] $r2
	@DEBUG_VALUE: AppendBytesFromMessage:aMessage <- [DW_OP_LLVM_entry_value 1] $r1
	@DEBUG_VALUE: AppendBytesFromMessage:error <- $r0
	@DEBUG_LABEL: AppendBytesFromMessage:exit
	.loc	31 123 5 is_stmt 1              @ ../../../components/network/thread/subg_openthread/src/core/common/frame_builder.cpp:123:5
	pop	{r4, r5, r6, pc}
.Ltmp73:
.LBB8_3:
	@DEBUG_VALUE: AppendBytesFromMessage:error <- $r0
	@DEBUG_VALUE: AppendBytesFromMessage:aOffset <- [DW_OP_LLVM_entry_value 1] $r2
	@DEBUG_VALUE: AppendBytesFromMessage:aMessage <- [DW_OP_LLVM_entry_value 1] $r1
	.loc	31 120 13                       @ ../../../components/network/thread/subg_openthread/src/core/common/frame_builder.cpp:120:13
	ldrh	r0, [r5, #4]
.Ltmp74:
	add	r0, r6
	strh	r0, [r5, #4]
	movs	r0, #0
.Ltmp75:
	@DEBUG_VALUE: AppendBytesFromMessage:error <- $r0
	@DEBUG_LABEL: AppendBytesFromMessage:exit
	.loc	31 123 5                        @ ../../../components/network/thread/subg_openthread/src/core/common/frame_builder.cpp:123:5
	pop	{r4, r5, r6, pc}
.Ltmp76:
.Lfunc_end8:
	.size	_ZN2ot12FrameBuilder22AppendBytesFromMessageERKNS_7MessageEtt, .Lfunc_end8-_ZN2ot12FrameBuilder22AppendBytesFromMessageERKNS_7MessageEtt
	.cfi_endproc
	.cantunwind
	.fnend
                                        @ -- End function
	.section	.text._ZN2ot12FrameBuilder10WriteBytesEtPKvt,"ax",%progbits
	.hidden	_ZN2ot12FrameBuilder10WriteBytesEtPKvt @ -- Begin function _ZN2ot12FrameBuilder10WriteBytesEtPKvt
	.globl	_ZN2ot12FrameBuilder10WriteBytesEtPKvt
	.p2align	1
	.type	_ZN2ot12FrameBuilder10WriteBytesEtPKvt,%function
	.code	16                              @ @_ZN2ot12FrameBuilder10WriteBytesEtPKvt
	.thumb_func
_ZN2ot12FrameBuilder10WriteBytesEtPKvt:
.Lfunc_begin9:
	.loc	31 128 0                        @ ../../../components/network/thread/subg_openthread/src/core/common/frame_builder.cpp:128:0
	.fnstart
	.cfi_startproc
@ %bb.0:
	@DEBUG_VALUE: WriteBytes:this <- $r0
	@DEBUG_VALUE: WriteBytes:this <- $r0
	@DEBUG_VALUE: WriteBytes:aOffset <- $r1
	@DEBUG_VALUE: WriteBytes:aBuffer <- $r2
	@DEBUG_VALUE: WriteBytes:aBuffer <- $r2
	@DEBUG_VALUE: WriteBytes:aLength <- $r3
	@DEBUG_VALUE: WriteBytes:aLength <- $r3
	.loc	31 129 12 prologue_end          @ ../../../components/network/thread/subg_openthread/src/core/common/frame_builder.cpp:129:12
	ldr	r0, [r0]
.Ltmp77:
	@DEBUG_VALUE: WriteBytes:this <- [DW_OP_LLVM_entry_value 1] $r0
	@DEBUG_VALUE: WriteBytes:aOffset <- $r1
	.loc	31 129 20 is_stmt 0             @ ../../../components/network/thread/subg_openthread/src/core/common/frame_builder.cpp:129:20
	add	r0, r1
	.loc	31 129 5                        @ ../../../components/network/thread/subg_openthread/src/core/common/frame_builder.cpp:129:5
	mov	r1, r2
.Ltmp78:
	@DEBUG_VALUE: WriteBytes:aOffset <- [DW_OP_LLVM_entry_value 1] $r1
	@DEBUG_VALUE: WriteBytes:aBuffer <- $r1
	mov	r2, r3
.Ltmp79:
	@DEBUG_VALUE: WriteBytes:aLength <- $r2
	b	__aeabi_memcpy
.Ltmp80:
.Lfunc_end9:
	.size	_ZN2ot12FrameBuilder10WriteBytesEtPKvt, .Lfunc_end9-_ZN2ot12FrameBuilder10WriteBytesEtPKvt
	.cfi_endproc
	.cantunwind
	.fnend
                                        @ -- End function
	.section	.text._ZN2ot12FrameBuilder11InsertBytesEtPKvt,"ax",%progbits
	.hidden	_ZN2ot12FrameBuilder11InsertBytesEtPKvt @ -- Begin function _ZN2ot12FrameBuilder11InsertBytesEtPKvt
	.globl	_ZN2ot12FrameBuilder11InsertBytesEtPKvt
	.p2align	1
	.type	_ZN2ot12FrameBuilder11InsertBytesEtPKvt,%function
	.code	16                              @ @_ZN2ot12FrameBuilder11InsertBytesEtPKvt
	.thumb_func
_ZN2ot12FrameBuilder11InsertBytesEtPKvt:
.Lfunc_begin10:
	.loc	31 133 0 is_stmt 1              @ ../../../components/network/thread/subg_openthread/src/core/common/frame_builder.cpp:133:0
	.fnstart
	.cfi_startproc
@ %bb.0:
	@DEBUG_VALUE: InsertBytes:this <- $r0
	@DEBUG_VALUE: InsertBytes:aOffset <- $r1
	@DEBUG_VALUE: InsertBytes:aBuffer <- $r2
	@DEBUG_VALUE: InsertBytes:aLength <- $r3
	.save	{r4, r5, r6, r7, lr}
	push	{r4, r5, r6, r7, lr}
	.cfi_def_cfa_offset 20
	.cfi_offset lr, -4
	.cfi_offset r7, -8
	.cfi_offset r6, -12
	.cfi_offset r5, -16
	.cfi_offset r4, -20
	.pad	#4
	sub	sp, #4
	.cfi_def_cfa_offset 24
	mov	r4, r3
.Ltmp81:
	@DEBUG_VALUE: InsertBytes:aLength <- $r4
	@DEBUG_VALUE: InsertBytes:error <- 0
	@DEBUG_VALUE: InsertBytes:aLength <- $r4
	@DEBUG_VALUE: InsertBytes:this <- $r0
	.loc	31 136 5 prologue_end           @ ../../../components/network/thread/subg_openthread/src/core/common/frame_builder.cpp:136:5
	ldrh	r3, [r0, #4]
.Ltmp82:
	@DEBUG_VALUE: InsertBytes:aOffset <- $r1
	.loc	31 136 5 is_stmt 0              @ ../../../components/network/thread/subg_openthread/src/core/common/frame_builder.cpp:136:5
	cmp	r3, r1
	@DEBUG_VALUE: InsertBytes:aBuffer <- $r2
	bhs	.LBB10_3
.Ltmp83:
@ %bb.1:
	@DEBUG_VALUE: InsertBytes:aLength <- $r4
	@DEBUG_VALUE: InsertBytes:aBuffer <- $r2
	@DEBUG_VALUE: InsertBytes:aOffset <- $r1
	@DEBUG_VALUE: InsertBytes:this <- $r0
	@DEBUG_VALUE: InsertBytes:error <- 0
	.loc	31 136 5                        @ ../../../components/network/thread/subg_openthread/src/core/common/frame_builder.cpp:136:5
	movw	r0, :lower16:.L.str
.Ltmp84:
	@DEBUG_VALUE: InsertBytes:this <- [DW_OP_LLVM_entry_value 1] $r0
	movt	r0, :upper16:.L.str
	movs	r1, #136
.Ltmp85:
	@DEBUG_VALUE: InsertBytes:aOffset <- [DW_OP_LLVM_entry_value 1] $r1
	bl	otPlatAssertFail
.Ltmp86:
	@DEBUG_VALUE: InsertBytes:aBuffer <- [DW_OP_LLVM_entry_value 1] $r2
	.p2align	2
.LBB10_2:                               @ =>This Inner Loop Header: Depth=1
	@DEBUG_VALUE: InsertBytes:aLength <- $r4
	@DEBUG_VALUE: InsertBytes:aBuffer <- [DW_OP_LLVM_entry_value 1] $r2
	@DEBUG_VALUE: InsertBytes:aOffset <- [DW_OP_LLVM_entry_value 1] $r1
	@DEBUG_VALUE: InsertBytes:this <- [DW_OP_LLVM_entry_value 1] $r0
	@DEBUG_VALUE: InsertBytes:error <- 0
	b	.LBB10_2
.Ltmp87:
.LBB10_3:
	@DEBUG_VALUE: InsertBytes:aLength <- $r4
	@DEBUG_VALUE: InsertBytes:aBuffer <- $r2
	@DEBUG_VALUE: InsertBytes:aOffset <- $r1
	@DEBUG_VALUE: InsertBytes:this <- $r0
	@DEBUG_VALUE: InsertBytes:error <- 0
	.loc	31 0 5                          @ ../../../components/network/thread/subg_openthread/src/core/common/frame_builder.cpp:0:5
	mov	r5, r0
.Ltmp88:
	@DEBUG_VALUE: InsertBytes:this <- $r5
	.loc	32 117 99 is_stmt 1             @ ../../../components/network/thread/subg_openthread/src/core/common/frame_builder.hpp:117:99
	ldrh	r0, [r0, #6]
	mov	r7, r1
.Ltmp89:
	@DEBUG_VALUE: InsertBytes:aOffset <- $r7
	@DEBUG_VALUE: InsertBytes:aOffset <- $r7
	@DEBUG_VALUE: InsertBytes:aBuffer <- $r2
	@DEBUG_VALUE: InsertBytes:aLength <- $r4
	@DEBUG_VALUE: CanAppend:this <- $r5
	@DEBUG_VALUE: CanAppend:aLength <- $r4
	.loc	32 117 85 is_stmt 0             @ ../../../components/network/thread/subg_openthread/src/core/common/frame_builder.hpp:117:85
	adds	r1, r3, r4
.Ltmp90:
	.loc	31 138 5 is_stmt 1              @ ../../../components/network/thread/subg_openthread/src/core/common/frame_builder.cpp:138:5
	cmp	r1, r0
	bls	.LBB10_5
.Ltmp91:
@ %bb.4:
	@DEBUG_VALUE: InsertBytes:aOffset <- $r7
	@DEBUG_VALUE: CanAppend:this <- $r5
	@DEBUG_VALUE: InsertBytes:this <- $r5
	@DEBUG_VALUE: CanAppend:aLength <- $r4
	@DEBUG_VALUE: InsertBytes:aLength <- $r4
	@DEBUG_VALUE: InsertBytes:aBuffer <- $r2
	@DEBUG_VALUE: InsertBytes:error <- 0
	.loc	31 0 5 is_stmt 0                @ ../../../components/network/thread/subg_openthread/src/core/common/frame_builder.cpp:0:5
	movs	r0, #3
	b	.LBB10_6
.Ltmp92:
.LBB10_5:
	@DEBUG_VALUE: InsertBytes:aOffset <- $r7
	@DEBUG_VALUE: InsertBytes:this <- $r5
	@DEBUG_VALUE: InsertBytes:aLength <- $r4
	@DEBUG_VALUE: InsertBytes:aBuffer <- $r2
	@DEBUG_VALUE: InsertBytes:error <- 0
	.loc	31 140 13 is_stmt 1             @ ../../../components/network/thread/subg_openthread/src/core/common/frame_builder.cpp:140:13
	ldr	r0, [r5]
	mov	r6, r2
.Ltmp93:
	@DEBUG_VALUE: InsertBytes:aBuffer <- $r6
	@DEBUG_VALUE: InsertBytes:aBuffer <- $r6
	@DEBUG_VALUE: InsertBytes:aLength <- $r4
	@DEBUG_VALUE: CanAppend:aLength <- $r4
	.loc	31 140 21 is_stmt 0             @ ../../../components/network/thread/subg_openthread/src/core/common/frame_builder.cpp:140:21
	adds	r1, r0, r7
	.loc	31 140 31                       @ ../../../components/network/thread/subg_openthread/src/core/common/frame_builder.cpp:140:31
	adds	r0, r1, r4
	.loc	31 140 69                       @ ../../../components/network/thread/subg_openthread/src/core/common/frame_builder.cpp:140:69
	subs	r2, r3, r7
	.loc	31 140 5                        @ ../../../components/network/thread/subg_openthread/src/core/common/frame_builder.cpp:140:5
	bl	__aeabi_memmove
.Ltmp94:
	.loc	31 141 12 is_stmt 1             @ ../../../components/network/thread/subg_openthread/src/core/common/frame_builder.cpp:141:12
	ldr	r0, [r5]
	.loc	31 141 5 is_stmt 0              @ ../../../components/network/thread/subg_openthread/src/core/common/frame_builder.cpp:141:5
	mov	r1, r6
	.loc	31 141 20                       @ ../../../components/network/thread/subg_openthread/src/core/common/frame_builder.cpp:141:20
	add	r0, r7
	.loc	31 141 5                        @ ../../../components/network/thread/subg_openthread/src/core/common/frame_builder.cpp:141:5
	mov	r2, r4
	bl	__aeabi_memcpy
.Ltmp95:
	.loc	31 142 13 is_stmt 1             @ ../../../components/network/thread/subg_openthread/src/core/common/frame_builder.cpp:142:13
	ldrh	r0, [r5, #4]
	add	r0, r4
	strh	r0, [r5, #4]
	movs	r0, #0
.Ltmp96:
.LBB10_6:
	@DEBUG_VALUE: InsertBytes:aOffset <- $r7
	@DEBUG_VALUE: InsertBytes:this <- $r5
	@DEBUG_VALUE: InsertBytes:aLength <- $r4
	@DEBUG_VALUE: InsertBytes:error <- 0
	@DEBUG_VALUE: InsertBytes:error <- $r0
	@DEBUG_LABEL: InsertBytes:exit
	.loc	31 145 5                        @ ../../../components/network/thread/subg_openthread/src/core/common/frame_builder.cpp:145:5
	add	sp, #4
	pop	{r4, r5, r6, r7, pc}
.Ltmp97:
.Lfunc_end10:
	.size	_ZN2ot12FrameBuilder11InsertBytesEtPKvt, .Lfunc_end10-_ZN2ot12FrameBuilder11InsertBytesEtPKvt
	.cfi_endproc
	.cantunwind
	.fnend
                                        @ -- End function
	.section	.text._ZN2ot12FrameBuilder11RemoveBytesEtt,"ax",%progbits
	.hidden	_ZN2ot12FrameBuilder11RemoveBytesEtt @ -- Begin function _ZN2ot12FrameBuilder11RemoveBytesEtt
	.globl	_ZN2ot12FrameBuilder11RemoveBytesEtt
	.p2align	1
	.type	_ZN2ot12FrameBuilder11RemoveBytesEtt,%function
	.code	16                              @ @_ZN2ot12FrameBuilder11RemoveBytesEtt
	.thumb_func
_ZN2ot12FrameBuilder11RemoveBytesEtt:
.Lfunc_begin11:
	.loc	31 149 0                        @ ../../../components/network/thread/subg_openthread/src/core/common/frame_builder.cpp:149:0
	.fnstart
	.cfi_startproc
@ %bb.0:
	@DEBUG_VALUE: RemoveBytes:this <- $r0
	@DEBUG_VALUE: RemoveBytes:aOffset <- $r1
	@DEBUG_VALUE: RemoveBytes:aLength <- $r2
	.save	{r4, r5, r7, lr}
	push	{r4, r5, r7, lr}
	.cfi_def_cfa_offset 16
	.cfi_offset lr, -4
	.cfi_offset r7, -8
	.cfi_offset r5, -12
	.cfi_offset r4, -16
	mov	r5, r0
.Ltmp98:
	@DEBUG_VALUE: RemoveBytes:aLength <- $r4
	@DEBUG_VALUE: RemoveBytes:this <- $r5
	.loc	31 150 13 prologue_end          @ ../../../components/network/thread/subg_openthread/src/core/common/frame_builder.cpp:150:13
	ldr	r0, [r0]
	@DEBUG_VALUE: RemoveBytes:aOffset <- $r1
	mov	r4, r2
.Ltmp99:
	.loc	31 150 21 is_stmt 0             @ ../../../components/network/thread/subg_openthread/src/core/common/frame_builder.cpp:150:21
	add	r0, r1
	.loc	31 150 50                       @ ../../../components/network/thread/subg_openthread/src/core/common/frame_builder.cpp:150:50
	adds	r3, r0, r2
	.loc	31 150 61                       @ ../../../components/network/thread/subg_openthread/src/core/common/frame_builder.cpp:150:61
	ldrh	r2, [r5, #4]
	.loc	31 150 69                       @ ../../../components/network/thread/subg_openthread/src/core/common/frame_builder.cpp:150:69
	add	r1, r4
.Ltmp100:
	@DEBUG_VALUE: RemoveBytes:aOffset <- [DW_OP_LLVM_entry_value 1] $r1
	.loc	31 150 79                       @ ../../../components/network/thread/subg_openthread/src/core/common/frame_builder.cpp:150:79
	subs	r2, r2, r1
	.loc	31 150 5                        @ ../../../components/network/thread/subg_openthread/src/core/common/frame_builder.cpp:150:5
	mov	r1, r3
	bl	__aeabi_memmove
.Ltmp101:
	.loc	31 151 13 is_stmt 1             @ ../../../components/network/thread/subg_openthread/src/core/common/frame_builder.cpp:151:13
	ldrh	r0, [r5, #4]
	subs	r0, r0, r4
	strh	r0, [r5, #4]
	.loc	31 152 1                        @ ../../../components/network/thread/subg_openthread/src/core/common/frame_builder.cpp:152:1
	pop	{r4, r5, r7, pc}
.Ltmp102:
.Lfunc_end11:
	.size	_ZN2ot12FrameBuilder11RemoveBytesEtt, .Lfunc_end11-_ZN2ot12FrameBuilder11RemoveBytesEtt
	.cfi_endproc
	.cantunwind
	.fnend
                                        @ -- End function
	.type	.L.str,%object                  @ @.str
	.section	.rodata.str1.1,"aMS",%progbits,1
.L.str:
	.asciz	"../../../components/network/thread/subg_openthread/src/core/common/frame_builder.cpp"
	.size	.L.str, 85

	.section	".note.GNU-stack","",%progbits
	.eabi_attribute	30, 3	@ Tag_ABI_optimization_goals
	.ARM_attribute	16, 1	@ Tag_AV_eba