	.text
	.syntax unified
	.eabi_attribute	67, "2.09"	@ Tag_conformance
	.cpu	cortex-m3
	.eabi_attribute	6, 10	@ Tag_CPU_arch
	.eabi_attribute	7, 77	@ Tag_CPU_arch_profile
	.eabi_attribute	8, 0	@ Tag_ARM_ISA_use
	.eabi_attribute	9, 2	@ Tag_THUMB_ISA_use
	.eabi_attribute	34, 1	@ Tag_CPU_unaligned_access
	.eabi_attribute	17, 1	@ Tag_ABI_PCS_GOT_use
	.eabi_attribute	20, 2	@ Tag_ABI_FP_denormal
	.eabi_attribute	21, 0	@ Tag_ABI_FP_exceptions
	.eabi_attribute	23, 1	@ Tag_ABI_FP_number_model
	.eabi_attribute	24, 1	@ Tag_ABI_align_needed
	.eabi_attribute	25, 1	@ Tag_ABI_align_preserved
	.eabi_attribute	38, 1	@ Tag_ABI_FP_16bit_format
	.eabi_attribute	18, 4	@ Tag_ABI_PCS_wchar_t
	.eabi_attribute	26, 2	@ Tag_ABI_enum_size
	.eabi_attribute	14, 0	@ Tag_ABI_PCS_R9_use
	.file	"heap.cpp"
	.file	1 "C:\\Keil_v5\\ARM\\ARMCLANG\\Bin\\..\\include" "stdint.h"
	.file	2 "D:\\20240115\\rafael-iot-sdk-das\\examples\\das_subg_thread\\keil" "../../../components/network/thread/subg_openthread/src/core/utils/heap.hpp"
	.file	3 "D:\\20240115\\rafael-iot-sdk-das\\examples\\das_subg_thread\\keil" "../../../components/network/thread/subg_openthread/src/core\\common/non_copyable.hpp"
	.file	4 "C:\\Keil_v5\\ARM\\ARMCLANG\\Bin\\..\\include" "stddef.h"
	.file	5 "C:\\Keil_v5\\ARM\\ARMCLANG\\Bin\\..\\include\\libcxx" "__nullptr"
	.file	6 "C:\\Keil_v5\\ARM\\ARMCLANG\\Bin\\..\\include\\libcxx" "stddef.h"
	.file	7 "C:\\Keil_v5\\ARM\\ARMCLANG\\Bin\\..\\include" "string.h"
	.file	8 "C:\\Keil_v5\\ARM\\ARMCLANG\\Bin\\..\\include" "ctype.h"
	.file	9 "C:\\Keil_v5\\ARM\\ARMCLANG\\Bin\\..\\include" "stdio.h"
	.file	10 "C:\\Keil_v5\\ARM\\ARMCLANG\\Bin\\..\\include" "stdlib.h"
	.file	11 "C:\\Keil_v5\\ARM\\ARMCLANG\\Bin\\..\\include" "stdarg.h"
	.section	.text._ZN2ot5Utils4HeapC2Ev,"ax",%progbits
	.hidden	_ZN2ot5Utils4HeapC2Ev           @ -- Begin function _ZN2ot5Utils4HeapC2Ev
	.globl	_ZN2ot5Utils4HeapC2Ev
	.p2align	1
	.type	_ZN2ot5Utils4HeapC2Ev,%function
	.code	16                              @ @_ZN2ot5Utils4HeapC2Ev
	.thumb_func
_ZN2ot5Utils4HeapC2Ev:
.Lfunc_begin0:
	.file	12 "D:\\20240115\\rafael-iot-sdk-das\\examples\\das_subg_thread\\keil" "../../../components/network/thread/subg_openthread/src/core/utils/heap.cpp"
	.loc	12 48 0                         @ ../../../components/network/thread/subg_openthread/src/core/utils/heap.cpp:48:0
	.fnstart
	.cfi_sections .debug_frame
	.cfi_startproc
@ %bb.0:
	@DEBUG_VALUE: Heap:this <- $r0
	@DEBUG_VALUE: BlockAt:this <- $r0
	@DEBUG_VALUE: BlockAt:this <- $r0
	@DEBUG_VALUE: BlockAt:aOffset <- 2
	@DEBUG_VALUE: SetSize:this <- undef
	@DEBUG_VALUE: SetSize:aSize <- 0
	@DEBUG_VALUE: BlockRight:this <- $r0
	@DEBUG_VALUE: BlockRight:aBlock <- undef
	@DEBUG_VALUE: BlockAt:this <- $r0
	@DEBUG_VALUE: BlockAt:aOffset <- 6
	@DEBUG_VALUE: SetSize:this <- undef
	@DEBUG_VALUE: SetSize:aSize <- 8180
	@DEBUG_VALUE: BlockRight:this <- $r0
	@DEBUG_VALUE: BlockRight:aBlock <- undef
	@DEBUG_VALUE: BlockAt:this <- $r0
	@DEBUG_VALUE: BlockAt:aOffset <- 8190
	@DEBUG_VALUE: SetSize:this <- undef
	@DEBUG_VALUE: SetSize:aSize <- -1
	@DEBUG_VALUE: SetNext:this <- undef
	@DEBUG_VALUE: super <- undef
	@DEBUG_VALUE: first <- undef
	@DEBUG_VALUE: guard <- undef
	movs	r1, #6
	movt	r1, #8180
.Ltmp0:
	@DEBUG_VALUE: SetNext:aNext <- 6
	@DEBUG_VALUE: Heap:this <- $r0
	movw	r2, #8190
.Ltmp1:
	.loc	2 114 98 prologue_end           @ ../../../components/network/thread/subg_openthread/src/core/utils/heap.hpp:114:98
	str	r1, [r0, #4]
	movw	r1, #8188
	movt	r2, #65535
.Ltmp2:
	@DEBUG_VALUE: SetNext:aNext <- 8190
	@DEBUG_VALUE: SetNext:this <- undef
	.loc	2 114 98 is_stmt 0              @ ../../../components/network/thread/subg_openthread/src/core/utils/heap.hpp:114:98
	str	r2, [r0, r1]
	movw	r1, #8180
.Ltmp3:
	.loc	12 61 23 is_stmt 1              @ ../../../components/network/thread/subg_openthread/src/core/utils/heap.cpp:61:23
	str	r1, [r0]
.Ltmp4:
	.loc	12 62 1                         @ ../../../components/network/thread/subg_openthread/src/core/utils/heap.cpp:62:1
	bx	lr
.Ltmp5:
.Lfunc_end0:
	.size	_ZN2ot5Utils4HeapC2Ev, .Lfunc_end0-_ZN2ot5Utils4HeapC2Ev
	.cfi_endproc
	.cantunwind
	.fnend
                                        @ -- End function
	.section	.text._ZN2ot5Utils4Heap6CAllocEjj,"ax",%progbits
	.hidden	_ZN2ot5Utils4Heap6CAllocEjj     @ -- Begin function _ZN2ot5Utils4Heap6CAllocEjj
	.globl	_ZN2ot5Utils4Heap6CAllocEjj
	.p2align	1
	.type	_ZN2ot5Utils4Heap6CAllocEjj,%function
	.code	16                              @ @_ZN2ot5Utils4Heap6CAllocEjj
	.thumb_func
_ZN2ot5Utils4Heap6CAllocEjj:
.Lfunc_begin1:
	.loc	12 65 0                         @ ../../../components/network/thread/subg_openthread/src/core/utils/heap.cpp:65:0
	.fnstart
	.cfi_startproc
@ %bb.0:
	@DEBUG_VALUE: CAlloc:this <- $r0
	@DEBUG_VALUE: CAlloc:aCount <- $r1
	@DEBUG_VALUE: CAlloc:aCount <- $r1
	@DEBUG_VALUE: CAlloc:aSize <- $r2
	@DEBUG_VALUE: CAlloc:aSize <- $r2
	.save	{r4, r5, r6, r7, lr}
	push	{r4, r5, r6, r7, lr}
	.cfi_def_cfa_offset 20
	.cfi_offset lr, -4
	.cfi_offset r7, -8
	.cfi_offset r6, -12
	.cfi_offset r5, -16
	.cfi_offset r4, -20
	.pad	#4
	sub	sp, #4
	.cfi_def_cfa_offset 24
.Ltmp6:
	.loc	12 69 50 prologue_end           @ ../../../components/network/thread/subg_openthread/src/core/utils/heap.cpp:69:50
	muls	r1, r2, r1
.Ltmp7:
	@DEBUG_VALUE: CAlloc:aCount <- [DW_OP_LLVM_entry_value 1] $r1
	@DEBUG_VALUE: CAlloc:size <- $r1
	.loc	12 71 5                         @ ../../../components/network/thread/subg_openthread/src/core/utils/heap.cpp:71:5
	lsls	r2, r1, #16
.Ltmp8:
	@DEBUG_VALUE: CAlloc:aSize <- [DW_OP_LLVM_entry_value 1] $r2
	@DEBUG_VALUE: CAlloc:curr <- 0
	@DEBUG_VALUE: CAlloc:prev <- 0
	@DEBUG_VALUE: CAlloc:ret <- 0
	@DEBUG_VALUE: CAlloc:this <- $r0
	beq	.LBB1_9
.Ltmp9:
@ %bb.1:
	@DEBUG_VALUE: CAlloc:size <- $r1
	@DEBUG_VALUE: CAlloc:this <- $r0
	@DEBUG_VALUE: CAlloc:ret <- 0
	@DEBUG_VALUE: CAlloc:prev <- 0
	@DEBUG_VALUE: CAlloc:curr <- 0
	@DEBUG_VALUE: CAlloc:aSize <- [DW_OP_LLVM_entry_value 1] $r2
	@DEBUG_VALUE: CAlloc:aCount <- [DW_OP_LLVM_entry_value 1] $r1
	.loc	12 0 5 is_stmt 0                @ ../../../components/network/thread/subg_openthread/src/core/utils/heap.cpp:0:5
	mov	r4, r0
.Ltmp10:
	@DEBUG_VALUE: CAlloc:this <- $r4
	@DEBUG_VALUE: CAlloc:this <- $r4
	@DEBUG_VALUE: CAlloc:size <- [DW_OP_plus_uconst 3, DW_OP_stack_value] $r1
	.loc	12 74 10 is_stmt 1              @ ../../../components/network/thread/subg_openthread/src/core/utils/heap.cpp:74:10
	adds	r0, r1, #3
.Ltmp11:
	.loc	2 100 102                       @ ../../../components/network/thread/subg_openthread/src/core/utils/heap.hpp:100:102
	mov	r1, r4
.Ltmp12:
	ldrh	r2, [r1, #2]!
.Ltmp13:
	@DEBUG_VALUE: BlockAt:aOffset <- 2
	@DEBUG_VALUE: BlockAt:this <- $r4
	@DEBUG_VALUE: BlockSuper:this <- $r4
	@DEBUG_VALUE: GetNext:this <- $r1
	@DEBUG_VALUE: BlockNext:aBlock <- $r1
	@DEBUG_VALUE: CAlloc:prev <- $r1
	@DEBUG_VALUE: CAlloc:size <- undef
	.loc	2 0 102 is_stmt 0               @ ../../../components/network/thread/subg_openthread/src/core/utils/heap.hpp:0:102
	movw	r3, #65532
	.loc	2 100 100                       @ ../../../components/network/thread/subg_openthread/src/core/utils/heap.hpp:100:100
	add	r2, r1
.Ltmp14:
	@DEBUG_VALUE: BlockAt:aOffset <- undef
	@DEBUG_VALUE: BlockAt:this <- $r4
	@DEBUG_VALUE: CAlloc:curr <- undef
	.loc	12 0 0                          @ ../../../components/network/thread/subg_openthread/src/core/utils/heap.cpp:0:0
	ldrh	r2, [r2, #2]
	.loc	12 74 10 is_stmt 1              @ ../../../components/network/thread/subg_openthread/src/core/utils/heap.cpp:74:10
	and.w	r7, r0, r3
	@DEBUG_VALUE: BlockNext:this <- $r4
	.loc	12 0 0 is_stmt 0                @ ../../../components/network/thread/subg_openthread/src/core/utils/heap.cpp:0:0
	bic	r6, r2, #1
.Ltmp15:
	.loc	2 77 43 is_stmt 1               @ ../../../components/network/thread/subg_openthread/src/core/utils/heap.hpp:77:43
	ldrh	r3, [r4, r6]
.Ltmp16:
	.loc	12 74 10                        @ ../../../components/network/thread/subg_openthread/src/core/utils/heap.cpp:74:10
	bic	r2, r0, #3
.Ltmp17:
	@DEBUG_VALUE: CAlloc:size <- $r2
	.loc	12 80 5                         @ ../../../components/network/thread/subg_openthread/src/core/utils/heap.cpp:80:5
	cmp	r3, r7
	.loc	12 0 0 is_stmt 0                @ ../../../components/network/thread/subg_openthread/src/core/utils/heap.cpp:0:0
	add	r6, r4
	@DEBUG_VALUE: GetSize:this <- undef
	@DEBUG_VALUE: CAlloc:curr <- undef
	.loc	12 80 5                         @ ../../../components/network/thread/subg_openthread/src/core/utils/heap.cpp:80:5
	bhs	.LBB1_4
.Ltmp18:
@ %bb.2:
	@DEBUG_VALUE: BlockNext:this <- $r4
	@DEBUG_VALUE: BlockAt:this <- $r4
	@DEBUG_VALUE: BlockSuper:this <- $r4
	@DEBUG_VALUE: BlockAt:this <- $r4
	@DEBUG_VALUE: CAlloc:this <- $r4
	@DEBUG_VALUE: CAlloc:size <- $r2
	@DEBUG_VALUE: CAlloc:prev <- $r1
	@DEBUG_VALUE: BlockNext:aBlock <- $r1
	@DEBUG_VALUE: GetNext:this <- $r1
	@DEBUG_VALUE: BlockAt:aOffset <- 2
	@DEBUG_VALUE: CAlloc:ret <- 0
	@DEBUG_VALUE: CAlloc:aSize <- [DW_OP_LLVM_entry_value 1] $r2
	@DEBUG_VALUE: CAlloc:aCount <- [DW_OP_LLVM_entry_value 1] $r1
	.loc	12 0 5                          @ ../../../components/network/thread/subg_openthread/src/core/utils/heap.cpp:0:5
	uxth	r5, r2
.Ltmp19:
	.p2align	2
.LBB1_3:                                @ =>This Inner Loop Header: Depth=1
	@DEBUG_VALUE: CAlloc:this <- $r4
	@DEBUG_VALUE: CAlloc:size <- $r2
	@DEBUG_VALUE: CAlloc:ret <- 0
	@DEBUG_VALUE: CAlloc:aSize <- [DW_OP_LLVM_entry_value 1] $r2
	@DEBUG_VALUE: CAlloc:aCount <- [DW_OP_LLVM_entry_value 1] $r1
	.loc	2 100 102 is_stmt 1             @ ../../../components/network/thread/subg_openthread/src/core/utils/heap.hpp:100:102
	uxth	r3, r3
	.loc	2 100 100 is_stmt 0             @ ../../../components/network/thread/subg_openthread/src/core/utils/heap.hpp:100:100
	add	r3, r6
.Ltmp20:
	@DEBUG_VALUE: BlockAt:aOffset <- undef
	@DEBUG_VALUE: BlockAt:this <- $r4
	@DEBUG_VALUE: CAlloc:curr <- undef
	.loc	12 0 0                          @ ../../../components/network/thread/subg_openthread/src/core/utils/heap.cpp:0:0
	ldrh	r3, [r3, #2]
	mov	r0, r6
	@DEBUG_VALUE: GetNext:this <- $r0
	@DEBUG_VALUE: BlockNext:aBlock <- $r0
	@DEBUG_VALUE: BlockNext:this <- $r4
.Ltmp21:
	@DEBUG_VALUE: CAlloc:prev <- $r0
	bic	r6, r3, #1
.Ltmp22:
	.loc	2 77 43 is_stmt 1               @ ../../../components/network/thread/subg_openthread/src/core/utils/heap.hpp:77:43
	ldrh	r3, [r4, r6]
.Ltmp23:
	.loc	12 0 0 is_stmt 0                @ ../../../components/network/thread/subg_openthread/src/core/utils/heap.cpp:0:0
	add	r6, r4
	@DEBUG_VALUE: GetSize:this <- $r6
.Ltmp24:
	@DEBUG_VALUE: CAlloc:curr <- $r6
	.loc	12 80 5 is_stmt 1               @ ../../../components/network/thread/subg_openthread/src/core/utils/heap.cpp:80:5
	cmp	r3, r5
	blo	.LBB1_3
	b	.LBB1_5
.Ltmp25:
.LBB1_4:
	@DEBUG_VALUE: BlockNext:this <- $r4
	@DEBUG_VALUE: BlockAt:this <- $r4
	@DEBUG_VALUE: BlockSuper:this <- $r4
	@DEBUG_VALUE: BlockAt:this <- $r4
	@DEBUG_VALUE: CAlloc:this <- $r4
	@DEBUG_VALUE: CAlloc:size <- $r2
	@DEBUG_VALUE: CAlloc:prev <- $r1
	@DEBUG_VALUE: BlockNext:aBlock <- $r1
	@DEBUG_VALUE: GetNext:this <- $r1
	@DEBUG_VALUE: BlockAt:aOffset <- 2
	@DEBUG_VALUE: CAlloc:ret <- 0
	@DEBUG_VALUE: CAlloc:aSize <- [DW_OP_LLVM_entry_value 1] $r2
	@DEBUG_VALUE: CAlloc:aCount <- [DW_OP_LLVM_entry_value 1] $r1
	.loc	12 0 0 is_stmt 0                @ ../../../components/network/thread/subg_openthread/src/core/utils/heap.cpp:0:0
	mov	r0, r1
.Ltmp26:
.LBB1_5:
	@DEBUG_VALUE: CAlloc:this <- $r4
	@DEBUG_VALUE: CAlloc:size <- $r2
	@DEBUG_VALUE: CAlloc:ret <- 0
	@DEBUG_VALUE: CAlloc:aSize <- [DW_OP_LLVM_entry_value 1] $r2
	@DEBUG_VALUE: CAlloc:aCount <- [DW_OP_LLVM_entry_value 1] $r1
	movw	r5, #65535
.Ltmp27:
	@DEBUG_VALUE: IsFree:this <- $r6
	.loc	2 149 63 is_stmt 1              @ ../../../components/network/thread/subg_openthread/src/core/utils/heap.hpp:149:63
	cmp	r3, r5
	beq	.LBB1_9
.Ltmp28:
@ %bb.6:
	@DEBUG_VALUE: IsFree:this <- $r6
	@DEBUG_VALUE: CAlloc:this <- $r4
	@DEBUG_VALUE: CAlloc:size <- $r2
	@DEBUG_VALUE: CAlloc:ret <- 0
	@DEBUG_VALUE: CAlloc:aSize <- [DW_OP_LLVM_entry_value 1] $r2
	@DEBUG_VALUE: CAlloc:aCount <- [DW_OP_LLVM_entry_value 1] $r1
	@DEBUG_VALUE: GetNext:this <- $r6
	.loc	2 100 100                       @ ../../../components/network/thread/subg_openthread/src/core/utils/heap.hpp:100:100
	add	r3, r6
	.loc	2 99 16                         @ ../../../components/network/thread/subg_openthread/src/core/utils/heap.hpp:99:16
	ldrh	r3, [r3, #2]
.Ltmp29:
	.loc	12 86 5                         @ ../../../components/network/thread/subg_openthread/src/core/utils/heap.cpp:86:5
	cbz	r3, .LBB1_9
.Ltmp30:
@ %bb.7:
	@DEBUG_VALUE: CAlloc:this <- $r4
	@DEBUG_VALUE: CAlloc:size <- $r2
	@DEBUG_VALUE: CAlloc:ret <- 0
	@DEBUG_VALUE: CAlloc:aSize <- [DW_OP_LLVM_entry_value 1] $r2
	@DEBUG_VALUE: CAlloc:aCount <- [DW_OP_LLVM_entry_value 1] $r1
	@DEBUG_VALUE: GetNext:this <- $r6
	@DEBUG_VALUE: SetNext:this <- $r0
	@DEBUG_VALUE: SetNext:aNext <- $r3
	.loc	2 114 90                        @ ../../../components/network/thread/subg_openthread/src/core/utils/heap.hpp:114:90
	ldrh	r5, [r0]
	.loc	2 114 88 is_stmt 0              @ ../../../components/network/thread/subg_openthread/src/core/utils/heap.hpp:114:88
	add	r5, r0
	.loc	2 114 98                        @ ../../../components/network/thread/subg_openthread/src/core/utils/heap.hpp:114:98
	strh	r3, [r5, #2]
.Ltmp31:
	@DEBUG_VALUE: GetSize:this <- $r6
	.loc	2 77 43 is_stmt 1               @ ../../../components/network/thread/subg_openthread/src/core/utils/heap.hpp:77:43
	ldrh	r3, [r6]
.Ltmp32:
	.loc	12 90 32                        @ ../../../components/network/thread/subg_openthread/src/core/utils/heap.cpp:90:32
	adds	r5, r7, #4
.Ltmp33:
	.loc	12 90 9 is_stmt 0               @ ../../../components/network/thread/subg_openthread/src/core/utils/heap.cpp:90:9
	cmp	r5, r3
	bhs	.LBB1_10
.Ltmp34:
@ %bb.8:
	@DEBUG_VALUE: CAlloc:this <- $r4
	@DEBUG_VALUE: CAlloc:size <- $r2
	@DEBUG_VALUE: CAlloc:ret <- 0
	@DEBUG_VALUE: CAlloc:aSize <- [DW_OP_LLVM_entry_value 1] $r2
	@DEBUG_VALUE: CAlloc:aCount <- [DW_OP_LLVM_entry_value 1] $r1
	@DEBUG_VALUE: GetSize:this <- $r6
	.loc	2 324 81 is_stmt 1              @ ../../../components/network/thread/subg_openthread/src/core/utils/heap.hpp:324:81
	subs	r5, r6, r4
.Ltmp35:
	@DEBUG_VALUE: GetSize:this <- $r6
	.loc	12 92 55                        @ ../../../components/network/thread/subg_openthread/src/core/utils/heap.cpp:92:55
	subs	r3, r3, r2
.Ltmp36:
	.loc	2 85 42                         @ ../../../components/network/thread/subg_openthread/src/core/utils/heap.hpp:85:42
	strh	r2, [r6]
.Ltmp37:
	@DEBUG_VALUE: BlockOffset:aBlock <- $r6
	@DEBUG_VALUE: BlockOffset:this <- $r4
	@DEBUG_VALUE: BlockRight:aBlock <- $r6
	@DEBUG_VALUE: BlockRight:this <- $r4
	.loc	2 296 81                        @ ../../../components/network/thread/subg_openthread/src/core/utils/heap.hpp:296:81
	add	r2, r5
.Ltmp38:
	.loc	2 296 97 is_stmt 0              @ ../../../components/network/thread/subg_openthread/src/core/utils/heap.hpp:296:97
	adds	r2, #4
	movw	r5, #65534
.Ltmp39:
	@DEBUG_VALUE: BlockAt:this <- $r4
	@DEBUG_VALUE: BlockAt:aOffset <- $r2
	.loc	12 92 62 is_stmt 1              @ ../../../components/network/thread/subg_openthread/src/core/utils/heap.cpp:92:62
	subs	r3, #4
	@DEBUG_VALUE: SetSize:aSize <- $r2
	@DEBUG_VALUE: SetSize:this <- $r6
.Ltmp40:
	@DEBUG_VALUE: newBlockSize <- $r3
	.loc	2 253 95                        @ ../../../components/network/thread/subg_openthread/src/core/utils/heap.hpp:253:95
	ands	r5, r2
	.loc	2 253 75 is_stmt 0              @ ../../../components/network/thread/subg_openthread/src/core/utils/heap.hpp:253:75
	adds	r2, r4, r5
.Ltmp41:
	@DEBUG_VALUE: SetSize:aSize <- $r3
	@DEBUG_VALUE: SetSize:this <- $r2
	@DEBUG_VALUE: newBlock <- $r2
	.loc	2 85 42 is_stmt 1               @ ../../../components/network/thread/subg_openthread/src/core/utils/heap.hpp:85:42
	strh	r3, [r4, r5]
.Ltmp42:
	.loc	12 92 62                        @ ../../../components/network/thread/subg_openthread/src/core/utils/heap.cpp:92:62
	uxth	r3, r3
.Ltmp43:
	@DEBUG_VALUE: SetNext:aNext <- 0
	@DEBUG_VALUE: SetNext:this <- $r2
	.loc	2 114 88                        @ ../../../components/network/thread/subg_openthread/src/core/utils/heap.hpp:114:88
	add.w	r12, r2, r3
	movs	r5, #0
	.loc	2 114 98 is_stmt 0              @ ../../../components/network/thread/subg_openthread/src/core/utils/heap.hpp:114:98
	strh.w	r5, [r12, #2]
.Ltmp44:
	@DEBUG_VALUE: GetSize:this <- $r0
	.loc	2 77 43 is_stmt 1               @ ../../../components/network/thread/subg_openthread/src/core/utils/heap.hpp:77:43
	ldrh	r5, [r0]
.Ltmp45:
	.loc	12 99 13                        @ ../../../components/network/thread/subg_openthread/src/core/utils/heap.cpp:99:13
	cmp	r5, r3
	it	lo
	movlo	r1, r0
.Ltmp46:
	.loc	12 0 0 is_stmt 0                @ ../../../components/network/thread/subg_openthread/src/core/utils/heap.cpp:0:0
	mov	r0, r4
.Ltmp47:
	bl	_ZN2ot5Utils4Heap11BlockInsertERNS0_5BlockES3_
.Ltmp48:
	.loc	12 108 27 is_stmt 1             @ ../../../components/network/thread/subg_openthread/src/core/utils/heap.cpp:108:27
	ldrh	r0, [r4]
	subs	r0, #4
	strh	r0, [r4]
.Ltmp49:
	.loc	2 77 43                         @ ../../../components/network/thread/subg_openthread/src/core/utils/heap.hpp:77:43
	ldrh	r3, [r6]
	b	.LBB1_11
.Ltmp50:
.LBB1_9:
	@DEBUG_VALUE: CAlloc:ret <- 0
	@DEBUG_VALUE: CAlloc:aSize <- [DW_OP_LLVM_entry_value 1] $r2
	@DEBUG_VALUE: CAlloc:aCount <- [DW_OP_LLVM_entry_value 1] $r1
	.loc	2 0 43 is_stmt 0                @ ../../../components/network/thread/subg_openthread/src/core/utils/heap.hpp:0:43
	movs	r4, #0
	b	.LBB1_12
.Ltmp51:
.LBB1_10:
	@DEBUG_VALUE: CAlloc:this <- $r4
	@DEBUG_VALUE: CAlloc:size <- $r2
	@DEBUG_VALUE: CAlloc:ret <- 0
	@DEBUG_VALUE: CAlloc:aSize <- [DW_OP_LLVM_entry_value 1] $r2
	@DEBUG_VALUE: CAlloc:aCount <- [DW_OP_LLVM_entry_value 1] $r1
	.loc	12 111 23 is_stmt 1             @ ../../../components/network/thread/subg_openthread/src/core/utils/heap.cpp:111:23
	ldrh	r0, [r4]
.Ltmp52:
.LBB1_11:
	@DEBUG_VALUE: CAlloc:this <- $r4
	@DEBUG_VALUE: CAlloc:ret <- 0
	@DEBUG_VALUE: CAlloc:aSize <- [DW_OP_LLVM_entry_value 1] $r2
	@DEBUG_VALUE: CAlloc:aCount <- [DW_OP_LLVM_entry_value 1] $r1
	@DEBUG_VALUE: GetSize:this <- $r6
	subs	r0, r0, r3
	strh	r0, [r4]
.Ltmp53:
	@DEBUG_VALUE: SetNext:aNext <- 0
	@DEBUG_VALUE: SetNext:this <- $r6
	.loc	2 114 90                        @ ../../../components/network/thread/subg_openthread/src/core/utils/heap.hpp:114:90
	mov	r4, r6
.Ltmp54:
	@DEBUG_VALUE: CAlloc:this <- [DW_OP_LLVM_entry_value 1] $r0
	ldrh	r0, [r4], #2
	movs	r1, #0
	.loc	2 114 88 is_stmt 0              @ ../../../components/network/thread/subg_openthread/src/core/utils/heap.hpp:114:88
	add	r0, r6
	.loc	2 114 98                        @ ../../../components/network/thread/subg_openthread/src/core/utils/heap.hpp:114:98
	strh	r1, [r0, #2]
.Ltmp55:
	@DEBUG_VALUE: GetPointer:this <- undef
	.loc	12 115 5 is_stmt 1              @ ../../../components/network/thread/subg_openthread/src/core/utils/heap.cpp:115:5
	mov	r0, r4
	mov	r1, r7
	bl	__aeabi_memclr
.Ltmp56:
	@DEBUG_VALUE: GetPointer:this <- undef
	@DEBUG_VALUE: CAlloc:ret <- $r4
.LBB1_12:
	@DEBUG_VALUE: CAlloc:aSize <- [DW_OP_LLVM_entry_value 1] $r2
	@DEBUG_VALUE: CAlloc:aCount <- [DW_OP_LLVM_entry_value 1] $r1
	@DEBUG_VALUE: CAlloc:ret <- $r4
	@DEBUG_LABEL: CAlloc:exit
	.loc	12 119 5                        @ ../../../components/network/thread/subg_openthread/src/core/utils/heap.cpp:119:5
	mov	r0, r4
.Ltmp57:
	@DEBUG_VALUE: CAlloc:ret <- $r0
	add	sp, #4
	pop	{r4, r5, r6, r7, pc}
.Ltmp58:
.Lfunc_end1:
	.size	_ZN2ot5Utils4Heap6CAllocEjj, .Lfunc_end1-_ZN2ot5Utils4Heap6CAllocEjj
	.cfi_endproc
	.cantunwind
	.fnend
                                        @ -- End function
	.section	.text._ZN2ot5Utils4Heap11BlockInsertERNS0_5BlockES3_,"ax",%progbits
	.hidden	_ZN2ot5Utils4Heap11BlockInsertERNS0_5BlockES3_ @ -- Begin function _ZN2ot5Utils4Heap11BlockInsertERNS0_5BlockES3_
	.globl	_ZN2ot5Utils4Heap11BlockInsertERNS0_5BlockES3_
	.p2align	1
	.type	_ZN2ot5Utils4Heap11BlockInsertERNS0_5BlockES3_,%function
	.code	16                              @ @_ZN2ot5Utils4Heap11BlockInsertERNS0_5BlockES3_
	.thumb_func
_ZN2ot5Utils4Heap11BlockInsertERNS0_5BlockES3_:
.Lfunc_begin2:
	.loc	12 123 0                        @ ../../../components/network/thread/subg_openthread/src/core/utils/heap.cpp:123:0
	.fnstart
	.cfi_startproc
@ %bb.0:
	@DEBUG_VALUE: BlockInsert:this <- $r0
	@DEBUG_VALUE: BlockInsert:aPrev <- $r1
	@DEBUG_VALUE: BlockInsert:aPrev <- $r1
	@DEBUG_VALUE: BlockInsert:aBlock <- $r2
	@DEBUG_VALUE: BlockNext:this <- $r0
	@DEBUG_VALUE: BlockNext:aBlock <- $r1
	@DEBUG_VALUE: BlockNext:aBlock <- $r1
	@DEBUG_VALUE: GetNext:this <- $r1
	@DEBUG_VALUE: GetNext:this <- $r1
	.save	{r4, lr}
	push	{r4, lr}
	.cfi_def_cfa_offset 8
	.cfi_offset lr, -4
	.cfi_offset r4, -8
.Ltmp59:
	@DEBUG_VALUE: BlockInsert:prev <- $r1
	@DEBUG_VALUE: BlockInsert:prev <- $r1
	.loc	2 100 102 prologue_end          @ ../../../components/network/thread/subg_openthread/src/core/utils/heap.hpp:100:102
	ldrh	r3, [r1]
.Ltmp60:
	@DEBUG_VALUE: BlockInsert:aBlock <- $r2
	.loc	2 77 43                         @ ../../../components/network/thread/subg_openthread/src/core/utils/heap.hpp:77:43
	ldrh.w	r12, [r2]
.Ltmp61:
	.loc	2 100 100                       @ ../../../components/network/thread/subg_openthread/src/core/utils/heap.hpp:100:100
	add	r3, r1
.Ltmp62:
	@DEBUG_VALUE: block <- undef
	@DEBUG_VALUE: BlockAt:aOffset <- undef
	@DEBUG_VALUE: BlockAt:this <- undef
	.loc	12 0 0 is_stmt 0                @ ../../../components/network/thread/subg_openthread/src/core/utils/heap.cpp:0:0
	ldrh.w	lr, [r3, #2]
	@DEBUG_VALUE: BlockNext:this <- $r0
	@DEBUG_VALUE: BlockInsert:this <- $r0
	bic	r3, lr, #1
.Ltmp63:
	@DEBUG_VALUE: GetSize:this <- undef
	@DEBUG_VALUE: block <- undef
	.loc	2 77 43 is_stmt 1               @ ../../../components/network/thread/subg_openthread/src/core/utils/heap.hpp:77:43
	ldrh	r4, [r0, r3]
.Ltmp64:
	@DEBUG_VALUE: GetSize:this <- $r2
	.loc	12 126 5                        @ ../../../components/network/thread/subg_openthread/src/core/utils/heap.cpp:126:5
	cmp	r4, r12
	bhs	.LBB2_4
.Ltmp65:
@ %bb.1:
	@DEBUG_VALUE: GetSize:this <- $r2
	@DEBUG_VALUE: BlockInsert:aBlock <- $r2
	@DEBUG_VALUE: BlockInsert:prev <- $r1
	@DEBUG_VALUE: GetNext:this <- $r1
	@DEBUG_VALUE: BlockNext:aBlock <- $r1
	@DEBUG_VALUE: BlockInsert:aPrev <- $r1
	@DEBUG_VALUE: BlockNext:this <- $r0
	@DEBUG_VALUE: BlockInsert:this <- $r0
	.loc	12 0 5 is_stmt 0                @ ../../../components/network/thread/subg_openthread/src/core/utils/heap.cpp:0:5
	add	r3, r0
	@DEBUG_VALUE: GetSize:this <- $r3
.Ltmp66:
	@DEBUG_VALUE: block <- $r3
	.p2align	2
.LBB2_2:                                @ =>This Inner Loop Header: Depth=1
	@DEBUG_VALUE: block <- $r3
	@DEBUG_VALUE: GetSize:this <- $r3
	@DEBUG_VALUE: BlockInsert:aBlock <- $r2
	@DEBUG_VALUE: BlockInsert:prev <- $r1
	@DEBUG_VALUE: BlockInsert:this <- $r0
	mov	r1, r3
.Ltmp67:
	@DEBUG_VALUE: BlockInsert:aPrev <- [DW_OP_LLVM_entry_value 1] $r1
	@DEBUG_VALUE: BlockNext:this <- $r0
	@DEBUG_VALUE: GetNext:this <- $r1
	@DEBUG_VALUE: BlockNext:aBlock <- $r1
	@DEBUG_VALUE: BlockInsert:prev <- $r1
	.loc	2 100 100 is_stmt 1             @ ../../../components/network/thread/subg_openthread/src/core/utils/heap.hpp:100:100
	add	r3, r4
.Ltmp68:
	@DEBUG_VALUE: BlockAt:aOffset <- undef
	@DEBUG_VALUE: BlockAt:this <- $r0
	@DEBUG_VALUE: block <- undef
	.loc	12 0 0 is_stmt 0                @ ../../../components/network/thread/subg_openthread/src/core/utils/heap.cpp:0:0
	ldrh	r3, [r3, #2]
	bic	r3, r3, #1
.Ltmp69:
	.loc	2 77 43 is_stmt 1               @ ../../../components/network/thread/subg_openthread/src/core/utils/heap.hpp:77:43
	ldrh	r4, [r0, r3]
.Ltmp70:
	@DEBUG_VALUE: GetSize:this <- $r2
	.loc	12 0 0 is_stmt 0                @ ../../../components/network/thread/subg_openthread/src/core/utils/heap.cpp:0:0
	add	r3, r0
	@DEBUG_VALUE: GetSize:this <- $r3
.Ltmp71:
	@DEBUG_VALUE: block <- $r3
	.loc	12 126 5 is_stmt 1              @ ../../../components/network/thread/subg_openthread/src/core/utils/heap.cpp:126:5
	cmp	r4, r12
	blo	.LBB2_2
.Ltmp72:
@ %bb.3:
	@DEBUG_VALUE: BlockInsert:aBlock <- $r2
	@DEBUG_VALUE: BlockInsert:prev <- $r1
	@DEBUG_VALUE: BlockInsert:this <- $r0
	.loc	2 100 102                       @ ../../../components/network/thread/subg_openthread/src/core/utils/heap.hpp:100:102
	ldrh	r3, [r1]
	add	r3, r1
	.loc	2 99 16                         @ ../../../components/network/thread/subg_openthread/src/core/utils/heap.hpp:99:16
	ldrh.w	lr, [r3, #2]
.Ltmp73:
.LBB2_4:
	@DEBUG_VALUE: BlockInsert:aBlock <- $r2
	@DEBUG_VALUE: BlockInsert:prev <- $r1
	@DEBUG_VALUE: BlockInsert:this <- $r0
	@DEBUG_VALUE: GetNext:this <- $r1
	@DEBUG_VALUE: SetNext:this <- $r2
	@DEBUG_VALUE: SetNext:aNext <- $lr
	.loc	2 114 88                        @ ../../../components/network/thread/subg_openthread/src/core/utils/heap.hpp:114:88
	add.w	r3, r2, r12
	.loc	2 114 98 is_stmt 0              @ ../../../components/network/thread/subg_openthread/src/core/utils/heap.hpp:114:98
	strh.w	lr, [r3, #2]
.Ltmp74:
	.loc	2 114 90                        @ ../../../components/network/thread/subg_openthread/src/core/utils/heap.hpp:114:90
	ldrh	r3, [r1]
.Ltmp75:
	@DEBUG_VALUE: BlockOffset:aBlock <- $r2
	@DEBUG_VALUE: BlockOffset:this <- $r0
	.loc	2 324 81 is_stmt 1              @ ../../../components/network/thread/subg_openthread/src/core/utils/heap.hpp:324:81
	subs	r0, r2, r0
.Ltmp76:
	@DEBUG_VALUE: BlockInsert:this <- [DW_OP_LLVM_entry_value 1] $r0
	@DEBUG_VALUE: SetNext:aNext <- undef
	@DEBUG_VALUE: SetNext:this <- $r1
	.loc	2 114 88                        @ ../../../components/network/thread/subg_openthread/src/core/utils/heap.hpp:114:88
	add	r1, r3
.Ltmp77:
	.loc	2 114 98 is_stmt 0              @ ../../../components/network/thread/subg_openthread/src/core/utils/heap.hpp:114:98
	strh	r0, [r1, #2]
.Ltmp78:
	.loc	12 133 1 is_stmt 1              @ ../../../components/network/thread/subg_openthread/src/core/utils/heap.cpp:133:1
	pop	{r4, pc}
.Ltmp79:
.Lfunc_end2:
	.size	_ZN2ot5Utils4Heap11BlockInsertERNS0_5BlockES3_, .Lfunc_end2-_ZN2ot5Utils4Heap11BlockInsertERNS0_5BlockES3_
	.cfi_endproc
	.cantunwind
	.fnend
                                        @ -- End function
	.section	.text._ZN2ot5Utils4Heap9BlockPrevERKNS0_5BlockE,"ax",%progbits
	.hidden	_ZN2ot5Utils4Heap9BlockPrevERKNS0_5BlockE @ -- Begin function _ZN2ot5Utils4Heap9BlockPrevERKNS0_5BlockE
	.globl	_ZN2ot5Utils4Heap9BlockPrevERKNS0_5BlockE
	.p2align	1
	.type	_ZN2ot5Utils4Heap9BlockPrevERKNS0_5BlockE,%function
	.code	16                              @ @_ZN2ot5Utils4Heap9BlockPrevERKNS0_5BlockE
	.thumb_func
_ZN2ot5Utils4Heap9BlockPrevERKNS0_5BlockE:
.Lfunc_begin3:
	.loc	12 136 0                        @ ../../../components/network/thread/subg_openthread/src/core/utils/heap.cpp:136:0
	.fnstart
	.cfi_startproc
@ %bb.0:
	@DEBUG_VALUE: BlockPrev:this <- $r0
	@DEBUG_VALUE: BlockPrev:this <- $r0
	@DEBUG_VALUE: BlockPrev:aBlock <- $r1
	@DEBUG_VALUE: BlockSuper:this <- $r0
	@DEBUG_VALUE: BlockSuper:this <- $r0
	@DEBUG_VALUE: BlockAt:this <- $r0
	@DEBUG_VALUE: BlockAt:this <- $r0
	@DEBUG_VALUE: BlockAt:aOffset <- 2
	.loc	2 100 102 prologue_end          @ ../../../components/network/thread/subg_openthread/src/core/utils/heap.hpp:100:102
	mov	r2, r0
	ldrh	r3, [r2, #2]!
.Ltmp80:
	@DEBUG_VALUE: GetNext:this <- $r2
	@DEBUG_VALUE: BlockPrev:prev <- $r2
	@DEBUG_VALUE: BlockPrev:aBlock <- $r1
	.loc	2 324 81                        @ ../../../components/network/thread/subg_openthread/src/core/utils/heap.hpp:324:81
	subs	r1, r1, r0
.Ltmp81:
	@DEBUG_VALUE: BlockPrev:aBlock <- [DW_OP_LLVM_entry_value 1] $r1
	.loc	2 100 100                       @ ../../../components/network/thread/subg_openthread/src/core/utils/heap.hpp:100:100
	add	r3, r2
	.loc	2 99 16                         @ ../../../components/network/thread/subg_openthread/src/core/utils/heap.hpp:99:16
	ldrh	r3, [r3, #2]
.Ltmp82:
	@DEBUG_VALUE: BlockOffset:aBlock <- $r1
	@DEBUG_VALUE: BlockOffset:this <- $r0
	.loc	2 324 38                        @ ../../../components/network/thread/subg_openthread/src/core/utils/heap.hpp:324:38
	uxth	r1, r1
.Ltmp83:
	.p2align	2
.LBB3_1:                                @ =>This Inner Loop Header: Depth=1
	@DEBUG_VALUE: BlockPrev:prev <- $r2
	@DEBUG_VALUE: BlockPrev:aBlock <- [DW_OP_LLVM_entry_value 1] $r1
	.loc	12 139 5                        @ ../../../components/network/thread/subg_openthread/src/core/utils/heap.cpp:139:5
	cmp	r3, r1
	.loc	12 144 5                        @ ../../../components/network/thread/subg_openthread/src/core/utils/heap.cpp:144:5
	itt	eq
	moveq	r0, r2
.Ltmp84:
	@DEBUG_VALUE: BlockPrev:prev <- $r0
	@DEBUG_VALUE: BlockPrev:prev <- $r0
	@DEBUG_VALUE: BlockPrev:this <- [DW_OP_LLVM_entry_value 1] $r0
	bxeq	lr
.Ltmp85:
.LBB3_2:                                @   in Loop: Header=BB3_1 Depth=1
	@DEBUG_VALUE: BlockPrev:prev <- $r0
	@DEBUG_VALUE: BlockPrev:aBlock <- [DW_OP_LLVM_entry_value 1] $r1
	@DEBUG_VALUE: BlockNext:this <- $r0
	@DEBUG_VALUE: BlockNext:aBlock <- undef
	@DEBUG_VALUE: GetNext:this <- undef
	@DEBUG_VALUE: BlockAt:this <- $r0
	@DEBUG_VALUE: BlockAt:aOffset <- $r3
	.loc	2 253 95                        @ ../../../components/network/thread/subg_openthread/src/core/utils/heap.hpp:253:95
	bic	r2, r3, #1
.Ltmp86:
	.loc	2 100 102                       @ ../../../components/network/thread/subg_openthread/src/core/utils/heap.hpp:100:102
	ldrh	r3, [r0, r2]
.Ltmp87:
	.loc	2 253 75                        @ ../../../components/network/thread/subg_openthread/src/core/utils/heap.hpp:253:75
	add	r2, r0
.Ltmp88:
	@DEBUG_VALUE: BlockAt:this <- $r0
	@DEBUG_VALUE: BlockNext:this <- $r0
	@DEBUG_VALUE: GetNext:this <- $r2
	@DEBUG_VALUE: BlockPrev:prev <- $r2
	.loc	2 100 100                       @ ../../../components/network/thread/subg_openthread/src/core/utils/heap.hpp:100:100
	add	r3, r2
	.loc	2 99 16                         @ ../../../components/network/thread/subg_openthread/src/core/utils/heap.hpp:99:16
	ldrh	r3, [r3, #2]
	@DEBUG_VALUE: BlockOffset:aBlock <- undef
	@DEBUG_VALUE: BlockOffset:this <- $r0
	b	.LBB3_1
.Ltmp89:
.Lfunc_end3:
	.size	_ZN2ot5Utils4Heap9BlockPrevERKNS0_5BlockE, .Lfunc_end3-_ZN2ot5Utils4Heap9BlockPrevERKNS0_5BlockE
	.cfi_endproc
	.cantunwind
	.fnend
                                        @ -- End function
	.section	.text._ZN2ot5Utils4Heap4FreeEPv,"ax",%progbits
	.hidden	_ZN2ot5Utils4Heap4FreeEPv       @ -- Begin function _ZN2ot5Utils4Heap4FreeEPv
	.globl	_ZN2ot5Utils4Heap4FreeEPv
	.p2align	1
	.type	_ZN2ot5Utils4Heap4FreeEPv,%function
	.code	16                              @ @_ZN2ot5Utils4Heap4FreeEPv
	.thumb_func
_ZN2ot5Utils4Heap4FreeEPv:
.Lfunc_begin4:
	.loc	12 148 0                        @ ../../../components/network/thread/subg_openthread/src/core/utils/heap.cpp:148:0
	.fnstart
	.cfi_startproc
@ %bb.0:
	@DEBUG_VALUE: Free:this <- $r0
	@DEBUG_VALUE: Free:aPointer <- $r1
	@DEBUG_VALUE: Free:aPointer <- $r1
	.save	{r4, r5, r6, r7, lr}
	push	{r4, r5, r6, r7, lr}
	.cfi_def_cfa_offset 20
	.cfi_offset lr, -4
	.cfi_offset r7, -8
	.cfi_offset r6, -12
	.cfi_offset r5, -16
	.cfi_offset r4, -20
	.pad	#4
	sub	sp, #4
	.cfi_def_cfa_offset 24
.Ltmp90:
	.loc	12 149 9 prologue_end           @ ../../../components/network/thread/subg_openthread/src/core/utils/heap.cpp:149:9
	cmp	r1, #0
	@DEBUG_VALUE: Free:this <- $r0
	beq.w	.LBB4_18
.Ltmp91:
@ %bb.1:
	@DEBUG_VALUE: Free:aPointer <- $r1
	@DEBUG_VALUE: Free:this <- $r0
	.loc	12 0 9 is_stmt 0                @ ../../../components/network/thread/subg_openthread/src/core/utils/heap.cpp:0:9
	mov	r4, r0
.Ltmp92:
	@DEBUG_VALUE: Free:this <- $r4
	@DEBUG_VALUE: BlockOf:this <- $r4
	@DEBUG_VALUE: BlockOf:aPointer <- $r1
	@DEBUG_VALUE: BlockOf:offset <- undef
	.loc	2 266 16 is_stmt 1              @ ../../../components/network/thread/subg_openthread/src/core/utils/heap.hpp:266:16
	subs	r0, r1, r0
	movw	r1, #65534
.Ltmp93:
	@DEBUG_VALUE: Free:aPointer <- [DW_OP_LLVM_entry_value 1] $r1
	add	r0, r1
.Ltmp94:
	@DEBUG_VALUE: BlockAt:aOffset <- [DW_OP_LLVM_convert 32 7, DW_OP_LLVM_convert 16 7, DW_OP_constu 2, DW_OP_minus, DW_OP_stack_value] undef
	@DEBUG_VALUE: BlockAt:this <- $r4
	@DEBUG_VALUE: BlockOf:offset <- [DW_OP_LLVM_convert 32 7, DW_OP_LLVM_convert 16 7, DW_OP_constu 2, DW_OP_minus, DW_OP_stack_value] undef
	.loc	2 253 95                        @ ../../../components/network/thread/subg_openthread/src/core/utils/heap.hpp:253:95
	and.w	r3, r0, r1
.Ltmp95:
	.loc	2 77 43                         @ ../../../components/network/thread/subg_openthread/src/core/utils/heap.hpp:77:43
	ldrh	r0, [r4, r3]
.Ltmp96:
	.loc	2 253 75                        @ ../../../components/network/thread/subg_openthread/src/core/utils/heap.hpp:253:75
	adds	r2, r4, r3
.Ltmp97:
	@DEBUG_VALUE: BlockOffset:aBlock <- $r2
	@DEBUG_VALUE: GetSize:this <- $r2
	@DEBUG_VALUE: GetSize:this <- $r2
	@DEBUG_VALUE: BlockOffset:this <- $r4
	@DEBUG_VALUE: BlockRight:this <- $r4
	@DEBUG_VALUE: BlockOffset:aBlock <- $r2
	@DEBUG_VALUE: BlockRight:aBlock <- $r2
	@DEBUG_VALUE: Free:block <- $r2
	@DEBUG_VALUE: BlockAt:this <- $r4
	@DEBUG_VALUE: BlockOf:this <- $r4
	.loc	2 296 81                        @ ../../../components/network/thread/subg_openthread/src/core/utils/heap.hpp:296:81
	adds	r6, r3, r0
	.loc	2 296 97 is_stmt 0              @ ../../../components/network/thread/subg_openthread/src/core/utils/heap.hpp:296:97
	adds	r6, #4
.Ltmp98:
	@DEBUG_VALUE: BlockAt:this <- $r4
	@DEBUG_VALUE: BlockAt:aOffset <- $r6
	.loc	2 253 95 is_stmt 1              @ ../../../components/network/thread/subg_openthread/src/core/utils/heap.hpp:253:95
	ands	r1, r6
.Ltmp99:
	.loc	12 157 23                       @ ../../../components/network/thread/subg_openthread/src/core/utils/heap.cpp:157:23
	ldrh	r6, [r4]
.Ltmp100:
	.loc	2 253 75                        @ ../../../components/network/thread/subg_openthread/src/core/utils/heap.hpp:253:75
	add.w	lr, r4, r1
.Ltmp101:
	@DEBUG_VALUE: Free:right <- $lr
	@DEBUG_VALUE: BlockAt:this <- $r4
	@DEBUG_VALUE: BlockRight:this <- $r4
	@DEBUG_VALUE: BlockRight:aBlock <- $r2
	.loc	12 157 23                       @ ../../../components/network/thread/subg_openthread/src/core/utils/heap.cpp:157:23
	add	r0, r6
.Ltmp102:
	@DEBUG_VALUE: IsLeftFree:aBlock <- $r2
	.loc	2 312 93                        @ ../../../components/network/thread/subg_openthread/src/core/utils/heap.hpp:312:93
	cmp	r3, #6
.Ltmp103:
	.loc	12 157 23                       @ ../../../components/network/thread/subg_openthread/src/core/utils/heap.cpp:157:23
	strh	r0, [r4]
.Ltmp104:
	@DEBUG_VALUE: BlockOffset:this <- $r4
	@DEBUG_VALUE: IsLeftFree:this <- $r4
	@DEBUG_VALUE: IsLeftFree:aBlock <- $r2
	.loc	2 312 93                        @ ../../../components/network/thread/subg_openthread/src/core/utils/heap.hpp:312:93
	beq	.LBB4_11
.Ltmp105:
@ %bb.2:
	@DEBUG_VALUE: IsLeftFree:this <- $r4
	@DEBUG_VALUE: Free:this <- $r4
	@DEBUG_VALUE: IsLeftFree:aBlock <- $r2
	@DEBUG_VALUE: Free:block <- $r2
	@DEBUG_VALUE: Free:right <- $lr
	@DEBUG_VALUE: Free:aPointer <- [DW_OP_LLVM_entry_value 1] $r1
	@DEBUG_VALUE: IsLeftFree:this <- $r2
	@DEBUG_VALUE: GetLeftNext:this <- $r2
	.loc	2 131 47                        @ ../../../components/network/thread/subg_openthread/src/core/utils/heap.hpp:131:47
	ldrh	r1, [r2, #-2]
.Ltmp106:
	.loc	12 159 9                        @ ../../../components/network/thread/subg_openthread/src/core/utils/heap.cpp:159:9
	cbz	r1, .LBB4_11
.Ltmp107:
@ %bb.3:
	@DEBUG_VALUE: Free:this <- $r4
	@DEBUG_VALUE: Free:block <- $r2
	@DEBUG_VALUE: Free:right <- $lr
	@DEBUG_VALUE: Free:aPointer <- [DW_OP_LLVM_entry_value 1] $r1
	@DEBUG_VALUE: BlockSuper:this <- $r4
	@DEBUG_VALUE: BlockAt:this <- $r4
	@DEBUG_VALUE: BlockAt:aOffset <- 2
	@DEBUG_VALUE: BlockNext:this <- $r4
	.loc	2 100 102                       @ ../../../components/network/thread/subg_openthread/src/core/utils/heap.hpp:100:102
	mov	r7, r4
	ldrh	r1, [r7, #2]!
.Ltmp108:
	@DEBUG_VALUE: GetNext:this <- $r7
	@DEBUG_VALUE: BlockNext:aBlock <- $r7
	@DEBUG_VALUE: prev <- $r7
	.loc	12 164 27                       @ ../../../components/network/thread/subg_openthread/src/core/utils/heap.cpp:164:27
	adds	r0, #4
.Ltmp109:
	.loc	2 100 100                       @ ../../../components/network/thread/subg_openthread/src/core/utils/heap.hpp:100:100
	add	r1, r7
.Ltmp110:
	.loc	12 164 27                       @ ../../../components/network/thread/subg_openthread/src/core/utils/heap.cpp:164:27
	strh	r0, [r4]
.Ltmp111:
	@DEBUG_VALUE: GetLeftNext:this <- $r2
	.loc	2 99 16                         @ ../../../components/network/thread/subg_openthread/src/core/utils/heap.hpp:99:16
	ldrh	r5, [r1, #2]
.Ltmp112:
	@DEBUG_VALUE: left <- undef
	@DEBUG_VALUE: BlockAt:aOffset <- undef
	@DEBUG_VALUE: BlockAt:this <- $r4
	.loc	2 131 47                        @ ../../../components/network/thread/subg_openthread/src/core/utils/heap.hpp:131:47
	ldrh	r0, [r2, #-2]
.Ltmp113:
	@DEBUG_VALUE: offset <- undef
	.loc	12 0 0 is_stmt 0                @ ../../../components/network/thread/subg_openthread/src/core/utils/heap.cpp:0:0
	mov	r3, r7
.Ltmp114:
	.p2align	2
.LBB4_4:                                @ =>This Inner Loop Header: Depth=1
	@DEBUG_VALUE: Free:this <- $r4
	@DEBUG_VALUE: Free:block <- $r2
	@DEBUG_VALUE: Free:right <- $lr
	@DEBUG_VALUE: Free:aPointer <- [DW_OP_LLVM_entry_value 1] $r1
	mov	r1, r3
	bic	r3, r5, #1
.Ltmp115:
	.loc	2 100 102 is_stmt 1             @ ../../../components/network/thread/subg_openthread/src/core/utils/heap.hpp:100:102
	ldrh	r5, [r4, r3]
.Ltmp116:
	.loc	12 0 0 is_stmt 0                @ ../../../components/network/thread/subg_openthread/src/core/utils/heap.cpp:0:0
	add	r3, r4
.Ltmp117:
	@DEBUG_VALUE: GetNext:this <- $r3
	@DEBUG_VALUE: left <- $r3
	@DEBUG_VALUE: prev <- $r1
	.loc	2 100 100                       @ ../../../components/network/thread/subg_openthread/src/core/utils/heap.hpp:100:100
	add	r5, r3
	.loc	2 99 16 is_stmt 1               @ ../../../components/network/thread/subg_openthread/src/core/utils/heap.hpp:99:16
	ldrh	r5, [r5, #2]
.Ltmp118:
	.loc	12 166 9                        @ ../../../components/network/thread/subg_openthread/src/core/utils/heap.cpp:166:9
	cmp	r5, r0
	bne	.LBB4_4
.Ltmp119:
@ %bb.5:
	@DEBUG_VALUE: Free:this <- $r4
	@DEBUG_VALUE: left <- $r3
	@DEBUG_VALUE: Free:block <- $r2
	@DEBUG_VALUE: prev <- $r1
	@DEBUG_VALUE: Free:right <- $lr
	@DEBUG_VALUE: Free:aPointer <- [DW_OP_LLVM_entry_value 1] $r1
	@DEBUG_VALUE: GetNext:this <- $r3
	@DEBUG_VALUE: SetNext:this <- $r1
	.loc	2 114 90                        @ ../../../components/network/thread/subg_openthread/src/core/utils/heap.hpp:114:90
	ldrh	r5, [r1]
	movs	r6, #0
	.loc	2 114 88 is_stmt 0              @ ../../../components/network/thread/subg_openthread/src/core/utils/heap.hpp:114:88
	add	r5, r1
	.loc	2 114 98                        @ ../../../components/network/thread/subg_openthread/src/core/utils/heap.hpp:114:98
	strh	r0, [r5, #2]
.Ltmp120:
	@DEBUG_VALUE: SetNext:aNext <- 0
	@DEBUG_VALUE: SetNext:aNext <- undef
	@DEBUG_VALUE: SetNext:this <- $r3
	.loc	2 114 90                        @ ../../../components/network/thread/subg_openthread/src/core/utils/heap.hpp:114:90
	ldrh	r0, [r3]
	.loc	2 114 88                        @ ../../../components/network/thread/subg_openthread/src/core/utils/heap.hpp:114:88
	adds	r5, r3, r0
	.loc	2 114 98                        @ ../../../components/network/thread/subg_openthread/src/core/utils/heap.hpp:114:98
	strh	r6, [r5, #2]
.Ltmp121:
	@DEBUG_VALUE: IsFree:this <- $lr
	.loc	2 149 38 is_stmt 1              @ ../../../components/network/thread/subg_openthread/src/core/utils/heap.hpp:149:38
	ldrh.w	r5, [lr]
	movw	r6, #65535
	.loc	2 149 63 is_stmt 0              @ ../../../components/network/thread/subg_openthread/src/core/utils/heap.hpp:149:63
	cmp	r5, r6
	beq	.LBB4_22
.Ltmp122:
@ %bb.6:
	@DEBUG_VALUE: Free:this <- $r4
	@DEBUG_VALUE: left <- $r3
	@DEBUG_VALUE: Free:block <- $r2
	@DEBUG_VALUE: prev <- $r1
	@DEBUG_VALUE: IsFree:this <- $lr
	@DEBUG_VALUE: Free:right <- $lr
	@DEBUG_VALUE: Free:aPointer <- [DW_OP_LLVM_entry_value 1] $r1
	@DEBUG_VALUE: GetNext:this <- $lr
	.loc	2 100 100 is_stmt 1             @ ../../../components/network/thread/subg_openthread/src/core/utils/heap.hpp:100:100
	add.w	r6, lr, r5
	.loc	2 99 16                         @ ../../../components/network/thread/subg_openthread/src/core/utils/heap.hpp:99:16
	ldrh	r6, [r6, #2]
.Ltmp123:
	.loc	12 175 13                       @ ../../../components/network/thread/subg_openthread/src/core/utils/heap.cpp:175:13
	cmp	r6, #0
	beq	.LBB4_22
.Ltmp124:
@ %bb.7:
	@DEBUG_VALUE: Free:this <- $r4
	@DEBUG_VALUE: left <- $r3
	@DEBUG_VALUE: Free:block <- $r2
	@DEBUG_VALUE: prev <- $r1
	@DEBUG_VALUE: Free:right <- $lr
	@DEBUG_VALUE: Free:aPointer <- [DW_OP_LLVM_entry_value 1] $r1
	.loc	12 177 31                       @ ../../../components/network/thread/subg_openthread/src/core/utils/heap.cpp:177:31
	ldrh	r0, [r4]
	adds	r0, #4
	strh	r0, [r4]
.Ltmp125:
	@DEBUG_VALUE: GetSize:this <- $lr
	.loc	2 77 43                         @ ../../../components/network/thread/subg_openthread/src/core/utils/heap.hpp:77:43
	ldrh.w	r12, [lr]
.Ltmp126:
	.loc	2 77 43 is_stmt 0               @ ../../../components/network/thread/subg_openthread/src/core/utils/heap.hpp:77:43
	ldrh	r0, [r3]
.Ltmp127:
	.loc	12 179 17 is_stmt 1             @ ../../../components/network/thread/subg_openthread/src/core/utils/heap.cpp:179:17
	cmp	r12, r0
	@DEBUG_VALUE: GetSize:this <- $r3
	bls	.LBB4_19
.Ltmp128:
@ %bb.8:
	@DEBUG_VALUE: Free:this <- $r4
	@DEBUG_VALUE: left <- $r3
	@DEBUG_VALUE: Free:block <- $r2
	@DEBUG_VALUE: prev <- $r1
	@DEBUG_VALUE: Free:right <- $lr
	@DEBUG_VALUE: Free:aPointer <- [DW_OP_LLVM_entry_value 1] $r1
	.loc	2 100 102                       @ ../../../components/network/thread/subg_openthread/src/core/utils/heap.hpp:100:102
	ldrh	r0, [r1]
.Ltmp129:
	@DEBUG_VALUE: BlockOffset:aBlock <- $lr
	@DEBUG_VALUE: BlockOffset:this <- $r4
	.loc	2 324 81                        @ ../../../components/network/thread/subg_openthread/src/core/utils/heap.hpp:324:81
	sub.w	r6, lr, r4
.Ltmp130:
	.loc	2 100 100                       @ ../../../components/network/thread/subg_openthread/src/core/utils/heap.hpp:100:100
	add	r0, r1
	.loc	2 99 16                         @ ../../../components/network/thread/subg_openthread/src/core/utils/heap.hpp:99:16
	ldrh	r5, [r0, #2]
.Ltmp131:
	.loc	2 324 38                        @ ../../../components/network/thread/subg_openthread/src/core/utils/heap.hpp:324:38
	uxth	r0, r6
.Ltmp132:
	@DEBUG_VALUE: GetNext:this <- $r1
	@DEBUG_VALUE: offset <- $r0
	@DEBUG_VALUE: BlockOffset:aBlock <- $lr
	@DEBUG_VALUE: BlockOffset:this <- $r4
	@DEBUG_VALUE: prev <- $r1
	.p2align	2
.LBB4_9:                                @ =>This Inner Loop Header: Depth=1
	@DEBUG_VALUE: Free:this <- $r4
	@DEBUG_VALUE: left <- $r3
	@DEBUG_VALUE: Free:block <- $r2
	@DEBUG_VALUE: prev <- $r1
	@DEBUG_VALUE: offset <- $r0
	@DEBUG_VALUE: Free:right <- $lr
	@DEBUG_VALUE: Free:aPointer <- [DW_OP_LLVM_entry_value 1] $r1
	.loc	12 181 17                       @ ../../../components/network/thread/subg_openthread/src/core/utils/heap.cpp:181:17
	cmp	r5, r0
	beq	.LBB4_21
.Ltmp133:
@ %bb.10:                               @   in Loop: Header=BB4_9 Depth=1
	@DEBUG_VALUE: Free:this <- $r4
	@DEBUG_VALUE: left <- $r3
	@DEBUG_VALUE: Free:block <- $r2
	@DEBUG_VALUE: prev <- $r1
	@DEBUG_VALUE: offset <- $r0
	@DEBUG_VALUE: Free:right <- $lr
	@DEBUG_VALUE: Free:aPointer <- [DW_OP_LLVM_entry_value 1] $r1
	@DEBUG_VALUE: BlockNext:this <- $r4
	@DEBUG_VALUE: BlockNext:aBlock <- undef
	@DEBUG_VALUE: GetNext:this <- undef
	@DEBUG_VALUE: BlockAt:this <- $r4
	@DEBUG_VALUE: BlockAt:aOffset <- $r5
	.loc	2 253 95                        @ ../../../components/network/thread/subg_openthread/src/core/utils/heap.hpp:253:95
	bic	r1, r5, #1
.Ltmp134:
	.loc	2 100 102                       @ ../../../components/network/thread/subg_openthread/src/core/utils/heap.hpp:100:102
	ldrh	r5, [r4, r1]
.Ltmp135:
	.loc	2 253 75                        @ ../../../components/network/thread/subg_openthread/src/core/utils/heap.hpp:253:75
	add	r1, r4
.Ltmp136:
	@DEBUG_VALUE: BlockAt:this <- $r4
	@DEBUG_VALUE: BlockNext:this <- $r4
	@DEBUG_VALUE: GetNext:this <- $r1
	@DEBUG_VALUE: prev <- $r1
	.loc	2 100 100                       @ ../../../components/network/thread/subg_openthread/src/core/utils/heap.hpp:100:100
	add	r5, r1
	.loc	2 99 16                         @ ../../../components/network/thread/subg_openthread/src/core/utils/heap.hpp:99:16
	ldrh	r5, [r5, #2]
	b	.LBB4_9
.Ltmp137:
.LBB4_11:
	@DEBUG_VALUE: Free:this <- $r4
	@DEBUG_VALUE: Free:block <- $r2
	@DEBUG_VALUE: Free:right <- $lr
	@DEBUG_VALUE: Free:aPointer <- [DW_OP_LLVM_entry_value 1] $r1
	@DEBUG_VALUE: IsFree:this <- $lr
	.loc	2 149 38                        @ ../../../components/network/thread/subg_openthread/src/core/utils/heap.hpp:149:38
	ldrh.w	r0, [lr]
	movw	r1, #65535
	.loc	2 149 63 is_stmt 0              @ ../../../components/network/thread/subg_openthread/src/core/utils/heap.hpp:149:63
	cmp	r0, r1
	beq	.LBB4_16
.Ltmp138:
@ %bb.12:
	@DEBUG_VALUE: Free:this <- $r4
	@DEBUG_VALUE: Free:block <- $r2
	@DEBUG_VALUE: IsFree:this <- $lr
	@DEBUG_VALUE: Free:right <- $lr
	@DEBUG_VALUE: Free:aPointer <- [DW_OP_LLVM_entry_value 1] $r1
	@DEBUG_VALUE: GetNext:this <- $lr
	.loc	2 100 100 is_stmt 1             @ ../../../components/network/thread/subg_openthread/src/core/utils/heap.hpp:100:100
	add	r0, lr
	.loc	2 99 16                         @ ../../../components/network/thread/subg_openthread/src/core/utils/heap.hpp:99:16
	ldrh	r0, [r0, #2]
.Ltmp139:
	.loc	12 204 13                       @ ../../../components/network/thread/subg_openthread/src/core/utils/heap.cpp:204:13
	cbz	r0, .LBB4_16
.Ltmp140:
@ %bb.13:
	@DEBUG_VALUE: Free:this <- $r4
	@DEBUG_VALUE: Free:block <- $r2
	@DEBUG_VALUE: Free:right <- $lr
	@DEBUG_VALUE: Free:aPointer <- [DW_OP_LLVM_entry_value 1] $r1
	@DEBUG_VALUE: BlockPrev:this <- $r4
	@DEBUG_VALUE: BlockPrev:aBlock <- $lr
	@DEBUG_VALUE: BlockSuper:this <- $r4
	@DEBUG_VALUE: BlockAt:this <- $r4
	@DEBUG_VALUE: BlockAt:aOffset <- 2
	.loc	2 100 102                       @ ../../../components/network/thread/subg_openthread/src/core/utils/heap.hpp:100:102
	mov	r1, r4
	ldrh	r3, [r1, #2]!
.Ltmp141:
	@DEBUG_VALUE: GetNext:this <- $r1
	@DEBUG_VALUE: BlockPrev:prev <- $r1
	.loc	2 100 100 is_stmt 0             @ ../../../components/network/thread/subg_openthread/src/core/utils/heap.hpp:100:100
	add	r3, r1
	.loc	2 99 16 is_stmt 1               @ ../../../components/network/thread/subg_openthread/src/core/utils/heap.hpp:99:16
	ldrh	r6, [r3, #2]
.Ltmp142:
	@DEBUG_VALUE: BlockOffset:aBlock <- $lr
	@DEBUG_VALUE: BlockOffset:this <- $r4
	.loc	2 324 81                        @ ../../../components/network/thread/subg_openthread/src/core/utils/heap.hpp:324:81
	sub.w	r3, lr, r4
	.loc	2 324 38 is_stmt 0              @ ../../../components/network/thread/subg_openthread/src/core/utils/heap.hpp:324:38
	uxth	r3, r3
.Ltmp143:
	.p2align	2
.LBB4_14:                               @ =>This Inner Loop Header: Depth=1
	@DEBUG_VALUE: BlockPrev:this <- $r4
	@DEBUG_VALUE: Free:this <- $r4
	@DEBUG_VALUE: Free:block <- $r2
	@DEBUG_VALUE: BlockPrev:prev <- $r1
	@DEBUG_VALUE: BlockPrev:aBlock <- $lr
	@DEBUG_VALUE: Free:right <- $lr
	@DEBUG_VALUE: Free:aPointer <- [DW_OP_LLVM_entry_value 1] $r1
	.loc	12 139 5 is_stmt 1              @ ../../../components/network/thread/subg_openthread/src/core/utils/heap.cpp:139:5
	cmp	r6, r3
	beq	.LBB4_17
.Ltmp144:
@ %bb.15:                               @   in Loop: Header=BB4_14 Depth=1
	@DEBUG_VALUE: BlockPrev:this <- $r4
	@DEBUG_VALUE: Free:this <- $r4
	@DEBUG_VALUE: Free:block <- $r2
	@DEBUG_VALUE: BlockPrev:prev <- $r1
	@DEBUG_VALUE: BlockPrev:aBlock <- $lr
	@DEBUG_VALUE: Free:right <- $lr
	@DEBUG_VALUE: Free:aPointer <- [DW_OP_LLVM_entry_value 1] $r1
	@DEBUG_VALUE: BlockNext:this <- $r4
	@DEBUG_VALUE: BlockNext:aBlock <- undef
	@DEBUG_VALUE: GetNext:this <- undef
	@DEBUG_VALUE: BlockAt:this <- $r4
	@DEBUG_VALUE: BlockAt:aOffset <- $r6
	.loc	2 253 95                        @ ../../../components/network/thread/subg_openthread/src/core/utils/heap.hpp:253:95
	bic	r1, r6, #1
.Ltmp145:
	.loc	2 100 102                       @ ../../../components/network/thread/subg_openthread/src/core/utils/heap.hpp:100:102
	ldrh	r7, [r4, r1]
.Ltmp146:
	.loc	2 253 75                        @ ../../../components/network/thread/subg_openthread/src/core/utils/heap.hpp:253:75
	add	r1, r4
.Ltmp147:
	@DEBUG_VALUE: BlockAt:this <- $r4
	@DEBUG_VALUE: BlockNext:this <- $r4
	@DEBUG_VALUE: GetNext:this <- $r1
	@DEBUG_VALUE: BlockPrev:prev <- $r1
	.loc	2 100 100                       @ ../../../components/network/thread/subg_openthread/src/core/utils/heap.hpp:100:100
	add	r7, r1
	.loc	2 99 16                         @ ../../../components/network/thread/subg_openthread/src/core/utils/heap.hpp:99:16
	ldrh	r6, [r7, #2]
.Ltmp148:
	@DEBUG_VALUE: BlockOffset:aBlock <- $lr
	@DEBUG_VALUE: BlockOffset:this <- $r4
	.loc	2 0 16 is_stmt 0                @ ../../../components/network/thread/subg_openthread/src/core/utils/heap.hpp:0:16
	b	.LBB4_14
.Ltmp149:
.LBB4_16:
	@DEBUG_VALUE: Free:this <- $r4
	@DEBUG_VALUE: Free:block <- $r2
	@DEBUG_VALUE: Free:right <- $lr
	@DEBUG_VALUE: Free:aPointer <- [DW_OP_LLVM_entry_value 1] $r1
	@DEBUG_VALUE: BlockSuper:this <- $r4
	@DEBUG_VALUE: BlockAt:this <- $r4
	@DEBUG_VALUE: BlockAt:aOffset <- 2
	.loc	2 253 75 is_stmt 1              @ ../../../components/network/thread/subg_openthread/src/core/utils/heap.hpp:253:75
	adds	r1, r4, #2
.Ltmp150:
	.loc	12 215 13                       @ ../../../components/network/thread/subg_openthread/src/core/utils/heap.cpp:215:13
	mov	r0, r4
.Ltmp151:
	@DEBUG_VALUE: Free:this <- $r0
	.loc	12 0 13 is_stmt 0               @ ../../../components/network/thread/subg_openthread/src/core/utils/heap.cpp:0:13
	b	.LBB4_23
.Ltmp152:
.LBB4_17:
	@DEBUG_VALUE: Free:this <- $r4
	@DEBUG_VALUE: Free:block <- $r2
	@DEBUG_VALUE: Free:right <- $lr
	@DEBUG_VALUE: Free:aPointer <- [DW_OP_LLVM_entry_value 1] $r1
	@DEBUG_VALUE: prev <- $r1
	@DEBUG_VALUE: GetNext:this <- $lr
	@DEBUG_VALUE: SetNext:this <- $r1
	@DEBUG_VALUE: SetNext:aNext <- $r0
	.loc	2 114 90 is_stmt 1              @ ../../../components/network/thread/subg_openthread/src/core/utils/heap.hpp:114:90
	ldrh	r3, [r1]
	.loc	2 114 88 is_stmt 0              @ ../../../components/network/thread/subg_openthread/src/core/utils/heap.hpp:114:88
	add	r3, r1
	.loc	2 114 98                        @ ../../../components/network/thread/subg_openthread/src/core/utils/heap.hpp:114:98
	strh	r0, [r3, #2]
.Ltmp153:
	@DEBUG_VALUE: GetSize:this <- $r2
	.loc	2 77 43 is_stmt 1               @ ../../../components/network/thread/subg_openthread/src/core/utils/heap.hpp:77:43
	ldrh	r0, [r2]
.Ltmp154:
	@DEBUG_VALUE: GetSize:this <- $lr
	.loc	2 77 43 is_stmt 0               @ ../../../components/network/thread/subg_openthread/src/core/utils/heap.hpp:77:43
	ldrh.w	r3, [lr]
.Ltmp155:
	.loc	12 208 43 is_stmt 1             @ ../../../components/network/thread/subg_openthread/src/core/utils/heap.cpp:208:43
	add	r0, r3
	.loc	12 208 61 is_stmt 0             @ ../../../components/network/thread/subg_openthread/src/core/utils/heap.cpp:208:61
	adds	r0, #4
.Ltmp156:
	@DEBUG_VALUE: SetSize:this <- $r2
	@DEBUG_VALUE: SetSize:aSize <- $r0
	.loc	2 85 42 is_stmt 1               @ ../../../components/network/thread/subg_openthread/src/core/utils/heap.hpp:85:42
	strh	r0, [r2]
.Ltmp157:
	.loc	12 209 13                       @ ../../../components/network/thread/subg_openthread/src/core/utils/heap.cpp:209:13
	mov	r0, r4
.Ltmp158:
	bl	_ZN2ot5Utils4Heap11BlockInsertERNS0_5BlockES3_
.Ltmp159:
	.loc	12 211 31                       @ ../../../components/network/thread/subg_openthread/src/core/utils/heap.cpp:211:31
	ldrh	r0, [r4]
	adds	r0, #4
	strh	r0, [r4]
.Ltmp160:
.LBB4_18:
	.loc	12 218 1                        @ ../../../components/network/thread/subg_openthread/src/core/utils/heap.cpp:218:1
	add	sp, #4
	pop	{r4, r5, r6, r7, pc}
.LBB4_19:
.Ltmp161:
	@DEBUG_VALUE: Free:this <- $r4
	@DEBUG_VALUE: left <- $r3
	@DEBUG_VALUE: Free:block <- $r2
	@DEBUG_VALUE: prev <- $r1
	@DEBUG_VALUE: Free:right <- $lr
	@DEBUG_VALUE: Free:aPointer <- [DW_OP_LLVM_entry_value 1] $r1
	@DEBUG_VALUE: BlockPrev:this <- $r4
	@DEBUG_VALUE: BlockPrev:aBlock <- $lr
	@DEBUG_VALUE: BlockSuper:this <- $r4
	@DEBUG_VALUE: BlockAt:this <- $r4
	@DEBUG_VALUE: BlockAt:aOffset <- 2
	@DEBUG_VALUE: BlockPrev:prev <- $r7
	@DEBUG_VALUE: GetNext:this <- $r7
	.loc	2 100 102                       @ ../../../components/network/thread/subg_openthread/src/core/utils/heap.hpp:100:102
	ldrh	r0, [r4, #2]
.Ltmp162:
	.loc	12 0 0 is_stmt 0                @ ../../../components/network/thread/subg_openthread/src/core/utils/heap.cpp:0:0
	mov	r1, r7
.Ltmp163:
	@DEBUG_VALUE: GetNext:this <- $r1
	@DEBUG_VALUE: BlockPrev:prev <- $r1
	@DEBUG_VALUE: BlockPrev:this <- $r4
	@DEBUG_VALUE: BlockPrev:aBlock <- $lr
	.loc	2 100 100                       @ ../../../components/network/thread/subg_openthread/src/core/utils/heap.hpp:100:100
	add	r0, r7
	.loc	2 99 16 is_stmt 1               @ ../../../components/network/thread/subg_openthread/src/core/utils/heap.hpp:99:16
	ldrh	r5, [r0, #2]
.Ltmp164:
	@DEBUG_VALUE: BlockOffset:aBlock <- $lr
	@DEBUG_VALUE: BlockOffset:this <- $r4
	.loc	2 324 81                        @ ../../../components/network/thread/subg_openthread/src/core/utils/heap.hpp:324:81
	sub.w	r0, lr, r4
	.loc	2 324 38 is_stmt 0              @ ../../../components/network/thread/subg_openthread/src/core/utils/heap.hpp:324:38
	uxth	r0, r0
.Ltmp165:
	.loc	12 139 5 is_stmt 1              @ ../../../components/network/thread/subg_openthread/src/core/utils/heap.cpp:139:5
	cmp	r5, r0
	beq	.LBB4_21
.Ltmp166:
	.p2align	2
.LBB4_20:                               @ =>This Inner Loop Header: Depth=1
	@DEBUG_VALUE: BlockPrev:this <- $r4
	@DEBUG_VALUE: Free:this <- $r4
	@DEBUG_VALUE: left <- $r3
	@DEBUG_VALUE: Free:block <- $r2
	@DEBUG_VALUE: BlockPrev:prev <- $r1
	@DEBUG_VALUE: GetNext:this <- $r1
	@DEBUG_VALUE: BlockPrev:aBlock <- $lr
	@DEBUG_VALUE: Free:right <- $lr
	@DEBUG_VALUE: Free:aPointer <- [DW_OP_LLVM_entry_value 1] $r1
	@DEBUG_VALUE: BlockNext:this <- $r4
	@DEBUG_VALUE: BlockNext:aBlock <- undef
	@DEBUG_VALUE: GetNext:this <- undef
	@DEBUG_VALUE: BlockAt:this <- $r4
	@DEBUG_VALUE: BlockAt:aOffset <- $r5
	.loc	2 253 95                        @ ../../../components/network/thread/subg_openthread/src/core/utils/heap.hpp:253:95
	bic	r1, r5, #1
.Ltmp167:
	.loc	2 100 102                       @ ../../../components/network/thread/subg_openthread/src/core/utils/heap.hpp:100:102
	ldrh	r5, [r4, r1]
.Ltmp168:
	.loc	2 253 75                        @ ../../../components/network/thread/subg_openthread/src/core/utils/heap.hpp:253:75
	add	r1, r4
.Ltmp169:
	@DEBUG_VALUE: BlockAt:this <- $r4
	@DEBUG_VALUE: BlockNext:this <- $r4
	@DEBUG_VALUE: GetNext:this <- $r1
	@DEBUG_VALUE: BlockPrev:prev <- $r1
	.loc	2 100 100                       @ ../../../components/network/thread/subg_openthread/src/core/utils/heap.hpp:100:100
	add	r5, r1
	.loc	2 99 16                         @ ../../../components/network/thread/subg_openthread/src/core/utils/heap.hpp:99:16
	ldrh	r5, [r5, #2]
.Ltmp170:
	@DEBUG_VALUE: BlockOffset:aBlock <- $lr
	@DEBUG_VALUE: BlockOffset:this <- $r4
	.loc	12 139 5                        @ ../../../components/network/thread/subg_openthread/src/core/utils/heap.cpp:139:5
	cmp	r5, r0
	bne	.LBB4_20
.Ltmp171:
.LBB4_21:
	@DEBUG_VALUE: Free:this <- $r4
	@DEBUG_VALUE: left <- $r3
	@DEBUG_VALUE: Free:block <- $r2
	@DEBUG_VALUE: Free:right <- $lr
	@DEBUG_VALUE: Free:aPointer <- [DW_OP_LLVM_entry_value 1] $r1
	@DEBUG_VALUE: prev <- $r1
	@DEBUG_VALUE: GetNext:this <- $lr
	.loc	2 100 100                       @ ../../../components/network/thread/subg_openthread/src/core/utils/heap.hpp:100:100
	add.w	r0, lr, #2
.Ltmp172:
	.loc	2 114 90                        @ ../../../components/network/thread/subg_openthread/src/core/utils/heap.hpp:114:90
	ldrh	r5, [r1]
.Ltmp173:
	.loc	2 99 16                         @ ../../../components/network/thread/subg_openthread/src/core/utils/heap.hpp:99:16
	ldrh.w	r7, [r0, r12]
.Ltmp174:
	@DEBUG_VALUE: SetNext:this <- $r1
	@DEBUG_VALUE: SetNext:aNext <- $r7
	@DEBUG_VALUE: GetNext:this <- $lr
	.loc	2 114 88                        @ ../../../components/network/thread/subg_openthread/src/core/utils/heap.hpp:114:88
	adds	r6, r1, r5
	.loc	2 114 98 is_stmt 0              @ ../../../components/network/thread/subg_openthread/src/core/utils/heap.hpp:114:98
	strh	r7, [r6, #2]
.Ltmp175:
	@DEBUG_VALUE: SetNext:aNext <- 0
	@DEBUG_VALUE: SetNext:this <- $lr
	.loc	2 114 90                        @ ../../../components/network/thread/subg_openthread/src/core/utils/heap.hpp:114:90
	ldrh.w	r7, [lr]
.Ltmp176:
	.loc	2 0 90                          @ ../../../components/network/thread/subg_openthread/src/core/utils/heap.hpp:0:90
	movs	r6, #0
	.loc	2 114 98                        @ ../../../components/network/thread/subg_openthread/src/core/utils/heap.hpp:114:98
	strh	r6, [r0, r7]
.Ltmp177:
	.loc	2 77 43 is_stmt 1               @ ../../../components/network/thread/subg_openthread/src/core/utils/heap.hpp:77:43
	ldrh	r0, [r3]
.Ltmp178:
	@DEBUG_VALUE: GetSize:this <- undef
	@DEBUG_VALUE: GetSize:this <- $r3
	.loc	12 194 43                       @ ../../../components/network/thread/subg_openthread/src/core/utils/heap.cpp:194:43
	add	r0, r7
	.loc	12 194 61 is_stmt 0             @ ../../../components/network/thread/subg_openthread/src/core/utils/heap.cpp:194:61
	adds	r0, #4
.Ltmp179:
	@DEBUG_VALUE: SetSize:aSize <- $r0
	.loc	2 85 42 is_stmt 1               @ ../../../components/network/thread/subg_openthread/src/core/utils/heap.hpp:85:42
	strh	r0, [r3]
.Ltmp180:
	@DEBUG_VALUE: SetSize:this <- $r3
.LBB4_22:
	@DEBUG_VALUE: Free:this <- $r4
	@DEBUG_VALUE: left <- $r3
	@DEBUG_VALUE: Free:block <- $r2
	@DEBUG_VALUE: prev <- $r1
	@DEBUG_VALUE: Free:right <- $lr
	@DEBUG_VALUE: Free:aPointer <- [DW_OP_LLVM_entry_value 1] $r1
	@DEBUG_VALUE: prev <- $r1
	@DEBUG_VALUE: GetSize:this <- $r3
	@DEBUG_VALUE: GetSize:this <- $r2
	.loc	2 77 43                         @ ../../../components/network/thread/subg_openthread/src/core/utils/heap.hpp:77:43
	ldrh	r2, [r2]
.Ltmp181:
	.loc	12 198 39                       @ ../../../components/network/thread/subg_openthread/src/core/utils/heap.cpp:198:39
	add	r0, r2
	.loc	12 198 57 is_stmt 0             @ ../../../components/network/thread/subg_openthread/src/core/utils/heap.cpp:198:57
	adds	r7, r0, #4
	.loc	12 200 9 is_stmt 1              @ ../../../components/network/thread/subg_openthread/src/core/utils/heap.cpp:200:9
	mov	r0, r4
.Ltmp182:
	@DEBUG_VALUE: Free:this <- $r0
	mov	r2, r3
.Ltmp183:
	@DEBUG_VALUE: SetSize:this <- $r3
	@DEBUG_VALUE: SetSize:aSize <- $r7
	.loc	2 85 42                         @ ../../../components/network/thread/subg_openthread/src/core/utils/heap.hpp:85:42
	strh	r7, [r3]
.Ltmp184:
.LBB4_23:
	@DEBUG_VALUE: Free:this <- $r0
	@DEBUG_VALUE: Free:right <- $lr
	@DEBUG_VALUE: Free:aPointer <- [DW_OP_LLVM_entry_value 1] $r1
	.loc	12 0 0 is_stmt 0                @ ../../../components/network/thread/subg_openthread/src/core/utils/heap.cpp:0:0
	add	sp, #4
	pop.w	{r4, r5, r6, r7, lr}
.Ltmp185:
	b	_ZN2ot5Utils4Heap11BlockInsertERNS0_5BlockES3_
.Ltmp186:
.Lfunc_end4:
	.size	_ZN2ot5Utils4Heap4FreeEPv, .Lfunc_end4-_ZN2ot5Utils4Heap4FreeEPv
	.cfi_endproc
	.cantunwind
	.fnend
                                        @ -- End function
	.section	".note.GNU-stack","",%progbits
	.eabi_attribute	30, 3	@ Tag_ABI_optimization_goals
	.ARM_attribute	16, 1	@ Tag_AV_eba