	.text
	.syntax unified
	.eabi_attribute	67, "2.09"	@ Tag_conformance
	.cpu	cortex-m3
	.eabi_attribute	6, 10	@ Tag_CPU_arch
	.eabi_attribute	7, 77	@ Tag_CPU_arch_profile
	.eabi_attribute	8, 0	@ Tag_ARM_ISA_use
	.eabi_attribute	9, 2	@ Tag_THUMB_ISA_use
	.eabi_attribute	34, 1	@ Tag_CPU_unaligned_access
	.eabi_attribute	17, 1	@ Tag_ABI_PCS_GOT_use
	.eabi_attribute	20, 2	@ Tag_ABI_FP_denormal
	.eabi_attribute	21, 0	@ Tag_ABI_FP_exceptions
	.eabi_attribute	23, 1	@ Tag_ABI_FP_number_model
	.eabi_attribute	24, 1	@ Tag_ABI_align_needed
	.eabi_attribute	25, 1	@ Tag_ABI_align_preserved
	.eabi_attribute	38, 1	@ Tag_ABI_FP_16bit_format
	.eabi_attribute	18, 4	@ Tag_ABI_PCS_wchar_t
	.eabi_attribute	26, 2	@ Tag_ABI_enum_size
	.eabi_attribute	14, 0	@ Tag_ABI_PCS_R9_use
	.file	"hmac_drbg.c"
	.file	1 "C:\\Users\\testo\\Desktop\\rafael-iot-sdk-das -0515\\examples\\das_subg_thread\\keil" "../../../components/network/thread/subg_openthread/third_party/mbedtls/repo/include\\mbedtls/md.h"
	.file	2 "C:\\Users\\testo\\Desktop\\rafael-iot-sdk-das -0515\\examples\\das_subg_thread\\keil" "../../../components/network/thread/subg_openthread/third_party/mbedtls/repo/include\\mbedtls/hmac_drbg.h"
	.file	3 "C:\\" "Keil_v5\\ARM\\ARMCLANG\\Bin\\..\\include\\stdio.h"
	.section	.text.mbedtls_hmac_drbg_init,"ax",%progbits
	.hidden	mbedtls_hmac_drbg_init          @ -- Begin function mbedtls_hmac_drbg_init
	.globl	mbedtls_hmac_drbg_init
	.p2align	1
	.type	mbedtls_hmac_drbg_init,%function
	.code	16                              @ @mbedtls_hmac_drbg_init
	.thumb_func
mbedtls_hmac_drbg_init:
.Lfunc_begin0:
	.file	4 "C:\\Users\\testo\\Desktop\\rafael-iot-sdk-das -0515\\examples\\das_subg_thread\\keil" "../../../components/network/thread/subg_openthread/third_party/mbedtls/repo/library/hmac_drbg.c"
	.loc	4 53 0                          @ ../../../components/network/thread/subg_openthread/third_party/mbedtls/repo/library/hmac_drbg.c:53:0
	.fnstart
	.cfi_sections .debug_frame
	.cfi_startproc
@ %bb.0:
	@DEBUG_VALUE: mbedtls_hmac_drbg_init:ctx <- $r0
	.save	{r4, lr}
	push	{r4, lr}
	.cfi_def_cfa_offset 8
	.cfi_offset lr, -4
	.cfi_offset r4, -8
.Ltmp0:
	.loc	4 54 5 prologue_end             @ ../../../components/network/thread/subg_openthread/third_party/mbedtls/repo/library/hmac_drbg.c:54:5
	movs	r1, #68
	mov	r4, r0
.Ltmp1:
	@DEBUG_VALUE: mbedtls_hmac_drbg_init:ctx <- $r4
	bl	__aeabi_memclr4
.Ltmp2:
	.loc	4 0 5 is_stmt 0                 @ ../../../components/network/thread/subg_openthread/third_party/mbedtls/repo/library/hmac_drbg.c:0:5
	movw	r0, #10000
	.loc	4 56 26 is_stmt 1               @ ../../../components/network/thread/subg_openthread/third_party/mbedtls/repo/library/hmac_drbg.c:56:26
	str	r0, [r4, #56]
	.loc	4 57 1                          @ ../../../components/network/thread/subg_openthread/third_party/mbedtls/repo/library/hmac_drbg.c:57:1
	pop	{r4, pc}
.Ltmp3:
.Lfunc_end0:
	.size	mbedtls_hmac_drbg_init, .Lfunc_end0-mbedtls_hmac_drbg_init
	.cfi_endproc
	.cantunwind
	.fnend
                                        @ -- End function
	.section	.text.mbedtls_hmac_drbg_update_ret,"ax",%progbits
	.hidden	mbedtls_hmac_drbg_update_ret    @ -- Begin function mbedtls_hmac_drbg_update_ret
	.globl	mbedtls_hmac_drbg_update_ret
	.p2align	1
	.type	mbedtls_hmac_drbg_update_ret,%function
	.code	16                              @ @mbedtls_hmac_drbg_update_ret
	.thumb_func
mbedtls_hmac_drbg_update_ret:
.Lfunc_begin1:
	.loc	4 65 0                          @ ../../../components/network/thread/subg_openthread/third_party/mbedtls/repo/library/hmac_drbg.c:65:0
	.fnstart
	.cfi_startproc
@ %bb.0:
	@DEBUG_VALUE: mbedtls_hmac_drbg_update_ret:ctx <- $r0
	@DEBUG_VALUE: mbedtls_hmac_drbg_update_ret:additional <- $r1
	@DEBUG_VALUE: mbedtls_hmac_drbg_update_ret:add_len <- $r2
	.save	{r4, r5, r6, r7, r8, r9, r10, r11, lr}
	push.w	{r4, r5, r6, r7, r8, r9, r10, r11, lr}
	.cfi_def_cfa_offset 36
	.cfi_offset lr, -4
	.cfi_offset r11, -8
	.cfi_offset r10, -12
	.cfi_offset r9, -16
	.cfi_offset r8, -20
	.cfi_offset r7, -24
	.cfi_offset r6, -28
	.cfi_offset r5, -32
	.cfi_offset r4, -36
	.pad	#44
	sub	sp, #44
	.cfi_def_cfa_offset 80
.Ltmp4:
	.loc	4 66 54 prologue_end            @ ../../../components/network/thread/subg_openthread/third_party/mbedtls/repo/library/hmac_drbg.c:66:54
	mov	r6, r0
	mov	r5, r0
.Ltmp5:
	@DEBUG_VALUE: mbedtls_hmac_drbg_update_ret:ctx <- $r5
	@DEBUG_VALUE: mbedtls_hmac_drbg_update_ret:add_len <- $r7
	@DEBUG_VALUE: mbedtls_hmac_drbg_update_ret:ctx <- $r5
	ldr	r0, [r6], #12
	mov	r7, r2
.Ltmp6:
	.loc	4 0 54 is_stmt 0                @ ../../../components/network/thread/subg_openthread/third_party/mbedtls/repo/library/hmac_drbg.c:0:54
	mov	r10, r1
.Ltmp7:
	@DEBUG_VALUE: mbedtls_hmac_drbg_update_ret:additional <- $r10
	@DEBUG_VALUE: mbedtls_hmac_drbg_update_ret:additional <- $r10
	.loc	4 66 21                         @ ../../../components/network/thread/subg_openthread/third_party/mbedtls/repo/library/hmac_drbg.c:66:21
	bl	mbedtls_md_get_size
.Ltmp8:
	mov	r4, r0
.Ltmp9:
	@DEBUG_VALUE: mbedtls_hmac_drbg_update_ret:md_len <- $r4
	.loc	4 67 41 is_stmt 1               @ ../../../components/network/thread/subg_openthread/third_party/mbedtls/repo/library/hmac_drbg.c:67:41
	cmp.w	r10, #0
	mov	r0, r10
	it	ne
	movne	r0, #1
	.loc	4 67 49 is_stmt 0               @ ../../../components/network/thread/subg_openthread/third_party/mbedtls/repo/library/hmac_drbg.c:67:49
	cmp	r7, #0
	str	r7, [sp, #4]                    @ 4-byte Spill
.Ltmp10:
	@DEBUG_VALUE: mbedtls_hmac_drbg_update_ret:add_len <- [DW_OP_plus_uconst 4] [$sp+0]
	it	ne
	movne	r7, #1
	ands.w	r9, r0, r7
.Ltmp11:
	@DEBUG_VALUE: mbedtls_hmac_drbg_update_ret:rounds <- undef
	.loc	4 0 49                          @ ../../../components/network/thread/subg_openthread/third_party/mbedtls/repo/library/hmac_drbg.c:0:49
	mov.w	r0, #0
.Ltmp12:
	@DEBUG_VALUE: mbedtls_hmac_drbg_update_ret:ret <- -20736
	mov.w	r8, #1
	add.w	r11, sp, #11
.Ltmp13:
	strb.w	r0, [sp, #43]
.Ltmp14:
	.loc	4 72 31 is_stmt 1               @ ../../../components/network/thread/subg_openthread/third_party/mbedtls/repo/library/hmac_drbg.c:72:31
	it	ne
	movne.w	r8, #2
.Ltmp15:
.LBB1_1:                                @ =>This Inner Loop Header: Depth=1
	@DEBUG_VALUE: mbedtls_hmac_drbg_update_ret:additional <- $r10
	@DEBUG_VALUE: mbedtls_hmac_drbg_update_ret:ctx <- $r5
	@DEBUG_VALUE: mbedtls_hmac_drbg_update_ret:md_len <- $r4
	@DEBUG_VALUE: mbedtls_hmac_drbg_update_ret:add_len <- [DW_OP_plus_uconst 4] [$sp+0]
	.loc	4 75 21                         @ ../../../components/network/thread/subg_openthread/third_party/mbedtls/repo/library/hmac_drbg.c:75:21
	mov	r0, r5
	bl	mbedtls_md_hmac_reset
.Ltmp16:
	@DEBUG_VALUE: mbedtls_hmac_drbg_update_ret:ret <- $r0
	.loc	4 75 13 is_stmt 0               @ ../../../components/network/thread/subg_openthread/third_party/mbedtls/repo/library/hmac_drbg.c:75:13
	cbnz	r0, .LBB1_12
.Ltmp17:
@ %bb.2:                                @   in Loop: Header=BB1_1 Depth=1
	@DEBUG_VALUE: mbedtls_hmac_drbg_update_ret:additional <- $r10
	@DEBUG_VALUE: mbedtls_hmac_drbg_update_ret:ctx <- $r5
	@DEBUG_VALUE: mbedtls_hmac_drbg_update_ret:md_len <- $r4
	@DEBUG_VALUE: mbedtls_hmac_drbg_update_ret:ret <- $r0
	@DEBUG_VALUE: mbedtls_hmac_drbg_update_ret:add_len <- [DW_OP_plus_uconst 4] [$sp+0]
	.loc	4 77 21 is_stmt 1               @ ../../../components/network/thread/subg_openthread/third_party/mbedtls/repo/library/hmac_drbg.c:77:21
	mov	r0, r5
.Ltmp18:
	mov	r1, r6
	mov	r2, r4
	bl	mbedtls_md_hmac_update
.Ltmp19:
	@DEBUG_VALUE: mbedtls_hmac_drbg_update_ret:ret <- $r0
	.loc	4 77 13 is_stmt 0               @ ../../../components/network/thread/subg_openthread/third_party/mbedtls/repo/library/hmac_drbg.c:77:13
	cbnz	r0, .LBB1_12
.Ltmp20:
@ %bb.3:                                @   in Loop: Header=BB1_1 Depth=1
	@DEBUG_VALUE: mbedtls_hmac_drbg_update_ret:additional <- $r10
	@DEBUG_VALUE: mbedtls_hmac_drbg_update_ret:ctx <- $r5
	@DEBUG_VALUE: mbedtls_hmac_drbg_update_ret:md_len <- $r4
	@DEBUG_VALUE: mbedtls_hmac_drbg_update_ret:ret <- $r0
	@DEBUG_VALUE: mbedtls_hmac_drbg_update_ret:add_len <- [DW_OP_plus_uconst 4] [$sp+0]
	.loc	4 80 21 is_stmt 1               @ ../../../components/network/thread/subg_openthread/third_party/mbedtls/repo/library/hmac_drbg.c:80:21
	mov	r0, r5
.Ltmp21:
	add.w	r1, sp, #43
	movs	r2, #1
	bl	mbedtls_md_hmac_update
.Ltmp22:
	@DEBUG_VALUE: mbedtls_hmac_drbg_update_ret:ret <- $r0
	.loc	4 80 13 is_stmt 0               @ ../../../components/network/thread/subg_openthread/third_party/mbedtls/repo/library/hmac_drbg.c:80:13
	cbnz	r0, .LBB1_12
.Ltmp23:
@ %bb.4:                                @   in Loop: Header=BB1_1 Depth=1
	@DEBUG_VALUE: mbedtls_hmac_drbg_update_ret:additional <- $r10
	@DEBUG_VALUE: mbedtls_hmac_drbg_update_ret:ctx <- $r5
	@DEBUG_VALUE: mbedtls_hmac_drbg_update_ret:md_len <- $r4
	@DEBUG_VALUE: mbedtls_hmac_drbg_update_ret:ret <- $r0
	@DEBUG_VALUE: mbedtls_hmac_drbg_update_ret:add_len <- [DW_OP_plus_uconst 4] [$sp+0]
	.loc	4 83 13 is_stmt 1               @ ../../../components/network/thread/subg_openthread/third_party/mbedtls/repo/library/hmac_drbg.c:83:13
	cmp.w	r9, #0
	beq	.LBB1_6
.Ltmp24:
@ %bb.5:                                @   in Loop: Header=BB1_1 Depth=1
	@DEBUG_VALUE: mbedtls_hmac_drbg_update_ret:additional <- $r10
	@DEBUG_VALUE: mbedtls_hmac_drbg_update_ret:ctx <- $r5
	@DEBUG_VALUE: mbedtls_hmac_drbg_update_ret:md_len <- $r4
	@DEBUG_VALUE: mbedtls_hmac_drbg_update_ret:ret <- $r0
	@DEBUG_VALUE: mbedtls_hmac_drbg_update_ret:add_len <- [DW_OP_plus_uconst 4] [$sp+0]
	.loc	4 85 25                         @ ../../../components/network/thread/subg_openthread/third_party/mbedtls/repo/library/hmac_drbg.c:85:25
	ldr	r2, [sp, #4]                    @ 4-byte Reload
	mov	r0, r5
.Ltmp25:
	mov	r1, r10
	bl	mbedtls_md_hmac_update
.Ltmp26:
	@DEBUG_VALUE: mbedtls_hmac_drbg_update_ret:ret <- $r0
	.loc	4 85 17 is_stmt 0               @ ../../../components/network/thread/subg_openthread/third_party/mbedtls/repo/library/hmac_drbg.c:85:17
	cbnz	r0, .LBB1_12
.Ltmp27:
.LBB1_6:                                @   in Loop: Header=BB1_1 Depth=1
	@DEBUG_VALUE: mbedtls_hmac_drbg_update_ret:additional <- $r10
	@DEBUG_VALUE: mbedtls_hmac_drbg_update_ret:ctx <- $r5
	@DEBUG_VALUE: mbedtls_hmac_drbg_update_ret:md_len <- $r4
	@DEBUG_VALUE: mbedtls_hmac_drbg_update_ret:ret <- $r0
	@DEBUG_VALUE: mbedtls_hmac_drbg_update_ret:add_len <- [DW_OP_plus_uconst 4] [$sp+0]
	.loc	4 89 21 is_stmt 1               @ ../../../components/network/thread/subg_openthread/third_party/mbedtls/repo/library/hmac_drbg.c:89:21
	mov	r0, r5
.Ltmp28:
	mov	r1, r11
	bl	mbedtls_md_hmac_finish
.Ltmp29:
	@DEBUG_VALUE: mbedtls_hmac_drbg_update_ret:ret <- $r0
	.loc	4 89 13 is_stmt 0               @ ../../../components/network/thread/subg_openthread/third_party/mbedtls/repo/library/hmac_drbg.c:89:13
	cbnz	r0, .LBB1_12
.Ltmp30:
@ %bb.7:                                @   in Loop: Header=BB1_1 Depth=1
	@DEBUG_VALUE: mbedtls_hmac_drbg_update_ret:additional <- $r10
	@DEBUG_VALUE: mbedtls_hmac_drbg_update_ret:ctx <- $r5
	@DEBUG_VALUE: mbedtls_hmac_drbg_update_ret:md_len <- $r4
	@DEBUG_VALUE: mbedtls_hmac_drbg_update_ret:ret <- $r0
	@DEBUG_VALUE: mbedtls_hmac_drbg_update_ret:add_len <- [DW_OP_plus_uconst 4] [$sp+0]
	.loc	4 93 21 is_stmt 1               @ ../../../components/network/thread/subg_openthread/third_party/mbedtls/repo/library/hmac_drbg.c:93:21
	mov	r0, r5
.Ltmp31:
	mov	r1, r11
	mov	r2, r4
	bl	mbedtls_md_hmac_starts
.Ltmp32:
	@DEBUG_VALUE: mbedtls_hmac_drbg_update_ret:ret <- $r0
	.loc	4 93 13 is_stmt 0               @ ../../../components/network/thread/subg_openthread/third_party/mbedtls/repo/library/hmac_drbg.c:93:13
	cbnz	r0, .LBB1_12
.Ltmp33:
@ %bb.8:                                @   in Loop: Header=BB1_1 Depth=1
	@DEBUG_VALUE: mbedtls_hmac_drbg_update_ret:additional <- $r10
	@DEBUG_VALUE: mbedtls_hmac_drbg_update_ret:ctx <- $r5
	@DEBUG_VALUE: mbedtls_hmac_drbg_update_ret:md_len <- $r4
	@DEBUG_VALUE: mbedtls_hmac_drbg_update_ret:ret <- $r0
	@DEBUG_VALUE: mbedtls_hmac_drbg_update_ret:add_len <- [DW_OP_plus_uconst 4] [$sp+0]
	.loc	4 95 21 is_stmt 1               @ ../../../components/network/thread/subg_openthread/third_party/mbedtls/repo/library/hmac_drbg.c:95:21
	mov	r0, r5
.Ltmp34:
	mov	r1, r6
	mov	r2, r4
	bl	mbedtls_md_hmac_update
.Ltmp35:
	@DEBUG_VALUE: mbedtls_hmac_drbg_update_ret:ret <- $r0
	.loc	4 95 13 is_stmt 0               @ ../../../components/network/thread/subg_openthread/third_party/mbedtls/repo/library/hmac_drbg.c:95:13
	cbnz	r0, .LBB1_12
.Ltmp36:
@ %bb.9:                                @   in Loop: Header=BB1_1 Depth=1
	@DEBUG_VALUE: mbedtls_hmac_drbg_update_ret:additional <- $r10
	@DEBUG_VALUE: mbedtls_hmac_drbg_update_ret:ctx <- $r5
	@DEBUG_VALUE: mbedtls_hmac_drbg_update_ret:md_len <- $r4
	@DEBUG_VALUE: mbedtls_hmac_drbg_update_ret:ret <- $r0
	@DEBUG_VALUE: mbedtls_hmac_drbg_update_ret:add_len <- [DW_OP_plus_uconst 4] [$sp+0]
	.loc	4 98 21 is_stmt 1               @ ../../../components/network/thread/subg_openthread/third_party/mbedtls/repo/library/hmac_drbg.c:98:21
	mov	r0, r5
.Ltmp37:
	mov	r1, r6
	bl	mbedtls_md_hmac_finish
.Ltmp38:
	@DEBUG_VALUE: mbedtls_hmac_drbg_update_ret:ret <- $r0
	.loc	4 98 13 is_stmt 0               @ ../../../components/network/thread/subg_openthread/third_party/mbedtls/repo/library/hmac_drbg.c:98:13
	cbnz	r0, .LBB1_12
.Ltmp39:
@ %bb.10:                               @   in Loop: Header=BB1_1 Depth=1
	@DEBUG_VALUE: mbedtls_hmac_drbg_update_ret:additional <- $r10
	@DEBUG_VALUE: mbedtls_hmac_drbg_update_ret:ctx <- $r5
	@DEBUG_VALUE: mbedtls_hmac_drbg_update_ret:md_len <- $r4
	@DEBUG_VALUE: mbedtls_hmac_drbg_update_ret:ret <- $r0
	@DEBUG_VALUE: mbedtls_hmac_drbg_update_ret:add_len <- [DW_OP_plus_uconst 4] [$sp+0]
	.loc	4 72 45 is_stmt 1               @ ../../../components/network/thread/subg_openthread/third_party/mbedtls/repo/library/hmac_drbg.c:72:45
	ldrb.w	r0, [sp, #43]
.Ltmp40:
	adds	r0, #1
	.loc	4 72 22 is_stmt 0               @ ../../../components/network/thread/subg_openthread/third_party/mbedtls/repo/library/hmac_drbg.c:72:22
	uxtb	r1, r0
.Ltmp41:
	.loc	4 72 5                          @ ../../../components/network/thread/subg_openthread/third_party/mbedtls/repo/library/hmac_drbg.c:72:5
	cmp	r8, r1
	.loc	4 0 0                           @ ../../../components/network/thread/subg_openthread/third_party/mbedtls/repo/library/hmac_drbg.c:0:0
	strb.w	r0, [sp, #43]
.Ltmp42:
	@DEBUG_VALUE: mbedtls_hmac_drbg_update_ret:ret <- 0
	.loc	4 72 5                          @ ../../../components/network/thread/subg_openthread/third_party/mbedtls/repo/library/hmac_drbg.c:72:5
	bhi	.LBB1_1
.Ltmp43:
@ %bb.11:
	@DEBUG_VALUE: mbedtls_hmac_drbg_update_ret:additional <- $r10
	@DEBUG_VALUE: mbedtls_hmac_drbg_update_ret:ctx <- $r5
	@DEBUG_VALUE: mbedtls_hmac_drbg_update_ret:md_len <- $r4
	@DEBUG_VALUE: mbedtls_hmac_drbg_update_ret:add_len <- [DW_OP_plus_uconst 4] [$sp+0]
	@DEBUG_VALUE: mbedtls_hmac_drbg_update_ret:ret <- 0
	.loc	4 0 5                           @ ../../../components/network/thread/subg_openthread/third_party/mbedtls/repo/library/hmac_drbg.c:0:5
	movs	r7, #0
	b	.LBB1_13
.Ltmp44:
.LBB1_12:
	@DEBUG_VALUE: mbedtls_hmac_drbg_update_ret:additional <- $r10
	@DEBUG_VALUE: mbedtls_hmac_drbg_update_ret:ctx <- $r5
	@DEBUG_VALUE: mbedtls_hmac_drbg_update_ret:md_len <- $r4
	@DEBUG_VALUE: mbedtls_hmac_drbg_update_ret:ret <- $r0
	@DEBUG_VALUE: mbedtls_hmac_drbg_update_ret:add_len <- [DW_OP_plus_uconst 4] [$sp+0]
	mov	r7, r0
.Ltmp45:
	@DEBUG_VALUE: mbedtls_hmac_drbg_update_ret:ret <- $r7
	@DEBUG_VALUE: mbedtls_hmac_drbg_update_ret:ret <- $r7
.LBB1_13:
	@DEBUG_VALUE: mbedtls_hmac_drbg_update_ret:additional <- $r10
	@DEBUG_VALUE: mbedtls_hmac_drbg_update_ret:ctx <- $r5
	@DEBUG_VALUE: mbedtls_hmac_drbg_update_ret:md_len <- $r4
	@DEBUG_VALUE: mbedtls_hmac_drbg_update_ret:add_len <- [DW_OP_plus_uconst 4] [$sp+0]
	@DEBUG_VALUE: mbedtls_hmac_drbg_update_ret:ret <- $r7
	@DEBUG_LABEL: mbedtls_hmac_drbg_update_ret:exit
	add.w	r0, sp, #11
	.loc	4 103 5 is_stmt 1               @ ../../../components/network/thread/subg_openthread/third_party/mbedtls/repo/library/hmac_drbg.c:103:5
	movs	r1, #32
	bl	mbedtls_platform_zeroize
.Ltmp46:
	.loc	4 104 5                         @ ../../../components/network/thread/subg_openthread/third_party/mbedtls/repo/library/hmac_drbg.c:104:5
	mov	r0, r7
	add	sp, #44
	pop.w	{r4, r5, r6, r7, r8, r9, r10, r11, pc}
.Ltmp47:
.Lfunc_end1:
	.size	mbedtls_hmac_drbg_update_ret, .Lfunc_end1-mbedtls_hmac_drbg_update_ret
	.cfi_endproc
	.cantunwind
	.fnend
                                        @ -- End function
	.section	.text.mbedtls_hmac_drbg_update,"ax",%progbits
	.hidden	mbedtls_hmac_drbg_update        @ -- Begin function mbedtls_hmac_drbg_update
	.globl	mbedtls_hmac_drbg_update
	.p2align	1
	.type	mbedtls_hmac_drbg_update,%function
	.code	16                              @ @mbedtls_hmac_drbg_update
	.thumb_func
mbedtls_hmac_drbg_update:
.Lfunc_begin2:
	.loc	4 111 0                         @ ../../../components/network/thread/subg_openthread/third_party/mbedtls/repo/library/hmac_drbg.c:111:0
	.fnstart
	.cfi_startproc
@ %bb.0:
	@DEBUG_VALUE: mbedtls_hmac_drbg_update:ctx <- $r0
	@DEBUG_VALUE: mbedtls_hmac_drbg_update:ctx <- $r0
	@DEBUG_VALUE: mbedtls_hmac_drbg_update:ctx <- $r0
	@DEBUG_VALUE: mbedtls_hmac_drbg_update:additional <- $r1
	@DEBUG_VALUE: mbedtls_hmac_drbg_update:additional <- $r1
	@DEBUG_VALUE: mbedtls_hmac_drbg_update:additional <- $r1
	@DEBUG_VALUE: mbedtls_hmac_drbg_update:add_len <- $r2
	@DEBUG_VALUE: mbedtls_hmac_drbg_update:add_len <- $r2
	@DEBUG_VALUE: mbedtls_hmac_drbg_update:add_len <- $r2
	.loc	4 112 12 prologue_end           @ ../../../components/network/thread/subg_openthread/third_party/mbedtls/repo/library/hmac_drbg.c:112:12
	b	mbedtls_hmac_drbg_update_ret
.Ltmp48:
.Lfunc_end2:
	.size	mbedtls_hmac_drbg_update, .Lfunc_end2-mbedtls_hmac_drbg_update
	.cfi_endproc
	.cantunwind
	.fnend
                                        @ -- End function
	.section	.text.mbedtls_hmac_drbg_seed_buf,"ax",%progbits
	.hidden	mbedtls_hmac_drbg_seed_buf      @ -- Begin function mbedtls_hmac_drbg_seed_buf
	.globl	mbedtls_hmac_drbg_seed_buf
	.p2align	1
	.type	mbedtls_hmac_drbg_seed_buf,%function
	.code	16                              @ @mbedtls_hmac_drbg_seed_buf
	.thumb_func
mbedtls_hmac_drbg_seed_buf:
.Lfunc_begin3:
	.loc	4 122 0                         @ ../../../components/network/thread/subg_openthread/third_party/mbedtls/repo/library/hmac_drbg.c:122:0
	.fnstart
	.cfi_startproc
@ %bb.0:
	@DEBUG_VALUE: mbedtls_hmac_drbg_seed_buf:ctx <- $r0
	@DEBUG_VALUE: mbedtls_hmac_drbg_seed_buf:md_info <- $r1
	@DEBUG_VALUE: mbedtls_hmac_drbg_seed_buf:data <- $r2
	@DEBUG_VALUE: mbedtls_hmac_drbg_seed_buf:data_len <- $r3
	.save	{r4, r5, r6, r7, r8, lr}
	push.w	{r4, r5, r6, r7, r8, lr}
	.cfi_def_cfa_offset 24
	.cfi_offset lr, -4
	.cfi_offset r8, -8
	.cfi_offset r7, -12
	.cfi_offset r6, -16
	.cfi_offset r5, -20
	.cfi_offset r4, -24
	mov	r5, r2
.Ltmp49:
	@DEBUG_VALUE: mbedtls_hmac_drbg_seed_buf:data <- $r5
	.loc	4 125 17 prologue_end           @ ../../../components/network/thread/subg_openthread/third_party/mbedtls/repo/library/hmac_drbg.c:125:17
	movs	r2, #1
	mov	r8, r3
.Ltmp50:
	@DEBUG_VALUE: mbedtls_hmac_drbg_seed_buf:data_len <- $r8
	.loc	4 0 17 is_stmt 0                @ ../../../components/network/thread/subg_openthread/third_party/mbedtls/repo/library/hmac_drbg.c:0:17
	mov	r7, r1
	mov	r6, r0
.Ltmp51:
	@DEBUG_VALUE: mbedtls_hmac_drbg_seed_buf:ret <- -110
	@DEBUG_VALUE: mbedtls_hmac_drbg_seed_buf:data_len <- $r8
	@DEBUG_VALUE: mbedtls_hmac_drbg_seed_buf:data <- $r5
	@DEBUG_VALUE: mbedtls_hmac_drbg_seed_buf:md_info <- $r7
	@DEBUG_VALUE: mbedtls_hmac_drbg_seed_buf:ctx <- $r6
	.loc	4 125 17                        @ ../../../components/network/thread/subg_openthread/third_party/mbedtls/repo/library/hmac_drbg.c:125:17
	bl	mbedtls_md_setup
.Ltmp52:
	@DEBUG_VALUE: mbedtls_hmac_drbg_seed_buf:ret <- $r0
	.loc	4 125 9                         @ ../../../components/network/thread/subg_openthread/third_party/mbedtls/repo/library/hmac_drbg.c:125:9
	cbnz	r0, .LBB3_2
.Ltmp53:
@ %bb.1:
	@DEBUG_VALUE: mbedtls_hmac_drbg_seed_buf:data_len <- $r8
	@DEBUG_VALUE: mbedtls_hmac_drbg_seed_buf:md_info <- $r7
	@DEBUG_VALUE: mbedtls_hmac_drbg_seed_buf:ctx <- $r6
	@DEBUG_VALUE: mbedtls_hmac_drbg_seed_buf:data <- $r5
	@DEBUG_VALUE: mbedtls_hmac_drbg_seed_buf:ret <- $r0
	.loc	4 138 41 is_stmt 1              @ ../../../components/network/thread/subg_openthread/third_party/mbedtls/repo/library/hmac_drbg.c:138:41
	mov	r0, r7
.Ltmp54:
	.loc	4 137 55                        @ ../../../components/network/thread/subg_openthread/third_party/mbedtls/repo/library/hmac_drbg.c:137:55
	add.w	r4, r6, #12
	.loc	4 138 41                        @ ../../../components/network/thread/subg_openthread/third_party/mbedtls/repo/library/hmac_drbg.c:138:41
	bl	mbedtls_md_get_size
.Ltmp55:
	mov	r2, r0
	.loc	4 137 17                        @ ../../../components/network/thread/subg_openthread/third_party/mbedtls/repo/library/hmac_drbg.c:137:17
	mov	r0, r6
	mov	r1, r4
	bl	mbedtls_md_hmac_starts
.Ltmp56:
	@DEBUG_VALUE: mbedtls_hmac_drbg_seed_buf:ret <- $r0
	.loc	4 137 9 is_stmt 0               @ ../../../components/network/thread/subg_openthread/third_party/mbedtls/repo/library/hmac_drbg.c:137:9
	cbz	r0, .LBB3_3
.Ltmp57:
.LBB3_2:
	@DEBUG_VALUE: mbedtls_hmac_drbg_seed_buf:data_len <- $r8
	@DEBUG_VALUE: mbedtls_hmac_drbg_seed_buf:md_info <- $r7
	@DEBUG_VALUE: mbedtls_hmac_drbg_seed_buf:ctx <- $r6
	@DEBUG_VALUE: mbedtls_hmac_drbg_seed_buf:data <- $r5
	@DEBUG_VALUE: mbedtls_hmac_drbg_seed_buf:ret <- $r0
	.loc	4 146 1 is_stmt 1               @ ../../../components/network/thread/subg_openthread/third_party/mbedtls/repo/library/hmac_drbg.c:146:1
	pop.w	{r4, r5, r6, r7, r8, pc}
.Ltmp58:
.LBB3_3:
	@DEBUG_VALUE: mbedtls_hmac_drbg_seed_buf:data_len <- $r8
	@DEBUG_VALUE: mbedtls_hmac_drbg_seed_buf:md_info <- $r7
	@DEBUG_VALUE: mbedtls_hmac_drbg_seed_buf:ctx <- $r6
	@DEBUG_VALUE: mbedtls_hmac_drbg_seed_buf:data <- $r5
	@DEBUG_VALUE: mbedtls_hmac_drbg_seed_buf:ret <- $r0
	.loc	4 140 27                        @ ../../../components/network/thread/subg_openthread/third_party/mbedtls/repo/library/hmac_drbg.c:140:27
	mov	r0, r7
.Ltmp59:
	bl	mbedtls_md_get_size
.Ltmp60:
	mov	r1, r0
	.loc	4 140 5 is_stmt 0               @ ../../../components/network/thread/subg_openthread/third_party/mbedtls/repo/library/hmac_drbg.c:140:5
	mov	r0, r4
	movs	r2, #1
	bl	__aeabi_memset4
.Ltmp61:
	.loc	4 142 17 is_stmt 1              @ ../../../components/network/thread/subg_openthread/third_party/mbedtls/repo/library/hmac_drbg.c:142:17
	mov	r0, r6
	mov	r1, r5
	mov	r2, r8
	pop.w	{r4, r5, r6, r7, r8, lr}
.Ltmp62:
	b	mbedtls_hmac_drbg_update_ret
.Ltmp63:
.Lfunc_end3:
	.size	mbedtls_hmac_drbg_seed_buf, .Lfunc_end3-mbedtls_hmac_drbg_seed_buf
	.cfi_endproc
	.cantunwind
	.fnend
                                        @ -- End function
	.section	.text.mbedtls_hmac_drbg_reseed,"ax",%progbits
	.hidden	mbedtls_hmac_drbg_reseed        @ -- Begin function mbedtls_hmac_drbg_reseed
	.globl	mbedtls_hmac_drbg_reseed
	.p2align	1
	.type	mbedtls_hmac_drbg_reseed,%function
	.code	16                              @ @mbedtls_hmac_drbg_reseed
	.thumb_func
mbedtls_hmac_drbg_reseed:
.Lfunc_begin4:
	.loc	4 234 0                         @ ../../../components/network/thread/subg_openthread/third_party/mbedtls/repo/library/hmac_drbg.c:234:0
	.fnstart
	.cfi_startproc
@ %bb.0:
	@DEBUG_VALUE: mbedtls_hmac_drbg_reseed:ctx <- $r0
	@DEBUG_VALUE: mbedtls_hmac_drbg_reseed:ctx <- $r0
	@DEBUG_VALUE: mbedtls_hmac_drbg_reseed:ctx <- $r0
	@DEBUG_VALUE: mbedtls_hmac_drbg_reseed:additional <- $r1
	@DEBUG_VALUE: mbedtls_hmac_drbg_reseed:additional <- $r1
	@DEBUG_VALUE: mbedtls_hmac_drbg_reseed:additional <- $r1
	@DEBUG_VALUE: mbedtls_hmac_drbg_reseed:len <- $r2
	@DEBUG_VALUE: mbedtls_hmac_drbg_reseed:len <- $r2
	@DEBUG_VALUE: mbedtls_hmac_drbg_reseed:len <- $r2
	.loc	4 235 13 prologue_end           @ ../../../components/network/thread/subg_openthread/third_party/mbedtls/repo/library/hmac_drbg.c:235:13
	movs	r3, #0
.Ltmp64:
	b	hmac_drbg_reseed_core
.Ltmp65:
.Lfunc_end4:
	.size	mbedtls_hmac_drbg_reseed, .Lfunc_end4-mbedtls_hmac_drbg_reseed
	.cfi_endproc
	.cantunwind
	.fnend
                                        @ -- End function
	.section	.text.hmac_drbg_reseed_core,"ax",%progbits
	.p2align	1                               @ -- Begin function hmac_drbg_reseed_core
	.type	hmac_drbg_reseed_core,%function
	.code	16                              @ @hmac_drbg_reseed_core
	.thumb_func
hmac_drbg_reseed_core:
.Lfunc_begin5:
	.loc	4 156 0                         @ ../../../components/network/thread/subg_openthread/third_party/mbedtls/repo/library/hmac_drbg.c:156:0
	.fnstart
	.cfi_startproc
@ %bb.0:
	@DEBUG_VALUE: hmac_drbg_reseed_core:ctx <- $r0
	@DEBUG_VALUE: hmac_drbg_reseed_core:additional <- $r1
	@DEBUG_VALUE: hmac_drbg_reseed_core:len <- $r2
	@DEBUG_VALUE: hmac_drbg_reseed_core:use_nonce <- $r3
	.save	{r4, r5, r6, r7, r8, r9, r10, r11, lr}
	push.w	{r4, r5, r6, r7, r8, r9, r10, r11, lr}
	.cfi_def_cfa_offset 36
	.cfi_offset lr, -4
	.cfi_offset r11, -8
	.cfi_offset r10, -12
	.cfi_offset r9, -16
	.cfi_offset r8, -20
	.cfi_offset r7, -24
	.cfi_offset r6, -28
	.cfi_offset r5, -32
	.cfi_offset r4, -36
	.pad	#388
	sub	sp, #388
	.cfi_def_cfa_offset 424
.Ltmp66:
	.loc	4 0 0 prologue_end              @ ../../../components/network/thread/subg_openthread/third_party/mbedtls/repo/library/hmac_drbg.c:0:0
	ldr	r5, [r0, #48]
	mov	r4, r0
.Ltmp67:
	@DEBUG_VALUE: hmac_drbg_reseed_core:ctx <- $r4
	@DEBUG_VALUE: hmac_drbg_reseed_core:ret <- -110
	@DEBUG_VALUE: hmac_drbg_reseed_core:seedlen <- 0
	@DEBUG_VALUE: hmac_drbg_reseed_core:use_nonce <- $r3
	@DEBUG_VALUE: hmac_drbg_reseed_core:len <- $r2
	@DEBUG_VALUE: hmac_drbg_reseed_core:ctx <- $r4
	.loc	4 164 13                        @ ../../../components/network/thread/subg_openthread/third_party/mbedtls/repo/library/hmac_drbg.c:164:13
	cmp	r3, #0
	mov	r0, r5
	mov	r10, r1
.Ltmp68:
	@DEBUG_VALUE: hmac_drbg_reseed_core:additional <- $r10
	@DEBUG_VALUE: hmac_drbg_reseed_core:additional <- $r10
	add.w	r1, r5, r5, lsl #1
	it	ne
	lsrne	r0, r1, #1
.Ltmp69:
	@DEBUG_VALUE: total_entropy_len <- $r0
	.loc	4 170 47                        @ ../../../components/network/thread/subg_openthread/third_party/mbedtls/repo/library/hmac_drbg.c:170:47
	cmp.w	r2, #256
	mvn	r6, #4
	bhi	.LBB5_12
.Ltmp70:
@ %bb.1:
	@DEBUG_VALUE: hmac_drbg_reseed_core:additional <- $r10
	@DEBUG_VALUE: hmac_drbg_reseed_core:ctx <- $r4
	@DEBUG_VALUE: hmac_drbg_reseed_core:use_nonce <- $r3
	@DEBUG_VALUE: hmac_drbg_reseed_core:len <- $r2
	@DEBUG_VALUE: total_entropy_len <- $r0
	@DEBUG_VALUE: hmac_drbg_reseed_core:seedlen <- 0
	@DEBUG_VALUE: hmac_drbg_reseed_core:ret <- -110
	@DEBUG_VALUE: hmac_drbg_reseed_core:use_nonce <- $r3
	.loc	4 0 47 is_stmt 0                @ ../../../components/network/thread/subg_openthread/third_party/mbedtls/repo/library/hmac_drbg.c:0:47
	add	r0, r2
.Ltmp71:
	mov	r11, r2
.Ltmp72:
	@DEBUG_VALUE: hmac_drbg_reseed_core:len <- $r11
	@DEBUG_VALUE: hmac_drbg_reseed_core:len <- $r11
	.loc	4 170 47                        @ ../../../components/network/thread/subg_openthread/third_party/mbedtls/repo/library/hmac_drbg.c:170:47
	cmp.w	r0, #384
	bhi	.LBB5_12
.Ltmp73:
@ %bb.2:
	@DEBUG_VALUE: hmac_drbg_reseed_core:len <- $r11
	@DEBUG_VALUE: hmac_drbg_reseed_core:additional <- $r10
	@DEBUG_VALUE: hmac_drbg_reseed_core:ctx <- $r4
	@DEBUG_VALUE: hmac_drbg_reseed_core:use_nonce <- $r3
	@DEBUG_VALUE: hmac_drbg_reseed_core:seedlen <- 0
	@DEBUG_VALUE: hmac_drbg_reseed_core:ret <- -110
	.loc	4 0 47                          @ ../../../components/network/thread/subg_openthread/third_party/mbedtls/repo/library/hmac_drbg.c:0:47
	add.w	r9, sp, #4
	.loc	4 177 5 is_stmt 1               @ ../../../components/network/thread/subg_openthread/third_party/mbedtls/repo/library/hmac_drbg.c:177:5
	mov	r0, r9
	mov.w	r1, #384
	mov	r7, r3
.Ltmp74:
	@DEBUG_VALUE: hmac_drbg_reseed_core:use_nonce <- $r7
	@DEBUG_VALUE: hmac_drbg_reseed_core:use_nonce <- $r7
	bl	__aeabi_memclr4
.Ltmp75:
	.loc	4 180 22                        @ ../../../components/network/thread/subg_openthread/third_party/mbedtls/repo/library/hmac_drbg.c:180:22
	ldrd	r3, r0, [r4, #60]
	.loc	4 180 17 is_stmt 0              @ ../../../components/network/thread/subg_openthread/third_party/mbedtls/repo/library/hmac_drbg.c:180:17
	mov	r1, r9
	mov	r2, r5
	blx	r3
.Ltmp76:
	@DEBUG_VALUE: hmac_drbg_reseed_core:ret <- $r0
	.loc	4 180 9                         @ ../../../components/network/thread/subg_openthread/third_party/mbedtls/repo/library/hmac_drbg.c:180:9
	cbz	r0, .LBB5_4
.Ltmp77:
.LBB5_3:
	@DEBUG_VALUE: hmac_drbg_reseed_core:len <- $r11
	@DEBUG_VALUE: hmac_drbg_reseed_core:additional <- $r10
	@DEBUG_VALUE: hmac_drbg_reseed_core:use_nonce <- $r7
	@DEBUG_VALUE: hmac_drbg_reseed_core:ctx <- $r4
	@DEBUG_VALUE: hmac_drbg_reseed_core:ret <- $r0
	.loc	4 0 9                           @ ../../../components/network/thread/subg_openthread/third_party/mbedtls/repo/library/hmac_drbg.c:0:9
	mvn	r6, #8
	b	.LBB5_12
.Ltmp78:
.LBB5_4:
	@DEBUG_VALUE: hmac_drbg_reseed_core:len <- $r11
	@DEBUG_VALUE: hmac_drbg_reseed_core:additional <- $r10
	@DEBUG_VALUE: hmac_drbg_reseed_core:use_nonce <- $r7
	@DEBUG_VALUE: hmac_drbg_reseed_core:ctx <- $r4
	@DEBUG_VALUE: hmac_drbg_reseed_core:ret <- $r0
	@DEBUG_VALUE: hmac_drbg_reseed_core:seedlen <- 0
	.loc	4 185 21 is_stmt 1              @ ../../../components/network/thread/subg_openthread/third_party/mbedtls/repo/library/hmac_drbg.c:185:21
	ldr.w	r8, [r4, #48]
.Ltmp79:
	@DEBUG_VALUE: hmac_drbg_reseed_core:seedlen <- $r8
	.loc	4 189 9                         @ ../../../components/network/thread/subg_openthread/third_party/mbedtls/repo/library/hmac_drbg.c:189:9
	cbz	r7, .LBB5_7
.Ltmp80:
@ %bb.5:
	@DEBUG_VALUE: hmac_drbg_reseed_core:len <- $r11
	@DEBUG_VALUE: hmac_drbg_reseed_core:additional <- $r10
	@DEBUG_VALUE: hmac_drbg_reseed_core:seedlen <- $r8
	@DEBUG_VALUE: hmac_drbg_reseed_core:use_nonce <- $r7
	@DEBUG_VALUE: hmac_drbg_reseed_core:ctx <- $r4
	@DEBUG_VALUE: hmac_drbg_reseed_core:ret <- $r0
	.loc	4 198 26                        @ ../../../components/network/thread/subg_openthread/third_party/mbedtls/repo/library/hmac_drbg.c:198:26
	ldrd	r3, r0, [r4, #60]
.Ltmp81:
	.loc	4 199 42                        @ ../../../components/network/thread/subg_openthread/third_party/mbedtls/repo/library/hmac_drbg.c:199:42
	add.w	r1, r9, r8
	.loc	4 200 54                        @ ../../../components/network/thread/subg_openthread/third_party/mbedtls/repo/library/hmac_drbg.c:200:54
	lsr.w	r2, r8, #1
	.loc	4 198 21                        @ ../../../components/network/thread/subg_openthread/third_party/mbedtls/repo/library/hmac_drbg.c:198:21
	blx	r3
.Ltmp82:
	@DEBUG_VALUE: hmac_drbg_reseed_core:ret <- $r0
	.loc	4 198 13 is_stmt 0              @ ../../../components/network/thread/subg_openthread/third_party/mbedtls/repo/library/hmac_drbg.c:198:13
	cmp	r0, #0
	bne	.LBB5_3
.Ltmp83:
@ %bb.6:
	@DEBUG_VALUE: hmac_drbg_reseed_core:len <- $r11
	@DEBUG_VALUE: hmac_drbg_reseed_core:additional <- $r10
	@DEBUG_VALUE: hmac_drbg_reseed_core:seedlen <- $r8
	@DEBUG_VALUE: hmac_drbg_reseed_core:use_nonce <- $r7
	@DEBUG_VALUE: hmac_drbg_reseed_core:ctx <- $r4
	@DEBUG_VALUE: hmac_drbg_reseed_core:ret <- $r0
	.loc	4 205 25 is_stmt 1              @ ../../../components/network/thread/subg_openthread/third_party/mbedtls/repo/library/hmac_drbg.c:205:25
	ldr	r0, [r4, #48]
.Ltmp84:
	.loc	4 205 17 is_stmt 0              @ ../../../components/network/thread/subg_openthread/third_party/mbedtls/repo/library/hmac_drbg.c:205:17
	add.w	r8, r8, r0, lsr #1
.Ltmp85:
	@DEBUG_VALUE: hmac_drbg_reseed_core:seedlen <- $r8
.LBB5_7:
	@DEBUG_VALUE: hmac_drbg_reseed_core:len <- $r11
	@DEBUG_VALUE: hmac_drbg_reseed_core:additional <- $r10
	@DEBUG_VALUE: hmac_drbg_reseed_core:seedlen <- $r8
	@DEBUG_VALUE: hmac_drbg_reseed_core:use_nonce <- $r7
	@DEBUG_VALUE: hmac_drbg_reseed_core:ctx <- $r4
	@DEBUG_VALUE: hmac_drbg_reseed_core:seedlen <- $r8
	.loc	4 210 28 is_stmt 1              @ ../../../components/network/thread/subg_openthread/third_party/mbedtls/repo/library/hmac_drbg.c:210:28
	cmp.w	r10, #0
	it	ne
	cmpne.w	r11, #0
	beq	.LBB5_9
.Ltmp86:
@ %bb.8:
	@DEBUG_VALUE: hmac_drbg_reseed_core:len <- $r11
	@DEBUG_VALUE: hmac_drbg_reseed_core:additional <- $r10
	@DEBUG_VALUE: hmac_drbg_reseed_core:seedlen <- $r8
	@DEBUG_VALUE: hmac_drbg_reseed_core:use_nonce <- $r7
	@DEBUG_VALUE: hmac_drbg_reseed_core:ctx <- $r4
	.loc	4 212 22                        @ ../../../components/network/thread/subg_openthread/third_party/mbedtls/repo/library/hmac_drbg.c:212:22
	add.w	r0, r9, r8
	.loc	4 212 9 is_stmt 0               @ ../../../components/network/thread/subg_openthread/third_party/mbedtls/repo/library/hmac_drbg.c:212:9
	mov	r1, r10
	mov	r2, r11
	bl	__aeabi_memcpy
.Ltmp87:
	.loc	4 213 17 is_stmt 1              @ ../../../components/network/thread/subg_openthread/third_party/mbedtls/repo/library/hmac_drbg.c:213:17
	add	r8, r11
.Ltmp88:
	@DEBUG_VALUE: hmac_drbg_reseed_core:seedlen <- $r8
.LBB5_9:
	@DEBUG_VALUE: hmac_drbg_reseed_core:len <- $r11
	@DEBUG_VALUE: hmac_drbg_reseed_core:additional <- $r10
	@DEBUG_VALUE: hmac_drbg_reseed_core:seedlen <- $r8
	@DEBUG_VALUE: hmac_drbg_reseed_core:use_nonce <- $r7
	@DEBUG_VALUE: hmac_drbg_reseed_core:ctx <- $r4
	@DEBUG_VALUE: hmac_drbg_reseed_core:seedlen <- $r8
	.loc	4 0 17 is_stmt 0                @ ../../../components/network/thread/subg_openthread/third_party/mbedtls/repo/library/hmac_drbg.c:0:17
	add	r1, sp, #4
.Ltmp89:
	.loc	4 217 17 is_stmt 1              @ ../../../components/network/thread/subg_openthread/third_party/mbedtls/repo/library/hmac_drbg.c:217:17
	mov	r0, r4
	mov	r2, r8
	bl	mbedtls_hmac_drbg_update_ret
.Ltmp90:
	mov	r6, r0
.Ltmp91:
	@DEBUG_VALUE: hmac_drbg_reseed_core:ret <- $r6
	.loc	4 217 9 is_stmt 0               @ ../../../components/network/thread/subg_openthread/third_party/mbedtls/repo/library/hmac_drbg.c:217:9
	cbnz	r0, .LBB5_11
.Ltmp92:
@ %bb.10:
	@DEBUG_VALUE: hmac_drbg_reseed_core:len <- $r11
	@DEBUG_VALUE: hmac_drbg_reseed_core:additional <- $r10
	@DEBUG_VALUE: hmac_drbg_reseed_core:seedlen <- $r8
	@DEBUG_VALUE: hmac_drbg_reseed_core:use_nonce <- $r7
	@DEBUG_VALUE: hmac_drbg_reseed_core:ret <- $r6
	@DEBUG_VALUE: hmac_drbg_reseed_core:ctx <- $r4
	.loc	4 0 9                           @ ../../../components/network/thread/subg_openthread/third_party/mbedtls/repo/library/hmac_drbg.c:0:9
	movs	r0, #1
	.loc	4 221 25 is_stmt 1              @ ../../../components/network/thread/subg_openthread/third_party/mbedtls/repo/library/hmac_drbg.c:221:25
	str	r0, [r4, #44]
.Ltmp93:
.LBB5_11:
	@DEBUG_VALUE: hmac_drbg_reseed_core:len <- $r11
	@DEBUG_VALUE: hmac_drbg_reseed_core:additional <- $r10
	@DEBUG_VALUE: hmac_drbg_reseed_core:seedlen <- $r8
	@DEBUG_VALUE: hmac_drbg_reseed_core:use_nonce <- $r7
	@DEBUG_VALUE: hmac_drbg_reseed_core:ret <- $r6
	@DEBUG_VALUE: hmac_drbg_reseed_core:ctx <- $r4
	@DEBUG_LABEL: hmac_drbg_reseed_core:exit
	.loc	4 0 25 is_stmt 0                @ ../../../components/network/thread/subg_openthread/third_party/mbedtls/repo/library/hmac_drbg.c:0:25
	add	r0, sp, #4
	.loc	4 225 5 is_stmt 1               @ ../../../components/network/thread/subg_openthread/third_party/mbedtls/repo/library/hmac_drbg.c:225:5
	mov	r1, r8
	bl	mbedtls_platform_zeroize
.Ltmp94:
.LBB5_12:
	@DEBUG_VALUE: hmac_drbg_reseed_core:additional <- $r10
	@DEBUG_VALUE: hmac_drbg_reseed_core:ctx <- $r4
	.loc	4 227 1                         @ ../../../components/network/thread/subg_openthread/third_party/mbedtls/repo/library/hmac_drbg.c:227:1
	mov	r0, r6
	add	sp, #388
	pop.w	{r4, r5, r6, r7, r8, r9, r10, r11, pc}
.Ltmp95:
.Lfunc_end5:
	.size	hmac_drbg_reseed_core, .Lfunc_end5-hmac_drbg_reseed_core
	.cfi_endproc
	.cantunwind
	.fnend
                                        @ -- End function
	.section	.text.mbedtls_hmac_drbg_seed,"ax",%progbits
	.hidden	mbedtls_hmac_drbg_seed          @ -- Begin function mbedtls_hmac_drbg_seed
	.globl	mbedtls_hmac_drbg_seed
	.p2align	1
	.type	mbedtls_hmac_drbg_seed,%function
	.code	16                              @ @mbedtls_hmac_drbg_seed
	.thumb_func
mbedtls_hmac_drbg_seed:
.Lfunc_begin6:
	.loc	4 250 0                         @ ../../../components/network/thread/subg_openthread/third_party/mbedtls/repo/library/hmac_drbg.c:250:0
	.fnstart
	.cfi_startproc
@ %bb.0:
	@DEBUG_VALUE: mbedtls_hmac_drbg_seed:ctx <- $r0
	@DEBUG_VALUE: mbedtls_hmac_drbg_seed:md_info <- $r1
	@DEBUG_VALUE: mbedtls_hmac_drbg_seed:f_entropy <- $r2
	@DEBUG_VALUE: mbedtls_hmac_drbg_seed:p_entropy <- $r3
	.save	{r4, r5, r6, r7, r8, r9, r10, lr}
	push.w	{r4, r5, r6, r7, r8, r9, r10, lr}
	.cfi_def_cfa_offset 32
	.cfi_offset lr, -4
	.cfi_offset r10, -8
	.cfi_offset r9, -12
	.cfi_offset r8, -16
	.cfi_offset r7, -20
	.cfi_offset r6, -24
	.cfi_offset r5, -28
	.cfi_offset r4, -32
	mov	r4, r2
.Ltmp96:
	@DEBUG_VALUE: mbedtls_hmac_drbg_seed:f_entropy <- $r4
	ldrd	r9, r8, [sp, #32]
.Ltmp97:
	.loc	4 254 17 prologue_end           @ ../../../components/network/thread/subg_openthread/third_party/mbedtls/repo/library/hmac_drbg.c:254:17
	movs	r2, #1
	mov	r10, r3
.Ltmp98:
	@DEBUG_VALUE: mbedtls_hmac_drbg_seed:p_entropy <- $r10
	.loc	4 0 17 is_stmt 0                @ ../../../components/network/thread/subg_openthread/third_party/mbedtls/repo/library/hmac_drbg.c:0:17
	mov	r5, r1
	mov	r6, r0
.Ltmp99:
	@DEBUG_VALUE: mbedtls_hmac_drbg_seed:ret <- -110
	@DEBUG_VALUE: mbedtls_hmac_drbg_seed:len <- [DW_OP_plus_uconst 36] [$sp+0]
	@DEBUG_VALUE: mbedtls_hmac_drbg_seed:custom <- [DW_OP_plus_uconst 32] [$sp+0]
	@DEBUG_VALUE: mbedtls_hmac_drbg_seed:p_entropy <- $r10
	@DEBUG_VALUE: mbedtls_hmac_drbg_seed:f_entropy <- $r4
	@DEBUG_VALUE: mbedtls_hmac_drbg_seed:md_info <- $r5
	@DEBUG_VALUE: mbedtls_hmac_drbg_seed:ctx <- $r6
	.loc	4 254 17                        @ ../../../components/network/thread/subg_openthread/third_party/mbedtls/repo/library/hmac_drbg.c:254:17
	bl	mbedtls_md_setup
.Ltmp100:
	@DEBUG_VALUE: mbedtls_hmac_drbg_seed:ret <- $r0
	.loc	4 254 9                         @ ../../../components/network/thread/subg_openthread/third_party/mbedtls/repo/library/hmac_drbg.c:254:9
	cbnz	r0, .LBB6_2
.Ltmp101:
@ %bb.1:
	@DEBUG_VALUE: mbedtls_hmac_drbg_seed:p_entropy <- $r10
	@DEBUG_VALUE: mbedtls_hmac_drbg_seed:ctx <- $r6
	@DEBUG_VALUE: mbedtls_hmac_drbg_seed:md_info <- $r5
	@DEBUG_VALUE: mbedtls_hmac_drbg_seed:f_entropy <- $r4
	@DEBUG_VALUE: mbedtls_hmac_drbg_seed:ret <- $r0
	@DEBUG_VALUE: mbedtls_hmac_drbg_seed:custom <- [DW_OP_plus_uconst 32] [$sp+0]
	@DEBUG_VALUE: mbedtls_hmac_drbg_seed:len <- [DW_OP_plus_uconst 36] [$sp+0]
	.loc	4 262 15 is_stmt 1              @ ../../../components/network/thread/subg_openthread/third_party/mbedtls/repo/library/hmac_drbg.c:262:15
	mov	r0, r5
.Ltmp102:
	bl	mbedtls_md_get_size
.Ltmp103:
	mov	r5, r0
.Ltmp104:
	@DEBUG_VALUE: mbedtls_hmac_drbg_seed:md_size <- $r5
	.loc	4 269 55                        @ ../../../components/network/thread/subg_openthread/third_party/mbedtls/repo/library/hmac_drbg.c:269:55
	add.w	r7, r6, #12
	.loc	4 269 17 is_stmt 0              @ ../../../components/network/thread/subg_openthread/third_party/mbedtls/repo/library/hmac_drbg.c:269:17
	mov	r0, r6
	mov	r1, r7
	mov	r2, r5
	bl	mbedtls_md_hmac_starts
.Ltmp105:
	@DEBUG_VALUE: mbedtls_hmac_drbg_seed:ret <- $r0
	.loc	4 269 9                         @ ../../../components/network/thread/subg_openthread/third_party/mbedtls/repo/library/hmac_drbg.c:269:9
	cbz	r0, .LBB6_3
.Ltmp106:
.LBB6_2:
	@DEBUG_VALUE: mbedtls_hmac_drbg_seed:p_entropy <- $r10
	@DEBUG_VALUE: mbedtls_hmac_drbg_seed:ctx <- $r6
	@DEBUG_VALUE: mbedtls_hmac_drbg_seed:f_entropy <- $r4
	@DEBUG_VALUE: mbedtls_hmac_drbg_seed:ret <- $r0
	@DEBUG_VALUE: mbedtls_hmac_drbg_seed:custom <- [DW_OP_plus_uconst 32] [$sp+0]
	@DEBUG_VALUE: mbedtls_hmac_drbg_seed:len <- [DW_OP_plus_uconst 36] [$sp+0]
	.loc	4 297 1 is_stmt 1               @ ../../../components/network/thread/subg_openthread/third_party/mbedtls/repo/library/hmac_drbg.c:297:1
	pop.w	{r4, r5, r6, r7, r8, r9, r10, pc}
.Ltmp107:
.LBB6_3:
	@DEBUG_VALUE: mbedtls_hmac_drbg_seed:p_entropy <- $r10
	@DEBUG_VALUE: mbedtls_hmac_drbg_seed:ctx <- $r6
	@DEBUG_VALUE: mbedtls_hmac_drbg_seed:md_size <- $r5
	@DEBUG_VALUE: mbedtls_hmac_drbg_seed:f_entropy <- $r4
	@DEBUG_VALUE: mbedtls_hmac_drbg_seed:ret <- $r0
	@DEBUG_VALUE: mbedtls_hmac_drbg_seed:custom <- [DW_OP_plus_uconst 32] [$sp+0]
	@DEBUG_VALUE: mbedtls_hmac_drbg_seed:len <- [DW_OP_plus_uconst 36] [$sp+0]
	.loc	4 271 5                         @ ../../../components/network/thread/subg_openthread/third_party/mbedtls/repo/library/hmac_drbg.c:271:5
	mov	r0, r7
.Ltmp108:
	mov	r1, r5
	movs	r2, #1
	bl	__aeabi_memset4
.Ltmp109:
	.loc	4 276 14                        @ ../../../components/network/thread/subg_openthread/third_party/mbedtls/repo/library/hmac_drbg.c:276:14
	ldr	r0, [r6, #48]
.Ltmp110:
	.loc	4 273 20                        @ ../../../components/network/thread/subg_openthread/third_party/mbedtls/repo/library/hmac_drbg.c:273:20
	str	r4, [r6, #60]
	.loc	4 274 20                        @ ../../../components/network/thread/subg_openthread/third_party/mbedtls/repo/library/hmac_drbg.c:274:20
	str.w	r10, [r6, #64]
	.loc	4 276 9                         @ ../../../components/network/thread/subg_openthread/third_party/mbedtls/repo/library/hmac_drbg.c:276:9
	cbnz	r0, .LBB6_5
.Ltmp111:
@ %bb.4:
	@DEBUG_VALUE: mbedtls_hmac_drbg_seed:p_entropy <- $r10
	@DEBUG_VALUE: mbedtls_hmac_drbg_seed:ctx <- $r6
	@DEBUG_VALUE: mbedtls_hmac_drbg_seed:md_size <- $r5
	@DEBUG_VALUE: mbedtls_hmac_drbg_seed:f_entropy <- $r4
	@DEBUG_VALUE: mbedtls_hmac_drbg_seed:custom <- [DW_OP_plus_uconst 32] [$sp+0]
	@DEBUG_VALUE: mbedtls_hmac_drbg_seed:len <- [DW_OP_plus_uconst 36] [$sp+0]
	.loc	4 0 9 is_stmt 0                 @ ../../../components/network/thread/subg_openthread/third_party/mbedtls/repo/library/hmac_drbg.c:0:9
	movs	r0, #32
.Ltmp112:
	.loc	4 285 28 is_stmt 1              @ ../../../components/network/thread/subg_openthread/third_party/mbedtls/repo/library/hmac_drbg.c:285:28
	cmp	r5, #29
	it	lo
	movlo	r0, #24
	cmp	r5, #21
	it	lo
	movlo	r0, #16
	.loc	4 285 26 is_stmt 0              @ ../../../components/network/thread/subg_openthread/third_party/mbedtls/repo/library/hmac_drbg.c:285:26
	str	r0, [r6, #48]
.Ltmp113:
.LBB6_5:
	@DEBUG_VALUE: mbedtls_hmac_drbg_seed:p_entropy <- $r10
	@DEBUG_VALUE: mbedtls_hmac_drbg_seed:ctx <- $r6
	@DEBUG_VALUE: mbedtls_hmac_drbg_seed:md_size <- $r5
	@DEBUG_VALUE: mbedtls_hmac_drbg_seed:f_entropy <- $r4
	@DEBUG_VALUE: mbedtls_hmac_drbg_seed:custom <- [DW_OP_plus_uconst 32] [$sp+0]
	@DEBUG_VALUE: mbedtls_hmac_drbg_seed:len <- [DW_OP_plus_uconst 36] [$sp+0]
	.loc	4 290 17 is_stmt 1              @ ../../../components/network/thread/subg_openthread/third_party/mbedtls/repo/library/hmac_drbg.c:290:17
	mov	r0, r6
	mov	r1, r9
	mov	r2, r8
	movs	r3, #1
	pop.w	{r4, r5, r6, r7, r8, r9, r10, lr}
.Ltmp114:
	b	hmac_drbg_reseed_core
.Ltmp115:
.Lfunc_end6:
	.size	mbedtls_hmac_drbg_seed, .Lfunc_end6-mbedtls_hmac_drbg_seed
	.cfi_endproc
	.cantunwind
	.fnend
                                        @ -- End function
	.section	.text.mbedtls_hmac_drbg_set_prediction_resistance,"ax",%progbits
	.hidden	mbedtls_hmac_drbg_set_prediction_resistance @ -- Begin function mbedtls_hmac_drbg_set_prediction_resistance
	.globl	mbedtls_hmac_drbg_set_prediction_resistance
	.p2align	1
	.type	mbedtls_hmac_drbg_set_prediction_resistance,%function
	.code	16                              @ @mbedtls_hmac_drbg_set_prediction_resistance
	.thumb_func
mbedtls_hmac_drbg_set_prediction_resistance:
.Lfunc_begin7:
	.loc	4 304 0                         @ ../../../components/network/thread/subg_openthread/third_party/mbedtls/repo/library/hmac_drbg.c:304:0
	.fnstart
	.cfi_startproc
@ %bb.0:
	@DEBUG_VALUE: mbedtls_hmac_drbg_set_prediction_resistance:ctx <- $r0
	@DEBUG_VALUE: mbedtls_hmac_drbg_set_prediction_resistance:ctx <- $r0
	@DEBUG_VALUE: mbedtls_hmac_drbg_set_prediction_resistance:resistance <- $r1
	@DEBUG_VALUE: mbedtls_hmac_drbg_set_prediction_resistance:resistance <- $r1
	.loc	4 305 32 prologue_end           @ ../../../components/network/thread/subg_openthread/third_party/mbedtls/repo/library/hmac_drbg.c:305:32
	str	r1, [r0, #52]
	.loc	4 306 1                         @ ../../../components/network/thread/subg_openthread/third_party/mbedtls/repo/library/hmac_drbg.c:306:1
	bx	lr
.Ltmp116:
.Lfunc_end7:
	.size	mbedtls_hmac_drbg_set_prediction_resistance, .Lfunc_end7-mbedtls_hmac_drbg_set_prediction_resistance
	.cfi_endproc
	.cantunwind
	.fnend
                                        @ -- End function
	.section	.text.mbedtls_hmac_drbg_set_entropy_len,"ax",%progbits
	.hidden	mbedtls_hmac_drbg_set_entropy_len @ -- Begin function mbedtls_hmac_drbg_set_entropy_len
	.globl	mbedtls_hmac_drbg_set_entropy_len
	.p2align	1
	.type	mbedtls_hmac_drbg_set_entropy_len,%function
	.code	16                              @ @mbedtls_hmac_drbg_set_entropy_len
	.thumb_func
mbedtls_hmac_drbg_set_entropy_len:
.Lfunc_begin8:
	.loc	4 312 0                         @ ../../../components/network/thread/subg_openthread/third_party/mbedtls/repo/library/hmac_drbg.c:312:0
	.fnstart
	.cfi_startproc
@ %bb.0:
	@DEBUG_VALUE: mbedtls_hmac_drbg_set_entropy_len:ctx <- $r0
	@DEBUG_VALUE: mbedtls_hmac_drbg_set_entropy_len:ctx <- $r0
	@DEBUG_VALUE: mbedtls_hmac_drbg_set_entropy_len:len <- $r1
	@DEBUG_VALUE: mbedtls_hmac_drbg_set_entropy_len:len <- $r1
	.loc	4 313 22 prologue_end           @ ../../../components/network/thread/subg_openthread/third_party/mbedtls/repo/library/hmac_drbg.c:313:22
	str	r1, [r0, #48]
	.loc	4 314 1                         @ ../../../components/network/thread/subg_openthread/third_party/mbedtls/repo/library/hmac_drbg.c:314:1
	bx	lr
.Ltmp117:
.Lfunc_end8:
	.size	mbedtls_hmac_drbg_set_entropy_len, .Lfunc_end8-mbedtls_hmac_drbg_set_entropy_len
	.cfi_endproc
	.cantunwind
	.fnend
                                        @ -- End function
	.section	.text.mbedtls_hmac_drbg_set_reseed_interval,"ax",%progbits
	.hidden	mbedtls_hmac_drbg_set_reseed_interval @ -- Begin function mbedtls_hmac_drbg_set_reseed_interval
	.globl	mbedtls_hmac_drbg_set_reseed_interval
	.p2align	1
	.type	mbedtls_hmac_drbg_set_reseed_interval,%function
	.code	16                              @ @mbedtls_hmac_drbg_set_reseed_interval
	.thumb_func
mbedtls_hmac_drbg_set_reseed_interval:
.Lfunc_begin9:
	.loc	4 320 0                         @ ../../../components/network/thread/subg_openthread/third_party/mbedtls/repo/library/hmac_drbg.c:320:0
	.fnstart
	.cfi_startproc
@ %bb.0:
	@DEBUG_VALUE: mbedtls_hmac_drbg_set_reseed_interval:ctx <- $r0
	@DEBUG_VALUE: mbedtls_hmac_drbg_set_reseed_interval:ctx <- $r0
	@DEBUG_VALUE: mbedtls_hmac_drbg_set_reseed_interval:interval <- $r1
	@DEBUG_VALUE: mbedtls_hmac_drbg_set_reseed_interval:interval <- $r1
	.loc	4 321 26 prologue_end           @ ../../../components/network/thread/subg_openthread/third_party/mbedtls/repo/library/hmac_drbg.c:321:26
	str	r1, [r0, #56]
	.loc	4 322 1                         @ ../../../components/network/thread/subg_openthread/third_party/mbedtls/repo/library/hmac_drbg.c:322:1
	bx	lr
.Ltmp118:
.Lfunc_end9:
	.size	mbedtls_hmac_drbg_set_reseed_interval, .Lfunc_end9-mbedtls_hmac_drbg_set_reseed_interval
	.cfi_endproc
	.cantunwind
	.fnend
                                        @ -- End function
	.section	.text.mbedtls_hmac_drbg_random_with_add,"ax",%progbits
	.hidden	mbedtls_hmac_drbg_random_with_add @ -- Begin function mbedtls_hmac_drbg_random_with_add
	.globl	mbedtls_hmac_drbg_random_with_add
	.p2align	1
	.type	mbedtls_hmac_drbg_random_with_add,%function
	.code	16                              @ @mbedtls_hmac_drbg_random_with_add
	.thumb_func
mbedtls_hmac_drbg_random_with_add:
.Lfunc_begin10:
	.loc	4 331 0                         @ ../../../components/network/thread/subg_openthread/third_party/mbedtls/repo/library/hmac_drbg.c:331:0
	.fnstart
	.cfi_startproc
@ %bb.0:
	@DEBUG_VALUE: mbedtls_hmac_drbg_random_with_add:p_rng <- $r0
	@DEBUG_VALUE: mbedtls_hmac_drbg_random_with_add:output <- $r1
	@DEBUG_VALUE: mbedtls_hmac_drbg_random_with_add:out_len <- $r2
	@DEBUG_VALUE: mbedtls_hmac_drbg_random_with_add:additional <- $r3
	.save	{r4, r5, r6, r7, r8, r9, r10, r11, lr}
	push.w	{r4, r5, r6, r7, r8, r9, r10, r11, lr}
	.cfi_def_cfa_offset 36
	.cfi_offset lr, -4
	.cfi_offset r11, -8
	.cfi_offset r10, -12
	.cfi_offset r9, -16
	.cfi_offset r8, -20
	.cfi_offset r7, -24
	.cfi_offset r6, -28
	.cfi_offset r5, -32
	.cfi_offset r4, -36
	.pad	#4
	sub	sp, #4
	.cfi_def_cfa_offset 40
.Ltmp119:
	@DEBUG_VALUE: mbedtls_hmac_drbg_random_with_add:ctx <- $r0
	mov	r4, r0
.Ltmp120:
	@DEBUG_VALUE: mbedtls_hmac_drbg_random_with_add:ret <- -110
	@DEBUG_VALUE: mbedtls_hmac_drbg_random_with_add:left <- $r5
	@DEBUG_VALUE: mbedtls_hmac_drbg_random_with_add:ctx <- $r4
	@DEBUG_VALUE: mbedtls_hmac_drbg_random_with_add:add_len <- [DW_OP_plus_uconst 40] [$sp+0]
	@DEBUG_VALUE: mbedtls_hmac_drbg_random_with_add:additional <- $r8
	@DEBUG_VALUE: mbedtls_hmac_drbg_random_with_add:out_len <- $r5
	@DEBUG_VALUE: mbedtls_hmac_drbg_random_with_add:p_rng <- $r4
	.loc	4 334 54 prologue_end           @ ../../../components/network/thread/subg_openthread/third_party/mbedtls/repo/library/hmac_drbg.c:334:54
	ldr	r0, [r0]
	mov	r8, r3
.Ltmp121:
	.loc	4 0 54 is_stmt 0                @ ../../../components/network/thread/subg_openthread/third_party/mbedtls/repo/library/hmac_drbg.c:0:54
	mov	r5, r2
.Ltmp122:
	mov	r7, r1
.Ltmp123:
	@DEBUG_VALUE: mbedtls_hmac_drbg_random_with_add:output <- $r7
	@DEBUG_VALUE: mbedtls_hmac_drbg_random_with_add:output <- $r7
	.loc	4 334 21                        @ ../../../components/network/thread/subg_openthread/third_party/mbedtls/repo/library/hmac_drbg.c:334:21
	bl	mbedtls_md_get_size
.Ltmp124:
	.loc	4 339 9 is_stmt 1               @ ../../../components/network/thread/subg_openthread/third_party/mbedtls/repo/library/hmac_drbg.c:339:9
	cmp.w	r5, #1024
.Ltmp125:
	@DEBUG_VALUE: mbedtls_hmac_drbg_random_with_add:out <- undef
	@DEBUG_VALUE: mbedtls_hmac_drbg_random_with_add:md_len <- $r0
	bls	.LBB10_2
.Ltmp126:
@ %bb.1:
	@DEBUG_VALUE: mbedtls_hmac_drbg_random_with_add:output <- $r7
	@DEBUG_VALUE: mbedtls_hmac_drbg_random_with_add:p_rng <- $r4
	@DEBUG_VALUE: mbedtls_hmac_drbg_random_with_add:ctx <- $r4
	@DEBUG_VALUE: mbedtls_hmac_drbg_random_with_add:md_len <- $r0
	@DEBUG_VALUE: mbedtls_hmac_drbg_random_with_add:add_len <- [DW_OP_plus_uconst 40] [$sp+0]
	@DEBUG_VALUE: mbedtls_hmac_drbg_random_with_add:ret <- -110
	.loc	4 0 9 is_stmt 0                 @ ../../../components/network/thread/subg_openthread/third_party/mbedtls/repo/library/hmac_drbg.c:0:9
	mvn	r0, #2
.Ltmp127:
	b	.LBB10_19
.Ltmp128:
.LBB10_2:
	@DEBUG_VALUE: mbedtls_hmac_drbg_random_with_add:output <- $r7
	@DEBUG_VALUE: mbedtls_hmac_drbg_random_with_add:p_rng <- $r4
	@DEBUG_VALUE: mbedtls_hmac_drbg_random_with_add:ctx <- $r4
	@DEBUG_VALUE: mbedtls_hmac_drbg_random_with_add:md_len <- $r0
	@DEBUG_VALUE: mbedtls_hmac_drbg_random_with_add:add_len <- [DW_OP_plus_uconst 40] [$sp+0]
	@DEBUG_VALUE: mbedtls_hmac_drbg_random_with_add:ret <- -110
	@DEBUG_VALUE: mbedtls_hmac_drbg_random_with_add:md_len <- $r0
	ldr.w	r9, [sp, #40]
	.loc	4 343 9 is_stmt 1               @ ../../../components/network/thread/subg_openthread/third_party/mbedtls/repo/library/hmac_drbg.c:343:9
	cmp.w	r9, #256
	bls	.LBB10_4
.Ltmp129:
@ %bb.3:
	@DEBUG_VALUE: mbedtls_hmac_drbg_random_with_add:output <- $r7
	@DEBUG_VALUE: mbedtls_hmac_drbg_random_with_add:p_rng <- $r4
	@DEBUG_VALUE: mbedtls_hmac_drbg_random_with_add:ctx <- $r4
	@DEBUG_VALUE: mbedtls_hmac_drbg_random_with_add:md_len <- $r0
	@DEBUG_VALUE: mbedtls_hmac_drbg_random_with_add:add_len <- [DW_OP_plus_uconst 40] [$sp+0]
	@DEBUG_VALUE: mbedtls_hmac_drbg_random_with_add:ret <- -110
	.loc	4 0 9 is_stmt 0                 @ ../../../components/network/thread/subg_openthread/third_party/mbedtls/repo/library/hmac_drbg.c:0:9
	mvn	r0, #4
.Ltmp130:
	b	.LBB10_19
.Ltmp131:
.LBB10_4:
	@DEBUG_VALUE: mbedtls_hmac_drbg_random_with_add:output <- $r7
	@DEBUG_VALUE: mbedtls_hmac_drbg_random_with_add:p_rng <- $r4
	@DEBUG_VALUE: mbedtls_hmac_drbg_random_with_add:ctx <- $r4
	@DEBUG_VALUE: mbedtls_hmac_drbg_random_with_add:md_len <- $r0
	@DEBUG_VALUE: mbedtls_hmac_drbg_random_with_add:add_len <- [DW_OP_plus_uconst 40] [$sp+0]
	@DEBUG_VALUE: mbedtls_hmac_drbg_random_with_add:ret <- -110
	mov	r10, r0
.Ltmp132:
	@DEBUG_VALUE: mbedtls_hmac_drbg_random_with_add:md_len <- $r10
	@DEBUG_VALUE: mbedtls_hmac_drbg_random_with_add:md_len <- $r10
	.loc	4 347 14 is_stmt 1              @ ../../../components/network/thread/subg_openthread/third_party/mbedtls/repo/library/hmac_drbg.c:347:14
	ldr	r0, [r4, #60]
	.loc	4 347 32 is_stmt 0              @ ../../../components/network/thread/subg_openthread/third_party/mbedtls/repo/library/hmac_drbg.c:347:32
	cbz	r0, .LBB10_9
.Ltmp133:
@ %bb.5:
	@DEBUG_VALUE: mbedtls_hmac_drbg_random_with_add:md_len <- $r10
	@DEBUG_VALUE: mbedtls_hmac_drbg_random_with_add:output <- $r7
	@DEBUG_VALUE: mbedtls_hmac_drbg_random_with_add:p_rng <- $r4
	@DEBUG_VALUE: mbedtls_hmac_drbg_random_with_add:ctx <- $r4
	@DEBUG_VALUE: mbedtls_hmac_drbg_random_with_add:add_len <- [DW_OP_plus_uconst 40] [$sp+0]
	@DEBUG_VALUE: mbedtls_hmac_drbg_random_with_add:ret <- -110
	.loc	4 348 16 is_stmt 1              @ ../../../components/network/thread/subg_openthread/third_party/mbedtls/repo/library/hmac_drbg.c:348:16
	ldr	r0, [r4, #52]
	.loc	4 348 65 is_stmt 0              @ ../../../components/network/thread/subg_openthread/third_party/mbedtls/repo/library/hmac_drbg.c:348:65
	cmp	r0, #1
	beq	.LBB10_7
.Ltmp134:
@ %bb.6:
	@DEBUG_VALUE: mbedtls_hmac_drbg_random_with_add:md_len <- $r10
	@DEBUG_VALUE: mbedtls_hmac_drbg_random_with_add:output <- $r7
	@DEBUG_VALUE: mbedtls_hmac_drbg_random_with_add:p_rng <- $r4
	@DEBUG_VALUE: mbedtls_hmac_drbg_random_with_add:ctx <- $r4
	@DEBUG_VALUE: mbedtls_hmac_drbg_random_with_add:add_len <- [DW_OP_plus_uconst 40] [$sp+0]
	@DEBUG_VALUE: mbedtls_hmac_drbg_random_with_add:ret <- -110
	.loc	4 349 16 is_stmt 1              @ ../../../components/network/thread/subg_openthread/third_party/mbedtls/repo/library/hmac_drbg.c:349:16
	ldr	r0, [r4, #44]
	.loc	4 349 38 is_stmt 0              @ ../../../components/network/thread/subg_openthread/third_party/mbedtls/repo/library/hmac_drbg.c:349:38
	ldr	r1, [r4, #56]
.Ltmp135:
	.loc	4 347 9 is_stmt 1               @ ../../../components/network/thread/subg_openthread/third_party/mbedtls/repo/library/hmac_drbg.c:347:9
	cmp	r0, r1
	ble	.LBB10_9
.Ltmp136:
.LBB10_7:
	@DEBUG_VALUE: mbedtls_hmac_drbg_random_with_add:md_len <- $r10
	@DEBUG_VALUE: mbedtls_hmac_drbg_random_with_add:output <- $r7
	@DEBUG_VALUE: mbedtls_hmac_drbg_random_with_add:p_rng <- $r4
	@DEBUG_VALUE: mbedtls_hmac_drbg_random_with_add:ctx <- $r4
	@DEBUG_VALUE: mbedtls_hmac_drbg_random_with_add:add_len <- [DW_OP_plus_uconst 40] [$sp+0]
	@DEBUG_VALUE: mbedtls_hmac_drbg_random_with_add:ret <- -110
	@DEBUG_VALUE: mbedtls_hmac_drbg_reseed:ctx <- $r4
	@DEBUG_VALUE: mbedtls_hmac_drbg_reseed:additional <- $r8
	@DEBUG_VALUE: mbedtls_hmac_drbg_reseed:len <- $r9
	.loc	4 235 13                        @ ../../../components/network/thread/subg_openthread/third_party/mbedtls/repo/library/hmac_drbg.c:235:13
	mov	r0, r4
	mov	r1, r8
	mov	r2, r9
	movs	r3, #0
	bl	hmac_drbg_reseed_core
.Ltmp137:
	@DEBUG_VALUE: mbedtls_hmac_drbg_random_with_add:ret <- $r0
	.loc	4 351 13                        @ ../../../components/network/thread/subg_openthread/third_party/mbedtls/repo/library/hmac_drbg.c:351:13
	cbnz	r0, .LBB10_19
.Ltmp138:
@ %bb.8:
	@DEBUG_VALUE: mbedtls_hmac_drbg_random_with_add:md_len <- $r10
	@DEBUG_VALUE: mbedtls_hmac_drbg_reseed:len <- $r9
	@DEBUG_VALUE: mbedtls_hmac_drbg_reseed:additional <- $r8
	@DEBUG_VALUE: mbedtls_hmac_drbg_random_with_add:output <- $r7
	@DEBUG_VALUE: mbedtls_hmac_drbg_reseed:ctx <- $r4
	@DEBUG_VALUE: mbedtls_hmac_drbg_random_with_add:p_rng <- $r4
	@DEBUG_VALUE: mbedtls_hmac_drbg_random_with_add:ctx <- $r4
	@DEBUG_VALUE: mbedtls_hmac_drbg_random_with_add:ret <- $r0
	@DEBUG_VALUE: mbedtls_hmac_drbg_random_with_add:add_len <- [DW_OP_plus_uconst 40] [$sp+0]
	.loc	4 0 13 is_stmt 0                @ ../../../components/network/thread/subg_openthread/third_party/mbedtls/repo/library/hmac_drbg.c:0:13
	mov.w	r9, #0
	b	.LBB10_10
.Ltmp139:
.LBB10_9:
	@DEBUG_VALUE: mbedtls_hmac_drbg_random_with_add:md_len <- $r10
	@DEBUG_VALUE: mbedtls_hmac_drbg_random_with_add:output <- $r7
	@DEBUG_VALUE: mbedtls_hmac_drbg_random_with_add:p_rng <- $r4
	@DEBUG_VALUE: mbedtls_hmac_drbg_random_with_add:ctx <- $r4
	@DEBUG_VALUE: mbedtls_hmac_drbg_random_with_add:add_len <- [DW_OP_plus_uconst 40] [$sp+0]
	@DEBUG_VALUE: mbedtls_hmac_drbg_random_with_add:ret <- -110
	@DEBUG_VALUE: mbedtls_hmac_drbg_random_with_add:add_len <- undef
	.loc	4 358 28 is_stmt 1              @ ../../../components/network/thread/subg_openthread/third_party/mbedtls/repo/library/hmac_drbg.c:358:28
	cmp.w	r8, #0
	it	ne
	cmpne.w	r9, #0
	bne	.LBB10_18
.Ltmp140:
.LBB10_10:
	@DEBUG_VALUE: mbedtls_hmac_drbg_random_with_add:md_len <- $r10
	@DEBUG_VALUE: mbedtls_hmac_drbg_random_with_add:output <- $r7
	@DEBUG_VALUE: mbedtls_hmac_drbg_random_with_add:p_rng <- $r4
	@DEBUG_VALUE: mbedtls_hmac_drbg_random_with_add:ctx <- $r4
	@DEBUG_VALUE: mbedtls_hmac_drbg_random_with_add:left <- $r5
	@DEBUG_VALUE: mbedtls_hmac_drbg_random_with_add:out <- $r7
	.loc	4 366 5                         @ ../../../components/network/thread/subg_openthread/third_party/mbedtls/repo/library/hmac_drbg.c:366:5
	cbz	r5, .LBB10_16
.Ltmp141:
@ %bb.11:
	@DEBUG_VALUE: mbedtls_hmac_drbg_random_with_add:md_len <- $r10
	@DEBUG_VALUE: mbedtls_hmac_drbg_random_with_add:out <- $r7
	@DEBUG_VALUE: mbedtls_hmac_drbg_random_with_add:output <- $r7
	@DEBUG_VALUE: mbedtls_hmac_drbg_random_with_add:left <- $r5
	@DEBUG_VALUE: mbedtls_hmac_drbg_random_with_add:p_rng <- $r4
	@DEBUG_VALUE: mbedtls_hmac_drbg_random_with_add:ctx <- $r4
	.loc	4 0 5 is_stmt 0                 @ ../../../components/network/thread/subg_openthread/third_party/mbedtls/repo/library/hmac_drbg.c:0:5
	add.w	r11, r4, #12
.Ltmp142:
	.p2align	2
.LBB10_12:                              @ =>This Inner Loop Header: Depth=1
	@DEBUG_VALUE: mbedtls_hmac_drbg_random_with_add:md_len <- $r10
	@DEBUG_VALUE: mbedtls_hmac_drbg_random_with_add:out <- $r7
	@DEBUG_VALUE: mbedtls_hmac_drbg_random_with_add:left <- $r5
	@DEBUG_VALUE: mbedtls_hmac_drbg_random_with_add:p_rng <- $r4
	@DEBUG_VALUE: mbedtls_hmac_drbg_random_with_add:ctx <- $r4
	@DEBUG_VALUE: mbedtls_hmac_drbg_random_with_add:left <- $r5
	@DEBUG_VALUE: mbedtls_hmac_drbg_random_with_add:out <- $r7
	.loc	4 368 26 is_stmt 1              @ ../../../components/network/thread/subg_openthread/third_party/mbedtls/repo/library/hmac_drbg.c:368:26
	mov	r6, r5
.Ltmp143:
	.loc	4 370 21                        @ ../../../components/network/thread/subg_openthread/third_party/mbedtls/repo/library/hmac_drbg.c:370:21
	mov	r0, r4
.Ltmp144:
	.loc	4 368 26                        @ ../../../components/network/thread/subg_openthread/third_party/mbedtls/repo/library/hmac_drbg.c:368:26
	cmp	r5, r10
	it	hi
	movhi	r6, r10
.Ltmp145:
	@DEBUG_VALUE: use_len <- $r6
	.loc	4 370 21                        @ ../../../components/network/thread/subg_openthread/third_party/mbedtls/repo/library/hmac_drbg.c:370:21
	bl	mbedtls_md_hmac_reset
.Ltmp146:
	@DEBUG_VALUE: mbedtls_hmac_drbg_random_with_add:ret <- $r0
	.loc	4 370 13 is_stmt 0              @ ../../../components/network/thread/subg_openthread/third_party/mbedtls/repo/library/hmac_drbg.c:370:13
	cbnz	r0, .LBB10_19
.Ltmp147:
@ %bb.13:                               @   in Loop: Header=BB10_12 Depth=1
	@DEBUG_VALUE: mbedtls_hmac_drbg_random_with_add:md_len <- $r10
	@DEBUG_VALUE: mbedtls_hmac_drbg_random_with_add:out <- $r7
	@DEBUG_VALUE: use_len <- $r6
	@DEBUG_VALUE: mbedtls_hmac_drbg_random_with_add:left <- $r5
	@DEBUG_VALUE: mbedtls_hmac_drbg_random_with_add:p_rng <- $r4
	@DEBUG_VALUE: mbedtls_hmac_drbg_random_with_add:ctx <- $r4
	@DEBUG_VALUE: mbedtls_hmac_drbg_random_with_add:ret <- $r0
	.loc	4 372 21 is_stmt 1              @ ../../../components/network/thread/subg_openthread/third_party/mbedtls/repo/library/hmac_drbg.c:372:21
	mov	r0, r4
.Ltmp148:
	mov	r1, r11
	mov	r2, r10
	bl	mbedtls_md_hmac_update
.Ltmp149:
	@DEBUG_VALUE: mbedtls_hmac_drbg_random_with_add:ret <- $r0
	.loc	4 372 13 is_stmt 0              @ ../../../components/network/thread/subg_openthread/third_party/mbedtls/repo/library/hmac_drbg.c:372:13
	cbnz	r0, .LBB10_19
.Ltmp150:
@ %bb.14:                               @   in Loop: Header=BB10_12 Depth=1
	@DEBUG_VALUE: mbedtls_hmac_drbg_random_with_add:md_len <- $r10
	@DEBUG_VALUE: mbedtls_hmac_drbg_random_with_add:out <- $r7
	@DEBUG_VALUE: use_len <- $r6
	@DEBUG_VALUE: mbedtls_hmac_drbg_random_with_add:left <- $r5
	@DEBUG_VALUE: mbedtls_hmac_drbg_random_with_add:p_rng <- $r4
	@DEBUG_VALUE: mbedtls_hmac_drbg_random_with_add:ctx <- $r4
	@DEBUG_VALUE: mbedtls_hmac_drbg_random_with_add:ret <- $r0
	.loc	4 375 21 is_stmt 1              @ ../../../components/network/thread/subg_openthread/third_party/mbedtls/repo/library/hmac_drbg.c:375:21
	mov	r0, r4
.Ltmp151:
	mov	r1, r11
	bl	mbedtls_md_hmac_finish
.Ltmp152:
	@DEBUG_VALUE: mbedtls_hmac_drbg_random_with_add:ret <- $r0
	.loc	4 375 13 is_stmt 0              @ ../../../components/network/thread/subg_openthread/third_party/mbedtls/repo/library/hmac_drbg.c:375:13
	cbnz	r0, .LBB10_19
.Ltmp153:
@ %bb.15:                               @   in Loop: Header=BB10_12 Depth=1
	@DEBUG_VALUE: mbedtls_hmac_drbg_random_with_add:md_len <- $r10
	@DEBUG_VALUE: mbedtls_hmac_drbg_random_with_add:out <- $r7
	@DEBUG_VALUE: use_len <- $r6
	@DEBUG_VALUE: mbedtls_hmac_drbg_random_with_add:left <- $r5
	@DEBUG_VALUE: mbedtls_hmac_drbg_random_with_add:p_rng <- $r4
	@DEBUG_VALUE: mbedtls_hmac_drbg_random_with_add:ctx <- $r4
	@DEBUG_VALUE: mbedtls_hmac_drbg_random_with_add:ret <- $r0
	.loc	4 378 9 is_stmt 1               @ ../../../components/network/thread/subg_openthread/third_party/mbedtls/repo/library/hmac_drbg.c:378:9
	mov	r0, r7
.Ltmp154:
	mov	r1, r11
	mov	r2, r6
	bl	__aeabi_memcpy
.Ltmp155:
	.loc	4 380 14                        @ ../../../components/network/thread/subg_openthread/third_party/mbedtls/repo/library/hmac_drbg.c:380:14
	subs	r5, r5, r6
.Ltmp156:
	@DEBUG_VALUE: mbedtls_hmac_drbg_random_with_add:ret <- 0
	@DEBUG_VALUE: mbedtls_hmac_drbg_random_with_add:left <- $r5
	.loc	4 379 13                        @ ../../../components/network/thread/subg_openthread/third_party/mbedtls/repo/library/hmac_drbg.c:379:13
	add	r7, r6
.Ltmp157:
	@DEBUG_VALUE: mbedtls_hmac_drbg_random_with_add:output <- [DW_OP_LLVM_entry_value 1] $r1
	@DEBUG_VALUE: mbedtls_hmac_drbg_random_with_add:out <- $r7
	.loc	4 366 5                         @ ../../../components/network/thread/subg_openthread/third_party/mbedtls/repo/library/hmac_drbg.c:366:5
	bne	.LBB10_12
.Ltmp158:
.LBB10_16:
	@DEBUG_VALUE: mbedtls_hmac_drbg_random_with_add:md_len <- $r10
	@DEBUG_VALUE: mbedtls_hmac_drbg_random_with_add:out <- $r7
	@DEBUG_VALUE: mbedtls_hmac_drbg_random_with_add:left <- $r5
	@DEBUG_VALUE: mbedtls_hmac_drbg_random_with_add:p_rng <- $r4
	@DEBUG_VALUE: mbedtls_hmac_drbg_random_with_add:ctx <- $r4
	.loc	4 384 17                        @ ../../../components/network/thread/subg_openthread/third_party/mbedtls/repo/library/hmac_drbg.c:384:17
	mov	r0, r4
	mov	r1, r8
	mov	r2, r9
	bl	mbedtls_hmac_drbg_update_ret
.Ltmp159:
	@DEBUG_VALUE: mbedtls_hmac_drbg_random_with_add:ret <- $r0
	.loc	4 384 9 is_stmt 0               @ ../../../components/network/thread/subg_openthread/third_party/mbedtls/repo/library/hmac_drbg.c:384:9
	cbnz	r0, .LBB10_19
.Ltmp160:
@ %bb.17:
	@DEBUG_VALUE: mbedtls_hmac_drbg_random_with_add:md_len <- $r10
	@DEBUG_VALUE: mbedtls_hmac_drbg_random_with_add:out <- $r7
	@DEBUG_VALUE: mbedtls_hmac_drbg_random_with_add:left <- $r5
	@DEBUG_VALUE: mbedtls_hmac_drbg_random_with_add:p_rng <- $r4
	@DEBUG_VALUE: mbedtls_hmac_drbg_random_with_add:ctx <- $r4
	@DEBUG_VALUE: mbedtls_hmac_drbg_random_with_add:ret <- $r0
	.loc	4 389 24 is_stmt 1              @ ../../../components/network/thread/subg_openthread/third_party/mbedtls/repo/library/hmac_drbg.c:389:24
	ldr	r0, [r4, #44]
.Ltmp161:
	adds	r0, #1
	str	r0, [r4, #44]
	movs	r0, #0
	b	.LBB10_19
.Ltmp162:
.LBB10_18:
	@DEBUG_VALUE: mbedtls_hmac_drbg_random_with_add:md_len <- $r10
	@DEBUG_VALUE: mbedtls_hmac_drbg_random_with_add:output <- $r7
	@DEBUG_VALUE: mbedtls_hmac_drbg_random_with_add:p_rng <- $r4
	@DEBUG_VALUE: mbedtls_hmac_drbg_random_with_add:ctx <- $r4
	@DEBUG_VALUE: mbedtls_hmac_drbg_random_with_add:ret <- -110
	.loc	4 360 21                        @ ../../../components/network/thread/subg_openthread/third_party/mbedtls/repo/library/hmac_drbg.c:360:21
	mov	r0, r4
	mov	r1, r8
	mov	r2, r9
	bl	mbedtls_hmac_drbg_update_ret
.Ltmp163:
	@DEBUG_VALUE: mbedtls_hmac_drbg_random_with_add:ret <- $r0
	.loc	4 360 13 is_stmt 0              @ ../../../components/network/thread/subg_openthread/third_party/mbedtls/repo/library/hmac_drbg.c:360:13
	cmp	r0, #0
	beq	.LBB10_10
.Ltmp164:
.LBB10_19:
	@DEBUG_VALUE: mbedtls_hmac_drbg_random_with_add:p_rng <- $r4
	@DEBUG_VALUE: mbedtls_hmac_drbg_random_with_add:ctx <- $r4
	.loc	4 394 1 is_stmt 1               @ ../../../components/network/thread/subg_openthread/third_party/mbedtls/repo/library/hmac_drbg.c:394:1
	add	sp, #4
	pop.w	{r4, r5, r6, r7, r8, r9, r10, r11, pc}
.Ltmp165:
.Lfunc_end10:
	.size	mbedtls_hmac_drbg_random_with_add, .Lfunc_end10-mbedtls_hmac_drbg_random_with_add
	.cfi_endproc
	.cantunwind
	.fnend
                                        @ -- End function
	.section	.text.mbedtls_hmac_drbg_random,"ax",%progbits
	.hidden	mbedtls_hmac_drbg_random        @ -- Begin function mbedtls_hmac_drbg_random
	.globl	mbedtls_hmac_drbg_random
	.p2align	1
	.type	mbedtls_hmac_drbg_random,%function
	.code	16                              @ @mbedtls_hmac_drbg_random
	.thumb_func
mbedtls_hmac_drbg_random:
.Lfunc_begin11:
	.loc	4 400 0                         @ ../../../components/network/thread/subg_openthread/third_party/mbedtls/repo/library/hmac_drbg.c:400:0
	.fnstart
	.cfi_startproc
@ %bb.0:
	@DEBUG_VALUE: mbedtls_hmac_drbg_random:p_rng <- $r0
	@DEBUG_VALUE: mbedtls_hmac_drbg_random:p_rng <- $r0
	@DEBUG_VALUE: mbedtls_hmac_drbg_random:output <- $r1
	@DEBUG_VALUE: mbedtls_hmac_drbg_random:output <- $r1
	@DEBUG_VALUE: mbedtls_hmac_drbg_random:out_len <- $r2
	@DEBUG_VALUE: mbedtls_hmac_drbg_random:out_len <- $r2
	.save	{r7, lr}
	push	{r7, lr}
	.cfi_def_cfa_offset 8
	.cfi_offset lr, -4
	.cfi_offset r7, -8
	.pad	#8
	sub	sp, #8
	.cfi_def_cfa_offset 16
.Ltmp166:
	@DEBUG_VALUE: mbedtls_hmac_drbg_random:ctx <- $r0
	@DEBUG_VALUE: mbedtls_hmac_drbg_random:ctx <- $r0
	@DEBUG_VALUE: mbedtls_hmac_drbg_random:ret <- -110
	mov.w	r12, #0
	@DEBUG_VALUE: mbedtls_hmac_drbg_random:ctx <- $r0
	@DEBUG_VALUE: mbedtls_hmac_drbg_random:out_len <- $r2
	@DEBUG_VALUE: mbedtls_hmac_drbg_random:output <- $r1
	@DEBUG_VALUE: mbedtls_hmac_drbg_random:p_rng <- $r0
.Ltmp167:
	.loc	4 409 11 prologue_end           @ ../../../components/network/thread/subg_openthread/third_party/mbedtls/repo/library/hmac_drbg.c:409:11
	movs	r3, #0
	str.w	r12, [sp]
	bl	mbedtls_hmac_drbg_random_with_add
.Ltmp168:
	@DEBUG_VALUE: mbedtls_hmac_drbg_random:out_len <- [DW_OP_LLVM_entry_value 1] $r2
	@DEBUG_VALUE: mbedtls_hmac_drbg_random:output <- [DW_OP_LLVM_entry_value 1] $r1
	@DEBUG_VALUE: mbedtls_hmac_drbg_random:p_rng <- [DW_OP_LLVM_entry_value 1] $r0
	@DEBUG_VALUE: mbedtls_hmac_drbg_random:ret <- $r0
	.loc	4 416 5                         @ ../../../components/network/thread/subg_openthread/third_party/mbedtls/repo/library/hmac_drbg.c:416:5
	add	sp, #8
	pop	{r7, pc}
.Ltmp169:
.Lfunc_end11:
	.size	mbedtls_hmac_drbg_random, .Lfunc_end11-mbedtls_hmac_drbg_random
	.cfi_endproc
	.cantunwind
	.fnend
                                        @ -- End function
	.section	.text.mbedtls_hmac_drbg_free,"ax",%progbits
	.hidden	mbedtls_hmac_drbg_free          @ -- Begin function mbedtls_hmac_drbg_free
	.globl	mbedtls_hmac_drbg_free
	.p2align	1
	.type	mbedtls_hmac_drbg_free,%function
	.code	16                              @ @mbedtls_hmac_drbg_free
	.thumb_func
mbedtls_hmac_drbg_free:
.Lfunc_begin12:
	.loc	4 424 0                         @ ../../../components/network/thread/subg_openthread/third_party/mbedtls/repo/library/hmac_drbg.c:424:0
	.fnstart
	.cfi_startproc
@ %bb.0:
	@DEBUG_VALUE: mbedtls_hmac_drbg_free:ctx <- $r0
	@DEBUG_VALUE: mbedtls_hmac_drbg_free:ctx <- $r0
	.loc	4 425 9 prologue_end            @ ../../../components/network/thread/subg_openthread/third_party/mbedtls/repo/library/hmac_drbg.c:425:9
	cbz	r0, .LBB12_2
.Ltmp170:
@ %bb.1:
	@DEBUG_VALUE: mbedtls_hmac_drbg_free:ctx <- $r0
	.save	{r4, lr}
	push	{r4, lr}
	.cfi_def_cfa_offset 8
	.cfi_offset lr, -4
	.cfi_offset r4, -8
	mov	r4, r0
.Ltmp171:
	@DEBUG_VALUE: mbedtls_hmac_drbg_free:ctx <- $r4
	.loc	4 433 5                         @ ../../../components/network/thread/subg_openthread/third_party/mbedtls/repo/library/hmac_drbg.c:433:5
	bl	mbedtls_md_free
.Ltmp172:
	.loc	4 434 5                         @ ../../../components/network/thread/subg_openthread/third_party/mbedtls/repo/library/hmac_drbg.c:434:5
	mov	r0, r4
	movs	r1, #68
	bl	mbedtls_platform_zeroize
.Ltmp173:
	.loc	4 0 5 is_stmt 0                 @ ../../../components/network/thread/subg_openthread/third_party/mbedtls/repo/library/hmac_drbg.c:0:5
	movw	r0, #10000
	.loc	4 435 26 is_stmt 1              @ ../../../components/network/thread/subg_openthread/third_party/mbedtls/repo/library/hmac_drbg.c:435:26
	str	r0, [r4, #56]
	pop.w	{r4, lr}
.Ltmp174:
	@DEBUG_VALUE: mbedtls_hmac_drbg_free:ctx <- [DW_OP_LLVM_entry_value 1] $r0
.LBB12_2:
	.loc	4 436 1                         @ ../../../components/network/thread/subg_openthread/third_party/mbedtls/repo/library/hmac_drbg.c:436:1
	bx	lr
.Ltmp175:
.Lfunc_end12:
	.size	mbedtls_hmac_drbg_free, .Lfunc_end12-mbedtls_hmac_drbg_free
	.cfi_endproc
	.cantunwind
	.fnend
                                        @ -- End function
	.section	".note.GNU-stack","",%progbits
	.eabi_attribute	30, 3	@ Tag_ABI_optimization_goals
	.ARM_attribute	16, 1	@ Tag_AV_eba