	.text
	.syntax unified
	.eabi_attribute	67, "2.09"	@ Tag_conformance
	.cpu	cortex-m3
	.eabi_attribute	6, 10	@ Tag_CPU_arch
	.eabi_attribute	7, 77	@ Tag_CPU_arch_profile
	.eabi_attribute	8, 0	@ Tag_ARM_ISA_use
	.eabi_attribute	9, 2	@ Tag_THUMB_ISA_use
	.eabi_attribute	34, 1	@ Tag_CPU_unaligned_access
	.eabi_attribute	17, 1	@ Tag_ABI_PCS_GOT_use
	.eabi_attribute	20, 2	@ Tag_ABI_FP_denormal
	.eabi_attribute	21, 0	@ Tag_ABI_FP_exceptions
	.eabi_attribute	23, 1	@ Tag_ABI_FP_number_model
	.eabi_attribute	24, 1	@ Tag_ABI_align_needed
	.eabi_attribute	25, 1	@ Tag_ABI_align_preserved
	.eabi_attribute	38, 1	@ Tag_ABI_FP_16bit_format
	.eabi_attribute	18, 4	@ Tag_ABI_PCS_wchar_t
	.eabi_attribute	26, 2	@ Tag_ABI_enum_size
	.eabi_attribute	14, 0	@ Tag_ABI_PCS_R9_use
	.file	"hosal_uart.c"
	.file	1 "C:\\Keil_v5\\ARM\\ARMCLANG\\Bin\\..\\include" "stdint.h"
	.file	2 "D:\\20240115\\rafael-iot-sdk-das\\examples\\das_subg_thread\\keil" "../../../components/platform/soc/rt582/rt582_driver/Inc/uart_reg.h"
	.file	3 "D:\\20240115\\rafael-iot-sdk-das\\examples\\das_subg_thread\\keil" "../../../components/platform/hosal/rt582_hosal/Src/hosal_uart.c"
	.file	4 "D:\\20240115\\rafael-iot-sdk-das\\examples\\das_subg_thread\\keil" "../../../components/platform/soc/rt582/rt582_driver/Inc/cm3_mcu.h"
	.file	5 "D:\\20240115\\rafael-iot-sdk-das\\examples\\das_subg_thread\\keil" "../../../components/platform/hosal/rt582_hosal/Inc\\hosal_uart.h"
	.file	6 "C:/Users\\P350\\AppData\\Local\\Arm\\Packs\\ARM\\CMSIS\\5.8.0\\CMSIS\\Core\\Include" "core_cm3.h"
	.section	.text.hosal_uart_finalize,"ax",%progbits
	.hidden	hosal_uart_finalize             @ -- Begin function hosal_uart_finalize
	.globl	hosal_uart_finalize
	.p2align	1
	.type	hosal_uart_finalize,%function
	.code	16                              @ @hosal_uart_finalize
	.thumb_func
hosal_uart_finalize:
.Lfunc_begin0:
	.loc	3 55 0                          @ ../../../components/platform/hosal/rt582_hosal/Src/hosal_uart.c:55:0
	.fnstart
	.cfi_sections .debug_frame
	.cfi_startproc
@ %bb.0:
	@DEBUG_VALUE: hosal_uart_finalize:uart_dev <- $r0
	.save	{r4, r5, r6, lr}
	push	{r4, r5, r6, lr}
	.cfi_def_cfa_offset 16
	.cfi_offset lr, -4
	.cfi_offset r6, -8
	.cfi_offset r5, -12
	.cfi_offset r4, -16
.Ltmp0:
	.loc	3 59 31 prologue_end            @ ../../../components/platform/hosal/rt582_hosal/Src/hosal_uart.c:59:31
	ldrb	r1, [r0, #4]
	.loc	3 59 40 is_stmt 0               @ ../../../components/platform/hosal/rt582_hosal/Src/hosal_uart.c:59:40
	movw	r6, :lower16:g_uart_handle
	mov	r4, r0
.Ltmp1:
	@DEBUG_VALUE: hosal_uart_finalize:uart_dev <- $r4
	@DEBUG_VALUE: hosal_uart_finalize:uart_dev <- $r4
	add.w	r0, r1, r1, lsl #2
	movt	r6, :upper16:g_uart_handle
	add.w	r2, r6, r0, lsl #3
	.loc	3 61 49 is_stmt 1               @ ../../../components/platform/hosal/rt582_hosal/Src/hosal_uart.c:61:49
	ldr	r2, [r2, #4]
	.loc	3 59 40                         @ ../../../components/platform/hosal/rt582_hosal/Src/hosal_uart.c:59:40
	ldr.w	r0, [r6, r0, lsl #3]
.Ltmp2:
	@DEBUG_VALUE: hosal_uart_finalize:uart <- $r0
	@DEBUG_VALUE: __NVIC_DisableIRQ:IRQn <- $r2
	.loc	3 0 40 is_stmt 0                @ ../../../components/platform/hosal/rt582_hosal/Src/hosal_uart.c:0:40
	movw	r5, #57728
.Ltmp3:
	.loc	6 1548 7 is_stmt 1              @ C:/Users\P350\AppData\Local\Arm\Packs\ARM\CMSIS\5.8.0\CMSIS\Core\Include\core_cm3.h:1548:7
	cmp	r2, #0
	movt	r5, #57344
.Ltmp4:
	@DEBUG_VALUE: hosal_uart_finalize:cfg <- [DW_OP_plus_uconst 4, DW_OP_stack_value] $r4
	@DEBUG_VALUE: hosal_uart_finalize:rval <- 0
	bmi	.LBB0_2
.Ltmp5:
@ %bb.1:
	@DEBUG_VALUE: hosal_uart_finalize:cfg <- [DW_OP_plus_uconst 4, DW_OP_stack_value] $r4
	@DEBUG_VALUE: hosal_uart_finalize:uart_dev <- $r4
	@DEBUG_VALUE: __NVIC_DisableIRQ:IRQn <- $r2
	@DEBUG_VALUE: hosal_uart_finalize:uart <- $r0
	@DEBUG_VALUE: hosal_uart_finalize:rval <- 0
	.loc	6 1550 81                       @ C:/Users\P350\AppData\Local\Arm\Packs\ARM\CMSIS\5.8.0\CMSIS\Core\Include\core_cm3.h:1550:81
	and	r1, r2, #31
	movs	r3, #1
	.loc	6 1550 60 is_stmt 0             @ C:/Users\P350\AppData\Local\Arm\Packs\ARM\CMSIS\5.8.0\CMSIS\Core\Include\core_cm3.h:1550:60
	lsl.w	r1, r3, r1
	.loc	6 1550 34                       @ C:/Users\P350\AppData\Local\Arm\Packs\ARM\CMSIS\5.8.0\CMSIS\Core\Include\core_cm3.h:1550:34
	lsrs	r2, r2, #5
.Ltmp6:
	.loc	6 1550 43                       @ C:/Users\P350\AppData\Local\Arm\Packs\ARM\CMSIS\5.8.0\CMSIS\Core\Include\core_cm3.h:1550:43
	str.w	r1, [r5, r2, lsl #2]
	.loc	6 1551 5 is_stmt 1              @ C:/Users\P350\AppData\Local\Arm\Packs\ARM\CMSIS\5.8.0\CMSIS\Core\Include\core_cm3.h:1551:5
	dsb	sy
	.loc	6 1552 5                        @ C:/Users\P350\AppData\Local\Arm\Packs\ARM\CMSIS\5.8.0\CMSIS\Core\Include\core_cm3.h:1552:5
	isb	sy
.Ltmp7:
	.loc	3 76 43                         @ ../../../components/platform/hosal/rt582_hosal/Src/hosal_uart.c:76:43
	ldrb	r1, [r4, #4]
.Ltmp8:
.LBB0_2:
	@DEBUG_VALUE: hosal_uart_finalize:cfg <- [DW_OP_plus_uconst 4, DW_OP_stack_value] $r4
	@DEBUG_VALUE: hosal_uart_finalize:uart_dev <- $r4
	@DEBUG_VALUE: hosal_uart_finalize:uart <- $r0
	@DEBUG_VALUE: hosal_uart_finalize:rval <- 0
	.loc	3 0 43 is_stmt 0                @ ../../../components/platform/hosal/rt582_hosal/Src/hosal_uart.c:0:43
	movs	r2, #0
	movs	r3, #3
	.loc	3 64 20 is_stmt 1               @ ../../../components/platform/hosal/rt582_hosal/Src/hosal_uart.c:64:20
	str	r2, [r0, #56]
	.loc	3 66 26                         @ ../../../components/platform/hosal/rt582_hosal/Src/hosal_uart.c:66:26
	str	r2, [r0, #64]
	.loc	3 67 26                         @ ../../../components/platform/hosal/rt582_hosal/Src/hosal_uart.c:67:26
	str	r2, [r0, #68]
	.loc	3 69 27                         @ ../../../components/platform/hosal/rt582_hosal/Src/hosal_uart.c:69:27
	str	r3, [r0, #60]
	.loc	3 72 15                         @ ../../../components/platform/hosal/rt582_hosal/Src/hosal_uart.c:72:15
	str	r2, [r0, #8]
	movs	r2, #6
	.loc	3 73 15                         @ ../../../components/platform/hosal/rt582_hosal/Src/hosal_uart.c:73:15
	str	r2, [r0, #8]
	.loc	3 76 36                         @ ../../../components/platform/hosal/rt582_hosal/Src/hosal_uart.c:76:36
	add.w	r0, r1, #16
.Ltmp9:
	.loc	3 76 5 is_stmt 0                @ ../../../components/platform/hosal/rt582_hosal/Src/hosal_uart.c:76:5
	bl	disable_perclk
.Ltmp10:
	.loc	3 79 45 is_stmt 1               @ ../../../components/platform/hosal/rt582_hosal/Src/hosal_uart.c:79:45
	ldrb	r0, [r4, #4]
	.loc	3 79 54 is_stmt 0               @ ../../../components/platform/hosal/rt582_hosal/Src/hosal_uart.c:79:54
	add.w	r0, r0, r0, lsl #2
	add.w	r0, r6, r0, lsl #3
	ldr	r0, [r0, #4]
.Ltmp11:
	@DEBUG_VALUE: __NVIC_ClearPendingIRQ:IRQn <- $r0
	.loc	6 1601 7 is_stmt 1              @ C:/Users\P350\AppData\Local\Arm\Packs\ARM\CMSIS\5.8.0\CMSIS\Core\Include\core_cm3.h:1601:7
	cmp	r0, #0
	bmi	.LBB0_4
.Ltmp12:
@ %bb.3:
	@DEBUG_VALUE: hosal_uart_finalize:cfg <- [DW_OP_plus_uconst 4, DW_OP_stack_value] $r4
	@DEBUG_VALUE: hosal_uart_finalize:uart_dev <- $r4
	@DEBUG_VALUE: __NVIC_ClearPendingIRQ:IRQn <- $r0
	@DEBUG_VALUE: hosal_uart_finalize:rval <- 0
	.loc	6 1603 81                       @ C:/Users\P350\AppData\Local\Arm\Packs\ARM\CMSIS\5.8.0\CMSIS\Core\Include\core_cm3.h:1603:81
	and	r1, r0, #31
	movs	r2, #1
	.loc	6 1603 34 is_stmt 0             @ C:/Users\P350\AppData\Local\Arm\Packs\ARM\CMSIS\5.8.0\CMSIS\Core\Include\core_cm3.h:1603:34
	lsrs	r0, r0, #5
.Ltmp13:
	.loc	6 1603 60                       @ C:/Users\P350\AppData\Local\Arm\Packs\ARM\CMSIS\5.8.0\CMSIS\Core\Include\core_cm3.h:1603:60
	lsl.w	r1, r2, r1
	.loc	6 1603 5                        @ C:/Users\P350\AppData\Local\Arm\Packs\ARM\CMSIS\5.8.0\CMSIS\Core\Include\core_cm3.h:1603:5
	add.w	r0, r5, r0, lsl #2
	.loc	6 1603 43                       @ C:/Users\P350\AppData\Local\Arm\Packs\ARM\CMSIS\5.8.0\CMSIS\Core\Include\core_cm3.h:1603:43
	str.w	r1, [r0, #256]
.Ltmp14:
.LBB0_4:
	@DEBUG_VALUE: hosal_uart_finalize:cfg <- [DW_OP_plus_uconst 4, DW_OP_stack_value] $r4
	@DEBUG_VALUE: hosal_uart_finalize:uart_dev <- $r4
	@DEBUG_VALUE: hosal_uart_finalize:rval <- 0
	.loc	3 81 5 is_stmt 1                @ ../../../components/platform/hosal/rt582_hosal/Src/hosal_uart.c:81:5
	movs	r0, #0
	pop	{r4, r5, r6, pc}
.Ltmp15:
.Lfunc_end0:
	.size	hosal_uart_finalize, .Lfunc_end0-hosal_uart_finalize
	.cfi_endproc
	.cantunwind
	.fnend
                                        @ -- End function
	.section	.text.hosal_uart_init,"ax",%progbits
	.hidden	hosal_uart_init                 @ -- Begin function hosal_uart_init
	.globl	hosal_uart_init
	.p2align	1
	.type	hosal_uart_init,%function
	.code	16                              @ @hosal_uart_init
	.thumb_func
hosal_uart_init:
.Lfunc_begin1:
	.loc	3 85 0                          @ ../../../components/platform/hosal/rt582_hosal/Src/hosal_uart.c:85:0
	.fnstart
	.cfi_startproc
@ %bb.0:
	@DEBUG_VALUE: hosal_uart_init:uart_dev <- $r0
	.save	{r4, r5, r6, r7, r8, r9, lr}
	push.w	{r4, r5, r6, r7, r8, r9, lr}
	.cfi_def_cfa_offset 28
	.cfi_offset lr, -4
	.cfi_offset r9, -8
	.cfi_offset r8, -12
	.cfi_offset r7, -16
	.cfi_offset r6, -20
	.cfi_offset r5, -24
	.cfi_offset r4, -28
	.pad	#4
	sub	sp, #4
	.cfi_def_cfa_offset 32
.Ltmp16:
	.loc	3 93 35 prologue_end            @ ../../../components/platform/hosal/rt582_hosal/Src/hosal_uart.c:93:35
	ldrb	r1, [r0, #4]
	.loc	3 93 44 is_stmt 0               @ ../../../components/platform/hosal/rt582_hosal/Src/hosal_uart.c:93:44
	movw	r9, :lower16:g_uart_handle
	mov	r4, r0
.Ltmp17:
	@DEBUG_VALUE: hosal_uart_init:uart_dev <- $r4
	.loc	3 95 27 is_stmt 1               @ ../../../components/platform/hosal/rt582_hosal/Src/hosal_uart.c:95:27
	ldrb	r0, [r0, #6]
	.loc	3 93 44                         @ ../../../components/platform/hosal/rt582_hosal/Src/hosal_uart.c:93:44
	add.w	r1, r1, r1, lsl #2
	movt	r9, :upper16:g_uart_handle
	ldr.w	r5, [r9, r1, lsl #3]
.Ltmp18:
	@DEBUG_VALUE: hosal_uart_init:uart <- $r5
	.loc	3 0 44 is_stmt 0                @ ../../../components/platform/hosal/rt582_hosal/Src/hosal_uart.c:0:44
	movw	r8, #57728
	.loc	3 95 9 is_stmt 1                @ ../../../components/platform/hosal/rt582_hosal/Src/hosal_uart.c:95:9
	movs	r1, #6
	movt	r8, #57344
.Ltmp19:
	@DEBUG_VALUE: hosal_uart_init:cfg <- [DW_OP_plus_uconst 4, DW_OP_stack_value] $r4
	@DEBUG_VALUE: hosal_uart_init:rval <- 0
	.loc	3 0 9 is_stmt 0                 @ ../../../components/platform/hosal/rt582_hosal/Src/hosal_uart.c:0:9
	movs	r6, #6
	.loc	3 95 9                          @ ../../../components/platform/hosal/rt582_hosal/Src/hosal_uart.c:95:9
	bl	pin_set_mode
.Ltmp20:
	.loc	3 96 27 is_stmt 1               @ ../../../components/platform/hosal/rt582_hosal/Src/hosal_uart.c:96:27
	ldrb	r0, [r4, #5]
	.loc	3 96 9 is_stmt 0                @ ../../../components/platform/hosal/rt582_hosal/Src/hosal_uart.c:96:9
	movs	r1, #6
	bl	pin_set_mode
.Ltmp21:
	.loc	3 99 49 is_stmt 1               @ ../../../components/platform/hosal/rt582_hosal/Src/hosal_uart.c:99:49
	ldrb	r0, [r4, #4]
	.loc	3 99 58 is_stmt 0               @ ../../../components/platform/hosal/rt582_hosal/Src/hosal_uart.c:99:58
	add.w	r1, r0, r0, lsl #2
	add.w	r1, r9, r1, lsl #3
	ldr	r1, [r1, #4]
.Ltmp22:
	@DEBUG_VALUE: __NVIC_ClearPendingIRQ:IRQn <- $r1
	.loc	6 1601 7 is_stmt 1              @ C:/Users\P350\AppData\Local\Arm\Packs\ARM\CMSIS\5.8.0\CMSIS\Core\Include\core_cm3.h:1601:7
	cmp	r1, #0
	bmi	.LBB1_2
.Ltmp23:
@ %bb.1:
	@DEBUG_VALUE: hosal_uart_init:uart <- $r5
	@DEBUG_VALUE: hosal_uart_init:cfg <- [DW_OP_plus_uconst 4, DW_OP_stack_value] $r4
	@DEBUG_VALUE: hosal_uart_init:uart_dev <- $r4
	@DEBUG_VALUE: __NVIC_ClearPendingIRQ:IRQn <- $r1
	@DEBUG_VALUE: hosal_uart_init:rval <- 0
	.loc	6 1603 81                       @ C:/Users\P350\AppData\Local\Arm\Packs\ARM\CMSIS\5.8.0\CMSIS\Core\Include\core_cm3.h:1603:81
	and	r2, r1, #31
	movs	r3, #1
	.loc	6 1603 34 is_stmt 0             @ C:/Users\P350\AppData\Local\Arm\Packs\ARM\CMSIS\5.8.0\CMSIS\Core\Include\core_cm3.h:1603:34
	lsrs	r1, r1, #5
.Ltmp24:
	.loc	6 1603 60                       @ C:/Users\P350\AppData\Local\Arm\Packs\ARM\CMSIS\5.8.0\CMSIS\Core\Include\core_cm3.h:1603:60
	lsl.w	r2, r3, r2
	.loc	6 1603 5                        @ C:/Users\P350\AppData\Local\Arm\Packs\ARM\CMSIS\5.8.0\CMSIS\Core\Include\core_cm3.h:1603:5
	add.w	r1, r8, r1, lsl #2
	.loc	6 1603 43                       @ C:/Users\P350\AppData\Local\Arm\Packs\ARM\CMSIS\5.8.0\CMSIS\Core\Include\core_cm3.h:1603:43
	str.w	r2, [r1, #256]
.Ltmp25:
.LBB1_2:
	@DEBUG_VALUE: hosal_uart_init:uart <- $r5
	@DEBUG_VALUE: hosal_uart_init:cfg <- [DW_OP_plus_uconst 4, DW_OP_stack_value] $r4
	@DEBUG_VALUE: hosal_uart_init:uart_dev <- $r4
	@DEBUG_VALUE: hosal_uart_init:rval <- 0
	.loc	3 102 39 is_stmt 1              @ ../../../components/platform/hosal/rt582_hosal/Src/hosal_uart.c:102:39
	adds	r0, #16
	.loc	3 102 9 is_stmt 0               @ ../../../components/platform/hosal/rt582_hosal/Src/hosal_uart.c:102:9
	bl	enable_perclk
.Ltmp26:
	.loc	3 0 9                           @ ../../../components/platform/hosal/rt582_hosal/Src/hosal_uart.c:0:9
	movs	r0, #0
	.loc	3 105 19 is_stmt 1              @ ../../../components/platform/hosal/rt582_hosal/Src/hosal_uart.c:105:19
	str	r0, [r5, #8]
	.loc	3 106 19                        @ ../../../components/platform/hosal/rt582_hosal/Src/hosal_uart.c:106:19
	str	r6, [r5, #8]
	.loc	3 109 19                        @ ../../../components/platform/hosal/rt582_hosal/Src/hosal_uart.c:109:19
	str	r0, [r5, #4]
	.loc	3 117 26                        @ ../../../components/platform/hosal/rt582_hosal/Src/hosal_uart.c:117:26
	add.w	r6, r4, #12
	ldm	r6, {r1, r2, r3, r6}
	.loc	3 112 32                        @ ../../../components/platform/hosal/rt582_hosal/Src/hosal_uart.c:112:32
	and	r2, r2, #3
.Ltmp27:
	@DEBUG_VALUE: hosal_uart_init:cval <- $r2
	.loc	3 115 31                        @ ../../../components/platform/hosal/rt582_hosal/Src/hosal_uart.c:115:31
	add.w	r7, r2, #128
	.loc	3 115 19 is_stmt 0              @ ../../../components/platform/hosal/rt582_hosal/Src/hosal_uart.c:115:19
	str	r7, [r5, #12]
	.loc	3 117 36 is_stmt 1              @ ../../../components/platform/hosal/rt582_hosal/Src/hosal_uart.c:117:36
	uxtb	r7, r1
	.loc	3 118 36                        @ ../../../components/platform/hosal/rt582_hosal/Src/hosal_uart.c:118:36
	lsrs	r1, r1, #8
	.loc	3 117 19                        @ ../../../components/platform/hosal/rt582_hosal/Src/hosal_uart.c:117:19
	str	r7, [r5]
	.loc	3 118 19                        @ ../../../components/platform/hosal/rt582_hosal/Src/hosal_uart.c:118:19
	str	r1, [r5, #4]
	.loc	3 119 19                        @ ../../../components/platform/hosal/rt582_hosal/Src/hosal_uart.c:119:19
	str	r2, [r5, #12]
	.loc	3 122 13                        @ ../../../components/platform/hosal/rt582_hosal/Src/hosal_uart.c:122:13
	cmp	r6, #1
	it	eq
	addeq	r2, #4
.Ltmp28:
	@DEBUG_VALUE: hosal_uart_init:cval <- $r2
	.loc	3 128 13                        @ ../../../components/platform/hosal/rt582_hosal/Src/hosal_uart.c:128:13
	and	r1, r3, #2
	orr.w	r1, r2, r1, lsl #2
.Ltmp29:
	@DEBUG_VALUE: hosal_uart_init:cval <- $r1
	.loc	3 132 13                        @ ../../../components/platform/hosal/rt582_hosal/Src/hosal_uart.c:132:13
	and	r2, r3, #1
	orr.w	r1, r1, r2, lsl #4
.Ltmp30:
	@DEBUG_VALUE: hosal_uart_init:cval <- [DW_OP_constu 16, DW_OP_xor, DW_OP_stack_value] $r1
	.loc	3 136 13                        @ ../../../components/platform/hosal/rt582_hosal/Src/hosal_uart.c:136:13
	and	r2, r3, #4
	orr.w	r1, r1, r2, lsl #3
.Ltmp31:
	eor	r1, r1, #16
.Ltmp32:
	@DEBUG_VALUE: hosal_uart_init:cval <- $r1
	.loc	3 141 19                        @ ../../../components/platform/hosal/rt582_hosal/Src/hosal_uart.c:141:19
	str	r1, [r5, #12]
	movs	r1, #135
.Ltmp33:
	.loc	3 143 19                        @ ../../../components/platform/hosal/rt582_hosal/Src/hosal_uart.c:143:19
	str	r0, [r5, #16]
	.loc	3 144 19                        @ ../../../components/platform/hosal/rt582_hosal/Src/hosal_uart.c:144:19
	str	r1, [r5, #8]
	.loc	3 146 24                        @ ../../../components/platform/hosal/rt582_hosal/Src/hosal_uart.c:146:24
	str	r0, [r5, #56]
	.loc	3 148 30                        @ ../../../components/platform/hosal/rt582_hosal/Src/hosal_uart.c:148:30
	str	r0, [r5, #64]
	.loc	3 149 30                        @ ../../../components/platform/hosal/rt582_hosal/Src/hosal_uart.c:149:30
	str	r0, [r5, #68]
	.loc	3 151 27                        @ ../../../components/platform/hosal/rt582_hosal/Src/hosal_uart.c:151:27
	str	r0, [r5, #44]
	.loc	3 152 27                        @ ../../../components/platform/hosal/rt582_hosal/Src/hosal_uart.c:152:27
	str	r0, [r5, #36]
	movs	r0, #3
	.loc	3 154 31                        @ ../../../components/platform/hosal/rt582_hosal/Src/hosal_uart.c:154:31
	str	r0, [r5, #60]
	.loc	3 156 45                        @ ../../../components/platform/hosal/rt582_hosal/Src/hosal_uart.c:156:45
	ldrb	r0, [r4, #4]
	movw	r3, #60692
	.loc	3 156 54 is_stmt 0              @ ../../../components/platform/hosal/rt582_hosal/Src/hosal_uart.c:156:54
	add.w	r0, r0, r0, lsl #2
	add.w	r0, r9, r0, lsl #3
	ldr	r0, [r0, #4]
.Ltmp34:
	@DEBUG_VALUE: __NVIC_SetPriority:priority <- 4
	@DEBUG_VALUE: __NVIC_SetPriority:IRQn <- $r0
	.loc	3 0 54                          @ ../../../components/platform/hosal/rt582_hosal/Src/hosal_uart.c:0:54
	movt	r3, #57344
.Ltmp35:
	.loc	6 1640 7 is_stmt 1              @ C:/Users\P350\AppData\Local\Arm\Packs\ARM\CMSIS\5.8.0\CMSIS\Core\Include\core_cm3.h:1640:7
	and	r2, r0, #15
	add.w	r1, r8, r0
	add	r2, r3
	cmp.w	r0, #-1
	mov.w	r0, #128
.Ltmp36:
	it	gt
	addgt.w	r2, r1, #640
.Ltmp37:
	.loc	6 0 0 is_stmt 0                 @ C:/Users\P350\AppData\Local\Arm\Packs\ARM\CMSIS\5.8.0\CMSIS\Core\Include\core_cm3.h:0:0
	strb	r0, [r2]
.Ltmp38:
	.loc	3 157 44 is_stmt 1              @ ../../../components/platform/hosal/rt582_hosal/Src/hosal_uart.c:157:44
	ldrb	r0, [r4, #4]
	.loc	3 157 53 is_stmt 0              @ ../../../components/platform/hosal/rt582_hosal/Src/hosal_uart.c:157:53
	add.w	r0, r0, r0, lsl #2
	add.w	r0, r9, r0, lsl #3
	ldr	r0, [r0, #4]
.Ltmp39:
	@DEBUG_VALUE: __NVIC_DisableIRQ:IRQn <- $r0
	.loc	6 1548 7 is_stmt 1              @ C:/Users\P350\AppData\Local\Arm\Packs\ARM\CMSIS\5.8.0\CMSIS\Core\Include\core_cm3.h:1548:7
	cmp	r0, #0
	bmi	.LBB1_4
.Ltmp40:
@ %bb.3:
	@DEBUG_VALUE: hosal_uart_init:uart <- $r5
	@DEBUG_VALUE: hosal_uart_init:cfg <- [DW_OP_plus_uconst 4, DW_OP_stack_value] $r4
	@DEBUG_VALUE: hosal_uart_init:uart_dev <- $r4
	@DEBUG_VALUE: __NVIC_DisableIRQ:IRQn <- $r0
	@DEBUG_VALUE: hosal_uart_init:rval <- 0
	.loc	6 1550 81                       @ C:/Users\P350\AppData\Local\Arm\Packs\ARM\CMSIS\5.8.0\CMSIS\Core\Include\core_cm3.h:1550:81
	and	r1, r0, #31
	movs	r2, #1
	.loc	6 1550 60 is_stmt 0             @ C:/Users\P350\AppData\Local\Arm\Packs\ARM\CMSIS\5.8.0\CMSIS\Core\Include\core_cm3.h:1550:60
	lsl.w	r1, r2, r1
	.loc	6 1550 34                       @ C:/Users\P350\AppData\Local\Arm\Packs\ARM\CMSIS\5.8.0\CMSIS\Core\Include\core_cm3.h:1550:34
	lsrs	r0, r0, #5
.Ltmp41:
	.loc	6 1550 43                       @ C:/Users\P350\AppData\Local\Arm\Packs\ARM\CMSIS\5.8.0\CMSIS\Core\Include\core_cm3.h:1550:43
	str.w	r1, [r8, r0, lsl #2]
	.loc	6 1551 5 is_stmt 1              @ C:/Users\P350\AppData\Local\Arm\Packs\ARM\CMSIS\5.8.0\CMSIS\Core\Include\core_cm3.h:1551:5
	dsb	sy
	.loc	6 1552 5                        @ C:/Users\P350\AppData\Local\Arm\Packs\ARM\CMSIS\5.8.0\CMSIS\Core\Include\core_cm3.h:1552:5
	isb	sy
.Ltmp42:
.LBB1_4:
	@DEBUG_VALUE: hosal_uart_init:uart <- $r5
	@DEBUG_VALUE: hosal_uart_init:cfg <- [DW_OP_plus_uconst 4, DW_OP_stack_value] $r4
	@DEBUG_VALUE: hosal_uart_init:uart_dev <- $r4
	@DEBUG_VALUE: hosal_uart_init:rval <- 0
	.loc	3 159 23                        @ ../../../components/platform/hosal/rt582_hosal/Src/hosal_uart.c:159:23
	ldr	r0, [r5]
	.loc	3 159 27 is_stmt 0              @ ../../../components/platform/hosal/rt582_hosal/Src/hosal_uart.c:159:27
	uxtb	r0, r0
.Ltmp43:
	@DEBUG_VALUE: hosal_uart_init:rval <- $r0
	.loc	3 163 5 is_stmt 1               @ ../../../components/platform/hosal/rt582_hosal/Src/hosal_uart.c:163:5
	add	sp, #4
	pop.w	{r4, r5, r6, r7, r8, r9, pc}
.Ltmp44:
.Lfunc_end1:
	.size	hosal_uart_init, .Lfunc_end1-hosal_uart_init
	.cfi_endproc
	.cantunwind
	.fnend
                                        @ -- End function
	.section	.text.hosal_uart_send,"ax",%progbits
	.hidden	hosal_uart_send                 @ -- Begin function hosal_uart_send
	.globl	hosal_uart_send
	.p2align	1
	.type	hosal_uart_send,%function
	.code	16                              @ @hosal_uart_send
	.thumb_func
hosal_uart_send:
.Lfunc_begin2:
	.loc	3 167 0                         @ ../../../components/platform/hosal/rt582_hosal/Src/hosal_uart.c:167:0
	.fnstart
	.cfi_startproc
@ %bb.0:
	@DEBUG_VALUE: hosal_uart_send:uart_dev <- $r0
	@DEBUG_VALUE: hosal_uart_send:data <- $r1
	@DEBUG_VALUE: hosal_uart_send:size <- $r2
	@DEBUG_VALUE: hosal_uart_send:cfg <- [DW_OP_plus_uconst 4, DW_OP_stack_value] $r0
	mov	r12, r2
.Ltmp45:
	@DEBUG_VALUE: hosal_uart_send:size <- $r12
	@DEBUG_VALUE: hosal_uart_send:data <- $r1
	@DEBUG_VALUE: hosal_uart_send:uart <- undef
	@DEBUG_VALUE: hosal_uart_send:i <- 0
	@DEBUG_VALUE: hosal_uart_send:cfg <- [DW_OP_plus_uconst 4, DW_OP_stack_value] $r0
	@DEBUG_VALUE: hosal_uart_send:uart_dev <- $r0
	.loc	3 172 5 prologue_end            @ ../../../components/platform/hosal/rt582_hosal/Src/hosal_uart.c:172:5
	cbz	r2, .LBB2_4
.Ltmp46:
@ %bb.1:
	@DEBUG_VALUE: hosal_uart_send:size <- $r12
	@DEBUG_VALUE: hosal_uart_send:data <- $r1
	@DEBUG_VALUE: hosal_uart_send:cfg <- [DW_OP_plus_uconst 4, DW_OP_stack_value] $r0
	@DEBUG_VALUE: hosal_uart_send:uart_dev <- $r0
	@DEBUG_VALUE: hosal_uart_send:i <- 0
	.loc	3 0 5 is_stmt 0                 @ ../../../components/platform/hosal/rt582_hosal/Src/hosal_uart.c:0:5
	ldrb	r0, [r0, #4]
.Ltmp47:
	@DEBUG_VALUE: hosal_uart_send:uart_dev <- [DW_OP_LLVM_entry_value 1] $r0
	movw	r3, :lower16:g_uart_handle
	add.w	r0, r0, r0, lsl #2
	movt	r3, :upper16:g_uart_handle
	ldr.w	r0, [r3, r0, lsl #3]
.Ltmp48:
	@DEBUG_VALUE: hosal_uart_send:uart <- $r0
	movs	r3, #0
.Ltmp49:
	@DEBUG_VALUE: hosal_uart_send:i <- $r3
	.p2align	2
.LBB2_2:                                @ =>This Inner Loop Header: Depth=1
	@DEBUG_VALUE: hosal_uart_send:size <- $r12
	@DEBUG_VALUE: hosal_uart_send:i <- $r3
	@DEBUG_VALUE: hosal_uart_send:data <- $r1
	@DEBUG_VALUE: hosal_uart_send:uart <- $r0
	@DEBUG_VALUE: hosal_uart_send:uart_dev <- [DW_OP_LLVM_entry_value 1] $r0
	.loc	3 174 18 is_stmt 1              @ ../../../components/platform/hosal/rt582_hosal/Src/hosal_uart.c:174:18
	ldr	r2, [r0, #20]
	.loc	3 174 9 is_stmt 0               @ ../../../components/platform/hosal/rt582_hosal/Src/hosal_uart.c:174:9
	lsls	r2, r2, #26
	bpl	.LBB2_2
.Ltmp50:
@ %bb.3:                                @   in Loop: Header=BB2_2 Depth=1
	@DEBUG_VALUE: hosal_uart_send:size <- $r12
	@DEBUG_VALUE: hosal_uart_send:i <- $r3
	@DEBUG_VALUE: hosal_uart_send:data <- $r1
	@DEBUG_VALUE: hosal_uart_send:uart <- $r0
	@DEBUG_VALUE: hosal_uart_send:uart_dev <- [DW_OP_LLVM_entry_value 1] $r0
	.loc	3 175 21 is_stmt 1              @ ../../../components/platform/hosal/rt582_hosal/Src/hosal_uart.c:175:21
	ldrb	r2, [r1, r3]
	.loc	3 176 10                        @ ../../../components/platform/hosal/rt582_hosal/Src/hosal_uart.c:176:10
	adds	r3, #1
.Ltmp51:
	@DEBUG_VALUE: hosal_uart_send:i <- $r3
	.loc	3 172 5                         @ ../../../components/platform/hosal/rt582_hosal/Src/hosal_uart.c:172:5
	cmp	r3, r12
.Ltmp52:
	.loc	3 175 19                        @ ../../../components/platform/hosal/rt582_hosal/Src/hosal_uart.c:175:19
	str	r2, [r0]
.Ltmp53:
	.loc	3 172 5                         @ ../../../components/platform/hosal/rt582_hosal/Src/hosal_uart.c:172:5
	bne	.LBB2_2
.Ltmp54:
.LBB2_4:
	@DEBUG_VALUE: hosal_uart_send:size <- $r12
	@DEBUG_VALUE: hosal_uart_send:data <- $r1
	.loc	3 179 5                         @ ../../../components/platform/hosal/rt582_hosal/Src/hosal_uart.c:179:5
	mov	r0, r12
	bx	lr
.Ltmp55:
.Lfunc_end2:
	.size	hosal_uart_send, .Lfunc_end2-hosal_uart_send
	.cfi_endproc
	.cantunwind
	.fnend
                                        @ -- End function
	.section	.text.hosal_uart_receive,"ax",%progbits
	.hidden	hosal_uart_receive              @ -- Begin function hosal_uart_receive
	.globl	hosal_uart_receive
	.p2align	1
	.type	hosal_uart_receive,%function
	.code	16                              @ @hosal_uart_receive
	.thumb_func
hosal_uart_receive:
.Lfunc_begin3:
	.loc	3 183 0                         @ ../../../components/platform/hosal/rt582_hosal/Src/hosal_uart.c:183:0
	.fnstart
	.cfi_startproc
@ %bb.0:
	@DEBUG_VALUE: hosal_uart_receive:uart_dev <- $r0
	@DEBUG_VALUE: hosal_uart_receive:data <- $r1
	@DEBUG_VALUE: hosal_uart_receive:data <- $r1
	@DEBUG_VALUE: hosal_uart_receive:expect_size <- $r2
	@DEBUG_VALUE: hosal_uart_receive:expect_size <- $r2
	@DEBUG_VALUE: hosal_uart_receive:cfg <- [DW_OP_plus_uconst 4, DW_OP_stack_value] $r0
	@DEBUG_VALUE: hosal_uart_receive:uart <- undef
	@DEBUG_VALUE: hosal_uart_receive:counter <- 0
	@DEBUG_VALUE: hosal_uart_receive:cfg <- [DW_OP_plus_uconst 4, DW_OP_stack_value] $r0
	@DEBUG_VALUE: hosal_uart_receive:uart_dev <- $r0
	.loc	3 190 5 prologue_end            @ ../../../components/platform/hosal/rt582_hosal/Src/hosal_uart.c:190:5
	cbz	r2, .LBB3_5
.Ltmp56:
@ %bb.1:
	@DEBUG_VALUE: hosal_uart_receive:expect_size <- $r2
	@DEBUG_VALUE: hosal_uart_receive:data <- $r1
	@DEBUG_VALUE: hosal_uart_receive:cfg <- [DW_OP_plus_uconst 4, DW_OP_stack_value] $r0
	@DEBUG_VALUE: hosal_uart_receive:uart_dev <- $r0
	@DEBUG_VALUE: hosal_uart_receive:counter <- 0
	.loc	3 0 5 is_stmt 0                 @ ../../../components/platform/hosal/rt582_hosal/Src/hosal_uart.c:0:5
	ldrb	r0, [r0, #4]
.Ltmp57:
	@DEBUG_VALUE: hosal_uart_receive:uart_dev <- [DW_OP_LLVM_entry_value 1] $r0
	movw	r3, :lower16:g_uart_handle
	add.w	r0, r0, r0, lsl #2
	movt	r3, :upper16:g_uart_handle
	ldr.w	r12, [r3, r0, lsl #3]
.Ltmp58:
	@DEBUG_VALUE: hosal_uart_receive:uart <- $r12
	movs	r0, #0
.Ltmp59:
	.p2align	2
.LBB3_2:                                @ =>This Inner Loop Header: Depth=1
	@DEBUG_VALUE: hosal_uart_receive:uart <- $r12
	@DEBUG_VALUE: hosal_uart_receive:expect_size <- $r2
	@DEBUG_VALUE: hosal_uart_receive:data <- $r1
	@DEBUG_VALUE: hosal_uart_receive:uart_dev <- [DW_OP_LLVM_entry_value 1] $r0
	@DEBUG_VALUE: hosal_uart_receive:counter <- $r0
	.loc	3 192 20 is_stmt 1              @ ../../../components/platform/hosal/rt582_hosal/Src/hosal_uart.c:192:20
	ldr.w	r3, [r12, #20]
.Ltmp60:
	.loc	3 192 14 is_stmt 0              @ ../../../components/platform/hosal/rt582_hosal/Src/hosal_uart.c:192:14
	lsls	r3, r3, #31
.Ltmp61:
	.loc	3 202 5 is_stmt 1               @ ../../../components/platform/hosal/rt582_hosal/Src/hosal_uart.c:202:5
	it	eq
	bxeq	lr
.Ltmp62:
.LBB3_3:                                @   in Loop: Header=BB3_2 Depth=1
	@DEBUG_VALUE: hosal_uart_receive:uart <- $r12
	@DEBUG_VALUE: hosal_uart_receive:expect_size <- $r2
	@DEBUG_VALUE: hosal_uart_receive:data <- $r1
	@DEBUG_VALUE: hosal_uart_receive:counter <- $r0
	@DEBUG_VALUE: hosal_uart_receive:uart_dev <- [DW_OP_LLVM_entry_value 1] $r0
	.loc	3 194 48                        @ ../../../components/platform/hosal/rt582_hosal/Src/hosal_uart.c:194:48
	ldr.w	r3, [r12]
	.loc	3 194 40 is_stmt 0              @ ../../../components/platform/hosal/rt582_hosal/Src/hosal_uart.c:194:40
	strb	r3, [r1, r0]
.Ltmp63:
	.loc	3 200 16 is_stmt 1              @ ../../../components/platform/hosal/rt582_hosal/Src/hosal_uart.c:200:16
	adds	r0, #1
.Ltmp64:
	@DEBUG_VALUE: hosal_uart_receive:counter <- $r0
	.loc	3 190 5                         @ ../../../components/platform/hosal/rt582_hosal/Src/hosal_uart.c:190:5
	cmp	r2, r0
	bne	.LBB3_2
.Ltmp65:
@ %bb.4:
	@DEBUG_VALUE: hosal_uart_receive:uart <- $r12
	@DEBUG_VALUE: hosal_uart_receive:expect_size <- $r2
	@DEBUG_VALUE: hosal_uart_receive:data <- $r1
	@DEBUG_VALUE: hosal_uart_receive:counter <- $r0
	@DEBUG_VALUE: hosal_uart_receive:uart_dev <- [DW_OP_LLVM_entry_value 1] $r0
	.loc	3 0 0 is_stmt 0                 @ ../../../components/platform/hosal/rt582_hosal/Src/hosal_uart.c:0:0
	mov	r0, r2
.Ltmp66:
	.loc	3 202 5 is_stmt 1               @ ../../../components/platform/hosal/rt582_hosal/Src/hosal_uart.c:202:5
	bx	lr
.Ltmp67:
.LBB3_5:
	@DEBUG_VALUE: hosal_uart_receive:expect_size <- $r2
	@DEBUG_VALUE: hosal_uart_receive:data <- $r1
	@DEBUG_VALUE: hosal_uart_receive:cfg <- [DW_OP_plus_uconst 4, DW_OP_stack_value] $r0
	@DEBUG_VALUE: hosal_uart_receive:uart_dev <- $r0
	@DEBUG_VALUE: hosal_uart_receive:counter <- 0
	.loc	3 0 5 is_stmt 0                 @ ../../../components/platform/hosal/rt582_hosal/Src/hosal_uart.c:0:5
	movs	r0, #0
.Ltmp68:
	@DEBUG_VALUE: hosal_uart_receive:uart_dev <- [DW_OP_LLVM_entry_value 1] $r0
	.loc	3 202 5                         @ ../../../components/platform/hosal/rt582_hosal/Src/hosal_uart.c:202:5
	bx	lr
.Ltmp69:
.Lfunc_end3:
	.size	hosal_uart_receive, .Lfunc_end3-hosal_uart_receive
	.cfi_endproc
	.cantunwind
	.fnend
                                        @ -- End function
	.section	.text.hosal_uart_ioctl,"ax",%progbits
	.hidden	hosal_uart_ioctl                @ -- Begin function hosal_uart_ioctl
	.globl	hosal_uart_ioctl
	.p2align	2
	.type	hosal_uart_ioctl,%function
	.code	16                              @ @hosal_uart_ioctl
	.thumb_func
hosal_uart_ioctl:
.Lfunc_begin4:
	.loc	3 207 0 is_stmt 1               @ ../../../components/platform/hosal/rt582_hosal/Src/hosal_uart.c:207:0
	.fnstart
	.cfi_startproc
@ %bb.0:
	@DEBUG_VALUE: hosal_uart_ioctl:uart_dev <- $r0
	@DEBUG_VALUE: hosal_uart_ioctl:uart_dev <- $r0
	@DEBUG_VALUE: hosal_uart_ioctl:ctl <- $r1
	@DEBUG_VALUE: hosal_uart_ioctl:ctl <- $r1
	@DEBUG_VALUE: hosal_uart_ioctl:p_arg <- $r2
	@DEBUG_VALUE: hosal_uart_ioctl:p_arg <- $r2
	.save	{r4, r5, r7, lr}
	push	{r4, r5, r7, lr}
	.cfi_def_cfa_offset 16
	.cfi_offset lr, -4
	.cfi_offset r7, -8
	.cfi_offset r5, -12
	.cfi_offset r4, -16
.Ltmp70:
	@DEBUG_VALUE: hosal_uart_ioctl:tmp <- 0
	@DEBUG_VALUE: hosal_uart_ioctl:uart <- undef
	.loc	3 213 5 prologue_end            @ ../../../components/platform/hosal/rt582_hosal/Src/hosal_uart.c:213:5
	subs	r3, r1, #1
	cmp	r3, #21
	mov.w	r1, #-1
.Ltmp71:
	@DEBUG_VALUE: hosal_uart_ioctl:ctl <- [DW_OP_LLVM_entry_value 1] $r1
	bhi.w	.LBB4_35
.Ltmp72:
@ %bb.1:
	@DEBUG_VALUE: hosal_uart_ioctl:p_arg <- $r2
	@DEBUG_VALUE: hosal_uart_ioctl:uart_dev <- $r0
	@DEBUG_VALUE: hosal_uart_ioctl:ctl <- [DW_OP_LLVM_entry_value 1] $r1
	@DEBUG_VALUE: hosal_uart_ioctl:tmp <- 0
	.loc	3 0 5 is_stmt 0                 @ ../../../components/platform/hosal/rt582_hosal/Src/hosal_uart.c:0:5
	ldrb	r4, [r0, #4]
	add.w	lr, r4, r4, lsl #2
	movw	r4, :lower16:g_uart_handle
	movt	r4, :upper16:g_uart_handle
	ldr.w	r12, [r4, lr, lsl #3]
.Ltmp73:
	@DEBUG_VALUE: hosal_uart_ioctl:uart <- $r12
.LCPI4_0:
	tbb	[pc, r3]
.Ltmp74:
@ %bb.2:
.LJTI4_0:
	.byte	(.LBB4_3-(.LCPI4_0+4))/2
	.byte	(.LBB4_6-(.LCPI4_0+4))/2
	.byte	(.LBB4_8-(.LCPI4_0+4))/2
	.byte	(.LBB4_9-(.LCPI4_0+4))/2
	.byte	(.LBB4_11-(.LCPI4_0+4))/2
	.byte	(.LBB4_12-(.LCPI4_0+4))/2
	.byte	(.LBB4_14-(.LCPI4_0+4))/2
	.byte	(.LBB4_15-(.LCPI4_0+4))/2
	.byte	(.LBB4_17-(.LCPI4_0+4))/2
	.byte	(.LBB4_18-(.LCPI4_0+4))/2
	.byte	(.LBB4_20-(.LCPI4_0+4))/2
	.byte	(.LBB4_26-(.LCPI4_0+4))/2
	.byte	(.LBB4_35-(.LCPI4_0+4))/2
	.byte	(.LBB4_35-(.LCPI4_0+4))/2
	.byte	(.LBB4_35-(.LCPI4_0+4))/2
	.byte	(.LBB4_34-(.LCPI4_0+4))/2
	.byte	(.LBB4_34-(.LCPI4_0+4))/2
	.byte	(.LBB4_29-(.LCPI4_0+4))/2
	.byte	(.LBB4_34-(.LCPI4_0+4))/2
	.byte	(.LBB4_30-(.LCPI4_0+4))/2
	.byte	(.LBB4_32-(.LCPI4_0+4))/2
	.byte	(.LBB4_4-(.LCPI4_0+4))/2
	.p2align	1
.LBB4_3:
.Ltmp75:
	@DEBUG_VALUE: hosal_uart_ioctl:uart <- $r12
	@DEBUG_VALUE: hosal_uart_ioctl:p_arg <- $r2
	@DEBUG_VALUE: hosal_uart_ioctl:uart_dev <- $r0
	@DEBUG_VALUE: hosal_uart_ioctl:ctl <- [DW_OP_LLVM_entry_value 1] $r1
	@DEBUG_VALUE: hosal_uart_ioctl:tmp <- 0
	.loc	3 216 36 is_stmt 1              @ ../../../components/platform/hosal/rt582_hosal/Src/hosal_uart.c:216:36
	str	r2, [r0, #12]
	b	.LBB4_34
.Ltmp76:
.LBB4_4:
	@DEBUG_VALUE: hosal_uart_ioctl:uart <- $r12
	@DEBUG_VALUE: hosal_uart_ioctl:p_arg <- $r2
	@DEBUG_VALUE: hosal_uart_ioctl:uart_dev <- $r0
	@DEBUG_VALUE: hosal_uart_ioctl:ctl <- [DW_OP_LLVM_entry_value 1] $r1
	@DEBUG_VALUE: hosal_uart_ioctl:tmp <- 0
	.loc	3 320 21                        @ ../../../components/platform/hosal/rt582_hosal/Src/hosal_uart.c:320:21
	ldr.w	r0, [r12, #4]
.Ltmp77:
	@DEBUG_VALUE: hosal_uart_ioctl:uart_dev <- [DW_OP_LLVM_entry_value 1] $r0
	@DEBUG_VALUE: hosal_uart_ioctl:tmp <- $r0
	.loc	3 0 21 is_stmt 0                @ ../../../components/platform/hosal/rt582_hosal/Src/hosal_uart.c:0:21
	movs	r1, #0
	.loc	3 321 19 is_stmt 1              @ ../../../components/platform/hosal/rt582_hosal/Src/hosal_uart.c:321:19
	str.w	r1, [r12, #4]
	.loc	3 322 19                        @ ../../../components/platform/hosal/rt582_hosal/Src/hosal_uart.c:322:19
	str.w	r1, [r12, #8]
	movs	r1, #6
	.loc	3 323 19                        @ ../../../components/platform/hosal/rt582_hosal/Src/hosal_uart.c:323:19
	str.w	r1, [r12, #8]
.Ltmp78:
.LBB4_5:
	@DEBUG_VALUE: hosal_uart_ioctl:uart <- $r12
	@DEBUG_VALUE: hosal_uart_ioctl:p_arg <- $r2
	@DEBUG_VALUE: hosal_uart_ioctl:uart_dev <- [DW_OP_LLVM_entry_value 1] $r0
	@DEBUG_VALUE: hosal_uart_ioctl:ctl <- [DW_OP_LLVM_entry_value 1] $r1
	.loc	3 0 0 is_stmt 0                 @ ../../../components/platform/hosal/rt582_hosal/Src/hosal_uart.c:0:0
	str.w	r0, [r12, #4]
	b	.LBB4_34
.Ltmp79:
.LBB4_6:
	@DEBUG_VALUE: hosal_uart_ioctl:uart <- $r12
	@DEBUG_VALUE: hosal_uart_ioctl:p_arg <- $r2
	@DEBUG_VALUE: hosal_uart_ioctl:uart_dev <- $r0
	@DEBUG_VALUE: hosal_uart_ioctl:ctl <- [DW_OP_LLVM_entry_value 1] $r1
	@DEBUG_VALUE: hosal_uart_ioctl:tmp <- 0
	.loc	3 219 13 is_stmt 1              @ ../../../components/platform/hosal/rt582_hosal/Src/hosal_uart.c:219:13
	cmp	r2, #0
	beq	.LBB4_34
.Ltmp80:
@ %bb.7:
	@DEBUG_VALUE: hosal_uart_ioctl:uart <- $r12
	@DEBUG_VALUE: hosal_uart_ioctl:p_arg <- $r2
	@DEBUG_VALUE: hosal_uart_ioctl:uart_dev <- $r0
	@DEBUG_VALUE: hosal_uart_ioctl:ctl <- [DW_OP_LLVM_entry_value 1] $r1
	@DEBUG_VALUE: hosal_uart_ioctl:tmp <- 0
	.loc	3 221 51                        @ ../../../components/platform/hosal/rt582_hosal/Src/hosal_uart.c:221:51
	ldr	r0, [r0, #12]
.Ltmp81:
	@DEBUG_VALUE: hosal_uart_ioctl:uart_dev <- [DW_OP_LLVM_entry_value 1] $r0
	.loc	3 0 51 is_stmt 0                @ ../../../components/platform/hosal/rt582_hosal/Src/hosal_uart.c:0:51
	b	.LBB4_28
.Ltmp82:
.LBB4_8:
	@DEBUG_VALUE: hosal_uart_ioctl:uart <- $r12
	@DEBUG_VALUE: hosal_uart_ioctl:p_arg <- $r2
	@DEBUG_VALUE: hosal_uart_ioctl:uart_dev <- $r0
	@DEBUG_VALUE: hosal_uart_ioctl:ctl <- [DW_OP_LLVM_entry_value 1] $r1
	@DEBUG_VALUE: hosal_uart_ioctl:tmp <- 0
	.loc	3 225 37 is_stmt 1              @ ../../../components/platform/hosal/rt582_hosal/Src/hosal_uart.c:225:37
	str	r2, [r0, #16]
	b	.LBB4_34
.Ltmp83:
.LBB4_9:
	@DEBUG_VALUE: hosal_uart_ioctl:uart <- $r12
	@DEBUG_VALUE: hosal_uart_ioctl:p_arg <- $r2
	@DEBUG_VALUE: hosal_uart_ioctl:uart_dev <- $r0
	@DEBUG_VALUE: hosal_uart_ioctl:ctl <- [DW_OP_LLVM_entry_value 1] $r1
	@DEBUG_VALUE: hosal_uart_ioctl:tmp <- 0
	.loc	3 228 13                        @ ../../../components/platform/hosal/rt582_hosal/Src/hosal_uart.c:228:13
	cmp	r2, #0
	beq	.LBB4_34
.Ltmp84:
@ %bb.10:
	@DEBUG_VALUE: hosal_uart_ioctl:uart <- $r12
	@DEBUG_VALUE: hosal_uart_ioctl:p_arg <- $r2
	@DEBUG_VALUE: hosal_uart_ioctl:uart_dev <- $r0
	@DEBUG_VALUE: hosal_uart_ioctl:ctl <- [DW_OP_LLVM_entry_value 1] $r1
	@DEBUG_VALUE: hosal_uart_ioctl:tmp <- 0
	.loc	3 230 64                        @ ../../../components/platform/hosal/rt582_hosal/Src/hosal_uart.c:230:64
	ldr	r0, [r0, #16]
.Ltmp85:
	@DEBUG_VALUE: hosal_uart_ioctl:uart_dev <- [DW_OP_LLVM_entry_value 1] $r0
	.loc	3 0 64 is_stmt 0                @ ../../../components/platform/hosal/rt582_hosal/Src/hosal_uart.c:0:64
	b	.LBB4_28
.Ltmp86:
.LBB4_11:
	@DEBUG_VALUE: hosal_uart_ioctl:uart <- $r12
	@DEBUG_VALUE: hosal_uart_ioctl:p_arg <- $r2
	@DEBUG_VALUE: hosal_uart_ioctl:uart_dev <- $r0
	@DEBUG_VALUE: hosal_uart_ioctl:ctl <- [DW_OP_LLVM_entry_value 1] $r1
	@DEBUG_VALUE: hosal_uart_ioctl:tmp <- 0
	.loc	3 234 36 is_stmt 1              @ ../../../components/platform/hosal/rt582_hosal/Src/hosal_uart.c:234:36
	str	r2, [r0, #24]
	b	.LBB4_34
.Ltmp87:
.LBB4_12:
	@DEBUG_VALUE: hosal_uart_ioctl:uart <- $r12
	@DEBUG_VALUE: hosal_uart_ioctl:p_arg <- $r2
	@DEBUG_VALUE: hosal_uart_ioctl:uart_dev <- $r0
	@DEBUG_VALUE: hosal_uart_ioctl:ctl <- [DW_OP_LLVM_entry_value 1] $r1
	@DEBUG_VALUE: hosal_uart_ioctl:tmp <- 0
	.loc	3 237 13                        @ ../../../components/platform/hosal/rt582_hosal/Src/hosal_uart.c:237:13
	cmp	r2, #0
	beq	.LBB4_34
.Ltmp88:
@ %bb.13:
	@DEBUG_VALUE: hosal_uart_ioctl:uart <- $r12
	@DEBUG_VALUE: hosal_uart_ioctl:p_arg <- $r2
	@DEBUG_VALUE: hosal_uart_ioctl:uart_dev <- $r0
	@DEBUG_VALUE: hosal_uart_ioctl:ctl <- [DW_OP_LLVM_entry_value 1] $r1
	@DEBUG_VALUE: hosal_uart_ioctl:tmp <- 0
	.loc	3 239 63                        @ ../../../components/platform/hosal/rt582_hosal/Src/hosal_uart.c:239:63
	ldr	r0, [r0, #24]
.Ltmp89:
	@DEBUG_VALUE: hosal_uart_ioctl:uart_dev <- [DW_OP_LLVM_entry_value 1] $r0
	.loc	3 0 63 is_stmt 0                @ ../../../components/platform/hosal/rt582_hosal/Src/hosal_uart.c:0:63
	b	.LBB4_28
.Ltmp90:
.LBB4_14:
	@DEBUG_VALUE: hosal_uart_ioctl:uart <- $r12
	@DEBUG_VALUE: hosal_uart_ioctl:p_arg <- $r2
	@DEBUG_VALUE: hosal_uart_ioctl:uart_dev <- $r0
	@DEBUG_VALUE: hosal_uart_ioctl:ctl <- [DW_OP_LLVM_entry_value 1] $r1
	@DEBUG_VALUE: hosal_uart_ioctl:tmp <- 0
	.loc	3 243 39 is_stmt 1              @ ../../../components/platform/hosal/rt582_hosal/Src/hosal_uart.c:243:39
	str	r2, [r0, #28]
	b	.LBB4_34
.Ltmp91:
.LBB4_15:
	@DEBUG_VALUE: hosal_uart_ioctl:uart <- $r12
	@DEBUG_VALUE: hosal_uart_ioctl:p_arg <- $r2
	@DEBUG_VALUE: hosal_uart_ioctl:uart_dev <- $r0
	@DEBUG_VALUE: hosal_uart_ioctl:ctl <- [DW_OP_LLVM_entry_value 1] $r1
	@DEBUG_VALUE: hosal_uart_ioctl:tmp <- 0
	.loc	3 246 13                        @ ../../../components/platform/hosal/rt582_hosal/Src/hosal_uart.c:246:13
	cmp	r2, #0
	beq	.LBB4_34
.Ltmp92:
@ %bb.16:
	@DEBUG_VALUE: hosal_uart_ioctl:uart <- $r12
	@DEBUG_VALUE: hosal_uart_ioctl:p_arg <- $r2
	@DEBUG_VALUE: hosal_uart_ioctl:uart_dev <- $r0
	@DEBUG_VALUE: hosal_uart_ioctl:ctl <- [DW_OP_LLVM_entry_value 1] $r1
	@DEBUG_VALUE: hosal_uart_ioctl:tmp <- 0
	.loc	3 248 60                        @ ../../../components/platform/hosal/rt582_hosal/Src/hosal_uart.c:248:60
	ldr	r0, [r0, #28]
.Ltmp93:
	@DEBUG_VALUE: hosal_uart_ioctl:uart_dev <- [DW_OP_LLVM_entry_value 1] $r0
	.loc	3 0 60 is_stmt 0                @ ../../../components/platform/hosal/rt582_hosal/Src/hosal_uart.c:0:60
	b	.LBB4_28
.Ltmp94:
.LBB4_17:
	@DEBUG_VALUE: hosal_uart_ioctl:uart <- $r12
	@DEBUG_VALUE: hosal_uart_ioctl:p_arg <- $r2
	@DEBUG_VALUE: hosal_uart_ioctl:uart_dev <- $r0
	@DEBUG_VALUE: hosal_uart_ioctl:ctl <- [DW_OP_LLVM_entry_value 1] $r1
	@DEBUG_VALUE: hosal_uart_ioctl:tmp <- 0
	.loc	3 252 33 is_stmt 1              @ ../../../components/platform/hosal/rt582_hosal/Src/hosal_uart.c:252:33
	str	r2, [r0, #20]
	b	.LBB4_34
.Ltmp95:
.LBB4_18:
	@DEBUG_VALUE: hosal_uart_ioctl:uart <- $r12
	@DEBUG_VALUE: hosal_uart_ioctl:p_arg <- $r2
	@DEBUG_VALUE: hosal_uart_ioctl:uart_dev <- $r0
	@DEBUG_VALUE: hosal_uart_ioctl:ctl <- [DW_OP_LLVM_entry_value 1] $r1
	@DEBUG_VALUE: hosal_uart_ioctl:tmp <- 0
	.loc	3 255 13                        @ ../../../components/platform/hosal/rt582_hosal/Src/hosal_uart.c:255:13
	cmp	r2, #0
	beq	.LBB4_34
.Ltmp96:
@ %bb.19:
	@DEBUG_VALUE: hosal_uart_ioctl:uart <- $r12
	@DEBUG_VALUE: hosal_uart_ioctl:p_arg <- $r2
	@DEBUG_VALUE: hosal_uart_ioctl:uart_dev <- $r0
	@DEBUG_VALUE: hosal_uart_ioctl:ctl <- [DW_OP_LLVM_entry_value 1] $r1
	@DEBUG_VALUE: hosal_uart_ioctl:tmp <- 0
	.loc	3 257 62                        @ ../../../components/platform/hosal/rt582_hosal/Src/hosal_uart.c:257:62
	ldr	r0, [r0, #20]
.Ltmp97:
	@DEBUG_VALUE: hosal_uart_ioctl:uart_dev <- [DW_OP_LLVM_entry_value 1] $r0
	.loc	3 0 62 is_stmt 0                @ ../../../components/platform/hosal/rt582_hosal/Src/hosal_uart.c:0:62
	b	.LBB4_28
.Ltmp98:
.LBB4_20:
	@DEBUG_VALUE: hosal_uart_ioctl:uart <- $r12
	@DEBUG_VALUE: hosal_uart_ioctl:p_arg <- $r2
	@DEBUG_VALUE: hosal_uart_ioctl:uart_dev <- $r0
	@DEBUG_VALUE: hosal_uart_ioctl:ctl <- [DW_OP_LLVM_entry_value 1] $r1
	@DEBUG_VALUE: hosal_uart_ioctl:tmp <- 0
	.loc	3 261 70 is_stmt 1              @ ../../../components/platform/hosal/rt582_hosal/Src/hosal_uart.c:261:70
	add.w	r1, r4, lr, lsl #3
	ldr	r1, [r1, #4]
.Ltmp99:
	@DEBUG_VALUE: __NVIC_ClearPendingIRQ:IRQn <- $r1
	.loc	6 1601 7                        @ C:/Users\P350\AppData\Local\Arm\Packs\ARM\CMSIS\5.8.0\CMSIS\Core\Include\core_cm3.h:1601:7
	cmp	r1, #0
	bmi	.LBB4_22
.Ltmp100:
@ %bb.21:
	@DEBUG_VALUE: hosal_uart_ioctl:uart <- $r12
	@DEBUG_VALUE: hosal_uart_ioctl:p_arg <- $r2
	@DEBUG_VALUE: __NVIC_ClearPendingIRQ:IRQn <- $r1
	@DEBUG_VALUE: hosal_uart_ioctl:uart_dev <- $r0
	@DEBUG_VALUE: hosal_uart_ioctl:ctl <- [DW_OP_LLVM_entry_value 1] $r1
	@DEBUG_VALUE: hosal_uart_ioctl:tmp <- 0
	.loc	6 1603 81                       @ C:/Users\P350\AppData\Local\Arm\Packs\ARM\CMSIS\5.8.0\CMSIS\Core\Include\core_cm3.h:1603:81
	and	r3, r1, #31
	movs	r5, #1
	movw	r4, #57600
	.loc	6 1603 60 is_stmt 0             @ C:/Users\P350\AppData\Local\Arm\Packs\ARM\CMSIS\5.8.0\CMSIS\Core\Include\core_cm3.h:1603:60
	lsl.w	r3, r5, r3
	.loc	6 1603 34                       @ C:/Users\P350\AppData\Local\Arm\Packs\ARM\CMSIS\5.8.0\CMSIS\Core\Include\core_cm3.h:1603:34
	lsrs	r5, r1, #5
	movt	r4, #57344
	.loc	6 1603 5                        @ C:/Users\P350\AppData\Local\Arm\Packs\ARM\CMSIS\5.8.0\CMSIS\Core\Include\core_cm3.h:1603:5
	add.w	r5, r4, r5, lsl #2
	.loc	6 1603 43                       @ C:/Users\P350\AppData\Local\Arm\Packs\ARM\CMSIS\5.8.0\CMSIS\Core\Include\core_cm3.h:1603:43
	str.w	r3, [r5, #384]
.Ltmp101:
.LBB4_22:
	@DEBUG_VALUE: hosal_uart_ioctl:uart <- $r12
	@DEBUG_VALUE: hosal_uart_ioctl:p_arg <- $r2
	@DEBUG_VALUE: hosal_uart_ioctl:uart_dev <- $r0
	@DEBUG_VALUE: hosal_uart_ioctl:ctl <- [DW_OP_LLVM_entry_value 1] $r1
	@DEBUG_VALUE: hosal_uart_ioctl:tmp <- 0
	.loc	6 0 43                          @ C:/Users\P350\AppData\Local\Arm\Packs\ARM\CMSIS\5.8.0\CMSIS\Core\Include\core_cm3.h:0:43
	movs	r3, #0
	.loc	3 265 13 is_stmt 1              @ ../../../components/platform/hosal/rt582_hosal/Src/hosal_uart.c:265:13
	cmp	r2, #3
	.loc	3 262 19                        @ ../../../components/platform/hosal/rt582_hosal/Src/hosal_uart.c:262:19
	str.w	r3, [r12, #4]
	.loc	3 263 31                        @ ../../../components/platform/hosal/rt582_hosal/Src/hosal_uart.c:263:31
	str	r2, [r0, #32]
	.loc	3 265 13                        @ ../../../components/platform/hosal/rt582_hosal/Src/hosal_uart.c:265:13
	bhi	.LBB4_34
.Ltmp102:
@ %bb.23:
	@DEBUG_VALUE: hosal_uart_ioctl:uart <- $r12
	@DEBUG_VALUE: hosal_uart_ioctl:p_arg <- $r2
	@DEBUG_VALUE: hosal_uart_ioctl:uart_dev <- $r0
	@DEBUG_VALUE: hosal_uart_ioctl:ctl <- [DW_OP_LLVM_entry_value 1] $r1
	@DEBUG_VALUE: hosal_uart_ioctl:tmp <- 0
	.loc	3 0 13 is_stmt 0                @ ../../../components/platform/hosal/rt582_hosal/Src/hosal_uart.c:0:13
	adr.w	r0, .LJTI4_1
.Ltmp103:
	@DEBUG_VALUE: hosal_uart_ioctl:uart_dev <- [DW_OP_LLVM_entry_value 1] $r0
.LCPI4_1:
	tbb	[pc, r2]
.Ltmp104:
@ %bb.24:
.LJTI4_1:
	.byte	(.LBB4_25-(.LCPI4_1+4))/2
	.byte	(.LBB4_36-(.LCPI4_1+4))/2
	.byte	(.LBB4_38-(.LCPI4_1+4))/2
	.byte	(.LBB4_40-(.LCPI4_1+4))/2
	.p2align	1
.LBB4_25:
.Ltmp105:
	@DEBUG_VALUE: hosal_uart_ioctl:uart <- $r12
	@DEBUG_VALUE: hosal_uart_ioctl:p_arg <- $r2
	@DEBUG_VALUE: hosal_uart_ioctl:uart_dev <- [DW_OP_LLVM_entry_value 1] $r0
	@DEBUG_VALUE: hosal_uart_ioctl:ctl <- [DW_OP_LLVM_entry_value 1] $r1
	@DEBUG_VALUE: hosal_uart_ioctl:tmp <- 0
	movs	r0, #0
	b	.LBB4_5
.Ltmp106:
.LBB4_26:
	@DEBUG_VALUE: hosal_uart_ioctl:uart <- $r12
	@DEBUG_VALUE: hosal_uart_ioctl:p_arg <- $r2
	@DEBUG_VALUE: hosal_uart_ioctl:uart_dev <- $r0
	@DEBUG_VALUE: hosal_uart_ioctl:ctl <- [DW_OP_LLVM_entry_value 1] $r1
	@DEBUG_VALUE: hosal_uart_ioctl:tmp <- 0
	.loc	3 287 13 is_stmt 1              @ ../../../components/platform/hosal/rt582_hosal/Src/hosal_uart.c:287:13
	cbz	r2, .LBB4_34
.Ltmp107:
@ %bb.27:
	@DEBUG_VALUE: hosal_uart_ioctl:uart <- $r12
	@DEBUG_VALUE: hosal_uart_ioctl:p_arg <- $r2
	@DEBUG_VALUE: hosal_uart_ioctl:uart_dev <- $r0
	@DEBUG_VALUE: hosal_uart_ioctl:ctl <- [DW_OP_LLVM_entry_value 1] $r1
	@DEBUG_VALUE: hosal_uart_ioctl:tmp <- 0
	.loc	3 289 60                        @ ../../../components/platform/hosal/rt582_hosal/Src/hosal_uart.c:289:60
	ldr	r0, [r0, #32]
.Ltmp108:
	@DEBUG_VALUE: hosal_uart_ioctl:uart_dev <- [DW_OP_LLVM_entry_value 1] $r0
.LBB4_28:
	@DEBUG_VALUE: hosal_uart_ioctl:uart <- $r12
	@DEBUG_VALUE: hosal_uart_ioctl:p_arg <- $r2
	@DEBUG_VALUE: hosal_uart_ioctl:uart_dev <- [DW_OP_LLVM_entry_value 1] $r0
	@DEBUG_VALUE: hosal_uart_ioctl:ctl <- [DW_OP_LLVM_entry_value 1] $r1
	@DEBUG_VALUE: hosal_uart_ioctl:tmp <- 0
	.loc	3 0 0 is_stmt 0                 @ ../../../components/platform/hosal/rt582_hosal/Src/hosal_uart.c:0:0
	str	r0, [r2]
	b	.LBB4_34
.Ltmp109:
.LBB4_29:
	@DEBUG_VALUE: hosal_uart_ioctl:uart <- $r12
	@DEBUG_VALUE: hosal_uart_ioctl:p_arg <- $r2
	@DEBUG_VALUE: hosal_uart_ioctl:uart_dev <- $r0
	@DEBUG_VALUE: hosal_uart_ioctl:ctl <- [DW_OP_LLVM_entry_value 1] $r1
	@DEBUG_VALUE: hosal_uart_ioctl:tmp <- 0
	@DEBUG_VALUE: hosal_uart_ioctl:dma_cfg <- $r2
	.loc	3 301 49 is_stmt 1              @ ../../../components/platform/hosal/rt582_hosal/Src/hosal_uart.c:301:49
	ldrd	r0, r1, [r2]
.Ltmp110:
	@DEBUG_VALUE: hosal_uart_ioctl:uart_dev <- [DW_OP_LLVM_entry_value 1] $r0
	.loc	3 301 28 is_stmt 0              @ ../../../components/platform/hosal/rt582_hosal/Src/hosal_uart.c:301:28
	str.w	r0, [r12, #40]
	movs	r0, #2
	.loc	3 302 27 is_stmt 1              @ ../../../components/platform/hosal/rt582_hosal/Src/hosal_uart.c:302:27
	str.w	r1, [r12, #44]
	.loc	3 303 24                        @ ../../../components/platform/hosal/rt582_hosal/Src/hosal_uart.c:303:24
	str.w	r0, [r12, #56]
	movs	r0, #1
	.loc	3 304 30                        @ ../../../components/platform/hosal/rt582_hosal/Src/hosal_uart.c:304:30
	str.w	r0, [r12, #68]
	b	.LBB4_34
.Ltmp111:
.LBB4_30:
	@DEBUG_VALUE: hosal_uart_ioctl:uart <- $r12
	@DEBUG_VALUE: hosal_uart_ioctl:p_arg <- $r2
	@DEBUG_VALUE: hosal_uart_ioctl:uart_dev <- $r0
	@DEBUG_VALUE: hosal_uart_ioctl:ctl <- [DW_OP_LLVM_entry_value 1] $r1
	@DEBUG_VALUE: hosal_uart_ioctl:tmp <- 0
	.loc	3 316 64                        @ ../../../components/platform/hosal/rt582_hosal/Src/hosal_uart.c:316:64
	add.w	r0, r4, lr, lsl #3
.Ltmp112:
	@DEBUG_VALUE: hosal_uart_ioctl:uart_dev <- [DW_OP_LLVM_entry_value 1] $r0
	ldr	r0, [r0, #4]
.Ltmp113:
	@DEBUG_VALUE: __NVIC_EnableIRQ:IRQn <- $r0
	.loc	6 1510 7                        @ C:/Users\P350\AppData\Local\Arm\Packs\ARM\CMSIS\5.8.0\CMSIS\Core\Include\core_cm3.h:1510:7
	cmp	r0, #0
	bmi	.LBB4_34
.Ltmp114:
@ %bb.31:
	@DEBUG_VALUE: hosal_uart_ioctl:uart <- $r12
	@DEBUG_VALUE: hosal_uart_ioctl:p_arg <- $r2
	@DEBUG_VALUE: __NVIC_EnableIRQ:IRQn <- $r0
	@DEBUG_VALUE: hosal_uart_ioctl:uart_dev <- [DW_OP_LLVM_entry_value 1] $r0
	@DEBUG_VALUE: hosal_uart_ioctl:ctl <- [DW_OP_LLVM_entry_value 1] $r1
	@DEBUG_VALUE: hosal_uart_ioctl:tmp <- 0
	.loc	6 1513 81                       @ C:/Users\P350\AppData\Local\Arm\Packs\ARM\CMSIS\5.8.0\CMSIS\Core\Include\core_cm3.h:1513:81
	and	r1, r0, #31
	movs	r2, #1
.Ltmp115:
	@DEBUG_VALUE: hosal_uart_ioctl:p_arg <- [DW_OP_LLVM_entry_value 1] $r2
	.loc	6 1513 60 is_stmt 0             @ C:/Users\P350\AppData\Local\Arm\Packs\ARM\CMSIS\5.8.0\CMSIS\Core\Include\core_cm3.h:1513:60
	lsl.w	r1, r2, r1
	movw	r2, #57600
	.loc	6 1513 34                       @ C:/Users\P350\AppData\Local\Arm\Packs\ARM\CMSIS\5.8.0\CMSIS\Core\Include\core_cm3.h:1513:34
	lsrs	r0, r0, #5
.Ltmp116:
	.loc	6 0 34                          @ C:/Users\P350\AppData\Local\Arm\Packs\ARM\CMSIS\5.8.0\CMSIS\Core\Include\core_cm3.h:0:34
	movt	r2, #57344
	.loc	6 1512 5 is_stmt 1              @ C:/Users\P350\AppData\Local\Arm\Packs\ARM\CMSIS\5.8.0\CMSIS\Core\Include\core_cm3.h:1512:5
	@APP
	@NO_APP
	.loc	6 1513 43                       @ C:/Users\P350\AppData\Local\Arm\Packs\ARM\CMSIS\5.8.0\CMSIS\Core\Include\core_cm3.h:1513:43
	str.w	r1, [r2, r0, lsl #2]
	.loc	6 1514 5                        @ C:/Users\P350\AppData\Local\Arm\Packs\ARM\CMSIS\5.8.0\CMSIS\Core\Include\core_cm3.h:1514:5
	@APP
	@NO_APP
	b	.LBB4_34
.Ltmp117:
.LBB4_32:
	@DEBUG_VALUE: hosal_uart_ioctl:uart <- $r12
	@DEBUG_VALUE: hosal_uart_ioctl:p_arg <- $r2
	@DEBUG_VALUE: hosal_uart_ioctl:uart_dev <- $r0
	@DEBUG_VALUE: hosal_uart_ioctl:ctl <- [DW_OP_LLVM_entry_value 1] $r1
	@DEBUG_VALUE: hosal_uart_ioctl:tmp <- 0
	.loc	3 312 65                        @ ../../../components/platform/hosal/rt582_hosal/Src/hosal_uart.c:312:65
	add.w	r0, r4, lr, lsl #3
.Ltmp118:
	@DEBUG_VALUE: hosal_uart_ioctl:uart_dev <- [DW_OP_LLVM_entry_value 1] $r0
	ldr	r0, [r0, #4]
.Ltmp119:
	@DEBUG_VALUE: __NVIC_DisableIRQ:IRQn <- $r0
	.loc	6 1548 7                        @ C:/Users\P350\AppData\Local\Arm\Packs\ARM\CMSIS\5.8.0\CMSIS\Core\Include\core_cm3.h:1548:7
	cmp	r0, #0
	bmi	.LBB4_34
.Ltmp120:
@ %bb.33:
	@DEBUG_VALUE: hosal_uart_ioctl:uart <- $r12
	@DEBUG_VALUE: hosal_uart_ioctl:p_arg <- $r2
	@DEBUG_VALUE: __NVIC_DisableIRQ:IRQn <- $r0
	@DEBUG_VALUE: hosal_uart_ioctl:uart_dev <- [DW_OP_LLVM_entry_value 1] $r0
	@DEBUG_VALUE: hosal_uart_ioctl:ctl <- [DW_OP_LLVM_entry_value 1] $r1
	@DEBUG_VALUE: hosal_uart_ioctl:tmp <- 0
	.loc	6 1550 81                       @ C:/Users\P350\AppData\Local\Arm\Packs\ARM\CMSIS\5.8.0\CMSIS\Core\Include\core_cm3.h:1550:81
	and	r1, r0, #31
	movs	r2, #1
.Ltmp121:
	@DEBUG_VALUE: hosal_uart_ioctl:p_arg <- [DW_OP_LLVM_entry_value 1] $r2
	.loc	6 1550 60 is_stmt 0             @ C:/Users\P350\AppData\Local\Arm\Packs\ARM\CMSIS\5.8.0\CMSIS\Core\Include\core_cm3.h:1550:60
	lsl.w	r1, r2, r1
	movw	r2, #57600
	.loc	6 1550 34                       @ C:/Users\P350\AppData\Local\Arm\Packs\ARM\CMSIS\5.8.0\CMSIS\Core\Include\core_cm3.h:1550:34
	lsrs	r0, r0, #5
.Ltmp122:
	.loc	6 0 34                          @ C:/Users\P350\AppData\Local\Arm\Packs\ARM\CMSIS\5.8.0\CMSIS\Core\Include\core_cm3.h:0:34
	movt	r2, #57344
	.loc	6 1550 5                        @ C:/Users\P350\AppData\Local\Arm\Packs\ARM\CMSIS\5.8.0\CMSIS\Core\Include\core_cm3.h:1550:5
	add.w	r0, r2, r0, lsl #2
	.loc	6 1550 43                       @ C:/Users\P350\AppData\Local\Arm\Packs\ARM\CMSIS\5.8.0\CMSIS\Core\Include\core_cm3.h:1550:43
	str.w	r1, [r0, #128]
	.loc	6 1551 5 is_stmt 1              @ C:/Users\P350\AppData\Local\Arm\Packs\ARM\CMSIS\5.8.0\CMSIS\Core\Include\core_cm3.h:1551:5
	dsb	sy
	.loc	6 1552 5                        @ C:/Users\P350\AppData\Local\Arm\Packs\ARM\CMSIS\5.8.0\CMSIS\Core\Include\core_cm3.h:1552:5
	isb	sy
.Ltmp123:
.LBB4_34:
	@DEBUG_VALUE: hosal_uart_ioctl:uart <- $r12
	@DEBUG_VALUE: hosal_uart_ioctl:ctl <- [DW_OP_LLVM_entry_value 1] $r1
	.loc	6 0 5 is_stmt 0                 @ C:/Users\P350\AppData\Local\Arm\Packs\ARM\CMSIS\5.8.0\CMSIS\Core\Include\core_cm3.h:0:5
	movs	r1, #0
.Ltmp124:
.LBB4_35:
	@DEBUG_VALUE: hosal_uart_ioctl:ctl <- [DW_OP_LLVM_entry_value 1] $r1
	.loc	3 330 1 is_stmt 1               @ ../../../components/platform/hosal/rt582_hosal/Src/hosal_uart.c:330:1
	mov	r0, r1
	pop	{r4, r5, r7, pc}
.Ltmp125:
.LBB4_36:
	@DEBUG_VALUE: hosal_uart_ioctl:uart <- $r12
	@DEBUG_VALUE: hosal_uart_ioctl:p_arg <- $r2
	@DEBUG_VALUE: hosal_uart_ioctl:uart_dev <- [DW_OP_LLVM_entry_value 1] $r0
	@DEBUG_VALUE: hosal_uart_ioctl:ctl <- [DW_OP_LLVM_entry_value 1] $r1
	@DEBUG_VALUE: hosal_uart_ioctl:tmp <- 0
	.loc	3 271 23                        @ ../../../components/platform/hosal/rt582_hosal/Src/hosal_uart.c:271:23
	ldr.w	r0, [r12, #4]
.Ltmp126:
	.loc	6 1510 7                        @ C:/Users\P350\AppData\Local\Arm\Packs\ARM\CMSIS\5.8.0\CMSIS\Core\Include\core_cm3.h:1510:7
	cmp	r1, #0
.Ltmp127:
	.loc	3 271 23                        @ ../../../components/platform/hosal/rt582_hosal/Src/hosal_uart.c:271:23
	orr	r0, r0, #2
	str.w	r0, [r12, #4]
.Ltmp128:
	@DEBUG_VALUE: __NVIC_EnableIRQ:IRQn <- $r1
	.loc	6 1510 7                        @ C:/Users\P350\AppData\Local\Arm\Packs\ARM\CMSIS\5.8.0\CMSIS\Core\Include\core_cm3.h:1510:7
	bmi	.LBB4_34
.Ltmp129:
@ %bb.37:
	@DEBUG_VALUE: hosal_uart_ioctl:uart <- $r12
	@DEBUG_VALUE: hosal_uart_ioctl:p_arg <- $r2
	@DEBUG_VALUE: __NVIC_EnableIRQ:IRQn <- $r1
	@DEBUG_VALUE: hosal_uart_ioctl:uart_dev <- [DW_OP_LLVM_entry_value 1] $r0
	@DEBUG_VALUE: hosal_uart_ioctl:ctl <- [DW_OP_LLVM_entry_value 1] $r1
	@DEBUG_VALUE: hosal_uart_ioctl:tmp <- 0
	.loc	6 1513 81                       @ C:/Users\P350\AppData\Local\Arm\Packs\ARM\CMSIS\5.8.0\CMSIS\Core\Include\core_cm3.h:1513:81
	and	r0, r1, #31
	movs	r2, #1
.Ltmp130:
	@DEBUG_VALUE: hosal_uart_ioctl:p_arg <- [DW_OP_LLVM_entry_value 1] $r2
	.loc	6 1513 60 is_stmt 0             @ C:/Users\P350\AppData\Local\Arm\Packs\ARM\CMSIS\5.8.0\CMSIS\Core\Include\core_cm3.h:1513:60
	lsl.w	r0, r2, r0
	movw	r2, #57600
	.loc	6 1513 34                       @ C:/Users\P350\AppData\Local\Arm\Packs\ARM\CMSIS\5.8.0\CMSIS\Core\Include\core_cm3.h:1513:34
	lsrs	r1, r1, #5
.Ltmp131:
	.loc	6 0 34                          @ C:/Users\P350\AppData\Local\Arm\Packs\ARM\CMSIS\5.8.0\CMSIS\Core\Include\core_cm3.h:0:34
	movt	r2, #57344
	.loc	6 1512 5 is_stmt 1              @ C:/Users\P350\AppData\Local\Arm\Packs\ARM\CMSIS\5.8.0\CMSIS\Core\Include\core_cm3.h:1512:5
	@APP
	@NO_APP
	.loc	6 1513 43                       @ C:/Users\P350\AppData\Local\Arm\Packs\ARM\CMSIS\5.8.0\CMSIS\Core\Include\core_cm3.h:1513:43
	str.w	r0, [r2, r1, lsl #2]
	.loc	6 1514 5                        @ C:/Users\P350\AppData\Local\Arm\Packs\ARM\CMSIS\5.8.0\CMSIS\Core\Include\core_cm3.h:1514:5
	@APP
	@NO_APP
	b	.LBB4_34
.Ltmp132:
.LBB4_38:
	@DEBUG_VALUE: hosal_uart_ioctl:uart <- $r12
	@DEBUG_VALUE: hosal_uart_ioctl:p_arg <- $r2
	@DEBUG_VALUE: hosal_uart_ioctl:uart_dev <- [DW_OP_LLVM_entry_value 1] $r0
	@DEBUG_VALUE: hosal_uart_ioctl:ctl <- [DW_OP_LLVM_entry_value 1] $r1
	@DEBUG_VALUE: hosal_uart_ioctl:tmp <- 0
	.loc	3 276 23                        @ ../../../components/platform/hosal/rt582_hosal/Src/hosal_uart.c:276:23
	ldr.w	r0, [r12, #4]
.Ltmp133:
	.loc	6 1510 7                        @ C:/Users\P350\AppData\Local\Arm\Packs\ARM\CMSIS\5.8.0\CMSIS\Core\Include\core_cm3.h:1510:7
	cmp	r1, #0
.Ltmp134:
	.loc	3 276 23                        @ ../../../components/platform/hosal/rt582_hosal/Src/hosal_uart.c:276:23
	orr	r0, r0, #1
	str.w	r0, [r12, #4]
.Ltmp135:
	@DEBUG_VALUE: __NVIC_EnableIRQ:IRQn <- $r1
	.loc	6 1510 7                        @ C:/Users\P350\AppData\Local\Arm\Packs\ARM\CMSIS\5.8.0\CMSIS\Core\Include\core_cm3.h:1510:7
	bmi	.LBB4_34
.Ltmp136:
@ %bb.39:
	@DEBUG_VALUE: hosal_uart_ioctl:uart <- $r12
	@DEBUG_VALUE: hosal_uart_ioctl:p_arg <- $r2
	@DEBUG_VALUE: __NVIC_EnableIRQ:IRQn <- $r1
	@DEBUG_VALUE: hosal_uart_ioctl:uart_dev <- [DW_OP_LLVM_entry_value 1] $r0
	@DEBUG_VALUE: hosal_uart_ioctl:ctl <- [DW_OP_LLVM_entry_value 1] $r1
	@DEBUG_VALUE: hosal_uart_ioctl:tmp <- 0
	.loc	6 1513 81                       @ C:/Users\P350\AppData\Local\Arm\Packs\ARM\CMSIS\5.8.0\CMSIS\Core\Include\core_cm3.h:1513:81
	and	r0, r1, #31
	movs	r2, #1
.Ltmp137:
	@DEBUG_VALUE: hosal_uart_ioctl:p_arg <- [DW_OP_LLVM_entry_value 1] $r2
	.loc	6 1513 60 is_stmt 0             @ C:/Users\P350\AppData\Local\Arm\Packs\ARM\CMSIS\5.8.0\CMSIS\Core\Include\core_cm3.h:1513:60
	lsl.w	r0, r2, r0
	movw	r2, #57600
	.loc	6 1513 34                       @ C:/Users\P350\AppData\Local\Arm\Packs\ARM\CMSIS\5.8.0\CMSIS\Core\Include\core_cm3.h:1513:34
	lsrs	r1, r1, #5
.Ltmp138:
	.loc	6 0 34                          @ C:/Users\P350\AppData\Local\Arm\Packs\ARM\CMSIS\5.8.0\CMSIS\Core\Include\core_cm3.h:0:34
	movt	r2, #57344
	.loc	6 1512 5 is_stmt 1              @ C:/Users\P350\AppData\Local\Arm\Packs\ARM\CMSIS\5.8.0\CMSIS\Core\Include\core_cm3.h:1512:5
	@APP
	@NO_APP
	.loc	6 1513 43                       @ C:/Users\P350\AppData\Local\Arm\Packs\ARM\CMSIS\5.8.0\CMSIS\Core\Include\core_cm3.h:1513:43
	str.w	r0, [r2, r1, lsl #2]
	.loc	6 1514 5                        @ C:/Users\P350\AppData\Local\Arm\Packs\ARM\CMSIS\5.8.0\CMSIS\Core\Include\core_cm3.h:1514:5
	@APP
	@NO_APP
	b	.LBB4_34
.Ltmp139:
.LBB4_40:
	@DEBUG_VALUE: hosal_uart_ioctl:uart <- $r12
	@DEBUG_VALUE: hosal_uart_ioctl:p_arg <- $r2
	@DEBUG_VALUE: hosal_uart_ioctl:uart_dev <- [DW_OP_LLVM_entry_value 1] $r0
	@DEBUG_VALUE: hosal_uart_ioctl:ctl <- [DW_OP_LLVM_entry_value 1] $r1
	@DEBUG_VALUE: hosal_uart_ioctl:tmp <- 0
	.loc	6 0 5 is_stmt 0                 @ C:/Users\P350\AppData\Local\Arm\Packs\ARM\CMSIS\5.8.0\CMSIS\Core\Include\core_cm3.h:0:5
	movs	r0, #3
.Ltmp140:
	.loc	6 1510 7 is_stmt 1              @ C:/Users\P350\AppData\Local\Arm\Packs\ARM\CMSIS\5.8.0\CMSIS\Core\Include\core_cm3.h:1510:7
	cmp	r1, #0
.Ltmp141:
	.loc	3 281 23                        @ ../../../components/platform/hosal/rt582_hosal/Src/hosal_uart.c:281:23
	str.w	r0, [r12, #4]
.Ltmp142:
	@DEBUG_VALUE: __NVIC_EnableIRQ:IRQn <- $r1
	.loc	6 1510 7                        @ C:/Users\P350\AppData\Local\Arm\Packs\ARM\CMSIS\5.8.0\CMSIS\Core\Include\core_cm3.h:1510:7
	bmi	.LBB4_34
.Ltmp143:
@ %bb.41:
	@DEBUG_VALUE: hosal_uart_ioctl:uart <- $r12
	@DEBUG_VALUE: hosal_uart_ioctl:p_arg <- $r2
	@DEBUG_VALUE: __NVIC_EnableIRQ:IRQn <- $r1
	@DEBUG_VALUE: hosal_uart_ioctl:uart_dev <- [DW_OP_LLVM_entry_value 1] $r0
	@DEBUG_VALUE: hosal_uart_ioctl:ctl <- [DW_OP_LLVM_entry_value 1] $r1
	@DEBUG_VALUE: hosal_uart_ioctl:tmp <- 0
	.loc	6 1513 81                       @ C:/Users\P350\AppData\Local\Arm\Packs\ARM\CMSIS\5.8.0\CMSIS\Core\Include\core_cm3.h:1513:81
	and	r0, r1, #31
	movs	r2, #1
.Ltmp144:
	@DEBUG_VALUE: hosal_uart_ioctl:p_arg <- [DW_OP_LLVM_entry_value 1] $r2
	.loc	6 1513 60 is_stmt 0             @ C:/Users\P350\AppData\Local\Arm\Packs\ARM\CMSIS\5.8.0\CMSIS\Core\Include\core_cm3.h:1513:60
	lsl.w	r0, r2, r0
	movw	r2, #57600
	.loc	6 1513 34                       @ C:/Users\P350\AppData\Local\Arm\Packs\ARM\CMSIS\5.8.0\CMSIS\Core\Include\core_cm3.h:1513:34
	lsrs	r1, r1, #5
.Ltmp145:
	.loc	6 0 34                          @ C:/Users\P350\AppData\Local\Arm\Packs\ARM\CMSIS\5.8.0\CMSIS\Core\Include\core_cm3.h:0:34
	movt	r2, #57344
	.loc	6 1512 5 is_stmt 1              @ C:/Users\P350\AppData\Local\Arm\Packs\ARM\CMSIS\5.8.0\CMSIS\Core\Include\core_cm3.h:1512:5
	@APP
	@NO_APP
	.loc	6 1513 43                       @ C:/Users\P350\AppData\Local\Arm\Packs\ARM\CMSIS\5.8.0\CMSIS\Core\Include\core_cm3.h:1513:43
	str.w	r0, [r2, r1, lsl #2]
	.loc	6 1514 5                        @ C:/Users\P350\AppData\Local\Arm\Packs\ARM\CMSIS\5.8.0\CMSIS\Core\Include\core_cm3.h:1514:5
	@APP
	@NO_APP
	b	.LBB4_34
.Ltmp146:
.Lfunc_end4:
	.size	hosal_uart_ioctl, .Lfunc_end4-hosal_uart_ioctl
	.cfi_endproc
	.cantunwind
	.fnend
                                        @ -- End function
	.section	.text.hosal_uart_callback_set,"ax",%progbits
	.hidden	hosal_uart_callback_set         @ -- Begin function hosal_uart_callback_set
	.globl	hosal_uart_callback_set
	.p2align	2
	.type	hosal_uart_callback_set,%function
	.code	16                              @ @hosal_uart_callback_set
	.thumb_func
hosal_uart_callback_set:
.Lfunc_begin5:
	.loc	3 336 0                         @ ../../../components/platform/hosal/rt582_hosal/Src/hosal_uart.c:336:0
	.fnstart
	.cfi_startproc
@ %bb.0:
	@DEBUG_VALUE: hosal_uart_callback_set:uart_dev <- $r0
	@DEBUG_VALUE: hosal_uart_callback_set:callback_type <- $r1
	@DEBUG_VALUE: hosal_uart_callback_set:callback_type <- $r1
	@DEBUG_VALUE: hosal_uart_callback_set:pfn_callback <- $r2
	@DEBUG_VALUE: hosal_uart_callback_set:pfn_callback <- $r2
	@DEBUG_VALUE: hosal_uart_callback_set:arg <- $r3
	@DEBUG_VALUE: hosal_uart_callback_set:arg <- $r3
	@DEBUG_VALUE: hosal_uart_callback_set:cfg <- [DW_OP_plus_uconst 4, DW_OP_stack_value] $r0
	.loc	3 341 9 prologue_end            @ ../../../components/platform/hosal/rt582_hosal/Src/hosal_uart.c:341:9
	sub.w	r12, r1, #1
	cmp.w	r12, #3
	@DEBUG_VALUE: hosal_uart_callback_set:cfg <- [DW_OP_plus_uconst 4, DW_OP_stack_value] $r0
	@DEBUG_VALUE: hosal_uart_callback_set:uart_dev <- $r0
	bhi	.LBB5_8
.Ltmp147:
@ %bb.1:
	@DEBUG_VALUE: hosal_uart_callback_set:arg <- $r3
	@DEBUG_VALUE: hosal_uart_callback_set:pfn_callback <- $r2
	@DEBUG_VALUE: hosal_uart_callback_set:callback_type <- $r1
	@DEBUG_VALUE: hosal_uart_callback_set:cfg <- [DW_OP_plus_uconst 4, DW_OP_stack_value] $r0
	@DEBUG_VALUE: hosal_uart_callback_set:uart_dev <- $r0
	.loc	3 0 9 is_stmt 0                 @ ../../../components/platform/hosal/rt582_hosal/Src/hosal_uart.c:0:9
	adr.w	r1, .LJTI5_0
.Ltmp148:
	@DEBUG_VALUE: hosal_uart_callback_set:callback_type <- [DW_OP_LLVM_entry_value 1] $r1
.LCPI5_0:
	tbb	[pc, r12]
.Ltmp149:
@ %bb.2:
.LJTI5_0:
	.byte	(.LBB5_3-(.LCPI5_0+4))/2
	.byte	(.LBB5_4-(.LCPI5_0+4))/2
	.byte	(.LBB5_5-(.LCPI5_0+4))/2
	.byte	(.LBB5_6-(.LCPI5_0+4))/2
	.p2align	1
.LBB5_3:
.Ltmp150:
	@DEBUG_VALUE: hosal_uart_callback_set:arg <- $r3
	@DEBUG_VALUE: hosal_uart_callback_set:pfn_callback <- $r2
	@DEBUG_VALUE: hosal_uart_callback_set:cfg <- [DW_OP_plus_uconst 4, DW_OP_stack_value] $r0
	@DEBUG_VALUE: hosal_uart_callback_set:uart_dev <- $r0
	@DEBUG_VALUE: hosal_uart_callback_set:callback_type <- [DW_OP_LLVM_entry_value 1] $r1
	.loc	3 345 28 is_stmt 1              @ ../../../components/platform/hosal/rt582_hosal/Src/hosal_uart.c:345:28
	ldrb	r1, [r0, #4]
	.loc	3 343 25                        @ ../../../components/platform/hosal/rt582_hosal/Src/hosal_uart.c:343:25
	str	r2, [r0, #36]
	.loc	3 344 28                        @ ../../../components/platform/hosal/rt582_hosal/Src/hosal_uart.c:344:28
	str	r3, [r0, #40]
	.loc	3 345 37                        @ ../../../components/platform/hosal/rt582_hosal/Src/hosal_uart.c:345:37
	add.w	r0, r1, r1, lsl #2
.Ltmp151:
	@DEBUG_VALUE: hosal_uart_callback_set:uart_dev <- [DW_OP_LLVM_entry_value 1] $r0
	movw	r1, :lower16:g_uart_handle
	movt	r1, :upper16:g_uart_handle
	add.w	r0, r1, r0, lsl #3
	.loc	3 345 43 is_stmt 0              @ ../../../components/platform/hosal/rt582_hosal/Src/hosal_uart.c:345:43
	str	r2, [r0, #16]
	.loc	3 346 37 is_stmt 1              @ ../../../components/platform/hosal/rt582_hosal/Src/hosal_uart.c:346:37
	adds	r0, #20
	b	.LBB5_7
.Ltmp152:
.LBB5_4:
	@DEBUG_VALUE: hosal_uart_callback_set:arg <- $r3
	@DEBUG_VALUE: hosal_uart_callback_set:pfn_callback <- $r2
	@DEBUG_VALUE: hosal_uart_callback_set:cfg <- [DW_OP_plus_uconst 4, DW_OP_stack_value] $r0
	@DEBUG_VALUE: hosal_uart_callback_set:uart_dev <- $r0
	@DEBUG_VALUE: hosal_uart_callback_set:callback_type <- [DW_OP_LLVM_entry_value 1] $r1
	.loc	3 353 28                        @ ../../../components/platform/hosal/rt582_hosal/Src/hosal_uart.c:353:28
	ldrb	r1, [r0, #4]
	.loc	3 351 25                        @ ../../../components/platform/hosal/rt582_hosal/Src/hosal_uart.c:351:25
	str	r2, [r0, #44]
	.loc	3 352 28                        @ ../../../components/platform/hosal/rt582_hosal/Src/hosal_uart.c:352:28
	str	r3, [r0, #48]
	.loc	3 353 37                        @ ../../../components/platform/hosal/rt582_hosal/Src/hosal_uart.c:353:37
	add.w	r0, r1, r1, lsl #2
.Ltmp153:
	@DEBUG_VALUE: hosal_uart_callback_set:uart_dev <- [DW_OP_LLVM_entry_value 1] $r0
	movw	r1, :lower16:g_uart_handle
	movt	r1, :upper16:g_uart_handle
	add.w	r0, r1, r0, lsl #3
	.loc	3 353 43 is_stmt 0              @ ../../../components/platform/hosal/rt582_hosal/Src/hosal_uart.c:353:43
	str	r2, [r0, #8]
	.loc	3 354 37 is_stmt 1              @ ../../../components/platform/hosal/rt582_hosal/Src/hosal_uart.c:354:37
	adds	r0, #12
	b	.LBB5_7
.Ltmp154:
.LBB5_5:
	@DEBUG_VALUE: hosal_uart_callback_set:arg <- $r3
	@DEBUG_VALUE: hosal_uart_callback_set:pfn_callback <- $r2
	@DEBUG_VALUE: hosal_uart_callback_set:cfg <- [DW_OP_plus_uconst 4, DW_OP_stack_value] $r0
	@DEBUG_VALUE: hosal_uart_callback_set:uart_dev <- $r0
	@DEBUG_VALUE: hosal_uart_callback_set:callback_type <- [DW_OP_LLVM_entry_value 1] $r1
	.loc	3 361 28                        @ ../../../components/platform/hosal/rt582_hosal/Src/hosal_uart.c:361:28
	ldrb	r1, [r0, #4]
	.loc	3 359 28                        @ ../../../components/platform/hosal/rt582_hosal/Src/hosal_uart.c:359:28
	str	r2, [r0, #52]
	.loc	3 360 31                        @ ../../../components/platform/hosal/rt582_hosal/Src/hosal_uart.c:360:31
	str	r3, [r0, #56]
	.loc	3 361 37                        @ ../../../components/platform/hosal/rt582_hosal/Src/hosal_uart.c:361:37
	add.w	r0, r1, r1, lsl #2
.Ltmp155:
	@DEBUG_VALUE: hosal_uart_callback_set:uart_dev <- [DW_OP_LLVM_entry_value 1] $r0
	movw	r1, :lower16:g_uart_handle
	movt	r1, :upper16:g_uart_handle
	add.w	r0, r1, r0, lsl #3
	.loc	3 361 46 is_stmt 0              @ ../../../components/platform/hosal/rt582_hosal/Src/hosal_uart.c:361:46
	str	r2, [r0, #32]
	.loc	3 362 37 is_stmt 1              @ ../../../components/platform/hosal/rt582_hosal/Src/hosal_uart.c:362:37
	adds	r0, #36
	b	.LBB5_7
.Ltmp156:
.LBB5_6:
	@DEBUG_VALUE: hosal_uart_callback_set:arg <- $r3
	@DEBUG_VALUE: hosal_uart_callback_set:pfn_callback <- $r2
	@DEBUG_VALUE: hosal_uart_callback_set:cfg <- [DW_OP_plus_uconst 4, DW_OP_stack_value] $r0
	@DEBUG_VALUE: hosal_uart_callback_set:uart_dev <- $r0
	@DEBUG_VALUE: hosal_uart_callback_set:callback_type <- [DW_OP_LLVM_entry_value 1] $r1
	.loc	3 369 28                        @ ../../../components/platform/hosal/rt582_hosal/Src/hosal_uart.c:369:28
	ldrb	r1, [r0, #4]
	.loc	3 367 28                        @ ../../../components/platform/hosal/rt582_hosal/Src/hosal_uart.c:367:28
	str	r2, [r0, #60]
	.loc	3 368 31                        @ ../../../components/platform/hosal/rt582_hosal/Src/hosal_uart.c:368:31
	str	r3, [r0, #64]
	.loc	3 369 37                        @ ../../../components/platform/hosal/rt582_hosal/Src/hosal_uart.c:369:37
	add.w	r0, r1, r1, lsl #2
.Ltmp157:
	@DEBUG_VALUE: hosal_uart_callback_set:uart_dev <- [DW_OP_LLVM_entry_value 1] $r0
	movw	r1, :lower16:g_uart_handle
	movt	r1, :upper16:g_uart_handle
	add.w	r0, r1, r0, lsl #3
	.loc	3 369 46 is_stmt 0              @ ../../../components/platform/hosal/rt582_hosal/Src/hosal_uart.c:369:46
	str	r2, [r0, #24]
	.loc	3 370 37 is_stmt 1              @ ../../../components/platform/hosal/rt582_hosal/Src/hosal_uart.c:370:37
	adds	r0, #28
.Ltmp158:
.LBB5_7:
	@DEBUG_VALUE: hosal_uart_callback_set:arg <- $r3
	@DEBUG_VALUE: hosal_uart_callback_set:pfn_callback <- $r2
	@DEBUG_VALUE: hosal_uart_callback_set:uart_dev <- [DW_OP_LLVM_entry_value 1] $r0
	@DEBUG_VALUE: hosal_uart_callback_set:callback_type <- [DW_OP_LLVM_entry_value 1] $r1
	.loc	3 0 0 is_stmt 0                 @ ../../../components/platform/hosal/rt582_hosal/Src/hosal_uart.c:0:0
	str	r3, [r0]
.Ltmp159:
.LBB5_8:
	@DEBUG_VALUE: hosal_uart_callback_set:arg <- $r3
	@DEBUG_VALUE: hosal_uart_callback_set:pfn_callback <- $r2
	.loc	3 373 5 is_stmt 1               @ ../../../components/platform/hosal/rt582_hosal/Src/hosal_uart.c:373:5
	movs	r0, #0
	bx	lr
.Ltmp160:
.Lfunc_end5:
	.size	hosal_uart_callback_set, .Lfunc_end5-hosal_uart_callback_set
	.cfi_endproc
	.cantunwind
	.fnend
                                        @ -- End function
	.section	.text.uart0_handler,"ax",%progbits
	.hidden	uart0_handler                   @ -- Begin function uart0_handler
	.globl	uart0_handler
	.p2align	1
	.type	uart0_handler,%function
	.code	16                              @ @uart0_handler
	.thumb_func
uart0_handler:
.Lfunc_begin6:
	.loc	3 421 0                         @ ../../../components/platform/hosal/rt582_hosal/Src/hosal_uart.c:421:0
	.fnstart
	.cfi_startproc
@ %bb.0:
	.save	{r7, lr}
	push	{r7, lr}
	.cfi_def_cfa_offset 8
	.cfi_offset lr, -4
	.cfi_offset r7, -8
.Ltmp161:
	.loc	3 422 5 prologue_end            @ ../../../components/platform/hosal/rt582_hosal/Src/hosal_uart.c:422:5
	movs	r0, #0
	bl	__uart_generic_notify_handler
.Ltmp162:
	.loc	3 0 5 is_stmt 0                 @ ../../../components/platform/hosal/rt582_hosal/Src/hosal_uart.c:0:5
	movw	r0, #57984
	movt	r0, #57344
	movs	r1, #16
.Ltmp163:
	@DEBUG_VALUE: __NVIC_ClearPendingIRQ:IRQn <- 4
	.loc	6 1603 43 is_stmt 1             @ C:/Users\P350\AppData\Local\Arm\Packs\ARM\CMSIS\5.8.0\CMSIS\Core\Include\core_cm3.h:1603:43
	str	r1, [r0]
.Ltmp164:
	.loc	3 424 1                         @ ../../../components/platform/hosal/rt582_hosal/Src/hosal_uart.c:424:1
	pop	{r7, pc}
.Ltmp165:
.Lfunc_end6:
	.size	uart0_handler, .Lfunc_end6-uart0_handler
	.cfi_endproc
	.cantunwind
	.fnend
                                        @ -- End function
	.section	.text.__uart_generic_notify_handler,"ax",%progbits
	.p2align	1                               @ -- Begin function __uart_generic_notify_handler
	.type	__uart_generic_notify_handler,%function
	.code	16                              @ @__uart_generic_notify_handler
	.thumb_func
__uart_generic_notify_handler:
.Lfunc_begin7:
	.loc	3 377 0                         @ ../../../components/platform/hosal/rt582_hosal/Src/hosal_uart.c:377:0
	.fnstart
	.cfi_startproc
@ %bb.0:
	@DEBUG_VALUE: __uart_generic_notify_handler:id <- $r0
	@DEBUG_VALUE: __uart_generic_notify_handler:id <- $r0
	.save	{r4, r5, r6, lr}
	push	{r4, r5, r6, lr}
	.cfi_def_cfa_offset 16
	.cfi_offset lr, -4
	.cfi_offset r6, -8
	.cfi_offset r5, -12
	.cfi_offset r4, -16
.Ltmp166:
	.loc	3 378 38 prologue_end           @ ../../../components/platform/hosal/rt582_hosal/Src/hosal_uart.c:378:38
	movw	r5, :lower16:g_uart_handle
	add.w	r4, r0, r0, lsl #2
	movt	r5, :upper16:g_uart_handle
	ldr.w	r6, [r5, r4, lsl #3]
.Ltmp167:
	@DEBUG_VALUE: __uart_generic_notify_handler:uart <- $r6
	.loc	3 381 19                        @ ../../../components/platform/hosal/rt582_hosal/Src/hosal_uart.c:381:19
	ldr	r0, [r6, #8]
.Ltmp168:
	@DEBUG_VALUE: __uart_generic_notify_handler:id <- [DW_OP_LLVM_entry_value 1] $r0
	@DEBUG_VALUE: __uart_generic_notify_handler:iir <- [DW_OP_constu 15, DW_OP_and, DW_OP_stack_value] $r0
	.loc	3 382 9                         @ ../../../components/platform/hosal/rt582_hosal/Src/hosal_uart.c:382:9
	lsls	r0, r0, #31
.Ltmp169:
	bne	.LBB7_7
.Ltmp170:
@ %bb.1:
	@DEBUG_VALUE: __uart_generic_notify_handler:uart <- $r6
	@DEBUG_VALUE: __uart_generic_notify_handler:id <- [DW_OP_LLVM_entry_value 1] $r0
	.loc	3 384 19                        @ ../../../components/platform/hosal/rt582_hosal/Src/hosal_uart.c:384:19
	ldr	r0, [r6, #20]
.Ltmp171:
	.loc	3 384 13 is_stmt 0              @ ../../../components/platform/hosal/rt582_hosal/Src/hosal_uart.c:384:13
	lsls	r0, r0, #31
	beq	.LBB7_4
.Ltmp172:
@ %bb.2:
	@DEBUG_VALUE: __uart_generic_notify_handler:uart <- $r6
	@DEBUG_VALUE: __uart_generic_notify_handler:id <- [DW_OP_LLVM_entry_value 1] $r0
	.loc	3 386 35 is_stmt 1              @ ../../../components/platform/hosal/rt582_hosal/Src/hosal_uart.c:386:35
	add.w	r0, r5, r4, lsl #3
	ldr	r1, [r0, #8]
.Ltmp173:
	.loc	3 386 17 is_stmt 0              @ ../../../components/platform/hosal/rt582_hosal/Src/hosal_uart.c:386:17
	cbz	r1, .LBB7_4
.Ltmp174:
@ %bb.3:
	@DEBUG_VALUE: __uart_generic_notify_handler:uart <- $r6
	@DEBUG_VALUE: __uart_generic_notify_handler:id <- [DW_OP_LLVM_entry_value 1] $r0
	.loc	3 388 59 is_stmt 1              @ ../../../components/platform/hosal/rt582_hosal/Src/hosal_uart.c:388:59
	ldr	r0, [r0, #12]
	.loc	3 388 17 is_stmt 0              @ ../../../components/platform/hosal/rt582_hosal/Src/hosal_uart.c:388:17
	blx	r1
.Ltmp175:
.LBB7_4:
	@DEBUG_VALUE: __uart_generic_notify_handler:uart <- $r6
	@DEBUG_VALUE: __uart_generic_notify_handler:id <- [DW_OP_LLVM_entry_value 1] $r0
	.loc	3 391 19 is_stmt 1              @ ../../../components/platform/hosal/rt582_hosal/Src/hosal_uart.c:391:19
	ldr	r0, [r6, #20]
.Ltmp176:
	.loc	3 391 13 is_stmt 0              @ ../../../components/platform/hosal/rt582_hosal/Src/hosal_uart.c:391:13
	lsls	r0, r0, #26
	bpl	.LBB7_7
.Ltmp177:
@ %bb.5:
	@DEBUG_VALUE: __uart_generic_notify_handler:uart <- $r6
	@DEBUG_VALUE: __uart_generic_notify_handler:id <- [DW_OP_LLVM_entry_value 1] $r0
	.loc	3 393 35 is_stmt 1              @ ../../../components/platform/hosal/rt582_hosal/Src/hosal_uart.c:393:35
	add.w	r0, r5, r4, lsl #3
	ldr	r1, [r0, #16]
.Ltmp178:
	.loc	3 393 17 is_stmt 0              @ ../../../components/platform/hosal/rt582_hosal/Src/hosal_uart.c:393:17
	cbz	r1, .LBB7_7
.Ltmp179:
@ %bb.6:
	@DEBUG_VALUE: __uart_generic_notify_handler:uart <- $r6
	@DEBUG_VALUE: __uart_generic_notify_handler:id <- [DW_OP_LLVM_entry_value 1] $r0
	.loc	3 395 59 is_stmt 1              @ ../../../components/platform/hosal/rt582_hosal/Src/hosal_uart.c:395:59
	ldr	r0, [r0, #20]
	.loc	3 395 17 is_stmt 0              @ ../../../components/platform/hosal/rt582_hosal/Src/hosal_uart.c:395:17
	blx	r1
.Ltmp180:
.LBB7_7:
	@DEBUG_VALUE: __uart_generic_notify_handler:uart <- $r6
	@DEBUG_VALUE: __uart_generic_notify_handler:id <- [DW_OP_LLVM_entry_value 1] $r0
	.loc	3 400 16 is_stmt 1              @ ../../../components/platform/hosal/rt582_hosal/Src/hosal_uart.c:400:16
	ldr	r0, [r6, #60]
.Ltmp181:
	.loc	3 400 9 is_stmt 0               @ ../../../components/platform/hosal/rt582_hosal/Src/hosal_uart.c:400:9
	lsls	r0, r0, #30
	bpl	.LBB7_10
.Ltmp182:
@ %bb.8:
	@DEBUG_VALUE: __uart_generic_notify_handler:uart <- $r6
	@DEBUG_VALUE: __uart_generic_notify_handler:id <- [DW_OP_LLVM_entry_value 1] $r0
	.loc	3 0 9                           @ ../../../components/platform/hosal/rt582_hosal/Src/hosal_uart.c:0:9
	movs	r0, #2
.Ltmp183:
	.loc	3 402 31 is_stmt 1              @ ../../../components/platform/hosal/rt582_hosal/Src/hosal_uart.c:402:31
	str	r0, [r6, #60]
	movs	r0, #0
	.loc	3 403 30                        @ ../../../components/platform/hosal/rt582_hosal/Src/hosal_uart.c:403:30
	str	r0, [r6, #68]
.Ltmp184:
	.loc	3 404 31                        @ ../../../components/platform/hosal/rt582_hosal/Src/hosal_uart.c:404:31
	add.w	r0, r5, r4, lsl #3
	ldr	r1, [r0, #32]
.Ltmp185:
	.loc	3 404 13 is_stmt 0              @ ../../../components/platform/hosal/rt582_hosal/Src/hosal_uart.c:404:13
	cbz	r1, .LBB7_10
.Ltmp186:
@ %bb.9:
	@DEBUG_VALUE: __uart_generic_notify_handler:uart <- $r6
	@DEBUG_VALUE: __uart_generic_notify_handler:id <- [DW_OP_LLVM_entry_value 1] $r0
	.loc	3 406 58 is_stmt 1              @ ../../../components/platform/hosal/rt582_hosal/Src/hosal_uart.c:406:58
	ldr	r0, [r0, #36]
	.loc	3 406 13 is_stmt 0              @ ../../../components/platform/hosal/rt582_hosal/Src/hosal_uart.c:406:13
	blx	r1
.Ltmp187:
.LBB7_10:
	@DEBUG_VALUE: __uart_generic_notify_handler:uart <- $r6
	@DEBUG_VALUE: __uart_generic_notify_handler:id <- [DW_OP_LLVM_entry_value 1] $r0
	.loc	3 409 16 is_stmt 1              @ ../../../components/platform/hosal/rt582_hosal/Src/hosal_uart.c:409:16
	ldr	r0, [r6, #60]
.Ltmp188:
	.loc	3 409 9 is_stmt 0               @ ../../../components/platform/hosal/rt582_hosal/Src/hosal_uart.c:409:9
	lsls	r0, r0, #31
	.loc	3 418 1 is_stmt 1               @ ../../../components/platform/hosal/rt582_hosal/Src/hosal_uart.c:418:1
	it	eq
	popeq	{r4, r5, r6, pc}
.Ltmp189:
.LBB7_11:
	@DEBUG_VALUE: __uart_generic_notify_handler:id <- [DW_OP_LLVM_entry_value 1] $r0
	.loc	3 0 1 is_stmt 0                 @ ../../../components/platform/hosal/rt582_hosal/Src/hosal_uart.c:0:1
	movs	r0, #1
.Ltmp190:
	.loc	3 411 31 is_stmt 1              @ ../../../components/platform/hosal/rt582_hosal/Src/hosal_uart.c:411:31
	str	r0, [r6, #60]
	movs	r0, #0
	.loc	3 412 30                        @ ../../../components/platform/hosal/rt582_hosal/Src/hosal_uart.c:412:30
	str	r0, [r6, #68]
.Ltmp191:
	.loc	3 413 31                        @ ../../../components/platform/hosal/rt582_hosal/Src/hosal_uart.c:413:31
	add.w	r0, r5, r4, lsl #3
	ldr	r1, [r0, #24]
.Ltmp192:
	.loc	3 413 13 is_stmt 0              @ ../../../components/platform/hosal/rt582_hosal/Src/hosal_uart.c:413:13
	cbz	r1, .LBB7_13
.Ltmp193:
@ %bb.12:
	@DEBUG_VALUE: __uart_generic_notify_handler:id <- [DW_OP_LLVM_entry_value 1] $r0
	.loc	3 415 58 is_stmt 1              @ ../../../components/platform/hosal/rt582_hosal/Src/hosal_uart.c:415:58
	ldr	r0, [r0, #28]
	.loc	3 415 13 is_stmt 0              @ ../../../components/platform/hosal/rt582_hosal/Src/hosal_uart.c:415:13
	pop.w	{r4, r5, r6, lr}
.Ltmp194:
	bx	r1
.Ltmp195:
.LBB7_13:
	@DEBUG_VALUE: __uart_generic_notify_handler:id <- [DW_OP_LLVM_entry_value 1] $r0
	.loc	3 418 1 is_stmt 1               @ ../../../components/platform/hosal/rt582_hosal/Src/hosal_uart.c:418:1
	pop	{r4, r5, r6, pc}
.Ltmp196:
.Lfunc_end7:
	.size	__uart_generic_notify_handler, .Lfunc_end7-__uart_generic_notify_handler
	.cfi_endproc
	.cantunwind
	.fnend
                                        @ -- End function
	.section	.text.uart1_handler,"ax",%progbits
	.hidden	uart1_handler                   @ -- Begin function uart1_handler
	.globl	uart1_handler
	.p2align	1
	.type	uart1_handler,%function
	.code	16                              @ @uart1_handler
	.thumb_func
uart1_handler:
.Lfunc_begin8:
	.loc	3 427 0                         @ ../../../components/platform/hosal/rt582_hosal/Src/hosal_uart.c:427:0
	.fnstart
	.cfi_startproc
@ %bb.0:
	.save	{r7, lr}
	push	{r7, lr}
	.cfi_def_cfa_offset 8
	.cfi_offset lr, -4
	.cfi_offset r7, -8
.Ltmp197:
	.loc	3 428 5 prologue_end            @ ../../../components/platform/hosal/rt582_hosal/Src/hosal_uart.c:428:5
	movs	r0, #1
	bl	__uart_generic_notify_handler
.Ltmp198:
	.loc	3 0 5 is_stmt 0                 @ ../../../components/platform/hosal/rt582_hosal/Src/hosal_uart.c:0:5
	movw	r0, #57984
	movt	r0, #57344
	movs	r1, #128
.Ltmp199:
	@DEBUG_VALUE: __NVIC_ClearPendingIRQ:IRQn <- 7
	.loc	6 1603 43 is_stmt 1             @ C:/Users\P350\AppData\Local\Arm\Packs\ARM\CMSIS\5.8.0\CMSIS\Core\Include\core_cm3.h:1603:43
	str	r1, [r0]
.Ltmp200:
	.loc	3 430 1                         @ ../../../components/platform/hosal/rt582_hosal/Src/hosal_uart.c:430:1
	pop	{r7, pc}
.Ltmp201:
.Lfunc_end8:
	.size	uart1_handler, .Lfunc_end8-uart1_handler
	.cfi_endproc
	.cantunwind
	.fnend
                                        @ -- End function
	.section	.text.uart2_handler,"ax",%progbits
	.hidden	uart2_handler                   @ -- Begin function uart2_handler
	.globl	uart2_handler
	.p2align	1
	.type	uart2_handler,%function
	.code	16                              @ @uart2_handler
	.thumb_func
uart2_handler:
.Lfunc_begin9:
	.loc	3 432 0                         @ ../../../components/platform/hosal/rt582_hosal/Src/hosal_uart.c:432:0
	.fnstart
	.cfi_startproc
@ %bb.0:
	.save	{r7, lr}
	push	{r7, lr}
	.cfi_def_cfa_offset 8
	.cfi_offset lr, -4
	.cfi_offset r7, -8
.Ltmp202:
	.loc	3 433 5 prologue_end            @ ../../../components/platform/hosal/rt582_hosal/Src/hosal_uart.c:433:5
	movs	r0, #2
	bl	__uart_generic_notify_handler
.Ltmp203:
	.loc	3 0 5 is_stmt 0                 @ ../../../components/platform/hosal/rt582_hosal/Src/hosal_uart.c:0:5
	movw	r0, #57984
	movt	r0, #57344
	mov.w	r1, #524288
.Ltmp204:
	@DEBUG_VALUE: __NVIC_ClearPendingIRQ:IRQn <- 19
	.loc	6 1603 43 is_stmt 1             @ C:/Users\P350\AppData\Local\Arm\Packs\ARM\CMSIS\5.8.0\CMSIS\Core\Include\core_cm3.h:1603:43
	str	r1, [r0]
.Ltmp205:
	.loc	3 435 1                         @ ../../../components/platform/hosal/rt582_hosal/Src/hosal_uart.c:435:1
	pop	{r7, pc}
.Ltmp206:
.Lfunc_end9:
	.size	uart2_handler, .Lfunc_end9-uart2_handler
	.cfi_endproc
	.cantunwind
	.fnend
                                        @ -- End function
	.type	g_uart_handle,%object           @ @g_uart_handle
	.section	.data.g_uart_handle,"aw",%progbits
	.p2align	2
g_uart_handle:
	.long	2684354560
	.long	4                               @ 0x4
	.long	0
	.long	0
	.long	0
	.long	0
	.long	0
	.long	0
	.long	0
	.long	0
	.long	2689597440
	.long	7                               @ 0x7
	.long	0
	.long	0
	.long	0
	.long	0
	.long	0
	.long	0
	.long	0
	.long	0
	.long	2690646016
	.long	19                              @ 0x13
	.long	0
	.long	0
	.long	0
	.long	0
	.long	0
	.long	0
	.long	0
	.long	0
	.size	g_uart_handle, 120

	.section	".note.GNU-stack","",%progbits
	.eabi_attribute	30, 3	@ Tag_ABI_optimization_goals
	.ARM_attribute	16, 1	@ Tag_AV_eba