	.text
	.syntax unified
	.eabi_attribute	67, "2.09"	@ Tag_conformance
	.cpu	cortex-m3
	.eabi_attribute	6, 10	@ Tag_CPU_arch
	.eabi_attribute	7, 77	@ Tag_CPU_arch_profile
	.eabi_attribute	8, 0	@ Tag_ARM_ISA_use
	.eabi_attribute	9, 2	@ Tag_THUMB_ISA_use
	.eabi_attribute	34, 1	@ Tag_CPU_unaligned_access
	.eabi_attribute	17, 1	@ Tag_ABI_PCS_GOT_use
	.eabi_attribute	20, 2	@ Tag_ABI_FP_denormal
	.eabi_attribute	21, 0	@ Tag_ABI_FP_exceptions
	.eabi_attribute	23, 1	@ Tag_ABI_FP_number_model
	.eabi_attribute	24, 1	@ Tag_ABI_align_needed
	.eabi_attribute	25, 1	@ Tag_ABI_align_preserved
	.eabi_attribute	38, 1	@ Tag_ABI_FP_16bit_format
	.eabi_attribute	18, 4	@ Tag_ABI_PCS_wchar_t
	.eabi_attribute	26, 2	@ Tag_ABI_enum_size
	.eabi_attribute	14, 0	@ Tag_ABI_PCS_R9_use
	.file	"ip6_headers.cpp"
	.file	1 "D:\\20240115\\rafael-iot-sdk-das\\examples\\das_subg_thread\\keil" "../../../components/network/thread/subg_openthread/include\\openthread/error.h"
	.file	2 "D:\\20240115\\rafael-iot-sdk-das\\examples\\das_subg_thread\\keil" "../../../components/network/thread/subg_openthread/src/core\\common/error.hpp"
	.file	3 "D:\\20240115\\rafael-iot-sdk-das\\examples\\das_subg_thread\\keil" "../../../components/network/thread/subg_openthread/src/core\\common/clearable.hpp"
	.file	4 "C:\\Keil_v5\\ARM\\ARMCLANG\\Bin\\..\\include" "stdint.h"
	.file	5 "D:\\20240115\\rafael-iot-sdk-das\\examples\\das_subg_thread\\keil" "../../../components/network/thread/subg_openthread/src/core\\net/ip6_headers.hpp"
	.file	6 "D:\\20240115\\rafael-iot-sdk-das\\examples\\das_subg_thread\\keil" "../../../components/network/thread/subg_openthread/include\\openthread/ip6.h"
	.file	7 "D:\\20240115\\rafael-iot-sdk-das\\examples\\das_subg_thread\\keil" "../../../components/network/thread/subg_openthread/src/core\\common/equatable.hpp"
	.file	8 "D:\\20240115\\rafael-iot-sdk-das\\examples\\das_subg_thread\\keil" "../../../components/network/thread/subg_openthread/src/core\\net/ip6_address.hpp"
	.file	9 "D:\\20240115\\rafael-iot-sdk-das\\examples\\das_subg_thread\\keil" "../../../components/network/thread/subg_openthread/include\\openthread/platform/radio.h"
	.file	10 "D:\\20240115\\rafael-iot-sdk-das\\examples\\das_subg_thread\\keil" "../../../components/network/thread/subg_openthread/src/core\\mac/mac_types.hpp"
	.file	11 "D:\\20240115\\rafael-iot-sdk-das\\examples\\das_subg_thread\\keil" "../../../components/network/thread/subg_openthread/src/core\\common/string.hpp"
	.file	12 "C:\\Keil_v5\\ARM\\ARMCLANG\\Bin\\..\\include" "stdarg.h"
	.file	13 "D:\\20240115\\rafael-iot-sdk-das\\examples\\das_subg_thread\\keil" "../../../components/network/thread/subg_openthread/src/core\\net/ip6_types.hpp"
	.file	14 "D:\\20240115\\rafael-iot-sdk-das\\examples\\das_subg_thread\\keil" "../../../components/network/thread/subg_openthread/src/core\\common/message.hpp"
	.file	15 "D:\\20240115\\rafael-iot-sdk-das\\examples\\das_subg_thread\\keil" "../../../components/network/thread/subg_openthread/include\\openthread/message.h"
	.file	16 "D:\\20240115\\rafael-iot-sdk-das\\examples\\das_subg_thread\\keil" "../../../components/network/thread/subg_openthread/include\\openthread/platform/messagepool.h"
	.file	17 "D:\\20240115\\rafael-iot-sdk-das\\examples\\das_subg_thread\\keil" "../../../components/network/thread/subg_openthread/src/core\\common/linked_list.hpp"
	.file	18 "D:\\20240115\\rafael-iot-sdk-das\\examples\\das_subg_thread\\keil" "../../../components/network/thread/subg_openthread/src/core\\common/locator.hpp"
	.file	19 "D:\\20240115\\rafael-iot-sdk-das\\examples\\das_subg_thread\\keil" "../../../components/network/thread/subg_openthread/src/core\\common/non_copyable.hpp"
	.file	20 "D:\\20240115\\rafael-iot-sdk-das\\examples\\das_subg_thread\\keil" "../../../components/network/thread/subg_openthread/src/core\\common/pool.hpp"
	.file	21 "D:\\20240115\\rafael-iot-sdk-das\\examples\\das_subg_thread\\keil" "../../../components/network/thread/subg_openthread/src/core\\common/time.hpp"
	.file	22 "D:\\20240115\\rafael-iot-sdk-das\\examples\\das_subg_thread\\keil" "../../../components/network/thread/subg_openthread/src/core\\thread/link_quality.hpp"
	.file	23 "D:\\20240115\\rafael-iot-sdk-das\\examples\\das_subg_thread\\keil" "../../../components/network/thread/subg_openthread/src/core\\common/bit_vector.hpp"
	.file	24 "D:\\20240115\\rafael-iot-sdk-das\\examples\\das_subg_thread\\keil" "../../../components/network/thread/subg_openthread/src/core\\thread/child_mask.hpp"
	.file	25 "D:\\20240115\\rafael-iot-sdk-das\\examples\\das_subg_thread\\keil" "../../../components/network/thread/subg_openthread/src/core\\common/data.hpp"
	.file	26 "D:\\20240115\\rafael-iot-sdk-das\\examples\\das_subg_thread\\keil" "../../../components/network/thread/subg_openthread/src/core\\common/iterator_utils.hpp"
	.file	27 "D:\\20240115\\rafael-iot-sdk-das\\examples\\das_subg_thread\\keil" "../../../components/network/thread/subg_openthread/src/core\\common/type_traits.hpp"
	.file	28 "D:\\20240115\\rafael-iot-sdk-das\\examples\\das_subg_thread\\keil" "../../../components/network/thread/subg_openthread/src/core/net/ip6_headers.cpp"
	.file	29 "C:\\Keil_v5\\ARM\\ARMCLANG\\Bin\\..\\include" "stddef.h"
	.file	30 "C:\\Keil_v5\\ARM\\ARMCLANG\\Bin\\..\\include\\libcxx" "__nullptr"
	.file	31 "C:\\Keil_v5\\ARM\\ARMCLANG\\Bin\\..\\include\\libcxx" "stddef.h"
	.file	32 "C:\\Keil_v5\\ARM\\ARMCLANG\\Bin\\..\\include" "string.h"
	.file	33 "C:\\Keil_v5\\ARM\\ARMCLANG\\Bin\\..\\include" "stdlib.h"
	.file	34 "C:\\Keil_v5\\ARM\\ARMCLANG\\Bin\\..\\include" "ctype.h"
	.file	35 "C:\\Keil_v5\\ARM\\ARMCLANG\\Bin\\..\\include" "stdio.h"
	.file	36 "D:\\20240115\\rafael-iot-sdk-das\\examples\\das_subg_thread\\keil" "../../../components/network/thread/subg_openthread/src/core/net/ip6_headers.hpp"
	.file	37 "D:\\20240115\\rafael-iot-sdk-das\\examples\\das_subg_thread\\keil" "../../../components/network/thread/subg_openthread/src/core\\common/encoding.hpp"
	.file	38 "D:\\20240115\\rafael-iot-sdk-das\\examples\\das_subg_thread\\keil" "../../../components/network/thread/subg_openthread/src/core\\net/icmp6.hpp"
	.file	39 "D:\\20240115\\rafael-iot-sdk-das\\examples\\das_subg_thread\\keil" "../../../components/network/thread/subg_openthread/src/core\\net/ip6.hpp"
	.section	.text._ZN2ot3Ip66Header9ParseFromERKNS_7MessageE,"ax",%progbits
	.hidden	_ZN2ot3Ip66Header9ParseFromERKNS_7MessageE @ -- Begin function _ZN2ot3Ip66Header9ParseFromERKNS_7MessageE
	.globl	_ZN2ot3Ip66Header9ParseFromERKNS_7MessageE
	.p2align	1
	.type	_ZN2ot3Ip66Header9ParseFromERKNS_7MessageE,%function
	.code	16                              @ @_ZN2ot3Ip66Header9ParseFromERKNS_7MessageE
	.thumb_func
_ZN2ot3Ip66Header9ParseFromERKNS_7MessageE:
.Lfunc_begin0:
	.loc	28 45 0                         @ ../../../components/network/thread/subg_openthread/src/core/net/ip6_headers.cpp:45:0
	.fnstart
	.cfi_sections .debug_frame
	.cfi_startproc
@ %bb.0:
	@DEBUG_VALUE: ParseFrom:this <- $r0
	@DEBUG_VALUE: ParseFrom:aMessage <- $r1
	@DEBUG_VALUE: Read<ot::Ip6::Header>:this <- $r1
	@DEBUG_VALUE: Read<ot::Ip6::Header>:aObject <- $r0
	.save	{r4, r5, r7, lr}
	push	{r4, r5, r7, lr}
	.cfi_def_cfa_offset 16
	.cfi_offset lr, -4
	.cfi_offset r7, -8
	.cfi_offset r5, -12
	.cfi_offset r4, -16
	mov	r5, r0
.Ltmp0:
	@DEBUG_VALUE: ParseFrom:this <- $r5
	@DEBUG_VALUE: Read<ot::Ip6::Header>:aOffset <- 0
	@DEBUG_VALUE: ParseFrom:error <- 6
	@DEBUG_VALUE: Read<ot::Ip6::Header>:aObject <- $r5
	@DEBUG_VALUE: Read<ot::Ip6::Header>:this <- $r4
	@DEBUG_VALUE: ParseFrom:aMessage <- $r4
	@DEBUG_VALUE: ParseFrom:this <- $r5
	mov	r4, r1
.Ltmp1:
	.loc	14 769 16 prologue_end          @ ../../../components/network/thread/subg_openthread/src/core\common/message.hpp:769:16
	mov	r0, r1
	movs	r1, #0
	mov	r2, r5
	movs	r3, #40
	bl	_ZNK2ot7Message4ReadEtPvt
.Ltmp2:
	.loc	28 48 5                         @ ../../../components/network/thread/subg_openthread/src/core/net/ip6_headers.cpp:48:5
	cbz	r0, .LBB0_2
.Ltmp3:
.LBB0_1:
	@DEBUG_VALUE: ParseFrom:this <- $r5
	@DEBUG_VALUE: ParseFrom:error <- 6
	@DEBUG_VALUE: ParseFrom:error <- 6
	@DEBUG_LABEL: ParseFrom:exit
	.loc	28 55 5                         @ ../../../components/network/thread/subg_openthread/src/core/net/ip6_headers.cpp:55:5
	movs	r0, #6
	pop	{r4, r5, r7, pc}
.Ltmp4:
.LBB0_2:
	@DEBUG_VALUE: ParseFrom:this <- $r5
	@DEBUG_VALUE: ParseFrom:error <- 6
	@DEBUG_VALUE: IsValid:this <- $r5
	@DEBUG_VALUE: IsVersion6:this <- $r5
	.loc	5 128 43                        @ ../../../components/network/thread/subg_openthread/src/core\net/ip6_headers.hpp:128:43
	ldrb	r0, [r5]
	.loc	5 128 60 is_stmt 0              @ ../../../components/network/thread/subg_openthread/src/core\net/ip6_headers.hpp:128:60
	and	r0, r0, #240
.Ltmp5:
	.loc	28 49 5 is_stmt 1               @ ../../../components/network/thread/subg_openthread/src/core/net/ip6_headers.cpp:49:5
	cmp	r0, #96
	bne	.LBB0_1
.Ltmp6:
@ %bb.3:
	@DEBUG_VALUE: ParseFrom:this <- $r5
	@DEBUG_VALUE: ParseFrom:error <- 6
	.loc	28 0 0 is_stmt 0                @ ../../../components/network/thread/subg_openthread/src/core/net/ip6_headers.cpp:0:0
	ldrh	r0, [r5, #4]
	rev	r0, r0
	lsrs	r0, r0, #16
	.loc	28 49 5                         @ ../../../components/network/thread/subg_openthread/src/core/net/ip6_headers.cpp:49:5
	cmp.w	r0, #1960
	bhi	.LBB0_1
.Ltmp7:
@ %bb.4:
	@DEBUG_VALUE: ParseFrom:this <- $r5
	@DEBUG_VALUE: ParseFrom:error <- 6
	.loc	14 444 59 is_stmt 1             @ ../../../components/network/thread/subg_openthread/src/core\common/message.hpp:444:59
	ldrh	r1, [r4, #30]
.Ltmp8:
	.loc	28 50 5                         @ ../../../components/network/thread/subg_openthread/src/core/net/ip6_headers.cpp:50:5
	adds	r0, #40
.Ltmp9:
	@DEBUG_VALUE: GetLength:this <- undef
	.loc	28 50 5 is_stmt 0               @ ../../../components/network/thread/subg_openthread/src/core/net/ip6_headers.cpp:50:5
	subs	r0, r0, r1
	it	ne
	movne	r0, #6
	pop	{r4, r5, r7, pc}
.Ltmp10:
.Lfunc_end0:
	.size	_ZN2ot3Ip66Header9ParseFromERKNS_7MessageE, .Lfunc_end0-_ZN2ot3Ip66Header9ParseFromERKNS_7MessageE
	.cfi_endproc
	.cantunwind
	.fnend
                                        @ -- End function
	.section	.text._ZNK2ot3Ip66Header7IsValidEv,"ax",%progbits
	.hidden	_ZNK2ot3Ip66Header7IsValidEv    @ -- Begin function _ZNK2ot3Ip66Header7IsValidEv
	.globl	_ZNK2ot3Ip66Header7IsValidEv
	.p2align	1
	.type	_ZNK2ot3Ip66Header7IsValidEv,%function
	.code	16                              @ @_ZNK2ot3Ip66Header7IsValidEv
	.thumb_func
_ZNK2ot3Ip66Header7IsValidEv:
.Lfunc_begin1:
	.loc	28 59 0 is_stmt 1               @ ../../../components/network/thread/subg_openthread/src/core/net/ip6_headers.cpp:59:0
	.fnstart
	.cfi_startproc
@ %bb.0:
	@DEBUG_VALUE: IsValid:this <- $r0
	@DEBUG_VALUE: IsValid:this <- $r0
	@DEBUG_VALUE: IsVersion6:this <- $r0
	@DEBUG_VALUE: IsVersion6:this <- $r0
	.loc	5 128 43 prologue_end           @ ../../../components/network/thread/subg_openthread/src/core\net/ip6_headers.hpp:128:43
	ldrb	r1, [r0]
.Ltmp11:
	.loc	28 66 25                        @ ../../../components/network/thread/subg_openthread/src/core/net/ip6_headers.cpp:66:25
	ldrh	r0, [r0, #4]
.Ltmp12:
	@DEBUG_VALUE: IsValid:this <- [DW_OP_LLVM_entry_value 1] $r0
	.loc	5 128 60                        @ ../../../components/network/thread/subg_openthread/src/core\net/ip6_headers.hpp:128:60
	and	r1, r1, #240
	.loc	5 128 76 is_stmt 0              @ ../../../components/network/thread/subg_openthread/src/core\net/ip6_headers.hpp:128:76
	subs	r1, #96
	clz	r1, r1
.Ltmp13:
	.loc	28 66 25 is_stmt 1              @ ../../../components/network/thread/subg_openthread/src/core/net/ip6_headers.cpp:66:25
	rev	r0, r0
.Ltmp14:
	.loc	5 128 76                        @ ../../../components/network/thread/subg_openthread/src/core\net/ip6_headers.hpp:128:76
	lsrs	r1, r1, #5
.Ltmp15:
	.loc	28 66 25                        @ ../../../components/network/thread/subg_openthread/src/core/net/ip6_headers.cpp:66:25
	lsrs	r0, r0, #16
	movs	r2, #0
	cmp.w	r0, #1960
	it	ls
	movls	r2, #1
	and.w	r0, r1, r2
	.loc	28 66 5 is_stmt 0               @ ../../../components/network/thread/subg_openthread/src/core/net/ip6_headers.cpp:66:5
	bx	lr
.Ltmp16:
.Lfunc_end1:
	.size	_ZNK2ot3Ip66Header7IsValidEv, .Lfunc_end1-_ZNK2ot3Ip66Header7IsValidEv
	.cfi_endproc
	.cantunwind
	.fnend
                                        @ -- End function
	.section	.text._ZN2ot3Ip66Option9ParseFromERKNS_7MessageEtt,"ax",%progbits
	.hidden	_ZN2ot3Ip66Option9ParseFromERKNS_7MessageEtt @ -- Begin function _ZN2ot3Ip66Option9ParseFromERKNS_7MessageEtt
	.globl	_ZN2ot3Ip66Option9ParseFromERKNS_7MessageEtt
	.p2align	1
	.type	_ZN2ot3Ip66Option9ParseFromERKNS_7MessageEtt,%function
	.code	16                              @ @_ZN2ot3Ip66Option9ParseFromERKNS_7MessageEtt
	.thumb_func
_ZN2ot3Ip66Option9ParseFromERKNS_7MessageEtt:
.Lfunc_begin2:
	.loc	28 73 0 is_stmt 1               @ ../../../components/network/thread/subg_openthread/src/core/net/ip6_headers.cpp:73:0
	.fnstart
	.cfi_startproc
@ %bb.0:
	@DEBUG_VALUE: ParseFrom:this <- $r0
	@DEBUG_VALUE: ParseFrom:aMessage <- $r1
	@DEBUG_VALUE: ParseFrom:aOffset <- $r2
	@DEBUG_VALUE: ParseFrom:aEndOffset <- $r3
	.save	{r4, r5, r6, r7, lr}
	push	{r4, r5, r6, r7, lr}
	.cfi_def_cfa_offset 20
	.cfi_offset lr, -4
	.cfi_offset r7, -8
	.cfi_offset r6, -12
	.cfi_offset r5, -16
	.cfi_offset r4, -20
	.pad	#4
	sub	sp, #4
	.cfi_def_cfa_offset 24
	mov	r6, r0
.Ltmp17:
	@DEBUG_VALUE: ParseFrom:this <- $r6
	@DEBUG_VALUE: ParseFrom:aEndOffset <- $r4
	@DEBUG_VALUE: ParseFrom:aOffset <- $r5
	@DEBUG_VALUE: ParseFrom:aMessage <- $r7
	@DEBUG_VALUE: ParseFrom:this <- $r6
	mov	r4, r3
.Ltmp18:
	mov	r5, r2
.Ltmp19:
	mov	r7, r1
.Ltmp20:
	.loc	28 79 5 prologue_end            @ ../../../components/network/thread/subg_openthread/src/core/net/ip6_headers.cpp:79:5
	mov	r0, r1
	mov	r1, r2
	mov	r2, r6
	movs	r3, #1
	bl	_ZNK2ot7Message4ReadEtPvt
.Ltmp21:
	@DEBUG_VALUE: ParseFrom:error <- $r0
	.loc	28 79 5 is_stmt 0               @ ../../../components/network/thread/subg_openthread/src/core/net/ip6_headers.cpp:79:5
	cbz	r0, .LBB2_2
.Ltmp22:
.LBB2_1:
	@DEBUG_VALUE: ParseFrom:this <- $r6
	@DEBUG_VALUE: ParseFrom:error <- $r0
	@DEBUG_LABEL: ParseFrom:exit
	.loc	28 0 0                          @ ../../../components/network/thread/subg_openthread/src/core/net/ip6_headers.cpp:0:0
	add	sp, #4
	pop	{r4, r5, r6, r7, pc}
.Ltmp23:
.LBB2_2:
	@DEBUG_VALUE: ParseFrom:this <- $r6
	@DEBUG_VALUE: ParseFrom:error <- $r0
	.loc	28 81 9 is_stmt 1               @ ../../../components/network/thread/subg_openthread/src/core/net/ip6_headers.cpp:81:9
	ldrb	r0, [r6]
.Ltmp24:
	.loc	28 81 9 is_stmt 0               @ ../../../components/network/thread/subg_openthread/src/core/net/ip6_headers.cpp:81:9
	cbz	r0, .LBB2_5
.Ltmp25:
@ %bb.3:
	@DEBUG_VALUE: ParseFrom:this <- $r6
	@DEBUG_VALUE: Read<ot::Ip6::Option>:this <- $r7
	@DEBUG_VALUE: Read<ot::Ip6::Option>:aOffset <- $r5
	@DEBUG_VALUE: Read<ot::Ip6::Option>:aObject <- $r6
	.loc	14 769 16 is_stmt 1             @ ../../../components/network/thread/subg_openthread/src/core\common/message.hpp:769:16
	mov	r0, r7
	mov	r1, r5
	mov	r2, r6
	movs	r3, #2
	bl	_ZNK2ot7Message4ReadEtPvt
.Ltmp26:
	@DEBUG_VALUE: ParseFrom:error <- $r0
	.loc	28 87 5                         @ ../../../components/network/thread/subg_openthread/src/core/net/ip6_headers.cpp:87:5
	cmp	r0, #0
	bne	.LBB2_1
.Ltmp27:
@ %bb.4:
	@DEBUG_VALUE: ParseFrom:this <- $r6
	@DEBUG_VALUE: ParseFrom:error <- $r0
	@DEBUG_VALUE: GetSize:this <- $r6
	.loc	28 97 12                        @ ../../../components/network/thread/subg_openthread/src/core/net/ip6_headers.cpp:97:12
	ldrb	r0, [r6, #1]
.Ltmp28:
	.loc	28 97 13 is_stmt 0              @ ../../../components/network/thread/subg_openthread/src/core/net/ip6_headers.cpp:97:13
	ldrb	r1, [r6]
	.loc	28 97 12                        @ ../../../components/network/thread/subg_openthread/src/core/net/ip6_headers.cpp:97:12
	adds	r0, #2
.Ltmp29:
	.loc	28 89 5 is_stmt 1               @ ../../../components/network/thread/subg_openthread/src/core/net/ip6_headers.cpp:89:5
	cmp	r1, #0
	it	eq
	moveq	r0, #1
	adds	r1, r0, r5
	movs	r0, #0
.Ltmp30:
	.loc	28 89 5 is_stmt 0               @ ../../../components/network/thread/subg_openthread/src/core/net/ip6_headers.cpp:89:5
	cmp	r1, r4
	it	hi
	movhi	r0, #6
	b	.LBB2_1
.Ltmp31:
.LBB2_5:
	@DEBUG_VALUE: ParseFrom:this <- $r6
	.loc	28 0 5                          @ ../../../components/network/thread/subg_openthread/src/core/net/ip6_headers.cpp:0:5
	movs	r0, #0
.Ltmp32:
	@DEBUG_VALUE: SetLength:aLength <- 0
	@DEBUG_VALUE: SetLength:this <- $r6
	.loc	5 550 47 is_stmt 1              @ ../../../components/network/thread/subg_openthread/src/core\net/ip6_headers.hpp:550:47
	strb	r0, [r6, #1]
	b	.LBB2_1
.Ltmp33:
.Lfunc_end2:
	.size	_ZN2ot3Ip66Option9ParseFromERKNS_7MessageEtt, .Lfunc_end2-_ZN2ot3Ip66Option9ParseFromERKNS_7MessageEtt
	.cfi_endproc
	.cantunwind
	.fnend
                                        @ -- End function
	.section	.text._ZNK2ot3Ip66Option7GetSizeEv,"ax",%progbits
	.hidden	_ZNK2ot3Ip66Option7GetSizeEv    @ -- Begin function _ZNK2ot3Ip66Option7GetSizeEv
	.globl	_ZNK2ot3Ip66Option7GetSizeEv
	.p2align	1
	.type	_ZNK2ot3Ip66Option7GetSizeEv,%function
	.code	16                              @ @_ZNK2ot3Ip66Option7GetSizeEv
	.thumb_func
_ZNK2ot3Ip66Option7GetSizeEv:
.Lfunc_begin3:
	.loc	28 96 0                         @ ../../../components/network/thread/subg_openthread/src/core/net/ip6_headers.cpp:96:0
	.fnstart
	.cfi_startproc
@ %bb.0:
	@DEBUG_VALUE: GetSize:this <- $r0
	@DEBUG_VALUE: GetSize:this <- $r0
	.loc	28 97 12 prologue_end           @ ../../../components/network/thread/subg_openthread/src/core/net/ip6_headers.cpp:97:12
	ldrb	r1, [r0, #1]
	.loc	28 97 13 is_stmt 0              @ ../../../components/network/thread/subg_openthread/src/core/net/ip6_headers.cpp:97:13
	ldrb	r2, [r0]
	.loc	28 97 12                        @ ../../../components/network/thread/subg_openthread/src/core/net/ip6_headers.cpp:97:12
	adds	r0, r1, #2
.Ltmp34:
	@DEBUG_VALUE: GetSize:this <- [DW_OP_LLVM_entry_value 1] $r0
	cmp	r2, #0
	it	eq
	moveq	r0, #1
	.loc	28 97 5                         @ ../../../components/network/thread/subg_openthread/src/core/net/ip6_headers.cpp:97:5
	bx	lr
.Ltmp35:
.Lfunc_end3:
	.size	_ZNK2ot3Ip66Option7GetSizeEv, .Lfunc_end3-_ZNK2ot3Ip66Option7GetSizeEv
	.cfi_endproc
	.cantunwind
	.fnend
                                        @ -- End function
	.section	.text._ZN2ot3Ip69PadOption14InitForPadSizeEh,"ax",%progbits
	.hidden	_ZN2ot3Ip69PadOption14InitForPadSizeEh @ -- Begin function _ZN2ot3Ip69PadOption14InitForPadSizeEh
	.globl	_ZN2ot3Ip69PadOption14InitForPadSizeEh
	.p2align	1
	.type	_ZN2ot3Ip69PadOption14InitForPadSizeEh,%function
	.code	16                              @ @_ZN2ot3Ip69PadOption14InitForPadSizeEh
	.thumb_func
_ZN2ot3Ip69PadOption14InitForPadSizeEh:
.Lfunc_begin4:
	.loc	28 104 0 is_stmt 1              @ ../../../components/network/thread/subg_openthread/src/core/net/ip6_headers.cpp:104:0
	.fnstart
	.cfi_startproc
@ %bb.0:
	@DEBUG_VALUE: InitForPadSize:this <- $r0
	@DEBUG_VALUE: InitForPadSize:aPadSize <- $r1
	@DEBUG_VALUE: Clear:this <- $r0
	movs	r2, #0
	@DEBUG_VALUE: Clear:this <- $r0
	@DEBUG_VALUE: InitForPadSize:aPadSize <- $r1
	@DEBUG_VALUE: InitForPadSize:this <- $r0
.Ltmp36:
	.loc	3 55 24 prologue_end            @ ../../../components/network/thread/subg_openthread/src/core\common/clearable.hpp:55:24
	strh.w	r2, [r0, #5]
.Ltmp37:
	.loc	28 109 9                        @ ../../../components/network/thread/subg_openthread/src/core/net/ip6_headers.cpp:109:9
	cmp	r1, #1
.Ltmp38:
	.loc	3 55 24                         @ ../../../components/network/thread/subg_openthread/src/core\common/clearable.hpp:55:24
	str.w	r2, [r0, #1]
.Ltmp39:
	@DEBUG_VALUE: Clear:this <- $r0
	@DEBUG_VALUE: SetType:this <- $r0
	@DEBUG_VALUE: SetType:aType <- 1
	.loc	28 116 28                       @ ../../../components/network/thread/subg_openthread/src/core/net/ip6_headers.cpp:116:28
	ittt	ne
	subne	r1, #2
.Ltmp40:
	@DEBUG_VALUE: InitForPadSize:aPadSize <- [DW_OP_LLVM_entry_value 1] $r1
	@DEBUG_VALUE: SetLength:this <- $r0
	@DEBUG_VALUE: SetLength:aLength <- $r1
	.loc	5 550 47                        @ ../../../components/network/thread/subg_openthread/src/core\net/ip6_headers.hpp:550:47
	strbne	r1, [r0, #1]
	movne	r2, #1
.Ltmp41:
	.loc	5 542 41                        @ ../../../components/network/thread/subg_openthread/src/core\net/ip6_headers.hpp:542:41
	strb	r2, [r0]
.Ltmp42:
	.loc	28 118 1                        @ ../../../components/network/thread/subg_openthread/src/core/net/ip6_headers.cpp:118:1
	bx	lr
.Ltmp43:
.Lfunc_end4:
	.size	_ZN2ot3Ip69PadOption14InitForPadSizeEh, .Lfunc_end4-_ZN2ot3Ip69PadOption14InitForPadSizeEh
	.cfi_endproc
	.cantunwind
	.fnend
                                        @ -- End function
	.section	.text._ZN2ot3Ip69PadOption23InitToPadHeaderWithSizeEt,"ax",%progbits
	.hidden	_ZN2ot3Ip69PadOption23InitToPadHeaderWithSizeEt @ -- Begin function _ZN2ot3Ip69PadOption23InitToPadHeaderWithSizeEt
	.globl	_ZN2ot3Ip69PadOption23InitToPadHeaderWithSizeEt
	.p2align	1
	.type	_ZN2ot3Ip69PadOption23InitToPadHeaderWithSizeEt,%function
	.code	16                              @ @_ZN2ot3Ip69PadOption23InitToPadHeaderWithSizeEt
	.thumb_func
_ZN2ot3Ip69PadOption23InitToPadHeaderWithSizeEt:
.Lfunc_begin5:
	.loc	28 121 0                        @ ../../../components/network/thread/subg_openthread/src/core/net/ip6_headers.cpp:121:0
	.fnstart
	.cfi_startproc
@ %bb.0:
	@DEBUG_VALUE: InitToPadHeaderWithSize:this <- $r0
	@DEBUG_VALUE: InitToPadHeaderWithSize:aHeaderSize <- $r1
	@DEBUG_VALUE: InitToPadHeaderWithSize:aHeaderSize <- $r1
	.loc	28 123 42 prologue_end          @ ../../../components/network/thread/subg_openthread/src/core/net/ip6_headers.cpp:123:42
	ands	r2, r1, #7
.Ltmp44:
	@DEBUG_VALUE: InitToPadHeaderWithSize:error <- 0
	@DEBUG_VALUE: InitToPadHeaderWithSize:size <- [DW_OP_LLVM_convert 16 7, DW_OP_LLVM_convert 32 7, DW_OP_stack_value] $r2
	@DEBUG_VALUE: InitToPadHeaderWithSize:this <- $r0
	.loc	28 0 42 is_stmt 0               @ ../../../components/network/thread/subg_openthread/src/core/net/ip6_headers.cpp:0:42
	itt	eq
	moveq	r0, #24
.Ltmp45:
	@DEBUG_VALUE: InitToPadHeaderWithSize:this <- [DW_OP_LLVM_entry_value 1] $r0
	@DEBUG_VALUE: InitToPadHeaderWithSize:error <- $r0
	@DEBUG_LABEL: InitToPadHeaderWithSize:exit
	.loc	28 129 5 is_stmt 1              @ ../../../components/network/thread/subg_openthread/src/core/net/ip6_headers.cpp:129:5
	bxeq	lr
.Ltmp46:
.LBB5_1:
	@DEBUG_VALUE: InitToPadHeaderWithSize:size <- [DW_OP_LLVM_convert 16 7, DW_OP_LLVM_convert 32 7, DW_OP_stack_value] $r2
	@DEBUG_VALUE: InitToPadHeaderWithSize:aHeaderSize <- $r1
	@DEBUG_VALUE: InitToPadHeaderWithSize:error <- $r0
	@DEBUG_VALUE: InitToPadHeaderWithSize:this <- [DW_OP_LLVM_entry_value 1] $r0
	@DEBUG_VALUE: InitForPadSize:aPadSize <- undef
	@DEBUG_VALUE: InitToPadHeaderWithSize:size <- [DW_OP_LLVM_convert 16 7, DW_OP_LLVM_convert 32 7, DW_OP_stack_value] $r2
	.loc	28 0 5 is_stmt 0                @ ../../../components/network/thread/subg_openthread/src/core/net/ip6_headers.cpp:0:5
	movs	r1, #0
.Ltmp47:
	@DEBUG_VALUE: InitToPadHeaderWithSize:aHeaderSize <- [DW_OP_LLVM_entry_value 1] $r1
	@DEBUG_VALUE: Clear:this <- $r0
	@DEBUG_VALUE: InitForPadSize:this <- $r0
	.loc	3 55 24 is_stmt 1               @ ../../../components/network/thread/subg_openthread/src/core\common/clearable.hpp:55:24
	strh.w	r1, [r0, #5]
.Ltmp48:
	.loc	28 109 9                        @ ../../../components/network/thread/subg_openthread/src/core/net/ip6_headers.cpp:109:9
	cmp	r2, #7
.Ltmp49:
	.loc	3 55 24                         @ ../../../components/network/thread/subg_openthread/src/core\common/clearable.hpp:55:24
	str.w	r1, [r0, #1]
.Ltmp50:
	@DEBUG_VALUE: Clear:this <- $r0
	@DEBUG_VALUE: SetType:this <- $r0
	@DEBUG_VALUE: SetType:aType <- 1
	.loc	28 116 28                       @ ../../../components/network/thread/subg_openthread/src/core/net/ip6_headers.cpp:116:28
	ittt	ne
	rsbne.w	r1, r2, #6
.Ltmp51:
	@DEBUG_VALUE: SetLength:this <- $r0
	@DEBUG_VALUE: SetLength:aLength <- $r1
	.loc	5 550 47                        @ ../../../components/network/thread/subg_openthread/src/core\net/ip6_headers.hpp:550:47
	strbne	r1, [r0, #1]
	movne	r1, #1
.Ltmp52:
	.loc	5 542 41                        @ ../../../components/network/thread/subg_openthread/src/core\net/ip6_headers.hpp:542:41
	strb	r1, [r0]
	movs	r0, #0
.Ltmp53:
	@DEBUG_VALUE: InitToPadHeaderWithSize:error <- $r0
	@DEBUG_LABEL: InitToPadHeaderWithSize:exit
	.loc	28 129 5                        @ ../../../components/network/thread/subg_openthread/src/core/net/ip6_headers.cpp:129:5
	bx	lr
.Ltmp54:
.Lfunc_end5:
	.size	_ZN2ot3Ip69PadOption23InitToPadHeaderWithSizeEt, .Lfunc_end5-_ZN2ot3Ip69PadOption23InitToPadHeaderWithSizeEt
	.cfi_endproc
	.cantunwind
	.fnend
                                        @ -- End function