	.text
	.syntax unified
	.eabi_attribute	67, "2.09"	@ Tag_conformance
	.cpu	cortex-m3
	.eabi_attribute	6, 10	@ Tag_CPU_arch
	.eabi_attribute	7, 77	@ Tag_CPU_arch_profile
	.eabi_attribute	8, 0	@ Tag_ARM_ISA_use
	.eabi_attribute	9, 2	@ Tag_THUMB_ISA_use
	.eabi_attribute	34, 1	@ Tag_CPU_unaligned_access
	.eabi_attribute	17, 1	@ Tag_ABI_PCS_GOT_use
	.eabi_attribute	20, 2	@ Tag_ABI_FP_denormal
	.eabi_attribute	21, 0	@ Tag_ABI_FP_exceptions
	.eabi_attribute	23, 1	@ Tag_ABI_FP_number_model
	.eabi_attribute	24, 1	@ Tag_ABI_align_needed
	.eabi_attribute	25, 1	@ Tag_ABI_align_preserved
	.eabi_attribute	38, 1	@ Tag_ABI_FP_16bit_format
	.eabi_attribute	18, 4	@ Tag_ABI_PCS_wchar_t
	.eabi_attribute	26, 2	@ Tag_ABI_enum_size
	.eabi_attribute	14, 0	@ Tag_ABI_PCS_R9_use
	.file	"link_metrics_types.cpp"
	.file	1 "D:\\Rafael-IoT-SDK-Internal-main\\examples\\das_subg_thread\\keil" "../../../components/network/thread/subg_openthread/include\\openthread/error.h"
	.file	2 "D:\\Rafael-IoT-SDK-Internal-main\\examples\\das_subg_thread\\keil" "../../../components/network/thread/subg_openthread/src/core\\common/clearable.hpp"
	.file	3 "C:\\Keil_v5\\ARM\\ARMCLANG\\Bin\\..\\include" "stdint.h"
	.file	4 "D:\\Rafael-IoT-SDK-Internal-main\\examples\\das_subg_thread\\keil" "../../../components/network/thread/subg_openthread/src/core\\thread/link_quality.hpp"
	.file	5 "D:\\Rafael-IoT-SDK-Internal-main\\examples\\das_subg_thread\\keil" "../../../components/network/thread/subg_openthread/src/core\\common/error.hpp"
	.file	6 "D:\\Rafael-IoT-SDK-Internal-main\\examples\\das_subg_thread\\keil" "../../../components/network/thread/subg_openthread/src/core/thread/link_metrics_types.hpp"
	.file	7 "D:\\Rafael-IoT-SDK-Internal-main\\examples\\das_subg_thread\\keil" "../../../components/network/thread/subg_openthread/include\\openthread/link_metrics.h"
	.file	8 "C:\\Keil_v5\\ARM\\ARMCLANG\\Bin\\..\\include" "stdlib.h"
	.file	9 "C:\\Keil_v5\\ARM\\ARMCLANG\\Bin\\..\\include" "stdarg.h"
	.file	10 "C:\\Keil_v5\\ARM\\ARMCLANG\\Bin\\..\\include" "ctype.h"
	.file	11 "C:\\Keil_v5\\ARM\\ARMCLANG\\Bin\\..\\include" "stdio.h"
	.file	12 "C:\\Keil_v5\\ARM\\ARMCLANG\\Bin\\..\\include" "string.h"
	.file	13 "C:\\Keil_v5\\ARM\\ARMCLANG\\Bin\\..\\include" "stddef.h"
	.file	14 "C:\\Keil_v5\\ARM\\ARMCLANG\\Bin\\..\\include\\libcxx" "__nullptr"
	.file	15 "C:\\Keil_v5\\ARM\\ARMCLANG\\Bin\\..\\include\\libcxx" "stddef.h"
	.file	16 "D:\\Rafael-IoT-SDK-Internal-main\\examples\\das_subg_thread\\keil" "../../../components/network/thread/subg_openthread/src/core\\common/encoding.hpp"
	.file	17 "D:\\Rafael-IoT-SDK-Internal-main\\examples\\das_subg_thread\\keil" "../../../components/network/thread/subg_openthread/src/core\\net/ip6_address.hpp"
	.file	18 "D:\\Rafael-IoT-SDK-Internal-main\\examples\\das_subg_thread\\keil" "../../../components/network/thread/subg_openthread/src/core\\mac/mac_frame.hpp"
	.section	.text._ZNK2ot11LinkMetrics7Metrics16ConvertToTypeIdsEPh,"ax",%progbits
	.hidden	_ZNK2ot11LinkMetrics7Metrics16ConvertToTypeIdsEPh @ -- Begin function _ZNK2ot11LinkMetrics7Metrics16ConvertToTypeIdsEPh
	.globl	_ZNK2ot11LinkMetrics7Metrics16ConvertToTypeIdsEPh
	.p2align	1
	.type	_ZNK2ot11LinkMetrics7Metrics16ConvertToTypeIdsEPh,%function
	.code	16                              @ @_ZNK2ot11LinkMetrics7Metrics16ConvertToTypeIdsEPh
	.thumb_func
_ZNK2ot11LinkMetrics7Metrics16ConvertToTypeIdsEPh:
.Lfunc_begin0:
	.file	19 "D:\\Rafael-IoT-SDK-Internal-main\\examples\\das_subg_thread\\keil" "../../../components/network/thread/subg_openthread/src/core/thread/link_metrics_types.cpp"
	.loc	19 48 0                         @ ../../../components/network/thread/subg_openthread/src/core/thread/link_metrics_types.cpp:48:0
	.fnstart
	.cfi_sections .debug_frame
	.cfi_startproc
@ %bb.0:
	@DEBUG_VALUE: ConvertToTypeIds:this <- $r0
	@DEBUG_VALUE: ConvertToTypeIds:aTypeIds <- $r1
	.loc	19 51 9 prologue_end            @ ../../../components/network/thread/subg_openthread/src/core/thread/link_metrics_types.cpp:51:9
	ldrb	r3, [r0]
	mov	r12, r0
.Ltmp0:
	@DEBUG_VALUE: ConvertToTypeIds:count <- 0
	@DEBUG_VALUE: ConvertToTypeIds:this <- $r12
	.loc	19 51 9 is_stmt 0               @ ../../../components/network/thread/subg_openthread/src/core/thread/link_metrics_types.cpp:51:9
	lsls	r0, r3, #31
	@DEBUG_VALUE: ConvertToTypeIds:aTypeIds <- $r1
	bne	.LBB0_2
.Ltmp1:
@ %bb.1:
	@DEBUG_VALUE: ConvertToTypeIds:this <- $r12
	@DEBUG_VALUE: ConvertToTypeIds:aTypeIds <- $r1
	@DEBUG_VALUE: ConvertToTypeIds:count <- 0
	.loc	19 0 9                          @ ../../../components/network/thread/subg_openthread/src/core/thread/link_metrics_types.cpp:0:9
	movs	r0, #0
	b	.LBB0_3
.Ltmp2:
.LBB0_2:
	@DEBUG_VALUE: ConvertToTypeIds:this <- $r12
	@DEBUG_VALUE: ConvertToTypeIds:aTypeIds <- $r1
	@DEBUG_VALUE: ConvertToTypeIds:count <- 0
	@DEBUG_VALUE: ConvertToTypeIds:count <- 1
	movs	r0, #64
.Ltmp3:
	.loc	19 53 27 is_stmt 1              @ ../../../components/network/thread/subg_openthread/src/core/thread/link_metrics_types.cpp:53:27
	strb	r0, [r1]
.Ltmp4:
	.loc	19 56 9                         @ ../../../components/network/thread/subg_openthread/src/core/thread/link_metrics_types.cpp:56:9
	ldrb.w	r3, [r12]
	movs	r0, #1
.Ltmp5:
.LBB0_3:
	@DEBUG_VALUE: ConvertToTypeIds:this <- $r12
	@DEBUG_VALUE: ConvertToTypeIds:aTypeIds <- $r1
	@DEBUG_VALUE: ConvertToTypeIds:count <- $r0
	.loc	19 56 9 is_stmt 0               @ ../../../components/network/thread/subg_openthread/src/core/thread/link_metrics_types.cpp:56:9
	lsls	r2, r3, #30
	bpl	.LBB0_5
.Ltmp6:
@ %bb.4:
	@DEBUG_VALUE: ConvertToTypeIds:this <- $r12
	@DEBUG_VALUE: ConvertToTypeIds:aTypeIds <- $r1
	@DEBUG_VALUE: ConvertToTypeIds:count <- $r0
	.loc	19 0 9                          @ ../../../components/network/thread/subg_openthread/src/core/thread/link_metrics_types.cpp:0:9
	movs	r2, #9
.Ltmp7:
	.loc	19 58 27 is_stmt 1              @ ../../../components/network/thread/subg_openthread/src/core/thread/link_metrics_types.cpp:58:27
	strb	r2, [r1, r0]
.Ltmp8:
	.loc	19 61 9                         @ ../../../components/network/thread/subg_openthread/src/core/thread/link_metrics_types.cpp:61:9
	ldrb.w	r3, [r12]
.Ltmp9:
	@DEBUG_VALUE: ConvertToTypeIds:count <- $r0
	.loc	19 58 23                        @ ../../../components/network/thread/subg_openthread/src/core/thread/link_metrics_types.cpp:58:23
	adds	r0, #1
.Ltmp10:
	@DEBUG_VALUE: ConvertToTypeIds:count <- $r0
.LBB0_5:
	@DEBUG_VALUE: ConvertToTypeIds:this <- $r12
	@DEBUG_VALUE: ConvertToTypeIds:aTypeIds <- $r1
	@DEBUG_VALUE: ConvertToTypeIds:count <- $r0
	@DEBUG_VALUE: ConvertToTypeIds:count <- $r0
	.loc	19 61 9                         @ ../../../components/network/thread/subg_openthread/src/core/thread/link_metrics_types.cpp:61:9
	lsls	r2, r3, #29
	bpl	.LBB0_7
.Ltmp11:
@ %bb.6:
	@DEBUG_VALUE: ConvertToTypeIds:this <- $r12
	@DEBUG_VALUE: ConvertToTypeIds:aTypeIds <- $r1
	@DEBUG_VALUE: ConvertToTypeIds:count <- $r0
	.loc	19 0 9 is_stmt 0                @ ../../../components/network/thread/subg_openthread/src/core/thread/link_metrics_types.cpp:0:9
	movs	r2, #10
.Ltmp12:
	.loc	19 63 27 is_stmt 1              @ ../../../components/network/thread/subg_openthread/src/core/thread/link_metrics_types.cpp:63:27
	strb	r2, [r1, r0]
.Ltmp13:
	.loc	19 66 9                         @ ../../../components/network/thread/subg_openthread/src/core/thread/link_metrics_types.cpp:66:9
	ldrb.w	r3, [r12]
.Ltmp14:
	@DEBUG_VALUE: ConvertToTypeIds:count <- $r0
	.loc	19 63 23                        @ ../../../components/network/thread/subg_openthread/src/core/thread/link_metrics_types.cpp:63:23
	adds	r0, #1
.Ltmp15:
	@DEBUG_VALUE: ConvertToTypeIds:count <- $r0
.LBB0_7:
	@DEBUG_VALUE: ConvertToTypeIds:this <- $r12
	@DEBUG_VALUE: ConvertToTypeIds:aTypeIds <- $r1
	@DEBUG_VALUE: ConvertToTypeIds:count <- $r0
	@DEBUG_VALUE: ConvertToTypeIds:count <- $r0
	.loc	19 66 9                         @ ../../../components/network/thread/subg_openthread/src/core/thread/link_metrics_types.cpp:66:9
	lsls	r2, r3, #28
	bpl	.LBB0_9
.Ltmp16:
@ %bb.8:
	@DEBUG_VALUE: ConvertToTypeIds:this <- $r12
	@DEBUG_VALUE: ConvertToTypeIds:aTypeIds <- $r1
	@DEBUG_VALUE: ConvertToTypeIds:count <- $r0
	.loc	19 0 9 is_stmt 0                @ ../../../components/network/thread/subg_openthread/src/core/thread/link_metrics_types.cpp:0:9
	movs	r2, #11
.Ltmp17:
	.loc	19 68 27 is_stmt 1              @ ../../../components/network/thread/subg_openthread/src/core/thread/link_metrics_types.cpp:68:27
	strb	r2, [r1, r0]
.Ltmp18:
	.loc	19 72 9                         @ ../../../components/network/thread/subg_openthread/src/core/thread/link_metrics_types.cpp:72:9
	ldrb.w	r3, [r12]
.Ltmp19:
	@DEBUG_VALUE: ConvertToTypeIds:count <- $r0
	.loc	19 68 23                        @ ../../../components/network/thread/subg_openthread/src/core/thread/link_metrics_types.cpp:68:23
	adds	r0, #1
.Ltmp20:
	@DEBUG_VALUE: ConvertToTypeIds:count <- $r0
.LBB0_9:
	@DEBUG_VALUE: ConvertToTypeIds:this <- $r12
	@DEBUG_VALUE: ConvertToTypeIds:aTypeIds <- $r1
	@DEBUG_VALUE: ConvertToTypeIds:count <- $r0
	@DEBUG_VALUE: ConvertToTypeIds:count <- $r0
	@DEBUG_VALUE: i <- 0
	.loc	19 72 9                         @ ../../../components/network/thread/subg_openthread/src/core/thread/link_metrics_types.cpp:72:9
	lsls	r2, r3, #27
	bpl	.LBB0_13
.Ltmp21:
@ %bb.10:
	@DEBUG_VALUE: ConvertToTypeIds:this <- $r12
	@DEBUG_VALUE: ConvertToTypeIds:aTypeIds <- $r1
	@DEBUG_VALUE: ConvertToTypeIds:count <- $r0
	cmp	r0, #0
	.loc	19 81 5                         @ ../../../components/network/thread/subg_openthread/src/core/thread/link_metrics_types.cpp:81:5
	it	eq
	bxeq	lr
.Ltmp22:
.LBB0_11:
	@DEBUG_VALUE: ConvertToTypeIds:this <- $r12
	@DEBUG_VALUE: ConvertToTypeIds:aTypeIds <- $r1
	@DEBUG_VALUE: ConvertToTypeIds:count <- $r0
	.loc	19 0 5 is_stmt 0                @ ../../../components/network/thread/subg_openthread/src/core/thread/link_metrics_types.cpp:0:5
	mov	r2, r0
.Ltmp23:
	.p2align	2
.LBB0_12:                               @ =>This Inner Loop Header: Depth=1
	@DEBUG_VALUE: ConvertToTypeIds:this <- $r12
	@DEBUG_VALUE: ConvertToTypeIds:count <- $r0
	@DEBUG_VALUE: i <- undef
	@DEBUG_VALUE: MarkAsReserved:aTypeId <- undef
	.loc	6 176 63 is_stmt 1              @ ../../../components/network/thread/subg_openthread/src/core/thread/link_metrics_types.hpp:176:63
	ldrb	r3, [r1]
.Ltmp24:
	.loc	19 74 31                        @ ../../../components/network/thread/subg_openthread/src/core/thread/link_metrics_types.cpp:74:31
	subs	r2, #1
.Ltmp25:
	.loc	6 176 71                        @ ../../../components/network/thread/subg_openthread/src/core/thread/link_metrics_types.hpp:176:71
	and	r3, r3, #199
	.loc	6 176 85 is_stmt 0              @ ../../../components/network/thread/subg_openthread/src/core/thread/link_metrics_types.hpp:176:85
	add.w	r3, r3, #16
	.loc	6 176 60                        @ ../../../components/network/thread/subg_openthread/src/core/thread/link_metrics_types.hpp:176:60
	strb	r3, [r1], #1
.Ltmp26:
	@DEBUG_VALUE: ConvertToTypeIds:aTypeIds <- [DW_OP_LLVM_entry_value 1] $r1
	@DEBUG_VALUE: i <- [DW_OP_plus_uconst 1, DW_OP_stack_value] undef
	.loc	19 74 9 is_stmt 1               @ ../../../components/network/thread/subg_openthread/src/core/thread/link_metrics_types.cpp:74:9
	bne	.LBB0_12
.Ltmp27:
.LBB0_13:
	@DEBUG_VALUE: ConvertToTypeIds:this <- $r12
	@DEBUG_VALUE: ConvertToTypeIds:count <- $r0
	.loc	19 81 5                         @ ../../../components/network/thread/subg_openthread/src/core/thread/link_metrics_types.cpp:81:5
	bx	lr
.Ltmp28:
.Lfunc_end0:
	.size	_ZNK2ot11LinkMetrics7Metrics16ConvertToTypeIdsEPh, .Lfunc_end0-_ZNK2ot11LinkMetrics7Metrics16ConvertToTypeIdsEPh
	.cfi_endproc
	.file	20 "D:\\Rafael-IoT-SDK-Internal-main\\examples\\das_subg_thread\\keil" "../../../components/network/thread/subg_openthread/include\\openthread/platform/radio.h"
	.cantunwind
	.fnend
                                        @ -- End function
	.section	.text._ZNK2ot11LinkMetrics11SeriesFlags13ConvertToMaskEv,"ax",%progbits
	.hidden	_ZNK2ot11LinkMetrics11SeriesFlags13ConvertToMaskEv @ -- Begin function _ZNK2ot11LinkMetrics11SeriesFlags13ConvertToMaskEv
	.globl	_ZNK2ot11LinkMetrics11SeriesFlags13ConvertToMaskEv
	.p2align	1
	.type	_ZNK2ot11LinkMetrics11SeriesFlags13ConvertToMaskEv,%function
	.code	16                              @ @_ZNK2ot11LinkMetrics11SeriesFlags13ConvertToMaskEv
	.thumb_func
_ZNK2ot11LinkMetrics11SeriesFlags13ConvertToMaskEv:
.Lfunc_begin1:
	.loc	19 88 0                         @ ../../../components/network/thread/subg_openthread/src/core/thread/link_metrics_types.cpp:88:0
	.fnstart
	.cfi_startproc
@ %bb.0:
	@DEBUG_VALUE: ConvertToMask:this <- $r0
	@DEBUG_VALUE: ConvertToMask:this <- $r0
	@DEBUG_VALUE: ConvertToMask:mask <- 0
	.loc	19 91 14 prologue_end           @ ../../../components/network/thread/subg_openthread/src/core/thread/link_metrics_types.cpp:91:14
	ldrb	r0, [r0]
.Ltmp29:
	@DEBUG_VALUE: ConvertToMask:this <- [DW_OP_LLVM_entry_value 1] $r0
	@DEBUG_VALUE: ConvertToMask:mask <- undef
	.loc	19 96 5                         @ ../../../components/network/thread/subg_openthread/src/core/thread/link_metrics_types.cpp:96:5
	and	r0, r0, #15
	bx	lr
.Ltmp30:
.Lfunc_end1:
	.size	_ZNK2ot11LinkMetrics11SeriesFlags13ConvertToMaskEv, .Lfunc_end1-_ZNK2ot11LinkMetrics11SeriesFlags13ConvertToMaskEv
	.cfi_endproc
	.cantunwind
	.fnend
                                        @ -- End function
	.section	.text._ZN2ot11LinkMetrics11SeriesFlags7SetFromEh,"ax",%progbits
	.hidden	_ZN2ot11LinkMetrics11SeriesFlags7SetFromEh @ -- Begin function _ZN2ot11LinkMetrics11SeriesFlags7SetFromEh
	.globl	_ZN2ot11LinkMetrics11SeriesFlags7SetFromEh
	.p2align	1
	.type	_ZN2ot11LinkMetrics11SeriesFlags7SetFromEh,%function
	.code	16                              @ @_ZN2ot11LinkMetrics11SeriesFlags7SetFromEh
	.thumb_func
_ZN2ot11LinkMetrics11SeriesFlags7SetFromEh:
.Lfunc_begin2:
	.loc	19 100 0                        @ ../../../components/network/thread/subg_openthread/src/core/thread/link_metrics_types.cpp:100:0
	.fnstart
	.cfi_startproc
@ %bb.0:
	@DEBUG_VALUE: SetFrom:this <- $r0
	@DEBUG_VALUE: SetFrom:this <- $r0
	@DEBUG_VALUE: SetFrom:aFlagsMask <- $r1
	.loc	19 101 21 prologue_end          @ ../../../components/network/thread/subg_openthread/src/core/thread/link_metrics_types.cpp:101:21
	ldrb	r2, [r0]
	@DEBUG_VALUE: SetFrom:aFlagsMask <- $r1
	.loc	19 103 21                       @ ../../../components/network/thread/subg_openthread/src/core/thread/link_metrics_types.cpp:103:21
	and	r1, r1, #15
.Ltmp31:
	@DEBUG_VALUE: SetFrom:aFlagsMask <- [DW_OP_LLVM_entry_value 1] $r1
	.loc	19 101 21                       @ ../../../components/network/thread/subg_openthread/src/core/thread/link_metrics_types.cpp:101:21
	and	r2, r2, #240
	.loc	19 104 21                       @ ../../../components/network/thread/subg_openthread/src/core/thread/link_metrics_types.cpp:104:21
	add	r1, r2
	strb	r1, [r0]
	.loc	19 105 1                        @ ../../../components/network/thread/subg_openthread/src/core/thread/link_metrics_types.cpp:105:1
	bx	lr
.Ltmp32:
.Lfunc_end2:
	.size	_ZN2ot11LinkMetrics11SeriesFlags7SetFromEh, .Lfunc_end2-_ZN2ot11LinkMetrics11SeriesFlags7SetFromEh
	.cfi_endproc
	.cantunwind
	.fnend
                                        @ -- End function
	.section	.text._ZN2ot11LinkMetrics10SeriesInfo4InitEhhRKNS0_7MetricsE,"ax",%progbits
	.hidden	_ZN2ot11LinkMetrics10SeriesInfo4InitEhhRKNS0_7MetricsE @ -- Begin function _ZN2ot11LinkMetrics10SeriesInfo4InitEhhRKNS0_7MetricsE
	.globl	_ZN2ot11LinkMetrics10SeriesInfo4InitEhhRKNS0_7MetricsE
	.p2align	1
	.type	_ZN2ot11LinkMetrics10SeriesInfo4InitEhhRKNS0_7MetricsE,%function
	.code	16                              @ @_ZN2ot11LinkMetrics10SeriesInfo4InitEhhRKNS0_7MetricsE
	.thumb_func
_ZN2ot11LinkMetrics10SeriesInfo4InitEhhRKNS0_7MetricsE:
.Lfunc_begin3:
	.loc	19 111 0                        @ ../../../components/network/thread/subg_openthread/src/core/thread/link_metrics_types.cpp:111:0
	.fnstart
	.cfi_startproc
@ %bb.0:
	@DEBUG_VALUE: Init:this <- $r0
	@DEBUG_VALUE: Init:this <- $r0
	@DEBUG_VALUE: Init:aSeriesId <- $r1
	@DEBUG_VALUE: Init:aSeriesId <- $r1
	@DEBUG_VALUE: Init:aSeriesFlagsMask <- $r2
	@DEBUG_VALUE: Init:aSeriesFlagsMask <- $r2
	@DEBUG_VALUE: Init:aMetrics <- $r3
	@DEBUG_VALUE: Init:aMetrics <- $r3
	.loc	19 101 21 prologue_end          @ ../../../components/network/thread/subg_openthread/src/core/thread/link_metrics_types.cpp:101:21
	ldrb.w	r12, [r0, #5]
.Ltmp33:
	.loc	19 112 15                       @ ../../../components/network/thread/subg_openthread/src/core/thread/link_metrics_types.cpp:112:15
	strb	r1, [r0, #4]
.Ltmp34:
	@DEBUG_VALUE: SetFrom:aFlagsMask <- $r2
	@DEBUG_VALUE: SetFrom:this <- [DW_OP_plus_uconst 5, DW_OP_stack_value] $r0
	.loc	19 101 21                       @ ../../../components/network/thread/subg_openthread/src/core/thread/link_metrics_types.cpp:101:21
	and	r1, r12, #240
.Ltmp35:
	@DEBUG_VALUE: Init:aSeriesId <- [DW_OP_LLVM_entry_value 1] $r1
	.loc	19 103 21                       @ ../../../components/network/thread/subg_openthread/src/core/thread/link_metrics_types.cpp:103:21
	and	r2, r2, #15
.Ltmp36:
	@DEBUG_VALUE: Init:aSeriesFlagsMask <- [DW_OP_LLVM_entry_value 1] $r2
	.loc	19 104 21                       @ ../../../components/network/thread/subg_openthread/src/core/thread/link_metrics_types.cpp:104:21
	add	r1, r2
	strb	r1, [r0, #5]
.Ltmp37:
	.loc	19 114 14                       @ ../../../components/network/thread/subg_openthread/src/core/thread/link_metrics_types.cpp:114:14
	ldrb	r1, [r3]
	strb	r1, [r0, #6]
	movs	r1, #0
.Ltmp38:
	@DEBUG_VALUE: Clear:this <- [DW_OP_plus_uconst 8, DW_OP_stack_value] $r0
	@DEBUG_VALUE: Clear:this <- undef
	.loc	2 55 24                         @ ../../../components/network/thread/subg_openthread/src/core\common/clearable.hpp:55:24
	str	r1, [r0, #12]
	str	r1, [r0, #8]
.Ltmp39:
	.loc	19 118 1                        @ ../../../components/network/thread/subg_openthread/src/core/thread/link_metrics_types.cpp:118:1
	bx	lr
.Ltmp40:
.Lfunc_end3:
	.size	_ZN2ot11LinkMetrics10SeriesInfo4InitEhhRKNS0_7MetricsE, .Lfunc_end3-_ZN2ot11LinkMetrics10SeriesInfo4InitEhhRKNS0_7MetricsE
	.cfi_endproc
	.file	21 "D:\\Rafael-IoT-SDK-Internal-main\\examples\\das_subg_thread\\keil" "../../../components/network/thread/subg_openthread/src/core\\common/linked_list.hpp"
	.cantunwind
	.fnend
                                        @ -- End function
	.section	.text._ZN2ot11LinkMetrics10SeriesInfo20AggregateLinkMetricsEhha,"ax",%progbits
	.hidden	_ZN2ot11LinkMetrics10SeriesInfo20AggregateLinkMetricsEhha @ -- Begin function _ZN2ot11LinkMetrics10SeriesInfo20AggregateLinkMetricsEhha
	.globl	_ZN2ot11LinkMetrics10SeriesInfo20AggregateLinkMetricsEhha
	.p2align	1
	.type	_ZN2ot11LinkMetrics10SeriesInfo20AggregateLinkMetricsEhha,%function
	.code	16                              @ @_ZN2ot11LinkMetrics10SeriesInfo20AggregateLinkMetricsEhha
	.thumb_func
_ZN2ot11LinkMetrics10SeriesInfo20AggregateLinkMetricsEhha:
.Lfunc_begin4:
	.loc	19 121 0                        @ ../../../components/network/thread/subg_openthread/src/core/thread/link_metrics_types.cpp:121:0
	.fnstart
	.cfi_startproc
@ %bb.0:
	@DEBUG_VALUE: AggregateLinkMetrics:this <- $r0
	@DEBUG_VALUE: AggregateLinkMetrics:aFrameType <- $r1
	@DEBUG_VALUE: AggregateLinkMetrics:aLqi <- $r2
	@DEBUG_VALUE: AggregateLinkMetrics:aRss <- $r3
	.save	{r4, r5, r6, lr}
	push	{r4, r5, r6, lr}
	.cfi_def_cfa_offset 16
	.cfi_offset lr, -4
	.cfi_offset r6, -8
	.cfi_offset r5, -12
	.cfi_offset r4, -16
	mov	r4, r3
.Ltmp41:
	@DEBUG_VALUE: AggregateLinkMetrics:aRss <- $r4
	mov	r6, r2
.Ltmp42:
	@DEBUG_VALUE: AggregateLinkMetrics:aLqi <- $r6
	mov	r5, r0
	@DEBUG_VALUE: AggregateLinkMetrics:aRss <- $r4
	@DEBUG_VALUE: AggregateLinkMetrics:aLqi <- $r6
	@DEBUG_VALUE: AggregateLinkMetrics:aFrameType <- $r1
.Ltmp43:
	@DEBUG_VALUE: AggregateLinkMetrics:this <- $r5
	@DEBUG_VALUE: AggregateLinkMetrics:aFrameType <- $r1
	.loc	19 122 9 prologue_end           @ ../../../components/network/thread/subg_openthread/src/core/thread/link_metrics_types.cpp:122:9
	bl	_ZNK2ot11LinkMetrics10SeriesInfo16IsFrameTypeMatchEh
.Ltmp44:
	@DEBUG_VALUE: AggregateLinkMetrics:aFrameType <- [DW_OP_LLVM_entry_value 1] $r1
	.loc	19 122 9 is_stmt 0              @ ../../../components/network/thread/subg_openthread/src/core/thread/link_metrics_types.cpp:122:9
	cbz	r0, .LBB4_2
.Ltmp45:
@ %bb.1:
	@DEBUG_VALUE: AggregateLinkMetrics:aLqi <- $r6
	@DEBUG_VALUE: AggregateLinkMetrics:this <- $r5
	@DEBUG_VALUE: AggregateLinkMetrics:aRss <- $r4
	@DEBUG_VALUE: AggregateLinkMetrics:aFrameType <- [DW_OP_LLVM_entry_value 1] $r1
	@DEBUG_VALUE: AggregateLinkMetrics:aLqi <- $r6
	@DEBUG_VALUE: AggregateLinkMetrics:aRss <- $r4
	.loc	19 124 18 is_stmt 1             @ ../../../components/network/thread/subg_openthread/src/core/thread/link_metrics_types.cpp:124:18
	ldr	r0, [r5, #12]
	.loc	19 125 22                       @ ../../../components/network/thread/subg_openthread/src/core/thread/link_metrics_types.cpp:125:22
	mov	r1, r6
	.loc	19 124 18                       @ ../../../components/network/thread/subg_openthread/src/core/thread/link_metrics_types.cpp:124:18
	adds	r0, #1
	str	r0, [r5, #12]
	.loc	19 125 9                        @ ../../../components/network/thread/subg_openthread/src/core/thread/link_metrics_types.cpp:125:9
	add.w	r0, r5, #10
	.loc	19 125 22 is_stmt 0             @ ../../../components/network/thread/subg_openthread/src/core/thread/link_metrics_types.cpp:125:22
	bl	_ZN2ot11LqiAverager3AddEh
.Ltmp46:
	.loc	19 126 21 is_stmt 1             @ ../../../components/network/thread/subg_openthread/src/core/thread/link_metrics_types.cpp:126:21
	add.w	r0, r5, #8
	.loc	19 126 34 is_stmt 0             @ ../../../components/network/thread/subg_openthread/src/core/thread/link_metrics_types.cpp:126:34
	mov	r1, r4
	pop.w	{r4, r5, r6, lr}
.Ltmp47:
	b	_ZN2ot11RssAverager3AddEa
.Ltmp48:
.LBB4_2:
	@DEBUG_VALUE: AggregateLinkMetrics:aLqi <- $r6
	@DEBUG_VALUE: AggregateLinkMetrics:this <- $r5
	@DEBUG_VALUE: AggregateLinkMetrics:aRss <- $r4
	@DEBUG_VALUE: AggregateLinkMetrics:aFrameType <- [DW_OP_LLVM_entry_value 1] $r1
	.loc	19 128 1 is_stmt 1              @ ../../../components/network/thread/subg_openthread/src/core/thread/link_metrics_types.cpp:128:1
	pop	{r4, r5, r6, pc}
.Ltmp49:
.Lfunc_end4:
	.size	_ZN2ot11LinkMetrics10SeriesInfo20AggregateLinkMetricsEhha, .Lfunc_end4-_ZN2ot11LinkMetrics10SeriesInfo20AggregateLinkMetricsEhha
	.cfi_endproc
	.cantunwind
	.fnend
                                        @ -- End function
	.section	.text._ZNK2ot11LinkMetrics10SeriesInfo16IsFrameTypeMatchEh,"ax",%progbits
	.hidden	_ZNK2ot11LinkMetrics10SeriesInfo16IsFrameTypeMatchEh @ -- Begin function _ZNK2ot11LinkMetrics10SeriesInfo16IsFrameTypeMatchEh
	.globl	_ZNK2ot11LinkMetrics10SeriesInfo16IsFrameTypeMatchEh
	.p2align	2
	.type	_ZNK2ot11LinkMetrics10SeriesInfo16IsFrameTypeMatchEh,%function
	.code	16                              @ @_ZNK2ot11LinkMetrics10SeriesInfo16IsFrameTypeMatchEh
	.thumb_func
_ZNK2ot11LinkMetrics10SeriesInfo16IsFrameTypeMatchEh:
.Lfunc_begin5:
	.loc	19 131 0                        @ ../../../components/network/thread/subg_openthread/src/core/thread/link_metrics_types.cpp:131:0
	.fnstart
	.cfi_startproc
@ %bb.0:
	@DEBUG_VALUE: IsFrameTypeMatch:this <- $r0
	@DEBUG_VALUE: IsFrameTypeMatch:aFrameType <- $r1
	@DEBUG_VALUE: IsFrameTypeMatch:aFrameType <- $r1
	.loc	19 134 5 prologue_end           @ ../../../components/network/thread/subg_openthread/src/core/thread/link_metrics_types.cpp:134:5
	cmp	r1, #3
.Ltmp50:
	@DEBUG_VALUE: IsFrameTypeMatch:match <- 0
	@DEBUG_VALUE: IsFrameTypeMatch:this <- $r0
	bhi	.LBB5_4
.Ltmp51:
@ %bb.1:
	@DEBUG_VALUE: IsFrameTypeMatch:aFrameType <- $r1
	@DEBUG_VALUE: IsFrameTypeMatch:this <- $r0
	@DEBUG_VALUE: IsFrameTypeMatch:match <- 0
	.loc	19 0 5 is_stmt 0                @ ../../../components/network/thread/subg_openthread/src/core/thread/link_metrics_types.cpp:0:5
.LCPI5_0:
	tbb	[pc, r1]
.Ltmp52:
@ %bb.2:
.LJTI5_0:
	.byte	(.LBB5_3-(.LCPI5_0+4))/2
	.byte	(.LBB5_5-(.LCPI5_0+4))/2
	.byte	(.LBB5_6-(.LCPI5_0+4))/2
	.byte	(.LBB5_7-(.LCPI5_0+4))/2
	.p2align	1
.LBB5_3:
.Ltmp53:
	@DEBUG_VALUE: IsFrameTypeMatch:aFrameType <- $r1
	@DEBUG_VALUE: IsFrameTypeMatch:this <- $r0
	@DEBUG_VALUE: IsFrameTypeMatch:match <- 0
	@DEBUG_VALUE: IsMacDataFlagSet:this <- [DW_OP_plus_uconst 5, DW_OP_stack_value] $r0
	.loc	6 220 48 is_stmt 1              @ ../../../components/network/thread/subg_openthread/src/core/thread/link_metrics_types.hpp:220:48
	ldrb	r0, [r0, #5]
.Ltmp54:
	@DEBUG_VALUE: IsFrameTypeMatch:this <- [DW_OP_LLVM_entry_value 1] $r0
	.loc	19 137 9                        @ ../../../components/network/thread/subg_openthread/src/core/thread/link_metrics_types.cpp:137:9
	lsls	r1, r0, #30
.Ltmp55:
	@DEBUG_VALUE: IsFrameTypeMatch:aFrameType <- [DW_OP_LLVM_entry_value 1] $r1
	@DEBUG_VALUE: IsLinkProbeFlagSet:this <- [DW_OP_plus_uconst 5, DW_OP_stack_value] undef
	.loc	6 211 50                        @ ../../../components/network/thread/subg_openthread/src/core/thread/link_metrics_types.hpp:211:50
	itt	pl
	andpl	r0, r0, #1
.Ltmp56:
	@DEBUG_VALUE: IsFrameTypeMatch:match <- [DW_OP_LLVM_convert 1 7, DW_OP_LLVM_convert 8 7, DW_OP_stack_value] undef
	@DEBUG_VALUE: IsFrameTypeMatch:match <- [DW_OP_LLVM_convert 1 7, DW_OP_LLVM_convert 8 7, DW_OP_stack_value] $r0
	@DEBUG_LABEL: IsFrameTypeMatch:exit
	.loc	19 154 5                        @ ../../../components/network/thread/subg_openthread/src/core/thread/link_metrics_types.cpp:154:5
	bxpl	lr
.Ltmp57:
.LBB5_4:
	.loc	19 0 5 is_stmt 0                @ ../../../components/network/thread/subg_openthread/src/core/thread/link_metrics_types.cpp:0:5
	movs	r0, #0
.Ltmp58:
	@DEBUG_VALUE: IsFrameTypeMatch:match <- [DW_OP_LLVM_convert 1 7, DW_OP_LLVM_convert 8 7, DW_OP_stack_value] $r0
	@DEBUG_LABEL: IsFrameTypeMatch:exit
	.loc	19 154 5                        @ ../../../components/network/thread/subg_openthread/src/core/thread/link_metrics_types.cpp:154:5
	bx	lr
.Ltmp59:
.LBB5_5:
	@DEBUG_VALUE: IsFrameTypeMatch:aFrameType <- $r1
	@DEBUG_VALUE: IsFrameTypeMatch:this <- $r0
	@DEBUG_VALUE: IsFrameTypeMatch:match <- 0
	@DEBUG_VALUE: IsMacDataFlagSet:this <- [DW_OP_plus_uconst 5, DW_OP_stack_value] $r0
	.loc	6 220 48 is_stmt 1              @ ../../../components/network/thread/subg_openthread/src/core/thread/link_metrics_types.hpp:220:48
	ldrb	r0, [r0, #5]
.Ltmp60:
	@DEBUG_VALUE: IsFrameTypeMatch:this <- [DW_OP_LLVM_entry_value 1] $r0
	ubfx	r0, r0, #1, #1
.Ltmp61:
	@DEBUG_VALUE: IsFrameTypeMatch:match <- [DW_OP_LLVM_convert 1 7, DW_OP_LLVM_convert 8 7, DW_OP_stack_value] $r0
	@DEBUG_VALUE: IsFrameTypeMatch:match <- [DW_OP_LLVM_convert 1 7, DW_OP_LLVM_convert 8 7, DW_OP_stack_value] $r0
	@DEBUG_LABEL: IsFrameTypeMatch:exit
	.loc	19 154 5                        @ ../../../components/network/thread/subg_openthread/src/core/thread/link_metrics_types.cpp:154:5
	bx	lr
.Ltmp62:
.LBB5_6:
	@DEBUG_VALUE: IsFrameTypeMatch:aFrameType <- $r1
	@DEBUG_VALUE: IsFrameTypeMatch:this <- $r0
	@DEBUG_VALUE: IsFrameTypeMatch:match <- 0
	@DEBUG_VALUE: IsMacAckFlagSet:this <- [DW_OP_plus_uconst 5, DW_OP_stack_value] $r0
	.loc	6 238 47                        @ ../../../components/network/thread/subg_openthread/src/core/thread/link_metrics_types.hpp:238:47
	ldrb	r0, [r0, #5]
.Ltmp63:
	@DEBUG_VALUE: IsFrameTypeMatch:this <- [DW_OP_LLVM_entry_value 1] $r0
	ubfx	r0, r0, #3, #1
.Ltmp64:
	@DEBUG_VALUE: IsFrameTypeMatch:match <- [DW_OP_LLVM_convert 1 7, DW_OP_LLVM_convert 8 7, DW_OP_stack_value] $r0
	@DEBUG_VALUE: IsFrameTypeMatch:match <- [DW_OP_LLVM_convert 1 7, DW_OP_LLVM_convert 8 7, DW_OP_stack_value] $r0
	@DEBUG_LABEL: IsFrameTypeMatch:exit
	.loc	19 154 5                        @ ../../../components/network/thread/subg_openthread/src/core/thread/link_metrics_types.cpp:154:5
	bx	lr
.Ltmp65:
.LBB5_7:
	@DEBUG_VALUE: IsFrameTypeMatch:aFrameType <- $r1
	@DEBUG_VALUE: IsFrameTypeMatch:this <- $r0
	@DEBUG_VALUE: IsFrameTypeMatch:match <- 0
	@DEBUG_VALUE: IsMacDataRequestFlagSet:this <- [DW_OP_plus_uconst 5, DW_OP_stack_value] $r0
	.loc	6 229 55                        @ ../../../components/network/thread/subg_openthread/src/core/thread/link_metrics_types.hpp:229:55
	ldrb	r0, [r0, #5]
.Ltmp66:
	@DEBUG_VALUE: IsFrameTypeMatch:this <- [DW_OP_LLVM_entry_value 1] $r0
	ubfx	r0, r0, #2, #1
.Ltmp67:
	@DEBUG_VALUE: IsFrameTypeMatch:match <- [DW_OP_LLVM_convert 1 7, DW_OP_LLVM_convert 8 7, DW_OP_stack_value] $r0
	@DEBUG_VALUE: IsFrameTypeMatch:match <- [DW_OP_LLVM_convert 1 7, DW_OP_LLVM_convert 8 7, DW_OP_stack_value] $r0
	@DEBUG_LABEL: IsFrameTypeMatch:exit
	.loc	19 154 5                        @ ../../../components/network/thread/subg_openthread/src/core/thread/link_metrics_types.cpp:154:5
	bx	lr
.Ltmp68:
.Lfunc_end5:
	.size	_ZNK2ot11LinkMetrics10SeriesInfo16IsFrameTypeMatchEh, .Lfunc_end5-_ZNK2ot11LinkMetrics10SeriesInfo16IsFrameTypeMatchEh
	.cfi_endproc
	.cantunwind
	.fnend
                                        @ -- End function
	.section	".note.GNU-stack","",%progbits
	.eabi_attribute	30, 3	@ Tag_ABI_optimization_goals
	.ARM_attribute	16, 1	@ Tag_AV_eba