	.text
	.syntax unified
	.eabi_attribute	67, "2.09"	@ Tag_conformance
	.cpu	cortex-m3
	.eabi_attribute	6, 10	@ Tag_CPU_arch
	.eabi_attribute	7, 77	@ Tag_CPU_arch_profile
	.eabi_attribute	8, 0	@ Tag_ARM_ISA_use
	.eabi_attribute	9, 2	@ Tag_THUMB_ISA_use
	.eabi_attribute	34, 1	@ Tag_CPU_unaligned_access
	.eabi_attribute	17, 1	@ Tag_ABI_PCS_GOT_use
	.eabi_attribute	20, 2	@ Tag_ABI_FP_denormal
	.eabi_attribute	21, 0	@ Tag_ABI_FP_exceptions
	.eabi_attribute	23, 1	@ Tag_ABI_FP_number_model
	.eabi_attribute	24, 1	@ Tag_ABI_align_needed
	.eabi_attribute	25, 1	@ Tag_ABI_align_preserved
	.eabi_attribute	38, 1	@ Tag_ABI_FP_16bit_format
	.eabi_attribute	18, 4	@ Tag_ABI_PCS_wchar_t
	.eabi_attribute	26, 2	@ Tag_ABI_enum_size
	.eabi_attribute	14, 0	@ Tag_ABI_PCS_R9_use
	.file	"mbedtls.cpp"
	.file	1 "D:\\Rafael-IoT-SDK-Internal-main\\examples\\das_subg_thread\\keil" "../../../components/network/thread/subg_openthread/include\\openthread/error.h"
	.file	2 "D:\\Rafael-IoT-SDK-Internal-main\\examples\\das_subg_thread\\keil" "../../../components/network/thread/subg_openthread/src/core\\common/error.hpp"
	.file	3 "C:\\Keil_v5\\ARM\\ARMCLANG\\Bin\\..\\include" "stdint.h"
	.file	4 "C:\\Keil_v5\\ARM\\ARMCLANG\\Bin\\..\\include" "stdio.h"
	.file	5 "C:\\Keil_v5\\ARM\\ARMCLANG\\Bin\\..\\include" "stdlib.h"
	.file	6 "C:\\Keil_v5\\ARM\\ARMCLANG\\Bin\\..\\include" "stdarg.h"
	.file	7 "C:\\Keil_v5\\ARM\\ARMCLANG\\Bin\\..\\include" "stddef.h"
	.file	8 "C:\\Keil_v5\\ARM\\ARMCLANG\\Bin\\..\\include\\libcxx" "__nullptr"
	.file	9 "C:\\Keil_v5\\ARM\\ARMCLANG\\Bin\\..\\include\\libcxx" "stddef.h"
	.file	10 "C:\\Keil_v5\\ARM\\ARMCLANG\\Bin\\..\\include" "string.h"
	.file	11 "C:\\Keil_v5\\ARM\\ARMCLANG\\Bin\\..\\include" "ctype.h"
	.section	.text._ZN2ot6Crypto7MbedTlsC2Ev,"ax",%progbits
	.hidden	_ZN2ot6Crypto7MbedTlsC2Ev       @ -- Begin function _ZN2ot6Crypto7MbedTlsC2Ev
	.globl	_ZN2ot6Crypto7MbedTlsC2Ev
	.p2align	1
	.type	_ZN2ot6Crypto7MbedTlsC2Ev,%function
	.code	16                              @ @_ZN2ot6Crypto7MbedTlsC2Ev
	.thumb_func
_ZN2ot6Crypto7MbedTlsC2Ev:
.Lfunc_begin0:
	.file	12 "D:\\Rafael-IoT-SDK-Internal-main\\examples\\das_subg_thread\\keil" "../../../components/network/thread/subg_openthread/src/core/crypto/mbedtls.cpp"
	.loc	12 55 0                         @ ../../../components/network/thread/subg_openthread/src/core/crypto/mbedtls.cpp:55:0
	.fnstart
	.cfi_sections .debug_frame
	.cfi_startproc
@ %bb.0:
	@DEBUG_VALUE: MbedTls:this <- $r0
	.save	{r4, lr}
	push	{r4, lr}
	.cfi_def_cfa_offset 8
	.cfi_offset lr, -4
	.cfi_offset r4, -8
	mov	r4, r0
.Ltmp0:
	@DEBUG_VALUE: MbedTls:this <- $r4
	@DEBUG_VALUE: MbedTls:this <- $r4
	.loc	12 61 5 prologue_end            @ ../../../components/network/thread/subg_openthread/src/core/crypto/mbedtls.cpp:61:5
	movw	r0, :lower16:_ZN2ot4Heap6CAllocEjj
	movw	r1, :lower16:_ZN2ot4Heap4FreeEPv
	movt	r0, :upper16:_ZN2ot4Heap6CAllocEjj
	movt	r1, :upper16:_ZN2ot4Heap4FreeEPv
	bl	mbedtls_platform_set_calloc_free
.Ltmp1:
	.loc	12 63 1                         @ ../../../components/network/thread/subg_openthread/src/core/crypto/mbedtls.cpp:63:1
	mov	r0, r4
.Ltmp2:
	@DEBUG_VALUE: MbedTls:this <- $r0
	@DEBUG_VALUE: MbedTls:this <- $r0
	pop	{r4, pc}
.Ltmp3:
.Lfunc_end0:
	.size	_ZN2ot6Crypto7MbedTlsC2Ev, .Lfunc_end0-_ZN2ot6Crypto7MbedTlsC2Ev
	.cfi_endproc
	.file	13 "D:\\Rafael-IoT-SDK-Internal-main\\examples\\das_subg_thread\\keil" "../../../components/network/thread/subg_openthread/src/core\\common/non_copyable.hpp"
	.file	14 "D:\\Rafael-IoT-SDK-Internal-main\\examples\\das_subg_thread\\keil" "../../../components/network/thread/subg_openthread/src/core/crypto/mbedtls.hpp"
	.cantunwind
	.fnend
                                        @ -- End function
	.section	.text._ZN2ot6Crypto7MbedTls8MapErrorEi,"ax",%progbits
	.hidden	_ZN2ot6Crypto7MbedTls8MapErrorEi @ -- Begin function _ZN2ot6Crypto7MbedTls8MapErrorEi
	.globl	_ZN2ot6Crypto7MbedTls8MapErrorEi
	.p2align	1
	.type	_ZN2ot6Crypto7MbedTls8MapErrorEi,%function
	.code	16                              @ @_ZN2ot6Crypto7MbedTls8MapErrorEi
	.thumb_func
_ZN2ot6Crypto7MbedTls8MapErrorEi:
.Lfunc_begin1:
	.loc	12 66 0                         @ ../../../components/network/thread/subg_openthread/src/core/crypto/mbedtls.cpp:66:0
	.fnstart
	.cfi_startproc
@ %bb.0:
	@DEBUG_VALUE: MapError:aMbedTlsError <- $r0
	@DEBUG_VALUE: MapError:aMbedTlsError <- $r0
	.loc	12 69 5 prologue_end            @ ../../../components/network/thread/subg_openthread/src/core/crypto/mbedtls.cpp:69:5
	cmn.w	r0, #20096
	mov.w	r1, #7
.Ltmp4:
	@DEBUG_VALUE: MapError:error <- 0
	blt	.LBB1_8
.Ltmp5:
@ %bb.1:
	@DEBUG_VALUE: MapError:aMbedTlsError <- $r0
	@DEBUG_VALUE: MapError:error <- 0
	.loc	12 0 5 is_stmt 0                @ ../../../components/network/thread/subg_openthread/src/core/crypto/mbedtls.cpp:0:5
	add.w	r2, r0, #64
	cmp	r2, #12
	bls	.LBB1_12
.Ltmp6:
.LBB1_2:
	@DEBUG_VALUE: MapError:aMbedTlsError <- $r0
	@DEBUG_VALUE: MapError:error <- 0
	add.w	r2, r0, #30
	cmp	r2, #26
	bhi	.LBB1_6
.Ltmp7:
@ %bb.3:
	@DEBUG_VALUE: MapError:aMbedTlsError <- $r0
	@DEBUG_VALUE: MapError:error <- 0
	movs	r3, #1
	lsl.w	r12, r3, r2
	tst.w	r12, #5
	bne	.LBB1_13
.Ltmp8:
@ %bb.4:
	@DEBUG_VALUE: MapError:aMbedTlsError <- $r0
	@DEBUG_VALUE: MapError:error <- 0
	movw	r3, #16384
	movt	r3, #64
	tst.w	r12, r3
	bne	.LBB1_24
.Ltmp9:
@ %bb.5:
	@DEBUG_VALUE: MapError:aMbedTlsError <- $r0
	@DEBUG_VALUE: MapError:error <- 0
	movs	r3, #1
	lsl.w	r2, r3, r2
	tst.w	r2, #83886080
	bne	.LBB1_25
.Ltmp10:
.LBB1_6:
	@DEBUG_VALUE: MapError:aMbedTlsError <- $r0
	@DEBUG_VALUE: MapError:error <- 0
	.loc	12 69 5                         @ ../../../components/network/thread/subg_openthread/src/core/crypto/mbedtls.cpp:69:5
	cmn.w	r0, #20096
	bne	.LBB1_26
.Ltmp11:
@ %bb.7:
	@DEBUG_VALUE: MapError:aMbedTlsError <- $r0
	@DEBUG_VALUE: MapError:error <- 0
	.loc	12 0 5                          @ ../../../components/network/thread/subg_openthread/src/core/crypto/mbedtls.cpp:0:5
	movs	r1, #27
.Ltmp12:
	@DEBUG_VALUE: MapError:error <- 27
	b	.LBB1_25
.Ltmp13:
.LBB1_8:
	@DEBUG_VALUE: MapError:aMbedTlsError <- $r0
	@DEBUG_VALUE: MapError:error <- 0
	.loc	12 69 5                         @ ../../../components/network/thread/subg_openthread/src/core/crypto/mbedtls.cpp:69:5
	cmn.w	r0, #26752
	bge	.LBB1_14
.Ltmp14:
@ %bb.9:
	@DEBUG_VALUE: MapError:aMbedTlsError <- $r0
	@DEBUG_VALUE: MapError:error <- 0
	cmn.w	r0, #28928
	bge	.LBB1_19
.Ltmp15:
@ %bb.10:
	@DEBUG_VALUE: MapError:aMbedTlsError <- $r0
	@DEBUG_VALUE: MapError:error <- 0
	cmn.w	r0, #32512
	beq	.LBB1_24
.Ltmp16:
@ %bb.11:
	@DEBUG_VALUE: MapError:aMbedTlsError <- $r0
	@DEBUG_VALUE: MapError:error <- 0
	cmn.w	r0, #30720
	beq	.LBB1_13
	b	.LBB1_26
.Ltmp17:
.LBB1_12:
	@DEBUG_VALUE: MapError:aMbedTlsError <- $r0
	@DEBUG_VALUE: MapError:error <- 0
	.loc	12 0 5                          @ ../../../components/network/thread/subg_openthread/src/core/crypto/mbedtls.cpp:0:5
	movs	r3, #1
	lsl.w	r12, r3, r2
	movw	r3, #4121
	tst.w	r12, r3
	beq	.LBB1_17
.Ltmp18:
.LBB1_13:
	@DEBUG_VALUE: MapError:aMbedTlsError <- $r0
	@DEBUG_VALUE: MapError:error <- 0
	movs	r1, #8
.Ltmp19:
	@DEBUG_VALUE: MapError:error <- 8
	b	.LBB1_25
.Ltmp20:
.LBB1_14:
	@DEBUG_VALUE: MapError:aMbedTlsError <- $r0
	@DEBUG_VALUE: MapError:error <- 0
	.loc	12 69 5                         @ ../../../components/network/thread/subg_openthread/src/core/crypto/mbedtls.cpp:69:5
	cmn.w	r0, #20352
	bge	.LBB1_22
.Ltmp21:
@ %bb.15:
	@DEBUG_VALUE: MapError:aMbedTlsError <- $r0
	@DEBUG_VALUE: MapError:error <- 0
	cmn.w	r0, #26752
	beq	.LBB1_24
.Ltmp22:
@ %bb.16:
	@DEBUG_VALUE: MapError:aMbedTlsError <- $r0
	@DEBUG_VALUE: MapError:error <- 0
	cmn.w	r0, #26624
	beq	.LBB1_21
	b	.LBB1_26
.Ltmp23:
.LBB1_17:
	@DEBUG_VALUE: MapError:aMbedTlsError <- $r0
	@DEBUG_VALUE: MapError:error <- 0
	.loc	12 0 5                          @ ../../../components/network/thread/subg_openthread/src/core/crypto/mbedtls.cpp:0:5
	tst.w	r12, #1280
	bne	.LBB1_25
.Ltmp24:
@ %bb.18:
	@DEBUG_VALUE: MapError:aMbedTlsError <- $r0
	@DEBUG_VALUE: MapError:error <- 0
	cmp	r2, #2
	beq	.LBB1_24
	b	.LBB1_2
.Ltmp25:
.LBB1_19:
	@DEBUG_VALUE: MapError:aMbedTlsError <- $r0
	@DEBUG_VALUE: MapError:error <- 0
	.loc	12 69 5                         @ ../../../components/network/thread/subg_openthread/src/core/crypto/mbedtls.cpp:69:5
	beq	.LBB1_25
.Ltmp26:
@ %bb.20:
	@DEBUG_VALUE: MapError:aMbedTlsError <- $r0
	@DEBUG_VALUE: MapError:error <- 0
	cmn.w	r0, #26880
	bne	.LBB1_26
.Ltmp27:
.LBB1_21:
	@DEBUG_VALUE: MapError:aMbedTlsError <- $r0
	@DEBUG_VALUE: MapError:error <- 0
	.loc	12 0 5                          @ ../../../components/network/thread/subg_openthread/src/core/crypto/mbedtls.cpp:0:5
	movs	r1, #5
.Ltmp28:
	@DEBUG_VALUE: MapError:error <- 5
	b	.LBB1_25
.Ltmp29:
.LBB1_22:
	@DEBUG_VALUE: MapError:aMbedTlsError <- $r0
	@DEBUG_VALUE: MapError:error <- 0
	.loc	12 69 5                         @ ../../../components/network/thread/subg_openthread/src/core/crypto/mbedtls.cpp:69:5
	beq	.LBB1_25
.Ltmp30:
@ %bb.23:
	@DEBUG_VALUE: MapError:aMbedTlsError <- $r0
	@DEBUG_VALUE: MapError:error <- 0
	cmn.w	r0, #20224
	bne	.LBB1_26
.Ltmp31:
.LBB1_24:
	@DEBUG_VALUE: MapError:aMbedTlsError <- $r0
	@DEBUG_VALUE: MapError:error <- 0
	.loc	12 0 5                          @ ../../../components/network/thread/subg_openthread/src/core/crypto/mbedtls.cpp:0:5
	movs	r1, #3
.Ltmp32:
	@DEBUG_VALUE: MapError:error <- 3
.LBB1_25:
	@DEBUG_VALUE: MapError:aMbedTlsError <- $r0
	@DEBUG_VALUE: MapError:error <- $r1
	.loc	12 170 5 is_stmt 1              @ ../../../components/network/thread/subg_openthread/src/core/crypto/mbedtls.cpp:170:5
	mov	r0, r1
.Ltmp33:
	@DEBUG_VALUE: MapError:error <- $r0
	@DEBUG_VALUE: MapError:aMbedTlsError <- [DW_OP_LLVM_entry_value 1] $r0
	bx	lr
.Ltmp34:
.LBB1_26:
	@DEBUG_VALUE: MapError:aMbedTlsError <- $r0
	@DEBUG_VALUE: MapError:error <- 0
	.loc	12 162 13                       @ ../../../components/network/thread/subg_openthread/src/core/crypto/mbedtls.cpp:162:13
	lsrs	r0, r0, #31
.Ltmp35:
	@DEBUG_VALUE: MapError:aMbedTlsError <- [DW_OP_LLVM_entry_value 1] $r0
	bx	lr
.Ltmp36:
.Lfunc_end1:
	.size	_ZN2ot6Crypto7MbedTls8MapErrorEi, .Lfunc_end1-_ZN2ot6Crypto7MbedTls8MapErrorEi
	.cfi_endproc
	.cantunwind
	.fnend
                                        @ -- End function
	.section	.text._ZN2ot6Crypto7MbedTls16CryptoSecurePrngEPvPhj,"ax",%progbits
	.hidden	_ZN2ot6Crypto7MbedTls16CryptoSecurePrngEPvPhj @ -- Begin function _ZN2ot6Crypto7MbedTls16CryptoSecurePrngEPvPhj
	.globl	_ZN2ot6Crypto7MbedTls16CryptoSecurePrngEPvPhj
	.p2align	1
	.type	_ZN2ot6Crypto7MbedTls16CryptoSecurePrngEPvPhj,%function
	.code	16                              @ @_ZN2ot6Crypto7MbedTls16CryptoSecurePrngEPvPhj
	.thumb_func
_ZN2ot6Crypto7MbedTls16CryptoSecurePrngEPvPhj:
.Lfunc_begin2:
	.loc	12 176 0                        @ ../../../components/network/thread/subg_openthread/src/core/crypto/mbedtls.cpp:176:0
	.fnstart
	.cfi_startproc
@ %bb.0:
	@DEBUG_VALUE: CryptoSecurePrng: <- $r0
	@DEBUG_VALUE: CryptoSecurePrng:aBuffer <- $r1
	@DEBUG_VALUE: CryptoSecurePrng:aSize <- $r2
	.save	{r7, lr}
	push	{r7, lr}
	.cfi_def_cfa_offset 8
	.cfi_offset lr, -4
	.cfi_offset r7, -8
	mov	r0, r1
.Ltmp37:
	@DEBUG_VALUE: CryptoSecurePrng:aBuffer <- $r0
	@DEBUG_VALUE: CryptoSecurePrng: <- [DW_OP_LLVM_entry_value 1] $r0
	@DEBUG_VALUE: CryptoFillBuffer:aBuffer <- $r0
	@DEBUG_VALUE: FillBuffer:aBuffer <- $r0
	@DEBUG_VALUE: CryptoSecurePrng:aSize <- $r2
	@DEBUG_VALUE: CryptoSecurePrng:aBuffer <- $r0
	.file	15 "D:\\Rafael-IoT-SDK-Internal-main\\examples\\das_subg_thread\\keil" "../../../components/network/thread/subg_openthread/src/core\\common/random.hpp"
	.loc	15 87 78 prologue_end           @ ../../../components/network/thread/subg_openthread/src/core\common/random.hpp:87:78
	uxth	r1, r2
.Ltmp38:
	@DEBUG_VALUE: CryptoFillBuffer:aSize <- $r1
	@DEBUG_VALUE: FillBuffer:aSize <- $r1
	@DEBUG_VALUE: CryptoSecurePrng:aBuffer <- $r0
	bl	otPlatCryptoRandomGet
.Ltmp39:
	@DEBUG_VALUE: CryptoSecurePrng:aSize <- [DW_OP_LLVM_entry_value 1] $r2
	.loc	12 179 5                        @ ../../../components/network/thread/subg_openthread/src/core/crypto/mbedtls.cpp:179:5
	movs	r0, #0
	pop	{r7, pc}
.Ltmp40:
.Lfunc_end2:
	.size	_ZN2ot6Crypto7MbedTls16CryptoSecurePrngEPvPhj, .Lfunc_end2-_ZN2ot6Crypto7MbedTls16CryptoSecurePrngEPvPhj
	.cfi_endproc
	.cantunwind
	.fnend
                                        @ -- End function
	.section	".note.GNU-stack","",%progbits
	.eabi_attribute	30, 3	@ Tag_ABI_optimization_goals
	.ARM_attribute	16, 1	@ Tag_AV_eba