	.text
	.syntax unified
	.eabi_attribute	67, "2.09"	@ Tag_conformance
	.cpu	cortex-m3
	.eabi_attribute	6, 10	@ Tag_CPU_arch
	.eabi_attribute	7, 77	@ Tag_CPU_arch_profile
	.eabi_attribute	8, 0	@ Tag_ARM_ISA_use
	.eabi_attribute	9, 2	@ Tag_THUMB_ISA_use
	.eabi_attribute	34, 1	@ Tag_CPU_unaligned_access
	.eabi_attribute	17, 1	@ Tag_ABI_PCS_GOT_use
	.eabi_attribute	20, 2	@ Tag_ABI_FP_denormal
	.eabi_attribute	21, 0	@ Tag_ABI_FP_exceptions
	.eabi_attribute	23, 1	@ Tag_ABI_FP_number_model
	.eabi_attribute	24, 1	@ Tag_ABI_align_needed
	.eabi_attribute	25, 1	@ Tag_ABI_align_preserved
	.eabi_attribute	38, 1	@ Tag_ABI_FP_16bit_format
	.eabi_attribute	18, 4	@ Tag_ABI_PCS_wchar_t
	.eabi_attribute	26, 2	@ Tag_ABI_enum_size
	.eabi_attribute	14, 0	@ Tag_ABI_PCS_R9_use
	.file	"md.c"
	.file	1 "D:\\20240115\\rafael-iot-sdk-das\\examples\\das_subg_thread\\keil" "../../../components/network/thread/subg_openthread/third_party/mbedtls/repo/include\\mbedtls/md_internal.h"
	.file	2 "D:\\20240115\\rafael-iot-sdk-das\\examples\\das_subg_thread\\keil" "../../../components/network/thread/subg_openthread/third_party/mbedtls/repo/include\\mbedtls/md.h"
	.file	3 "D:\\20240115\\rafael-iot-sdk-das\\examples\\das_subg_thread\\keil" "../../../components/network/thread/subg_openthread/third_party/mbedtls/repo/library/md.c"
	.file	4 "C:\\Keil_v5\\ARM\\ARMCLANG\\Bin\\..\\include" "stdio.h"
	.section	.text.mbedtls_md_list,"ax",%progbits
	.hidden	mbedtls_md_list                 @ -- Begin function mbedtls_md_list
	.globl	mbedtls_md_list
	.p2align	1
	.type	mbedtls_md_list,%function
	.code	16                              @ @mbedtls_md_list
	.thumb_func
mbedtls_md_list:
.Lfunc_begin0:
	.loc	3 175 0                         @ ../../../components/network/thread/subg_openthread/third_party/mbedtls/repo/library/md.c:175:0
	.fnstart
	.cfi_sections .debug_frame
	.cfi_startproc
@ %bb.0:
	.loc	3 176 5 prologue_end            @ ../../../components/network/thread/subg_openthread/third_party/mbedtls/repo/library/md.c:176:5
	movw	r0, :lower16:supported_digests
	movt	r0, :upper16:supported_digests
	bx	lr
.Ltmp0:
.Lfunc_end0:
	.size	mbedtls_md_list, .Lfunc_end0-mbedtls_md_list
	.cfi_endproc
	.cantunwind
	.fnend
                                        @ -- End function
	.section	.text.mbedtls_md_info_from_string,"ax",%progbits
	.hidden	mbedtls_md_info_from_string     @ -- Begin function mbedtls_md_info_from_string
	.globl	mbedtls_md_info_from_string
	.p2align	1
	.type	mbedtls_md_info_from_string,%function
	.code	16                              @ @mbedtls_md_info_from_string
	.thumb_func
mbedtls_md_info_from_string:
.Lfunc_begin1:
	.loc	3 180 0                         @ ../../../components/network/thread/subg_openthread/third_party/mbedtls/repo/library/md.c:180:0
	.fnstart
	.cfi_startproc
@ %bb.0:
	@DEBUG_VALUE: mbedtls_md_info_from_string:md_name <- $r0
	@DEBUG_VALUE: mbedtls_md_info_from_string:md_name <- $r0
	.save	{r4, lr}
	push	{r4, lr}
	.cfi_def_cfa_offset 8
	.cfi_offset lr, -4
	.cfi_offset r4, -8
.Ltmp1:
	.loc	3 181 9 prologue_end            @ ../../../components/network/thread/subg_openthread/third_party/mbedtls/repo/library/md.c:181:9
	cbz	r0, .LBB1_3
.Ltmp2:
@ %bb.1:
	@DEBUG_VALUE: mbedtls_md_info_from_string:md_name <- $r0
	.loc	3 0 9 is_stmt 0                 @ ../../../components/network/thread/subg_openthread/third_party/mbedtls/repo/library/md.c:0:9
	mov	r4, r0
.Ltmp3:
	@DEBUG_VALUE: mbedtls_md_info_from_string:md_name <- $r4
	@DEBUG_VALUE: mbedtls_md_info_from_string:md_name <- $r4
	.loc	3 206 10 is_stmt 1              @ ../../../components/network/thread/subg_openthread/third_party/mbedtls/repo/library/md.c:206:10
	movw	r0, :lower16:.L.str
	movt	r0, :upper16:.L.str
	mov	r1, r4
	bl	strcmp
.Ltmp4:
	.loc	3 206 9 is_stmt 0               @ ../../../components/network/thread/subg_openthread/third_party/mbedtls/repo/library/md.c:206:9
	cbz	r0, .LBB1_4
.Ltmp5:
@ %bb.2:
	@DEBUG_VALUE: mbedtls_md_info_from_string:md_name <- $r4
	.loc	3 208 10 is_stmt 1              @ ../../../components/network/thread/subg_openthread/third_party/mbedtls/repo/library/md.c:208:10
	movw	r0, :lower16:.L.str.1
	movt	r0, :upper16:.L.str.1
	mov	r1, r4
	bl	strcmp
.Ltmp6:
	.loc	3 208 9 is_stmt 0               @ ../../../components/network/thread/subg_openthread/third_party/mbedtls/repo/library/md.c:208:9
	movw	r1, :lower16:mbedtls_sha256_info
	movt	r1, :upper16:mbedtls_sha256_info
	cmp	r0, #0
	it	ne
	movne	r1, #0
	mov	r0, r1
	.loc	3 0 0                           @ ../../../components/network/thread/subg_openthread/third_party/mbedtls/repo/library/md.c:0:0
	pop	{r4, pc}
.Ltmp7:
.LBB1_3:
	@DEBUG_VALUE: mbedtls_md_info_from_string:md_name <- $r0
	movs	r0, #0
.Ltmp8:
	@DEBUG_VALUE: mbedtls_md_info_from_string:md_name <- [DW_OP_LLVM_entry_value 1] $r0
	pop	{r4, pc}
.Ltmp9:
.LBB1_4:
	@DEBUG_VALUE: mbedtls_md_info_from_string:md_name <- $r4
	movw	r0, :lower16:mbedtls_sha224_info
	movt	r0, :upper16:mbedtls_sha224_info
	pop	{r4, pc}
.Ltmp10:
.Lfunc_end1:
	.size	mbedtls_md_info_from_string, .Lfunc_end1-mbedtls_md_info_from_string
	.cfi_endproc
	.cantunwind
	.fnend
                                        @ -- End function
	.section	.text.mbedtls_md_info_from_type,"ax",%progbits
	.hidden	mbedtls_md_info_from_type       @ -- Begin function mbedtls_md_info_from_type
	.globl	mbedtls_md_info_from_type
	.p2align	1
	.type	mbedtls_md_info_from_type,%function
	.code	16                              @ @mbedtls_md_info_from_type
	.thumb_func
mbedtls_md_info_from_type:
.Lfunc_begin2:
	.loc	3 223 0 is_stmt 1               @ ../../../components/network/thread/subg_openthread/third_party/mbedtls/repo/library/md.c:223:0
	.fnstart
	.cfi_startproc
@ %bb.0:
	@DEBUG_VALUE: mbedtls_md_info_from_type:md_type <- $r0
	@DEBUG_VALUE: mbedtls_md_info_from_type:md_type <- $r0
	.loc	3 224 5 prologue_end            @ ../../../components/network/thread/subg_openthread/third_party/mbedtls/repo/library/md.c:224:5
	movw	r2, :lower16:mbedtls_sha256_info
	movw	r1, :lower16:mbedtls_sha224_info
	movt	r2, :upper16:mbedtls_sha256_info
	cmp	r0, #6
	movt	r1, :upper16:mbedtls_sha224_info
	it	ne
	movne	r2, #0
	cmp	r0, #5
	it	ne
	movne	r1, r2
	.loc	3 263 1                         @ ../../../components/network/thread/subg_openthread/third_party/mbedtls/repo/library/md.c:263:1
	mov	r0, r1
.Ltmp11:
	@DEBUG_VALUE: mbedtls_md_info_from_type:md_type <- [DW_OP_LLVM_entry_value 1] $r0
	bx	lr
.Ltmp12:
.Lfunc_end2:
	.size	mbedtls_md_info_from_type, .Lfunc_end2-mbedtls_md_info_from_type
	.cfi_endproc
	.cantunwind
	.fnend
                                        @ -- End function
	.section	.text.mbedtls_md_init,"ax",%progbits
	.hidden	mbedtls_md_init                 @ -- Begin function mbedtls_md_init
	.globl	mbedtls_md_init
	.p2align	1
	.type	mbedtls_md_init,%function
	.code	16                              @ @mbedtls_md_init
	.thumb_func
mbedtls_md_init:
.Lfunc_begin3:
	.loc	3 266 0                         @ ../../../components/network/thread/subg_openthread/third_party/mbedtls/repo/library/md.c:266:0
	.fnstart
	.cfi_startproc
@ %bb.0:
	@DEBUG_VALUE: mbedtls_md_init:ctx <- $r0
	movs	r1, #0
	@DEBUG_VALUE: mbedtls_md_init:ctx <- $r0
.Ltmp13:
	.loc	3 267 5 prologue_end            @ ../../../components/network/thread/subg_openthread/third_party/mbedtls/repo/library/md.c:267:5
	strd	r1, r1, [r0]
	str	r1, [r0, #8]
	.loc	3 268 1                         @ ../../../components/network/thread/subg_openthread/third_party/mbedtls/repo/library/md.c:268:1
	bx	lr
.Ltmp14:
.Lfunc_end3:
	.size	mbedtls_md_init, .Lfunc_end3-mbedtls_md_init
	.cfi_endproc
	.cantunwind
	.fnend
                                        @ -- End function
	.section	.text.mbedtls_md_free,"ax",%progbits
	.hidden	mbedtls_md_free                 @ -- Begin function mbedtls_md_free
	.globl	mbedtls_md_free
	.p2align	1
	.type	mbedtls_md_free,%function
	.code	16                              @ @mbedtls_md_free
	.thumb_func
mbedtls_md_free:
.Lfunc_begin4:
	.loc	3 271 0                         @ ../../../components/network/thread/subg_openthread/third_party/mbedtls/repo/library/md.c:271:0
	.fnstart
	.cfi_startproc
@ %bb.0:
	@DEBUG_VALUE: mbedtls_md_free:ctx <- $r0
	@DEBUG_VALUE: mbedtls_md_free:ctx <- $r0
	.save	{r4, lr}
	push	{r4, lr}
	.cfi_def_cfa_offset 8
	.cfi_offset lr, -4
	.cfi_offset r4, -8
.Ltmp15:
	.loc	3 272 21 prologue_end           @ ../../../components/network/thread/subg_openthread/third_party/mbedtls/repo/library/md.c:272:21
	cbz	r0, .LBB4_9
.Ltmp16:
@ %bb.1:
	@DEBUG_VALUE: mbedtls_md_free:ctx <- $r0
	.loc	3 272 29 is_stmt 0              @ ../../../components/network/thread/subg_openthread/third_party/mbedtls/repo/library/md.c:272:29
	ldr	r1, [r0]
	mov	r4, r0
.Ltmp17:
	@DEBUG_VALUE: mbedtls_md_free:ctx <- $r4
	@DEBUG_VALUE: mbedtls_md_free:ctx <- $r4
	.loc	3 272 9                         @ ../../../components/network/thread/subg_openthread/third_party/mbedtls/repo/library/md.c:272:9
	cbz	r1, .LBB4_9
.Ltmp18:
@ %bb.2:
	@DEBUG_VALUE: mbedtls_md_free:ctx <- $r4
	.loc	3 275 14 is_stmt 1              @ ../../../components/network/thread/subg_openthread/third_party/mbedtls/repo/library/md.c:275:14
	ldr	r0, [r4, #4]
.Ltmp19:
	.loc	3 275 9 is_stmt 0               @ ../../../components/network/thread/subg_openthread/third_party/mbedtls/repo/library/md.c:275:9
	cbz	r0, .LBB4_6
.Ltmp20:
@ %bb.3:
	@DEBUG_VALUE: mbedtls_md_free:ctx <- $r4
	.loc	3 277 31 is_stmt 1              @ ../../../components/network/thread/subg_openthread/third_party/mbedtls/repo/library/md.c:277:31
	ldr	r1, [r1, #4]
	.loc	3 277 9 is_stmt 0               @ ../../../components/network/thread/subg_openthread/third_party/mbedtls/repo/library/md.c:277:9
	subs	r1, #5
	cmp	r1, #1
	bhi	.LBB4_5
.Ltmp21:
@ %bb.4:
	@DEBUG_VALUE: mbedtls_md_free:ctx <- $r4
	.loc	3 307 17 is_stmt 1              @ ../../../components/network/thread/subg_openthread/third_party/mbedtls/repo/library/md.c:307:17
	bl	mbedtls_sha256_free
.Ltmp22:
	.loc	3 322 28                        @ ../../../components/network/thread/subg_openthread/third_party/mbedtls/repo/library/md.c:322:28
	ldr	r0, [r4, #4]
.Ltmp23:
.LBB4_5:
	@DEBUG_VALUE: mbedtls_md_free:ctx <- $r4
	.loc	3 322 9 is_stmt 0               @ ../../../components/network/thread/subg_openthread/third_party/mbedtls/repo/library/md.c:322:9
	bl	mbedtls_free
.Ltmp24:
.LBB4_6:
	@DEBUG_VALUE: mbedtls_md_free:ctx <- $r4
	.loc	3 325 14 is_stmt 1              @ ../../../components/network/thread/subg_openthread/third_party/mbedtls/repo/library/md.c:325:14
	ldr	r0, [r4, #8]
.Ltmp25:
	.loc	3 325 9 is_stmt 0               @ ../../../components/network/thread/subg_openthread/third_party/mbedtls/repo/library/md.c:325:9
	cbz	r0, .LBB4_8
.Ltmp26:
@ %bb.7:
	@DEBUG_VALUE: mbedtls_md_free:ctx <- $r4
	.loc	3 328 44 is_stmt 1              @ ../../../components/network/thread/subg_openthread/third_party/mbedtls/repo/library/md.c:328:44
	ldr	r1, [r4]
	.loc	3 328 53 is_stmt 0              @ ../../../components/network/thread/subg_openthread/third_party/mbedtls/repo/library/md.c:328:53
	ldrb	r1, [r1, #9]
	.loc	3 328 37                        @ ../../../components/network/thread/subg_openthread/third_party/mbedtls/repo/library/md.c:328:37
	lsls	r1, r1, #1
	.loc	3 327 9 is_stmt 1               @ ../../../components/network/thread/subg_openthread/third_party/mbedtls/repo/library/md.c:327:9
	bl	mbedtls_platform_zeroize
.Ltmp27:
	.loc	3 329 28                        @ ../../../components/network/thread/subg_openthread/third_party/mbedtls/repo/library/md.c:329:28
	ldr	r0, [r4, #8]
	.loc	3 329 9 is_stmt 0               @ ../../../components/network/thread/subg_openthread/third_party/mbedtls/repo/library/md.c:329:9
	bl	mbedtls_free
.Ltmp28:
.LBB4_8:
	@DEBUG_VALUE: mbedtls_md_free:ctx <- $r4
	.loc	3 332 5 is_stmt 1               @ ../../../components/network/thread/subg_openthread/third_party/mbedtls/repo/library/md.c:332:5
	mov	r0, r4
	movs	r1, #12
	pop.w	{r4, lr}
.Ltmp29:
	@DEBUG_VALUE: mbedtls_md_free:ctx <- [DW_OP_LLVM_entry_value 1] $r0
	b	mbedtls_platform_zeroize
.Ltmp30:
.LBB4_9:
	.loc	3 333 1                         @ ../../../components/network/thread/subg_openthread/third_party/mbedtls/repo/library/md.c:333:1
	pop	{r4, pc}
.Ltmp31:
.Lfunc_end4:
	.size	mbedtls_md_free, .Lfunc_end4-mbedtls_md_free
	.cfi_endproc
	.file	5 "D:\\20240115\\rafael-iot-sdk-das\\examples\\das_subg_thread\\keil" "../../../components/network/thread/subg_openthread/third_party/mbedtls/repo/include\\mbedtls/platform_util.h"
	.cantunwind
	.fnend
                                        @ -- End function
	.section	.text.mbedtls_md_clone,"ax",%progbits
	.hidden	mbedtls_md_clone                @ -- Begin function mbedtls_md_clone
	.globl	mbedtls_md_clone
	.p2align	1
	.type	mbedtls_md_clone,%function
	.code	16                              @ @mbedtls_md_clone
	.thumb_func
mbedtls_md_clone:
.Lfunc_begin5:
	.loc	3 337 0                         @ ../../../components/network/thread/subg_openthread/third_party/mbedtls/repo/library/md.c:337:0
	.fnstart
	.cfi_startproc
@ %bb.0:
	@DEBUG_VALUE: mbedtls_md_clone:dst <- $r0
	@DEBUG_VALUE: mbedtls_md_clone:src <- $r1
	.save	{r7, lr}
	push	{r7, lr}
	.cfi_def_cfa_offset 8
	.cfi_offset lr, -4
	.cfi_offset r7, -8
	mov	r2, r0
	@DEBUG_VALUE: mbedtls_md_clone:src <- $r1
.Ltmp32:
	@DEBUG_VALUE: mbedtls_md_clone:dst <- $r2
	.loc	3 338 21 prologue_end           @ ../../../components/network/thread/subg_openthread/third_party/mbedtls/repo/library/md.c:338:21
	cmp	r0, #0
	movw	r0, #44800
	movt	r0, #65535
	.loc	3 338 45 is_stmt 0              @ ../../../components/network/thread/subg_openthread/third_party/mbedtls/repo/library/md.c:338:45
	it	ne
	cmpne	r1, #0
	bne	.LBB5_2
.Ltmp33:
.LBB5_1:
	@DEBUG_VALUE: mbedtls_md_clone:dst <- $r2
	@DEBUG_VALUE: mbedtls_md_clone:src <- $r1
	.loc	3 391 1 is_stmt 1               @ ../../../components/network/thread/subg_openthread/third_party/mbedtls/repo/library/md.c:391:1
	pop	{r7, pc}
.Ltmp34:
.LBB5_2:
	@DEBUG_VALUE: mbedtls_md_clone:dst <- $r2
	@DEBUG_VALUE: mbedtls_md_clone:src <- $r1
	.loc	3 0 0 is_stmt 0                 @ ../../../components/network/thread/subg_openthread/third_party/mbedtls/repo/library/md.c:0:0
	ldr	r3, [r2]
	.loc	3 338 45 is_stmt 1              @ ../../../components/network/thread/subg_openthread/third_party/mbedtls/repo/library/md.c:338:45
	cmp	r3, #0
	beq	.LBB5_1
.Ltmp35:
@ %bb.3:
	@DEBUG_VALUE: mbedtls_md_clone:dst <- $r2
	@DEBUG_VALUE: mbedtls_md_clone:src <- $r1
	.loc	3 339 29                        @ ../../../components/network/thread/subg_openthread/third_party/mbedtls/repo/library/md.c:339:29
	ldr.w	r12, [r1]
	.loc	3 339 45 is_stmt 0              @ ../../../components/network/thread/subg_openthread/third_party/mbedtls/repo/library/md.c:339:45
	cmp.w	r12, #0
	beq	.LBB5_1
.Ltmp36:
@ %bb.4:
	@DEBUG_VALUE: mbedtls_md_clone:dst <- $r2
	@DEBUG_VALUE: mbedtls_md_clone:src <- $r1
	cmp	r3, r12
	bne	.LBB5_1
.Ltmp37:
@ %bb.5:
	@DEBUG_VALUE: mbedtls_md_clone:dst <- $r2
	@DEBUG_VALUE: mbedtls_md_clone:src <- $r1
	.loc	3 345 27 is_stmt 1              @ ../../../components/network/thread/subg_openthread/third_party/mbedtls/repo/library/md.c:345:27
	ldr	r3, [r3, #4]
	.loc	3 345 5 is_stmt 0               @ ../../../components/network/thread/subg_openthread/third_party/mbedtls/repo/library/md.c:345:5
	subs	r3, #5
	cmp	r3, #1
	.loc	3 391 1 is_stmt 1               @ ../../../components/network/thread/subg_openthread/third_party/mbedtls/repo/library/md.c:391:1
	it	hi
	pophi	{r7, pc}
.Ltmp38:
.LBB5_6:
	@DEBUG_VALUE: mbedtls_md_clone:dst <- $r2
	@DEBUG_VALUE: mbedtls_md_clone:src <- $r1
	.loc	3 375 40                        @ ../../../components/network/thread/subg_openthread/third_party/mbedtls/repo/library/md.c:375:40
	ldr	r0, [r2, #4]
	.loc	3 375 53 is_stmt 0              @ ../../../components/network/thread/subg_openthread/third_party/mbedtls/repo/library/md.c:375:53
	ldr	r1, [r1, #4]
.Ltmp39:
	@DEBUG_VALUE: mbedtls_md_clone:src <- [DW_OP_LLVM_entry_value 1] $r1
	.loc	3 375 13                        @ ../../../components/network/thread/subg_openthread/third_party/mbedtls/repo/library/md.c:375:13
	bl	mbedtls_sha256_clone
.Ltmp40:
	.loc	3 0 13                          @ ../../../components/network/thread/subg_openthread/third_party/mbedtls/repo/library/md.c:0:13
	movs	r0, #0
.Ltmp41:
	.loc	3 391 1 is_stmt 1               @ ../../../components/network/thread/subg_openthread/third_party/mbedtls/repo/library/md.c:391:1
	pop	{r7, pc}
.Ltmp42:
.Lfunc_end5:
	.size	mbedtls_md_clone, .Lfunc_end5-mbedtls_md_clone
	.cfi_endproc
	.cantunwind
	.fnend
                                        @ -- End function
	.section	.text.mbedtls_md_init_ctx,"ax",%progbits
	.hidden	mbedtls_md_init_ctx             @ -- Begin function mbedtls_md_init_ctx
	.globl	mbedtls_md_init_ctx
	.p2align	1
	.type	mbedtls_md_init_ctx,%function
	.code	16                              @ @mbedtls_md_init_ctx
	.thumb_func
mbedtls_md_init_ctx:
.Lfunc_begin6:
	.loc	3 395 0                         @ ../../../components/network/thread/subg_openthread/third_party/mbedtls/repo/library/md.c:395:0
	.fnstart
	.cfi_startproc
@ %bb.0:
	@DEBUG_VALUE: mbedtls_md_init_ctx:ctx <- $r0
	@DEBUG_VALUE: mbedtls_md_init_ctx:ctx <- $r0
	@DEBUG_VALUE: mbedtls_md_init_ctx:ctx <- $r0
	@DEBUG_VALUE: mbedtls_md_init_ctx:md_info <- $r1
	@DEBUG_VALUE: mbedtls_md_init_ctx:md_info <- $r1
	@DEBUG_VALUE: mbedtls_md_init_ctx:md_info <- $r1
	.loc	3 396 12 prologue_end           @ ../../../components/network/thread/subg_openthread/third_party/mbedtls/repo/library/md.c:396:12
	movs	r2, #1
.Ltmp43:
	b	mbedtls_md_setup
.Ltmp44:
.Lfunc_end6:
	.size	mbedtls_md_init_ctx, .Lfunc_end6-mbedtls_md_init_ctx
	.cfi_endproc
	.cantunwind
	.fnend
                                        @ -- End function
	.section	.text.mbedtls_md_setup,"ax",%progbits
	.hidden	mbedtls_md_setup                @ -- Begin function mbedtls_md_setup
	.globl	mbedtls_md_setup
	.p2align	1
	.type	mbedtls_md_setup,%function
	.code	16                              @ @mbedtls_md_setup
	.thumb_func
mbedtls_md_setup:
.Lfunc_begin7:
	.loc	3 410 0                         @ ../../../components/network/thread/subg_openthread/third_party/mbedtls/repo/library/md.c:410:0
	.fnstart
	.cfi_startproc
@ %bb.0:
	@DEBUG_VALUE: mbedtls_md_setup:ctx <- $r0
	@DEBUG_VALUE: mbedtls_md_setup:md_info <- $r1
	@DEBUG_VALUE: mbedtls_md_setup:hmac <- $r2
	.save	{r4, r5, r6, r7, lr}
	push	{r4, r5, r6, r7, lr}
	.cfi_def_cfa_offset 20
	.cfi_offset lr, -4
	.cfi_offset r7, -8
	.cfi_offset r6, -12
	.cfi_offset r5, -16
	.cfi_offset r4, -20
	.pad	#4
	sub	sp, #4
	.cfi_def_cfa_offset 24
	movw	r7, #44672
	movt	r7, #65535
	@DEBUG_VALUE: mbedtls_md_setup:hmac <- $r2
	@DEBUG_VALUE: mbedtls_md_setup:md_info <- $r1
.Ltmp45:
	@DEBUG_VALUE: mbedtls_md_setup:ctx <- $r4
	mov	r4, r0
.Ltmp46:
	.loc	3 411 25 prologue_end           @ ../../../components/network/thread/subg_openthread/third_party/mbedtls/repo/library/md.c:411:25
	cmp	r0, #0
.Ltmp47:
	.loc	3 0 0 is_stmt 0                 @ ../../../components/network/thread/subg_openthread/third_party/mbedtls/repo/library/md.c:0:0
	add.w	r0, r7, #128
.Ltmp48:
	.loc	3 411 25                        @ ../../../components/network/thread/subg_openthread/third_party/mbedtls/repo/library/md.c:411:25
	beq	.LBB7_9
.Ltmp49:
@ %bb.1:
	@DEBUG_VALUE: mbedtls_md_setup:hmac <- $r2
	@DEBUG_VALUE: mbedtls_md_setup:md_info <- $r1
	@DEBUG_VALUE: mbedtls_md_setup:hmac <- $r2
	.loc	3 0 25                          @ ../../../components/network/thread/subg_openthread/third_party/mbedtls/repo/library/md.c:0:25
	mov	r5, r1
.Ltmp50:
	@DEBUG_VALUE: mbedtls_md_setup:md_info <- $r5
	.loc	3 411 25                        @ ../../../components/network/thread/subg_openthread/third_party/mbedtls/repo/library/md.c:411:25
	cbz	r1, .LBB7_9
.Ltmp51:
@ %bb.2:
	@DEBUG_VALUE: mbedtls_md_setup:md_info <- $r5
	@DEBUG_VALUE: mbedtls_md_setup:hmac <- $r2
	.loc	3 0 25                          @ ../../../components/network/thread/subg_openthread/third_party/mbedtls/repo/library/md.c:0:25
	mov	r6, r2
.Ltmp52:
	@DEBUG_VALUE: mbedtls_md_setup:hmac <- $r6
	@DEBUG_VALUE: mbedtls_md_setup:hmac <- $r6
	.loc	3 418 22 is_stmt 1              @ ../../../components/network/thread/subg_openthread/third_party/mbedtls/repo/library/md.c:418:22
	ldr	r2, [r5, #4]
	movs	r1, #0
	.loc	3 418 5 is_stmt 0               @ ../../../components/network/thread/subg_openthread/third_party/mbedtls/repo/library/md.c:418:5
	subs	r2, #5
	cmp	r2, #1
	.loc	3 414 18 is_stmt 1              @ ../../../components/network/thread/subg_openthread/third_party/mbedtls/repo/library/md.c:414:18
	str	r5, [r4]
	.loc	3 415 17                        @ ../../../components/network/thread/subg_openthread/third_party/mbedtls/repo/library/md.c:415:17
	str	r1, [r4, #4]
	.loc	3 416 19                        @ ../../../components/network/thread/subg_openthread/third_party/mbedtls/repo/library/md.c:416:19
	str	r1, [r4, #8]
	.loc	3 418 5                         @ ../../../components/network/thread/subg_openthread/third_party/mbedtls/repo/library/md.c:418:5
	bhi	.LBB7_9
.Ltmp53:
@ %bb.3:
	@DEBUG_VALUE: mbedtls_md_setup:hmac <- $r6
	@DEBUG_VALUE: mbedtls_md_setup:md_info <- $r5
	.loc	3 448 13                        @ ../../../components/network/thread/subg_openthread/third_party/mbedtls/repo/library/md.c:448:13
	movs	r0, #1
	movs	r1, #108
	bl	mbedtls_calloc
.Ltmp54:
	str	r0, [r4, #4]
	cbz	r0, .LBB7_8
.Ltmp55:
@ %bb.4:
	@DEBUG_VALUE: mbedtls_md_setup:hmac <- $r6
	@DEBUG_VALUE: mbedtls_md_setup:md_info <- $r5
	bl	mbedtls_sha256_init
.Ltmp56:
	.loc	3 463 9                         @ ../../../components/network/thread/subg_openthread/third_party/mbedtls/repo/library/md.c:463:9
	cbz	r6, .LBB7_6
.Ltmp57:
@ %bb.5:
	@DEBUG_VALUE: mbedtls_md_setup:hmac <- $r6
	@DEBUG_VALUE: mbedtls_md_setup:md_info <- $r5
	.loc	3 465 53                        @ ../../../components/network/thread/subg_openthread/third_party/mbedtls/repo/library/md.c:465:53
	ldrb	r1, [r5, #9]
	.loc	3 465 25 is_stmt 0              @ ../../../components/network/thread/subg_openthread/third_party/mbedtls/repo/library/md.c:465:25
	movs	r0, #2
	bl	mbedtls_calloc
.Ltmp58:
	.loc	3 465 23                        @ ../../../components/network/thread/subg_openthread/third_party/mbedtls/repo/library/md.c:465:23
	str	r0, [r4, #8]
	.loc	3 466 13 is_stmt 1              @ ../../../components/network/thread/subg_openthread/third_party/mbedtls/repo/library/md.c:466:13
	cbz	r0, .LBB7_7
.Ltmp59:
.LBB7_6:
	@DEBUG_VALUE: mbedtls_md_setup:hmac <- $r6
	@DEBUG_VALUE: mbedtls_md_setup:md_info <- $r5
	.loc	3 0 13 is_stmt 0                @ ../../../components/network/thread/subg_openthread/third_party/mbedtls/repo/library/md.c:0:13
	movs	r0, #0
	b	.LBB7_9
.Ltmp60:
.LBB7_7:
	@DEBUG_VALUE: mbedtls_md_setup:hmac <- $r6
	@DEBUG_VALUE: mbedtls_md_setup:md_info <- $r5
	.loc	3 468 13 is_stmt 1              @ ../../../components/network/thread/subg_openthread/third_party/mbedtls/repo/library/md.c:468:13
	mov	r0, r4
	bl	mbedtls_md_free
.Ltmp61:
.LBB7_8:
	@DEBUG_VALUE: mbedtls_md_setup:hmac <- $r6
	@DEBUG_VALUE: mbedtls_md_setup:md_info <- $r5
	.loc	3 0 0 is_stmt 0                 @ ../../../components/network/thread/subg_openthread/third_party/mbedtls/repo/library/md.c:0:0
	mov	r0, r7
.Ltmp62:
.LBB7_9:
	.loc	3 474 1 is_stmt 1               @ ../../../components/network/thread/subg_openthread/third_party/mbedtls/repo/library/md.c:474:1
	add	sp, #4
	pop	{r4, r5, r6, r7, pc}
.Ltmp63:
.Lfunc_end7:
	.size	mbedtls_md_setup, .Lfunc_end7-mbedtls_md_setup
	.cfi_endproc
	.cantunwind
	.fnend
                                        @ -- End function
	.section	.text.mbedtls_md_starts,"ax",%progbits
	.hidden	mbedtls_md_starts               @ -- Begin function mbedtls_md_starts
	.globl	mbedtls_md_starts
	.p2align	1
	.type	mbedtls_md_starts,%function
	.code	16                              @ @mbedtls_md_starts
	.thumb_func
mbedtls_md_starts:
.Lfunc_begin8:
	.loc	3 478 0                         @ ../../../components/network/thread/subg_openthread/third_party/mbedtls/repo/library/md.c:478:0
	.fnstart
	.cfi_startproc
@ %bb.0:
	@DEBUG_VALUE: mbedtls_md_starts:ctx <- $r0
	@DEBUG_VALUE: mbedtls_md_starts:ctx <- $r0
	.loc	3 479 21 prologue_end           @ ../../../components/network/thread/subg_openthread/third_party/mbedtls/repo/library/md.c:479:21
	cbz	r0, .LBB8_5
.Ltmp64:
@ %bb.1:
	@DEBUG_VALUE: mbedtls_md_starts:ctx <- $r0
	.loc	3 479 29 is_stmt 0              @ ../../../components/network/thread/subg_openthread/third_party/mbedtls/repo/library/md.c:479:29
	ldr	r1, [r0]
.Ltmp65:
	.loc	3 479 9                         @ ../../../components/network/thread/subg_openthread/third_party/mbedtls/repo/library/md.c:479:9
	cbz	r1, .LBB8_5
.Ltmp66:
@ %bb.2:
	@DEBUG_VALUE: mbedtls_md_starts:ctx <- $r0
	.loc	3 482 27 is_stmt 1              @ ../../../components/network/thread/subg_openthread/third_party/mbedtls/repo/library/md.c:482:27
	ldr	r1, [r1, #4]
	.loc	3 482 5 is_stmt 0               @ ../../../components/network/thread/subg_openthread/third_party/mbedtls/repo/library/md.c:482:5
	cmp	r1, #6
	beq	.LBB8_6
.Ltmp67:
@ %bb.3:
	@DEBUG_VALUE: mbedtls_md_starts:ctx <- $r0
	cmp	r1, #5
	bne	.LBB8_5
.Ltmp68:
@ %bb.4:
	@DEBUG_VALUE: mbedtls_md_starts:ctx <- $r0
	.loc	3 506 53 is_stmt 1              @ ../../../components/network/thread/subg_openthread/third_party/mbedtls/repo/library/md.c:506:53
	ldr	r0, [r0, #4]
.Ltmp69:
	@DEBUG_VALUE: mbedtls_md_starts:ctx <- [DW_OP_LLVM_entry_value 1] $r0
	.loc	3 506 21 is_stmt 0              @ ../../../components/network/thread/subg_openthread/third_party/mbedtls/repo/library/md.c:506:21
	movs	r1, #1
.Ltmp70:
	b	mbedtls_sha256_starts_ret
.Ltmp71:
.LBB8_5:
	@DEBUG_VALUE: mbedtls_md_starts:ctx <- $r0
	.loc	3 0 21                          @ ../../../components/network/thread/subg_openthread/third_party/mbedtls/repo/library/md.c:0:21
	movw	r0, #44800
.Ltmp72:
	@DEBUG_VALUE: mbedtls_md_starts:ctx <- [DW_OP_LLVM_entry_value 1] $r0
	movt	r0, #65535
	.loc	3 521 1 is_stmt 1               @ ../../../components/network/thread/subg_openthread/third_party/mbedtls/repo/library/md.c:521:1
	bx	lr
.Ltmp73:
.LBB8_6:
	@DEBUG_VALUE: mbedtls_md_starts:ctx <- $r0
	.loc	3 508 53                        @ ../../../components/network/thread/subg_openthread/third_party/mbedtls/repo/library/md.c:508:53
	ldr	r0, [r0, #4]
.Ltmp74:
	@DEBUG_VALUE: mbedtls_md_starts:ctx <- [DW_OP_LLVM_entry_value 1] $r0
	.loc	3 508 21 is_stmt 0              @ ../../../components/network/thread/subg_openthread/third_party/mbedtls/repo/library/md.c:508:21
	movs	r1, #0
.Ltmp75:
	b	mbedtls_sha256_starts_ret
.Ltmp76:
.Lfunc_end8:
	.size	mbedtls_md_starts, .Lfunc_end8-mbedtls_md_starts
	.cfi_endproc
	.file	6 "D:\\20240115\\rafael-iot-sdk-das\\examples\\das_subg_thread\\keil" "../../../components/network/thread/subg_openthread/third_party/mbedtls/repo/include\\mbedtls/sha256.h"
	.file	7 "C:\\Keil_v5\\ARM\\ARMCLANG\\Bin\\..\\include" "stdint.h"
	.cantunwind
	.fnend
                                        @ -- End function
	.section	.text.mbedtls_md_update,"ax",%progbits
	.hidden	mbedtls_md_update               @ -- Begin function mbedtls_md_update
	.globl	mbedtls_md_update
	.p2align	1
	.type	mbedtls_md_update,%function
	.code	16                              @ @mbedtls_md_update
	.thumb_func
mbedtls_md_update:
.Lfunc_begin9:
	.loc	3 524 0 is_stmt 1               @ ../../../components/network/thread/subg_openthread/third_party/mbedtls/repo/library/md.c:524:0
	.fnstart
	.cfi_startproc
@ %bb.0:
	@DEBUG_VALUE: mbedtls_md_update:ctx <- $r0
	@DEBUG_VALUE: mbedtls_md_update:ctx <- $r0
	@DEBUG_VALUE: mbedtls_md_update:input <- $r1
	@DEBUG_VALUE: mbedtls_md_update:ilen <- $r2
	@DEBUG_VALUE: mbedtls_md_update:ilen <- $r2
	@DEBUG_VALUE: mbedtls_md_update:input <- $r1
	.loc	3 525 21 prologue_end           @ ../../../components/network/thread/subg_openthread/third_party/mbedtls/repo/library/md.c:525:21
	cbz	r0, .LBB9_4
.Ltmp77:
@ %bb.1:
	@DEBUG_VALUE: mbedtls_md_update:ilen <- $r2
	@DEBUG_VALUE: mbedtls_md_update:input <- $r1
	@DEBUG_VALUE: mbedtls_md_update:ctx <- $r0
	.loc	3 525 29 is_stmt 0              @ ../../../components/network/thread/subg_openthread/third_party/mbedtls/repo/library/md.c:525:29
	ldr	r3, [r0]
.Ltmp78:
	.loc	3 525 9                         @ ../../../components/network/thread/subg_openthread/third_party/mbedtls/repo/library/md.c:525:9
	cbz	r3, .LBB9_4
.Ltmp79:
@ %bb.2:
	@DEBUG_VALUE: mbedtls_md_update:ilen <- $r2
	@DEBUG_VALUE: mbedtls_md_update:input <- $r1
	@DEBUG_VALUE: mbedtls_md_update:ctx <- $r0
	.loc	3 528 27 is_stmt 1              @ ../../../components/network/thread/subg_openthread/third_party/mbedtls/repo/library/md.c:528:27
	ldr	r3, [r3, #4]
	.loc	3 528 5 is_stmt 0               @ ../../../components/network/thread/subg_openthread/third_party/mbedtls/repo/library/md.c:528:5
	subs	r3, #5
	cmp	r3, #1
	bhi	.LBB9_4
.Ltmp80:
@ %bb.3:
	@DEBUG_VALUE: mbedtls_md_update:ilen <- $r2
	@DEBUG_VALUE: mbedtls_md_update:input <- $r1
	@DEBUG_VALUE: mbedtls_md_update:ctx <- $r0
	.loc	3 553 53 is_stmt 1              @ ../../../components/network/thread/subg_openthread/third_party/mbedtls/repo/library/md.c:553:53
	ldr	r0, [r0, #4]
.Ltmp81:
	@DEBUG_VALUE: mbedtls_md_update:ctx <- [DW_OP_LLVM_entry_value 1] $r0
	.loc	3 553 21 is_stmt 0              @ ../../../components/network/thread/subg_openthread/third_party/mbedtls/repo/library/md.c:553:21
	b	mbedtls_sha256_update_ret
.Ltmp82:
.LBB9_4:
	@DEBUG_VALUE: mbedtls_md_update:ilen <- $r2
	@DEBUG_VALUE: mbedtls_md_update:input <- $r1
	@DEBUG_VALUE: mbedtls_md_update:ctx <- $r0
	.loc	3 0 21                          @ ../../../components/network/thread/subg_openthread/third_party/mbedtls/repo/library/md.c:0:21
	movw	r0, #44800
.Ltmp83:
	@DEBUG_VALUE: mbedtls_md_update:ctx <- [DW_OP_LLVM_entry_value 1] $r0
	movt	r0, #65535
	.loc	3 565 1 is_stmt 1               @ ../../../components/network/thread/subg_openthread/third_party/mbedtls/repo/library/md.c:565:1
	bx	lr
.Ltmp84:
.Lfunc_end9:
	.size	mbedtls_md_update, .Lfunc_end9-mbedtls_md_update
	.cfi_endproc
	.cantunwind
	.fnend
                                        @ -- End function
	.section	.text.mbedtls_md_finish,"ax",%progbits
	.hidden	mbedtls_md_finish               @ -- Begin function mbedtls_md_finish
	.globl	mbedtls_md_finish
	.p2align	1
	.type	mbedtls_md_finish,%function
	.code	16                              @ @mbedtls_md_finish
	.thumb_func
mbedtls_md_finish:
.Lfunc_begin10:
	.loc	3 568 0                         @ ../../../components/network/thread/subg_openthread/third_party/mbedtls/repo/library/md.c:568:0
	.fnstart
	.cfi_startproc
@ %bb.0:
	@DEBUG_VALUE: mbedtls_md_finish:ctx <- $r0
	@DEBUG_VALUE: mbedtls_md_finish:ctx <- $r0
	@DEBUG_VALUE: mbedtls_md_finish:output <- $r1
	@DEBUG_VALUE: mbedtls_md_finish:output <- $r1
	.loc	3 569 21 prologue_end           @ ../../../components/network/thread/subg_openthread/third_party/mbedtls/repo/library/md.c:569:21
	cbz	r0, .LBB10_4
.Ltmp85:
@ %bb.1:
	@DEBUG_VALUE: mbedtls_md_finish:output <- $r1
	@DEBUG_VALUE: mbedtls_md_finish:ctx <- $r0
	.loc	3 569 29 is_stmt 0              @ ../../../components/network/thread/subg_openthread/third_party/mbedtls/repo/library/md.c:569:29
	ldr	r2, [r0]
.Ltmp86:
	.loc	3 569 9                         @ ../../../components/network/thread/subg_openthread/third_party/mbedtls/repo/library/md.c:569:9
	cbz	r2, .LBB10_4
.Ltmp87:
@ %bb.2:
	@DEBUG_VALUE: mbedtls_md_finish:output <- $r1
	@DEBUG_VALUE: mbedtls_md_finish:ctx <- $r0
	.loc	3 572 27 is_stmt 1              @ ../../../components/network/thread/subg_openthread/third_party/mbedtls/repo/library/md.c:572:27
	ldr	r2, [r2, #4]
	.loc	3 572 5 is_stmt 0               @ ../../../components/network/thread/subg_openthread/third_party/mbedtls/repo/library/md.c:572:5
	subs	r2, #5
	cmp	r2, #1
	bhi	.LBB10_4
.Ltmp88:
@ %bb.3:
	@DEBUG_VALUE: mbedtls_md_finish:output <- $r1
	@DEBUG_VALUE: mbedtls_md_finish:ctx <- $r0
	.loc	3 597 53 is_stmt 1              @ ../../../components/network/thread/subg_openthread/third_party/mbedtls/repo/library/md.c:597:53
	ldr	r0, [r0, #4]
.Ltmp89:
	@DEBUG_VALUE: mbedtls_md_finish:ctx <- [DW_OP_LLVM_entry_value 1] $r0
	.loc	3 597 21 is_stmt 0              @ ../../../components/network/thread/subg_openthread/third_party/mbedtls/repo/library/md.c:597:21
	b	mbedtls_sha256_finish_ret
.Ltmp90:
.LBB10_4:
	@DEBUG_VALUE: mbedtls_md_finish:output <- $r1
	@DEBUG_VALUE: mbedtls_md_finish:ctx <- $r0
	.loc	3 0 21                          @ ../../../components/network/thread/subg_openthread/third_party/mbedtls/repo/library/md.c:0:21
	movw	r0, #44800
.Ltmp91:
	@DEBUG_VALUE: mbedtls_md_finish:ctx <- [DW_OP_LLVM_entry_value 1] $r0
	movt	r0, #65535
	.loc	3 609 1 is_stmt 1               @ ../../../components/network/thread/subg_openthread/third_party/mbedtls/repo/library/md.c:609:1
	bx	lr
.Ltmp92:
.Lfunc_end10:
	.size	mbedtls_md_finish, .Lfunc_end10-mbedtls_md_finish
	.cfi_endproc
	.cantunwind
	.fnend
                                        @ -- End function
	.section	.text.mbedtls_md,"ax",%progbits
	.hidden	mbedtls_md                      @ -- Begin function mbedtls_md
	.globl	mbedtls_md
	.p2align	1
	.type	mbedtls_md,%function
	.code	16                              @ @mbedtls_md
	.thumb_func
mbedtls_md:
.Lfunc_begin11:
	.loc	3 613 0                         @ ../../../components/network/thread/subg_openthread/third_party/mbedtls/repo/library/md.c:613:0
	.fnstart
	.cfi_startproc
@ %bb.0:
	@DEBUG_VALUE: mbedtls_md:md_info <- $r0
	@DEBUG_VALUE: mbedtls_md:md_info <- $r0
	@DEBUG_VALUE: mbedtls_md:input <- $r1
	@DEBUG_VALUE: mbedtls_md:ilen <- $r2
	@DEBUG_VALUE: mbedtls_md:ilen <- $r2
	@DEBUG_VALUE: mbedtls_md:output <- $r3
	@DEBUG_VALUE: mbedtls_md:output <- $r3
	@DEBUG_VALUE: mbedtls_md:input <- $r1
	.loc	3 614 9 prologue_end            @ ../../../components/network/thread/subg_openthread/third_party/mbedtls/repo/library/md.c:614:9
	cbz	r0, .LBB11_4
.Ltmp93:
@ %bb.1:
	@DEBUG_VALUE: mbedtls_md:output <- $r3
	@DEBUG_VALUE: mbedtls_md:ilen <- $r2
	@DEBUG_VALUE: mbedtls_md:input <- $r1
	@DEBUG_VALUE: mbedtls_md:md_info <- $r0
	.loc	3 617 22                        @ ../../../components/network/thread/subg_openthread/third_party/mbedtls/repo/library/md.c:617:22
	ldr	r0, [r0, #4]
.Ltmp94:
	@DEBUG_VALUE: mbedtls_md:md_info <- [DW_OP_LLVM_entry_value 1] $r0
	.loc	3 617 5 is_stmt 0               @ ../../../components/network/thread/subg_openthread/third_party/mbedtls/repo/library/md.c:617:5
	cmp	r0, #6
	beq	.LBB11_5
.Ltmp95:
@ %bb.2:
	@DEBUG_VALUE: mbedtls_md:output <- $r3
	@DEBUG_VALUE: mbedtls_md:ilen <- $r2
	@DEBUG_VALUE: mbedtls_md:input <- $r1
	@DEBUG_VALUE: mbedtls_md:md_info <- [DW_OP_LLVM_entry_value 1] $r0
	cmp	r0, #5
	bne	.LBB11_4
.Ltmp96:
@ %bb.3:
	@DEBUG_VALUE: mbedtls_md:output <- $r3
	@DEBUG_VALUE: mbedtls_md:ilen <- $r2
	@DEBUG_VALUE: mbedtls_md:input <- $r1
	@DEBUG_VALUE: mbedtls_md:md_info <- [DW_OP_LLVM_entry_value 1] $r0
	.loc	3 641 21 is_stmt 1              @ ../../../components/network/thread/subg_openthread/third_party/mbedtls/repo/library/md.c:641:21
	mov	r0, r1
	mov	r1, r2
.Ltmp97:
	@DEBUG_VALUE: mbedtls_md:input <- [DW_OP_LLVM_entry_value 1] $r1
	mov	r2, r3
.Ltmp98:
	@DEBUG_VALUE: mbedtls_md:ilen <- [DW_OP_LLVM_entry_value 1] $r2
	movs	r3, #1
.Ltmp99:
	@DEBUG_VALUE: mbedtls_md:output <- [DW_OP_LLVM_entry_value 1] $r3
	b	mbedtls_sha256_ret
.Ltmp100:
.LBB11_4:
	@DEBUG_VALUE: mbedtls_md:output <- $r3
	@DEBUG_VALUE: mbedtls_md:ilen <- $r2
	@DEBUG_VALUE: mbedtls_md:input <- $r1
	.loc	3 0 21 is_stmt 0                @ ../../../components/network/thread/subg_openthread/third_party/mbedtls/repo/library/md.c:0:21
	movw	r0, #44800
	movt	r0, #65535
	.loc	3 656 1 is_stmt 1               @ ../../../components/network/thread/subg_openthread/third_party/mbedtls/repo/library/md.c:656:1
	bx	lr
.Ltmp101:
.LBB11_5:
	@DEBUG_VALUE: mbedtls_md:output <- $r3
	@DEBUG_VALUE: mbedtls_md:ilen <- $r2
	@DEBUG_VALUE: mbedtls_md:input <- $r1
	@DEBUG_VALUE: mbedtls_md:md_info <- [DW_OP_LLVM_entry_value 1] $r0
	.loc	3 643 21                        @ ../../../components/network/thread/subg_openthread/third_party/mbedtls/repo/library/md.c:643:21
	mov	r0, r1
	mov	r1, r2
.Ltmp102:
	@DEBUG_VALUE: mbedtls_md:input <- [DW_OP_LLVM_entry_value 1] $r1
	mov	r2, r3
.Ltmp103:
	@DEBUG_VALUE: mbedtls_md:ilen <- [DW_OP_LLVM_entry_value 1] $r2
	movs	r3, #0
.Ltmp104:
	@DEBUG_VALUE: mbedtls_md:output <- [DW_OP_LLVM_entry_value 1] $r3
	b	mbedtls_sha256_ret
.Ltmp105:
.Lfunc_end11:
	.size	mbedtls_md, .Lfunc_end11-mbedtls_md
	.cfi_endproc
	.cantunwind
	.fnend
                                        @ -- End function
	.section	.text.mbedtls_md_hmac_starts,"ax",%progbits
	.hidden	mbedtls_md_hmac_starts          @ -- Begin function mbedtls_md_hmac_starts
	.globl	mbedtls_md_hmac_starts
	.p2align	1
	.type	mbedtls_md_hmac_starts,%function
	.code	16                              @ @mbedtls_md_hmac_starts
	.thumb_func
mbedtls_md_hmac_starts:
.Lfunc_begin12:
	.loc	3 700 0                         @ ../../../components/network/thread/subg_openthread/third_party/mbedtls/repo/library/md.c:700:0
	.fnstart
	.cfi_startproc
@ %bb.0:
	@DEBUG_VALUE: mbedtls_md_hmac_starts:ctx <- $r0
	@DEBUG_VALUE: mbedtls_md_hmac_starts:key <- $r1
	@DEBUG_VALUE: mbedtls_md_hmac_starts:keylen <- $r2
	@DEBUG_VALUE: mbedtls_md_hmac_starts:keylen <- $r2
	@DEBUG_VALUE: mbedtls_md_hmac_starts:key <- $r1
	@DEBUG_VALUE: mbedtls_md_hmac_starts:ctx <- $r0
	.save	{r4, r5, r6, r7, r8, r9, r10, lr}
	push.w	{r4, r5, r6, r7, r8, r9, r10, lr}
	.cfi_def_cfa_offset 32
	.cfi_offset lr, -4
	.cfi_offset r10, -8
	.cfi_offset r9, -12
	.cfi_offset r8, -16
	.cfi_offset r7, -20
	.cfi_offset r6, -24
	.cfi_offset r5, -28
	.cfi_offset r4, -32
	.pad	#32
	sub	sp, #32
	.cfi_def_cfa_offset 64
	movw	r9, #44800
.Ltmp106:
	.loc	3 706 21 prologue_end           @ ../../../components/network/thread/subg_openthread/third_party/mbedtls/repo/library/md.c:706:21
	cmp	r0, #0
	movt	r9, #65535
.Ltmp107:
	@DEBUG_VALUE: mbedtls_md_hmac_starts:ret <- -110
	beq	.LBB12_20
.Ltmp108:
@ %bb.1:
	@DEBUG_VALUE: mbedtls_md_hmac_starts:keylen <- $r2
	@DEBUG_VALUE: mbedtls_md_hmac_starts:key <- $r1
	@DEBUG_VALUE: mbedtls_md_hmac_starts:ctx <- $r0
	@DEBUG_VALUE: mbedtls_md_hmac_starts:ret <- -110
	@DEBUG_VALUE: mbedtls_md_hmac_starts:keylen <- $r2
	@DEBUG_VALUE: mbedtls_md_hmac_starts:key <- $r1
	.loc	3 0 21 is_stmt 0                @ ../../../components/network/thread/subg_openthread/third_party/mbedtls/repo/library/md.c:0:21
	mov	r5, r0
.Ltmp109:
	@DEBUG_VALUE: mbedtls_md_hmac_starts:ctx <- $r5
	.loc	3 706 29                        @ ../../../components/network/thread/subg_openthread/third_party/mbedtls/repo/library/md.c:706:29
	ldr	r0, [r0]
	.loc	3 706 45                        @ ../../../components/network/thread/subg_openthread/third_party/mbedtls/repo/library/md.c:706:45
	cmp	r0, #0
	beq	.LBB12_20
.Ltmp110:
@ %bb.2:
	@DEBUG_VALUE: mbedtls_md_hmac_starts:ctx <- $r5
	@DEBUG_VALUE: mbedtls_md_hmac_starts:keylen <- $r2
	@DEBUG_VALUE: mbedtls_md_hmac_starts:key <- $r1
	@DEBUG_VALUE: mbedtls_md_hmac_starts:ret <- -110
	@DEBUG_VALUE: mbedtls_md_hmac_starts:keylen <- $r2
	@DEBUG_VALUE: mbedtls_md_hmac_starts:key <- $r1
	.loc	3 706 53                        @ ../../../components/network/thread/subg_openthread/third_party/mbedtls/repo/library/md.c:706:53
	ldr.w	r8, [r5, #8]
.Ltmp111:
	.loc	3 706 9                         @ ../../../components/network/thread/subg_openthread/third_party/mbedtls/repo/library/md.c:706:9
	cmp.w	r8, #0
	beq	.LBB12_20
.Ltmp112:
@ %bb.3:
	@DEBUG_VALUE: mbedtls_md_hmac_starts:ctx <- $r5
	@DEBUG_VALUE: mbedtls_md_hmac_starts:keylen <- $r2
	@DEBUG_VALUE: mbedtls_md_hmac_starts:key <- $r1
	@DEBUG_VALUE: mbedtls_md_hmac_starts:ret <- -110
	.loc	3 709 41 is_stmt 1              @ ../../../components/network/thread/subg_openthread/third_party/mbedtls/repo/library/md.c:709:41
	ldrb	r4, [r0, #9]
	mov	r6, r2
.Ltmp113:
	@DEBUG_VALUE: mbedtls_md_hmac_starts:keylen <- $r6
	.loc	3 0 41 is_stmt 0                @ ../../../components/network/thread/subg_openthread/third_party/mbedtls/repo/library/md.c:0:41
	mov	r7, r1
.Ltmp114:
	@DEBUG_VALUE: mbedtls_md_hmac_starts:key <- $r7
	@DEBUG_VALUE: mbedtls_md_hmac_starts:key <- $r7
	.loc	3 709 9                         @ ../../../components/network/thread/subg_openthread/third_party/mbedtls/repo/library/md.c:709:9
	cmp	r4, r2
	bhs	.LBB12_12
.Ltmp115:
@ %bb.4:
	@DEBUG_VALUE: mbedtls_md_hmac_starts:key <- $r7
	@DEBUG_VALUE: mbedtls_md_hmac_starts:keylen <- $r6
	@DEBUG_VALUE: mbedtls_md_hmac_starts:ctx <- $r5
	@DEBUG_VALUE: mbedtls_md_hmac_starts:ret <- -110
	.loc	3 711 21 is_stmt 1              @ ../../../components/network/thread/subg_openthread/third_party/mbedtls/repo/library/md.c:711:21
	mov	r0, r5
	bl	mbedtls_md_starts
.Ltmp116:
	mov	r4, r0
.Ltmp117:
	@DEBUG_VALUE: mbedtls_md_hmac_starts:ret <- $r4
	.loc	3 711 13 is_stmt 0              @ ../../../components/network/thread/subg_openthread/third_party/mbedtls/repo/library/md.c:711:13
	cmp	r0, #0
	bne	.LBB12_19
.Ltmp118:
@ %bb.5:
	@DEBUG_VALUE: mbedtls_md_hmac_starts:key <- $r7
	@DEBUG_VALUE: mbedtls_md_hmac_starts:keylen <- $r6
	@DEBUG_VALUE: mbedtls_md_hmac_starts:ctx <- $r5
	@DEBUG_VALUE: mbedtls_md_hmac_starts:ret <- $r4
	@DEBUG_VALUE: mbedtls_md_update:ctx <- $r5
	@DEBUG_VALUE: mbedtls_md_update:input <- $r7
	@DEBUG_VALUE: mbedtls_md_update:ilen <- $r6
	.loc	3 525 29 is_stmt 1              @ ../../../components/network/thread/subg_openthread/third_party/mbedtls/repo/library/md.c:525:29
	ldr	r0, [r5]
.Ltmp119:
	.loc	3 525 9 is_stmt 0               @ ../../../components/network/thread/subg_openthread/third_party/mbedtls/repo/library/md.c:525:9
	cmp	r0, #0
	beq	.LBB12_18
.Ltmp120:
@ %bb.6:
	@DEBUG_VALUE: mbedtls_md_update:input <- $r7
	@DEBUG_VALUE: mbedtls_md_hmac_starts:key <- $r7
	@DEBUG_VALUE: mbedtls_md_update:ilen <- $r6
	@DEBUG_VALUE: mbedtls_md_hmac_starts:keylen <- $r6
	@DEBUG_VALUE: mbedtls_md_update:ctx <- $r5
	@DEBUG_VALUE: mbedtls_md_hmac_starts:ctx <- $r5
	@DEBUG_VALUE: mbedtls_md_hmac_starts:ret <- $r4
	.loc	3 528 27 is_stmt 1              @ ../../../components/network/thread/subg_openthread/third_party/mbedtls/repo/library/md.c:528:27
	ldr	r0, [r0, #4]
	.loc	3 528 5 is_stmt 0               @ ../../../components/network/thread/subg_openthread/third_party/mbedtls/repo/library/md.c:528:5
	subs	r0, #5
	cmp	r0, #1
	bhi	.LBB12_18
.Ltmp121:
@ %bb.7:
	@DEBUG_VALUE: mbedtls_md_update:input <- $r7
	@DEBUG_VALUE: mbedtls_md_hmac_starts:key <- $r7
	@DEBUG_VALUE: mbedtls_md_update:ilen <- $r6
	@DEBUG_VALUE: mbedtls_md_hmac_starts:keylen <- $r6
	@DEBUG_VALUE: mbedtls_md_update:ctx <- $r5
	@DEBUG_VALUE: mbedtls_md_hmac_starts:ctx <- $r5
	@DEBUG_VALUE: mbedtls_md_hmac_starts:ret <- $r4
	.loc	3 553 53 is_stmt 1              @ ../../../components/network/thread/subg_openthread/third_party/mbedtls/repo/library/md.c:553:53
	ldr	r0, [r5, #4]
	.loc	3 553 21 is_stmt 0              @ ../../../components/network/thread/subg_openthread/third_party/mbedtls/repo/library/md.c:553:21
	mov	r1, r7
	mov	r2, r6
	bl	mbedtls_sha256_update_ret
.Ltmp122:
	mov	r4, r0
.Ltmp123:
	@DEBUG_VALUE: mbedtls_md_hmac_starts:ret <- $r4
	.loc	3 713 13 is_stmt 1              @ ../../../components/network/thread/subg_openthread/third_party/mbedtls/repo/library/md.c:713:13
	cmp	r0, #0
	bne	.LBB12_19
.Ltmp124:
@ %bb.8:
	@DEBUG_VALUE: mbedtls_md_hmac_starts:key <- $r7
	@DEBUG_VALUE: mbedtls_md_hmac_starts:keylen <- $r6
	@DEBUG_VALUE: mbedtls_md_hmac_starts:ctx <- $r5
	@DEBUG_VALUE: mbedtls_md_hmac_starts:ret <- $r4
	@DEBUG_VALUE: mbedtls_md_finish:ctx <- $r5
	.loc	3 569 29                        @ ../../../components/network/thread/subg_openthread/third_party/mbedtls/repo/library/md.c:569:29
	ldr	r0, [r5]
.Ltmp125:
	.loc	3 569 9 is_stmt 0               @ ../../../components/network/thread/subg_openthread/third_party/mbedtls/repo/library/md.c:569:9
	cmp	r0, #0
.Ltmp126:
	@DEBUG_VALUE: mbedtls_md_finish:output <- $sp
	beq	.LBB12_18
.Ltmp127:
@ %bb.9:
	@DEBUG_VALUE: mbedtls_md_hmac_starts:key <- $r7
	@DEBUG_VALUE: mbedtls_md_hmac_starts:keylen <- $r6
	@DEBUG_VALUE: mbedtls_md_finish:ctx <- $r5
	@DEBUG_VALUE: mbedtls_md_hmac_starts:ctx <- $r5
	@DEBUG_VALUE: mbedtls_md_hmac_starts:ret <- $r4
	@DEBUG_VALUE: mbedtls_md_finish:output <- $sp
	.loc	3 572 27 is_stmt 1              @ ../../../components/network/thread/subg_openthread/third_party/mbedtls/repo/library/md.c:572:27
	ldr	r0, [r0, #4]
	.loc	3 572 5 is_stmt 0               @ ../../../components/network/thread/subg_openthread/third_party/mbedtls/repo/library/md.c:572:5
	subs	r0, #5
	cmp	r0, #1
	bhi	.LBB12_18
.Ltmp128:
@ %bb.10:
	@DEBUG_VALUE: mbedtls_md_hmac_starts:key <- $r7
	@DEBUG_VALUE: mbedtls_md_hmac_starts:keylen <- $r6
	@DEBUG_VALUE: mbedtls_md_finish:ctx <- $r5
	@DEBUG_VALUE: mbedtls_md_hmac_starts:ctx <- $r5
	@DEBUG_VALUE: mbedtls_md_hmac_starts:ret <- $r4
	@DEBUG_VALUE: mbedtls_md_finish:output <- $sp
	.loc	3 597 53 is_stmt 1              @ ../../../components/network/thread/subg_openthread/third_party/mbedtls/repo/library/md.c:597:53
	ldr	r0, [r5, #4]
	mov	r1, sp
	.loc	3 597 21 is_stmt 0              @ ../../../components/network/thread/subg_openthread/third_party/mbedtls/repo/library/md.c:597:21
	bl	mbedtls_sha256_finish_ret
.Ltmp129:
	mov	r4, r0
.Ltmp130:
	@DEBUG_VALUE: mbedtls_md_hmac_starts:ret <- $r4
	.loc	3 715 13 is_stmt 1              @ ../../../components/network/thread/subg_openthread/third_party/mbedtls/repo/library/md.c:715:13
	cbnz	r0, .LBB12_19
.Ltmp131:
@ %bb.11:
	@DEBUG_VALUE: mbedtls_md_hmac_starts:key <- $r7
	@DEBUG_VALUE: mbedtls_md_hmac_starts:keylen <- $r6
	@DEBUG_VALUE: mbedtls_md_hmac_starts:ctx <- $r5
	@DEBUG_VALUE: mbedtls_md_hmac_starts:ret <- $r4
	.loc	3 718 23                        @ ../../../components/network/thread/subg_openthread/third_party/mbedtls/repo/library/md.c:718:23
	ldr	r0, [r5]
.Ltmp132:
	@DEBUG_VALUE: mbedtls_md_hmac_starts:keylen <- undef
	.loc	3 722 35                        @ ../../../components/network/thread/subg_openthread/third_party/mbedtls/repo/library/md.c:722:35
	ldr.w	r8, [r5, #8]
.Ltmp133:
	.loc	3 718 32                        @ ../../../components/network/thread/subg_openthread/third_party/mbedtls/repo/library/md.c:718:32
	ldrb	r6, [r0, #8]
.Ltmp134:
	.loc	3 723 60                        @ ../../../components/network/thread/subg_openthread/third_party/mbedtls/repo/library/md.c:723:60
	ldrb	r4, [r0, #9]
.Ltmp135:
	@DEBUG_VALUE: mbedtls_md_hmac_starts:key <- $sp
	.loc	3 0 60 is_stmt 0                @ ../../../components/network/thread/subg_openthread/third_party/mbedtls/repo/library/md.c:0:60
	mov	r7, sp
.Ltmp136:
.LBB12_12:
	@DEBUG_VALUE: mbedtls_md_hmac_starts:ctx <- $r5
	@DEBUG_VALUE: mbedtls_md_hmac_starts:key <- $r7
	@DEBUG_VALUE: mbedtls_md_hmac_starts:keylen <- $r6
	@DEBUG_VALUE: mbedtls_md_hmac_starts:ipad <- $r8
	.loc	3 725 5 is_stmt 1               @ ../../../components/network/thread/subg_openthread/third_party/mbedtls/repo/library/md.c:725:5
	mov	r0, r8
	mov	r1, r4
	movs	r2, #54
	.loc	3 723 44                        @ ../../../components/network/thread/subg_openthread/third_party/mbedtls/repo/library/md.c:723:44
	add.w	r10, r8, r4
.Ltmp137:
	@DEBUG_VALUE: mbedtls_md_hmac_starts:opad <- $r10
	.loc	3 725 5                         @ ../../../components/network/thread/subg_openthread/third_party/mbedtls/repo/library/md.c:725:5
	bl	__aeabi_memset
.Ltmp138:
	.loc	3 726 30                        @ ../../../components/network/thread/subg_openthread/third_party/mbedtls/repo/library/md.c:726:30
	ldr	r0, [r5]
	.loc	3 726 5 is_stmt 0               @ ../../../components/network/thread/subg_openthread/third_party/mbedtls/repo/library/md.c:726:5
	movs	r2, #92
	.loc	3 726 39                        @ ../../../components/network/thread/subg_openthread/third_party/mbedtls/repo/library/md.c:726:39
	ldrb	r1, [r0, #9]
	.loc	3 726 5                         @ ../../../components/network/thread/subg_openthread/third_party/mbedtls/repo/library/md.c:726:5
	mov	r0, r10
	bl	__aeabi_memset
.Ltmp139:
	@DEBUG_VALUE: mbedtls_md_hmac_starts:i <- 0
	.loc	3 728 5 is_stmt 1               @ ../../../components/network/thread/subg_openthread/third_party/mbedtls/repo/library/md.c:728:5
	cbz	r6, .LBB12_15
.Ltmp140:
@ %bb.13:
	@DEBUG_VALUE: mbedtls_md_hmac_starts:opad <- $r10
	@DEBUG_VALUE: mbedtls_md_hmac_starts:ipad <- $r8
	@DEBUG_VALUE: mbedtls_md_hmac_starts:key <- $r7
	@DEBUG_VALUE: mbedtls_md_hmac_starts:keylen <- $r6
	@DEBUG_VALUE: mbedtls_md_hmac_starts:ctx <- $r5
	@DEBUG_VALUE: mbedtls_md_hmac_starts:i <- 0
	.loc	3 0 5 is_stmt 0                 @ ../../../components/network/thread/subg_openthread/third_party/mbedtls/repo/library/md.c:0:5
	mov	r0, r8
.Ltmp141:
	.p2align	2
.LBB12_14:                              @ =>This Inner Loop Header: Depth=1
	@DEBUG_VALUE: mbedtls_md_hmac_starts:opad <- $r10
	@DEBUG_VALUE: mbedtls_md_hmac_starts:ipad <- $r8
	@DEBUG_VALUE: mbedtls_md_hmac_starts:ctx <- $r5
	@DEBUG_VALUE: mbedtls_md_hmac_starts:i <- undef
	.loc	3 730 36 is_stmt 1              @ ../../../components/network/thread/subg_openthread/third_party/mbedtls/repo/library/md.c:730:36
	ldrb	r1, [r0]
	.loc	3 730 46 is_stmt 0              @ ../../../components/network/thread/subg_openthread/third_party/mbedtls/repo/library/md.c:730:46
	ldrb	r2, [r7]
.Ltmp142:
	.loc	3 728 19 is_stmt 1              @ ../../../components/network/thread/subg_openthread/third_party/mbedtls/repo/library/md.c:728:19
	subs	r6, #1
.Ltmp143:
	.loc	3 730 44                        @ ../../../components/network/thread/subg_openthread/third_party/mbedtls/repo/library/md.c:730:44
	eor.w	r1, r1, r2
	.loc	3 730 17 is_stmt 0              @ ../../../components/network/thread/subg_openthread/third_party/mbedtls/repo/library/md.c:730:17
	strb	r1, [r0]
	.loc	3 731 36 is_stmt 1              @ ../../../components/network/thread/subg_openthread/third_party/mbedtls/repo/library/md.c:731:36
	ldrb	r1, [r0, r4]
	.loc	3 731 46 is_stmt 0              @ ../../../components/network/thread/subg_openthread/third_party/mbedtls/repo/library/md.c:731:46
	ldrb	r2, [r7], #1
	.loc	3 731 44                        @ ../../../components/network/thread/subg_openthread/third_party/mbedtls/repo/library/md.c:731:44
	eor.w	r1, r1, r2
	.loc	3 731 17                        @ ../../../components/network/thread/subg_openthread/third_party/mbedtls/repo/library/md.c:731:17
	strb	r1, [r0, r4]
.Ltmp144:
	@DEBUG_VALUE: mbedtls_md_hmac_starts:i <- [DW_OP_plus_uconst 1, DW_OP_stack_value] undef
	.loc	3 728 19 is_stmt 1              @ ../../../components/network/thread/subg_openthread/third_party/mbedtls/repo/library/md.c:728:19
	add.w	r0, r0, #1
.Ltmp145:
	.loc	3 728 5 is_stmt 0               @ ../../../components/network/thread/subg_openthread/third_party/mbedtls/repo/library/md.c:728:5
	bne	.LBB12_14
.Ltmp146:
.LBB12_15:
	@DEBUG_VALUE: mbedtls_md_hmac_starts:opad <- $r10
	@DEBUG_VALUE: mbedtls_md_hmac_starts:ipad <- $r8
	@DEBUG_VALUE: mbedtls_md_hmac_starts:ctx <- $r5
	.loc	3 734 17 is_stmt 1              @ ../../../components/network/thread/subg_openthread/third_party/mbedtls/repo/library/md.c:734:17
	mov	r0, r5
	bl	mbedtls_md_starts
.Ltmp147:
	mov	r4, r0
.Ltmp148:
	@DEBUG_VALUE: mbedtls_md_hmac_starts:ret <- $r4
	.loc	3 734 9 is_stmt 0               @ ../../../components/network/thread/subg_openthread/third_party/mbedtls/repo/library/md.c:734:9
	cbnz	r0, .LBB12_19
.Ltmp149:
@ %bb.16:
	@DEBUG_VALUE: mbedtls_md_hmac_starts:opad <- $r10
	@DEBUG_VALUE: mbedtls_md_hmac_starts:ipad <- $r8
	@DEBUG_VALUE: mbedtls_md_hmac_starts:ctx <- $r5
	@DEBUG_VALUE: mbedtls_md_hmac_starts:ret <- $r4
	.loc	3 737 41 is_stmt 1              @ ../../../components/network/thread/subg_openthread/third_party/mbedtls/repo/library/md.c:737:41
	ldr	r0, [r5]
.Ltmp150:
	@DEBUG_VALUE: mbedtls_md_update:ilen <- [DW_OP_LLVM_convert 8 7, DW_OP_LLVM_convert 32 7, DW_OP_stack_value] undef
	@DEBUG_VALUE: mbedtls_md_update:input <- $r8
	@DEBUG_VALUE: mbedtls_md_update:ctx <- $r5
	.loc	3 0 0 is_stmt 0                 @ ../../../components/network/thread/subg_openthread/third_party/mbedtls/repo/library/md.c:0:0
	mov	r4, r9
.Ltmp151:
	@DEBUG_VALUE: mbedtls_md_update:ctx <- $r5
	@DEBUG_VALUE: mbedtls_md_update:input <- $r8
	.loc	3 528 27 is_stmt 1              @ ../../../components/network/thread/subg_openthread/third_party/mbedtls/repo/library/md.c:528:27
	ldr	r1, [r0, #4]
	.loc	3 528 5 is_stmt 0               @ ../../../components/network/thread/subg_openthread/third_party/mbedtls/repo/library/md.c:528:5
	subs	r1, #5
	cmp	r1, #1
	bhi	.LBB12_19
.Ltmp152:
@ %bb.17:
	@DEBUG_VALUE: mbedtls_md_hmac_starts:opad <- $r10
	@DEBUG_VALUE: mbedtls_md_update:input <- $r8
	@DEBUG_VALUE: mbedtls_md_hmac_starts:ipad <- $r8
	@DEBUG_VALUE: mbedtls_md_update:ctx <- $r5
	@DEBUG_VALUE: mbedtls_md_hmac_starts:ctx <- $r5
	.loc	3 737 50 is_stmt 1              @ ../../../components/network/thread/subg_openthread/third_party/mbedtls/repo/library/md.c:737:50
	ldrb	r2, [r0, #9]
.Ltmp153:
	@DEBUG_VALUE: mbedtls_md_update:ilen <- $r2
	.loc	3 553 53                        @ ../../../components/network/thread/subg_openthread/third_party/mbedtls/repo/library/md.c:553:53
	ldr	r0, [r5, #4]
	.loc	3 553 21 is_stmt 0              @ ../../../components/network/thread/subg_openthread/third_party/mbedtls/repo/library/md.c:553:21
	mov	r1, r8
	bl	mbedtls_sha256_update_ret
.Ltmp154:
	mov	r4, r0
	b	.LBB12_19
.Ltmp155:
.LBB12_18:
	@DEBUG_VALUE: mbedtls_md_hmac_starts:key <- $r7
	@DEBUG_VALUE: mbedtls_md_hmac_starts:keylen <- $r6
	@DEBUG_VALUE: mbedtls_md_hmac_starts:ctx <- $r5
	@DEBUG_VALUE: mbedtls_md_hmac_starts:ret <- $r4
	.loc	3 0 0                           @ ../../../components/network/thread/subg_openthread/third_party/mbedtls/repo/library/md.c:0:0
	mov	r4, r9
.Ltmp156:
.LBB12_19:
	@DEBUG_VALUE: mbedtls_md_hmac_starts:ctx <- $r5
	@DEBUG_VALUE: mbedtls_md_hmac_starts:ret <- $r4
	@DEBUG_LABEL: mbedtls_md_hmac_starts:cleanup
	mov	r0, sp
	.loc	3 741 5 is_stmt 1               @ ../../../components/network/thread/subg_openthread/third_party/mbedtls/repo/library/md.c:741:5
	movs	r1, #32
	bl	mbedtls_platform_zeroize
.Ltmp157:
	.loc	3 0 0 is_stmt 0                 @ ../../../components/network/thread/subg_openthread/third_party/mbedtls/repo/library/md.c:0:0
	mov	r9, r4
.Ltmp158:
	@DEBUG_VALUE: mbedtls_md_hmac_starts:ret <- $r9
	@DEBUG_VALUE: mbedtls_md_hmac_starts:ret <- $r9
.LBB12_20:
	.loc	3 744 1 is_stmt 1               @ ../../../components/network/thread/subg_openthread/third_party/mbedtls/repo/library/md.c:744:1
	mov	r0, r9
	add	sp, #32
	pop.w	{r4, r5, r6, r7, r8, r9, r10, pc}
.Ltmp159:
.Lfunc_end12:
	.size	mbedtls_md_hmac_starts, .Lfunc_end12-mbedtls_md_hmac_starts
	.cfi_endproc
	.cantunwind
	.fnend
                                        @ -- End function
	.section	.text.mbedtls_md_hmac_update,"ax",%progbits
	.hidden	mbedtls_md_hmac_update          @ -- Begin function mbedtls_md_hmac_update
	.globl	mbedtls_md_hmac_update
	.p2align	1
	.type	mbedtls_md_hmac_update,%function
	.code	16                              @ @mbedtls_md_hmac_update
	.thumb_func
mbedtls_md_hmac_update:
.Lfunc_begin13:
	.loc	3 747 0                         @ ../../../components/network/thread/subg_openthread/third_party/mbedtls/repo/library/md.c:747:0
	.fnstart
	.cfi_startproc
@ %bb.0:
	@DEBUG_VALUE: mbedtls_md_hmac_update:ctx <- $r0
	@DEBUG_VALUE: mbedtls_md_hmac_update:ctx <- $r0
	@DEBUG_VALUE: mbedtls_md_hmac_update:input <- $r1
	@DEBUG_VALUE: mbedtls_md_hmac_update:ilen <- $r2
	@DEBUG_VALUE: mbedtls_md_hmac_update:ilen <- $r2
	@DEBUG_VALUE: mbedtls_md_hmac_update:input <- $r1
	.loc	3 748 21 prologue_end           @ ../../../components/network/thread/subg_openthread/third_party/mbedtls/repo/library/md.c:748:21
	cbz	r0, .LBB13_5
.Ltmp160:
@ %bb.1:
	@DEBUG_VALUE: mbedtls_md_hmac_update:ilen <- $r2
	@DEBUG_VALUE: mbedtls_md_hmac_update:input <- $r1
	@DEBUG_VALUE: mbedtls_md_hmac_update:ctx <- $r0
	.loc	3 748 29 is_stmt 0              @ ../../../components/network/thread/subg_openthread/third_party/mbedtls/repo/library/md.c:748:29
	ldr.w	r12, [r0]
	.loc	3 748 45                        @ ../../../components/network/thread/subg_openthread/third_party/mbedtls/repo/library/md.c:748:45
	cmp.w	r12, #0
	beq	.LBB13_5
.Ltmp161:
@ %bb.2:
	@DEBUG_VALUE: mbedtls_md_hmac_update:ilen <- $r2
	@DEBUG_VALUE: mbedtls_md_hmac_update:input <- $r1
	@DEBUG_VALUE: mbedtls_md_hmac_update:ctx <- $r0
	.loc	3 748 53                        @ ../../../components/network/thread/subg_openthread/third_party/mbedtls/repo/library/md.c:748:53
	ldr	r3, [r0, #8]
.Ltmp162:
	.loc	3 748 9                         @ ../../../components/network/thread/subg_openthread/third_party/mbedtls/repo/library/md.c:748:9
	cbz	r3, .LBB13_5
.Ltmp163:
@ %bb.3:
	@DEBUG_VALUE: mbedtls_md_hmac_update:ilen <- $r2
	@DEBUG_VALUE: mbedtls_md_hmac_update:input <- $r1
	@DEBUG_VALUE: mbedtls_md_hmac_update:ctx <- $r0
	@DEBUG_VALUE: mbedtls_md_update:ctx <- $r0
	@DEBUG_VALUE: mbedtls_md_update:input <- $r1
	@DEBUG_VALUE: mbedtls_md_update:ilen <- $r2
	.loc	3 528 27 is_stmt 1              @ ../../../components/network/thread/subg_openthread/third_party/mbedtls/repo/library/md.c:528:27
	ldr.w	r3, [r12, #4]
	.loc	3 528 5 is_stmt 0               @ ../../../components/network/thread/subg_openthread/third_party/mbedtls/repo/library/md.c:528:5
	subs	r3, #5
	cmp	r3, #1
	bhi	.LBB13_5
.Ltmp164:
@ %bb.4:
	@DEBUG_VALUE: mbedtls_md_update:ilen <- $r2
	@DEBUG_VALUE: mbedtls_md_hmac_update:ilen <- $r2
	@DEBUG_VALUE: mbedtls_md_update:input <- $r1
	@DEBUG_VALUE: mbedtls_md_hmac_update:input <- $r1
	@DEBUG_VALUE: mbedtls_md_update:ctx <- $r0
	@DEBUG_VALUE: mbedtls_md_hmac_update:ctx <- $r0
	.loc	3 553 53 is_stmt 1              @ ../../../components/network/thread/subg_openthread/third_party/mbedtls/repo/library/md.c:553:53
	ldr	r0, [r0, #4]
.Ltmp165:
	@DEBUG_VALUE: mbedtls_md_hmac_update:ctx <- [DW_OP_LLVM_entry_value 1] $r0
	.loc	3 553 21 is_stmt 0              @ ../../../components/network/thread/subg_openthread/third_party/mbedtls/repo/library/md.c:553:21
	b	mbedtls_sha256_update_ret
.Ltmp166:
.LBB13_5:
	@DEBUG_VALUE: mbedtls_md_hmac_update:ilen <- $r2
	@DEBUG_VALUE: mbedtls_md_hmac_update:input <- $r1
	@DEBUG_VALUE: mbedtls_md_hmac_update:ctx <- $r0
	.loc	3 0 21                          @ ../../../components/network/thread/subg_openthread/third_party/mbedtls/repo/library/md.c:0:21
	movw	r0, #44800
.Ltmp167:
	@DEBUG_VALUE: mbedtls_md_hmac_update:ctx <- [DW_OP_LLVM_entry_value 1] $r0
	movt	r0, #65535
	.loc	3 752 1 is_stmt 1               @ ../../../components/network/thread/subg_openthread/third_party/mbedtls/repo/library/md.c:752:1
	bx	lr
.Ltmp168:
.Lfunc_end13:
	.size	mbedtls_md_hmac_update, .Lfunc_end13-mbedtls_md_hmac_update
	.cfi_endproc
	.cantunwind
	.fnend
                                        @ -- End function
	.section	.text.mbedtls_md_hmac_finish,"ax",%progbits
	.hidden	mbedtls_md_hmac_finish          @ -- Begin function mbedtls_md_hmac_finish
	.globl	mbedtls_md_hmac_finish
	.p2align	1
	.type	mbedtls_md_hmac_finish,%function
	.code	16                              @ @mbedtls_md_hmac_finish
	.thumb_func
mbedtls_md_hmac_finish:
.Lfunc_begin14:
	.loc	3 755 0                         @ ../../../components/network/thread/subg_openthread/third_party/mbedtls/repo/library/md.c:755:0
	.fnstart
	.cfi_startproc
@ %bb.0:
	@DEBUG_VALUE: mbedtls_md_hmac_finish:ctx <- $r0
	@DEBUG_VALUE: mbedtls_md_hmac_finish:output <- $r1
	@DEBUG_VALUE: mbedtls_md_hmac_finish:output <- $r1
	@DEBUG_VALUE: mbedtls_md_hmac_finish:ctx <- $r0
	.save	{r4, r5, r6, r7, r8, lr}
	push.w	{r4, r5, r6, r7, r8, lr}
	.cfi_def_cfa_offset 24
	.cfi_offset lr, -4
	.cfi_offset r8, -8
	.cfi_offset r7, -12
	.cfi_offset r6, -16
	.cfi_offset r5, -20
	.cfi_offset r4, -24
	.pad	#32
	sub	sp, #32
	.cfi_def_cfa_offset 56
	movw	r6, #44800
	movt	r6, #65535
.Ltmp169:
	@DEBUG_VALUE: mbedtls_md_hmac_finish:ret <- -110
	.loc	3 760 21 prologue_end           @ ../../../components/network/thread/subg_openthread/third_party/mbedtls/repo/library/md.c:760:21
	cbz	r0, .LBB14_13
.Ltmp170:
@ %bb.1:
	@DEBUG_VALUE: mbedtls_md_hmac_finish:output <- $r1
	@DEBUG_VALUE: mbedtls_md_hmac_finish:ctx <- $r0
	@DEBUG_VALUE: mbedtls_md_hmac_finish:ret <- -110
	@DEBUG_VALUE: mbedtls_md_hmac_finish:output <- $r1
	.loc	3 0 21 is_stmt 0                @ ../../../components/network/thread/subg_openthread/third_party/mbedtls/repo/library/md.c:0:21
	mov	r5, r0
.Ltmp171:
	@DEBUG_VALUE: mbedtls_md_hmac_finish:ctx <- $r5
	.loc	3 760 29                        @ ../../../components/network/thread/subg_openthread/third_party/mbedtls/repo/library/md.c:760:29
	ldr	r0, [r0]
	.loc	3 760 45                        @ ../../../components/network/thread/subg_openthread/third_party/mbedtls/repo/library/md.c:760:45
	cbz	r0, .LBB14_13
.Ltmp172:
@ %bb.2:
	@DEBUG_VALUE: mbedtls_md_hmac_finish:ctx <- $r5
	@DEBUG_VALUE: mbedtls_md_hmac_finish:output <- $r1
	@DEBUG_VALUE: mbedtls_md_hmac_finish:ret <- -110
	@DEBUG_VALUE: mbedtls_md_hmac_finish:output <- $r1
	.loc	3 760 53                        @ ../../../components/network/thread/subg_openthread/third_party/mbedtls/repo/library/md.c:760:53
	ldr	r7, [r5, #8]
.Ltmp173:
	.loc	3 760 9                         @ ../../../components/network/thread/subg_openthread/third_party/mbedtls/repo/library/md.c:760:9
	cbz	r7, .LBB14_13
.Ltmp174:
@ %bb.3:
	@DEBUG_VALUE: mbedtls_md_hmac_finish:ctx <- $r5
	@DEBUG_VALUE: mbedtls_md_hmac_finish:output <- $r1
	@DEBUG_VALUE: mbedtls_md_hmac_finish:ret <- -110
	.loc	3 0 9                           @ ../../../components/network/thread/subg_openthread/third_party/mbedtls/repo/library/md.c:0:9
	mov	r4, r1
.Ltmp175:
	@DEBUG_VALUE: mbedtls_md_hmac_finish:output <- $r4
	@DEBUG_VALUE: mbedtls_md_hmac_finish:output <- $r4
	@DEBUG_VALUE: mbedtls_md_hmac_finish:opad <- undef
	@DEBUG_VALUE: mbedtls_md_finish:ctx <- $r5
	.loc	3 572 27 is_stmt 1              @ ../../../components/network/thread/subg_openthread/third_party/mbedtls/repo/library/md.c:572:27
	ldr	r1, [r0, #4]
	.loc	3 572 5 is_stmt 0               @ ../../../components/network/thread/subg_openthread/third_party/mbedtls/repo/library/md.c:572:5
	subs	r1, #5
	cmp	r1, #1
.Ltmp176:
	@DEBUG_VALUE: mbedtls_md_finish:output <- $sp
	bhi	.LBB14_13
.Ltmp177:
@ %bb.4:
	@DEBUG_VALUE: mbedtls_md_finish:ctx <- $r5
	@DEBUG_VALUE: mbedtls_md_hmac_finish:ctx <- $r5
	@DEBUG_VALUE: mbedtls_md_hmac_finish:output <- $r4
	@DEBUG_VALUE: mbedtls_md_finish:output <- $sp
	@DEBUG_VALUE: mbedtls_md_hmac_finish:ret <- -110
	.loc	3 0 0                           @ ../../../components/network/thread/subg_openthread/third_party/mbedtls/repo/library/md.c:0:0
	ldrb.w	r8, [r0, #9]
.Ltmp178:
	@DEBUG_VALUE: mbedtls_md_hmac_finish:opad <- undef
	.loc	3 597 53 is_stmt 1              @ ../../../components/network/thread/subg_openthread/third_party/mbedtls/repo/library/md.c:597:53
	ldr	r0, [r5, #4]
	mov	r1, sp
	.loc	3 597 21 is_stmt 0              @ ../../../components/network/thread/subg_openthread/third_party/mbedtls/repo/library/md.c:597:21
	bl	mbedtls_sha256_finish_ret
.Ltmp179:
	@DEBUG_VALUE: mbedtls_md_hmac_finish:ret <- $r0
	.loc	3 765 9 is_stmt 1               @ ../../../components/network/thread/subg_openthread/third_party/mbedtls/repo/library/md.c:765:9
	cbnz	r0, .LBB14_14
.Ltmp180:
@ %bb.5:
	@DEBUG_VALUE: mbedtls_md_hmac_finish:ctx <- $r5
	@DEBUG_VALUE: mbedtls_md_hmac_finish:output <- $r4
	@DEBUG_VALUE: mbedtls_md_hmac_finish:ret <- $r0
	@DEBUG_VALUE: mbedtls_md_hmac_finish:opad <- undef
	.loc	3 767 17                        @ ../../../components/network/thread/subg_openthread/third_party/mbedtls/repo/library/md.c:767:17
	mov	r0, r5
.Ltmp181:
	bl	mbedtls_md_starts
.Ltmp182:
	@DEBUG_VALUE: mbedtls_md_hmac_finish:ret <- $r0
	.loc	3 767 9 is_stmt 0               @ ../../../components/network/thread/subg_openthread/third_party/mbedtls/repo/library/md.c:767:9
	cbnz	r0, .LBB14_14
.Ltmp183:
@ %bb.6:
	@DEBUG_VALUE: mbedtls_md_hmac_finish:ctx <- $r5
	@DEBUG_VALUE: mbedtls_md_hmac_finish:output <- $r4
	@DEBUG_VALUE: mbedtls_md_hmac_finish:ret <- $r0
	@DEBUG_VALUE: mbedtls_md_hmac_finish:opad <- undef
	.loc	3 770 41 is_stmt 1              @ ../../../components/network/thread/subg_openthread/third_party/mbedtls/repo/library/md.c:770:41
	ldr	r0, [r5]
.Ltmp184:
	@DEBUG_VALUE: mbedtls_md_update:ilen <- [DW_OP_LLVM_convert 8 7, DW_OP_LLVM_convert 32 7, DW_OP_stack_value] undef
	@DEBUG_VALUE: mbedtls_md_update:input <- undef
	@DEBUG_VALUE: mbedtls_md_update:ctx <- $r5
	.loc	3 528 27                        @ ../../../components/network/thread/subg_openthread/third_party/mbedtls/repo/library/md.c:528:27
	ldr	r1, [r0, #4]
	.loc	3 528 5 is_stmt 0               @ ../../../components/network/thread/subg_openthread/third_party/mbedtls/repo/library/md.c:528:5
	subs	r1, #5
	cmp	r1, #1
	bhi	.LBB14_13
.Ltmp185:
@ %bb.7:
	@DEBUG_VALUE: mbedtls_md_update:ctx <- $r5
	@DEBUG_VALUE: mbedtls_md_hmac_finish:ctx <- $r5
	@DEBUG_VALUE: mbedtls_md_hmac_finish:output <- $r4
	.loc	3 770 50 is_stmt 1              @ ../../../components/network/thread/subg_openthread/third_party/mbedtls/repo/library/md.c:770:50
	ldrb	r2, [r0, #9]
.Ltmp186:
	@DEBUG_VALUE: mbedtls_md_update:ilen <- $r2
	.loc	3 553 53                        @ ../../../components/network/thread/subg_openthread/third_party/mbedtls/repo/library/md.c:553:53
	ldr	r0, [r5, #4]
.Ltmp187:
	.loc	3 0 0 is_stmt 0                 @ ../../../components/network/thread/subg_openthread/third_party/mbedtls/repo/library/md.c:0:0
	add.w	r1, r7, r8
.Ltmp188:
	@DEBUG_VALUE: mbedtls_md_update:input <- $r1
	@DEBUG_VALUE: mbedtls_md_hmac_finish:opad <- $r1
	@DEBUG_VALUE: mbedtls_md_update:ilen <- $r2
	.loc	3 553 21                        @ ../../../components/network/thread/subg_openthread/third_party/mbedtls/repo/library/md.c:553:21
	bl	mbedtls_sha256_update_ret
.Ltmp189:
	@DEBUG_VALUE: mbedtls_md_hmac_finish:ret <- $r0
	.loc	3 769 9 is_stmt 1               @ ../../../components/network/thread/subg_openthread/third_party/mbedtls/repo/library/md.c:769:9
	cbnz	r0, .LBB14_14
.Ltmp190:
@ %bb.8:
	@DEBUG_VALUE: mbedtls_md_hmac_finish:ctx <- $r5
	@DEBUG_VALUE: mbedtls_md_hmac_finish:output <- $r4
	@DEBUG_VALUE: mbedtls_md_hmac_finish:ret <- $r0
	.loc	3 773 41                        @ ../../../components/network/thread/subg_openthread/third_party/mbedtls/repo/library/md.c:773:41
	ldr	r0, [r5]
.Ltmp191:
	@DEBUG_VALUE: mbedtls_md_update:ilen <- [DW_OP_LLVM_convert 8 7, DW_OP_LLVM_convert 32 7, DW_OP_stack_value] undef
	@DEBUG_VALUE: mbedtls_md_update:ctx <- $r5
	.loc	3 528 27                        @ ../../../components/network/thread/subg_openthread/third_party/mbedtls/repo/library/md.c:528:27
	ldr	r1, [r0, #4]
	.loc	3 528 5 is_stmt 0               @ ../../../components/network/thread/subg_openthread/third_party/mbedtls/repo/library/md.c:528:5
	subs	r1, #5
	cmp	r1, #1
.Ltmp192:
	@DEBUG_VALUE: mbedtls_md_update:input <- $sp
	bhi	.LBB14_13
.Ltmp193:
@ %bb.9:
	@DEBUG_VALUE: mbedtls_md_update:ctx <- $r5
	@DEBUG_VALUE: mbedtls_md_hmac_finish:ctx <- $r5
	@DEBUG_VALUE: mbedtls_md_hmac_finish:output <- $r4
	@DEBUG_VALUE: mbedtls_md_update:input <- $sp
	.loc	3 773 50 is_stmt 1              @ ../../../components/network/thread/subg_openthread/third_party/mbedtls/repo/library/md.c:773:50
	ldrb	r2, [r0, #8]
.Ltmp194:
	@DEBUG_VALUE: mbedtls_md_update:ilen <- $r2
	.loc	3 553 53                        @ ../../../components/network/thread/subg_openthread/third_party/mbedtls/repo/library/md.c:553:53
	ldr	r0, [r5, #4]
	mov	r1, sp
	.loc	3 553 21 is_stmt 0              @ ../../../components/network/thread/subg_openthread/third_party/mbedtls/repo/library/md.c:553:21
	bl	mbedtls_sha256_update_ret
.Ltmp195:
	@DEBUG_VALUE: mbedtls_md_hmac_finish:ret <- $r0
	.loc	3 772 9 is_stmt 1               @ ../../../components/network/thread/subg_openthread/third_party/mbedtls/repo/library/md.c:772:9
	cbnz	r0, .LBB14_14
.Ltmp196:
@ %bb.10:
	@DEBUG_VALUE: mbedtls_md_hmac_finish:ctx <- $r5
	@DEBUG_VALUE: mbedtls_md_hmac_finish:output <- $r4
	@DEBUG_VALUE: mbedtls_md_hmac_finish:ret <- $r0
	@DEBUG_VALUE: mbedtls_md_finish:ctx <- $r5
	@DEBUG_VALUE: mbedtls_md_finish:output <- $r4
	.loc	3 569 29                        @ ../../../components/network/thread/subg_openthread/third_party/mbedtls/repo/library/md.c:569:29
	ldr	r0, [r5]
.Ltmp197:
	.loc	3 569 9 is_stmt 0               @ ../../../components/network/thread/subg_openthread/third_party/mbedtls/repo/library/md.c:569:9
	cbz	r0, .LBB14_13
.Ltmp198:
@ %bb.11:
	@DEBUG_VALUE: mbedtls_md_finish:ctx <- $r5
	@DEBUG_VALUE: mbedtls_md_hmac_finish:ctx <- $r5
	@DEBUG_VALUE: mbedtls_md_finish:output <- $r4
	@DEBUG_VALUE: mbedtls_md_hmac_finish:output <- $r4
	.loc	3 572 27 is_stmt 1              @ ../../../components/network/thread/subg_openthread/third_party/mbedtls/repo/library/md.c:572:27
	ldr	r0, [r0, #4]
	.loc	3 572 5 is_stmt 0               @ ../../../components/network/thread/subg_openthread/third_party/mbedtls/repo/library/md.c:572:5
	subs	r0, #5
	cmp	r0, #1
.Ltmp199:
	.loc	3 0 0                           @ ../../../components/network/thread/subg_openthread/third_party/mbedtls/repo/library/md.c:0:0
	mov	r0, r6
.Ltmp200:
	.loc	3 572 5                         @ ../../../components/network/thread/subg_openthread/third_party/mbedtls/repo/library/md.c:572:5
	bhi	.LBB14_14
.Ltmp201:
@ %bb.12:
	@DEBUG_VALUE: mbedtls_md_finish:ctx <- $r5
	@DEBUG_VALUE: mbedtls_md_hmac_finish:ctx <- $r5
	@DEBUG_VALUE: mbedtls_md_finish:output <- $r4
	@DEBUG_VALUE: mbedtls_md_hmac_finish:output <- $r4
	.loc	3 597 53 is_stmt 1              @ ../../../components/network/thread/subg_openthread/third_party/mbedtls/repo/library/md.c:597:53
	ldr	r0, [r5, #4]
	.loc	3 597 21 is_stmt 0              @ ../../../components/network/thread/subg_openthread/third_party/mbedtls/repo/library/md.c:597:21
	mov	r1, r4
	bl	mbedtls_sha256_finish_ret
.Ltmp202:
	.loc	3 0 21                          @ ../../../components/network/thread/subg_openthread/third_party/mbedtls/repo/library/md.c:0:21
	b	.LBB14_14
.Ltmp203:
.LBB14_13:
	mov	r0, r6
.LBB14_14:
	.loc	3 776 1 is_stmt 1               @ ../../../components/network/thread/subg_openthread/third_party/mbedtls/repo/library/md.c:776:1
	add	sp, #32
	pop.w	{r4, r5, r6, r7, r8, pc}
.Ltmp204:
.Lfunc_end14:
	.size	mbedtls_md_hmac_finish, .Lfunc_end14-mbedtls_md_hmac_finish
	.cfi_endproc
	.cantunwind
	.fnend
                                        @ -- End function
	.section	.text.mbedtls_md_hmac_reset,"ax",%progbits
	.hidden	mbedtls_md_hmac_reset           @ -- Begin function mbedtls_md_hmac_reset
	.globl	mbedtls_md_hmac_reset
	.p2align	1
	.type	mbedtls_md_hmac_reset,%function
	.code	16                              @ @mbedtls_md_hmac_reset
	.thumb_func
mbedtls_md_hmac_reset:
.Lfunc_begin15:
	.loc	3 779 0                         @ ../../../components/network/thread/subg_openthread/third_party/mbedtls/repo/library/md.c:779:0
	.fnstart
	.cfi_startproc
@ %bb.0:
	@DEBUG_VALUE: mbedtls_md_hmac_reset:ctx <- $r0
	@DEBUG_VALUE: mbedtls_md_hmac_reset:ctx <- $r0
	.save	{r4, r5, r6, lr}
	push	{r4, r5, r6, lr}
	.cfi_def_cfa_offset 16
	.cfi_offset lr, -4
	.cfi_offset r6, -8
	.cfi_offset r5, -12
	.cfi_offset r4, -16
	movw	r6, #44800
	movt	r6, #65535
.Ltmp205:
	@DEBUG_VALUE: mbedtls_md_hmac_reset:ret <- -110
	.loc	3 783 21 prologue_end           @ ../../../components/network/thread/subg_openthread/third_party/mbedtls/repo/library/md.c:783:21
	cbz	r0, .LBB15_5
.Ltmp206:
@ %bb.1:
	@DEBUG_VALUE: mbedtls_md_hmac_reset:ctx <- $r0
	@DEBUG_VALUE: mbedtls_md_hmac_reset:ret <- -110
	.loc	3 0 21 is_stmt 0                @ ../../../components/network/thread/subg_openthread/third_party/mbedtls/repo/library/md.c:0:21
	mov	r4, r0
.Ltmp207:
	@DEBUG_VALUE: mbedtls_md_hmac_reset:ctx <- $r4
	.loc	3 783 29                        @ ../../../components/network/thread/subg_openthread/third_party/mbedtls/repo/library/md.c:783:29
	ldr	r0, [r0]
	.loc	3 783 45                        @ ../../../components/network/thread/subg_openthread/third_party/mbedtls/repo/library/md.c:783:45
	cbz	r0, .LBB15_5
.Ltmp208:
@ %bb.2:
	@DEBUG_VALUE: mbedtls_md_hmac_reset:ctx <- $r4
	@DEBUG_VALUE: mbedtls_md_hmac_reset:ret <- -110
	.loc	3 783 53                        @ ../../../components/network/thread/subg_openthread/third_party/mbedtls/repo/library/md.c:783:53
	ldr	r5, [r4, #8]
.Ltmp209:
	.loc	3 783 9                         @ ../../../components/network/thread/subg_openthread/third_party/mbedtls/repo/library/md.c:783:9
	cbz	r5, .LBB15_5
.Ltmp210:
@ %bb.3:
	@DEBUG_VALUE: mbedtls_md_hmac_reset:ctx <- $r4
	@DEBUG_VALUE: mbedtls_md_hmac_reset:ret <- -110
	@DEBUG_VALUE: mbedtls_md_hmac_reset:ipad <- $r5
	.loc	3 788 17 is_stmt 1              @ ../../../components/network/thread/subg_openthread/third_party/mbedtls/repo/library/md.c:788:17
	mov	r0, r4
	bl	mbedtls_md_starts
.Ltmp211:
	@DEBUG_VALUE: mbedtls_md_hmac_reset:ret <- $r0
	.loc	3 788 9 is_stmt 0               @ ../../../components/network/thread/subg_openthread/third_party/mbedtls/repo/library/md.c:788:9
	cbz	r0, .LBB15_6
.Ltmp212:
.LBB15_4:
	@DEBUG_VALUE: mbedtls_md_hmac_reset:ipad <- $r5
	@DEBUG_VALUE: mbedtls_md_hmac_reset:ctx <- $r4
	.loc	3 791 1 is_stmt 1               @ ../../../components/network/thread/subg_openthread/third_party/mbedtls/repo/library/md.c:791:1
	pop	{r4, r5, r6, pc}
.Ltmp213:
.LBB15_5:
	@DEBUG_VALUE: mbedtls_md_hmac_reset:ret <- -110
	.loc	3 0 0 is_stmt 0                 @ ../../../components/network/thread/subg_openthread/third_party/mbedtls/repo/library/md.c:0:0
	mov	r0, r6
	.loc	3 791 1                         @ ../../../components/network/thread/subg_openthread/third_party/mbedtls/repo/library/md.c:791:1
	pop	{r4, r5, r6, pc}
.Ltmp214:
.LBB15_6:
	@DEBUG_VALUE: mbedtls_md_hmac_reset:ipad <- $r5
	@DEBUG_VALUE: mbedtls_md_hmac_reset:ctx <- $r4
	@DEBUG_VALUE: mbedtls_md_hmac_reset:ret <- $r0
	.loc	3 790 48 is_stmt 1              @ ../../../components/network/thread/subg_openthread/third_party/mbedtls/repo/library/md.c:790:48
	ldr	r1, [r4]
.Ltmp215:
	@DEBUG_VALUE: mbedtls_md_update:ilen <- [DW_OP_LLVM_convert 8 7, DW_OP_LLVM_convert 32 7, DW_OP_stack_value] undef
	@DEBUG_VALUE: mbedtls_md_update:input <- $r5
	@DEBUG_VALUE: mbedtls_md_update:ctx <- $r4
	.loc	3 528 27                        @ ../../../components/network/thread/subg_openthread/third_party/mbedtls/repo/library/md.c:528:27
	ldr	r0, [r1, #4]
.Ltmp216:
	.loc	3 528 5 is_stmt 0               @ ../../../components/network/thread/subg_openthread/third_party/mbedtls/repo/library/md.c:528:5
	subs	r0, #5
	cmp	r0, #1
.Ltmp217:
	.loc	3 0 0                           @ ../../../components/network/thread/subg_openthread/third_party/mbedtls/repo/library/md.c:0:0
	mov	r0, r6
	@DEBUG_VALUE: mbedtls_md_update:ctx <- $r4
	@DEBUG_VALUE: mbedtls_md_update:input <- $r5
.Ltmp218:
	.loc	3 528 5                         @ ../../../components/network/thread/subg_openthread/third_party/mbedtls/repo/library/md.c:528:5
	bhi	.LBB15_4
.Ltmp219:
@ %bb.7:
	@DEBUG_VALUE: mbedtls_md_update:input <- $r5
	@DEBUG_VALUE: mbedtls_md_hmac_reset:ipad <- $r5
	@DEBUG_VALUE: mbedtls_md_update:ctx <- $r4
	@DEBUG_VALUE: mbedtls_md_hmac_reset:ctx <- $r4
	.loc	3 553 53 is_stmt 1              @ ../../../components/network/thread/subg_openthread/third_party/mbedtls/repo/library/md.c:553:53
	ldr	r0, [r4, #4]
.Ltmp220:
	.loc	3 790 57                        @ ../../../components/network/thread/subg_openthread/third_party/mbedtls/repo/library/md.c:790:57
	ldrb	r2, [r1, #9]
.Ltmp221:
	@DEBUG_VALUE: mbedtls_md_update:ilen <- $r2
	.loc	3 553 21                        @ ../../../components/network/thread/subg_openthread/third_party/mbedtls/repo/library/md.c:553:21
	mov	r1, r5
	pop.w	{r4, r5, r6, lr}
.Ltmp222:
	@DEBUG_VALUE: mbedtls_md_hmac_reset:ctx <- [DW_OP_LLVM_entry_value 1] $r0
	b	mbedtls_sha256_update_ret
.Ltmp223:
.Lfunc_end15:
	.size	mbedtls_md_hmac_reset, .Lfunc_end15-mbedtls_md_hmac_reset
	.cfi_endproc
	.cantunwind
	.fnend
                                        @ -- End function
	.section	.text.mbedtls_md_hmac,"ax",%progbits
	.hidden	mbedtls_md_hmac                 @ -- Begin function mbedtls_md_hmac
	.globl	mbedtls_md_hmac
	.p2align	1
	.type	mbedtls_md_hmac,%function
	.code	16                              @ @mbedtls_md_hmac
	.thumb_func
mbedtls_md_hmac:
.Lfunc_begin16:
	.loc	3 797 0                         @ ../../../components/network/thread/subg_openthread/third_party/mbedtls/repo/library/md.c:797:0
	.fnstart
	.cfi_startproc
@ %bb.0:
	@DEBUG_VALUE: mbedtls_md_hmac:md_info <- $r0
	@DEBUG_VALUE: mbedtls_md_hmac:key <- $r1
	@DEBUG_VALUE: mbedtls_md_hmac:keylen <- $r2
	@DEBUG_VALUE: mbedtls_md_hmac:input <- $r3
	@DEBUG_VALUE: mbedtls_md_hmac:input <- $r3
	@DEBUG_VALUE: mbedtls_md_hmac:keylen <- $r2
	@DEBUG_VALUE: mbedtls_md_hmac:key <- $r1
	@DEBUG_VALUE: mbedtls_md_hmac:md_info <- $r0
	.save	{r4, r5, r6, r7, r8, lr}
	push.w	{r4, r5, r6, r7, r8, lr}
	.cfi_def_cfa_offset 24
	.cfi_offset lr, -4
	.cfi_offset r8, -8
	.cfi_offset r7, -12
	.cfi_offset r6, -16
	.cfi_offset r5, -20
	.cfi_offset r4, -24
	.pad	#16
	sub	sp, #16
	.cfi_def_cfa_offset 40
.Ltmp224:
	@DEBUG_VALUE: mbedtls_md_hmac:output <- [DW_OP_plus_uconst 44] [$sp+0]
	@DEBUG_VALUE: mbedtls_md_hmac:ilen <- [DW_OP_plus_uconst 40] [$sp+0]
	movw	r5, #44800
	movt	r5, #65535
.Ltmp225:
	@DEBUG_VALUE: mbedtls_md_hmac:ret <- -110
	.loc	3 801 9 prologue_end            @ ../../../components/network/thread/subg_openthread/third_party/mbedtls/repo/library/md.c:801:9
	cbz	r0, .LBB16_10
.Ltmp226:
@ %bb.1:
	@DEBUG_VALUE: mbedtls_md_hmac:input <- $r3
	@DEBUG_VALUE: mbedtls_md_hmac:keylen <- $r2
	@DEBUG_VALUE: mbedtls_md_hmac:key <- $r1
	@DEBUG_VALUE: mbedtls_md_hmac:md_info <- $r0
	@DEBUG_VALUE: mbedtls_md_hmac:ilen <- [DW_OP_plus_uconst 40] [$sp+0]
	@DEBUG_VALUE: mbedtls_md_hmac:output <- [DW_OP_plus_uconst 44] [$sp+0]
	@DEBUG_VALUE: mbedtls_md_hmac:ret <- -110
	.loc	3 0 9 is_stmt 0                 @ ../../../components/network/thread/subg_openthread/third_party/mbedtls/repo/library/md.c:0:9
	mov	r4, r1
.Ltmp227:
	@DEBUG_VALUE: mbedtls_md_hmac:key <- $r4
	@DEBUG_VALUE: mbedtls_md_hmac:key <- $r4
	mov	r1, r0
.Ltmp228:
	@DEBUG_VALUE: mbedtls_md_hmac:md_info <- $r1
	movs	r0, #0
.Ltmp229:
	@DEBUG_VALUE: mbedtls_md_init:ctx <- [DW_OP_plus_uconst 4, DW_OP_stack_value] $sp
	mov	r7, r2
.Ltmp230:
	@DEBUG_VALUE: mbedtls_md_hmac:keylen <- $r7
	@DEBUG_VALUE: mbedtls_md_hmac:keylen <- $r7
	.loc	3 267 5 is_stmt 1               @ ../../../components/network/thread/subg_openthread/third_party/mbedtls/repo/library/md.c:267:5
	str	r0, [sp, #12]
	strd	r0, r0, [sp, #4]
	add	r0, sp, #4
.Ltmp231:
	.loc	3 806 17                        @ ../../../components/network/thread/subg_openthread/third_party/mbedtls/repo/library/md.c:806:17
	movs	r2, #1
	mov	r8, r3
.Ltmp232:
	@DEBUG_VALUE: mbedtls_md_hmac:input <- $r8
	@DEBUG_VALUE: mbedtls_md_hmac:input <- $r8
	bl	mbedtls_md_setup
.Ltmp233:
	mov	r6, r0
.Ltmp234:
	@DEBUG_VALUE: mbedtls_md_hmac:ret <- $r6
	.loc	3 806 9 is_stmt 0               @ ../../../components/network/thread/subg_openthread/third_party/mbedtls/repo/library/md.c:806:9
	cbnz	r0, .LBB16_9
.Ltmp235:
@ %bb.2:
	@DEBUG_VALUE: mbedtls_md_hmac:input <- $r8
	@DEBUG_VALUE: mbedtls_md_hmac:keylen <- $r7
	@DEBUG_VALUE: mbedtls_md_hmac:ret <- $r6
	@DEBUG_VALUE: mbedtls_md_hmac:key <- $r4
	@DEBUG_VALUE: mbedtls_md_hmac:ilen <- [DW_OP_plus_uconst 40] [$sp+0]
	@DEBUG_VALUE: mbedtls_md_hmac:output <- [DW_OP_plus_uconst 44] [$sp+0]
	.loc	3 0 9                           @ ../../../components/network/thread/subg_openthread/third_party/mbedtls/repo/library/md.c:0:9
	add	r0, sp, #4
.Ltmp236:
	.loc	3 809 17 is_stmt 1              @ ../../../components/network/thread/subg_openthread/third_party/mbedtls/repo/library/md.c:809:17
	mov	r1, r4
	mov	r2, r7
	bl	mbedtls_md_hmac_starts
.Ltmp237:
	mov	r6, r0
.Ltmp238:
	@DEBUG_VALUE: mbedtls_md_hmac:ret <- $r6
	.loc	3 809 9 is_stmt 0               @ ../../../components/network/thread/subg_openthread/third_party/mbedtls/repo/library/md.c:809:9
	cbnz	r0, .LBB16_9
.Ltmp239:
@ %bb.3:
	@DEBUG_VALUE: mbedtls_md_hmac:input <- $r8
	@DEBUG_VALUE: mbedtls_md_hmac:keylen <- $r7
	@DEBUG_VALUE: mbedtls_md_hmac:ret <- $r6
	@DEBUG_VALUE: mbedtls_md_hmac:key <- $r4
	@DEBUG_VALUE: mbedtls_md_hmac:ilen <- [DW_OP_plus_uconst 40] [$sp+0]
	@DEBUG_VALUE: mbedtls_md_hmac:output <- [DW_OP_plus_uconst 44] [$sp+0]
	@DEBUG_VALUE: mbedtls_md_hmac_update:ctx <- [DW_OP_plus_uconst 4, DW_OP_stack_value] $sp
	@DEBUG_VALUE: mbedtls_md_hmac_update:input <- $r8
	@DEBUG_VALUE: mbedtls_md_hmac_update:ilen <- undef
	.loc	3 748 29 is_stmt 1              @ ../../../components/network/thread/subg_openthread/third_party/mbedtls/repo/library/md.c:748:29
	ldr	r0, [sp, #4]
	.loc	3 748 45 is_stmt 0              @ ../../../components/network/thread/subg_openthread/third_party/mbedtls/repo/library/md.c:748:45
	cbz	r0, .LBB16_8
.Ltmp240:
@ %bb.4:
	@DEBUG_VALUE: mbedtls_md_hmac_update:input <- $r8
	@DEBUG_VALUE: mbedtls_md_hmac:input <- $r8
	@DEBUG_VALUE: mbedtls_md_hmac:keylen <- $r7
	@DEBUG_VALUE: mbedtls_md_hmac:ret <- $r6
	@DEBUG_VALUE: mbedtls_md_hmac:key <- $r4
	@DEBUG_VALUE: mbedtls_md_hmac_update:ctx <- [DW_OP_plus_uconst 4, DW_OP_stack_value] $sp
	@DEBUG_VALUE: mbedtls_md_hmac:ilen <- [DW_OP_plus_uconst 40] [$sp+0]
	@DEBUG_VALUE: mbedtls_md_hmac:output <- [DW_OP_plus_uconst 44] [$sp+0]
	@DEBUG_VALUE: mbedtls_md_hmac_update:ilen <- undef
	.loc	3 748 53                        @ ../../../components/network/thread/subg_openthread/third_party/mbedtls/repo/library/md.c:748:53
	ldr	r1, [sp, #12]
.Ltmp241:
	.loc	3 748 9                         @ ../../../components/network/thread/subg_openthread/third_party/mbedtls/repo/library/md.c:748:9
	cbz	r1, .LBB16_8
.Ltmp242:
@ %bb.5:
	@DEBUG_VALUE: mbedtls_md_hmac_update:input <- $r8
	@DEBUG_VALUE: mbedtls_md_hmac:input <- $r8
	@DEBUG_VALUE: mbedtls_md_hmac:keylen <- $r7
	@DEBUG_VALUE: mbedtls_md_hmac:ret <- $r6
	@DEBUG_VALUE: mbedtls_md_hmac:key <- $r4
	@DEBUG_VALUE: mbedtls_md_hmac_update:ctx <- [DW_OP_plus_uconst 4, DW_OP_stack_value] $sp
	@DEBUG_VALUE: mbedtls_md_hmac:ilen <- [DW_OP_plus_uconst 40] [$sp+0]
	@DEBUG_VALUE: mbedtls_md_hmac:output <- [DW_OP_plus_uconst 44] [$sp+0]
	@DEBUG_VALUE: mbedtls_md_hmac_update:ilen <- undef
	@DEBUG_VALUE: mbedtls_md_update:ctx <- [DW_OP_plus_uconst 4, DW_OP_stack_value] $sp
	@DEBUG_VALUE: mbedtls_md_update:input <- $r8
	@DEBUG_VALUE: mbedtls_md_update:ilen <- undef
	.loc	3 528 27 is_stmt 1              @ ../../../components/network/thread/subg_openthread/third_party/mbedtls/repo/library/md.c:528:27
	ldr	r0, [r0, #4]
.Ltmp243:
	.loc	3 0 0 is_stmt 0                 @ ../../../components/network/thread/subg_openthread/third_party/mbedtls/repo/library/md.c:0:0
	mov	r6, r5
.Ltmp244:
	@DEBUG_VALUE: mbedtls_md_update:ctx <- [DW_OP_plus_uconst 4, DW_OP_stack_value] $sp
	@DEBUG_VALUE: mbedtls_md_update:input <- $r8
	.loc	3 528 5                         @ ../../../components/network/thread/subg_openthread/third_party/mbedtls/repo/library/md.c:528:5
	subs	r0, #5
	cmp	r0, #1
	bhi	.LBB16_9
.Ltmp245:
@ %bb.6:
	@DEBUG_VALUE: mbedtls_md_update:input <- $r8
	@DEBUG_VALUE: mbedtls_md_hmac_update:input <- $r8
	@DEBUG_VALUE: mbedtls_md_hmac:input <- $r8
	@DEBUG_VALUE: mbedtls_md_hmac:keylen <- $r7
	@DEBUG_VALUE: mbedtls_md_hmac:key <- $r4
	@DEBUG_VALUE: mbedtls_md_update:ctx <- [DW_OP_plus_uconst 4, DW_OP_stack_value] $sp
	@DEBUG_VALUE: mbedtls_md_hmac_update:ctx <- [DW_OP_plus_uconst 4, DW_OP_stack_value] $sp
	@DEBUG_VALUE: mbedtls_md_hmac:ilen <- [DW_OP_plus_uconst 40] [$sp+0]
	@DEBUG_VALUE: mbedtls_md_hmac:output <- [DW_OP_plus_uconst 44] [$sp+0]
	.loc	3 0 5                           @ ../../../components/network/thread/subg_openthread/third_party/mbedtls/repo/library/md.c:0:5
	ldr	r2, [sp, #40]
.Ltmp246:
	@DEBUG_VALUE: mbedtls_md_update:ilen <- $r2
	@DEBUG_VALUE: mbedtls_md_hmac_update:ilen <- $r2
	.loc	3 553 53 is_stmt 1              @ ../../../components/network/thread/subg_openthread/third_party/mbedtls/repo/library/md.c:553:53
	ldr	r0, [sp, #8]
	.loc	3 553 21 is_stmt 0              @ ../../../components/network/thread/subg_openthread/third_party/mbedtls/repo/library/md.c:553:21
	mov	r1, r8
	bl	mbedtls_sha256_update_ret
.Ltmp247:
	mov	r6, r0
.Ltmp248:
	@DEBUG_VALUE: mbedtls_md_hmac:ret <- $r6
	.loc	3 811 9 is_stmt 1               @ ../../../components/network/thread/subg_openthread/third_party/mbedtls/repo/library/md.c:811:9
	cbnz	r0, .LBB16_9
.Ltmp249:
@ %bb.7:
	@DEBUG_VALUE: mbedtls_md_hmac:input <- $r8
	@DEBUG_VALUE: mbedtls_md_hmac:keylen <- $r7
	@DEBUG_VALUE: mbedtls_md_hmac:ret <- $r6
	@DEBUG_VALUE: mbedtls_md_hmac:key <- $r4
	@DEBUG_VALUE: mbedtls_md_hmac:ilen <- [DW_OP_plus_uconst 40] [$sp+0]
	@DEBUG_VALUE: mbedtls_md_hmac:output <- [DW_OP_plus_uconst 44] [$sp+0]
	.loc	3 0 9 is_stmt 0                 @ ../../../components/network/thread/subg_openthread/third_party/mbedtls/repo/library/md.c:0:9
	ldr	r1, [sp, #44]
	add	r0, sp, #4
.Ltmp250:
	.loc	3 813 17 is_stmt 1              @ ../../../components/network/thread/subg_openthread/third_party/mbedtls/repo/library/md.c:813:17
	bl	mbedtls_md_hmac_finish
.Ltmp251:
	mov	r6, r0
.Ltmp252:
	@DEBUG_VALUE: mbedtls_md_hmac:ret <- $r6
	.loc	3 0 17 is_stmt 0                @ ../../../components/network/thread/subg_openthread/third_party/mbedtls/repo/library/md.c:0:17
	b	.LBB16_9
.Ltmp253:
.LBB16_8:
	@DEBUG_VALUE: mbedtls_md_hmac_update:input <- $r8
	@DEBUG_VALUE: mbedtls_md_hmac:input <- $r8
	@DEBUG_VALUE: mbedtls_md_hmac:keylen <- $r7
	@DEBUG_VALUE: mbedtls_md_hmac:ret <- $r6
	@DEBUG_VALUE: mbedtls_md_hmac:key <- $r4
	@DEBUG_VALUE: mbedtls_md_hmac_update:ctx <- [DW_OP_plus_uconst 4, DW_OP_stack_value] $sp
	@DEBUG_VALUE: mbedtls_md_hmac:ilen <- [DW_OP_plus_uconst 40] [$sp+0]
	@DEBUG_VALUE: mbedtls_md_hmac:output <- [DW_OP_plus_uconst 44] [$sp+0]
	mov	r6, r5
.Ltmp254:
.LBB16_9:
	@DEBUG_VALUE: mbedtls_md_hmac:input <- $r8
	@DEBUG_VALUE: mbedtls_md_hmac:keylen <- $r7
	@DEBUG_VALUE: mbedtls_md_hmac:key <- $r4
	@DEBUG_VALUE: mbedtls_md_hmac:ilen <- [DW_OP_plus_uconst 40] [$sp+0]
	@DEBUG_VALUE: mbedtls_md_hmac:output <- [DW_OP_plus_uconst 44] [$sp+0]
	@DEBUG_VALUE: mbedtls_md_hmac:ret <- $r6
	@DEBUG_LABEL: mbedtls_md_hmac:cleanup
	add	r0, sp, #4
	.loc	3 817 5 is_stmt 1               @ ../../../components/network/thread/subg_openthread/third_party/mbedtls/repo/library/md.c:817:5
	bl	mbedtls_md_free
.Ltmp255:
	.loc	3 0 0 is_stmt 0                 @ ../../../components/network/thread/subg_openthread/third_party/mbedtls/repo/library/md.c:0:0
	mov	r5, r6
.Ltmp256:
	@DEBUG_VALUE: mbedtls_md_hmac:ret <- $r5
	@DEBUG_VALUE: mbedtls_md_hmac:ret <- $r5
.LBB16_10:
	@DEBUG_VALUE: mbedtls_md_hmac:ilen <- [DW_OP_plus_uconst 40] [$sp+0]
	@DEBUG_VALUE: mbedtls_md_hmac:output <- [DW_OP_plus_uconst 44] [$sp+0]
	.loc	3 820 1 is_stmt 1               @ ../../../components/network/thread/subg_openthread/third_party/mbedtls/repo/library/md.c:820:1
	mov	r0, r5
	add	sp, #16
	pop.w	{r4, r5, r6, r7, r8, pc}
.Ltmp257:
.Lfunc_end16:
	.size	mbedtls_md_hmac, .Lfunc_end16-mbedtls_md_hmac
	.cfi_endproc
	.cantunwind
	.fnend
                                        @ -- End function
	.section	.text.mbedtls_md_process,"ax",%progbits
	.hidden	mbedtls_md_process              @ -- Begin function mbedtls_md_process
	.globl	mbedtls_md_process
	.p2align	1
	.type	mbedtls_md_process,%function
	.code	16                              @ @mbedtls_md_process
	.thumb_func
mbedtls_md_process:
.Lfunc_begin17:
	.loc	3 823 0                         @ ../../../components/network/thread/subg_openthread/third_party/mbedtls/repo/library/md.c:823:0
	.fnstart
	.cfi_startproc
@ %bb.0:
	@DEBUG_VALUE: mbedtls_md_process:ctx <- $r0
	@DEBUG_VALUE: mbedtls_md_process:ctx <- $r0
	@DEBUG_VALUE: mbedtls_md_process:data <- $r1
	@DEBUG_VALUE: mbedtls_md_process:data <- $r1
	.loc	3 824 21 prologue_end           @ ../../../components/network/thread/subg_openthread/third_party/mbedtls/repo/library/md.c:824:21
	cbz	r0, .LBB17_4
.Ltmp258:
@ %bb.1:
	@DEBUG_VALUE: mbedtls_md_process:data <- $r1
	@DEBUG_VALUE: mbedtls_md_process:ctx <- $r0
	.loc	3 824 29 is_stmt 0              @ ../../../components/network/thread/subg_openthread/third_party/mbedtls/repo/library/md.c:824:29
	ldr	r2, [r0]
.Ltmp259:
	.loc	3 824 9                         @ ../../../components/network/thread/subg_openthread/third_party/mbedtls/repo/library/md.c:824:9
	cbz	r2, .LBB17_4
.Ltmp260:
@ %bb.2:
	@DEBUG_VALUE: mbedtls_md_process:data <- $r1
	@DEBUG_VALUE: mbedtls_md_process:ctx <- $r0
	.loc	3 827 27 is_stmt 1              @ ../../../components/network/thread/subg_openthread/third_party/mbedtls/repo/library/md.c:827:27
	ldr	r2, [r2, #4]
	.loc	3 827 5 is_stmt 0               @ ../../../components/network/thread/subg_openthread/third_party/mbedtls/repo/library/md.c:827:5
	subs	r2, #5
	cmp	r2, #1
	bhi	.LBB17_4
.Ltmp261:
@ %bb.3:
	@DEBUG_VALUE: mbedtls_md_process:data <- $r1
	@DEBUG_VALUE: mbedtls_md_process:ctx <- $r0
	.loc	3 852 59 is_stmt 1              @ ../../../components/network/thread/subg_openthread/third_party/mbedtls/repo/library/md.c:852:59
	ldr	r0, [r0, #4]
.Ltmp262:
	@DEBUG_VALUE: mbedtls_md_process:ctx <- [DW_OP_LLVM_entry_value 1] $r0
	.loc	3 852 21 is_stmt 0              @ ../../../components/network/thread/subg_openthread/third_party/mbedtls/repo/library/md.c:852:21
	b	mbedtls_internal_sha256_process
.Ltmp263:
.LBB17_4:
	@DEBUG_VALUE: mbedtls_md_process:data <- $r1
	@DEBUG_VALUE: mbedtls_md_process:ctx <- $r0
	.loc	3 0 21                          @ ../../../components/network/thread/subg_openthread/third_party/mbedtls/repo/library/md.c:0:21
	movw	r0, #44800
.Ltmp264:
	@DEBUG_VALUE: mbedtls_md_process:ctx <- [DW_OP_LLVM_entry_value 1] $r0
	movt	r0, #65535
	.loc	3 864 1 is_stmt 1               @ ../../../components/network/thread/subg_openthread/third_party/mbedtls/repo/library/md.c:864:1
	bx	lr
.Ltmp265:
.Lfunc_end17:
	.size	mbedtls_md_process, .Lfunc_end17-mbedtls_md_process
	.cfi_endproc
	.cantunwind
	.fnend
                                        @ -- End function
	.section	.text.mbedtls_md_get_size,"ax",%progbits
	.hidden	mbedtls_md_get_size             @ -- Begin function mbedtls_md_get_size
	.globl	mbedtls_md_get_size
	.p2align	1
	.type	mbedtls_md_get_size,%function
	.code	16                              @ @mbedtls_md_get_size
	.thumb_func
mbedtls_md_get_size:
.Lfunc_begin18:
	.loc	3 867 0                         @ ../../../components/network/thread/subg_openthread/third_party/mbedtls/repo/library/md.c:867:0
	.fnstart
	.cfi_startproc
@ %bb.0:
	@DEBUG_VALUE: mbedtls_md_get_size:md_info <- $r0
	@DEBUG_VALUE: mbedtls_md_get_size:md_info <- $r0
	.loc	3 868 9 prologue_end            @ ../../../components/network/thread/subg_openthread/third_party/mbedtls/repo/library/md.c:868:9
	cmp	r0, #0
	.loc	3 871 21                        @ ../../../components/network/thread/subg_openthread/third_party/mbedtls/repo/library/md.c:871:21
	ite	ne
	ldrbne	r0, [r0, #8]
.Ltmp266:
	@DEBUG_VALUE: mbedtls_md_get_size:md_info <- [DW_OP_LLVM_entry_value 1] $r0
	.loc	3 0 21 is_stmt 0                @ ../../../components/network/thread/subg_openthread/third_party/mbedtls/repo/library/md.c:0:21
	moveq	r0, #0
	.loc	3 872 1 is_stmt 1               @ ../../../components/network/thread/subg_openthread/third_party/mbedtls/repo/library/md.c:872:1
	bx	lr
.Ltmp267:
.Lfunc_end18:
	.size	mbedtls_md_get_size, .Lfunc_end18-mbedtls_md_get_size
	.cfi_endproc
	.cantunwind
	.fnend
                                        @ -- End function
	.section	.text.mbedtls_md_get_type,"ax",%progbits
	.hidden	mbedtls_md_get_type             @ -- Begin function mbedtls_md_get_type
	.globl	mbedtls_md_get_type
	.p2align	1
	.type	mbedtls_md_get_type,%function
	.code	16                              @ @mbedtls_md_get_type
	.thumb_func
mbedtls_md_get_type:
.Lfunc_begin19:
	.loc	3 875 0                         @ ../../../components/network/thread/subg_openthread/third_party/mbedtls/repo/library/md.c:875:0
	.fnstart
	.cfi_startproc
@ %bb.0:
	@DEBUG_VALUE: mbedtls_md_get_type:md_info <- $r0
	@DEBUG_VALUE: mbedtls_md_get_type:md_info <- $r0
	.loc	3 876 9 prologue_end            @ ../../../components/network/thread/subg_openthread/third_party/mbedtls/repo/library/md.c:876:9
	cmp	r0, #0
	.loc	3 879 21                        @ ../../../components/network/thread/subg_openthread/third_party/mbedtls/repo/library/md.c:879:21
	ite	ne
	ldrne	r0, [r0, #4]
.Ltmp268:
	@DEBUG_VALUE: mbedtls_md_get_type:md_info <- [DW_OP_LLVM_entry_value 1] $r0
	.loc	3 0 21 is_stmt 0                @ ../../../components/network/thread/subg_openthread/third_party/mbedtls/repo/library/md.c:0:21
	moveq	r0, #0
	.loc	3 880 1 is_stmt 1               @ ../../../components/network/thread/subg_openthread/third_party/mbedtls/repo/library/md.c:880:1
	bx	lr
.Ltmp269:
.Lfunc_end19:
	.size	mbedtls_md_get_type, .Lfunc_end19-mbedtls_md_get_type
	.cfi_endproc
	.cantunwind
	.fnend
                                        @ -- End function
	.section	.text.mbedtls_md_get_name,"ax",%progbits
	.hidden	mbedtls_md_get_name             @ -- Begin function mbedtls_md_get_name
	.globl	mbedtls_md_get_name
	.p2align	1
	.type	mbedtls_md_get_name,%function
	.code	16                              @ @mbedtls_md_get_name
	.thumb_func
mbedtls_md_get_name:
.Lfunc_begin20:
	.loc	3 883 0                         @ ../../../components/network/thread/subg_openthread/third_party/mbedtls/repo/library/md.c:883:0
	.fnstart
	.cfi_startproc
@ %bb.0:
	@DEBUG_VALUE: mbedtls_md_get_name:md_info <- $r0
	@DEBUG_VALUE: mbedtls_md_get_name:md_info <- $r0
	.loc	3 884 9 prologue_end            @ ../../../components/network/thread/subg_openthread/third_party/mbedtls/repo/library/md.c:884:9
	cmp	r0, #0
	.loc	3 887 21                        @ ../../../components/network/thread/subg_openthread/third_party/mbedtls/repo/library/md.c:887:21
	ite	ne
	ldrne	r0, [r0]
.Ltmp270:
	@DEBUG_VALUE: mbedtls_md_get_name:md_info <- [DW_OP_LLVM_entry_value 1] $r0
	.loc	3 0 21 is_stmt 0                @ ../../../components/network/thread/subg_openthread/third_party/mbedtls/repo/library/md.c:0:21
	moveq	r0, #0
	.loc	3 888 1 is_stmt 1               @ ../../../components/network/thread/subg_openthread/third_party/mbedtls/repo/library/md.c:888:1
	bx	lr
.Ltmp271:
.Lfunc_end20:
	.size	mbedtls_md_get_name, .Lfunc_end20-mbedtls_md_get_name
	.cfi_endproc
	.cantunwind
	.fnend
                                        @ -- End function
	.type	.L.str,%object                  @ @.str
	.section	.rodata.str1.1,"aMS",%progbits,1
.L.str:
	.asciz	"SHA224"
	.size	.L.str, 7

	.hidden	mbedtls_sha224_info             @ @mbedtls_sha224_info
	.type	mbedtls_sha224_info,%object
	.section	.rodata.mbedtls_sha224_info,"a",%progbits
	.globl	mbedtls_sha224_info
	.p2align	2
mbedtls_sha224_info:
	.long	.L.str
	.long	5                               @ 0x5
	.byte	28                              @ 0x1c
	.byte	64                              @ 0x40
	.zero	2
	.size	mbedtls_sha224_info, 12

	.type	.L.str.1,%object                @ @.str.1
	.section	.rodata.str1.1,"aMS",%progbits,1
.L.str.1:
	.asciz	"SHA256"
	.size	.L.str.1, 7

	.hidden	mbedtls_sha256_info             @ @mbedtls_sha256_info
	.type	mbedtls_sha256_info,%object
	.section	.rodata.mbedtls_sha256_info,"a",%progbits
	.globl	mbedtls_sha256_info
	.p2align	2
mbedtls_sha256_info:
	.long	.L.str.1
	.long	6                               @ 0x6
	.byte	32                              @ 0x20
	.byte	64                              @ 0x40
	.zero	2
	.size	mbedtls_sha256_info, 12

	.type	supported_digests,%object       @ @supported_digests
	.section	.rodata.supported_digests,"a",%progbits
	.p2align	2
supported_digests:
	.long	6                               @ 0x6
	.long	5                               @ 0x5
	.long	0                               @ 0x0
	.size	supported_digests, 12

	.section	".note.GNU-stack","",%progbits
	.eabi_attribute	30, 3	@ Tag_ABI_optimization_goals
	.ARM_attribute	16, 1	@ Tag_AV_eba