	.text
	.syntax unified
	.eabi_attribute	67, "2.09"	@ Tag_conformance
	.cpu	cortex-m3
	.eabi_attribute	6, 10	@ Tag_CPU_arch
	.eabi_attribute	7, 77	@ Tag_CPU_arch_profile
	.eabi_attribute	8, 0	@ Tag_ARM_ISA_use
	.eabi_attribute	9, 2	@ Tag_THUMB_ISA_use
	.eabi_attribute	34, 1	@ Tag_CPU_unaligned_access
	.eabi_attribute	17, 1	@ Tag_ABI_PCS_GOT_use
	.eabi_attribute	20, 2	@ Tag_ABI_FP_denormal
	.eabi_attribute	21, 0	@ Tag_ABI_FP_exceptions
	.eabi_attribute	23, 1	@ Tag_ABI_FP_number_model
	.eabi_attribute	24, 1	@ Tag_ABI_align_needed
	.eabi_attribute	25, 1	@ Tag_ABI_align_preserved
	.eabi_attribute	38, 1	@ Tag_ABI_FP_16bit_format
	.eabi_attribute	18, 4	@ Tag_ABI_PCS_wchar_t
	.eabi_attribute	26, 2	@ Tag_ABI_enum_size
	.eabi_attribute	14, 0	@ Tag_ABI_PCS_R9_use
	.file	"meshcop_tlvs.cpp"
	.file	1 "D:\\Rafael-IoT-SDK-Internal-main\\examples\\das_subg_thread\\keil" "../../../components/network/thread/subg_openthread/include\\openthread/error.h"
	.file	2 "D:\\Rafael-IoT-SDK-Internal-main\\examples\\das_subg_thread\\keil" "../../../components/network/thread/subg_openthread/src/core\\common/message.hpp"
	.file	3 "D:\\Rafael-IoT-SDK-Internal-main\\examples\\das_subg_thread\\keil" "../../../components/network/thread/subg_openthread/include\\openthread/message.h"
	.file	4 "D:\\Rafael-IoT-SDK-Internal-main\\examples\\das_subg_thread\\keil" "../../../components/network/thread/subg_openthread/include\\openthread/platform/messagepool.h"
	.file	5 "D:\\Rafael-IoT-SDK-Internal-main\\examples\\das_subg_thread\\keil" "../../../components/network/thread/subg_openthread/src/core\\common/linked_list.hpp"
	.file	6 "C:\\Keil_v5\\ARM\\ARMCLANG\\Bin\\..\\include" "stdint.h"
	.file	7 "D:\\Rafael-IoT-SDK-Internal-main\\examples\\das_subg_thread\\keil" "../../../components/network/thread/subg_openthread/src/core\\common/locator.hpp"
	.file	8 "D:\\Rafael-IoT-SDK-Internal-main\\examples\\das_subg_thread\\keil" "../../../components/network/thread/subg_openthread/src/core\\common/non_copyable.hpp"
	.file	9 "D:\\Rafael-IoT-SDK-Internal-main\\examples\\das_subg_thread\\keil" "../../../components/network/thread/subg_openthread/src/core\\common/error.hpp"
	.file	10 "D:\\Rafael-IoT-SDK-Internal-main\\examples\\das_subg_thread\\keil" "../../../components/network/thread/subg_openthread/src/core\\common/pool.hpp"
	.file	11 "D:\\Rafael-IoT-SDK-Internal-main\\examples\\das_subg_thread\\keil" "../../../components/network/thread/subg_openthread/src/core\\common/equatable.hpp"
	.file	12 "D:\\Rafael-IoT-SDK-Internal-main\\examples\\das_subg_thread\\keil" "../../../components/network/thread/subg_openthread/src/core\\common/time.hpp"
	.file	13 "D:\\Rafael-IoT-SDK-Internal-main\\examples\\das_subg_thread\\keil" "../../../components/network/thread/subg_openthread/src/core\\common/clearable.hpp"
	.file	14 "D:\\Rafael-IoT-SDK-Internal-main\\examples\\das_subg_thread\\keil" "../../../components/network/thread/subg_openthread/src/core\\thread/link_quality.hpp"
	.file	15 "D:\\Rafael-IoT-SDK-Internal-main\\examples\\das_subg_thread\\keil" "../../../components/network/thread/subg_openthread/src/core\\common/bit_vector.hpp"
	.file	16 "D:\\Rafael-IoT-SDK-Internal-main\\examples\\das_subg_thread\\keil" "../../../components/network/thread/subg_openthread/src/core\\thread/child_mask.hpp"
	.file	17 "D:\\Rafael-IoT-SDK-Internal-main\\examples\\das_subg_thread\\keil" "../../../components/network/thread/subg_openthread/src/core\\common/data.hpp"
	.file	18 "D:\\Rafael-IoT-SDK-Internal-main\\examples\\das_subg_thread\\keil" "../../../components/network/thread/subg_openthread/src/core\\common/iterator_utils.hpp"
	.file	19 "D:\\Rafael-IoT-SDK-Internal-main\\examples\\das_subg_thread\\keil" "../../../components/network/thread/subg_openthread/src/core\\common/type_traits.hpp"
	.file	20 "D:\\Rafael-IoT-SDK-Internal-main\\examples\\das_subg_thread\\keil" "../../../components/network/thread/subg_openthread/src/core\\common/tlvs.hpp"
	.file	21 "D:\\Rafael-IoT-SDK-Internal-main\\examples\\das_subg_thread\\keil" "../../../components/network/thread/subg_openthread/src/core\\meshcop/meshcop_tlvs.hpp"
	.file	22 "D:\\Rafael-IoT-SDK-Internal-main\\examples\\das_subg_thread\\keil" "../../../components/network/thread/subg_openthread/include\\openthread/platform/radio.h"
	.file	23 "D:\\Rafael-IoT-SDK-Internal-main\\examples\\das_subg_thread\\keil" "../../../components/network/thread/subg_openthread/src/core\\mac/mac_types.hpp"
	.file	24 "D:\\Rafael-IoT-SDK-Internal-main\\examples\\das_subg_thread\\keil" "../../../components/network/thread/subg_openthread/include\\openthread/dataset.h"
	.file	25 "D:\\Rafael-IoT-SDK-Internal-main\\examples\\das_subg_thread\\keil" "../../../components/network/thread/subg_openthread/src/core\\thread/key_manager.hpp"
	.file	26 "D:\\Rafael-IoT-SDK-Internal-main\\examples\\das_subg_thread\\keil" "../../../components/network/thread/subg_openthread/src/core\\radio/radio.hpp"
	.file	27 "D:\\Rafael-IoT-SDK-Internal-main\\examples\\das_subg_thread\\keil" "../../../components/network/thread/subg_openthread/include\\openthread/platform/crypto.h"
	.file	28 "D:\\Rafael-IoT-SDK-Internal-main\\examples\\das_subg_thread\\keil" "../../../components/network/thread/subg_openthread/include\\openthread/instance.h"
	.file	29 "C:\\Keil_v5\\ARM\\ARMCLANG\\Bin\\..\\include" "stdlib.h"
	.file	30 "C:\\Keil_v5\\ARM\\ARMCLANG\\Bin\\..\\include" "stdarg.h"
	.file	31 "C:\\Keil_v5\\ARM\\ARMCLANG\\Bin\\..\\include" "ctype.h"
	.file	32 "C:\\Keil_v5\\ARM\\ARMCLANG\\Bin\\..\\include" "stdio.h"
	.file	33 "C:\\Keil_v5\\ARM\\ARMCLANG\\Bin\\..\\include" "string.h"
	.file	34 "C:\\Keil_v5\\ARM\\ARMCLANG\\Bin\\..\\include" "stddef.h"
	.file	35 "C:\\Keil_v5\\ARM\\ARMCLANG\\Bin\\..\\include\\libcxx" "__nullptr"
	.file	36 "C:\\Keil_v5\\ARM\\ARMCLANG\\Bin\\..\\include\\libcxx" "stddef.h"
	.file	37 "D:\\Rafael-IoT-SDK-Internal-main\\examples\\das_subg_thread\\keil" "../../../components/network/thread/subg_openthread/src/core\\net/ip6_address.hpp"
	.file	38 "D:\\Rafael-IoT-SDK-Internal-main\\examples\\das_subg_thread\\keil" "../../../components/network/thread/subg_openthread/src/core\\meshcop/timestamp.hpp"
	.file	39 "D:\\Rafael-IoT-SDK-Internal-main\\examples\\das_subg_thread\\keil" "../../../components/network/thread/subg_openthread/src/core\\common/encoding.hpp"
	.file	40 "D:\\Rafael-IoT-SDK-Internal-main\\examples\\das_subg_thread\\keil" "../../../components/network/thread/subg_openthread/src/core\\mac/mac_frame.hpp"
	.file	41 "D:\\Rafael-IoT-SDK-Internal-main\\examples\\das_subg_thread\\keil" "../../../components/network/thread/subg_openthread/src/core/meshcop/meshcop_tlvs.hpp"
	.file	42 "D:\\Rafael-IoT-SDK-Internal-main\\examples\\das_subg_thread\\keil" "../../../components/network/thread/subg_openthread/src/core\\net/ip6_headers.hpp"
	.file	43 "D:\\Rafael-IoT-SDK-Internal-main\\examples\\das_subg_thread\\keil" "../../../components/network/thread/subg_openthread/src/core\\net/icmp6.hpp"
	.file	44 "D:\\Rafael-IoT-SDK-Internal-main\\examples\\das_subg_thread\\keil" "../../../components/network/thread/subg_openthread/src/core\\net/ip6.hpp"
	.file	45 "D:\\Rafael-IoT-SDK-Internal-main\\examples\\das_subg_thread\\keil" "../../../components/network/thread/subg_openthread/src/core\\coap/coap_message.hpp"
	.section	.text._ZN2ot7MeshCoP3Tlv7IsValidERKS1_,"ax",%progbits
	.hidden	_ZN2ot7MeshCoP3Tlv7IsValidERKS1_ @ -- Begin function _ZN2ot7MeshCoP3Tlv7IsValidERKS1_
	.globl	_ZN2ot7MeshCoP3Tlv7IsValidERKS1_
	.p2align	2
	.type	_ZN2ot7MeshCoP3Tlv7IsValidERKS1_,%function
	.code	16                              @ @_ZN2ot7MeshCoP3Tlv7IsValidERKS1_
	.thumb_func
_ZN2ot7MeshCoP3Tlv7IsValidERKS1_:
.Lfunc_begin0:
	.file	46 "D:\\Rafael-IoT-SDK-Internal-main\\examples\\das_subg_thread\\keil" "../../../components/network/thread/subg_openthread/src/core/meshcop/meshcop_tlvs.cpp"
	.loc	46 46 0                         @ ../../../components/network/thread/subg_openthread/src/core/meshcop/meshcop_tlvs.cpp:46:0
	.fnstart
	.cfi_sections .debug_frame
	.cfi_startproc
@ %bb.0:
	@DEBUG_VALUE: IsValid:aTlv <- $r0
	@DEBUG_VALUE: GetType:this <- $r0
	@DEBUG_VALUE: GetType:this <- $r0
	.loc	20 72 42 prologue_end           @ ../../../components/network/thread/subg_openthread/src/core\common/tlvs.hpp:72:42
	ldrb	r2, [r0]
	mov	r1, r0
.Ltmp0:
	@DEBUG_VALUE: IsValid:rval <- 1
	@DEBUG_VALUE: GetType:this <- $r1
	@DEBUG_VALUE: GetType:this <- $r1
	@DEBUG_VALUE: IsValid:aTlv <- $r1
	.loc	46 49 5                         @ ../../../components/network/thread/subg_openthread/src/core/meshcop/meshcop_tlvs.cpp:49:5
	cmp	r2, #12
	mov.w	r0, #1
	bhi	.LBB0_5
.Ltmp1:
@ %bb.1:
	@DEBUG_VALUE: IsValid:aTlv <- $r1
	@DEBUG_VALUE: GetType:this <- $r1
	@DEBUG_VALUE: GetType:this <- $r1
	@DEBUG_VALUE: IsValid:rval <- 1
	.loc	46 0 5 is_stmt 0                @ ../../../components/network/thread/subg_openthread/src/core/meshcop/meshcop_tlvs.cpp:0:5
.LCPI0_0:
	tbb	[pc, r2]
.Ltmp2:
@ %bb.2:
.LJTI0_0:
	.byte	(.LBB0_12-(.LCPI0_0+4))/2
	.byte	(.LBB0_7-(.LCPI0_0+4))/2
	.byte	(.LBB0_3-(.LCPI0_0+4))/2
	.byte	(.LBB0_9-(.LCPI0_0+4))/2
	.byte	(.LBB0_4-(.LCPI0_0+4))/2
	.byte	(.LBB0_4-(.LCPI0_0+4))/2
	.byte	(.LBB0_8-(.LCPI0_0+4))/2
	.byte	(.LBB0_3-(.LCPI0_0+4))/2
	.byte	(.LBB0_8-(.LCPI0_0+4))/2
	.byte	(.LBB0_8-(.LCPI0_0+4))/2
	.byte	(.LBB0_8-(.LCPI0_0+4))/2
	.byte	(.LBB0_8-(.LCPI0_0+4))/2
	.byte	(.LBB0_10-(.LCPI0_0+4))/2
	.p2align	1
.LBB0_3:
.Ltmp3:
	@DEBUG_VALUE: IsValid:aTlv <- $r1
	@DEBUG_VALUE: GetType:this <- $r1
	@DEBUG_VALUE: GetType:this <- $r1
	@DEBUG_VALUE: IsValid:rval <- 1
	@DEBUG_VALUE: IsValid:this <- $r1
	@DEBUG_VALUE: GetLength:this <- $r1
	ldrb	r1, [r1, #1]
.Ltmp4:
	movs	r0, #0
	cmp	r1, #7
	b	.LBB0_11
.Ltmp5:
.LBB0_4:
	@DEBUG_VALUE: IsValid:aTlv <- $r1
	@DEBUG_VALUE: GetType:this <- $r1
	@DEBUG_VALUE: GetType:this <- $r1
	@DEBUG_VALUE: IsValid:rval <- 1
	@DEBUG_VALUE: IsValid:this <- $r1
	@DEBUG_VALUE: GetLength:this <- $r1
	ldrb	r1, [r1, #1]
.Ltmp6:
	movs	r0, #0
	cmp	r1, #15
	b	.LBB0_11
.Ltmp7:
.LBB0_5:
	@DEBUG_VALUE: IsValid:aTlv <- $r1
	@DEBUG_VALUE: IsValid:rval <- 1
	.loc	46 49 5                         @ ../../../components/network/thread/subg_openthread/src/core/meshcop/meshcop_tlvs.cpp:49:5
	cmp	r2, #53
	bne	.LBB0_8
.Ltmp8:
@ %bb.6:
	@DEBUG_VALUE: IsValid:aTlv <- $r1
	@DEBUG_VALUE: IsValid:rval <- 1
	.loc	46 84 41 is_stmt 1              @ ../../../components/network/thread/subg_openthread/src/core/meshcop/meshcop_tlvs.cpp:84:41
	mov	r0, r1
.Ltmp9:
	b	_ZNK2ot7MeshCoP18ChannelMaskBaseTlv7IsValidEv
.Ltmp10:
.LBB0_7:
	@DEBUG_VALUE: IsValid:aTlv <- $r1
	@DEBUG_VALUE: IsValid:rval <- 1
	@DEBUG_VALUE: IsValid:this <- $r1
	@DEBUG_VALUE: GetLength:this <- $r1
	.loc	20 101 44                       @ ../../../components/network/thread/subg_openthread/src/core\common/tlvs.hpp:101:44
	ldrb	r1, [r1, #1]
.Ltmp11:
	.loc	20 0 44 is_stmt 0               @ ../../../components/network/thread/subg_openthread/src/core\common/tlvs.hpp:0:44
	movs	r0, #0
.Ltmp12:
	.loc	21 435 51 is_stmt 1             @ ../../../components/network/thread/subg_openthread/src/core\meshcop/meshcop_tlvs.hpp:435:51
	cmp	r1, #1
	it	hi
	movhi	r0, #1
.Ltmp13:
	@DEBUG_VALUE: IsValid:rval <- [DW_OP_LLVM_convert 1 7, DW_OP_LLVM_convert 8 7, DW_OP_stack_value] $r0
.LBB0_8:
	@DEBUG_VALUE: IsValid:rval <- [DW_OP_LLVM_convert 1 7, DW_OP_LLVM_convert 8 7, DW_OP_stack_value] $r0
	.loc	46 91 5                         @ ../../../components/network/thread/subg_openthread/src/core/meshcop/meshcop_tlvs.cpp:91:5
	bx	lr
.Ltmp14:
.LBB0_9:
	@DEBUG_VALUE: IsValid:aTlv <- $r1
	@DEBUG_VALUE: IsValid:rval <- 1
	@DEBUG_VALUE: IsValid:this <- $r1
	.loc	46 139 69                       @ ../../../components/network/thread/subg_openthread/src/core/meshcop/meshcop_tlvs.cpp:139:69
	adds	r0, r1, #2
.Ltmp15:
	@DEBUG_VALUE: GetLength:this <- $r1
	.loc	20 101 44                       @ ../../../components/network/thread/subg_openthread/src/core\common/tlvs.hpp:101:44
	ldrb	r1, [r1, #1]
.Ltmp16:
	.loc	46 139 51                       @ ../../../components/network/thread/subg_openthread/src/core/meshcop/meshcop_tlvs.cpp:139:51
	b	_ZN2ot17IsValidUtf8StringEPKcj
.Ltmp17:
.LBB0_10:
	@DEBUG_VALUE: IsValid:aTlv <- $r1
	@DEBUG_VALUE: IsValid:rval <- 1
	@DEBUG_VALUE: IsValid:this <- $r1
	@DEBUG_VALUE: GetLength:this <- $r1
	.loc	20 101 44                       @ ../../../components/network/thread/subg_openthread/src/core\common/tlvs.hpp:101:44
	ldrb	r1, [r1, #1]
.Ltmp18:
	.loc	20 0 44 is_stmt 0               @ ../../../components/network/thread/subg_openthread/src/core\common/tlvs.hpp:0:44
	movs	r0, #0
.Ltmp19:
	.loc	46 149 49 is_stmt 1             @ ../../../components/network/thread/subg_openthread/src/core/meshcop/meshcop_tlvs.cpp:149:49
	cmp	r1, #2
.Ltmp20:
.LBB0_11:
	@DEBUG_VALUE: IsValid:rval <- 1
	.loc	46 0 0 is_stmt 0                @ ../../../components/network/thread/subg_openthread/src/core/meshcop/meshcop_tlvs.cpp:0:0
	it	hi
	movhi	r0, #1
.Ltmp21:
	@DEBUG_VALUE: IsValid:rval <- [DW_OP_LLVM_convert 1 7, DW_OP_LLVM_convert 8 7, DW_OP_stack_value] $r0
	@DEBUG_VALUE: IsValid:rval <- [DW_OP_LLVM_convert 1 7, DW_OP_LLVM_convert 8 7, DW_OP_stack_value] $r0
	.loc	46 91 5 is_stmt 1               @ ../../../components/network/thread/subg_openthread/src/core/meshcop/meshcop_tlvs.cpp:91:5
	bx	lr
.Ltmp22:
.LBB0_12:
	@DEBUG_VALUE: IsValid:aTlv <- $r1
	@DEBUG_VALUE: IsValid:rval <- 1
	@DEBUG_VALUE: IsValid:this <- $r1
	@DEBUG_VALUE: IsValid:ret <- 0
	@DEBUG_VALUE: GetLength:this <- $r1
	.loc	20 101 44                       @ ../../../components/network/thread/subg_openthread/src/core\common/tlvs.hpp:101:44
	ldrb	r0, [r1, #1]
.Ltmp23:
	.loc	46 173 5                        @ ../../../components/network/thread/subg_openthread/src/core/meshcop/meshcop_tlvs.cpp:173:5
	cmp	r0, #3
	bne	.LBB0_16
.Ltmp24:
@ %bb.13:
	@DEBUG_VALUE: IsValid:this <- $r1
	@DEBUG_VALUE: IsValid:aTlv <- $r1
	@DEBUG_VALUE: IsValid:ret <- 0
	@DEBUG_VALUE: IsValid:rval <- 1
	.loc	46 174 5                        @ ../../../components/network/thread/subg_openthread/src/core/meshcop/meshcop_tlvs.cpp:174:5
	ldrb	r0, [r1, #2]
.Ltmp25:
	.loc	46 174 5 is_stmt 0              @ ../../../components/network/thread/subg_openthread/src/core/meshcop/meshcop_tlvs.cpp:174:5
	cmp	r0, #2
	bne	.LBB0_16
.Ltmp26:
@ %bb.14:
	@DEBUG_VALUE: IsValid:this <- $r1
	@DEBUG_VALUE: IsValid:aTlv <- $r1
	@DEBUG_VALUE: IsValid:ret <- 0
	@DEBUG_VALUE: IsValid:rval <- 1
	@DEBUG_VALUE: GetChannel:this <- $r1
	.loc	21 394 57 is_stmt 1             @ ../../../components/network/thread/subg_openthread/src/core\meshcop/meshcop_tlvs.hpp:394:57
	ldrh.w	r1, [r1, #3]
.Ltmp27:
	.loc	21 0 57 is_stmt 0               @ ../../../components/network/thread/subg_openthread/src/core\meshcop/meshcop_tlvs.hpp:0:57
	movs	r0, #0
.Ltmp28:
	@DEBUG_VALUE: IsValid:rval <- [DW_OP_LLVM_convert 1 7, DW_OP_LLVM_convert 8 7, DW_OP_stack_value] $r0
	.loc	46 176 5 is_stmt 1              @ ../../../components/network/thread/subg_openthread/src/core/meshcop/meshcop_tlvs.cpp:176:5
	cmp	r1, #0
.Ltmp29:
	.loc	46 91 5                         @ ../../../components/network/thread/subg_openthread/src/core/meshcop/meshcop_tlvs.cpp:91:5
	it	eq
	bxeq	lr
.Ltmp30:
.LBB0_15:
	@DEBUG_VALUE: IsValid:rval <- [DW_OP_LLVM_convert 1 7, DW_OP_LLVM_convert 8 7, DW_OP_stack_value] $r0
	@DEBUG_VALUE: IsValid:ret <- 0
	.loc	46 0 5 is_stmt 0                @ ../../../components/network/thread/subg_openthread/src/core/meshcop/meshcop_tlvs.cpp:0:5
	rev16	r1, r1
.Ltmp31:
	@DEBUG_VALUE: GetChannel:this <- undef
	.loc	46 176 5 is_stmt 1              @ ../../../components/network/thread/subg_openthread/src/core/meshcop/meshcop_tlvs.cpp:176:5
	cmp	r1, #11
	it	lo
	movlo	r0, #1
.Ltmp32:
	@DEBUG_VALUE: IsValid:rval <- [DW_OP_LLVM_convert 1 7, DW_OP_LLVM_convert 8 7, DW_OP_stack_value] $r0
	.loc	46 91 5                         @ ../../../components/network/thread/subg_openthread/src/core/meshcop/meshcop_tlvs.cpp:91:5
	bx	lr
.Ltmp33:
.LBB0_16:
	@DEBUG_VALUE: IsValid:aTlv <- $r1
	@DEBUG_VALUE: IsValid:rval <- 1
	.loc	46 0 5 is_stmt 0                @ ../../../components/network/thread/subg_openthread/src/core/meshcop/meshcop_tlvs.cpp:0:5
	movs	r0, #0
.Ltmp34:
	@DEBUG_VALUE: IsValid:rval <- [DW_OP_LLVM_convert 1 7, DW_OP_LLVM_convert 8 7, DW_OP_stack_value] $r0
	.loc	46 91 5                         @ ../../../components/network/thread/subg_openthread/src/core/meshcop/meshcop_tlvs.cpp:91:5
	bx	lr
.Ltmp35:
.Lfunc_end0:
	.size	_ZN2ot7MeshCoP3Tlv7IsValidERKS1_, .Lfunc_end0-_ZN2ot7MeshCoP3Tlv7IsValidERKS1_
	.cfi_endproc
	.file	47 "D:\\Rafael-IoT-SDK-Internal-main\\examples\\das_subg_thread\\keil" "../../../components/network/thread/subg_openthread/src/core\\meshcop/network_name.hpp"
	.file	48 "D:\\Rafael-IoT-SDK-Internal-main\\examples\\das_subg_thread\\keil" "../../../components/network/thread/subg_openthread/src/core\\common/string.hpp"
	.cantunwind
	.fnend
                                        @ -- End function
	.section	.text._ZNK2ot7MeshCoP10ChannelTlv7IsValidEv,"ax",%progbits
	.hidden	_ZNK2ot7MeshCoP10ChannelTlv7IsValidEv @ -- Begin function _ZNK2ot7MeshCoP10ChannelTlv7IsValidEv
	.globl	_ZNK2ot7MeshCoP10ChannelTlv7IsValidEv
	.p2align	1
	.type	_ZNK2ot7MeshCoP10ChannelTlv7IsValidEv,%function
	.code	16                              @ @_ZNK2ot7MeshCoP10ChannelTlv7IsValidEv
	.thumb_func
_ZNK2ot7MeshCoP10ChannelTlv7IsValidEv:
.Lfunc_begin1:
	.loc	46 170 0 is_stmt 1              @ ../../../components/network/thread/subg_openthread/src/core/meshcop/meshcop_tlvs.cpp:170:0
	.fnstart
	.cfi_startproc
@ %bb.0:
	@DEBUG_VALUE: IsValid:this <- $r0
	@DEBUG_VALUE: IsValid:this <- $r0
	@DEBUG_VALUE: GetLength:this <- $r0
	@DEBUG_VALUE: GetLength:this <- $r0
	@DEBUG_VALUE: IsValid:ret <- 0
	.loc	20 101 44 prologue_end          @ ../../../components/network/thread/subg_openthread/src/core\common/tlvs.hpp:101:44
	ldrb	r1, [r0, #1]
.Ltmp36:
	.loc	46 173 5                        @ ../../../components/network/thread/subg_openthread/src/core/meshcop/meshcop_tlvs.cpp:173:5
	cmp	r1, #3
	bne	.LBB1_4
.Ltmp37:
@ %bb.1:
	@DEBUG_VALUE: IsValid:this <- $r0
	@DEBUG_VALUE: IsValid:ret <- 0
	.loc	46 174 5                        @ ../../../components/network/thread/subg_openthread/src/core/meshcop/meshcop_tlvs.cpp:174:5
	ldrb	r1, [r0, #2]
.Ltmp38:
	.loc	46 174 5 is_stmt 0              @ ../../../components/network/thread/subg_openthread/src/core/meshcop/meshcop_tlvs.cpp:174:5
	cmp	r1, #2
	bne	.LBB1_4
.Ltmp39:
@ %bb.2:
	@DEBUG_VALUE: IsValid:this <- $r0
	@DEBUG_VALUE: IsValid:ret <- 0
	@DEBUG_VALUE: GetChannel:this <- $r0
	.loc	21 394 57 is_stmt 1             @ ../../../components/network/thread/subg_openthread/src/core\meshcop/meshcop_tlvs.hpp:394:57
	ldrh.w	r0, [r0, #3]
.Ltmp40:
	@DEBUG_VALUE: IsValid:this <- [DW_OP_LLVM_entry_value 1] $r0
	.loc	46 176 5                        @ ../../../components/network/thread/subg_openthread/src/core/meshcop/meshcop_tlvs.cpp:176:5
	cbz	r0, .LBB1_4
.Ltmp41:
@ %bb.3:
	@DEBUG_VALUE: IsValid:this <- [DW_OP_LLVM_entry_value 1] $r0
	@DEBUG_VALUE: IsValid:ret <- 0
	.loc	46 0 5 is_stmt 0                @ ../../../components/network/thread/subg_openthread/src/core/meshcop/meshcop_tlvs.cpp:0:5
	rev16	r1, r0
	movs	r0, #0
.Ltmp42:
	@DEBUG_VALUE: GetChannel:this <- undef
	.loc	46 176 5                        @ ../../../components/network/thread/subg_openthread/src/core/meshcop/meshcop_tlvs.cpp:176:5
	cmp	r1, #11
	it	lo
	movlo	r0, #1
.Ltmp43:
	.loc	46 176 5                        @ ../../../components/network/thread/subg_openthread/src/core/meshcop/meshcop_tlvs.cpp:176:5
	bx	lr
.Ltmp44:
.LBB1_4:
	@DEBUG_VALUE: IsValid:ret <- 0
	@DEBUG_VALUE: IsValid:ret <- undef
	@DEBUG_LABEL: IsValid:exit
	.loc	46 180 5 is_stmt 1              @ ../../../components/network/thread/subg_openthread/src/core/meshcop/meshcop_tlvs.cpp:180:5
	movs	r0, #0
	bx	lr
.Ltmp45:
.Lfunc_end1:
	.size	_ZNK2ot7MeshCoP10ChannelTlv7IsValidEv, .Lfunc_end1-_ZNK2ot7MeshCoP10ChannelTlv7IsValidEv
	.cfi_endproc
	.cantunwind
	.fnend
                                        @ -- End function
	.section	.text._ZNK2ot7MeshCoP14NetworkNameTlv7IsValidEv,"ax",%progbits
	.hidden	_ZNK2ot7MeshCoP14NetworkNameTlv7IsValidEv @ -- Begin function _ZNK2ot7MeshCoP14NetworkNameTlv7IsValidEv
	.globl	_ZNK2ot7MeshCoP14NetworkNameTlv7IsValidEv
	.p2align	1
	.type	_ZNK2ot7MeshCoP14NetworkNameTlv7IsValidEv,%function
	.code	16                              @ @_ZNK2ot7MeshCoP14NetworkNameTlv7IsValidEv
	.thumb_func
_ZNK2ot7MeshCoP14NetworkNameTlv7IsValidEv:
.Lfunc_begin2:
	.loc	46 139 0                        @ ../../../components/network/thread/subg_openthread/src/core/meshcop/meshcop_tlvs.cpp:139:0
	.fnstart
	.cfi_startproc
@ %bb.0:
	@DEBUG_VALUE: IsValid:this <- $r0
	@DEBUG_VALUE: IsValid:this <- $r0
	.loc	46 139 69 prologue_end          @ ../../../components/network/thread/subg_openthread/src/core/meshcop/meshcop_tlvs.cpp:139:69
	adds	r2, r0, #2
.Ltmp46:
	@DEBUG_VALUE: GetLength:this <- $r0
	.loc	20 101 44                       @ ../../../components/network/thread/subg_openthread/src/core\common/tlvs.hpp:101:44
	ldrb	r1, [r0, #1]
.Ltmp47:
	.loc	46 139 51                       @ ../../../components/network/thread/subg_openthread/src/core/meshcop/meshcop_tlvs.cpp:139:51
	mov	r0, r2
.Ltmp48:
	@DEBUG_VALUE: IsValid:this <- [DW_OP_LLVM_entry_value 1] $r0
	b	_ZN2ot17IsValidUtf8StringEPKcj
.Ltmp49:
.Lfunc_end2:
	.size	_ZNK2ot7MeshCoP14NetworkNameTlv7IsValidEv, .Lfunc_end2-_ZNK2ot7MeshCoP14NetworkNameTlv7IsValidEv
	.cfi_endproc
	.cantunwind
	.fnend
                                        @ -- End function
	.section	.text._ZNK2ot7MeshCoP17SecurityPolicyTlv7IsValidEv,"ax",%progbits
	.hidden	_ZNK2ot7MeshCoP17SecurityPolicyTlv7IsValidEv @ -- Begin function _ZNK2ot7MeshCoP17SecurityPolicyTlv7IsValidEv
	.globl	_ZNK2ot7MeshCoP17SecurityPolicyTlv7IsValidEv
	.p2align	1
	.type	_ZNK2ot7MeshCoP17SecurityPolicyTlv7IsValidEv,%function
	.code	16                              @ @_ZNK2ot7MeshCoP17SecurityPolicyTlv7IsValidEv
	.thumb_func
_ZNK2ot7MeshCoP17SecurityPolicyTlv7IsValidEv:
.Lfunc_begin3:
	.loc	46 148 0                        @ ../../../components/network/thread/subg_openthread/src/core/meshcop/meshcop_tlvs.cpp:148:0
	.fnstart
	.cfi_startproc
@ %bb.0:
	@DEBUG_VALUE: IsValid:this <- $r0
	@DEBUG_VALUE: IsValid:this <- $r0
	@DEBUG_VALUE: GetLength:this <- $r0
	@DEBUG_VALUE: GetLength:this <- $r0
	.loc	20 101 44 prologue_end          @ ../../../components/network/thread/subg_openthread/src/core\common/tlvs.hpp:101:44
	ldrb	r1, [r0, #1]
	movs	r0, #0
.Ltmp50:
	@DEBUG_VALUE: IsValid:this <- [DW_OP_LLVM_entry_value 1] $r0
	.loc	46 149 49                       @ ../../../components/network/thread/subg_openthread/src/core/meshcop/meshcop_tlvs.cpp:149:49
	cmp	r1, #2
	it	hi
	movhi	r0, #1
	.loc	46 149 5 is_stmt 0              @ ../../../components/network/thread/subg_openthread/src/core/meshcop/meshcop_tlvs.cpp:149:5
	bx	lr
.Ltmp51:
.Lfunc_end3:
	.size	_ZNK2ot7MeshCoP17SecurityPolicyTlv7IsValidEv, .Lfunc_end3-_ZNK2ot7MeshCoP17SecurityPolicyTlv7IsValidEv
	.cfi_endproc
	.cantunwind
	.fnend
                                        @ -- End function
	.section	.text._ZNK2ot7MeshCoP18ChannelMaskBaseTlv7IsValidEv,"ax",%progbits
	.hidden	_ZNK2ot7MeshCoP18ChannelMaskBaseTlv7IsValidEv @ -- Begin function _ZNK2ot7MeshCoP18ChannelMaskBaseTlv7IsValidEv
	.globl	_ZNK2ot7MeshCoP18ChannelMaskBaseTlv7IsValidEv
	.p2align	1
	.type	_ZNK2ot7MeshCoP18ChannelMaskBaseTlv7IsValidEv,%function
	.code	16                              @ @_ZNK2ot7MeshCoP18ChannelMaskBaseTlv7IsValidEv
	.thumb_func
_ZNK2ot7MeshCoP18ChannelMaskBaseTlv7IsValidEv:
.Lfunc_begin4:
	.loc	46 215 0 is_stmt 1              @ ../../../components/network/thread/subg_openthread/src/core/meshcop/meshcop_tlvs.cpp:215:0
	.fnstart
	.cfi_startproc
@ %bb.0:
	@DEBUG_VALUE: IsValid:this <- $r0
	@DEBUG_VALUE: GetFirstEntry:this <- $r0
	@DEBUG_VALUE: GetLength:this <- $r0
	.save	{r4, r5, r7, lr}
	push	{r4, r5, r7, lr}
	.cfi_def_cfa_offset 16
	.cfi_offset lr, -4
	.cfi_offset r7, -8
	.cfi_offset r5, -12
	.cfi_offset r4, -16
	mov	r5, r0
.Ltmp52:
	@DEBUG_VALUE: GetFirstEntry:entry <- 0
	@DEBUG_VALUE: GetLength:this <- $r5
	@DEBUG_VALUE: GetFirstEntry:this <- $r5
	@DEBUG_VALUE: IsValid:this <- $r5
	.loc	20 101 44 prologue_end          @ ../../../components/network/thread/subg_openthread/src/core\common/tlvs.hpp:101:44
	ldrb	r0, [r0, #1]
.Ltmp53:
	.loc	46 252 5                        @ ../../../components/network/thread/subg_openthread/src/core/meshcop/meshcop_tlvs.cpp:252:5
	cmp	r0, #2
	blo	.LBB4_2
.Ltmp54:
@ %bb.1:
	@DEBUG_VALUE: IsValid:this <- $r5
	@DEBUG_VALUE: GetFirstEntry:this <- $r5
	@DEBUG_VALUE: GetFirstEntry:entry <- 0
	@DEBUG_VALUE: GetLength:this <- $r5
	.loc	46 254 60                       @ ../../../components/network/thread/subg_openthread/src/core/meshcop/meshcop_tlvs.cpp:254:60
	mov	r0, r5
	bl	_ZNK2ot3Tlv8GetValueEv
.Ltmp55:
	mov	r4, r0
.Ltmp56:
	@DEBUG_VALUE: GetEntrySize:this <- $r4
	@DEBUG_VALUE: GetFirstEntry:entry <- $r4
	.loc	21 1305 79                      @ ../../../components/network/thread/subg_openthread/src/core\meshcop/meshcop_tlvs.hpp:1305:79
	ldrb	r0, [r0, #1]
.Ltmp57:
	@DEBUG_VALUE: GetLength:this <- $r5
	.loc	20 101 44                       @ ../../../components/network/thread/subg_openthread/src/core\common/tlvs.hpp:101:44
	ldrb	r1, [r5, #1]
.Ltmp58:
	.loc	21 1305 77                      @ ../../../components/network/thread/subg_openthread/src/core\meshcop/meshcop_tlvs.hpp:1305:77
	adds	r0, #2
	@DEBUG_VALUE: GetEntrySize:this <- $r4
	cmp	r0, r1
	it	hi
	movhi	r4, #0
.Ltmp59:
	.loc	21 0 77 is_stmt 0               @ ../../../components/network/thread/subg_openthread/src/core\meshcop/meshcop_tlvs.hpp:0:77
	b	.LBB4_3
.Ltmp60:
.LBB4_2:
	@DEBUG_VALUE: IsValid:this <- $r5
	@DEBUG_VALUE: GetFirstEntry:this <- $r5
	@DEBUG_VALUE: GetLength:this <- $r5
	@DEBUG_VALUE: GetFirstEntry:entry <- 0
	movs	r4, #0
.Ltmp61:
.LBB4_3:
	@DEBUG_VALUE: IsValid:this <- $r5
	@DEBUG_VALUE: IsValid:cur <- $r4
	@DEBUG_VALUE: GetNext:this <- $r5
	@DEBUG_VALUE: GetNext:this <- $r5
	.loc	20 161 88 is_stmt 1             @ ../../../components/network/thread/subg_openthread/src/core\common/tlvs.hpp:161:88
	mov	r0, r5
	bl	_ZNK2ot3Tlv7GetSizeEv
.Ltmp62:
	@DEBUG_VALUE: IsValid:ret <- 0
	@DEBUG_VALUE: IsValid:end <- undef
	@DEBUG_VALUE: GetNext:this <- $r5
	@DEBUG_VALUE: GetNext:this <- $r5
	.loc	46 220 5                        @ ../../../components/network/thread/subg_openthread/src/core/meshcop/meshcop_tlvs.cpp:220:5
	cbz	r4, .LBB4_11
.Ltmp63:
@ %bb.4:
	@DEBUG_VALUE: IsValid:this <- $r5
	@DEBUG_VALUE: IsValid:cur <- $r4
	@DEBUG_VALUE: IsValid:ret <- 0
	.loc	46 0 0 is_stmt 0                @ ../../../components/network/thread/subg_openthread/src/core/meshcop/meshcop_tlvs.cpp:0:0
	add	r0, r5
.Ltmp64:
	@DEBUG_VALUE: IsValid:end <- $r0
	@DEBUG_VALUE: IsValid:cur <- $r4
	.loc	46 222 5 is_stmt 1              @ ../../../components/network/thread/subg_openthread/src/core/meshcop/meshcop_tlvs.cpp:222:5
	cmp	r4, r0
	bhs	.LBB4_10
.Ltmp65:
	.p2align	2
.LBB4_5:                                @ =>This Inner Loop Header: Depth=1
	@DEBUG_VALUE: IsValid:this <- $r5
	@DEBUG_VALUE: IsValid:end <- $r0
	@DEBUG_VALUE: IsValid:ret <- 0
	@DEBUG_VALUE: IsValid:cur <- $r4
	.loc	46 226 9                        @ ../../../components/network/thread/subg_openthread/src/core/meshcop/meshcop_tlvs.cpp:226:9
	adds	r1, r4, #2
	cmp	r1, r0
	bhi	.LBB4_11
.Ltmp66:
@ %bb.6:                                @   in Loop: Header=BB4_5 Depth=1
	@DEBUG_VALUE: IsValid:this <- $r5
	@DEBUG_VALUE: IsValid:cur <- $r4
	@DEBUG_VALUE: IsValid:end <- $r0
	@DEBUG_VALUE: IsValid:ret <- 0
	@DEBUG_VALUE: GetNext:this <- $r4
	@DEBUG_VALUE: GetEntrySize:this <- $r4
	.loc	21 1305 79                      @ ../../../components/network/thread/subg_openthread/src/core\meshcop/meshcop_tlvs.hpp:1305:79
	ldrb	r2, [r4, #1]
	.loc	21 1305 77 is_stmt 0            @ ../../../components/network/thread/subg_openthread/src/core\meshcop/meshcop_tlvs.hpp:1305:77
	adds	r1, r2, r4
.Ltmp67:
	.loc	21 1351 103 is_stmt 1           @ ../../../components/network/thread/subg_openthread/src/core\meshcop/meshcop_tlvs.hpp:1351:103
	adds	r1, #2
.Ltmp68:
	.loc	46 226 9                        @ ../../../components/network/thread/subg_openthread/src/core/meshcop/meshcop_tlvs.cpp:226:9
	cmp	r1, r0
	bhi	.LBB4_11
.Ltmp69:
@ %bb.7:                                @   in Loop: Header=BB4_5 Depth=1
	@DEBUG_VALUE: IsValid:this <- $r5
	@DEBUG_VALUE: IsValid:cur <- $r4
	@DEBUG_VALUE: IsValid:end <- $r0
	@DEBUG_VALUE: IsValid:ret <- 0
	@DEBUG_VALUE: GetChannelPage:this <- $r4
	.loc	21 1273 49                      @ ../../../components/network/thread/subg_openthread/src/core\meshcop/meshcop_tlvs.hpp:1273:49
	ldrb	r3, [r4]
.Ltmp70:
	@DEBUG_VALUE: channelPage <- undef
	.loc	46 233 54                       @ ../../../components/network/thread/subg_openthread/src/core/meshcop/meshcop_tlvs.cpp:233:54
	orr	r3, r3, #2
	cmp	r3, #2
	bne	.LBB4_9
.Ltmp71:
@ %bb.8:                                @   in Loop: Header=BB4_5 Depth=1
	@DEBUG_VALUE: IsValid:this <- $r5
	@DEBUG_VALUE: IsValid:cur <- $r4
	@DEBUG_VALUE: IsValid:end <- $r0
	@DEBUG_VALUE: IsValid:ret <- 0
	@DEBUG_VALUE: IsValid:this <- undef
	.loc	46 236 13                       @ ../../../components/network/thread/subg_openthread/src/core/meshcop/meshcop_tlvs.cpp:236:13
	cmp	r2, #4
	bne	.LBB4_11
.Ltmp72:
.LBB4_9:                                @   in Loop: Header=BB4_5 Depth=1
	@DEBUG_VALUE: IsValid:this <- $r5
	@DEBUG_VALUE: IsValid:cur <- $r4
	@DEBUG_VALUE: IsValid:end <- $r0
	@DEBUG_VALUE: IsValid:ret <- 0
	@DEBUG_VALUE: IsValid:cur <- undef
	@DEBUG_VALUE: GetNext:this <- undef
	@DEBUG_VALUE: GetEntrySize:this <- undef
	.loc	46 222 5                        @ ../../../components/network/thread/subg_openthread/src/core/meshcop/meshcop_tlvs.cpp:222:5
	cmp	r1, r0
	mov	r4, r1
	blo	.LBB4_5
.Ltmp73:
.LBB4_10:
	@DEBUG_VALUE: IsValid:this <- $r5
	@DEBUG_VALUE: IsValid:end <- $r0
	@DEBUG_VALUE: IsValid:ret <- 0
	.loc	46 0 5 is_stmt 0                @ ../../../components/network/thread/subg_openthread/src/core/meshcop/meshcop_tlvs.cpp:0:5
	movs	r0, #1
.Ltmp74:
	.loc	46 246 1 is_stmt 1              @ ../../../components/network/thread/subg_openthread/src/core/meshcop/meshcop_tlvs.cpp:246:1
	pop	{r4, r5, r7, pc}
.Ltmp75:
.LBB4_11:
	@DEBUG_VALUE: IsValid:this <- $r5
	@DEBUG_VALUE: IsValid:cur <- $r4
	@DEBUG_VALUE: IsValid:ret <- 0
	.loc	46 0 1 is_stmt 0                @ ../../../components/network/thread/subg_openthread/src/core/meshcop/meshcop_tlvs.cpp:0:1
	movs	r0, #0
	.loc	46 246 1                        @ ../../../components/network/thread/subg_openthread/src/core/meshcop/meshcop_tlvs.cpp:246:1
	pop	{r4, r5, r7, pc}
.Ltmp76:
.Lfunc_end4:
	.size	_ZNK2ot7MeshCoP18ChannelMaskBaseTlv7IsValidEv, .Lfunc_end4-_ZNK2ot7MeshCoP18ChannelMaskBaseTlv7IsValidEv
	.cfi_endproc
	.cantunwind
	.fnend
                                        @ -- End function
	.section	.text._ZN2ot7MeshCoP3Tlv7FindTlvEPKhtNS1_4TypeE,"ax",%progbits
	.hidden	_ZN2ot7MeshCoP3Tlv7FindTlvEPKhtNS1_4TypeE @ -- Begin function _ZN2ot7MeshCoP3Tlv7FindTlvEPKhtNS1_4TypeE
	.globl	_ZN2ot7MeshCoP3Tlv7FindTlvEPKhtNS1_4TypeE
	.p2align	1
	.type	_ZN2ot7MeshCoP3Tlv7FindTlvEPKhtNS1_4TypeE,%function
	.code	16                              @ @_ZN2ot7MeshCoP3Tlv7FindTlvEPKhtNS1_4TypeE
	.thumb_func
_ZN2ot7MeshCoP3Tlv7FindTlvEPKhtNS1_4TypeE:
.Lfunc_begin5:
	.loc	46 95 0 is_stmt 1               @ ../../../components/network/thread/subg_openthread/src/core/meshcop/meshcop_tlvs.cpp:95:0
	.fnstart
	.cfi_startproc
@ %bb.0:
	@DEBUG_VALUE: FindTlv:aTlvsStart <- $r0
	@DEBUG_VALUE: FindTlv:aTlvsLength <- $r1
	@DEBUG_VALUE: FindTlv:aType <- $r2
	@DEBUG_VALUE: FindTlv:aType <- $r2
	@DEBUG_VALUE: FindTlv:aTlvsLength <- $r1
	.save	{r4, r5, r6, lr}
	push	{r4, r5, r6, lr}
	.cfi_def_cfa_offset 16
	.cfi_offset lr, -4
	.cfi_offset r6, -8
	.cfi_offset r5, -12
	.cfi_offset r4, -16
.Ltmp77:
	.loc	46 99 5 prologue_end            @ ../../../components/network/thread/subg_openthread/src/core/meshcop/meshcop_tlvs.cpp:99:5
	cmp	r1, #2
.Ltmp78:
	@DEBUG_VALUE: FindTlv:end <- undef
	@DEBUG_VALUE: FindTlv:tlv <- $r0
	@DEBUG_VALUE: FindTlv:aTlvsStart <- $r0
	bhs	.LBB5_2
.Ltmp79:
.LBB5_1:
	.loc	46 0 5 is_stmt 0                @ ../../../components/network/thread/subg_openthread/src/core/meshcop/meshcop_tlvs.cpp:0:5
	movs	r0, #0
.Ltmp80:
	@DEBUG_VALUE: FindTlv:tlv <- $r0
	@DEBUG_LABEL: FindTlv:exit
	.loc	46 116 5 is_stmt 1              @ ../../../components/network/thread/subg_openthread/src/core/meshcop/meshcop_tlvs.cpp:116:5
	pop	{r4, r5, r6, pc}
.Ltmp81:
.LBB5_2:
	@DEBUG_VALUE: FindTlv:aType <- $r2
	@DEBUG_VALUE: FindTlv:aTlvsLength <- $r1
	@DEBUG_VALUE: FindTlv:tlv <- $r0
	@DEBUG_VALUE: FindTlv:aTlvsStart <- $r0
	.loc	46 0 5 is_stmt 0                @ ../../../components/network/thread/subg_openthread/src/core/meshcop/meshcop_tlvs.cpp:0:5
	mov	r4, r2
.Ltmp82:
	@DEBUG_VALUE: FindTlv:aType <- $r4
	@DEBUG_VALUE: FindTlv:aType <- $r4
	mov	r5, r0
.Ltmp83:
	@DEBUG_VALUE: FindTlv:aTlvsStart <- $r5
	@DEBUG_VALUE: FindTlv:tlv <- $r5
	adds	r6, r0, r1
.Ltmp84:
	@DEBUG_VALUE: FindTlv:end <- $r6
	.p2align	2
.LBB5_3:                                @ =>This Inner Loop Header: Depth=1
	@DEBUG_VALUE: IsExtended:this <- $r5
	.loc	46 102 9 is_stmt 1              @ ../../../components/network/thread/subg_openthread/src/core/meshcop/meshcop_tlvs.cpp:102:9
	adds	r0, r5, #4
	cmp	r0, r6
	bls	.LBB5_5
.Ltmp85:
@ %bb.4:                                @   in Loop: Header=BB5_3 Depth=1
	.loc	46 0 9 is_stmt 0                @ ../../../components/network/thread/subg_openthread/src/core/meshcop/meshcop_tlvs.cpp:0:9
	ldrb	r0, [r5, #1]
	.loc	46 102 9                        @ ../../../components/network/thread/subg_openthread/src/core/meshcop/meshcop_tlvs.cpp:102:9
	cmp	r0, #255
	beq	.LBB5_1
.Ltmp86:
.LBB5_5:                                @   in Loop: Header=BB5_3 Depth=1
	@DEBUG_VALUE: GetNext:this <- $r5
	@DEBUG_VALUE: GetNext:this <- $r5
	.loc	20 161 88 is_stmt 1             @ ../../../components/network/thread/subg_openthread/src/core\common/tlvs.hpp:161:88
	mov	r0, r5
	bl	_ZNK2ot3Tlv7GetSizeEv
.Ltmp87:
	@DEBUG_VALUE: FindTlv:aTlvsLength <- [DW_OP_LLVM_entry_value 1] $r1
	.loc	20 161 86 is_stmt 0             @ ../../../components/network/thread/subg_openthread/src/core\common/tlvs.hpp:161:86
	add	r0, r5
.Ltmp88:
	.loc	46 105 9 is_stmt 1              @ ../../../components/network/thread/subg_openthread/src/core/meshcop/meshcop_tlvs.cpp:105:9
	cmp	r0, r6
	bhi	.LBB5_1
.Ltmp89:
@ %bb.6:                                @   in Loop: Header=BB5_3 Depth=1
	@DEBUG_VALUE: GetType:this <- $r5
	@DEBUG_VALUE: GetType:this <- $r5
	.loc	20 72 42                        @ ../../../components/network/thread/subg_openthread/src/core\common/tlvs.hpp:72:42
	ldrb	r0, [r5]
.Ltmp90:
	.loc	46 107 13                       @ ../../../components/network/thread/subg_openthread/src/core/meshcop/meshcop_tlvs.cpp:107:13
	cmp	r0, r4
	beq	.LBB5_10
.Ltmp91:
@ %bb.7:                                @   in Loop: Header=BB5_3 Depth=1
	@DEBUG_VALUE: GetNext:this <- undef
	@DEBUG_VALUE: GetNext:this <- $r5
	.loc	20 161 88                       @ ../../../components/network/thread/subg_openthread/src/core\common/tlvs.hpp:161:88
	mov	r0, r5
	bl	_ZNK2ot3Tlv7GetSizeEv
.Ltmp92:
	.loc	20 161 86 is_stmt 0             @ ../../../components/network/thread/subg_openthread/src/core\common/tlvs.hpp:161:86
	add	r5, r0
.Ltmp93:
	@DEBUG_VALUE: FindTlv:aTlvsStart <- [DW_OP_LLVM_entry_value 1] $r0
	@DEBUG_VALUE: FindTlv:tlv <- $r5
	.loc	46 99 5 is_stmt 1               @ ../../../components/network/thread/subg_openthread/src/core/meshcop/meshcop_tlvs.cpp:99:5
	cmp	r5, r6
	mov.w	r0, #0
.Ltmp94:
	@DEBUG_VALUE: FindTlv:tlv <- $r0
	@DEBUG_LABEL: FindTlv:exit
	.loc	46 116 5                        @ ../../../components/network/thread/subg_openthread/src/core/meshcop/meshcop_tlvs.cpp:116:5
	it	hs
	pophs	{r4, r5, r6, pc}
.Ltmp95:
.LBB5_8:                                @   in Loop: Header=BB5_3 Depth=1
	@DEBUG_VALUE: FindTlv:tlv <- $r0
	.loc	46 0 5 is_stmt 0                @ ../../../components/network/thread/subg_openthread/src/core/meshcop/meshcop_tlvs.cpp:0:5
	adds	r1, r5, #2
.Ltmp96:
	.loc	46 99 5 is_stmt 1               @ ../../../components/network/thread/subg_openthread/src/core/meshcop/meshcop_tlvs.cpp:99:5
	cmp	r1, r6
	bls	.LBB5_3
.Ltmp97:
@ %bb.9:
	@DEBUG_VALUE: FindTlv:tlv <- $r0
	@DEBUG_VALUE: FindTlv:tlv <- $r0
	@DEBUG_LABEL: FindTlv:exit
	.loc	46 116 5                        @ ../../../components/network/thread/subg_openthread/src/core/meshcop/meshcop_tlvs.cpp:116:5
	pop	{r4, r5, r6, pc}
.Ltmp98:
.LBB5_10:
	.loc	46 0 0 is_stmt 0                @ ../../../components/network/thread/subg_openthread/src/core/meshcop/meshcop_tlvs.cpp:0:0
	mov	r0, r5
.Ltmp99:
	@DEBUG_VALUE: FindTlv:tlv <- $r0
	@DEBUG_LABEL: FindTlv:exit
	.loc	46 116 5                        @ ../../../components/network/thread/subg_openthread/src/core/meshcop/meshcop_tlvs.cpp:116:5
	pop	{r4, r5, r6, pc}
.Ltmp100:
.Lfunc_end5:
	.size	_ZN2ot7MeshCoP3Tlv7FindTlvEPKhtNS1_4TypeE, .Lfunc_end5-_ZN2ot7MeshCoP3Tlv7FindTlvEPKhtNS1_4TypeE
	.cfi_endproc
	.cantunwind
	.fnend
                                        @ -- End function
	.section	.text._ZNK2ot7MeshCoP14NetworkNameTlv14GetNetworkNameEv,"ax",%progbits
	.hidden	_ZNK2ot7MeshCoP14NetworkNameTlv14GetNetworkNameEv @ -- Begin function _ZNK2ot7MeshCoP14NetworkNameTlv14GetNetworkNameEv
	.globl	_ZNK2ot7MeshCoP14NetworkNameTlv14GetNetworkNameEv
	.p2align	1
	.type	_ZNK2ot7MeshCoP14NetworkNameTlv14GetNetworkNameEv,%function
	.code	16                              @ @_ZNK2ot7MeshCoP14NetworkNameTlv14GetNetworkNameEv
	.thumb_func
_ZNK2ot7MeshCoP14NetworkNameTlv14GetNetworkNameEv:
.Lfunc_begin6:
	.loc	46 120 0 is_stmt 1              @ ../../../components/network/thread/subg_openthread/src/core/meshcop/meshcop_tlvs.cpp:120:0
	.fnstart
	.cfi_startproc
@ %bb.0:
	@DEBUG_VALUE: GetNetworkName:this <- $r1
	@DEBUG_VALUE: GetNetworkName:this <- $r1
	@DEBUG_VALUE: GetLength:this <- $r1
	@DEBUG_VALUE: GetLength:this <- $r1
	.loc	20 101 44 prologue_end          @ ../../../components/network/thread/subg_openthread/src/core\common/tlvs.hpp:101:44
	ldrb	r2, [r1, #1]
.Ltmp101:
	@DEBUG_VALUE: GetNetworkName:len <- $r2
	.loc	46 128 21                       @ ../../../components/network/thread/subg_openthread/src/core/meshcop/meshcop_tlvs.cpp:128:21
	adds	r1, #2
.Ltmp102:
	@DEBUG_VALUE: GetNetworkName:this <- [DW_OP_LLVM_entry_value 1] $r1
	@DEBUG_VALUE: Init:this <- $r0
	@DEBUG_VALUE: NameData:this <- $r0
	@DEBUG_VALUE: Init:aBuffer <- $r1
	@DEBUG_VALUE: NameData:aBuffer <- $r1
	@DEBUG_VALUE: Init:aLength <- $r2
	@DEBUG_VALUE: NameData:aLength <- $r2
	.loc	46 123 9                        @ ../../../components/network/thread/subg_openthread/src/core/meshcop/meshcop_tlvs.cpp:123:9
	cmp	r2, #16
	it	hs
	movhs	r2, #16
.Ltmp103:
	@DEBUG_VALUE: GetNetworkName:len <- $r2
	.loc	17 129 17                       @ ../../../components/network/thread/subg_openthread/src/core\common/data.hpp:129:17
	str	r1, [r0]
	.loc	17 130 17                       @ ../../../components/network/thread/subg_openthread/src/core\common/data.hpp:130:17
	strb	r2, [r0, #4]
.Ltmp104:
	.loc	46 129 1                        @ ../../../components/network/thread/subg_openthread/src/core/meshcop/meshcop_tlvs.cpp:129:1
	bx	lr
.Ltmp105:
.Lfunc_end6:
	.size	_ZNK2ot7MeshCoP14NetworkNameTlv14GetNetworkNameEv, .Lfunc_end6-_ZNK2ot7MeshCoP14NetworkNameTlv14GetNetworkNameEv
	.cfi_endproc
	.cantunwind
	.fnend
                                        @ -- End function
	.section	.text._ZN2ot7MeshCoP14NetworkNameTlv14SetNetworkNameERKNS0_8NameDataE,"ax",%progbits
	.hidden	_ZN2ot7MeshCoP14NetworkNameTlv14SetNetworkNameERKNS0_8NameDataE @ -- Begin function _ZN2ot7MeshCoP14NetworkNameTlv14SetNetworkNameERKNS0_8NameDataE
	.globl	_ZN2ot7MeshCoP14NetworkNameTlv14SetNetworkNameERKNS0_8NameDataE
	.p2align	1
	.type	_ZN2ot7MeshCoP14NetworkNameTlv14SetNetworkNameERKNS0_8NameDataE,%function
	.code	16                              @ @_ZN2ot7MeshCoP14NetworkNameTlv14SetNetworkNameERKNS0_8NameDataE
	.thumb_func
_ZN2ot7MeshCoP14NetworkNameTlv14SetNetworkNameERKNS0_8NameDataE:
.Lfunc_begin7:
	.loc	46 132 0                        @ ../../../components/network/thread/subg_openthread/src/core/meshcop/meshcop_tlvs.cpp:132:0
	.fnstart
	.cfi_startproc
@ %bb.0:
	@DEBUG_VALUE: SetNetworkName:this <- $r0
	@DEBUG_VALUE: SetNetworkName:aNameData <- $r1
	.save	{r4, lr}
	push	{r4, lr}
	.cfi_def_cfa_offset 8
	.cfi_offset lr, -4
	.cfi_offset r4, -8
	mov	r2, r1
	mov	r4, r0
.Ltmp106:
	@DEBUG_VALUE: SetNetworkName:aNameData <- $r2
	@DEBUG_VALUE: SetNetworkName:this <- $r4
	.loc	46 135 28 prologue_end          @ ../../../components/network/thread/subg_openthread/src/core/meshcop/meshcop_tlvs.cpp:135:28
	adds	r1, r0, #2
	.loc	46 135 21 is_stmt 0             @ ../../../components/network/thread/subg_openthread/src/core/meshcop/meshcop_tlvs.cpp:135:21
	mov	r0, r2
.Ltmp107:
	@DEBUG_VALUE: SetNetworkName:aNameData <- $r0
	movs	r2, #16
	bl	_ZNK2ot7MeshCoP8NameData6CopyToEPch
.Ltmp108:
	@DEBUG_VALUE: SetLength:aLength <- undef
	@DEBUG_VALUE: SetLength:this <- $r4
	@DEBUG_VALUE: SetNetworkName:len <- undef
	.loc	20 109 47 is_stmt 1             @ ../../../components/network/thread/subg_openthread/src/core\common/tlvs.hpp:109:47
	strb	r0, [r4, #1]
.Ltmp109:
	.loc	46 137 1                        @ ../../../components/network/thread/subg_openthread/src/core/meshcop/meshcop_tlvs.cpp:137:1
	pop	{r4, pc}
.Ltmp110:
.Lfunc_end7:
	.size	_ZN2ot7MeshCoP14NetworkNameTlv14SetNetworkNameERKNS0_8NameDataE, .Lfunc_end7-_ZN2ot7MeshCoP14NetworkNameTlv14SetNetworkNameERKNS0_8NameDataE
	.cfi_endproc
	.cantunwind
	.fnend
                                        @ -- End function
	.section	.text._ZNK2ot7MeshCoP15SteeringDataTlv6CopyToERNS0_12SteeringDataE,"ax",%progbits
	.hidden	_ZNK2ot7MeshCoP15SteeringDataTlv6CopyToERNS0_12SteeringDataE @ -- Begin function _ZNK2ot7MeshCoP15SteeringDataTlv6CopyToERNS0_12SteeringDataE
	.globl	_ZNK2ot7MeshCoP15SteeringDataTlv6CopyToERNS0_12SteeringDataE
	.p2align	1
	.type	_ZNK2ot7MeshCoP15SteeringDataTlv6CopyToERNS0_12SteeringDataE,%function
	.code	16                              @ @_ZNK2ot7MeshCoP15SteeringDataTlv6CopyToERNS0_12SteeringDataE
	.thumb_func
_ZNK2ot7MeshCoP15SteeringDataTlv6CopyToERNS0_12SteeringDataE:
.Lfunc_begin8:
	.loc	46 142 0                        @ ../../../components/network/thread/subg_openthread/src/core/meshcop/meshcop_tlvs.cpp:142:0
	.fnstart
	.cfi_startproc
@ %bb.0:
	@DEBUG_VALUE: CopyTo:this <- $r0
	@DEBUG_VALUE: CopyTo:aSteeringData <- $r1
	@DEBUG_VALUE: GetSteeringDataLength:this <- $r0
	@DEBUG_VALUE: GetLength:this <- $r0
	.save	{r4, r5, r6, lr}
	push	{r4, r5, r6, lr}
	.cfi_def_cfa_offset 16
	.cfi_offset lr, -4
	.cfi_offset r6, -8
	.cfi_offset r5, -12
	.cfi_offset r4, -16
	mov	r4, r1
.Ltmp111:
	@DEBUG_VALUE: CopyTo:aSteeringData <- $r4
	.loc	20 101 44 prologue_end          @ ../../../components/network/thread/subg_openthread/src/core\common/tlvs.hpp:101:44
	ldrb	r1, [r0, #1]
	mov	r5, r0
.Ltmp112:
	@DEBUG_VALUE: CopyTo:this <- $r5
	@DEBUG_VALUE: GetLength:this <- $r5
	@DEBUG_VALUE: GetSteeringDataLength:this <- $r5
	@DEBUG_VALUE: CopyTo:aSteeringData <- $r4
	@DEBUG_VALUE: CopyTo:this <- $r5
	.loc	46 143 19                       @ ../../../components/network/thread/subg_openthread/src/core/meshcop/meshcop_tlvs.cpp:143:19
	mov	r0, r4
	movs	r6, #16
.Ltmp113:
	.loc	21 785 16                       @ ../../../components/network/thread/subg_openthread/src/core\meshcop/meshcop_tlvs.hpp:785:16
	cmp	r1, #16
	it	hs
	movhs	r1, r6
.Ltmp114:
	.loc	46 143 19                       @ ../../../components/network/thread/subg_openthread/src/core/meshcop/meshcop_tlvs.cpp:143:19
	bl	_ZN2ot7MeshCoP12SteeringData4InitEh
.Ltmp115:
	@DEBUG_VALUE: GetData:this <- $r4
	.loc	20 101 44                       @ ../../../components/network/thread/subg_openthread/src/core\common/tlvs.hpp:101:44
	ldrb	r2, [r5, #1]
.Ltmp116:
	.file	49 "D:\\Rafael-IoT-SDK-Internal-main\\examples\\das_subg_thread\\keil" "../../../components/network/thread/subg_openthread/src/core\\meshcop/meshcop.hpp"
	.loc	49 307 37                       @ ../../../components/network/thread/subg_openthread/src/core\meshcop/meshcop.hpp:307:37
	adds	r0, r4, #1
.Ltmp117:
	.loc	46 144 5                        @ ../../../components/network/thread/subg_openthread/src/core/meshcop/meshcop_tlvs.cpp:144:5
	adds	r1, r5, #2
	@DEBUG_VALUE: GetLength:this <- undef
.Ltmp118:
	@DEBUG_VALUE: GetSteeringDataLength:this <- undef
	.loc	21 785 16                       @ ../../../components/network/thread/subg_openthread/src/core\meshcop/meshcop_tlvs.hpp:785:16
	cmp	r2, #16
	it	lo
	movlo	r6, r2
.Ltmp119:
	.loc	46 144 5                        @ ../../../components/network/thread/subg_openthread/src/core/meshcop/meshcop_tlvs.cpp:144:5
	mov	r2, r6
	pop.w	{r4, r5, r6, lr}
.Ltmp120:
	b	__aeabi_memcpy
.Ltmp121:
.Lfunc_end8:
	.size	_ZNK2ot7MeshCoP15SteeringDataTlv6CopyToERNS0_12SteeringDataE, .Lfunc_end8-_ZNK2ot7MeshCoP15SteeringDataTlv6CopyToERNS0_12SteeringDataE
	.cfi_endproc
	.file	50 "D:\\Rafael-IoT-SDK-Internal-main\\examples\\das_subg_thread\\keil" "../../../components/network/thread/subg_openthread/include\\openthread/commissioner.h"
	.cantunwind
	.fnend
                                        @ -- End function
	.section	.text._ZNK2ot7MeshCoP17SecurityPolicyTlv17GetSecurityPolicyEv,"ax",%progbits
	.hidden	_ZNK2ot7MeshCoP17SecurityPolicyTlv17GetSecurityPolicyEv @ -- Begin function _ZNK2ot7MeshCoP17SecurityPolicyTlv17GetSecurityPolicyEv
	.globl	_ZNK2ot7MeshCoP17SecurityPolicyTlv17GetSecurityPolicyEv
	.p2align	1
	.type	_ZNK2ot7MeshCoP17SecurityPolicyTlv17GetSecurityPolicyEv,%function
	.code	16                              @ @_ZNK2ot7MeshCoP17SecurityPolicyTlv17GetSecurityPolicyEv
	.thumb_func
_ZNK2ot7MeshCoP17SecurityPolicyTlv17GetSecurityPolicyEv:
.Lfunc_begin9:
	.loc	46 153 0                        @ ../../../components/network/thread/subg_openthread/src/core/meshcop/meshcop_tlvs.cpp:153:0
	.fnstart
	.cfi_startproc
@ %bb.0:
	@DEBUG_VALUE: GetSecurityPolicy:this <- $r0
	.save	{r4, r5, r7, lr}
	push	{r4, r5, r7, lr}
	.cfi_def_cfa_offset 16
	.cfi_offset lr, -4
	.cfi_offset r7, -8
	.cfi_offset r5, -12
	.cfi_offset r4, -16
	.pad	#8
	sub	sp, #8
	.cfi_def_cfa_offset 24
	add	r5, sp, #4
.Ltmp122:
	@DEBUG_VALUE: SecurityPolicy:this <- [DW_OP_plus_uconst 4, DW_OP_stack_value] $sp
	mov	r4, r0
.Ltmp123:
	@DEBUG_VALUE: GetSecurityPolicy:this <- $r4
	@DEBUG_VALUE: GetSecurityPolicy:this <- $r4
	.loc	25 88 28 prologue_end           @ ../../../components/network/thread/subg_openthread/src/core\thread/key_manager.hpp:88:28
	mov	r0, r5
	bl	_ZN2ot14SecurityPolicy12SetToDefaultEv
.Ltmp124:
	@DEBUG_VALUE: GetLength:this <- $r4
	@DEBUG_VALUE: GetFlagsLength:this <- $r4
	.loc	20 101 44                       @ ../../../components/network/thread/subg_openthread/src/core\common/tlvs.hpp:101:44
	ldrb	r0, [r4, #1]
.Ltmp125:
	.loc	21 1005 62                      @ ../../../components/network/thread/subg_openthread/src/core\meshcop/meshcop_tlvs.hpp:1005:62
	subs	r0, #2
	uxtb	r1, r0
.Ltmp126:
	@DEBUG_VALUE: Min<unsigned char>:aFirst <- 2
	@DEBUG_VALUE: Min<unsigned char>:aSecond <- $r0
	.file	51 "D:\\Rafael-IoT-SDK-Internal-main\\examples\\das_subg_thread\\keil" "../../../components/network/thread/subg_openthread/src/core\\common/num_utils.hpp"
	.loc	51 55 71                        @ ../../../components/network/thread/subg_openthread/src/core\common/num_utils.hpp:55:71
	cmp	r1, #2
.Ltmp127:
	.loc	21 1004 62                      @ ../../../components/network/thread/subg_openthread/src/core\meshcop/meshcop_tlvs.hpp:1004:62
	ldrh	r1, [r4, #2]
.Ltmp128:
	.loc	51 55 71                        @ ../../../components/network/thread/subg_openthread/src/core\common/num_utils.hpp:55:71
	it	hs
	movhs	r0, #2
.Ltmp129:
	@DEBUG_VALUE: GetRotationTime:this <- $r4
	@DEBUG_VALUE: GetSecurityPolicy:length <- $r0
	@DEBUG_VALUE: Min<unsigned char>:aFirst <- 2
	@DEBUG_VALUE: Min<unsigned char>:aSecond <- $r0
	.loc	51 0 71 is_stmt 0               @ ../../../components/network/thread/subg_openthread/src/core\common/num_utils.hpp:0:71
	rev	r1, r1
	lsrs	r1, r1, #16
.Ltmp130:
	.loc	46 157 34 is_stmt 1             @ ../../../components/network/thread/subg_openthread/src/core/meshcop/meshcop_tlvs.cpp:157:34
	strh.w	r1, [sp, #4]
	.loc	46 158 29                       @ ../../../components/network/thread/subg_openthread/src/core/meshcop/meshcop_tlvs.cpp:158:29
	adds	r1, r4, #4
	.loc	46 158 20 is_stmt 0             @ ../../../components/network/thread/subg_openthread/src/core/meshcop/meshcop_tlvs.cpp:158:20
	uxtb	r2, r0
	mov	r0, r5
.Ltmp131:
	bl	_ZN2ot14SecurityPolicy8SetFlagsEPKhh
.Ltmp132:
	.loc	46 161 1 is_stmt 1              @ ../../../components/network/thread/subg_openthread/src/core/meshcop/meshcop_tlvs.cpp:161:1
	ldr	r0, [sp, #4]
	add	sp, #8
	pop	{r4, r5, r7, pc}
.Ltmp133:
.Lfunc_end9:
	.size	_ZNK2ot7MeshCoP17SecurityPolicyTlv17GetSecurityPolicyEv, .Lfunc_end9-_ZNK2ot7MeshCoP17SecurityPolicyTlv17GetSecurityPolicyEv
	.cfi_endproc
	.cantunwind
	.fnend
                                        @ -- End function
	.section	.text._ZN2ot7MeshCoP17SecurityPolicyTlv17SetSecurityPolicyERKNS_14SecurityPolicyE,"ax",%progbits
	.hidden	_ZN2ot7MeshCoP17SecurityPolicyTlv17SetSecurityPolicyERKNS_14SecurityPolicyE @ -- Begin function _ZN2ot7MeshCoP17SecurityPolicyTlv17SetSecurityPolicyERKNS_14SecurityPolicyE
	.globl	_ZN2ot7MeshCoP17SecurityPolicyTlv17SetSecurityPolicyERKNS_14SecurityPolicyE
	.p2align	1
	.type	_ZN2ot7MeshCoP17SecurityPolicyTlv17SetSecurityPolicyERKNS_14SecurityPolicyE,%function
	.code	16                              @ @_ZN2ot7MeshCoP17SecurityPolicyTlv17SetSecurityPolicyERKNS_14SecurityPolicyE
	.thumb_func
_ZN2ot7MeshCoP17SecurityPolicyTlv17SetSecurityPolicyERKNS_14SecurityPolicyE:
.Lfunc_begin10:
	.loc	46 164 0                        @ ../../../components/network/thread/subg_openthread/src/core/meshcop/meshcop_tlvs.cpp:164:0
	.fnstart
	.cfi_startproc
@ %bb.0:
	@DEBUG_VALUE: SetSecurityPolicy:this <- $r0
	@DEBUG_VALUE: SetSecurityPolicy:aSecurityPolicy <- $r1
	mov	r2, r1
.Ltmp134:
	@DEBUG_VALUE: SetSecurityPolicy:aSecurityPolicy <- $r2
	.loc	46 165 37 prologue_end          @ ../../../components/network/thread/subg_openthread/src/core/meshcop/meshcop_tlvs.cpp:165:37
	ldrh	r1, [r1]
.Ltmp135:
	@DEBUG_VALUE: SetRotationTime:this <- undef
	@DEBUG_VALUE: SetRotationTime:aRotationTime <- $r1
	.loc	46 0 37 is_stmt 0               @ ../../../components/network/thread/subg_openthread/src/core/meshcop/meshcop_tlvs.cpp:0:37
	mov	r3, r0
.Ltmp136:
	@DEBUG_VALUE: SetSecurityPolicy:this <- $r3
	rev	r0, r1
	lsr.w	r12, r0, #16
	.loc	46 166 30 is_stmt 1             @ ../../../components/network/thread/subg_openthread/src/core/meshcop/meshcop_tlvs.cpp:166:30
	adds	r1, r3, #4
	.loc	46 166 21 is_stmt 0             @ ../../../components/network/thread/subg_openthread/src/core/meshcop/meshcop_tlvs.cpp:166:21
	mov	r0, r2
	movs	r2, #2
.Ltmp137:
	.loc	21 1003 70 is_stmt 1            @ ../../../components/network/thread/subg_openthread/src/core\meshcop/meshcop_tlvs.hpp:1003:70
	strh.w	r12, [r3, #2]
.Ltmp138:
	.loc	46 166 21                       @ ../../../components/network/thread/subg_openthread/src/core/meshcop/meshcop_tlvs.cpp:166:21
	b	_ZNK2ot14SecurityPolicy8GetFlagsEPhh
.Ltmp139:
.Lfunc_end10:
	.size	_ZN2ot7MeshCoP17SecurityPolicyTlv17SetSecurityPolicyERKNS_14SecurityPolicyE, .Lfunc_end10-_ZN2ot7MeshCoP17SecurityPolicyTlv17SetSecurityPolicyERKNS_14SecurityPolicyE
	.cfi_endproc
	.cantunwind
	.fnend
                                        @ -- End function
	.section	.text._ZN2ot7MeshCoP10ChannelTlv10SetChannelEt,"ax",%progbits
	.hidden	_ZN2ot7MeshCoP10ChannelTlv10SetChannelEt @ -- Begin function _ZN2ot7MeshCoP10ChannelTlv10SetChannelEt
	.globl	_ZN2ot7MeshCoP10ChannelTlv10SetChannelEt
	.p2align	1
	.type	_ZN2ot7MeshCoP10ChannelTlv10SetChannelEt,%function
	.code	16                              @ @_ZN2ot7MeshCoP10ChannelTlv10SetChannelEt
	.thumb_func
_ZN2ot7MeshCoP10ChannelTlv10SetChannelEt:
.Lfunc_begin11:
	.loc	46 184 0                        @ ../../../components/network/thread/subg_openthread/src/core/meshcop/meshcop_tlvs.cpp:184:0
	.fnstart
	.cfi_startproc
@ %bb.0:
	@DEBUG_VALUE: SetChannel:this <- $r0
	@DEBUG_VALUE: SetChannel:this <- $r0
	@DEBUG_VALUE: SetChannel:aChannel <- $r1
	@DEBUG_VALUE: SetChannel:aChannel <- $r1
	@DEBUG_VALUE: SetChannel:channelPage <- 0
	.loc	46 195 57 prologue_end          @ ../../../components/network/thread/subg_openthread/src/core/meshcop/meshcop_tlvs.cpp:195:57
	subs	r2, r1, #1
	uxth	r2, r2
	movs	r3, #0
	cmp	r2, #10
	it	lo
	movlo	r3, #1
	lsls	r2, r3, #1
.Ltmp140:
	@DEBUG_VALUE: SetChannelPage:this <- $r0
	@DEBUG_VALUE: SetChannelPage:aChannelPage <- $r2
	@DEBUG_VALUE: SetChannel:channelPage <- $r2
	.loc	46 0 57 is_stmt 0               @ ../../../components/network/thread/subg_openthread/src/core/meshcop/meshcop_tlvs.cpp:0:57
	rev16	r1, r1
.Ltmp141:
	@DEBUG_VALUE: SetChannel:aChannel <- [DW_OP_LLVM_entry_value 1] $r1
	.loc	21 386 62 is_stmt 1             @ ../../../components/network/thread/subg_openthread/src/core\meshcop/meshcop_tlvs.hpp:386:62
	strb	r2, [r0, #2]
.Ltmp142:
	.loc	46 211 14                       @ ../../../components/network/thread/subg_openthread/src/core/meshcop/meshcop_tlvs.cpp:211:14
	strh.w	r1, [r0, #3]
	.loc	46 212 1                        @ ../../../components/network/thread/subg_openthread/src/core/meshcop/meshcop_tlvs.cpp:212:1
	bx	lr
.Ltmp143:
.Lfunc_end11:
	.size	_ZN2ot7MeshCoP10ChannelTlv10SetChannelEt, .Lfunc_end11-_ZN2ot7MeshCoP10ChannelTlv10SetChannelEt
	.cfi_endproc
	.cantunwind
	.fnend
                                        @ -- End function
	.section	.text._ZNK2ot7MeshCoP18ChannelMaskBaseTlv13GetFirstEntryEv,"ax",%progbits
	.hidden	_ZNK2ot7MeshCoP18ChannelMaskBaseTlv13GetFirstEntryEv @ -- Begin function _ZNK2ot7MeshCoP18ChannelMaskBaseTlv13GetFirstEntryEv
	.globl	_ZNK2ot7MeshCoP18ChannelMaskBaseTlv13GetFirstEntryEv
	.p2align	1
	.type	_ZNK2ot7MeshCoP18ChannelMaskBaseTlv13GetFirstEntryEv,%function
	.code	16                              @ @_ZNK2ot7MeshCoP18ChannelMaskBaseTlv13GetFirstEntryEv
	.thumb_func
_ZNK2ot7MeshCoP18ChannelMaskBaseTlv13GetFirstEntryEv:
.Lfunc_begin12:
	.loc	46 249 0                        @ ../../../components/network/thread/subg_openthread/src/core/meshcop/meshcop_tlvs.cpp:249:0
	.fnstart
	.cfi_startproc
@ %bb.0:
	@DEBUG_VALUE: GetFirstEntry:this <- $r0
	@DEBUG_VALUE: GetLength:this <- $r0
	.save	{r4, lr}
	push	{r4, lr}
	.cfi_def_cfa_offset 8
	.cfi_offset lr, -4
	.cfi_offset r4, -8
	mov	r4, r0
.Ltmp144:
	@DEBUG_VALUE: GetFirstEntry:entry <- 0
	@DEBUG_VALUE: GetLength:this <- $r4
	@DEBUG_VALUE: GetFirstEntry:this <- $r4
	.loc	20 101 44 prologue_end          @ ../../../components/network/thread/subg_openthread/src/core\common/tlvs.hpp:101:44
	ldrb	r0, [r0, #1]
.Ltmp145:
	.loc	46 252 5                        @ ../../../components/network/thread/subg_openthread/src/core/meshcop/meshcop_tlvs.cpp:252:5
	cmp	r0, #2
.Ltmp146:
	@DEBUG_VALUE: GetFirstEntry:entry <- 0
	@DEBUG_LABEL: GetFirstEntry:exit
	.loc	46 258 5                        @ ../../../components/network/thread/subg_openthread/src/core/meshcop/meshcop_tlvs.cpp:258:5
	itt	lo
	movlo	r0, #0
	poplo	{r4, pc}
.Ltmp147:
.LBB12_1:
	@DEBUG_VALUE: GetFirstEntry:entry <- 0
	.loc	46 254 60                       @ ../../../components/network/thread/subg_openthread/src/core/meshcop/meshcop_tlvs.cpp:254:60
	mov	r0, r4
	bl	_ZNK2ot3Tlv8GetValueEv
.Ltmp148:
	@DEBUG_VALUE: GetEntrySize:this <- $r0
	@DEBUG_VALUE: GetFirstEntry:entry <- $r0
	.loc	21 1305 79                      @ ../../../components/network/thread/subg_openthread/src/core\meshcop/meshcop_tlvs.hpp:1305:79
	ldrb	r1, [r0, #1]
.Ltmp149:
	@DEBUG_VALUE: GetLength:this <- $r4
	.loc	20 101 44                       @ ../../../components/network/thread/subg_openthread/src/core\common/tlvs.hpp:101:44
	ldrb	r2, [r4, #1]
.Ltmp150:
	.loc	21 1305 77                      @ ../../../components/network/thread/subg_openthread/src/core\meshcop/meshcop_tlvs.hpp:1305:77
	adds	r1, #2
.Ltmp151:
	@DEBUG_VALUE: GetEntrySize:this <- $r0
	.loc	46 255 5                        @ ../../../components/network/thread/subg_openthread/src/core/meshcop/meshcop_tlvs.cpp:255:5
	cmp	r1, r2
	it	hi
	movhi	r0, #0
.Ltmp152:
	pop	{r4, pc}
.Ltmp153:
.Lfunc_end12:
	.size	_ZNK2ot7MeshCoP18ChannelMaskBaseTlv13GetFirstEntryEv, .Lfunc_end12-_ZNK2ot7MeshCoP18ChannelMaskBaseTlv13GetFirstEntryEv
	.cfi_endproc
	.cantunwind
	.fnend
                                        @ -- End function
	.section	.text._ZN2ot7MeshCoP18ChannelMaskBaseTlv13GetFirstEntryEv,"ax",%progbits
	.hidden	_ZN2ot7MeshCoP18ChannelMaskBaseTlv13GetFirstEntryEv @ -- Begin function _ZN2ot7MeshCoP18ChannelMaskBaseTlv13GetFirstEntryEv
	.globl	_ZN2ot7MeshCoP18ChannelMaskBaseTlv13GetFirstEntryEv
	.p2align	1
	.type	_ZN2ot7MeshCoP18ChannelMaskBaseTlv13GetFirstEntryEv,%function
	.code	16                              @ @_ZN2ot7MeshCoP18ChannelMaskBaseTlv13GetFirstEntryEv
	.thumb_func
_ZN2ot7MeshCoP18ChannelMaskBaseTlv13GetFirstEntryEv:
.Lfunc_begin13:
	.loc	46 261 0                        @ ../../../components/network/thread/subg_openthread/src/core/meshcop/meshcop_tlvs.cpp:261:0
	.fnstart
	.cfi_startproc
@ %bb.0:
	@DEBUG_VALUE: GetFirstEntry:this <- $r0
	@DEBUG_VALUE: GetFirstEntry:this <- $r0
	@DEBUG_VALUE: GetLength:this <- $r0
	.save	{r4, lr}
	push	{r4, lr}
	.cfi_def_cfa_offset 8
	.cfi_offset lr, -4
	.cfi_offset r4, -8
	mov	r4, r0
.Ltmp154:
	@DEBUG_VALUE: GetFirstEntry:entry <- 0
	@DEBUG_VALUE: GetLength:this <- $r4
	@DEBUG_VALUE: GetFirstEntry:this <- $r4
	@DEBUG_VALUE: GetFirstEntry:this <- $r4
	.loc	20 101 44 prologue_end          @ ../../../components/network/thread/subg_openthread/src/core\common/tlvs.hpp:101:44
	ldrb	r0, [r0, #1]
.Ltmp155:
	.loc	46 252 5                        @ ../../../components/network/thread/subg_openthread/src/core/meshcop/meshcop_tlvs.cpp:252:5
	cmp	r0, #2
	itt	lo
	movlo	r0, #0
.Ltmp156:
	.loc	46 261 65                       @ ../../../components/network/thread/subg_openthread/src/core/meshcop/meshcop_tlvs.cpp:261:65
	poplo	{r4, pc}
.Ltmp157:
.LBB13_1:
	@DEBUG_VALUE: GetFirstEntry:entry <- 0
	@DEBUG_VALUE: GetLength:this <- $r4
	.loc	46 254 60                       @ ../../../components/network/thread/subg_openthread/src/core/meshcop/meshcop_tlvs.cpp:254:60
	mov	r0, r4
	bl	_ZNK2ot3Tlv8GetValueEv
.Ltmp158:
	@DEBUG_VALUE: GetEntrySize:this <- $r0
	@DEBUG_VALUE: GetFirstEntry:entry <- $r0
	.loc	21 1305 79                      @ ../../../components/network/thread/subg_openthread/src/core\meshcop/meshcop_tlvs.hpp:1305:79
	ldrb	r1, [r0, #1]
.Ltmp159:
	@DEBUG_VALUE: GetLength:this <- $r4
	.loc	20 101 44                       @ ../../../components/network/thread/subg_openthread/src/core\common/tlvs.hpp:101:44
	ldrb	r2, [r4, #1]
.Ltmp160:
	.loc	21 1305 77                      @ ../../../components/network/thread/subg_openthread/src/core\meshcop/meshcop_tlvs.hpp:1305:77
	adds	r1, #2
.Ltmp161:
	@DEBUG_VALUE: GetEntrySize:this <- $r0
	.loc	46 255 5                        @ ../../../components/network/thread/subg_openthread/src/core/meshcop/meshcop_tlvs.cpp:255:5
	cmp	r1, r2
	it	hi
	movhi	r0, #0
.Ltmp162:
	.loc	46 261 65                       @ ../../../components/network/thread/subg_openthread/src/core/meshcop/meshcop_tlvs.cpp:261:65
	pop	{r4, pc}
.Ltmp163:
.Lfunc_end13:
	.size	_ZN2ot7MeshCoP18ChannelMaskBaseTlv13GetFirstEntryEv, .Lfunc_end13-_ZN2ot7MeshCoP18ChannelMaskBaseTlv13GetFirstEntryEv
	.cfi_endproc
	.cantunwind
	.fnend
                                        @ -- End function
	.section	.text._ZN2ot7MeshCoP14ChannelMaskTlv14SetChannelMaskEj,"ax",%progbits
	.hidden	_ZN2ot7MeshCoP14ChannelMaskTlv14SetChannelMaskEj @ -- Begin function _ZN2ot7MeshCoP14ChannelMaskTlv14SetChannelMaskEj
	.globl	_ZN2ot7MeshCoP14ChannelMaskTlv14SetChannelMaskEj
	.p2align	1
	.type	_ZN2ot7MeshCoP14ChannelMaskTlv14SetChannelMaskEj,%function
	.code	16                              @ @_ZN2ot7MeshCoP14ChannelMaskTlv14SetChannelMaskEj
	.thumb_func
_ZN2ot7MeshCoP14ChannelMaskTlv14SetChannelMaskEj:
.Lfunc_begin14:
	.loc	46 264 0                        @ ../../../components/network/thread/subg_openthread/src/core/meshcop/meshcop_tlvs.cpp:264:0
	.fnstart
	.cfi_startproc
@ %bb.0:
	@DEBUG_VALUE: SetChannelMask:this <- $r0
	@DEBUG_VALUE: SetChannelMask:aChannelMask <- $r1
	@DEBUG_VALUE: GetFirstEntry:this <- $r0
	@DEBUG_VALUE: GetFirstEntry:this <- $r0
	@DEBUG_VALUE: GetLength:this <- $r0
	.save	{r4, r5, r7, lr}
	push	{r4, r5, r7, lr}
	.cfi_def_cfa_offset 16
	.cfi_offset lr, -4
	.cfi_offset r7, -8
	.cfi_offset r5, -12
	.cfi_offset r4, -16
	mov	r4, r0
.Ltmp164:
	@DEBUG_VALUE: GetFirstEntry:entry <- 0
	@DEBUG_VALUE: SetChannelMask:length <- 0
	@DEBUG_VALUE: GetLength:this <- $r4
	@DEBUG_VALUE: GetFirstEntry:this <- $r4
	@DEBUG_VALUE: GetFirstEntry:this <- $r4
	@DEBUG_VALUE: SetChannelMask:this <- $r4
	.loc	20 101 44 prologue_end          @ ../../../components/network/thread/subg_openthread/src/core\common/tlvs.hpp:101:44
	ldrb	r0, [r0, #1]
	mov	r5, r1
.Ltmp165:
	@DEBUG_VALUE: SetChannelMask:aChannelMask <- $r5
	@DEBUG_VALUE: SetChannelMask:aChannelMask <- $r5
	.loc	46 252 5                        @ ../../../components/network/thread/subg_openthread/src/core/meshcop/meshcop_tlvs.cpp:252:5
	cmp	r0, #2
	blo	.LBB14_4
.Ltmp166:
@ %bb.1:
	@DEBUG_VALUE: SetChannelMask:aChannelMask <- $r5
	@DEBUG_VALUE: SetChannelMask:this <- $r4
	@DEBUG_VALUE: GetFirstEntry:this <- $r4
	@DEBUG_VALUE: GetFirstEntry:this <- $r4
	@DEBUG_VALUE: SetChannelMask:length <- 0
	@DEBUG_VALUE: GetFirstEntry:entry <- 0
	@DEBUG_VALUE: GetFirstEntry:this <- $r4
	@DEBUG_VALUE: GetFirstEntry:this <- $r4
	.loc	46 254 60                       @ ../../../components/network/thread/subg_openthread/src/core/meshcop/meshcop_tlvs.cpp:254:60
	mov	r0, r4
	bl	_ZNK2ot3Tlv8GetValueEv
.Ltmp167:
	@DEBUG_VALUE: GetEntrySize:this <- $r0
	@DEBUG_VALUE: GetFirstEntry:entry <- $r0
	.loc	21 1305 79                      @ ../../../components/network/thread/subg_openthread/src/core\meshcop/meshcop_tlvs.hpp:1305:79
	ldrb	r1, [r0, #1]
.Ltmp168:
	@DEBUG_VALUE: GetLength:this <- $r4
	.loc	20 101 44                       @ ../../../components/network/thread/subg_openthread/src/core\common/tlvs.hpp:101:44
	ldrb	r2, [r4, #1]
.Ltmp169:
	.loc	21 1305 77                      @ ../../../components/network/thread/subg_openthread/src/core\meshcop/meshcop_tlvs.hpp:1305:77
	adds	r1, #2
.Ltmp170:
	@DEBUG_VALUE: GetEntrySize:this <- $r0
	.loc	46 255 5                        @ ../../../components/network/thread/subg_openthread/src/core/meshcop/meshcop_tlvs.cpp:255:5
	cmp	r1, r2
	movw	r1, #2046
	it	hi
	movhi	r0, #0
.Ltmp171:
	@DEBUG_VALUE: SetChannelMask:entry <- $r0
	.loc	46 271 22                       @ ../../../components/network/thread/subg_openthread/src/core/meshcop/meshcop_tlvs.cpp:271:22
	ands	r1, r5
.Ltmp172:
	.loc	46 271 9 is_stmt 0              @ ../../../components/network/thread/subg_openthread/src/core/meshcop/meshcop_tlvs.cpp:271:9
	beq	.LBB14_7
.Ltmp173:
@ %bb.2:
	@DEBUG_VALUE: SetChannelMask:aChannelMask <- $r5
	@DEBUG_VALUE: SetChannelMask:this <- $r4
	@DEBUG_VALUE: SetChannelMask:entry <- $r0
	@DEBUG_VALUE: SetChannelMask:length <- 0
	.loc	46 273 9 is_stmt 1              @ ../../../components/network/thread/subg_openthread/src/core/meshcop/meshcop_tlvs.cpp:273:9
	cbz	r0, .LBB14_5
.Ltmp174:
@ %bb.3:
	@DEBUG_VALUE: SetChannelMask:aChannelMask <- $r5
	@DEBUG_VALUE: SetChannelMask:this <- $r4
	@DEBUG_VALUE: SetChannelMask:entry <- $r0
	@DEBUG_VALUE: SetChannelMask:length <- 0
	@DEBUG_VALUE: Init:this <- $r0
	@DEBUG_VALUE: SetChannelPage:this <- $r0
	@DEBUG_VALUE: SetChannelPage:aChannelPage <- 0
	@DEBUG_VALUE: SetMaskLength:this <- $r0
	@DEBUG_VALUE: SetMaskLength:aMaskLength <- 4
	.loc	46 0 9 is_stmt 0                @ ../../../components/network/thread/subg_openthread/src/core/meshcop/meshcop_tlvs.cpp:0:9
	movw	r2, #1026
.Ltmp175:
	@DEBUG_VALUE: SetChannelPage:aChannelPage <- 2
	@DEBUG_VALUE: SetChannelPage:this <- $r0
	.loc	21 1281 62 is_stmt 1            @ ../../../components/network/thread/subg_openthread/src/core\meshcop/meshcop_tlvs.hpp:1281:62
	strh	r2, [r0]
.Ltmp176:
	.loc	46 276 16                       @ ../../../components/network/thread/subg_openthread/src/core/meshcop/meshcop_tlvs.cpp:276:16
	bl	_ZN2ot7MeshCoP16ChannelMaskEntry7SetMaskEj
.Ltmp177:
	.loc	46 0 16 is_stmt 0               @ ../../../components/network/thread/subg_openthread/src/core/meshcop/meshcop_tlvs.cpp:0:16
	movs	r0, #6
.Ltmp178:
	@DEBUG_VALUE: GetEntrySize:this <- undef
	@DEBUG_VALUE: SetChannelMask:entry <- undef
	@DEBUG_VALUE: SetChannelMask:length <- 6
	b	.LBB14_8
.Ltmp179:
.LBB14_4:
	@DEBUG_VALUE: SetChannelMask:aChannelMask <- $r5
	@DEBUG_VALUE: SetChannelMask:this <- $r4
	@DEBUG_VALUE: SetChannelMask:length <- 0
	movw	r0, #2046
	.loc	46 271 9 is_stmt 1              @ ../../../components/network/thread/subg_openthread/src/core/meshcop/meshcop_tlvs.cpp:271:9
	tst	r5, r0
	beq	.LBB14_7
.Ltmp180:
.LBB14_5:
	@DEBUG_VALUE: SetChannelMask:aChannelMask <- $r5
	@DEBUG_VALUE: SetChannelMask:this <- $r4
	@DEBUG_VALUE: SetChannelMask:length <- 0
	.loc	46 273 9                        @ ../../../components/network/thread/subg_openthread/src/core/meshcop/meshcop_tlvs.cpp:273:9
	movw	r0, :lower16:.L.str
	movt	r0, :upper16:.L.str
	movw	r1, #273
	bl	otPlatAssertFail
.Ltmp181:
	.p2align	2
.LBB14_6:                               @ =>This Inner Loop Header: Depth=1
	@DEBUG_VALUE: SetChannelMask:aChannelMask <- $r5
	@DEBUG_VALUE: SetChannelMask:this <- $r4
	@DEBUG_VALUE: SetChannelMask:length <- 0
	b	.LBB14_6
.Ltmp182:
.LBB14_7:
	@DEBUG_VALUE: SetChannelMask:aChannelMask <- $r5
	@DEBUG_VALUE: SetChannelMask:this <- $r4
	@DEBUG_VALUE: SetChannelMask:length <- 0
	.loc	46 0 9 is_stmt 0                @ ../../../components/network/thread/subg_openthread/src/core/meshcop/meshcop_tlvs.cpp:0:9
	movs	r0, #0
.Ltmp183:
.LBB14_8:
	@DEBUG_VALUE: SetChannelMask:aChannelMask <- $r5
	@DEBUG_VALUE: SetChannelMask:this <- $r4
	@DEBUG_VALUE: SetChannelMask:length <- $r0
	@DEBUG_VALUE: SetLength:this <- $r4
	@DEBUG_VALUE: SetLength:aLength <- $r0
	.loc	20 109 47 is_stmt 1             @ ../../../components/network/thread/subg_openthread/src/core\common/tlvs.hpp:109:47
	strb	r0, [r4, #1]
.Ltmp184:
	.loc	46 309 1                        @ ../../../components/network/thread/subg_openthread/src/core/meshcop/meshcop_tlvs.cpp:309:1
	pop	{r4, r5, r7, pc}
.Ltmp185:
.Lfunc_end14:
	.size	_ZN2ot7MeshCoP14ChannelMaskTlv14SetChannelMaskEj, .Lfunc_end14-_ZN2ot7MeshCoP14ChannelMaskTlv14SetChannelMaskEj
	.cfi_endproc
	.cantunwind
	.fnend
                                        @ -- End function
	.section	.text._ZN2ot7MeshCoP16ChannelMaskEntry7SetMaskEj,"axG",%progbits,_ZN2ot7MeshCoP16ChannelMaskEntry7SetMaskEj,comdat
	.hidden	_ZN2ot7MeshCoP16ChannelMaskEntry7SetMaskEj @ -- Begin function _ZN2ot7MeshCoP16ChannelMaskEntry7SetMaskEj
	.weak	_ZN2ot7MeshCoP16ChannelMaskEntry7SetMaskEj
	.p2align	1
	.type	_ZN2ot7MeshCoP16ChannelMaskEntry7SetMaskEj,%function
	.code	16                              @ @_ZN2ot7MeshCoP16ChannelMaskEntry7SetMaskEj
	.thumb_func
_ZN2ot7MeshCoP16ChannelMaskEntry7SetMaskEj:
.Lfunc_begin15:
	.loc	21 1408 0                       @ ../../../components/network/thread/subg_openthread/src/core\meshcop/meshcop_tlvs.hpp:1408:0
	.fnstart
	.cfi_startproc
@ %bb.0:
	@DEBUG_VALUE: SetMask:this <- $r0
	@DEBUG_VALUE: SetMask:aMask <- $r1
	@DEBUG_VALUE: Reverse32:v <- $r1
	mov.w	r2, #-1431655766
	@DEBUG_VALUE: Reverse32:v <- $r1
	@DEBUG_VALUE: SetMask:aMask <- $r1
	@DEBUG_VALUE: SetMask:this <- $r0
	mov.w	r3, #1431655765
.Ltmp186:
	.loc	39 76 27 prologue_end           @ ../../../components/network/thread/subg_openthread/src/core\common/encoding.hpp:76:27
	and.w	r2, r2, r1, lsl #1
	.loc	39 76 53 is_stmt 0              @ ../../../components/network/thread/subg_openthread/src/core\common/encoding.hpp:76:53
	and.w	r1, r3, r1, lsr #1
.Ltmp187:
	@DEBUG_VALUE: SetMask:aMask <- [DW_OP_LLVM_entry_value 1] $r1
	.loc	39 76 33                        @ ../../../components/network/thread/subg_openthread/src/core\common/encoding.hpp:76:33
	add	r1, r2
.Ltmp188:
	@DEBUG_VALUE: Reverse32:v <- $r1
	.loc	39 0 33                         @ ../../../components/network/thread/subg_openthread/src/core\common/encoding.hpp:0:33
	mov.w	r2, #-858993460
	mov.w	r3, #858993459
	.loc	39 77 27 is_stmt 1              @ ../../../components/network/thread/subg_openthread/src/core\common/encoding.hpp:77:27
	and.w	r2, r2, r1, lsl #2
	.loc	39 77 53 is_stmt 0              @ ../../../components/network/thread/subg_openthread/src/core\common/encoding.hpp:77:53
	and.w	r1, r3, r1, lsr #2
.Ltmp189:
	.loc	39 77 33                        @ ../../../components/network/thread/subg_openthread/src/core\common/encoding.hpp:77:33
	add	r1, r2
.Ltmp190:
	@DEBUG_VALUE: Reverse32:v <- $r1
	.loc	39 0 33                         @ ../../../components/network/thread/subg_openthread/src/core\common/encoding.hpp:0:33
	mov.w	r2, #-252645136
	mov.w	r3, #252645135
	.loc	39 78 27 is_stmt 1              @ ../../../components/network/thread/subg_openthread/src/core\common/encoding.hpp:78:27
	and.w	r2, r2, r1, lsl #4
	.loc	39 78 53 is_stmt 0              @ ../../../components/network/thread/subg_openthread/src/core\common/encoding.hpp:78:53
	and.w	r1, r3, r1, lsr #4
.Ltmp191:
	.loc	39 78 33                        @ ../../../components/network/thread/subg_openthread/src/core\common/encoding.hpp:78:33
	add	r1, r2
.Ltmp192:
	@DEBUG_VALUE: Swap32:v <- undef
	@DEBUG_VALUE: HostSwap32:v <- undef
	@DEBUG_VALUE: Reverse32:v <- undef
	.loc	21 1408 42 is_stmt 1            @ ../../../components/network/thread/subg_openthread/src/core\meshcop/meshcop_tlvs.hpp:1408:42
	str.w	r1, [r0, #2]
	.loc	21 1408 84 is_stmt 0            @ ../../../components/network/thread/subg_openthread/src/core\meshcop/meshcop_tlvs.hpp:1408:84
	bx	lr
.Ltmp193:
.Lfunc_end15:
	.size	_ZN2ot7MeshCoP16ChannelMaskEntry7SetMaskEj, .Lfunc_end15-_ZN2ot7MeshCoP16ChannelMaskEntry7SetMaskEj
	.cfi_endproc
	.cantunwind
	.fnend
                                        @ -- End function
	.section	.text._ZNK2ot7MeshCoP14ChannelMaskTlv14GetChannelMaskEv,"ax",%progbits
	.hidden	_ZNK2ot7MeshCoP14ChannelMaskTlv14GetChannelMaskEv @ -- Begin function _ZNK2ot7MeshCoP14ChannelMaskTlv14GetChannelMaskEv
	.globl	_ZNK2ot7MeshCoP14ChannelMaskTlv14GetChannelMaskEv
	.p2align	1
	.type	_ZNK2ot7MeshCoP14ChannelMaskTlv14GetChannelMaskEv,%function
	.code	16                              @ @_ZNK2ot7MeshCoP14ChannelMaskTlv14GetChannelMaskEv
	.thumb_func
_ZNK2ot7MeshCoP14ChannelMaskTlv14GetChannelMaskEv:
.Lfunc_begin16:
	.loc	46 312 0 is_stmt 1              @ ../../../components/network/thread/subg_openthread/src/core/meshcop/meshcop_tlvs.cpp:312:0
	.fnstart
	.cfi_startproc
@ %bb.0:
	@DEBUG_VALUE: GetChannelMask:this <- $r0
	@DEBUG_VALUE: GetFirstEntry:this <- $r0
	@DEBUG_VALUE: GetLength:this <- $r0
	.save	{r4, r5, r6, r7, r8, r9, r10, lr}
	push.w	{r4, r5, r6, r7, r8, r9, r10, lr}
	.cfi_def_cfa_offset 32
	.cfi_offset lr, -4
	.cfi_offset r10, -8
	.cfi_offset r9, -12
	.cfi_offset r8, -16
	.cfi_offset r7, -20
	.cfi_offset r6, -24
	.cfi_offset r5, -28
	.cfi_offset r4, -32
	mov	r5, r0
.Ltmp194:
	@DEBUG_VALUE: GetFirstEntry:entry <- 0
	@DEBUG_VALUE: GetLength:this <- $r5
	@DEBUG_VALUE: GetFirstEntry:this <- $r5
	@DEBUG_VALUE: GetChannelMask:this <- $r5
	.loc	20 101 44 prologue_end          @ ../../../components/network/thread/subg_openthread/src/core\common/tlvs.hpp:101:44
	ldrb	r0, [r0, #1]
.Ltmp195:
	.loc	46 252 5                        @ ../../../components/network/thread/subg_openthread/src/core/meshcop/meshcop_tlvs.cpp:252:5
	cmp	r0, #2
	blo	.LBB16_2
.Ltmp196:
@ %bb.1:
	@DEBUG_VALUE: GetChannelMask:this <- $r5
	@DEBUG_VALUE: GetFirstEntry:this <- $r5
	@DEBUG_VALUE: GetFirstEntry:entry <- 0
	@DEBUG_VALUE: GetFirstEntry:this <- $r5
	@DEBUG_VALUE: GetLength:this <- $r5
	.loc	46 254 60                       @ ../../../components/network/thread/subg_openthread/src/core/meshcop/meshcop_tlvs.cpp:254:60
	mov	r0, r5
	bl	_ZNK2ot3Tlv8GetValueEv
.Ltmp197:
	mov	r6, r0
.Ltmp198:
	@DEBUG_VALUE: GetEntrySize:this <- $r6
	@DEBUG_VALUE: GetFirstEntry:entry <- $r6
	.loc	21 1305 79                      @ ../../../components/network/thread/subg_openthread/src/core\meshcop/meshcop_tlvs.hpp:1305:79
	ldrb	r0, [r0, #1]
.Ltmp199:
	@DEBUG_VALUE: GetLength:this <- $r5
	.loc	20 101 44                       @ ../../../components/network/thread/subg_openthread/src/core\common/tlvs.hpp:101:44
	ldrb	r1, [r5, #1]
.Ltmp200:
	.loc	21 1305 77                      @ ../../../components/network/thread/subg_openthread/src/core\meshcop/meshcop_tlvs.hpp:1305:77
	adds	r0, #2
	@DEBUG_VALUE: GetEntrySize:this <- $r6
	cmp	r0, r1
	it	hi
	movhi	r6, #0
.Ltmp201:
	.loc	21 0 77 is_stmt 0               @ ../../../components/network/thread/subg_openthread/src/core\meshcop/meshcop_tlvs.hpp:0:77
	b	.LBB16_3
.Ltmp202:
.LBB16_2:
	@DEBUG_VALUE: GetChannelMask:this <- $r5
	@DEBUG_VALUE: GetFirstEntry:this <- $r5
	@DEBUG_VALUE: GetLength:this <- $r5
	@DEBUG_VALUE: GetFirstEntry:entry <- 0
	movs	r6, #0
.Ltmp203:
.LBB16_3:
	@DEBUG_VALUE: GetChannelMask:this <- $r5
	@DEBUG_VALUE: GetChannelMask:cur <- $r6
	@DEBUG_VALUE: GetNext:this <- $r5
	@DEBUG_VALUE: GetNext:this <- $r5
	.loc	20 161 88 is_stmt 1             @ ../../../components/network/thread/subg_openthread/src/core\common/tlvs.hpp:161:88
	mov	r0, r5
	bl	_ZNK2ot3Tlv7GetSizeEv
.Ltmp204:
	.loc	46 317 5                        @ ../../../components/network/thread/subg_openthread/src/core/meshcop/meshcop_tlvs.cpp:317:5
	cmp	r6, #0
.Ltmp205:
	@DEBUG_VALUE: GetChannelMask:mask <- 0
	@DEBUG_VALUE: GetChannelMask:end <- undef
	@DEBUG_VALUE: GetNext:this <- $r5
	@DEBUG_VALUE: GetNext:this <- $r5
	beq	.LBB16_13
.Ltmp206:
@ %bb.4:
	@DEBUG_VALUE: GetChannelMask:cur <- $r6
	@DEBUG_VALUE: GetChannelMask:this <- $r5
	@DEBUG_VALUE: GetChannelMask:mask <- 0
	.loc	46 0 0 is_stmt 0                @ ../../../components/network/thread/subg_openthread/src/core/meshcop/meshcop_tlvs.cpp:0:0
	adds	r1, r5, r0
	@DEBUG_VALUE: GetChannelMask:mask <- 0
.Ltmp207:
	@DEBUG_VALUE: GetChannelMask:end <- $r1
	@DEBUG_VALUE: GetChannelMask:cur <- $r6
	.loc	46 319 5 is_stmt 1              @ ../../../components/network/thread/subg_openthread/src/core/meshcop/meshcop_tlvs.cpp:319:5
	cmp	r6, r1
	mov.w	r0, #0
	bhs	.LBB16_12
.Ltmp208:
@ %bb.5:
	@DEBUG_VALUE: GetChannelMask:cur <- $r6
	@DEBUG_VALUE: GetChannelMask:this <- $r5
	@DEBUG_VALUE: GetChannelMask:end <- $r1
	@DEBUG_VALUE: GetChannelMask:mask <- 0
	.loc	46 0 5 is_stmt 0                @ ../../../components/network/thread/subg_openthread/src/core/meshcop/meshcop_tlvs.cpp:0:5
	adds	r2, r6, #2
	.loc	46 319 5                        @ ../../../components/network/thread/subg_openthread/src/core/meshcop/meshcop_tlvs.cpp:319:5
	cmp	r2, r1
	bhi	.LBB16_12
.Ltmp209:
@ %bb.6:
	@DEBUG_VALUE: GetChannelMask:cur <- $r6
	@DEBUG_VALUE: GetChannelMask:this <- $r5
	@DEBUG_VALUE: GetChannelMask:end <- $r1
	@DEBUG_VALUE: GetChannelMask:mask <- 0
	.loc	46 0 5                          @ ../../../components/network/thread/subg_openthread/src/core/meshcop/meshcop_tlvs.cpp:0:5
	movs	r0, #0
	mov.w	r12, #-1431655766
	mov.w	lr, #1431655765
	mov.w	r8, #-858993460
	mov.w	r9, #858993459
	mov.w	r10, #240
	mov.w	r5, #1792
.Ltmp210:
	movs	r7, #14
.Ltmp211:
	.p2align	2
.LBB16_7:                               @ =>This Inner Loop Header: Depth=1
	@DEBUG_VALUE: GetChannelMask:cur <- $r6
	@DEBUG_VALUE: GetChannelMask:end <- $r1
	@DEBUG_VALUE: GetChannelMask:cur <- $r6
	@DEBUG_VALUE: GetChannelMask:mask <- $r0
	@DEBUG_VALUE: GetNext:this <- $r6
	@DEBUG_VALUE: GetEntrySize:this <- $r6
	.loc	21 1305 79 is_stmt 1            @ ../../../components/network/thread/subg_openthread/src/core\meshcop/meshcop_tlvs.hpp:1305:79
	ldrb	r4, [r6, #1]
	.loc	21 1305 77 is_stmt 0            @ ../../../components/network/thread/subg_openthread/src/core\meshcop/meshcop_tlvs.hpp:1305:77
	add	r4, r6
.Ltmp212:
	.loc	21 1351 103 is_stmt 1           @ ../../../components/network/thread/subg_openthread/src/core\meshcop/meshcop_tlvs.hpp:1351:103
	adds	r4, #2
.Ltmp213:
	.loc	46 323 9                        @ ../../../components/network/thread/subg_openthread/src/core/meshcop/meshcop_tlvs.cpp:323:9
	cmp	r4, r1
	bhi	.LBB16_12
.Ltmp214:
@ %bb.8:                                @   in Loop: Header=BB16_7 Depth=1
	@DEBUG_VALUE: GetChannelMask:cur <- $r6
	@DEBUG_VALUE: GetChannelMask:end <- $r1
	@DEBUG_VALUE: GetChannelMask:mask <- $r0
	@DEBUG_VALUE: GetChannelPage:this <- $r6
	.loc	21 1273 49                      @ ../../../components/network/thread/subg_openthread/src/core\meshcop/meshcop_tlvs.hpp:1273:49
	ldrb	r2, [r6]
.Ltmp215:
	@DEBUG_VALUE: channelPage <- $r2
	.loc	46 328 13                       @ ../../../components/network/thread/subg_openthread/src/core/meshcop/meshcop_tlvs.cpp:328:13
	cmp	r2, #2
	bne	.LBB16_10
.Ltmp216:
@ %bb.9:                                @   in Loop: Header=BB16_7 Depth=1
	@DEBUG_VALUE: GetChannelMask:cur <- $r6
	@DEBUG_VALUE: channelPage <- $r2
	@DEBUG_VALUE: GetChannelMask:end <- $r1
	@DEBUG_VALUE: GetChannelMask:mask <- $r0
	@DEBUG_VALUE: GetMask:this <- $r6
	.loc	21 1400 74                      @ ../../../components/network/thread/subg_openthread/src/core\meshcop/meshcop_tlvs.hpp:1400:74
	ldr.w	r2, [r6, #2]
.Ltmp217:
	@DEBUG_VALUE: Swap32:v <- $r2
	@DEBUG_VALUE: HostSwap32:v <- $r2
	.loc	39 59 61                        @ ../../../components/network/thread/subg_openthread/src/core\common/encoding.hpp:59:61
	rev	r2, r2
.Ltmp218:
	@DEBUG_VALUE: Reverse32:v <- $r2
	.loc	39 76 27                        @ ../../../components/network/thread/subg_openthread/src/core\common/encoding.hpp:76:27
	and.w	r6, r12, r2, lsl #1
.Ltmp219:
	.loc	39 76 53 is_stmt 0              @ ../../../components/network/thread/subg_openthread/src/core\common/encoding.hpp:76:53
	and.w	r2, lr, r2, lsr #1
.Ltmp220:
	.loc	39 76 33                        @ ../../../components/network/thread/subg_openthread/src/core\common/encoding.hpp:76:33
	add	r2, r6
.Ltmp221:
	@DEBUG_VALUE: Reverse32:v <- $r2
	.loc	39 77 27 is_stmt 1              @ ../../../components/network/thread/subg_openthread/src/core\common/encoding.hpp:77:27
	and.w	r6, r8, r2, lsl #2
	.loc	39 77 53 is_stmt 0              @ ../../../components/network/thread/subg_openthread/src/core\common/encoding.hpp:77:53
	and.w	r2, r9, r2, lsr #2
.Ltmp222:
	.loc	39 77 33                        @ ../../../components/network/thread/subg_openthread/src/core\common/encoding.hpp:77:33
	add	r2, r6
.Ltmp223:
	@DEBUG_VALUE: Reverse32:v <- undef
	.loc	39 80 34 is_stmt 1              @ ../../../components/network/thread/subg_openthread/src/core\common/encoding.hpp:80:34
	and.w	r6, r10, r2, lsr #20
	and.w	r3, r5, r2, lsr #12
.Ltmp224:
	.loc	46 330 75                       @ ../../../components/network/thread/subg_openthread/src/core/meshcop/meshcop_tlvs.cpp:330:75
	and.w	r2, r7, r2, lsr #28
	orrs	r0, r6
.Ltmp225:
	orrs	r0, r2
	.loc	46 330 18 is_stmt 0             @ ../../../components/network/thread/subg_openthread/src/core/meshcop/meshcop_tlvs.cpp:330:18
	orrs	r0, r3
.Ltmp226:
	@DEBUG_VALUE: GetChannelMask:mask <- $r0
.LBB16_10:                              @   in Loop: Header=BB16_7 Depth=1
	@DEBUG_VALUE: GetChannelMask:end <- $r1
	@DEBUG_VALUE: GetChannelMask:mask <- $r0
	@DEBUG_VALUE: GetChannelMask:cur <- $r4
	@DEBUG_VALUE: GetChannelMask:mask <- $r0
	.loc	46 319 5 is_stmt 1              @ ../../../components/network/thread/subg_openthread/src/core/meshcop/meshcop_tlvs.cpp:319:5
	cmp	r4, r1
	.loc	46 354 1                        @ ../../../components/network/thread/subg_openthread/src/core/meshcop/meshcop_tlvs.cpp:354:1
	it	hs
	pophs.w	{r4, r5, r6, r7, r8, r9, r10, pc}
.Ltmp227:
.LBB16_11:                              @   in Loop: Header=BB16_7 Depth=1
	@DEBUG_VALUE: GetChannelMask:end <- $r1
	@DEBUG_VALUE: GetChannelMask:mask <- $r0
	@DEBUG_VALUE: GetChannelMask:cur <- $r4
	.loc	46 0 1 is_stmt 0                @ ../../../components/network/thread/subg_openthread/src/core/meshcop/meshcop_tlvs.cpp:0:1
	adds	r2, r4, #2
	.loc	46 319 5 is_stmt 1              @ ../../../components/network/thread/subg_openthread/src/core/meshcop/meshcop_tlvs.cpp:319:5
	cmp	r2, r1
	mov	r6, r4
.Ltmp228:
	@DEBUG_VALUE: GetChannelMask:cur <- $r6
	@DEBUG_VALUE: GetChannelMask:cur <- $r6
	bls	.LBB16_7
.Ltmp229:
.LBB16_12:
	@DEBUG_VALUE: GetChannelMask:cur <- $r6
	@DEBUG_VALUE: GetChannelMask:end <- $r1
	.loc	46 354 1                        @ ../../../components/network/thread/subg_openthread/src/core/meshcop/meshcop_tlvs.cpp:354:1
	pop.w	{r4, r5, r6, r7, r8, r9, r10, pc}
.Ltmp230:
.LBB16_13:
	@DEBUG_VALUE: GetChannelMask:cur <- $r6
	@DEBUG_VALUE: GetChannelMask:this <- $r5
	@DEBUG_VALUE: GetChannelMask:mask <- 0
	.loc	46 0 1 is_stmt 0                @ ../../../components/network/thread/subg_openthread/src/core/meshcop/meshcop_tlvs.cpp:0:1
	movs	r0, #0
	.loc	46 354 1                        @ ../../../components/network/thread/subg_openthread/src/core/meshcop/meshcop_tlvs.cpp:354:1
	pop.w	{r4, r5, r6, r7, r8, r9, r10, pc}
.Ltmp231:
.Lfunc_end16:
	.size	_ZNK2ot7MeshCoP14ChannelMaskTlv14GetChannelMaskEv, .Lfunc_end16-_ZNK2ot7MeshCoP14ChannelMaskTlv14GetChannelMaskEv
	.cfi_endproc
	.cantunwind
	.fnend
                                        @ -- End function
	.section	.text._ZN2ot7MeshCoP14ChannelMaskTlv14GetChannelMaskERKNS_7MessageE,"ax",%progbits
	.hidden	_ZN2ot7MeshCoP14ChannelMaskTlv14GetChannelMaskERKNS_7MessageE @ -- Begin function _ZN2ot7MeshCoP14ChannelMaskTlv14GetChannelMaskERKNS_7MessageE
	.globl	_ZN2ot7MeshCoP14ChannelMaskTlv14GetChannelMaskERKNS_7MessageE
	.p2align	1
	.type	_ZN2ot7MeshCoP14ChannelMaskTlv14GetChannelMaskERKNS_7MessageE,%function
	.code	16                              @ @_ZN2ot7MeshCoP14ChannelMaskTlv14GetChannelMaskERKNS_7MessageE
	.thumb_func
_ZN2ot7MeshCoP14ChannelMaskTlv14GetChannelMaskERKNS_7MessageE:
.Lfunc_begin17:
	.loc	46 357 0 is_stmt 1              @ ../../../components/network/thread/subg_openthread/src/core/meshcop/meshcop_tlvs.cpp:357:0
	.fnstart
	.cfi_startproc
@ %bb.0:
	@DEBUG_VALUE: GetChannelMask:aMessage <- $r0
	.save	{r4, r5, r6, r7, r8, r9, r10, r11, lr}
	push.w	{r4, r5, r6, r7, r8, r9, r10, r11, lr}
	.cfi_def_cfa_offset 36
	.cfi_offset lr, -4
	.cfi_offset r11, -8
	.cfi_offset r10, -12
	.cfi_offset r9, -16
	.cfi_offset r8, -20
	.cfi_offset r7, -24
	.cfi_offset r6, -28
	.cfi_offset r5, -32
	.cfi_offset r4, -36
	.pad	#12
	sub	sp, #12
	.cfi_def_cfa_offset 48
	add.w	r2, sp, #10
	add	r3, sp, #8
.Ltmp232:
	.loc	46 362 5 prologue_end           @ ../../../components/network/thread/subg_openthread/src/core/meshcop/meshcop_tlvs.cpp:362:5
	movs	r1, #53
	mov	r4, r0
.Ltmp233:
	@DEBUG_VALUE: GetChannelMask:end <- [DW_OP_plus_uconst 8, DW_OP_deref] $sp
	@DEBUG_VALUE: GetChannelMask:offset <- [DW_OP_plus_uconst 10, DW_OP_deref] $sp
	@DEBUG_VALUE: GetChannelMask:mask <- 0
	@DEBUG_VALUE: GetChannelMask:aMessage <- $r4
	bl	_ZN2ot3Tlv18FindTlvValueOffsetERKNS_7MessageEhRtS4_
.Ltmp234:
	.loc	46 362 5 is_stmt 0              @ ../../../components/network/thread/subg_openthread/src/core/meshcop/meshcop_tlvs.cpp:362:5
	cbnz	r0, .LBB17_2
.Ltmp235:
@ %bb.1:
	@DEBUG_VALUE: GetChannelMask:aMessage <- $r4
	@DEBUG_VALUE: GetChannelMask:offset <- [DW_OP_plus_uconst 10, DW_OP_deref] $sp
	@DEBUG_VALUE: GetChannelMask:end <- [DW_OP_plus_uconst 8, DW_OP_deref] $sp
	@DEBUG_VALUE: GetChannelMask:mask <- 0
	.loc	46 363 12 is_stmt 1             @ ../../../components/network/thread/subg_openthread/src/core/meshcop/meshcop_tlvs.cpp:363:12
	ldrh.w	r0, [sp, #10]
.Ltmp236:
	@DEBUG_VALUE: GetChannelMask:offset <- $r0
	.loc	46 363 9 is_stmt 0              @ ../../../components/network/thread/subg_openthread/src/core/meshcop/meshcop_tlvs.cpp:363:9
	ldrh.w	r1, [sp, #8]
.Ltmp237:
	@DEBUG_VALUE: GetChannelMask:end <- $r1
	.loc	46 365 19 is_stmt 1             @ ../../../components/network/thread/subg_openthread/src/core/meshcop/meshcop_tlvs.cpp:365:19
	adds	r2, r0, #2
	.loc	46 363 9                        @ ../../../components/network/thread/subg_openthread/src/core/meshcop/meshcop_tlvs.cpp:363:9
	add	r1, r0
.Ltmp238:
	@DEBUG_VALUE: GetChannelMask:end <- $r1
	.loc	46 365 53                       @ ../../../components/network/thread/subg_openthread/src/core/meshcop/meshcop_tlvs.cpp:365:53
	uxth	r3, r1
	.loc	46 365 5 is_stmt 0              @ ../../../components/network/thread/subg_openthread/src/core/meshcop/meshcop_tlvs.cpp:365:5
	cmp	r2, r3
	.loc	46 363 9 is_stmt 1              @ ../../../components/network/thread/subg_openthread/src/core/meshcop/meshcop_tlvs.cpp:363:9
	strh.w	r1, [sp, #8]
	@DEBUG_VALUE: GetChannelMask:mask <- 0
	.loc	46 365 5                        @ ../../../components/network/thread/subg_openthread/src/core/meshcop/meshcop_tlvs.cpp:365:5
	bls	.LBB17_4
.Ltmp239:
.LBB17_2:
	@DEBUG_VALUE: GetChannelMask:aMessage <- $r4
	@DEBUG_VALUE: GetChannelMask:mask <- 0
	.loc	46 0 5 is_stmt 0                @ ../../../components/network/thread/subg_openthread/src/core/meshcop/meshcop_tlvs.cpp:0:5
	movs	r5, #0
.Ltmp240:
.LBB17_3:
	@DEBUG_VALUE: GetChannelMask:aMessage <- $r4
	.loc	46 400 1 is_stmt 1              @ ../../../components/network/thread/subg_openthread/src/core/meshcop/meshcop_tlvs.cpp:400:1
	mov	r0, r5
	add	sp, #12
	pop.w	{r4, r5, r6, r7, r8, r9, r10, r11, pc}
.Ltmp241:
.LBB17_4:
	@DEBUG_VALUE: GetChannelMask:aMessage <- $r4
	@DEBUG_VALUE: GetChannelMask:end <- $r1
	@DEBUG_VALUE: GetChannelMask:offset <- $r0
	@DEBUG_VALUE: GetChannelMask:mask <- 0
	.loc	46 0 1 is_stmt 0                @ ../../../components/network/thread/subg_openthread/src/core/meshcop/meshcop_tlvs.cpp:0:1
	movs	r5, #0
	mov	r6, sp
	mov.w	r10, #-858993460
	mov.w	r11, #858993459
	movs	r7, #240
	mov.w	r8, #1792
	mov.w	r9, #14
.Ltmp242:
	.p2align	2
.LBB17_5:                               @ =>This Inner Loop Header: Depth=1
	@DEBUG_VALUE: GetChannelMask:aMessage <- $r4
	@DEBUG_VALUE: GetChannelMask:offset <- $r0
	@DEBUG_VALUE: GetChannelMask:mask <- $r5
	@DEBUG_VALUE: GetChannelMask:offset <- $r0
	@DEBUG_VALUE: Read<ot::MeshCoP::ChannelMaskEntry>:this <- $r4
	@DEBUG_VALUE: Read<ot::MeshCoP::ChannelMaskEntry>:aOffset <- $r0
	@DEBUG_VALUE: Read<ot::MeshCoP::ChannelMaskEntry>:aObject <- $sp
	.loc	2 769 16 is_stmt 1              @ ../../../components/network/thread/subg_openthread/src/core\common/message.hpp:769:16
	uxth	r1, r0
	mov	r0, r4
.Ltmp243:
	mov	r2, r6
	movs	r3, #6
	bl	_ZNK2ot7Message4ReadEtPvt
.Ltmp244:
	.loc	46 370 9                        @ ../../../components/network/thread/subg_openthread/src/core/meshcop/meshcop_tlvs.cpp:370:9
	ldrh.w	r1, [sp, #10]
.Ltmp245:
	@DEBUG_VALUE: GetEntrySize:this <- $sp
	@DEBUG_VALUE: GetChannelMask:offset <- undef
	.loc	21 1305 79                      @ ../../../components/network/thread/subg_openthread/src/core\meshcop/meshcop_tlvs.hpp:1305:79
	ldrb.w	r0, [sp, #1]
.Ltmp246:
	.loc	46 370 9                        @ ../../../components/network/thread/subg_openthread/src/core/meshcop/meshcop_tlvs.cpp:370:9
	ldrh.w	r2, [sp, #8]
.Ltmp247:
	@DEBUG_VALUE: GetChannelMask:end <- undef
	.loc	21 1305 77                      @ ../../../components/network/thread/subg_openthread/src/core\meshcop/meshcop_tlvs.hpp:1305:77
	adds	r3, r1, r0
.Ltmp248:
	.loc	46 370 9                        @ ../../../components/network/thread/subg_openthread/src/core/meshcop/meshcop_tlvs.cpp:370:9
	adds	r3, #2
.Ltmp249:
	.loc	46 370 9 is_stmt 0              @ ../../../components/network/thread/subg_openthread/src/core/meshcop/meshcop_tlvs.cpp:370:9
	cmp	r3, r2
	bhi	.LBB17_3
.Ltmp250:
@ %bb.6:                                @   in Loop: Header=BB17_5 Depth=1
	@DEBUG_VALUE: GetChannelMask:mask <- $r5
	@DEBUG_VALUE: GetChannelMask:aMessage <- $r4
	@DEBUG_VALUE: GetEntrySize:this <- $sp
	@DEBUG_VALUE: GetChannelPage:this <- $sp
	.loc	21 1273 49 is_stmt 1            @ ../../../components/network/thread/subg_openthread/src/core\meshcop/meshcop_tlvs.hpp:1273:49
	ldrb.w	r3, [sp]
.Ltmp251:
	.loc	46 372 9                        @ ../../../components/network/thread/subg_openthread/src/core/meshcop/meshcop_tlvs.cpp:372:9
	cmp	r3, #2
	bne	.LBB17_8
.Ltmp252:
@ %bb.7:                                @   in Loop: Header=BB17_5 Depth=1
	@DEBUG_VALUE: GetChannelMask:mask <- $r5
	@DEBUG_VALUE: GetChannelMask:aMessage <- $r4
	@DEBUG_VALUE: GetChannelMask:offset <- $r1
	@DEBUG_VALUE: Read<ot::MeshCoP::ChannelMaskEntry>:this <- $r4
	@DEBUG_VALUE: Read<ot::MeshCoP::ChannelMaskEntry>:aOffset <- $r1
	@DEBUG_VALUE: Read<ot::MeshCoP::ChannelMaskEntry>:aObject <- $sp
	.loc	2 769 16                        @ ../../../components/network/thread/subg_openthread/src/core\common/message.hpp:769:16
	mov	r0, r4
	mov	r2, r6
	movs	r3, #6
	bl	_ZNK2ot7Message4ReadEtPvt
.Ltmp253:
	@DEBUG_VALUE: GetMask:this <- $sp
	.loc	21 1400 74                      @ ../../../components/network/thread/subg_openthread/src/core\meshcop/meshcop_tlvs.hpp:1400:74
	ldr.w	r0, [sp, #2]
.Ltmp254:
	@DEBUG_VALUE: Swap32:v <- $r0
	@DEBUG_VALUE: HostSwap32:v <- $r0
	.loc	39 76 27                        @ ../../../components/network/thread/subg_openthread/src/core\common/encoding.hpp:76:27
	mov.w	r1, #-1431655766
.Ltmp255:
	@DEBUG_VALUE: Reverse32:v <- $r0
	.loc	39 59 61                        @ ../../../components/network/thread/subg_openthread/src/core\common/encoding.hpp:59:61
	rev	r0, r0
.Ltmp256:
	.loc	39 76 53                        @ ../../../components/network/thread/subg_openthread/src/core\common/encoding.hpp:76:53
	mov.w	r2, #1431655765
	.loc	39 76 27 is_stmt 0              @ ../../../components/network/thread/subg_openthread/src/core\common/encoding.hpp:76:27
	and.w	r1, r1, r0, lsl #1
	.loc	39 76 53                        @ ../../../components/network/thread/subg_openthread/src/core\common/encoding.hpp:76:53
	and.w	r0, r2, r0, lsr #1
	.loc	39 76 33                        @ ../../../components/network/thread/subg_openthread/src/core\common/encoding.hpp:76:33
	add	r0, r1
.Ltmp257:
	@DEBUG_VALUE: Reverse32:v <- $r0
	.loc	39 77 27 is_stmt 1              @ ../../../components/network/thread/subg_openthread/src/core\common/encoding.hpp:77:27
	and.w	r1, r10, r0, lsl #2
	.loc	39 77 53 is_stmt 0              @ ../../../components/network/thread/subg_openthread/src/core\common/encoding.hpp:77:53
	and.w	r0, r11, r0, lsr #2
.Ltmp258:
	.loc	39 77 33                        @ ../../../components/network/thread/subg_openthread/src/core\common/encoding.hpp:77:33
	add	r0, r1
.Ltmp259:
	@DEBUG_VALUE: Reverse32:v <- undef
	.loc	39 80 34 is_stmt 1              @ ../../../components/network/thread/subg_openthread/src/core\common/encoding.hpp:80:34
	and.w	r1, r7, r0, lsr #20
	and.w	r3, r8, r0, lsr #12
.Ltmp260:
	@DEBUG_VALUE: Reverse32:v <- undef
	.loc	46 384 37                       @ ../../../components/network/thread/subg_openthread/src/core/meshcop/meshcop_tlvs.cpp:384:37
	and.w	r0, r9, r0, lsr #28
	orrs	r1, r5
	orr.w	r5, r1, r0
.Ltmp261:
	.loc	21 1305 79                      @ ../../../components/network/thread/subg_openthread/src/core\meshcop/meshcop_tlvs.hpp:1305:79
	ldrb.w	r0, [sp, #1]
.Ltmp262:
	.loc	46 395 16                       @ ../../../components/network/thread/subg_openthread/src/core/meshcop/meshcop_tlvs.cpp:395:16
	ldrh.w	r1, [sp, #10]
.Ltmp263:
	.loc	46 365 53                       @ ../../../components/network/thread/subg_openthread/src/core/meshcop/meshcop_tlvs.cpp:365:53
	ldrh.w	r2, [sp, #8]
.Ltmp264:
	.loc	46 384 18                       @ ../../../components/network/thread/subg_openthread/src/core/meshcop/meshcop_tlvs.cpp:384:18
	orrs	r5, r3
.Ltmp265:
	@DEBUG_VALUE: GetChannelMask:mask <- $r5
.LBB17_8:                               @   in Loop: Header=BB17_5 Depth=1
	@DEBUG_VALUE: GetChannelMask:mask <- $r5
	@DEBUG_VALUE: GetChannelMask:aMessage <- $r4
	@DEBUG_VALUE: GetChannelMask:mask <- $r5
	@DEBUG_VALUE: GetEntrySize:this <- $sp
	.loc	21 1305 77                      @ ../../../components/network/thread/subg_openthread/src/core\meshcop/meshcop_tlvs.hpp:1305:77
	add	r0, r1
.Ltmp266:
	@DEBUG_VALUE: GetChannelMask:offset <- undef
	.loc	46 395 16                       @ ../../../components/network/thread/subg_openthread/src/core/meshcop/meshcop_tlvs.cpp:395:16
	adds	r0, #2
.Ltmp267:
	@DEBUG_VALUE: GetChannelMask:offset <- $r0
	.loc	46 365 12                       @ ../../../components/network/thread/subg_openthread/src/core/meshcop/meshcop_tlvs.cpp:365:12
	uxth	r1, r0
	.loc	46 365 19 is_stmt 0             @ ../../../components/network/thread/subg_openthread/src/core/meshcop/meshcop_tlvs.cpp:365:19
	adds	r1, #2
.Ltmp268:
	@DEBUG_VALUE: GetChannelMask:end <- undef
	.loc	46 365 5                        @ ../../../components/network/thread/subg_openthread/src/core/meshcop/meshcop_tlvs.cpp:365:5
	cmp	r1, r2
.Ltmp269:
	.loc	46 395 16 is_stmt 1             @ ../../../components/network/thread/subg_openthread/src/core/meshcop/meshcop_tlvs.cpp:395:16
	strh.w	r0, [sp, #10]
.Ltmp270:
	.loc	46 365 5                        @ ../../../components/network/thread/subg_openthread/src/core/meshcop/meshcop_tlvs.cpp:365:5
	bls	.LBB17_5
	b	.LBB17_3
.Ltmp271:
.Lfunc_end17:
	.size	_ZN2ot7MeshCoP14ChannelMaskTlv14GetChannelMaskERKNS_7MessageE, .Lfunc_end17-_ZN2ot7MeshCoP14ChannelMaskTlv14GetChannelMaskERKNS_7MessageE
	.cfi_endproc
	.cantunwind
	.fnend
                                        @ -- End function
	.type	.L.str,%object                  @ @.str
	.section	.rodata.str1.1,"aMS",%progbits,1
.L.str:
	.asciz	"../../../components/network/thread/subg_openthread/src/core/meshcop/meshcop_tlvs.cpp"
	.size	.L.str, 85
