	.text
	.syntax unified
	.eabi_attribute	67, "2.09"	@ Tag_conformance
	.cpu	cortex-m3
	.eabi_attribute	6, 10	@ Tag_CPU_arch
	.eabi_attribute	7, 77	@ Tag_CPU_arch_profile
	.eabi_attribute	8, 0	@ Tag_ARM_ISA_use
	.eabi_attribute	9, 2	@ Tag_THUMB_ISA_use
	.eabi_attribute	34, 1	@ Tag_CPU_unaligned_access
	.eabi_attribute	17, 1	@ Tag_ABI_PCS_GOT_use
	.eabi_attribute	20, 2	@ Tag_ABI_FP_denormal
	.eabi_attribute	21, 0	@ Tag_ABI_FP_exceptions
	.eabi_attribute	23, 1	@ Tag_ABI_FP_number_model
	.eabi_attribute	24, 1	@ Tag_ABI_align_needed
	.eabi_attribute	25, 1	@ Tag_ABI_align_preserved
	.eabi_attribute	38, 1	@ Tag_ABI_FP_16bit_format
	.eabi_attribute	18, 4	@ Tag_ABI_PCS_wchar_t
	.eabi_attribute	26, 2	@ Tag_ABI_enum_size
	.eabi_attribute	14, 0	@ Tag_ABI_PCS_R9_use
	.file	"mle_tlvs.cpp"
	.file	1 "C:\\" "Keil_v5\\ARM\\ARMCLANG\\Bin\\..\\include\\stdint.h"
	.file	2 "C:\\Users\\testo\\Desktop\\rafael-iot-sdk-das -0515\\examples\\das_subg_thread\\keil" "../../../components/network/thread/subg_openthread/src/core\\thread/mle_types.hpp"
	.file	3 "C:\\Users\\testo\\Desktop\\rafael-iot-sdk-das -0515\\examples\\das_subg_thread\\keil" "../../../components/network/thread/subg_openthread/include\\openthread/error.h"
	.file	4 "C:\\Users\\testo\\Desktop\\rafael-iot-sdk-das -0515\\examples\\das_subg_thread\\keil" "../../../components/network/thread/subg_openthread/src/core\\common/message.hpp"
	.file	5 "C:\\Users\\testo\\Desktop\\rafael-iot-sdk-das -0515\\examples\\das_subg_thread\\keil" "../../../components/network/thread/subg_openthread/include\\openthread/message.h"
	.file	6 "C:\\Users\\testo\\Desktop\\rafael-iot-sdk-das -0515\\examples\\das_subg_thread\\keil" "../../../components/network/thread/subg_openthread/include\\openthread/platform/messagepool.h"
	.file	7 "C:\\Users\\testo\\Desktop\\rafael-iot-sdk-das -0515\\examples\\das_subg_thread\\keil" "../../../components/network/thread/subg_openthread/src/core\\common/linked_list.hpp"
	.file	8 "C:\\Users\\testo\\Desktop\\rafael-iot-sdk-das -0515\\examples\\das_subg_thread\\keil" "../../../components/network/thread/subg_openthread/src/core\\common/locator.hpp"
	.file	9 "C:\\Users\\testo\\Desktop\\rafael-iot-sdk-das -0515\\examples\\das_subg_thread\\keil" "../../../components/network/thread/subg_openthread/src/core\\common/non_copyable.hpp"
	.file	10 "C:\\Users\\testo\\Desktop\\rafael-iot-sdk-das -0515\\examples\\das_subg_thread\\keil" "../../../components/network/thread/subg_openthread/src/core\\common/error.hpp"
	.file	11 "C:\\Users\\testo\\Desktop\\rafael-iot-sdk-das -0515\\examples\\das_subg_thread\\keil" "../../../components/network/thread/subg_openthread/src/core\\common/pool.hpp"
	.file	12 "C:\\Users\\testo\\Desktop\\rafael-iot-sdk-das -0515\\examples\\das_subg_thread\\keil" "../../../components/network/thread/subg_openthread/src/core\\common/equatable.hpp"
	.file	13 "C:\\Users\\testo\\Desktop\\rafael-iot-sdk-das -0515\\examples\\das_subg_thread\\keil" "../../../components/network/thread/subg_openthread/src/core\\common/time.hpp"
	.file	14 "C:\\Users\\testo\\Desktop\\rafael-iot-sdk-das -0515\\examples\\das_subg_thread\\keil" "../../../components/network/thread/subg_openthread/src/core\\common/clearable.hpp"
	.file	15 "C:\\Users\\testo\\Desktop\\rafael-iot-sdk-das -0515\\examples\\das_subg_thread\\keil" "../../../components/network/thread/subg_openthread/src/core\\thread/link_quality.hpp"
	.file	16 "C:\\Users\\testo\\Desktop\\rafael-iot-sdk-das -0515\\examples\\das_subg_thread\\keil" "../../../components/network/thread/subg_openthread/src/core\\common/bit_vector.hpp"
	.file	17 "C:\\Users\\testo\\Desktop\\rafael-iot-sdk-das -0515\\examples\\das_subg_thread\\keil" "../../../components/network/thread/subg_openthread/src/core\\thread/child_mask.hpp"
	.file	18 "C:\\Users\\testo\\Desktop\\rafael-iot-sdk-das -0515\\examples\\das_subg_thread\\keil" "../../../components/network/thread/subg_openthread/src/core\\common/data.hpp"
	.file	19 "C:\\Users\\testo\\Desktop\\rafael-iot-sdk-das -0515\\examples\\das_subg_thread\\keil" "../../../components/network/thread/subg_openthread/src/core\\common/iterator_utils.hpp"
	.file	20 "C:\\Users\\testo\\Desktop\\rafael-iot-sdk-das -0515\\examples\\das_subg_thread\\keil" "../../../components/network/thread/subg_openthread/src/core\\common/type_traits.hpp"
	.file	21 "C:\\Users\\testo\\Desktop\\rafael-iot-sdk-das -0515\\examples\\das_subg_thread\\keil" "../../../components/network/thread/subg_openthread/src/core\\common/tlvs.hpp"
	.file	22 "C:\\Users\\testo\\Desktop\\rafael-iot-sdk-das -0515\\examples\\das_subg_thread\\keil" "../../../components/network/thread/subg_openthread/src/core/thread/mle_tlvs.hpp"
	.file	23 "C:\\" "Keil_v5\\ARM\\ARMCLANG\\Bin\\..\\include\\stdlib.h"
	.file	24 "C:\\" "Keil_v5\\ARM\\ARMCLANG\\Bin\\..\\include\\stdarg.h"
	.file	25 "C:\\" "Keil_v5\\ARM\\ARMCLANG\\Bin\\..\\include\\ctype.h"
	.file	26 "C:\\" "Keil_v5\\ARM\\ARMCLANG\\Bin\\..\\include\\stdio.h"
	.file	27 "C:\\" "Keil_v5\\ARM\\ARMCLANG\\Bin\\..\\include\\string.h"
	.file	28 "C:\\" "Keil_v5\\ARM\\ARMCLANG\\Bin\\..\\include\\stddef.h"
	.file	29 "C:\\" "Keil_v5\\ARM\\ARMCLANG\\Bin\\..\\include\\libcxx\\__nullptr"
	.file	30 "C:\\" "Keil_v5\\ARM\\ARMCLANG\\Bin\\..\\include\\libcxx\\stddef.h"
	.file	31 "C:\\Users\\testo\\Desktop\\rafael-iot-sdk-das -0515\\examples\\das_subg_thread\\keil" "../../../components/network/thread/subg_openthread/src/core\\common/encoding.hpp"
	.file	32 "C:\\Users\\testo\\Desktop\\rafael-iot-sdk-das -0515\\examples\\das_subg_thread\\keil" "../../../components/network/thread/subg_openthread/src/core\\net/ip6_address.hpp"
	.file	33 "C:\\Users\\testo\\Desktop\\rafael-iot-sdk-das -0515\\examples\\das_subg_thread\\keil" "../../../components/network/thread/subg_openthread/src/core\\meshcop/timestamp.hpp"
	.section	.text._ZN2ot3Mle8RouteTlv4InitEv,"ax",%progbits
	.hidden	_ZN2ot3Mle8RouteTlv4InitEv      @ -- Begin function _ZN2ot3Mle8RouteTlv4InitEv
	.globl	_ZN2ot3Mle8RouteTlv4InitEv
	.p2align	1
	.type	_ZN2ot3Mle8RouteTlv4InitEv,%function
	.code	16                              @ @_ZN2ot3Mle8RouteTlv4InitEv
	.thumb_func
_ZN2ot3Mle8RouteTlv4InitEv:
.Lfunc_begin0:
	.file	34 "C:\\Users\\testo\\Desktop\\rafael-iot-sdk-das -0515\\examples\\das_subg_thread\\keil" "../../../components/network/thread/subg_openthread/src/core/thread/mle_tlvs.cpp"
	.loc	34 44 0                         @ ../../../components/network/thread/subg_openthread/src/core/thread/mle_tlvs.cpp:44:0
	.fnstart
	.cfi_sections .debug_frame
	.cfi_startproc
@ %bb.0:
	@DEBUG_VALUE: Init:this <- $r0
	@DEBUG_VALUE: SetType:this <- $r0
	@DEBUG_VALUE: SetType:this <- $r0
	.save	{r7, lr}
	push	{r7, lr}
	.cfi_def_cfa_offset 8
	.cfi_offset lr, -4
	.cfi_offset r7, -8
	movw	r1, #18441
.Ltmp0:
	@DEBUG_VALUE: SetType:aType <- 9
	@DEBUG_VALUE: SetType:aType <- 9
	@DEBUG_VALUE: SetType:this <- $r0
	@DEBUG_VALUE: SetType:this <- $r0
	@DEBUG_VALUE: Init:this <- $r0
	.loc	21 80 41 prologue_end           @ ../../../components/network/thread/subg_openthread/src/core\common/tlvs.hpp:80:41
	strh	r1, [r0], #3
.Ltmp1:
	@DEBUG_VALUE: Init:this <- [DW_OP_LLVM_entry_value 1] $r0
	@DEBUG_VALUE: SetLength:aLength <- 72
	@DEBUG_VALUE: SetLength:this <- undef
	.loc	34 48 5                         @ ../../../components/network/thread/subg_openthread/src/core/thread/mle_tlvs.cpp:48:5
	movs	r1, #71
	bl	__aeabi_memclr
.Ltmp2:
	.loc	34 49 1                         @ ../../../components/network/thread/subg_openthread/src/core/thread/mle_tlvs.cpp:49:1
	pop	{r7, pc}
.Ltmp3:
.Lfunc_end0:
	.size	_ZN2ot3Mle8RouteTlv4InitEv, .Lfunc_end0-_ZN2ot3Mle8RouteTlv4InitEv
	.cfi_endproc
	.cantunwind
	.fnend
                                        @ -- End function
	.section	.text._ZNK2ot3Mle8RouteTlv7IsValidEv,"ax",%progbits
	.hidden	_ZNK2ot3Mle8RouteTlv7IsValidEv  @ -- Begin function _ZNK2ot3Mle8RouteTlv7IsValidEv
	.globl	_ZNK2ot3Mle8RouteTlv7IsValidEv
	.p2align	1
	.type	_ZNK2ot3Mle8RouteTlv7IsValidEv,%function
	.code	16                              @ @_ZNK2ot3Mle8RouteTlv7IsValidEv
	.thumb_func
_ZNK2ot3Mle8RouteTlv7IsValidEv:
.Lfunc_begin1:
	.loc	34 52 0                         @ ../../../components/network/thread/subg_openthread/src/core/thread/mle_tlvs.cpp:52:0
	.fnstart
	.cfi_startproc
@ %bb.0:
	@DEBUG_VALUE: IsValid:this <- $r0
	@DEBUG_VALUE: GetLength:this <- $r0
	.save	{r4, lr}
	push	{r4, lr}
	.cfi_def_cfa_offset 8
	.cfi_offset lr, -4
	.cfi_offset r4, -8
	mov	r4, r0
.Ltmp4:
	@DEBUG_VALUE: IsValid:isValid <- 0
	@DEBUG_VALUE: GetLength:this <- $r4
	@DEBUG_VALUE: IsValid:this <- $r4
	.loc	21 101 44 prologue_end          @ ../../../components/network/thread/subg_openthread/src/core\common/tlvs.hpp:101:44
	ldrb	r0, [r0, #1]
.Ltmp5:
	.loc	34 56 5                         @ ../../../components/network/thread/subg_openthread/src/core/thread/mle_tlvs.cpp:56:5
	cmp	r0, #9
	itt	lo
	movlo	r0, #0
.Ltmp6:
	@DEBUG_VALUE: IsValid:isValid <- undef
	@DEBUG_LABEL: IsValid:exit
	.loc	34 64 5                         @ ../../../components/network/thread/subg_openthread/src/core/thread/mle_tlvs.cpp:64:5
	poplo	{r4, pc}
.Ltmp7:
.LBB1_1:
	.loc	34 58 23                        @ ../../../components/network/thread/subg_openthread/src/core/thread/mle_tlvs.cpp:58:23
	adds	r0, r4, #3
	.loc	34 58 37 is_stmt 0              @ ../../../components/network/thread/subg_openthread/src/core/thread/mle_tlvs.cpp:58:37
	bl	_ZNK2ot3Mle11RouterIdSet23GetNumberOfAllocatedIdsEv
.Ltmp8:
	mov	r1, r0
.Ltmp9:
	@DEBUG_VALUE: IsValid:numAllocatedIds <- $r1
	.loc	34 59 5 is_stmt 1               @ ../../../components/network/thread/subg_openthread/src/core/thread/mle_tlvs.cpp:59:5
	cmp	r0, #32
	mov.w	r0, #0
.Ltmp10:
	@DEBUG_VALUE: IsValid:isValid <- undef
	@DEBUG_LABEL: IsValid:exit
	.loc	34 64 5                         @ ../../../components/network/thread/subg_openthread/src/core/thread/mle_tlvs.cpp:64:5
	it	hi
	pophi	{r4, pc}
.Ltmp11:
.LBB1_2:
	@DEBUG_VALUE: IsValid:numAllocatedIds <- $r1
	@DEBUG_VALUE: GetRouteDataLength:this <- $r4
	@DEBUG_VALUE: GetLength:this <- $r4
	.loc	21 101 44                       @ ../../../components/network/thread/subg_openthread/src/core\common/tlvs.hpp:101:44
	ldrb	r2, [r4, #1]
.Ltmp12:
	.loc	22 334 93                       @ ../../../components/network/thread/subg_openthread/src/core/thread/mle_tlvs.hpp:334:93
	subs	r2, #9
	uxtb	r2, r2
.Ltmp13:
	.loc	34 61 37                        @ ../../../components/network/thread/subg_openthread/src/core/thread/mle_tlvs.cpp:61:37
	cmp	r2, r1
	it	hs
	movhs	r0, #1
.Ltmp14:
	@DEBUG_VALUE: IsValid:isValid <- [DW_OP_LLVM_convert 1 7, DW_OP_LLVM_convert 8 7, DW_OP_stack_value] $r0
	@DEBUG_VALUE: IsValid:isValid <- undef
	@DEBUG_LABEL: IsValid:exit
	.loc	34 64 5                         @ ../../../components/network/thread/subg_openthread/src/core/thread/mle_tlvs.cpp:64:5
	pop	{r4, pc}
.Ltmp15:
.Lfunc_end1:
	.size	_ZNK2ot3Mle8RouteTlv7IsValidEv, .Lfunc_end1-_ZNK2ot3Mle8RouteTlv7IsValidEv
	.cfi_endproc
	.cantunwind
	.fnend
                                        @ -- End function
	.section	.text._ZN2ot3Mle15ConnectivityTlv20IncrementLinkQualityENS_11LinkQualityE,"ax",%progbits
	.hidden	_ZN2ot3Mle15ConnectivityTlv20IncrementLinkQualityENS_11LinkQualityE @ -- Begin function _ZN2ot3Mle15ConnectivityTlv20IncrementLinkQualityENS_11LinkQualityE
	.globl	_ZN2ot3Mle15ConnectivityTlv20IncrementLinkQualityENS_11LinkQualityE
	.p2align	1
	.type	_ZN2ot3Mle15ConnectivityTlv20IncrementLinkQualityENS_11LinkQualityE,%function
	.code	16                              @ @_ZN2ot3Mle15ConnectivityTlv20IncrementLinkQualityENS_11LinkQualityE
	.thumb_func
_ZN2ot3Mle15ConnectivityTlv20IncrementLinkQualityENS_11LinkQualityE:
.Lfunc_begin2:
	.loc	34 70 0                         @ ../../../components/network/thread/subg_openthread/src/core/thread/mle_tlvs.cpp:70:0
	.fnstart
	.cfi_startproc
@ %bb.0:
	@DEBUG_VALUE: IncrementLinkQuality:this <- $r0
	@DEBUG_VALUE: IncrementLinkQuality:aLinkQuality <- $r1
	@DEBUG_VALUE: IncrementLinkQuality:aLinkQuality <- $r1
	.loc	34 71 5 prologue_end            @ ../../../components/network/thread/subg_openthread/src/core/thread/mle_tlvs.cpp:71:5
	cmp	r1, #3
	@DEBUG_VALUE: IncrementLinkQuality:this <- $r0
	beq	.LBB2_4
.Ltmp16:
@ %bb.1:
	@DEBUG_VALUE: IncrementLinkQuality:aLinkQuality <- $r1
	@DEBUG_VALUE: IncrementLinkQuality:this <- $r0
	cmp	r1, #2
	beq	.LBB2_5
.Ltmp17:
@ %bb.2:
	@DEBUG_VALUE: IncrementLinkQuality:aLinkQuality <- $r1
	@DEBUG_VALUE: IncrementLinkQuality:this <- $r0
	cmp	r1, #1
	.loc	34 85 1                         @ ../../../components/network/thread/subg_openthread/src/core/thread/mle_tlvs.cpp:85:1
	it	ne
	bxne	lr
.Ltmp18:
.LBB2_3:
	@DEBUG_VALUE: IncrementLinkQuality:aLinkQuality <- $r1
	@DEBUG_VALUE: IncrementLinkQuality:this <- $r0
	.loc	34 76 9                         @ ../../../components/network/thread/subg_openthread/src/core/thread/mle_tlvs.cpp:76:9
	adds	r0, #5
.Ltmp19:
	@DEBUG_VALUE: IncrementLinkQuality:this <- [DW_OP_LLVM_entry_value 1] $r0
	.loc	34 0 9 is_stmt 0                @ ../../../components/network/thread/subg_openthread/src/core/thread/mle_tlvs.cpp:0:9
	b	.LBB2_6
.Ltmp20:
.LBB2_4:
	@DEBUG_VALUE: IncrementLinkQuality:aLinkQuality <- $r1
	@DEBUG_VALUE: IncrementLinkQuality:this <- $r0
	.loc	34 82 9 is_stmt 1               @ ../../../components/network/thread/subg_openthread/src/core/thread/mle_tlvs.cpp:82:9
	adds	r0, #3
.Ltmp21:
	@DEBUG_VALUE: IncrementLinkQuality:this <- [DW_OP_LLVM_entry_value 1] $r0
	.loc	34 0 9 is_stmt 0                @ ../../../components/network/thread/subg_openthread/src/core/thread/mle_tlvs.cpp:0:9
	b	.LBB2_6
.Ltmp22:
.LBB2_5:
	@DEBUG_VALUE: IncrementLinkQuality:aLinkQuality <- $r1
	@DEBUG_VALUE: IncrementLinkQuality:this <- $r0
	.loc	34 79 9 is_stmt 1               @ ../../../components/network/thread/subg_openthread/src/core/thread/mle_tlvs.cpp:79:9
	adds	r0, #4
.Ltmp23:
	@DEBUG_VALUE: IncrementLinkQuality:this <- [DW_OP_LLVM_entry_value 1] $r0
.LBB2_6:
	@DEBUG_VALUE: IncrementLinkQuality:aLinkQuality <- $r1
	@DEBUG_VALUE: IncrementLinkQuality:this <- [DW_OP_LLVM_entry_value 1] $r0
	.loc	34 0 0 is_stmt 0                @ ../../../components/network/thread/subg_openthread/src/core/thread/mle_tlvs.cpp:0:0
	ldrb	r1, [r0]
.Ltmp24:
	@DEBUG_VALUE: IncrementLinkQuality:aLinkQuality <- [DW_OP_LLVM_entry_value 1] $r1
	adds	r1, #1
	strb	r1, [r0]
.Ltmp25:
	.loc	34 85 1 is_stmt 1               @ ../../../components/network/thread/subg_openthread/src/core/thread/mle_tlvs.cpp:85:1
	bx	lr
.Ltmp26:
.Lfunc_end2:
	.size	_ZN2ot3Mle15ConnectivityTlv20IncrementLinkQualityENS_11LinkQualityE, .Lfunc_end2-_ZN2ot3Mle15ConnectivityTlv20IncrementLinkQualityENS_11LinkQualityE
	.cfi_endproc
	.cantunwind
	.fnend
                                        @ -- End function
	.section	.text._ZNK2ot3Mle15ConnectivityTlv17GetParentPriorityEv,"ax",%progbits
	.hidden	_ZNK2ot3Mle15ConnectivityTlv17GetParentPriorityEv @ -- Begin function _ZNK2ot3Mle15ConnectivityTlv17GetParentPriorityEv
	.globl	_ZNK2ot3Mle15ConnectivityTlv17GetParentPriorityEv
	.p2align	1
	.type	_ZNK2ot3Mle15ConnectivityTlv17GetParentPriorityEv,%function
	.code	16                              @ @_ZNK2ot3Mle15ConnectivityTlv17GetParentPriorityEv
	.thumb_func
_ZNK2ot3Mle15ConnectivityTlv17GetParentPriorityEv:
.Lfunc_begin3:
	.loc	34 88 0                         @ ../../../components/network/thread/subg_openthread/src/core/thread/mle_tlvs.cpp:88:0
	.fnstart
	.cfi_startproc
@ %bb.0:
	@DEBUG_VALUE: GetParentPriority:this <- $r0
	@DEBUG_VALUE: GetParentPriority:this <- $r0
	.loc	34 89 37 prologue_end           @ ../../../components/network/thread/subg_openthread/src/core/thread/mle_tlvs.cpp:89:37
	ldrb	r0, [r0, #2]
.Ltmp27:
	@DEBUG_VALUE: GetParentPriority:this <- [DW_OP_LLVM_entry_value 1] $r0
	.loc	34 89 44 is_stmt 0              @ ../../../components/network/thread/subg_openthread/src/core/thread/mle_tlvs.cpp:89:44
	lsrs	r0, r0, #6
.Ltmp28:
	.loc	34 89 12                        @ ../../../components/network/thread/subg_openthread/src/core/thread/mle_tlvs.cpp:89:12
	b	_ZN2ot10Preference12From2BitUintEh
.Ltmp29:
.Lfunc_end3:
	.size	_ZNK2ot3Mle15ConnectivityTlv17GetParentPriorityEv, .Lfunc_end3-_ZNK2ot3Mle15ConnectivityTlv17GetParentPriorityEv
	.cfi_endproc
	.cantunwind
	.fnend
                                        @ -- End function
	.section	.text._ZN2ot3Mle15ConnectivityTlv17SetParentPriorityEa,"ax",%progbits
	.hidden	_ZN2ot3Mle15ConnectivityTlv17SetParentPriorityEa @ -- Begin function _ZN2ot3Mle15ConnectivityTlv17SetParentPriorityEa
	.globl	_ZN2ot3Mle15ConnectivityTlv17SetParentPriorityEa
	.p2align	1
	.type	_ZN2ot3Mle15ConnectivityTlv17SetParentPriorityEa,%function
	.code	16                              @ @_ZN2ot3Mle15ConnectivityTlv17SetParentPriorityEa
	.thumb_func
_ZN2ot3Mle15ConnectivityTlv17SetParentPriorityEa:
.Lfunc_begin4:
	.loc	34 93 0 is_stmt 1               @ ../../../components/network/thread/subg_openthread/src/core/thread/mle_tlvs.cpp:93:0
	.fnstart
	.cfi_startproc
@ %bb.0:
	@DEBUG_VALUE: SetParentPriority:this <- $r0
	@DEBUG_VALUE: SetParentPriority:aParentPriority <- $r1
	.save	{r4, lr}
	push	{r4, lr}
	.cfi_def_cfa_offset 8
	.cfi_offset lr, -4
	.cfi_offset r4, -8
	mov	r4, r0
.Ltmp30:
	@DEBUG_VALUE: SetParentPriority:this <- $r4
	@DEBUG_VALUE: SetParentPriority:aParentPriority <- $r1
	@DEBUG_VALUE: SetParentPriority:this <- $r4
	.loc	34 94 35 prologue_end           @ ../../../components/network/thread/subg_openthread/src/core/thread/mle_tlvs.cpp:94:35
	mov	r0, r1
.Ltmp31:
	@DEBUG_VALUE: SetParentPriority:aParentPriority <- $r0
	bl	_ZN2ot10Preference10To2BitUintEa
.Ltmp32:
	.loc	34 94 75 is_stmt 0              @ ../../../components/network/thread/subg_openthread/src/core/thread/mle_tlvs.cpp:94:75
	lsls	r0, r0, #6
	.loc	34 94 12                        @ ../../../components/network/thread/subg_openthread/src/core/thread/mle_tlvs.cpp:94:12
	strb	r0, [r4, #2]
	.loc	34 95 1 is_stmt 1               @ ../../../components/network/thread/subg_openthread/src/core/thread/mle_tlvs.cpp:95:1
	pop	{r4, pc}
.Ltmp33:
.Lfunc_end4:
	.size	_ZN2ot3Mle15ConnectivityTlv17SetParentPriorityEa, .Lfunc_end4-_ZN2ot3Mle15ConnectivityTlv17SetParentPriorityEa
	.cfi_endproc
	.cantunwind
	.fnend
                                        @ -- End function
	.section	".note.GNU-stack","",%progbits
	.eabi_attribute	30, 3	@ Tag_ABI_optimization_goals
	.ARM_attribute	16, 1	@ Tag_AV_eba