	.text
	.syntax unified
	.eabi_attribute	67, "2.09"	@ Tag_conformance
	.cpu	cortex-m3
	.eabi_attribute	6, 10	@ Tag_CPU_arch
	.eabi_attribute	7, 77	@ Tag_CPU_arch_profile
	.eabi_attribute	8, 0	@ Tag_ARM_ISA_use
	.eabi_attribute	9, 2	@ Tag_THUMB_ISA_use
	.eabi_attribute	34, 1	@ Tag_CPU_unaligned_access
	.eabi_attribute	17, 1	@ Tag_ABI_PCS_GOT_use
	.eabi_attribute	20, 2	@ Tag_ABI_FP_denormal
	.eabi_attribute	21, 0	@ Tag_ABI_FP_exceptions
	.eabi_attribute	23, 1	@ Tag_ABI_FP_number_model
	.eabi_attribute	24, 1	@ Tag_ABI_align_needed
	.eabi_attribute	25, 1	@ Tag_ABI_align_preserved
	.eabi_attribute	38, 1	@ Tag_ABI_FP_16bit_format
	.eabi_attribute	18, 4	@ Tag_ABI_PCS_wchar_t
	.eabi_attribute	26, 2	@ Tag_ABI_enum_size
	.eabi_attribute	14, 0	@ Tag_ABI_PCS_R9_use
	.file	"nd6.cpp"
	.file	1 "C:\\Keil_v5\\ARM\\ARMCLANG\\Bin\\..\\include" "stdint.h"
	.file	2 "D:\\Rafael-IoT-SDK-Internal-main\\examples\\das_subg_thread\\keil" "../../../components/network/thread/subg_openthread/src/core/net/nd6.hpp"
	.file	3 "D:\\Rafael-IoT-SDK-Internal-main\\examples\\das_subg_thread\\keil" "../../../components/network/thread/subg_openthread/src/core\\common/clearable.hpp"
	.file	4 "D:\\Rafael-IoT-SDK-Internal-main\\examples\\das_subg_thread\\keil" "../../../components/network/thread/subg_openthread/src/core\\thread/network_data_types.hpp"
	.file	5 "D:\\Rafael-IoT-SDK-Internal-main\\examples\\das_subg_thread\\keil" "../../../components/network/thread/subg_openthread/include\\openthread/ip6.h"
	.file	6 "D:\\Rafael-IoT-SDK-Internal-main\\examples\\das_subg_thread\\keil" "../../../components/network/thread/subg_openthread/src/core\\common/equatable.hpp"
	.file	7 "D:\\Rafael-IoT-SDK-Internal-main\\examples\\das_subg_thread\\keil" "../../../components/network/thread/subg_openthread/src/core\\net/ip6_address.hpp"
	.file	8 "D:\\Rafael-IoT-SDK-Internal-main\\examples\\das_subg_thread\\keil" "../../../components/network/thread/subg_openthread/include\\openthread/error.h"
	.file	9 "D:\\Rafael-IoT-SDK-Internal-main\\examples\\das_subg_thread\\keil" "../../../components/network/thread/subg_openthread/src/core\\common/error.hpp"
	.file	10 "D:\\Rafael-IoT-SDK-Internal-main\\examples\\das_subg_thread\\keil" "../../../components/network/thread/subg_openthread/src/core\\common/string.hpp"
	.file	11 "C:\\Keil_v5\\ARM\\ARMCLANG\\Bin\\..\\include" "stdarg.h"
	.file	12 "D:\\Rafael-IoT-SDK-Internal-main\\examples\\das_subg_thread\\keil" "../../../components/network/thread/subg_openthread/src/core/net/nd6.cpp"
	.file	13 "D:\\Rafael-IoT-SDK-Internal-main\\examples\\das_subg_thread\\keil" "../../../components/network/thread/subg_openthread/include\\openthread/platform/radio.h"
	.file	14 "D:\\Rafael-IoT-SDK-Internal-main\\examples\\das_subg_thread\\keil" "../../../components/network/thread/subg_openthread/src/core\\mac/mac_types.hpp"
	.file	15 "D:\\Rafael-IoT-SDK-Internal-main\\examples\\das_subg_thread\\keil" "../../../components/network/thread/subg_openthread/src/core\\common/data.hpp"
	.file	16 "D:\\Rafael-IoT-SDK-Internal-main\\examples\\das_subg_thread\\keil" "../../../components/network/thread/subg_openthread/include\\openthread/icmp6.h"
	.file	17 "D:\\Rafael-IoT-SDK-Internal-main\\examples\\das_subg_thread\\keil" "../../../components/network/thread/subg_openthread/src/core\\common/message.hpp"
	.file	18 "D:\\Rafael-IoT-SDK-Internal-main\\examples\\das_subg_thread\\keil" "../../../components/network/thread/subg_openthread/include\\openthread/message.h"
	.file	19 "D:\\Rafael-IoT-SDK-Internal-main\\examples\\das_subg_thread\\keil" "../../../components/network/thread/subg_openthread/include\\openthread/platform/messagepool.h"
	.file	20 "D:\\Rafael-IoT-SDK-Internal-main\\examples\\das_subg_thread\\keil" "../../../components/network/thread/subg_openthread/src/core\\common/linked_list.hpp"
	.file	21 "D:\\Rafael-IoT-SDK-Internal-main\\examples\\das_subg_thread\\keil" "../../../components/network/thread/subg_openthread/src/core\\common/locator.hpp"
	.file	22 "D:\\Rafael-IoT-SDK-Internal-main\\examples\\das_subg_thread\\keil" "../../../components/network/thread/subg_openthread/src/core\\common/non_copyable.hpp"
	.file	23 "D:\\Rafael-IoT-SDK-Internal-main\\examples\\das_subg_thread\\keil" "../../../components/network/thread/subg_openthread/src/core\\common/pool.hpp"
	.file	24 "D:\\Rafael-IoT-SDK-Internal-main\\examples\\das_subg_thread\\keil" "../../../components/network/thread/subg_openthread/src/core\\common/time.hpp"
	.file	25 "D:\\Rafael-IoT-SDK-Internal-main\\examples\\das_subg_thread\\keil" "../../../components/network/thread/subg_openthread/src/core\\thread/link_quality.hpp"
	.file	26 "D:\\Rafael-IoT-SDK-Internal-main\\examples\\das_subg_thread\\keil" "../../../components/network/thread/subg_openthread/src/core\\common/bit_vector.hpp"
	.file	27 "D:\\Rafael-IoT-SDK-Internal-main\\examples\\das_subg_thread\\keil" "../../../components/network/thread/subg_openthread/src/core\\thread/child_mask.hpp"
	.file	28 "D:\\Rafael-IoT-SDK-Internal-main\\examples\\das_subg_thread\\keil" "../../../components/network/thread/subg_openthread/src/core\\common/iterator_utils.hpp"
	.file	29 "D:\\Rafael-IoT-SDK-Internal-main\\examples\\das_subg_thread\\keil" "../../../components/network/thread/subg_openthread/src/core\\common/type_traits.hpp"
	.file	30 "D:\\Rafael-IoT-SDK-Internal-main\\examples\\das_subg_thread\\keil" "../../../components/network/thread/subg_openthread/src/core\\net/icmp6.hpp"
	.file	31 "D:\\Rafael-IoT-SDK-Internal-main\\examples\\das_subg_thread\\keil" "../../../components/network/thread/subg_openthread/src/core\\net/socket.hpp"
	.file	32 "D:\\Rafael-IoT-SDK-Internal-main\\examples\\das_subg_thread\\keil" "../../../components/network/thread/subg_openthread/src/core\\net/ip6_types.hpp"
	.file	33 "C:\\Keil_v5\\ARM\\ARMCLANG\\Bin\\..\\include" "stdlib.h"
	.file	34 "C:\\Keil_v5\\ARM\\ARMCLANG\\Bin\\..\\include" "string.h"
	.file	35 "C:\\Keil_v5\\ARM\\ARMCLANG\\Bin\\..\\include" "ctype.h"
	.file	36 "C:\\Keil_v5\\ARM\\ARMCLANG\\Bin\\..\\include" "stdio.h"
	.file	37 "C:\\Keil_v5\\ARM\\ARMCLANG\\Bin\\..\\include" "stddef.h"
	.file	38 "C:\\Keil_v5\\ARM\\ARMCLANG\\Bin\\..\\include\\libcxx" "__nullptr"
	.file	39 "C:\\Keil_v5\\ARM\\ARMCLANG\\Bin\\..\\include\\libcxx" "stddef.h"
	.file	40 "D:\\Rafael-IoT-SDK-Internal-main\\examples\\das_subg_thread\\keil" "../../../components/network/thread/subg_openthread/src/core\\common/encoding.hpp"
	.file	41 "D:\\Rafael-IoT-SDK-Internal-main\\examples\\das_subg_thread\\keil" "../../../components/network/thread/subg_openthread/src/core\\net/ip6_headers.hpp"
	.file	42 "D:\\Rafael-IoT-SDK-Internal-main\\examples\\das_subg_thread\\keil" "../../../components/network/thread/subg_openthread/src/core\\net/ip6.hpp"
	.section	.text._ZN2ot3Ip62Nd6Option8IteratorC2Ev,"ax",%progbits
	.hidden	_ZN2ot3Ip62Nd6Option8IteratorC2Ev @ -- Begin function _ZN2ot3Ip62Nd6Option8IteratorC2Ev
	.globl	_ZN2ot3Ip62Nd6Option8IteratorC2Ev
	.p2align	1
	.type	_ZN2ot3Ip62Nd6Option8IteratorC2Ev,%function
	.code	16                              @ @_ZN2ot3Ip62Nd6Option8IteratorC2Ev
	.thumb_func
_ZN2ot3Ip62Nd6Option8IteratorC2Ev:
.Lfunc_begin0:
	.loc	12 50 0                         @ ../../../components/network/thread/subg_openthread/src/core/net/nd6.cpp:50:0
	.fnstart
	.cfi_sections .debug_frame
	.cfi_startproc
@ %bb.0:
	@DEBUG_VALUE: Iterator:this <- $r0
	movs	r1, #0
	@DEBUG_VALUE: Iterator:this <- $r0
.Ltmp0:
	.loc	12 48 7 prologue_end            @ ../../../components/network/thread/subg_openthread/src/core/net/nd6.cpp:48:7
	strd	r1, r1, [r0]
	.loc	12 52 1                         @ ../../../components/network/thread/subg_openthread/src/core/net/nd6.cpp:52:1
	bx	lr
.Ltmp1:
.Lfunc_end0:
	.size	_ZN2ot3Ip62Nd6Option8IteratorC2Ev, .Lfunc_end0-_ZN2ot3Ip62Nd6Option8IteratorC2Ev
	.cfi_endproc
	.cantunwind
	.fnend
                                        @ -- End function
	.section	.text._ZN2ot3Ip62Nd6Option8IteratorC2EPKvS5_,"ax",%progbits
	.hidden	_ZN2ot3Ip62Nd6Option8IteratorC2EPKvS5_ @ -- Begin function _ZN2ot3Ip62Nd6Option8IteratorC2EPKvS5_
	.globl	_ZN2ot3Ip62Nd6Option8IteratorC2EPKvS5_
	.p2align	1
	.type	_ZN2ot3Ip62Nd6Option8IteratorC2EPKvS5_,%function
	.code	16                              @ @_ZN2ot3Ip62Nd6Option8IteratorC2EPKvS5_
	.thumb_func
_ZN2ot3Ip62Nd6Option8IteratorC2EPKvS5_:
.Lfunc_begin1:
	.loc	12 57 0                         @ ../../../components/network/thread/subg_openthread/src/core/net/nd6.cpp:57:0
	.fnstart
	.cfi_startproc
@ %bb.0:
	@DEBUG_VALUE: Iterator:this <- $r0
	@DEBUG_VALUE: Iterator:this <- $r0
	@DEBUG_VALUE: Iterator:aStart <- $r1
	@DEBUG_VALUE: Iterator:aStart <- $r1
	@DEBUG_VALUE: Iterator:aEnd <- $r2
	@DEBUG_VALUE: Iterator:aEnd <- $r2
	mov.w	r12, #0
.Ltmp2:
	.loc	12 56 7 prologue_end            @ ../../../components/network/thread/subg_openthread/src/core/net/nd6.cpp:56:7
	str	r2, [r0, #4]
.Ltmp3:
	@DEBUG_VALUE: Validate:aOption <- $r1
	@DEBUG_VALUE: Validate:this <- $r0
	.loc	12 77 34                        @ ../../../components/network/thread/subg_openthread/src/core/net/nd6.cpp:77:34
	cbz	r1, .LBB1_5
.Ltmp4:
@ %bb.1:
	@DEBUG_VALUE: Iterator:aEnd <- $r2
	@DEBUG_VALUE: Validate:aOption <- $r1
	@DEBUG_VALUE: Iterator:aStart <- $r1
	@DEBUG_VALUE: Validate:this <- $r0
	@DEBUG_VALUE: Iterator:this <- $r0
	.loc	12 0 34 is_stmt 0               @ ../../../components/network/thread/subg_openthread/src/core/net/nd6.cpp:0:34
	adds	r3, r1, #2
	.loc	12 77 34                        @ ../../../components/network/thread/subg_openthread/src/core/net/nd6.cpp:77:34
	cmp	r3, r2
	bhi	.LBB1_5
.Ltmp5:
@ %bb.2:
	@DEBUG_VALUE: Iterator:aEnd <- $r2
	@DEBUG_VALUE: Validate:aOption <- $r1
	@DEBUG_VALUE: Iterator:aStart <- $r1
	@DEBUG_VALUE: Validate:this <- $r0
	@DEBUG_VALUE: Iterator:this <- $r0
	@DEBUG_VALUE: IsValid:this <- $r1
	.loc	2 142 39 is_stmt 1              @ ../../../components/network/thread/subg_openthread/src/core/net/nd6.hpp:142:39
	ldrb	r3, [r1, #1]
.Ltmp6:
	.loc	12 77 83                        @ ../../../components/network/thread/subg_openthread/src/core/net/nd6.cpp:77:83
	cbz	r3, .LBB1_4
.Ltmp7:
@ %bb.3:
	@DEBUG_VALUE: Iterator:aEnd <- $r2
	@DEBUG_VALUE: Validate:aOption <- $r1
	@DEBUG_VALUE: Iterator:aStart <- $r1
	@DEBUG_VALUE: Validate:this <- $r0
	@DEBUG_VALUE: Iterator:this <- $r0
	@DEBUG_VALUE: Next:aOption <- $r1
	@DEBUG_VALUE: GetSize:this <- $r1
	.loc	12 66 88                        @ ../../../components/network/thread/subg_openthread/src/core/net/nd6.cpp:66:88
	add.w	r3, r1, r3, lsl #3
.Ltmp8:
	.loc	12 77 12                        @ ../../../components/network/thread/subg_openthread/src/core/net/nd6.cpp:77:12
	cmp	r3, r2
	it	hi
	movhi	r1, #0
.Ltmp9:
	@DEBUG_VALUE: Iterator:aStart <- [DW_OP_LLVM_entry_value 1] $r1
	.loc	12 0 12 is_stmt 0               @ ../../../components/network/thread/subg_openthread/src/core/net/nd6.cpp:0:12
	mov	r12, r1
	b	.LBB1_5
.Ltmp10:
.LBB1_4:
	@DEBUG_VALUE: Iterator:aEnd <- $r2
	@DEBUG_VALUE: IsValid:this <- $r1
	@DEBUG_VALUE: Validate:aOption <- $r1
	@DEBUG_VALUE: Iterator:aStart <- $r1
	@DEBUG_VALUE: Validate:this <- $r0
	@DEBUG_VALUE: Iterator:this <- $r0
	mov.w	r12, #0
.Ltmp11:
.LBB1_5:
	@DEBUG_VALUE: Iterator:aEnd <- $r2
	@DEBUG_VALUE: Iterator:this <- $r0
	.loc	12 61 13 is_stmt 1              @ ../../../components/network/thread/subg_openthread/src/core/net/nd6.cpp:61:13
	str.w	r12, [r0]
.Ltmp12:
	.loc	12 62 1                         @ ../../../components/network/thread/subg_openthread/src/core/net/nd6.cpp:62:1
	bx	lr
.Ltmp13:
.Lfunc_end1:
	.size	_ZN2ot3Ip62Nd6Option8IteratorC2EPKvS5_, .Lfunc_end1-_ZN2ot3Ip62Nd6Option8IteratorC2EPKvS5_
	.cfi_endproc
	.cantunwind
	.fnend
                                        @ -- End function
	.section	.text._ZNK2ot3Ip62Nd6Option8Iterator8ValidateEPKS2_,"ax",%progbits
	.hidden	_ZNK2ot3Ip62Nd6Option8Iterator8ValidateEPKS2_ @ -- Begin function _ZNK2ot3Ip62Nd6Option8Iterator8ValidateEPKS2_
	.globl	_ZNK2ot3Ip62Nd6Option8Iterator8ValidateEPKS2_
	.p2align	1
	.type	_ZNK2ot3Ip62Nd6Option8Iterator8ValidateEPKS2_,%function
	.code	16                              @ @_ZNK2ot3Ip62Nd6Option8Iterator8ValidateEPKS2_
	.thumb_func
_ZNK2ot3Ip62Nd6Option8Iterator8ValidateEPKS2_:
.Lfunc_begin2:
	.loc	12 72 0                         @ ../../../components/network/thread/subg_openthread/src/core/net/nd6.cpp:72:0
	.fnstart
	.cfi_startproc
@ %bb.0:
	@DEBUG_VALUE: Validate:this <- $r0
	@DEBUG_VALUE: Validate:aOption <- $r1
	@DEBUG_VALUE: Validate:aOption <- $r1
	@DEBUG_VALUE: Validate:this <- $r0
	.loc	12 77 34 prologue_end           @ ../../../components/network/thread/subg_openthread/src/core/net/nd6.cpp:77:34
	cbz	r1, .LBB2_4
.Ltmp14:
@ %bb.1:
	@DEBUG_VALUE: Validate:aOption <- $r1
	@DEBUG_VALUE: Validate:this <- $r0
	.loc	12 77 55 is_stmt 0              @ ../../../components/network/thread/subg_openthread/src/core/net/nd6.cpp:77:55
	ldr	r0, [r0, #4]
.Ltmp15:
	@DEBUG_VALUE: Validate:this <- [DW_OP_LLVM_entry_value 1] $r0
	.loc	12 77 47                        @ ../../../components/network/thread/subg_openthread/src/core/net/nd6.cpp:77:47
	adds	r2, r1, #2
	.loc	12 77 61                        @ ../../../components/network/thread/subg_openthread/src/core/net/nd6.cpp:77:61
	cmp	r2, r0
	bhi	.LBB2_4
.Ltmp16:
@ %bb.2:
	@DEBUG_VALUE: Validate:aOption <- $r1
	@DEBUG_VALUE: Validate:this <- [DW_OP_LLVM_entry_value 1] $r0
	@DEBUG_VALUE: IsValid:this <- $r1
	.loc	2 142 39 is_stmt 1              @ ../../../components/network/thread/subg_openthread/src/core/net/nd6.hpp:142:39
	ldrb	r2, [r1, #1]
.Ltmp17:
	.loc	12 77 83                        @ ../../../components/network/thread/subg_openthread/src/core/net/nd6.cpp:77:83
	cbz	r2, .LBB2_4
.Ltmp18:
@ %bb.3:
	@DEBUG_VALUE: Validate:aOption <- $r1
	@DEBUG_VALUE: Validate:this <- [DW_OP_LLVM_entry_value 1] $r0
	@DEBUG_VALUE: Next:aOption <- $r1
	@DEBUG_VALUE: GetSize:this <- $r1
	.loc	12 66 88                        @ ../../../components/network/thread/subg_openthread/src/core/net/nd6.cpp:66:88
	add.w	r2, r1, r2, lsl #3
.Ltmp19:
	.loc	12 77 12                        @ ../../../components/network/thread/subg_openthread/src/core/net/nd6.cpp:77:12
	cmp	r0, r2
	it	lo
	movlo	r1, #0
.Ltmp20:
	@DEBUG_VALUE: Validate:aOption <- [DW_OP_LLVM_entry_value 1] $r1
	mov	r0, r1
	bx	lr
.Ltmp21:
.LBB2_4:
	@DEBUG_VALUE: Validate:aOption <- $r1
	.loc	12 77 5 is_stmt 0               @ ../../../components/network/thread/subg_openthread/src/core/net/nd6.cpp:77:5
	movs	r0, #0
	bx	lr
.Ltmp22:
.Lfunc_end2:
	.size	_ZNK2ot3Ip62Nd6Option8Iterator8ValidateEPKS2_, .Lfunc_end2-_ZNK2ot3Ip62Nd6Option8Iterator8ValidateEPKS2_
	.cfi_endproc
	.cantunwind
	.fnend
                                        @ -- End function
	.section	.text._ZN2ot3Ip62Nd6Option8Iterator4NextEPKS2_,"ax",%progbits
	.hidden	_ZN2ot3Ip62Nd6Option8Iterator4NextEPKS2_ @ -- Begin function _ZN2ot3Ip62Nd6Option8Iterator4NextEPKS2_
	.globl	_ZN2ot3Ip62Nd6Option8Iterator4NextEPKS2_
	.p2align	1
	.type	_ZN2ot3Ip62Nd6Option8Iterator4NextEPKS2_,%function
	.code	16                              @ @_ZN2ot3Ip62Nd6Option8Iterator4NextEPKS2_
	.thumb_func
_ZN2ot3Ip62Nd6Option8Iterator4NextEPKS2_:
.Lfunc_begin3:
	.loc	12 65 0 is_stmt 1               @ ../../../components/network/thread/subg_openthread/src/core/net/nd6.cpp:65:0
	.fnstart
	.cfi_startproc
@ %bb.0:
	@DEBUG_VALUE: Next:aOption <- $r0
	@DEBUG_VALUE: Next:aOption <- $r0
	@DEBUG_VALUE: GetSize:this <- $r0
	@DEBUG_VALUE: GetSize:this <- $r0
	.loc	2 117 43 prologue_end           @ ../../../components/network/thread/subg_openthread/src/core/net/nd6.hpp:117:43
	ldrb	r1, [r0, #1]
.Ltmp23:
	.loc	12 66 88                        @ ../../../components/network/thread/subg_openthread/src/core/net/nd6.cpp:66:88
	add.w	r0, r0, r1, lsl #3
.Ltmp24:
	@DEBUG_VALUE: Next:aOption <- [DW_OP_LLVM_entry_value 1] $r0
	.loc	12 66 5 is_stmt 0               @ ../../../components/network/thread/subg_openthread/src/core/net/nd6.cpp:66:5
	bx	lr
.Ltmp25:
.Lfunc_end3:
	.size	_ZN2ot3Ip62Nd6Option8Iterator4NextEPKS2_, .Lfunc_end3-_ZN2ot3Ip62Nd6Option8Iterator4NextEPKS2_
	.cfi_endproc
	.cantunwind
	.fnend
                                        @ -- End function
	.section	.text._ZN2ot3Ip62Nd6Option8Iterator7AdvanceEv,"ax",%progbits
	.hidden	_ZN2ot3Ip62Nd6Option8Iterator7AdvanceEv @ -- Begin function _ZN2ot3Ip62Nd6Option8Iterator7AdvanceEv
	.globl	_ZN2ot3Ip62Nd6Option8Iterator7AdvanceEv
	.p2align	1
	.type	_ZN2ot3Ip62Nd6Option8Iterator7AdvanceEv,%function
	.code	16                              @ @_ZN2ot3Ip62Nd6Option8Iterator7AdvanceEv
	.thumb_func
_ZN2ot3Ip62Nd6Option8Iterator7AdvanceEv:
.Lfunc_begin4:
	.loc	12 69 0 is_stmt 1               @ ../../../components/network/thread/subg_openthread/src/core/net/nd6.cpp:69:0
	.fnstart
	.cfi_startproc
@ %bb.0:
	@DEBUG_VALUE: Advance:this <- $r0
	@DEBUG_VALUE: Advance:this <- $r0
	.loc	12 69 51 prologue_end           @ ../../../components/network/thread/subg_openthread/src/core/net/nd6.cpp:69:51
	ldr	r1, [r0]
	.loc	12 69 50 is_stmt 0              @ ../../../components/network/thread/subg_openthread/src/core/net/nd6.cpp:69:50
	cbz	r1, .LBB4_4
.Ltmp26:
@ %bb.1:
	@DEBUG_VALUE: Advance:this <- $r0
	@DEBUG_VALUE: Next:aOption <- $r1
	@DEBUG_VALUE: GetSize:this <- $r1
	.loc	2 117 43 is_stmt 1              @ ../../../components/network/thread/subg_openthread/src/core/net/nd6.hpp:117:43
	ldrb	r2, [r1, #1]
.Ltmp27:
	.loc	12 66 88                        @ ../../../components/network/thread/subg_openthread/src/core/net/nd6.cpp:66:88
	add.w	r1, r1, r2, lsl #3
.Ltmp28:
	@DEBUG_VALUE: Validate:this <- $r0
	@DEBUG_VALUE: Validate:aOption <- $r1
	.loc	12 77 55                        @ ../../../components/network/thread/subg_openthread/src/core/net/nd6.cpp:77:55
	ldr	r2, [r0, #4]
	.loc	12 77 47 is_stmt 0              @ ../../../components/network/thread/subg_openthread/src/core/net/nd6.cpp:77:47
	adds	r3, r1, #2
	.loc	12 77 61                        @ ../../../components/network/thread/subg_openthread/src/core/net/nd6.cpp:77:61
	cmp	r2, r3
	blo	.LBB4_4
.Ltmp29:
@ %bb.2:
	@DEBUG_VALUE: Validate:aOption <- $r1
	@DEBUG_VALUE: Validate:this <- $r0
	@DEBUG_VALUE: Advance:this <- $r0
	@DEBUG_VALUE: IsValid:this <- $r1
	.loc	2 142 39 is_stmt 1              @ ../../../components/network/thread/subg_openthread/src/core/net/nd6.hpp:142:39
	ldrb	r3, [r1, #1]
.Ltmp30:
	.loc	12 77 83                        @ ../../../components/network/thread/subg_openthread/src/core/net/nd6.cpp:77:83
	cbz	r3, .LBB4_4
.Ltmp31:
@ %bb.3:
	@DEBUG_VALUE: Validate:aOption <- $r1
	@DEBUG_VALUE: Validate:this <- $r0
	@DEBUG_VALUE: Advance:this <- $r0
	@DEBUG_VALUE: Next:aOption <- undef
	@DEBUG_VALUE: GetSize:this <- undef
	.loc	12 66 88                        @ ../../../components/network/thread/subg_openthread/src/core/net/nd6.cpp:66:88
	add.w	r3, r1, r3, lsl #3
.Ltmp32:
	.loc	12 77 12                        @ ../../../components/network/thread/subg_openthread/src/core/net/nd6.cpp:77:12
	cmp	r2, r3
	it	lo
	movlo	r1, #0
.Ltmp33:
	.loc	12 0 12 is_stmt 0               @ ../../../components/network/thread/subg_openthread/src/core/net/nd6.cpp:0:12
	b	.LBB4_5
.Ltmp34:
.LBB4_4:
	@DEBUG_VALUE: Advance:this <- $r0
	movs	r1, #0
.Ltmp35:
.LBB4_5:
	@DEBUG_VALUE: Advance:this <- $r0
	.loc	12 69 48 is_stmt 1              @ ../../../components/network/thread/subg_openthread/src/core/net/nd6.cpp:69:48
	str	r1, [r0]
	.loc	12 69 108 is_stmt 0             @ ../../../components/network/thread/subg_openthread/src/core/net/nd6.cpp:69:108
	bx	lr
.Ltmp36:
.Lfunc_end4:
	.size	_ZN2ot3Ip62Nd6Option8Iterator7AdvanceEv, .Lfunc_end4-_ZN2ot3Ip62Nd6Option8Iterator7AdvanceEv
	.cfi_endproc
	.cantunwind
	.fnend
                                        @ -- End function
	.section	.text._ZN2ot3Ip62Nd16PrefixInfoOption4InitEv,"ax",%progbits
	.hidden	_ZN2ot3Ip62Nd16PrefixInfoOption4InitEv @ -- Begin function _ZN2ot3Ip62Nd16PrefixInfoOption4InitEv
	.globl	_ZN2ot3Ip62Nd16PrefixInfoOption4InitEv
	.p2align	1
	.type	_ZN2ot3Ip62Nd16PrefixInfoOption4InitEv,%function
	.code	16                              @ @_ZN2ot3Ip62Nd16PrefixInfoOption4InitEv
	.thumb_func
_ZN2ot3Ip62Nd16PrefixInfoOption4InitEv:
.Lfunc_begin5:
	.loc	12 85 0 is_stmt 1               @ ../../../components/network/thread/subg_openthread/src/core/net/nd6.cpp:85:0
	.fnstart
	.cfi_startproc
@ %bb.0:
	@DEBUG_VALUE: Init:this <- $r0
	@DEBUG_VALUE: Clear:this <- $r0
	.save	{r4, lr}
	push	{r4, lr}
	.cfi_def_cfa_offset 8
	.cfi_offset lr, -4
	.cfi_offset r4, -8
	mov	r4, r0
.Ltmp37:
	@DEBUG_VALUE: Clear:this <- $r4
	@DEBUG_VALUE: Init:this <- $r4
	.loc	3 55 24 prologue_end            @ ../../../components/network/thread/subg_openthread/src/core\common/clearable.hpp:55:24
	adds	r0, #2
	movs	r1, #30
	bl	__aeabi_memclr
.Ltmp38:
	.loc	3 0 24 is_stmt 0                @ ../../../components/network/thread/subg_openthread/src/core\common/clearable.hpp:0:24
	movw	r0, #1027
.Ltmp39:
	@DEBUG_VALUE: SetType:aType <- 3
	@DEBUG_VALUE: SetType:this <- $r4
	.loc	2 99 38 is_stmt 1               @ ../../../components/network/thread/subg_openthread/src/core/net/nd6.hpp:99:38
	strh	r0, [r4]
.Ltmp40:
	@DEBUG_VALUE: SetSize:aSize <- 32
	@DEBUG_VALUE: SetSize:this <- undef
	.loc	12 91 1                         @ ../../../components/network/thread/subg_openthread/src/core/net/nd6.cpp:91:1
	pop	{r4, pc}
.Ltmp41:
.Lfunc_end5:
	.size	_ZN2ot3Ip62Nd16PrefixInfoOption4InitEv, .Lfunc_end5-_ZN2ot3Ip62Nd16PrefixInfoOption4InitEv
	.cfi_endproc
	.cantunwind
	.fnend
                                        @ -- End function
	.section	.text._ZN2ot3Ip62Nd16PrefixInfoOption9SetPrefixERKNS0_6PrefixE,"ax",%progbits
	.hidden	_ZN2ot3Ip62Nd16PrefixInfoOption9SetPrefixERKNS0_6PrefixE @ -- Begin function _ZN2ot3Ip62Nd16PrefixInfoOption9SetPrefixERKNS0_6PrefixE
	.globl	_ZN2ot3Ip62Nd16PrefixInfoOption9SetPrefixERKNS0_6PrefixE
	.p2align	1
	.type	_ZN2ot3Ip62Nd16PrefixInfoOption9SetPrefixERKNS0_6PrefixE,%function
	.code	16                              @ @_ZN2ot3Ip62Nd16PrefixInfoOption9SetPrefixERKNS0_6PrefixE
	.thumb_func
_ZN2ot3Ip62Nd16PrefixInfoOption9SetPrefixERKNS0_6PrefixE:
.Lfunc_begin6:
	.loc	12 94 0                         @ ../../../components/network/thread/subg_openthread/src/core/net/nd6.cpp:94:0
	.fnstart
	.cfi_startproc
@ %bb.0:
	@DEBUG_VALUE: SetPrefix:this <- $r0
	@DEBUG_VALUE: SetPrefix:aPrefix <- $r1
	.loc	12 95 29 prologue_end           @ ../../../components/network/thread/subg_openthread/src/core/net/nd6.cpp:95:29
	ldrb.w	r12, [r1, #16]
	mov	r3, r0
	@DEBUG_VALUE: SetPrefix:aPrefix <- $r1
.Ltmp42:
	@DEBUG_VALUE: SetPrefix:this <- $r3
	.loc	12 96 5                         @ ../../../components/network/thread/subg_openthread/src/core/net/nd6.cpp:96:5
	adds	r0, #16
	.loc	12 96 19 is_stmt 0              @ ../../../components/network/thread/subg_openthread/src/core/net/nd6.cpp:96:19
	movs	r2, #16
	.loc	12 95 19 is_stmt 1              @ ../../../components/network/thread/subg_openthread/src/core/net/nd6.cpp:95:19
	strb.w	r12, [r3, #2]
.Ltmp43:
	.loc	12 96 19                        @ ../../../components/network/thread/subg_openthread/src/core/net/nd6.cpp:96:19
	b	__aeabi_memcpy
.Ltmp44:
.Lfunc_end6:
	.size	_ZN2ot3Ip62Nd16PrefixInfoOption9SetPrefixERKNS0_6PrefixE, .Lfunc_end6-_ZN2ot3Ip62Nd16PrefixInfoOption9SetPrefixERKNS0_6PrefixE
	.cfi_endproc
	.cantunwind
	.fnend
                                        @ -- End function
	.section	.text._ZNK2ot3Ip62Nd16PrefixInfoOption9GetPrefixERNS0_6PrefixE,"ax",%progbits
	.hidden	_ZNK2ot3Ip62Nd16PrefixInfoOption9GetPrefixERNS0_6PrefixE @ -- Begin function _ZNK2ot3Ip62Nd16PrefixInfoOption9GetPrefixERNS0_6PrefixE
	.globl	_ZNK2ot3Ip62Nd16PrefixInfoOption9GetPrefixERNS0_6PrefixE
	.p2align	1
	.type	_ZNK2ot3Ip62Nd16PrefixInfoOption9GetPrefixERNS0_6PrefixE,%function
	.code	16                              @ @_ZNK2ot3Ip62Nd16PrefixInfoOption9GetPrefixERNS0_6PrefixE
	.thumb_func
_ZNK2ot3Ip62Nd16PrefixInfoOption9GetPrefixERNS0_6PrefixE:
.Lfunc_begin7:
	.loc	12 99 0                         @ ../../../components/network/thread/subg_openthread/src/core/net/nd6.cpp:99:0
	.fnstart
	.cfi_startproc
@ %bb.0:
	@DEBUG_VALUE: GetPrefix:this <- $r0
	@DEBUG_VALUE: GetPrefix:aPrefix <- $r1
	mov	r3, r1
.Ltmp45:
	@DEBUG_VALUE: GetPrefix:aPrefix <- $r3
	@DEBUG_VALUE: GetPrefix:this <- $r0
	.loc	12 99 91 prologue_end           @ ../../../components/network/thread/subg_openthread/src/core/net/nd6.cpp:99:91
	ldrb	r2, [r0, #2]
	.loc	12 99 71 is_stmt 0              @ ../../../components/network/thread/subg_openthread/src/core/net/nd6.cpp:99:71
	add.w	r1, r0, #16
.Ltmp46:
	@DEBUG_VALUE: GetBytes:this <- $r1
	.loc	12 99 67                        @ ../../../components/network/thread/subg_openthread/src/core/net/nd6.cpp:99:67
	mov	r0, r3
.Ltmp47:
	@DEBUG_VALUE: GetPrefix:aPrefix <- $r0
	@DEBUG_VALUE: GetPrefix:this <- [DW_OP_LLVM_entry_value 1] $r0
	@DEBUG_VALUE: GetPrefix:aPrefix <- $r0
	b	_ZN2ot3Ip66Prefix3SetEPKhh
.Ltmp48:
.Lfunc_end7:
	.size	_ZNK2ot3Ip62Nd16PrefixInfoOption9GetPrefixERNS0_6PrefixE, .Lfunc_end7-_ZNK2ot3Ip62Nd16PrefixInfoOption9GetPrefixERNS0_6PrefixE
	.cfi_endproc
	.cantunwind
	.fnend
                                        @ -- End function
	.section	.text._ZNK2ot3Ip62Nd16PrefixInfoOption7IsValidEv,"ax",%progbits
	.hidden	_ZNK2ot3Ip62Nd16PrefixInfoOption7IsValidEv @ -- Begin function _ZNK2ot3Ip62Nd16PrefixInfoOption7IsValidEv
	.globl	_ZNK2ot3Ip62Nd16PrefixInfoOption7IsValidEv
	.p2align	1
	.type	_ZNK2ot3Ip62Nd16PrefixInfoOption7IsValidEv,%function
	.code	16                              @ @_ZNK2ot3Ip62Nd16PrefixInfoOption7IsValidEv
	.thumb_func
_ZNK2ot3Ip62Nd16PrefixInfoOption7IsValidEv:
.Lfunc_begin8:
	.loc	12 102 0 is_stmt 1              @ ../../../components/network/thread/subg_openthread/src/core/net/nd6.cpp:102:0
	.fnstart
	.cfi_startproc
@ %bb.0:
	@DEBUG_VALUE: IsValid:this <- $r0
	@DEBUG_VALUE: GetSize:this <- $r0
	mov	r1, r0
.Ltmp49:
	@DEBUG_VALUE: GetSize:this <- $r1
	@DEBUG_VALUE: IsValid:this <- $r1
	.loc	2 117 43 prologue_end           @ ../../../components/network/thread/subg_openthread/src/core/net/nd6.hpp:117:43
	ldrb	r0, [r0, #1]
.Ltmp50:
	.loc	12 103 41                       @ ../../../components/network/thread/subg_openthread/src/core/net/nd6.cpp:103:41
	cmp	r0, #4
	itt	lo
	movlo	r0, #0
	.loc	12 103 5 is_stmt 0              @ ../../../components/network/thread/subg_openthread/src/core/net/nd6.cpp:103:5
	bxlo	lr
.Ltmp51:
.LBB8_1:
	@DEBUG_VALUE: IsValid:this <- $r1
	.loc	12 103 45                       @ ../../../components/network/thread/subg_openthread/src/core/net/nd6.cpp:103:45
	ldrb	r0, [r1, #2]
	.loc	12 103 82                       @ ../../../components/network/thread/subg_openthread/src/core/net/nd6.cpp:103:82
	cmp	r0, #128
	mov.w	r0, #0
	.loc	12 103 5                        @ ../../../components/network/thread/subg_openthread/src/core/net/nd6.cpp:103:5
	it	hi
	bxhi	lr
.Ltmp52:
.LBB8_2:
	@DEBUG_VALUE: IsValid:this <- $r1
	@DEBUG_VALUE: GetPreferredLifetime:this <- $r1
	.loc	2 261 67 is_stmt 1              @ ../../../components/network/thread/subg_openthread/src/core/net/nd6.hpp:261:67
	ldr	r2, [r1, #8]
.Ltmp53:
	@DEBUG_VALUE: GetValidLifetime:this <- $r1
	.loc	2 245 63                        @ ../../../components/network/thread/subg_openthread/src/core/net/nd6.hpp:245:63
	ldr	r1, [r1, #4]
.Ltmp54:
	@DEBUG_VALUE: Swap32:v <- $r2
	@DEBUG_VALUE: HostSwap32:v <- $r2
	.loc	40 59 61                        @ ../../../components/network/thread/subg_openthread/src/core\common/encoding.hpp:59:61
	rev	r2, r2
.Ltmp55:
	@DEBUG_VALUE: Swap32:v <- $r1
	@DEBUG_VALUE: HostSwap32:v <- $r1
	.loc	40 59 61 is_stmt 0              @ ../../../components/network/thread/subg_openthread/src/core\common/encoding.hpp:59:61
	rev	r1, r1
.Ltmp56:
	.loc	12 104 36 is_stmt 1             @ ../../../components/network/thread/subg_openthread/src/core/net/nd6.cpp:104:36
	cmp	r2, r1
	it	ls
	movls	r0, #1
	.loc	12 103 5                        @ ../../../components/network/thread/subg_openthread/src/core/net/nd6.cpp:103:5
	bx	lr
.Ltmp57:
.Lfunc_end8:
	.size	_ZNK2ot3Ip62Nd16PrefixInfoOption7IsValidEv, .Lfunc_end8-_ZNK2ot3Ip62Nd16PrefixInfoOption7IsValidEv
	.cfi_endproc
	.cantunwind
	.fnend
                                        @ -- End function
	.section	.text._ZN2ot3Ip62Nd15RouteInfoOption4InitEv,"ax",%progbits
	.hidden	_ZN2ot3Ip62Nd15RouteInfoOption4InitEv @ -- Begin function _ZN2ot3Ip62Nd15RouteInfoOption4InitEv
	.globl	_ZN2ot3Ip62Nd15RouteInfoOption4InitEv
	.p2align	1
	.type	_ZN2ot3Ip62Nd15RouteInfoOption4InitEv,%function
	.code	16                              @ @_ZN2ot3Ip62Nd15RouteInfoOption4InitEv
	.thumb_func
_ZN2ot3Ip62Nd15RouteInfoOption4InitEv:
.Lfunc_begin9:
	.loc	12 111 0                        @ ../../../components/network/thread/subg_openthread/src/core/net/nd6.cpp:111:0
	.fnstart
	.cfi_startproc
@ %bb.0:
	@DEBUG_VALUE: Init:this <- $r0
	movs	r1, #0
.Ltmp58:
	@DEBUG_VALUE: Clear:this <- $r0
	@DEBUG_VALUE: Init:this <- $r0
	.loc	3 55 24 prologue_end            @ ../../../components/network/thread/subg_openthread/src/core\common/clearable.hpp:55:24
	str	r1, [r0, #4]
	movs	r1, #24
	str	r1, [r0]
.Ltmp59:
	@DEBUG_VALUE: SetType:aType <- 24
	@DEBUG_VALUE: SetType:this <- undef
	.loc	12 114 1                        @ ../../../components/network/thread/subg_openthread/src/core/net/nd6.cpp:114:1
	bx	lr
.Ltmp60:
.Lfunc_end9:
	.size	_ZN2ot3Ip62Nd15RouteInfoOption4InitEv, .Lfunc_end9-_ZN2ot3Ip62Nd15RouteInfoOption4InitEv
	.cfi_endproc
	.cantunwind
	.fnend
                                        @ -- End function
	.section	.text._ZN2ot3Ip62Nd15RouteInfoOption13SetPreferenceENS_11NetworkData15RoutePreferenceE,"ax",%progbits
	.hidden	_ZN2ot3Ip62Nd15RouteInfoOption13SetPreferenceENS_11NetworkData15RoutePreferenceE @ -- Begin function _ZN2ot3Ip62Nd15RouteInfoOption13SetPreferenceENS_11NetworkData15RoutePreferenceE
	.globl	_ZN2ot3Ip62Nd15RouteInfoOption13SetPreferenceENS_11NetworkData15RoutePreferenceE
	.p2align	1
	.type	_ZN2ot3Ip62Nd15RouteInfoOption13SetPreferenceENS_11NetworkData15RoutePreferenceE,%function
	.code	16                              @ @_ZN2ot3Ip62Nd15RouteInfoOption13SetPreferenceENS_11NetworkData15RoutePreferenceE
	.thumb_func
_ZN2ot3Ip62Nd15RouteInfoOption13SetPreferenceENS_11NetworkData15RoutePreferenceE:
.Lfunc_begin10:
	.loc	12 117 0                        @ ../../../components/network/thread/subg_openthread/src/core/net/nd6.cpp:117:0
	.fnstart
	.cfi_startproc
@ %bb.0:
	@DEBUG_VALUE: SetPreference:this <- $r0
	@DEBUG_VALUE: SetPreference:aPreference <- $r1
	.save	{r4, lr}
	push	{r4, lr}
	.cfi_def_cfa_offset 8
	.cfi_offset lr, -4
	.cfi_offset r4, -8
.Ltmp61:
	.loc	12 118 15 prologue_end          @ ../../../components/network/thread/subg_openthread/src/core/net/nd6.cpp:118:15
	ldrb	r2, [r0, #3]
	mov	r4, r0
.Ltmp62:
	@DEBUG_VALUE: SetPreference:this <- $r4
	@DEBUG_VALUE: SetPreference:this <- $r4
	.loc	12 0 15 is_stmt 0               @ ../../../components/network/thread/subg_openthread/src/core/net/nd6.cpp:0:15
	mov	r0, r1
.Ltmp63:
	@DEBUG_VALUE: SetPreference:aPreference <- $r0
	@DEBUG_VALUE: SetPreference:aPreference <- $r0
	.loc	12 118 15                       @ ../../../components/network/thread/subg_openthread/src/core/net/nd6.cpp:118:15
	and	r1, r2, #231
	strb	r1, [r4, #3]
.Ltmp64:
	@DEBUG_VALUE: RoutePreferenceToValue:aPref <- undef
	@DEBUG_VALUE: SetPreference:aPreference <- $r0
	.loc	4 132 62 is_stmt 1              @ ../../../components/network/thread/subg_openthread/src/core\thread/network_data_types.hpp:132:62
	bl	_ZN2ot10Preference10To2BitUintEa
.Ltmp65:
	.loc	12 119 15                       @ ../../../components/network/thread/subg_openthread/src/core/net/nd6.cpp:119:15
	ldrb	r1, [r4, #3]
	.loc	12 119 90 is_stmt 0             @ ../../../components/network/thread/subg_openthread/src/core/net/nd6.cpp:119:90
	and	r0, r0, #3
	.loc	12 119 15                       @ ../../../components/network/thread/subg_openthread/src/core/net/nd6.cpp:119:15
	orr.w	r0, r1, r0, lsl #3
	strb	r0, [r4, #3]
	.loc	12 120 1 is_stmt 1              @ ../../../components/network/thread/subg_openthread/src/core/net/nd6.cpp:120:1
	pop	{r4, pc}
.Ltmp66:
.Lfunc_end10:
	.size	_ZN2ot3Ip62Nd15RouteInfoOption13SetPreferenceENS_11NetworkData15RoutePreferenceE, .Lfunc_end10-_ZN2ot3Ip62Nd15RouteInfoOption13SetPreferenceENS_11NetworkData15RoutePreferenceE
	.cfi_endproc
	.cantunwind
	.fnend
                                        @ -- End function
	.section	.text._ZNK2ot3Ip62Nd15RouteInfoOption13GetPreferenceEv,"ax",%progbits
	.hidden	_ZNK2ot3Ip62Nd15RouteInfoOption13GetPreferenceEv @ -- Begin function _ZNK2ot3Ip62Nd15RouteInfoOption13GetPreferenceEv
	.globl	_ZNK2ot3Ip62Nd15RouteInfoOption13GetPreferenceEv
	.p2align	1
	.type	_ZNK2ot3Ip62Nd15RouteInfoOption13GetPreferenceEv,%function
	.code	16                              @ @_ZNK2ot3Ip62Nd15RouteInfoOption13GetPreferenceEv
	.thumb_func
_ZNK2ot3Ip62Nd15RouteInfoOption13GetPreferenceEv:
.Lfunc_begin11:
	.loc	12 123 0                        @ ../../../components/network/thread/subg_openthread/src/core/net/nd6.cpp:123:0
	.fnstart
	.cfi_startproc
@ %bb.0:
	@DEBUG_VALUE: GetPreference:this <- $r0
	@DEBUG_VALUE: GetPreference:this <- $r0
	.loc	12 124 51 prologue_end          @ ../../../components/network/thread/subg_openthread/src/core/net/nd6.cpp:124:51
	ldrb	r0, [r0, #3]
.Ltmp67:
	@DEBUG_VALUE: GetPreference:this <- [DW_OP_LLVM_entry_value 1] $r0
	.loc	12 124 80 is_stmt 0             @ ../../../components/network/thread/subg_openthread/src/core/net/nd6.cpp:124:80
	ubfx	r0, r0, #3, #2
.Ltmp68:
	@DEBUG_VALUE: RoutePreferenceFromValue:aValue <- undef
	.loc	4 145 41 is_stmt 1              @ ../../../components/network/thread/subg_openthread/src/core\thread/network_data_types.hpp:145:41
	b	_ZN2ot10Preference12From2BitUintEh
.Ltmp69:
.Lfunc_end11:
	.size	_ZNK2ot3Ip62Nd15RouteInfoOption13GetPreferenceEv, .Lfunc_end11-_ZNK2ot3Ip62Nd15RouteInfoOption13GetPreferenceEv
	.cfi_endproc
	.cantunwind
	.fnend
                                        @ -- End function
	.section	.text._ZN2ot3Ip62Nd15RouteInfoOption9SetPrefixERKNS0_6PrefixE,"ax",%progbits
	.hidden	_ZN2ot3Ip62Nd15RouteInfoOption9SetPrefixERKNS0_6PrefixE @ -- Begin function _ZN2ot3Ip62Nd15RouteInfoOption9SetPrefixERKNS0_6PrefixE
	.globl	_ZN2ot3Ip62Nd15RouteInfoOption9SetPrefixERKNS0_6PrefixE
	.p2align	1
	.type	_ZN2ot3Ip62Nd15RouteInfoOption9SetPrefixERKNS0_6PrefixE,%function
	.code	16                              @ @_ZN2ot3Ip62Nd15RouteInfoOption9SetPrefixERKNS0_6PrefixE
	.thumb_func
_ZN2ot3Ip62Nd15RouteInfoOption9SetPrefixERKNS0_6PrefixE:
.Lfunc_begin12:
	.loc	12 128 0                        @ ../../../components/network/thread/subg_openthread/src/core/net/nd6.cpp:128:0
	.fnstart
	.cfi_startproc
@ %bb.0:
	@DEBUG_VALUE: SetPrefix:this <- $r0
	@DEBUG_VALUE: SetPrefix:aPrefix <- $r1
	.loc	12 129 45 prologue_end          @ ../../../components/network/thread/subg_openthread/src/core/net/nd6.cpp:129:45
	ldrb	r3, [r1, #16]
	mov	r12, r0
	@DEBUG_VALUE: SetPrefix:aPrefix <- $r1
.Ltmp70:
	@DEBUG_VALUE: SetPrefix:this <- $r12
	.loc	12 0 45 is_stmt 0               @ ../../../components/network/thread/subg_openthread/src/core/net/nd6.cpp:0:45
	movs	r0, #3
.Ltmp71:
	@DEBUG_VALUE: OptionLengthForPrefix:aPrefixLength <- $r3
	.loc	12 157 9 is_stmt 1              @ ../../../components/network/thread/subg_openthread/src/core/net/nd6.cpp:157:9
	cmp	r3, #65
	it	lo
	movlo	r0, #2
	cmp	r3, #0
	it	eq
	moveq	r0, #1
.Ltmp72:
	@DEBUG_VALUE: SetLength:this <- $r12
	@DEBUG_VALUE: SetLength:aLength <- $r0
	.loc	7 280 60                        @ ../../../components/network/thread/subg_openthread/src/core\net/ip6_address.hpp:280:60
	adds	r2, r3, #7
.Ltmp73:
	.loc	2 125 47                        @ ../../../components/network/thread/subg_openthread/src/core/net/nd6.hpp:125:47
	strb.w	r0, [r12, #1]
.Ltmp74:
	.loc	2 450 96                        @ ../../../components/network/thread/subg_openthread/src/core/net/nd6.hpp:450:96
	add.w	r0, r12, #8
.Ltmp75:
	@DEBUG_VALUE: SizeForLength:aLength <- $r3
	@DEBUG_VALUE: GetBytesSize:this <- $r1
	@DEBUG_VALUE: GetBytes:this <- $r1
	.loc	7 280 60                        @ ../../../components/network/thread/subg_openthread/src/core\net/ip6_address.hpp:280:60
	lsrs	r2, r2, #3
.Ltmp76:
	.loc	12 130 19                       @ ../../../components/network/thread/subg_openthread/src/core/net/nd6.cpp:130:19
	strb.w	r3, [r12, #2]
	@DEBUG_VALUE: GetPrefixBytes:this <- undef
	@DEBUG_VALUE: GetPrefixBytes:this <- undef
.Ltmp77:
	.loc	12 131 5                        @ ../../../components/network/thread/subg_openthread/src/core/net/nd6.cpp:131:5
	b	__aeabi_memcpy
.Ltmp78:
.Lfunc_end12:
	.size	_ZN2ot3Ip62Nd15RouteInfoOption9SetPrefixERKNS0_6PrefixE, .Lfunc_end12-_ZN2ot3Ip62Nd15RouteInfoOption9SetPrefixERKNS0_6PrefixE
	.cfi_endproc
	.cantunwind
	.fnend
                                        @ -- End function
	.section	.text._ZN2ot3Ip62Nd15RouteInfoOption21OptionLengthForPrefixEh,"ax",%progbits
	.hidden	_ZN2ot3Ip62Nd15RouteInfoOption21OptionLengthForPrefixEh @ -- Begin function _ZN2ot3Ip62Nd15RouteInfoOption21OptionLengthForPrefixEh
	.globl	_ZN2ot3Ip62Nd15RouteInfoOption21OptionLengthForPrefixEh
	.p2align	1
	.type	_ZN2ot3Ip62Nd15RouteInfoOption21OptionLengthForPrefixEh,%function
	.code	16                              @ @_ZN2ot3Ip62Nd15RouteInfoOption21OptionLengthForPrefixEh
	.thumb_func
_ZN2ot3Ip62Nd15RouteInfoOption21OptionLengthForPrefixEh:
.Lfunc_begin13:
	.loc	12 144 0                        @ ../../../components/network/thread/subg_openthread/src/core/net/nd6.cpp:144:0
	.fnstart
	.cfi_startproc
@ %bb.0:
	@DEBUG_VALUE: OptionLengthForPrefix:aPrefixLength <- $r0
	@DEBUG_VALUE: OptionLengthForPrefix:aPrefixLength <- $r0
	.loc	12 157 9 prologue_end           @ ../../../components/network/thread/subg_openthread/src/core/net/nd6.cpp:157:9
	cbz	r0, .LBB13_2
.Ltmp79:
@ %bb.1:
	@DEBUG_VALUE: OptionLengthForPrefix:aPrefixLength <- $r0
	.loc	12 0 9 is_stmt 0                @ ../../../components/network/thread/subg_openthread/src/core/net/nd6.cpp:0:9
	movs	r1, #3
.Ltmp80:
	.loc	12 161 14 is_stmt 1             @ ../../../components/network/thread/subg_openthread/src/core/net/nd6.cpp:161:14
	cmp	r0, #65
	it	lo
	movlo	r1, #2
	mov	r0, r1
.Ltmp81:
	@DEBUG_VALUE: OptionLengthForPrefix:aPrefixLength <- [DW_OP_LLVM_entry_value 1] $r0
	bx	lr
.Ltmp82:
.LBB13_2:
	@DEBUG_VALUE: OptionLengthForPrefix:aPrefixLength <- $r0
	@DEBUG_VALUE: OptionLengthForPrefix:length <- 1
	.loc	12 170 5                        @ ../../../components/network/thread/subg_openthread/src/core/net/nd6.cpp:170:5
	movs	r0, #1
.Ltmp83:
	@DEBUG_VALUE: OptionLengthForPrefix:aPrefixLength <- [DW_OP_LLVM_entry_value 1] $r0
	bx	lr
.Ltmp84:
.Lfunc_end13:
	.size	_ZN2ot3Ip62Nd15RouteInfoOption21OptionLengthForPrefixEh, .Lfunc_end13-_ZN2ot3Ip62Nd15RouteInfoOption21OptionLengthForPrefixEh
	.cfi_endproc
	.cantunwind
	.fnend
                                        @ -- End function
	.section	.text._ZNK2ot3Ip62Nd15RouteInfoOption9GetPrefixERNS0_6PrefixE,"ax",%progbits
	.hidden	_ZNK2ot3Ip62Nd15RouteInfoOption9GetPrefixERNS0_6PrefixE @ -- Begin function _ZNK2ot3Ip62Nd15RouteInfoOption9GetPrefixERNS0_6PrefixE
	.globl	_ZNK2ot3Ip62Nd15RouteInfoOption9GetPrefixERNS0_6PrefixE
	.p2align	1
	.type	_ZNK2ot3Ip62Nd15RouteInfoOption9GetPrefixERNS0_6PrefixE,%function
	.code	16                              @ @_ZNK2ot3Ip62Nd15RouteInfoOption9GetPrefixERNS0_6PrefixE
	.thumb_func
_ZNK2ot3Ip62Nd15RouteInfoOption9GetPrefixERNS0_6PrefixE:
.Lfunc_begin14:
	.loc	12 134 0                        @ ../../../components/network/thread/subg_openthread/src/core/net/nd6.cpp:134:0
	.fnstart
	.cfi_startproc
@ %bb.0:
	@DEBUG_VALUE: GetPrefix:this <- $r0
	@DEBUG_VALUE: GetPrefix:aPrefix <- $r1
	@DEBUG_VALUE: GetPrefixBytes:this <- $r0
	mov	r3, r1
	@DEBUG_VALUE: GetPrefixBytes:this <- $r0
.Ltmp85:
	@DEBUG_VALUE: GetPrefix:aPrefix <- $r3
	@DEBUG_VALUE: GetPrefix:this <- $r0
	.loc	12 134 88 prologue_end          @ ../../../components/network/thread/subg_openthread/src/core/net/nd6.cpp:134:88
	ldrb	r2, [r0, #2]
.Ltmp86:
	.loc	2 450 96                        @ ../../../components/network/thread/subg_openthread/src/core/net/nd6.hpp:450:96
	add.w	r1, r0, #8
.Ltmp87:
	.loc	12 134 66                       @ ../../../components/network/thread/subg_openthread/src/core/net/nd6.cpp:134:66
	mov	r0, r3
.Ltmp88:
	@DEBUG_VALUE: GetPrefix:aPrefix <- $r0
	@DEBUG_VALUE: GetPrefix:this <- [DW_OP_LLVM_entry_value 1] $r0
	@DEBUG_VALUE: GetPrefix:aPrefix <- $r0
	b	_ZN2ot3Ip66Prefix3SetEPKhh
.Ltmp89:
.Lfunc_end14:
	.size	_ZNK2ot3Ip62Nd15RouteInfoOption9GetPrefixERNS0_6PrefixE, .Lfunc_end14-_ZNK2ot3Ip62Nd15RouteInfoOption9GetPrefixERNS0_6PrefixE
	.cfi_endproc
	.cantunwind
	.fnend
                                        @ -- End function
	.section	.text._ZNK2ot3Ip62Nd15RouteInfoOption7IsValidEv,"ax",%progbits
	.hidden	_ZNK2ot3Ip62Nd15RouteInfoOption7IsValidEv @ -- Begin function _ZNK2ot3Ip62Nd15RouteInfoOption7IsValidEv
	.globl	_ZNK2ot3Ip62Nd15RouteInfoOption7IsValidEv
	.p2align	1
	.type	_ZNK2ot3Ip62Nd15RouteInfoOption7IsValidEv,%function
	.code	16                              @ @_ZNK2ot3Ip62Nd15RouteInfoOption7IsValidEv
	.thumb_func
_ZNK2ot3Ip62Nd15RouteInfoOption7IsValidEv:
.Lfunc_begin15:
	.loc	12 137 0                        @ ../../../components/network/thread/subg_openthread/src/core/net/nd6.cpp:137:0
	.fnstart
	.cfi_startproc
@ %bb.0:
	@DEBUG_VALUE: IsValid:this <- $r0
	@DEBUG_VALUE: IsValid:this <- $r0
	@DEBUG_VALUE: GetSize:this <- $r0
	@DEBUG_VALUE: GetSize:this <- $r0
	.save	{r7, lr}
	push	{r7, lr}
	.cfi_def_cfa_offset 8
	.cfi_offset lr, -4
	.cfi_offset r7, -8
.Ltmp90:
	.loc	2 117 43 prologue_end           @ ../../../components/network/thread/subg_openthread/src/core/net/nd6.hpp:117:43
	ldrb	r1, [r0, #1]
.Ltmp91:
	.loc	12 138 36                       @ ../../../components/network/thread/subg_openthread/src/core/net/nd6.cpp:138:36
	cbz	r1, .LBB15_3
.Ltmp92:
@ %bb.1:
	@DEBUG_VALUE: IsValid:this <- $r0
	.loc	12 138 40 is_stmt 0             @ ../../../components/network/thread/subg_openthread/src/core/net/nd6.cpp:138:40
	ldrb	r2, [r0, #2]
	.loc	12 138 77                       @ ../../../components/network/thread/subg_openthread/src/core/net/nd6.cpp:138:77
	cmp	r2, #128
	bhi	.LBB15_3
.Ltmp93:
@ %bb.2:
	@DEBUG_VALUE: IsValid:this <- $r0
	.loc	12 0 77                         @ ../../../components/network/thread/subg_openthread/src/core/net/nd6.cpp:0:77
	movs	r3, #3
.Ltmp94:
	.loc	12 157 9 is_stmt 1              @ ../../../components/network/thread/subg_openthread/src/core/net/nd6.cpp:157:9
	cmp	r2, #65
	it	lo
	movlo	r3, #2
	cmp	r2, #0
	it	eq
	moveq	r3, #1
.Ltmp95:
	.loc	12 139 66                       @ ../../../components/network/thread/subg_openthread/src/core/net/nd6.cpp:139:66
	cmp	r1, r3
	@DEBUG_VALUE: OptionLengthForPrefix:aPrefixLength <- undef
	bhs	.LBB15_4
.Ltmp96:
.LBB15_3:
	@DEBUG_VALUE: IsValid:this <- $r0
	.loc	12 138 5                        @ ../../../components/network/thread/subg_openthread/src/core/net/nd6.cpp:138:5
	movs	r0, #0
.Ltmp97:
	@DEBUG_VALUE: IsValid:this <- [DW_OP_LLVM_entry_value 1] $r0
	pop	{r7, pc}
.Ltmp98:
.LBB15_4:
	@DEBUG_VALUE: IsValid:this <- $r0
	@DEBUG_VALUE: GetPreference:this <- $r0
	.loc	12 124 51                       @ ../../../components/network/thread/subg_openthread/src/core/net/nd6.cpp:124:51
	ldrb	r0, [r0, #3]
.Ltmp99:
	@DEBUG_VALUE: IsValid:this <- [DW_OP_LLVM_entry_value 1] $r0
	.loc	12 124 80 is_stmt 0             @ ../../../components/network/thread/subg_openthread/src/core/net/nd6.cpp:124:80
	ubfx	r0, r0, #3, #2
.Ltmp100:
	@DEBUG_VALUE: RoutePreferenceFromValue:aValue <- undef
	.loc	4 145 41 is_stmt 1              @ ../../../components/network/thread/subg_openthread/src/core\thread/network_data_types.hpp:145:41
	bl	_ZN2ot10Preference12From2BitUintEh
.Ltmp101:
	@DEBUG_VALUE: IsRoutePreferenceValid:aPref <- undef
	.loc	4 120 59                        @ ../../../components/network/thread/subg_openthread/src/core\thread/network_data_types.hpp:120:59
	pop.w	{r7, lr}
.Ltmp102:
	b	_ZN2ot10Preference7IsValidEa
.Ltmp103:
.Lfunc_end15:
	.size	_ZNK2ot3Ip62Nd15RouteInfoOption7IsValidEv, .Lfunc_end15-_ZNK2ot3Ip62Nd15RouteInfoOption7IsValidEv
	.cfi_endproc
	.cantunwind
	.fnend
                                        @ -- End function
	.section	.text._ZN2ot3Ip62Nd19RouterAdvertMessage6Header12SetToDefaultEv,"ax",%progbits
	.hidden	_ZN2ot3Ip62Nd19RouterAdvertMessage6Header12SetToDefaultEv @ -- Begin function _ZN2ot3Ip62Nd19RouterAdvertMessage6Header12SetToDefaultEv
	.globl	_ZN2ot3Ip62Nd19RouterAdvertMessage6Header12SetToDefaultEv
	.p2align	1
	.type	_ZN2ot3Ip62Nd19RouterAdvertMessage6Header12SetToDefaultEv,%function
	.code	16                              @ @_ZN2ot3Ip62Nd19RouterAdvertMessage6Header12SetToDefaultEv
	.thumb_func
_ZN2ot3Ip62Nd19RouterAdvertMessage6Header12SetToDefaultEv:
.Lfunc_begin16:
	.loc	12 177 0                        @ ../../../components/network/thread/subg_openthread/src/core/net/nd6.cpp:177:0
	.fnstart
	.cfi_startproc
@ %bb.0:
	@DEBUG_VALUE: SetToDefault:this <- $r0
	@DEBUG_VALUE: Clear:this <- $r0
	movs	r1, #0
	@DEBUG_VALUE: Clear:this <- $r0
	@DEBUG_VALUE: SetToDefault:this <- $r0
.Ltmp104:
	.loc	3 55 24 prologue_end            @ ../../../components/network/thread/subg_openthread/src/core\common/clearable.hpp:55:24
	str	r1, [r0, #12]
	str.w	r1, [r0, #9]
	str.w	r1, [r0, #5]
	str.w	r1, [r0, #1]
	movs	r1, #134
.Ltmp105:
	.loc	12 184 11                       @ ../../../components/network/thread/subg_openthread/src/core/net/nd6.cpp:184:11
	strb	r1, [r0]
	.loc	12 185 1                        @ ../../../components/network/thread/subg_openthread/src/core/net/nd6.cpp:185:1
	bx	lr
.Ltmp106:
.Lfunc_end16:
	.size	_ZN2ot3Ip62Nd19RouterAdvertMessage6Header12SetToDefaultEv, .Lfunc_end16-_ZN2ot3Ip62Nd19RouterAdvertMessage6Header12SetToDefaultEv
	.cfi_endproc
	.cantunwind
	.fnend
                                        @ -- End function
	.section	.text._ZNK2ot3Ip62Nd19RouterAdvertMessage6Header26GetDefaultRouterPreferenceEv,"ax",%progbits
	.hidden	_ZNK2ot3Ip62Nd19RouterAdvertMessage6Header26GetDefaultRouterPreferenceEv @ -- Begin function _ZNK2ot3Ip62Nd19RouterAdvertMessage6Header26GetDefaultRouterPreferenceEv
	.globl	_ZNK2ot3Ip62Nd19RouterAdvertMessage6Header26GetDefaultRouterPreferenceEv
	.p2align	1
	.type	_ZNK2ot3Ip62Nd19RouterAdvertMessage6Header26GetDefaultRouterPreferenceEv,%function
	.code	16                              @ @_ZNK2ot3Ip62Nd19RouterAdvertMessage6Header26GetDefaultRouterPreferenceEv
	.thumb_func
_ZNK2ot3Ip62Nd19RouterAdvertMessage6Header26GetDefaultRouterPreferenceEv:
.Lfunc_begin17:
	.loc	12 188 0                        @ ../../../components/network/thread/subg_openthread/src/core/net/nd6.cpp:188:0
	.fnstart
	.cfi_startproc
@ %bb.0:
	@DEBUG_VALUE: GetDefaultRouterPreference:this <- $r0
	@DEBUG_VALUE: GetDefaultRouterPreference:this <- $r0
	.loc	12 189 51 prologue_end          @ ../../../components/network/thread/subg_openthread/src/core/net/nd6.cpp:189:51
	ldrb	r0, [r0, #5]
.Ltmp107:
	@DEBUG_VALUE: GetDefaultRouterPreference:this <- [DW_OP_LLVM_entry_value 1] $r0
	.loc	12 189 77 is_stmt 0             @ ../../../components/network/thread/subg_openthread/src/core/net/nd6.cpp:189:77
	ubfx	r0, r0, #3, #2
.Ltmp108:
	@DEBUG_VALUE: RoutePreferenceFromValue:aValue <- undef
	.loc	4 145 41 is_stmt 1              @ ../../../components/network/thread/subg_openthread/src/core\thread/network_data_types.hpp:145:41
	b	_ZN2ot10Preference12From2BitUintEh
.Ltmp109:
.Lfunc_end17:
	.size	_ZNK2ot3Ip62Nd19RouterAdvertMessage6Header26GetDefaultRouterPreferenceEv, .Lfunc_end17-_ZNK2ot3Ip62Nd19RouterAdvertMessage6Header26GetDefaultRouterPreferenceEv
	.cfi_endproc
	.cantunwind
	.fnend
                                        @ -- End function
	.section	.text._ZN2ot3Ip62Nd19RouterAdvertMessage6Header26SetDefaultRouterPreferenceENS_11NetworkData15RoutePreferenceE,"ax",%progbits
	.hidden	_ZN2ot3Ip62Nd19RouterAdvertMessage6Header26SetDefaultRouterPreferenceENS_11NetworkData15RoutePreferenceE @ -- Begin function _ZN2ot3Ip62Nd19RouterAdvertMessage6Header26SetDefaultRouterPreferenceENS_11NetworkData15RoutePreferenceE
	.globl	_ZN2ot3Ip62Nd19RouterAdvertMessage6Header26SetDefaultRouterPreferenceENS_11NetworkData15RoutePreferenceE
	.p2align	1
	.type	_ZN2ot3Ip62Nd19RouterAdvertMessage6Header26SetDefaultRouterPreferenceENS_11NetworkData15RoutePreferenceE,%function
	.code	16                              @ @_ZN2ot3Ip62Nd19RouterAdvertMessage6Header26SetDefaultRouterPreferenceENS_11NetworkData15RoutePreferenceE
	.thumb_func
_ZN2ot3Ip62Nd19RouterAdvertMessage6Header26SetDefaultRouterPreferenceENS_11NetworkData15RoutePreferenceE:
.Lfunc_begin18:
	.loc	12 193 0                        @ ../../../components/network/thread/subg_openthread/src/core/net/nd6.cpp:193:0
	.fnstart
	.cfi_startproc
@ %bb.0:
	@DEBUG_VALUE: SetDefaultRouterPreference:this <- $r0
	@DEBUG_VALUE: SetDefaultRouterPreference:aPreference <- $r1
	.save	{r4, lr}
	push	{r4, lr}
	.cfi_def_cfa_offset 8
	.cfi_offset lr, -4
	.cfi_offset r4, -8
.Ltmp110:
	.loc	12 194 12 prologue_end          @ ../../../components/network/thread/subg_openthread/src/core/net/nd6.cpp:194:12
	ldrb	r2, [r0, #5]
	mov	r4, r0
.Ltmp111:
	@DEBUG_VALUE: SetDefaultRouterPreference:this <- $r4
	@DEBUG_VALUE: SetDefaultRouterPreference:this <- $r4
	.loc	12 0 12 is_stmt 0               @ ../../../components/network/thread/subg_openthread/src/core/net/nd6.cpp:0:12
	mov	r0, r1
.Ltmp112:
	@DEBUG_VALUE: SetDefaultRouterPreference:aPreference <- $r0
	@DEBUG_VALUE: SetDefaultRouterPreference:aPreference <- $r0
	.loc	12 194 12                       @ ../../../components/network/thread/subg_openthread/src/core/net/nd6.cpp:194:12
	and	r1, r2, #231
	strb	r1, [r4, #5]
.Ltmp113:
	@DEBUG_VALUE: RoutePreferenceToValue:aPref <- undef
	@DEBUG_VALUE: SetDefaultRouterPreference:aPreference <- $r0
	.loc	4 132 62 is_stmt 1              @ ../../../components/network/thread/subg_openthread/src/core\thread/network_data_types.hpp:132:62
	bl	_ZN2ot10Preference10To2BitUintEa
.Ltmp114:
	.loc	12 195 12                       @ ../../../components/network/thread/subg_openthread/src/core/net/nd6.cpp:195:12
	ldrb	r1, [r4, #5]
	.loc	12 195 87 is_stmt 0             @ ../../../components/network/thread/subg_openthread/src/core/net/nd6.cpp:195:87
	and	r0, r0, #3
	.loc	12 195 12                       @ ../../../components/network/thread/subg_openthread/src/core/net/nd6.cpp:195:12
	orr.w	r0, r1, r0, lsl #3
	strb	r0, [r4, #5]
	.loc	12 196 1 is_stmt 1              @ ../../../components/network/thread/subg_openthread/src/core/net/nd6.cpp:196:1
	pop	{r4, pc}
.Ltmp115:
.Lfunc_end18:
	.size	_ZN2ot3Ip62Nd19RouterAdvertMessage6Header26SetDefaultRouterPreferenceENS_11NetworkData15RoutePreferenceE, .Lfunc_end18-_ZN2ot3Ip62Nd19RouterAdvertMessage6Header26SetDefaultRouterPreferenceENS_11NetworkData15RoutePreferenceE
	.cfi_endproc
	.cantunwind
	.fnend
                                        @ -- End function
	.section	.text._ZN2ot3Ip62Nd19RouterAdvertMessage12AppendOptionEt,"ax",%progbits
	.hidden	_ZN2ot3Ip62Nd19RouterAdvertMessage12AppendOptionEt @ -- Begin function _ZN2ot3Ip62Nd19RouterAdvertMessage12AppendOptionEt
	.globl	_ZN2ot3Ip62Nd19RouterAdvertMessage12AppendOptionEt
	.p2align	1
	.type	_ZN2ot3Ip62Nd19RouterAdvertMessage12AppendOptionEt,%function
	.code	16                              @ @_ZN2ot3Ip62Nd19RouterAdvertMessage12AppendOptionEt
	.thumb_func
_ZN2ot3Ip62Nd19RouterAdvertMessage12AppendOptionEt:
.Lfunc_begin19:
	.loc	12 202 0                        @ ../../../components/network/thread/subg_openthread/src/core/net/nd6.cpp:202:0
	.fnstart
	.cfi_startproc
@ %bb.0:
	@DEBUG_VALUE: AppendOption:this <- $r0
	@DEBUG_VALUE: AppendOption:this <- $r0
	@DEBUG_VALUE: AppendOption:aOptionSize <- $r1
	@DEBUG_VALUE: AppendOption:aOptionSize <- $r1
	@DEBUG_VALUE: GetLength:this <- $r0
	@DEBUG_VALUE: GetLength:this <- $r0
	@DEBUG_VALUE: AppendOption:option <- 0
	.loc	15 176 47 prologue_end          @ ../../../components/network/thread/subg_openthread/src/core\common/data.hpp:176:47
	ldrh.w	r12, [r0, #4]
.Ltmp116:
	@DEBUG_VALUE: AppendOption:newLength <- $r12
	.loc	12 213 5                        @ ../../../components/network/thread/subg_openthread/src/core/net/nd6.cpp:213:5
	ldrh	r2, [r0, #8]
.Ltmp117:
	.loc	12 212 15                       @ ../../../components/network/thread/subg_openthread/src/core/net/nd6.cpp:212:15
	add.w	r3, r12, r1
.Ltmp118:
	@DEBUG_VALUE: AppendOption:newLength <- $r3
	.loc	12 213 5                        @ ../../../components/network/thread/subg_openthread/src/core/net/nd6.cpp:213:5
	cmp	r3, r2
	bls	.LBB19_2
.Ltmp119:
@ %bb.1:
	@DEBUG_VALUE: AppendOption:newLength <- $r3
	@DEBUG_VALUE: AppendOption:aOptionSize <- $r1
	@DEBUG_VALUE: GetLength:this <- $r0
	@DEBUG_VALUE: AppendOption:this <- $r0
	@DEBUG_VALUE: AppendOption:option <- 0
	.loc	12 0 5 is_stmt 0                @ ../../../components/network/thread/subg_openthread/src/core/net/nd6.cpp:0:5
	movs	r1, #0
.Ltmp120:
	@DEBUG_VALUE: AppendOption:aOptionSize <- [DW_OP_LLVM_entry_value 1] $r1
	b	.LBB19_3
.Ltmp121:
.LBB19_2:
	@DEBUG_VALUE: AppendOption:newLength <- $r3
	@DEBUG_VALUE: AppendOption:aOptionSize <- $r1
	@DEBUG_VALUE: AppendOption:this <- $r0
	@DEBUG_VALUE: AppendOption:option <- 0
	@DEBUG_VALUE: GetDataEnd:this <- $r0
	@DEBUG_VALUE: GetBytes:this <- $r0
	.loc	15 168 50 is_stmt 1             @ ../../../components/network/thread/subg_openthread/src/core\common/data.hpp:168:50
	ldr	r1, [r0]
.Ltmp122:
	@DEBUG_VALUE: AppendOption:aOptionSize <- [DW_OP_LLVM_entry_value 1] $r1
	@DEBUG_VALUE: GetLength:this <- $r0
	.loc	15 184 50                       @ ../../../components/network/thread/subg_openthread/src/core\common/data.hpp:184:50
	strh	r3, [r0, #4]
.Ltmp123:
	.loc	2 671 69                        @ ../../../components/network/thread/subg_openthread/src/core/net/nd6.hpp:671:69
	add	r1, r12
.Ltmp124:
	@DEBUG_VALUE: SetLength:aLength <- undef
	@DEBUG_VALUE: SetLength:this <- $r0
	@DEBUG_VALUE: AppendOption:option <- undef
.LBB19_3:
	@DEBUG_VALUE: AppendOption:newLength <- $r3
	@DEBUG_VALUE: AppendOption:this <- $r0
	@DEBUG_VALUE: AppendOption:aOptionSize <- [DW_OP_LLVM_entry_value 1] $r1
	@DEBUG_VALUE: AppendOption:option <- $r1
	@DEBUG_LABEL: AppendOption:exit
	.loc	12 219 5                        @ ../../../components/network/thread/subg_openthread/src/core/net/nd6.cpp:219:5
	mov	r0, r1
.Ltmp125:
	@DEBUG_VALUE: AppendOption:option <- $r0
	@DEBUG_VALUE: AppendOption:this <- [DW_OP_LLVM_entry_value 1] $r0
	bx	lr
.Ltmp126:
.Lfunc_end19:
	.size	_ZN2ot3Ip62Nd19RouterAdvertMessage12AppendOptionEt, .Lfunc_end19-_ZN2ot3Ip62Nd19RouterAdvertMessage12AppendOptionEt
	.cfi_endproc
	.cantunwind
	.fnend
                                        @ -- End function
	.section	.text._ZN2ot3Ip62Nd19RouterAdvertMessage22AppendPrefixInfoOptionERKNS0_6PrefixEjj,"ax",%progbits
	.hidden	_ZN2ot3Ip62Nd19RouterAdvertMessage22AppendPrefixInfoOptionERKNS0_6PrefixEjj @ -- Begin function _ZN2ot3Ip62Nd19RouterAdvertMessage22AppendPrefixInfoOptionERKNS0_6PrefixEjj
	.globl	_ZN2ot3Ip62Nd19RouterAdvertMessage22AppendPrefixInfoOptionERKNS0_6PrefixEjj
	.p2align	1
	.type	_ZN2ot3Ip62Nd19RouterAdvertMessage22AppendPrefixInfoOptionERKNS0_6PrefixEjj,%function
	.code	16                              @ @_ZN2ot3Ip62Nd19RouterAdvertMessage22AppendPrefixInfoOptionERKNS0_6PrefixEjj
	.thumb_func
_ZN2ot3Ip62Nd19RouterAdvertMessage22AppendPrefixInfoOptionERKNS0_6PrefixEjj:
.Lfunc_begin20:
	.loc	12 225 0                        @ ../../../components/network/thread/subg_openthread/src/core/net/nd6.cpp:225:0
	.fnstart
	.cfi_startproc
@ %bb.0:
	@DEBUG_VALUE: AppendPrefixInfoOption:this <- $r0
	@DEBUG_VALUE: AppendPrefixInfoOption:aPrefix <- $r1
	@DEBUG_VALUE: AppendPrefixInfoOption:aValidLifetime <- $r2
	@DEBUG_VALUE: AppendPrefixInfoOption:aPreferredLifetime <- $r3
	@DEBUG_VALUE: AppendOption:this <- $r0
	@DEBUG_VALUE: GetLength:this <- $r0
	.save	{r4, r5, r6, r7, lr}
	push	{r4, r5, r6, r7, lr}
	.cfi_def_cfa_offset 20
	.cfi_offset lr, -4
	.cfi_offset r7, -8
	.cfi_offset r6, -12
	.cfi_offset r5, -16
	.cfi_offset r4, -20
	.pad	#4
	sub	sp, #4
	.cfi_def_cfa_offset 24
	mov	r6, r2
.Ltmp127:
	@DEBUG_VALUE: AppendPrefixInfoOption:aValidLifetime <- $r6
	@DEBUG_VALUE: AppendOption:option <- 0
	@DEBUG_VALUE: AppendOption:aOptionSize <- 32
	@DEBUG_VALUE: AppendPrefixInfoOption:error <- 0
	@DEBUG_VALUE: GetLength:this <- $r0
	@DEBUG_VALUE: AppendOption:this <- $r0
	@DEBUG_VALUE: AppendPrefixInfoOption:aPreferredLifetime <- $r5
	@DEBUG_VALUE: AppendPrefixInfoOption:aValidLifetime <- $r6
	@DEBUG_VALUE: AppendPrefixInfoOption:this <- $r0
	.loc	15 176 47 prologue_end          @ ../../../components/network/thread/subg_openthread/src/core\common/data.hpp:176:47
	ldrh	r2, [r0, #4]
.Ltmp128:
	@DEBUG_VALUE: AppendOption:newLength <- $r2
	.loc	12 213 5                        @ ../../../components/network/thread/subg_openthread/src/core/net/nd6.cpp:213:5
	ldrh	r4, [r0, #8]
	mov	r5, r3
.Ltmp129:
	.loc	12 212 15                       @ ../../../components/network/thread/subg_openthread/src/core/net/nd6.cpp:212:15
	add.w	r3, r2, #32
.Ltmp130:
	@DEBUG_VALUE: AppendOption:newLength <- $r3
	.loc	12 213 5                        @ ../../../components/network/thread/subg_openthread/src/core/net/nd6.cpp:213:5
	cmp	r3, r4
	@DEBUG_VALUE: AppendPrefixInfoOption:aPrefix <- $r1
	bhi	.LBB20_3
.Ltmp131:
@ %bb.1:
	@DEBUG_VALUE: AppendPrefixInfoOption:aValidLifetime <- $r6
	@DEBUG_VALUE: AppendOption:newLength <- $r3
	@DEBUG_VALUE: AppendPrefixInfoOption:aPrefix <- $r1
	@DEBUG_VALUE: AppendOption:this <- $r0
	@DEBUG_VALUE: AppendPrefixInfoOption:this <- $r0
	@DEBUG_VALUE: AppendPrefixInfoOption:error <- 0
	@DEBUG_VALUE: AppendOption:aOptionSize <- 32
	@DEBUG_VALUE: AppendOption:option <- 0
	.loc	12 0 5 is_stmt 0                @ ../../../components/network/thread/subg_openthread/src/core/net/nd6.cpp:0:5
	mov	r4, r1
.Ltmp132:
	@DEBUG_VALUE: AppendPrefixInfoOption:aPrefix <- $r4
	@DEBUG_VALUE: AppendPrefixInfoOption:aPrefix <- $r4
	@DEBUG_VALUE: GetDataEnd:this <- $r0
	@DEBUG_VALUE: GetBytes:this <- $r0
	.loc	15 168 50 is_stmt 1             @ ../../../components/network/thread/subg_openthread/src/core\common/data.hpp:168:50
	ldr	r1, [r0]
.Ltmp133:
	@DEBUG_LABEL: AppendOption:exit
	@DEBUG_VALUE: SetLength:aLength <- undef
	@DEBUG_VALUE: GetLength:this <- $r0
	@DEBUG_VALUE: AppendOption:option <- undef
	.loc	15 184 50                       @ ../../../components/network/thread/subg_openthread/src/core\common/data.hpp:184:50
	strh	r3, [r0, #4]
.Ltmp134:
	@DEBUG_VALUE: AppendPrefixInfoOption:pio <- undef
	@DEBUG_VALUE: SetLength:this <- $r0
	.loc	12 230 5                        @ ../../../components/network/thread/subg_openthread/src/core/net/nd6.cpp:230:5
	cbz	r1, .LBB20_3
.Ltmp135:
@ %bb.2:
	@DEBUG_VALUE: AppendPrefixInfoOption:aValidLifetime <- $r6
	@DEBUG_VALUE: AppendPrefixInfoOption:aPrefix <- $r4
	@DEBUG_VALUE: AppendPrefixInfoOption:this <- $r0
	@DEBUG_VALUE: AppendPrefixInfoOption:error <- 0
	.loc	12 0 0 is_stmt 0                @ ../../../components/network/thread/subg_openthread/src/core/net/nd6.cpp:0:0
	adds	r7, r1, r2
.Ltmp136:
	@DEBUG_VALUE: Clear:this <- $r7
	@DEBUG_VALUE: Init:this <- $r7
	@DEBUG_VALUE: AppendPrefixInfoOption:pio <- $r7
	@DEBUG_VALUE: AppendOption:option <- $r7
	.loc	3 55 24 is_stmt 1               @ ../../../components/network/thread/subg_openthread/src/core\common/clearable.hpp:55:24
	adds	r0, r7, #2
.Ltmp137:
	@DEBUG_VALUE: AppendPrefixInfoOption:this <- [DW_OP_LLVM_entry_value 1] $r0
	movs	r1, #30
	bl	__aeabi_memclr
.Ltmp138:
	.loc	3 0 24 is_stmt 0                @ ../../../components/network/thread/subg_openthread/src/core\common/clearable.hpp:0:24
	movw	r0, #1027
.Ltmp139:
	@DEBUG_VALUE: SetType:aType <- 3
	@DEBUG_VALUE: SetType:this <- $r7
	.loc	2 99 38 is_stmt 1               @ ../../../components/network/thread/subg_openthread/src/core/net/nd6.hpp:99:38
	strh	r0, [r7]
	movs	r0, #192
.Ltmp140:
	@DEBUG_VALUE: SetAutoAddrConfigFlag:this <- $r7
	@DEBUG_VALUE: SetOnLinkFlag:this <- $r7
	@DEBUG_VALUE: SetSize:aSize <- 32
	@DEBUG_VALUE: SetSize:this <- $r7
	.loc	2 223 47                        @ ../../../components/network/thread/subg_openthread/src/core/net/nd6.hpp:223:47
	strb	r0, [r7, #3]
.Ltmp141:
	@DEBUG_VALUE: Swap32:v <- $r6
	@DEBUG_VALUE: HostSwap32:v <- $r6
	@DEBUG_VALUE: SetValidLifetime:aValidLifetime <- $r6
	@DEBUG_VALUE: SetValidLifetime:this <- $r7
	.loc	40 59 61                        @ ../../../components/network/thread/subg_openthread/src/core\common/encoding.hpp:59:61
	rev	r0, r6
.Ltmp142:
	.loc	12 95 29                        @ ../../../components/network/thread/subg_openthread/src/core/net/nd6.cpp:95:29
	ldrb	r1, [r4, #16]
.Ltmp143:
	.loc	2 237 69                        @ ../../../components/network/thread/subg_openthread/src/core/net/nd6.hpp:237:69
	str	r0, [r7, #4]
.Ltmp144:
	@DEBUG_VALUE: Swap32:v <- $r5
	@DEBUG_VALUE: HostSwap32:v <- $r5
	@DEBUG_VALUE: SetPreferredLifetime:aPreferredLifetime <- $r5
	@DEBUG_VALUE: SetPreferredLifetime:this <- $r7
	.loc	40 59 61                        @ ../../../components/network/thread/subg_openthread/src/core\common/encoding.hpp:59:61
	rev	r0, r5
.Ltmp145:
	.loc	2 253 81                        @ ../../../components/network/thread/subg_openthread/src/core/net/nd6.hpp:253:81
	str	r0, [r7, #8]
.Ltmp146:
	@DEBUG_VALUE: SetPrefix:aPrefix <- $r4
	@DEBUG_VALUE: SetPrefix:this <- $r7
	@DEBUG_VALUE: SetPreferredLifetime:this <- $r7
	.loc	12 95 19                        @ ../../../components/network/thread/subg_openthread/src/core/net/nd6.cpp:95:19
	strb	r1, [r7, #2]
	.loc	12 96 5                         @ ../../../components/network/thread/subg_openthread/src/core/net/nd6.cpp:96:5
	add.w	r0, r7, #16
	.loc	12 96 19 is_stmt 0              @ ../../../components/network/thread/subg_openthread/src/core/net/nd6.cpp:96:19
	mov	r1, r4
	movs	r2, #16
	bl	__aeabi_memcpy
.Ltmp147:
	.loc	12 0 19                         @ ../../../components/network/thread/subg_openthread/src/core/net/nd6.cpp:0:19
	movs	r0, #0
	b	.LBB20_4
.Ltmp148:
.LBB20_3:
	@DEBUG_VALUE: AppendPrefixInfoOption:aValidLifetime <- $r6
	@DEBUG_VALUE: AppendOption:newLength <- $r3
	@DEBUG_VALUE: AppendOption:this <- $r0
	@DEBUG_VALUE: AppendPrefixInfoOption:this <- $r0
	@DEBUG_VALUE: AppendPrefixInfoOption:error <- 0
	@DEBUG_VALUE: AppendOption:aOptionSize <- 32
	movs	r0, #3
.Ltmp149:
	@DEBUG_VALUE: AppendPrefixInfoOption:this <- [DW_OP_LLVM_entry_value 1] $r0
.LBB20_4:
	@DEBUG_VALUE: AppendPrefixInfoOption:aValidLifetime <- $r6
	@DEBUG_VALUE: AppendPrefixInfoOption:this <- [DW_OP_LLVM_entry_value 1] $r0
	@DEBUG_VALUE: AppendPrefixInfoOption:error <- 0
	@DEBUG_VALUE: AppendPrefixInfoOption:error <- $r0
	@DEBUG_LABEL: AppendPrefixInfoOption:exit
	.loc	12 240 5 is_stmt 1              @ ../../../components/network/thread/subg_openthread/src/core/net/nd6.cpp:240:5
	add	sp, #4
	pop	{r4, r5, r6, r7, pc}
.Ltmp150:
.Lfunc_end20:
	.size	_ZN2ot3Ip62Nd19RouterAdvertMessage22AppendPrefixInfoOptionERKNS0_6PrefixEjj, .Lfunc_end20-_ZN2ot3Ip62Nd19RouterAdvertMessage22AppendPrefixInfoOptionERKNS0_6PrefixEjj
	.cfi_endproc
	.cantunwind
	.fnend
                                        @ -- End function
	.section	.text._ZN2ot3Ip62Nd19RouterAdvertMessage21AppendRouteInfoOptionERKNS0_6PrefixEjNS_11NetworkData15RoutePreferenceE,"ax",%progbits
	.hidden	_ZN2ot3Ip62Nd19RouterAdvertMessage21AppendRouteInfoOptionERKNS0_6PrefixEjNS_11NetworkData15RoutePreferenceE @ -- Begin function _ZN2ot3Ip62Nd19RouterAdvertMessage21AppendRouteInfoOptionERKNS0_6PrefixEjNS_11NetworkData15RoutePreferenceE
	.globl	_ZN2ot3Ip62Nd19RouterAdvertMessage21AppendRouteInfoOptionERKNS0_6PrefixEjNS_11NetworkData15RoutePreferenceE
	.p2align	1
	.type	_ZN2ot3Ip62Nd19RouterAdvertMessage21AppendRouteInfoOptionERKNS0_6PrefixEjNS_11NetworkData15RoutePreferenceE,%function
	.code	16                              @ @_ZN2ot3Ip62Nd19RouterAdvertMessage21AppendRouteInfoOptionERKNS0_6PrefixEjNS_11NetworkData15RoutePreferenceE
	.thumb_func
_ZN2ot3Ip62Nd19RouterAdvertMessage21AppendRouteInfoOptionERKNS0_6PrefixEjNS_11NetworkData15RoutePreferenceE:
.Lfunc_begin21:
	.loc	12 246 0                        @ ../../../components/network/thread/subg_openthread/src/core/net/nd6.cpp:246:0
	.fnstart
	.cfi_startproc
@ %bb.0:
	@DEBUG_VALUE: AppendRouteInfoOption:this <- $r0
	@DEBUG_VALUE: AppendRouteInfoOption:aPrefix <- $r1
	@DEBUG_VALUE: AppendRouteInfoOption:aRouteLifetime <- $r2
	@DEBUG_VALUE: AppendRouteInfoOption:aPreference <- $r3
	@DEBUG_VALUE: GetLength:this <- $r1
	.save	{r4, r5, r6, lr}
	push	{r4, r5, r6, lr}
	.cfi_def_cfa_offset 16
	.cfi_offset lr, -4
	.cfi_offset r6, -8
	.cfi_offset r5, -12
	.cfi_offset r4, -16
	mov	r6, r1
.Ltmp151:
	@DEBUG_VALUE: AppendRouteInfoOption:error <- 0
	@DEBUG_VALUE: GetLength:this <- $r6
	@DEBUG_VALUE: AppendRouteInfoOption:aPreference <- $r3
	@DEBUG_VALUE: AppendRouteInfoOption:aPrefix <- $r6
	@DEBUG_VALUE: AppendRouteInfoOption:this <- $r0
	.loc	7 132 44 prologue_end           @ ../../../components/network/thread/subg_openthread/src/core\net/ip6_address.hpp:132:44
	ldrb	r1, [r1, #16]
	movs	r5, #24
.Ltmp152:
	@DEBUG_VALUE: OptionLengthForPrefix:aPrefixLength <- $r1
	@DEBUG_VALUE: OptionSizeForPrefix:aPrefixLength <- $r1
	.loc	12 157 9                        @ ../../../components/network/thread/subg_openthread/src/core/net/nd6.cpp:157:9
	cmp	r1, #65
	it	lo
	movlo	r5, #16
	cmp	r1, #0
	it	eq
	moveq	r5, #8
.Ltmp153:
	@DEBUG_VALUE: AppendOption:option <- 0
	@DEBUG_VALUE: AppendOption:aOptionSize <- [DW_OP_LLVM_convert 8 7, DW_OP_LLVM_convert 16 7, DW_OP_stack_value] undef
	@DEBUG_VALUE: GetLength:this <- $r0
	@DEBUG_VALUE: AppendOption:this <- $r0
	.loc	15 176 47                       @ ../../../components/network/thread/subg_openthread/src/core\common/data.hpp:176:47
	ldrh	r1, [r0, #4]
.Ltmp154:
	@DEBUG_VALUE: AppendOption:newLength <- $r1
	.loc	12 213 5                        @ ../../../components/network/thread/subg_openthread/src/core/net/nd6.cpp:213:5
	ldrh	r4, [r0, #8]
.Ltmp155:
	.loc	12 212 15                       @ ../../../components/network/thread/subg_openthread/src/core/net/nd6.cpp:212:15
	add	r5, r1
.Ltmp156:
	@DEBUG_VALUE: AppendOption:newLength <- $r5
	.loc	12 213 5                        @ ../../../components/network/thread/subg_openthread/src/core/net/nd6.cpp:213:5
	cmp	r5, r4
	@DEBUG_VALUE: AppendRouteInfoOption:aRouteLifetime <- $r2
	bls	.LBB21_2
.Ltmp157:
@ %bb.1:
	@DEBUG_VALUE: AppendRouteInfoOption:aPrefix <- $r6
	@DEBUG_VALUE: GetLength:this <- $r6
	@DEBUG_VALUE: AppendOption:newLength <- $r5
	@DEBUG_VALUE: AppendRouteInfoOption:aPreference <- $r3
	@DEBUG_VALUE: AppendRouteInfoOption:aRouteLifetime <- $r2
	@DEBUG_VALUE: AppendOption:this <- $r0
	@DEBUG_VALUE: GetLength:this <- $r0
	@DEBUG_VALUE: AppendRouteInfoOption:this <- $r0
	@DEBUG_VALUE: AppendOption:option <- 0
	@DEBUG_VALUE: AppendRouteInfoOption:error <- 0
	.loc	12 0 5 is_stmt 0                @ ../../../components/network/thread/subg_openthread/src/core/net/nd6.cpp:0:5
	movs	r5, #3
.Ltmp158:
	b	.LBB21_4
.Ltmp159:
.LBB21_2:
	@DEBUG_VALUE: AppendRouteInfoOption:aPrefix <- $r6
	@DEBUG_VALUE: AppendOption:newLength <- $r5
	@DEBUG_VALUE: AppendRouteInfoOption:aPreference <- $r3
	@DEBUG_VALUE: AppendRouteInfoOption:aRouteLifetime <- $r2
	@DEBUG_VALUE: AppendOption:this <- $r0
	@DEBUG_VALUE: AppendRouteInfoOption:this <- $r0
	@DEBUG_VALUE: AppendOption:option <- 0
	@DEBUG_VALUE: AppendRouteInfoOption:error <- 0
	@DEBUG_VALUE: AppendRouteInfoOption:aPreference <- $r3
	@DEBUG_VALUE: GetDataEnd:this <- $r0
	@DEBUG_VALUE: GetBytes:this <- $r0
	.loc	15 168 50 is_stmt 1             @ ../../../components/network/thread/subg_openthread/src/core\common/data.hpp:168:50
	ldr	r4, [r0]
.Ltmp160:
	@DEBUG_VALUE: SetLength:aLength <- undef
	@DEBUG_VALUE: SetLength:this <- $r0
	@DEBUG_VALUE: GetLength:this <- $r0
	@DEBUG_VALUE: AppendOption:option <- undef
	.loc	15 184 50                       @ ../../../components/network/thread/subg_openthread/src/core\common/data.hpp:184:50
	strh	r5, [r0, #4]
.Ltmp161:
	@DEBUG_LABEL: AppendOption:exit
	.loc	15 0 50 is_stmt 0               @ ../../../components/network/thread/subg_openthread/src/core\common/data.hpp:0:50
	mov.w	r5, #3
.Ltmp162:
	@DEBUG_VALUE: AppendRouteInfoOption:rio <- undef
	.loc	12 251 5 is_stmt 1              @ ../../../components/network/thread/subg_openthread/src/core/net/nd6.cpp:251:5
	cbz	r4, .LBB21_4
.Ltmp163:
@ %bb.3:
	@DEBUG_VALUE: AppendRouteInfoOption:aPrefix <- $r6
	@DEBUG_VALUE: AppendRouteInfoOption:aPreference <- $r3
	@DEBUG_VALUE: AppendRouteInfoOption:aRouteLifetime <- $r2
	@DEBUG_VALUE: AppendRouteInfoOption:this <- $r0
	@DEBUG_VALUE: AppendRouteInfoOption:error <- 0
	@DEBUG_VALUE: AppendRouteInfoOption:aPreference <- $r3
	.loc	12 0 0 is_stmt 0                @ ../../../components/network/thread/subg_openthread/src/core/net/nd6.cpp:0:0
	add	r4, r1
.Ltmp164:
	@DEBUG_VALUE: AppendRouteInfoOption:rio <- $r4
	@DEBUG_VALUE: AppendOption:option <- $r4
	movs	r0, #24
.Ltmp165:
	@DEBUG_VALUE: AppendRouteInfoOption:this <- [DW_OP_LLVM_entry_value 1] $r0
	@DEBUG_VALUE: Clear:this <- $r4
	@DEBUG_VALUE: Init:this <- $r4
	.loc	3 55 24 is_stmt 1               @ ../../../components/network/thread/subg_openthread/src/core\common/clearable.hpp:55:24
	str	r0, [r4]
.Ltmp166:
	@DEBUG_VALUE: Swap32:v <- $r2
	@DEBUG_VALUE: HostSwap32:v <- $r2
	@DEBUG_VALUE: SetRouteLifetime:aLifetime <- $r2
	@DEBUG_VALUE: SetRouteLifetime:this <- $r4
	.loc	40 59 61                        @ ../../../components/network/thread/subg_openthread/src/core\common/encoding.hpp:59:61
	rev	r0, r2
.Ltmp167:
	.loc	2 369 64                        @ ../../../components/network/thread/subg_openthread/src/core/net/nd6.hpp:369:64
	str	r0, [r4, #4]
.Ltmp168:
	@DEBUG_VALUE: RoutePreferenceToValue:aPref <- $r3
	@DEBUG_VALUE: SetPreference:aPreference <- $r3
	@DEBUG_VALUE: SetPreference:this <- $r4
	.loc	4 132 62                        @ ../../../components/network/thread/subg_openthread/src/core\thread/network_data_types.hpp:132:62
	mov	r0, r3
.Ltmp169:
	@DEBUG_VALUE: AppendRouteInfoOption:aPreference <- $r0
	bl	_ZN2ot10Preference10To2BitUintEa
.Ltmp170:
	@DEBUG_VALUE: AppendRouteInfoOption:aRouteLifetime <- [DW_OP_LLVM_entry_value 1] $r2
	@DEBUG_VALUE: AppendRouteInfoOption:aPreference <- [DW_OP_LLVM_entry_value 1] $r3
	.loc	12 119 15                       @ ../../../components/network/thread/subg_openthread/src/core/net/nd6.cpp:119:15
	ldrb	r1, [r4, #3]
	.loc	12 119 90 is_stmt 0             @ ../../../components/network/thread/subg_openthread/src/core/net/nd6.cpp:119:90
	and	r0, r0, #3
	.loc	12 119 15                       @ ../../../components/network/thread/subg_openthread/src/core/net/nd6.cpp:119:15
	orr.w	r0, r1, r0, lsl #3
.Ltmp171:
	.loc	12 129 45 is_stmt 1             @ ../../../components/network/thread/subg_openthread/src/core/net/nd6.cpp:129:45
	ldrb	r1, [r6, #16]
.Ltmp172:
	.loc	12 119 15                       @ ../../../components/network/thread/subg_openthread/src/core/net/nd6.cpp:119:15
	strb	r0, [r4, #3]
.Ltmp173:
	@DEBUG_VALUE: SetPrefix:aPrefix <- $r6
	@DEBUG_VALUE: SetPrefix:this <- $r4
	@DEBUG_VALUE: OptionLengthForPrefix:aPrefixLength <- $r1
	@DEBUG_VALUE: SetPreference:this <- $r4
	.loc	12 157 9                        @ ../../../components/network/thread/subg_openthread/src/core/net/nd6.cpp:157:9
	cmp	r1, #65
	it	lo
	movlo	r5, #2
	cmp	r1, #0
	it	eq
	moveq	r5, #1
.Ltmp174:
	@DEBUG_VALUE: SetLength:this <- $r4
	@DEBUG_VALUE: SetLength:aLength <- $r5
	.loc	12 130 19                       @ ../../../components/network/thread/subg_openthread/src/core/net/nd6.cpp:130:19
	strb	r1, [r4, #2]
.Ltmp175:
	@DEBUG_VALUE: GetPrefixBytes:this <- undef
	@DEBUG_VALUE: GetPrefixBytes:this <- undef
	.loc	7 280 60                        @ ../../../components/network/thread/subg_openthread/src/core\net/ip6_address.hpp:280:60
	adds	r1, #7
.Ltmp176:
	.loc	2 450 96                        @ ../../../components/network/thread/subg_openthread/src/core/net/nd6.hpp:450:96
	add.w	r0, r4, #8
.Ltmp177:
	@DEBUG_VALUE: SizeForLength:aLength <- $r1
	@DEBUG_VALUE: GetBytesSize:this <- $r6
	@DEBUG_VALUE: GetBytes:this <- $r6
	.loc	7 280 60                        @ ../../../components/network/thread/subg_openthread/src/core\net/ip6_address.hpp:280:60
	lsrs	r2, r1, #3
.Ltmp178:
	.loc	12 131 5                        @ ../../../components/network/thread/subg_openthread/src/core/net/nd6.cpp:131:5
	mov	r1, r6
.Ltmp179:
	.loc	2 125 47                        @ ../../../components/network/thread/subg_openthread/src/core/net/nd6.hpp:125:47
	strb	r5, [r4, #1]
.Ltmp180:
	.loc	12 131 5                        @ ../../../components/network/thread/subg_openthread/src/core/net/nd6.cpp:131:5
	bl	__aeabi_memcpy
.Ltmp181:
	.loc	12 0 5 is_stmt 0                @ ../../../components/network/thread/subg_openthread/src/core/net/nd6.cpp:0:5
	movs	r5, #0
.Ltmp182:
.LBB21_4:
	@DEBUG_VALUE: AppendRouteInfoOption:aPrefix <- $r6
	@DEBUG_VALUE: AppendRouteInfoOption:error <- 0
	@DEBUG_VALUE: AppendRouteInfoOption:error <- $r5
	@DEBUG_LABEL: AppendRouteInfoOption:exit
	.loc	12 259 5 is_stmt 1              @ ../../../components/network/thread/subg_openthread/src/core/net/nd6.cpp:259:5
	mov	r0, r5
.Ltmp183:
	@DEBUG_VALUE: AppendRouteInfoOption:error <- $r0
	pop	{r4, r5, r6, pc}
.Ltmp184:
.Lfunc_end21:
	.size	_ZN2ot3Ip62Nd19RouterAdvertMessage21AppendRouteInfoOptionERKNS0_6PrefixEjNS_11NetworkData15RoutePreferenceE, .Lfunc_end21-_ZN2ot3Ip62Nd19RouterAdvertMessage21AppendRouteInfoOptionERKNS0_6PrefixEjNS_11NetworkData15RoutePreferenceE
	.cfi_endproc
	.cantunwind
	.fnend
                                        @ -- End function
	.section	.text._ZN2ot3Ip62Nd20RouterSolicitMessageC2Ev,"ax",%progbits
	.hidden	_ZN2ot3Ip62Nd20RouterSolicitMessageC2Ev @ -- Begin function _ZN2ot3Ip62Nd20RouterSolicitMessageC2Ev
	.globl	_ZN2ot3Ip62Nd20RouterSolicitMessageC2Ev
	.p2align	1
	.type	_ZN2ot3Ip62Nd20RouterSolicitMessageC2Ev,%function
	.code	16                              @ @_ZN2ot3Ip62Nd20RouterSolicitMessageC2Ev
	.thumb_func
_ZN2ot3Ip62Nd20RouterSolicitMessageC2Ev:
.Lfunc_begin22:
	.loc	12 266 0                        @ ../../../components/network/thread/subg_openthread/src/core/net/nd6.cpp:266:0
	.fnstart
	.cfi_startproc
@ %bb.0:
	@DEBUG_VALUE: RouterSolicitMessage:this <- $r0
	movs	r1, #0
.Ltmp185:
	@DEBUG_VALUE: Clear:this <- $r0
	@DEBUG_VALUE: RouterSolicitMessage:this <- $r0
	.loc	3 55 24 prologue_end            @ ../../../components/network/thread/subg_openthread/src/core\common/clearable.hpp:55:24
	str	r1, [r0, #4]
	movs	r1, #133
	str	r1, [r0]
.Ltmp186:
	@DEBUG_VALUE: SetType:aType <- -123
	@DEBUG_VALUE: SetType:this <- undef
	@DEBUG_VALUE: Clear:this <- $r0
	.loc	12 269 1                        @ ../../../components/network/thread/subg_openthread/src/core/net/nd6.cpp:269:1
	bx	lr
.Ltmp187:
.Lfunc_end22:
	.size	_ZN2ot3Ip62Nd20RouterSolicitMessageC2Ev, .Lfunc_end22-_ZN2ot3Ip62Nd20RouterSolicitMessageC2Ev
	.cfi_endproc
	.cantunwind
	.fnend
                                        @ -- End function
	.section	.text._ZN2ot3Ip62Nd22NeighborSolicitMessageC2Ev,"ax",%progbits
	.hidden	_ZN2ot3Ip62Nd22NeighborSolicitMessageC2Ev @ -- Begin function _ZN2ot3Ip62Nd22NeighborSolicitMessageC2Ev
	.globl	_ZN2ot3Ip62Nd22NeighborSolicitMessageC2Ev
	.p2align	1
	.type	_ZN2ot3Ip62Nd22NeighborSolicitMessageC2Ev,%function
	.code	16                              @ @_ZN2ot3Ip62Nd22NeighborSolicitMessageC2Ev
	.thumb_func
_ZN2ot3Ip62Nd22NeighborSolicitMessageC2Ev:
.Lfunc_begin23:
	.loc	12 275 0                        @ ../../../components/network/thread/subg_openthread/src/core/net/nd6.cpp:275:0
	.fnstart
	.cfi_startproc
@ %bb.0:
	@DEBUG_VALUE: NeighborSolicitMessage:this <- $r0
	@DEBUG_VALUE: Clear:this <- $r0
	.save	{r4, lr}
	push	{r4, lr}
	.cfi_def_cfa_offset 8
	.cfi_offset lr, -4
	.cfi_offset r4, -8
	mov	r4, r0
.Ltmp188:
	@DEBUG_VALUE: Clear:this <- $r4
	@DEBUG_VALUE: NeighborSolicitMessage:this <- $r4
	.loc	3 55 24 prologue_end            @ ../../../components/network/thread/subg_openthread/src/core\common/clearable.hpp:55:24
	adds	r0, #1
	movs	r1, #23
	bl	__aeabi_memclr
.Ltmp189:
	.loc	3 0 24 is_stmt 0                @ ../../../components/network/thread/subg_openthread/src/core\common/clearable.hpp:0:24
	movs	r1, #135
.Ltmp190:
	.loc	12 281 1 is_stmt 1              @ ../../../components/network/thread/subg_openthread/src/core/net/nd6.cpp:281:1
	mov	r0, r4
.Ltmp191:
	.loc	12 280 11                       @ ../../../components/network/thread/subg_openthread/src/core/net/nd6.cpp:280:11
	strb	r1, [r4]
.Ltmp192:
	.loc	12 281 1                        @ ../../../components/network/thread/subg_openthread/src/core/net/nd6.cpp:281:1
	pop	{r4, pc}
.Ltmp193:
.Lfunc_end23:
	.size	_ZN2ot3Ip62Nd22NeighborSolicitMessageC2Ev, .Lfunc_end23-_ZN2ot3Ip62Nd22NeighborSolicitMessageC2Ev
	.cfi_endproc
	.cantunwind
	.fnend
                                        @ -- End function
	.section	.text._ZN2ot3Ip62Nd21NeighborAdvertMessageC2Ev,"ax",%progbits
	.hidden	_ZN2ot3Ip62Nd21NeighborAdvertMessageC2Ev @ -- Begin function _ZN2ot3Ip62Nd21NeighborAdvertMessageC2Ev
	.globl	_ZN2ot3Ip62Nd21NeighborAdvertMessageC2Ev
	.p2align	1
	.type	_ZN2ot3Ip62Nd21NeighborAdvertMessageC2Ev,%function
	.code	16                              @ @_ZN2ot3Ip62Nd21NeighborAdvertMessageC2Ev
	.thumb_func
_ZN2ot3Ip62Nd21NeighborAdvertMessageC2Ev:
.Lfunc_begin24:
	.loc	12 287 0                        @ ../../../components/network/thread/subg_openthread/src/core/net/nd6.cpp:287:0
	.fnstart
	.cfi_startproc
@ %bb.0:
	@DEBUG_VALUE: NeighborAdvertMessage:this <- $r0
	@DEBUG_VALUE: Clear:this <- $r0
	.save	{r4, lr}
	push	{r4, lr}
	.cfi_def_cfa_offset 8
	.cfi_offset lr, -4
	.cfi_offset r4, -8
	mov	r4, r0
.Ltmp194:
	@DEBUG_VALUE: Clear:this <- $r4
	@DEBUG_VALUE: NeighborAdvertMessage:this <- $r4
	.loc	3 55 24 prologue_end            @ ../../../components/network/thread/subg_openthread/src/core\common/clearable.hpp:55:24
	adds	r0, #1
	movs	r1, #23
	bl	__aeabi_memclr
.Ltmp195:
	.loc	3 0 24 is_stmt 0                @ ../../../components/network/thread/subg_openthread/src/core\common/clearable.hpp:0:24
	movs	r1, #136
.Ltmp196:
	.loc	12 293 1 is_stmt 1              @ ../../../components/network/thread/subg_openthread/src/core/net/nd6.cpp:293:1
	mov	r0, r4
.Ltmp197:
	.loc	12 292 11                       @ ../../../components/network/thread/subg_openthread/src/core/net/nd6.cpp:292:11
	strb	r1, [r4]
.Ltmp198:
	.loc	12 293 1                        @ ../../../components/network/thread/subg_openthread/src/core/net/nd6.cpp:293:1
	pop	{r4, pc}
.Ltmp199:
.Lfunc_end24:
	.size	_ZN2ot3Ip62Nd21NeighborAdvertMessageC2Ev, .Lfunc_end24-_ZN2ot3Ip62Nd21NeighborAdvertMessageC2Ev
	.cfi_endproc
	.cantunwind
	.fnend
                                        @ -- End function