	.text
	.syntax unified
	.eabi_attribute	67, "2.09"	@ Tag_conformance
	.cpu	cortex-m3
	.eabi_attribute	6, 10	@ Tag_CPU_arch
	.eabi_attribute	7, 77	@ Tag_CPU_arch_profile
	.eabi_attribute	8, 0	@ Tag_ARM_ISA_use
	.eabi_attribute	9, 2	@ Tag_THUMB_ISA_use
	.eabi_attribute	34, 1	@ Tag_CPU_unaligned_access
	.eabi_attribute	17, 1	@ Tag_ABI_PCS_GOT_use
	.eabi_attribute	20, 2	@ Tag_ABI_FP_denormal
	.eabi_attribute	21, 0	@ Tag_ABI_FP_exceptions
	.eabi_attribute	23, 1	@ Tag_ABI_FP_number_model
	.eabi_attribute	24, 1	@ Tag_ABI_align_needed
	.eabi_attribute	25, 1	@ Tag_ABI_align_preserved
	.eabi_attribute	38, 1	@ Tag_ABI_FP_16bit_format
	.eabi_attribute	18, 4	@ Tag_ABI_PCS_wchar_t
	.eabi_attribute	26, 2	@ Tag_ABI_enum_size
	.eabi_attribute	14, 0	@ Tag_ABI_PCS_R9_use
	.file	"network_management.c"
	.file	1 "D:\\20240115\\rafael-iot-sdk-das\\examples\\das_subg_thread\\keil" "../das_subg_thread/network_management.c"
	.file	2 "D:\\20240115\\rafael-iot-sdk-das\\examples\\das_subg_thread\\keil" "../../../components/network/thread/subg_openthread/include\\openthread/coap.h"
	.file	3 "D:\\20240115\\rafael-iot-sdk-das\\examples\\das_subg_thread\\keil" "../../../components/network/thread/subg_openthread/include\\openthread/message.h"
	.file	4 "C:\\Keil_v5\\ARM\\ARMCLANG\\Bin\\..\\include" "stdint.h"
	.file	5 "D:\\20240115\\rafael-iot-sdk-das\\examples\\das_subg_thread\\keil" "../../../components/network/thread/subg_openthread/include\\openthread/ip6.h"
	.file	6 "D:\\20240115\\rafael-iot-sdk-das\\examples\\das_subg_thread\\keil" "../../../components/platform/soc/rt582/rt582_freertos/Inc\\timers.h"
	.file	7 "D:\\20240115\\rafael-iot-sdk-das\\examples\\das_subg_thread\\keil" "../../../components/network/thread/subg_openthread/include\\openthread/thread.h"
	.file	8 "D:\\20240115\\rafael-iot-sdk-das\\examples\\das_subg_thread\\keil" "../../../components/network/thread/subg_openthread/include\\openthread/error.h"
	.file	9 "D:\\20240115\\rafael-iot-sdk-das\\examples\\das_subg_thread\\keil" "../../../components/network/thread/subg_openthread/include\\openthread/thread_ftd.h"
	.file	10 "D:\\20240115\\rafael-iot-sdk-das\\examples\\das_subg_thread\\keil" "../../../components/platform/soc/rt582/rt582_freertos/portable/GCC/ARM_CM3\\portmacro.h"
	.section	.text.nwk_mgm_debug_level,"ax",%progbits
	.hidden	nwk_mgm_debug_level             @ -- Begin function nwk_mgm_debug_level
	.globl	nwk_mgm_debug_level
	.p2align	1
	.type	nwk_mgm_debug_level,%function
	.code	16                              @ @nwk_mgm_debug_level
	.thumb_func
nwk_mgm_debug_level:
.Lfunc_begin0:
	.loc	1 123 0                         @ ../das_subg_thread/network_management.c:123:0
	.fnstart
	.cfi_sections .debug_frame
	.cfi_startproc
@ %bb.0:
	@DEBUG_VALUE: nwk_mgm_debug_level:level <- $r0
	@DEBUG_VALUE: nwk_mgm_debug_level:level <- $r0
	.loc	1 124 25 prologue_end           @ ../das_subg_thread/network_management.c:124:25
	movw	r1, :lower16:nwk_mgm_debug_flags
	movt	r1, :upper16:nwk_mgm_debug_flags
	str	r0, [r1]
	.loc	1 125 1                         @ ../das_subg_thread/network_management.c:125:1
	bx	lr
.Ltmp0:
.Lfunc_end0:
	.size	nwk_mgm_debug_level, .Lfunc_end0-nwk_mgm_debug_level
	.cfi_endproc
	.cantunwind
	.fnend
                                        @ -- End function
	.section	.text.nwk_mgm_reg_send_timer_set,"ax",%progbits
	.hidden	nwk_mgm_reg_send_timer_set      @ -- Begin function nwk_mgm_reg_send_timer_set
	.globl	nwk_mgm_reg_send_timer_set
	.p2align	1
	.type	nwk_mgm_reg_send_timer_set,%function
	.code	16                              @ @nwk_mgm_reg_send_timer_set
	.thumb_func
nwk_mgm_reg_send_timer_set:
.Lfunc_begin1:
	.loc	1 128 0                         @ ../das_subg_thread/network_management.c:128:0
	.fnstart
	.cfi_startproc
@ %bb.0:
	@DEBUG_VALUE: nwk_mgm_reg_send_timer_set:time <- $r0
	@DEBUG_VALUE: nwk_mgm_reg_send_timer_set:time <- $r0
	.loc	1 129 24 prologue_end           @ ../das_subg_thread/network_management.c:129:24
	movw	r1, :lower16:mgm_reg_send_timer
	movt	r1, :upper16:mgm_reg_send_timer
	strh	r0, [r1]
	.loc	1 130 1                         @ ../das_subg_thread/network_management.c:130:1
	bx	lr
.Ltmp1:
.Lfunc_end1:
	.size	nwk_mgm_reg_send_timer_set, .Lfunc_end1-nwk_mgm_reg_send_timer_set
	.cfi_endproc
	.cantunwind
	.fnend
                                        @ -- End function
	.section	.text.nwk_mgm_router_update_timer_set,"ax",%progbits
	.hidden	nwk_mgm_router_update_timer_set @ -- Begin function nwk_mgm_router_update_timer_set
	.globl	nwk_mgm_router_update_timer_set
	.p2align	1
	.type	nwk_mgm_router_update_timer_set,%function
	.code	16                              @ @nwk_mgm_router_update_timer_set
	.thumb_func
nwk_mgm_router_update_timer_set:
.Lfunc_begin2:
	.loc	1 133 0                         @ ../das_subg_thread/network_management.c:133:0
	.fnstart
	.cfi_startproc
@ %bb.0:
	@DEBUG_VALUE: nwk_mgm_router_update_timer_set:time <- $r0
	@DEBUG_VALUE: nwk_mgm_router_update_timer_set:time <- $r0
	.loc	1 134 25 prologue_end           @ ../das_subg_thread/network_management.c:134:25
	movw	r1, :lower16:mgm_router_up_timer
	movt	r1, :upper16:mgm_router_up_timer
	strh	r0, [r1]
	.loc	1 135 1                         @ ../das_subg_thread/network_management.c:135:1
	bx	lr
.Ltmp2:
.Lfunc_end2:
	.size	nwk_mgm_router_update_timer_set, .Lfunc_end2-nwk_mgm_router_update_timer_set
	.cfi_endproc
	.cantunwind
	.fnend
                                        @ -- End function
	.section	.text.otPlatFindNwkMgmChildRegTable,"ax",%progbits
	.hidden	otPlatFindNwkMgmChildRegTable   @ -- Begin function otPlatFindNwkMgmChildRegTable
	.globl	otPlatFindNwkMgmChildRegTable
	.p2align	2
	.type	otPlatFindNwkMgmChildRegTable,%function
	.code	16                              @ @otPlatFindNwkMgmChildRegTable
	.thumb_func
otPlatFindNwkMgmChildRegTable:
.Lfunc_begin3:
	.loc	1 262 0                         @ ../das_subg_thread/network_management.c:262:0
	.fnstart
	.cfi_startproc
@ %bb.0:
	@DEBUG_VALUE: otPlatFindNwkMgmChildRegTable:aExtAddress <- $r0
	.save	{r4, r5, r6, lr}
	push	{r4, r5, r6, lr}
	.cfi_def_cfa_offset 16
	.cfi_offset lr, -4
	.cfi_offset r6, -8
	.cfi_offset r5, -12
	.cfi_offset r4, -16
	.pad	#24
	sub	sp, #24
	.cfi_def_cfa_offset 40
.Ltmp3:
	.loc	1 265 9 prologue_end            @ ../das_subg_thread/network_management.c:265:9
	movw	r1, :lower16:nwk_mgm_child_reg_table
	movt	r1, :upper16:nwk_mgm_child_reg_table
	ldr	r5, [r1]
.Ltmp4:
	@DEBUG_VALUE: otPlatFindNwkMgmChildRegTable:i <- 0
	@DEBUG_VALUE: otPlatFindNwkMgmChildRegTable:ret <- 0
	@DEBUG_VALUE: otPlatFindNwkMgmChildRegTable:aExtAddress <- $r0
	.loc	1 265 9 is_stmt 0               @ ../das_subg_thread/network_management.c:265:9
	cbz	r5, .LBB3_7
.Ltmp5:
@ %bb.1:
	@DEBUG_VALUE: otPlatFindNwkMgmChildRegTable:aExtAddress <- $r0
	@DEBUG_VALUE: otPlatFindNwkMgmChildRegTable:ret <- 0
	@DEBUG_VALUE: otPlatFindNwkMgmChildRegTable:i <- 0
	.loc	1 0 9                           @ ../das_subg_thread/network_management.c:0:9
	mov	r4, r0
.Ltmp6:
	@DEBUG_VALUE: otPlatFindNwkMgmChildRegTable:aExtAddress <- $r4
	@DEBUG_VALUE: otPlatFindNwkMgmChildRegTable:aExtAddress <- $r4
	movs	r6, #0
.Ltmp7:
	.p2align	2
.LBB3_2:                                @ =>This Inner Loop Header: Depth=1
	@DEBUG_VALUE: otPlatFindNwkMgmChildRegTable:aExtAddress <- $r4
	@DEBUG_VALUE: otPlatFindNwkMgmChildRegTable:ret <- 0
	@DEBUG_VALUE: otPlatFindNwkMgmChildRegTable:i <- undef
	.loc	1 269 44 is_stmt 1              @ ../das_subg_thread/network_management.c:269:44
	ldrb	r0, [r5, r6]
	.loc	1 269 49 is_stmt 0              @ ../das_subg_thread/network_management.c:269:49
	cbz	r0, .LBB3_4
.Ltmp8:
@ %bb.3:                                @   in Loop: Header=BB3_2 Depth=1
	@DEBUG_VALUE: otPlatFindNwkMgmChildRegTable:aExtAddress <- $r4
	@DEBUG_VALUE: otPlatFindNwkMgmChildRegTable:ret <- 0
	.loc	1 270 21 is_stmt 1              @ ../das_subg_thread/network_management.c:270:21
	adds	r0, r5, r6
	adds	r0, #6
	mov	r1, r4
	movs	r2, #8
	bl	memcmp
.Ltmp9:
	.loc	1 269 17                        @ ../das_subg_thread/network_management.c:269:17
	cbz	r0, .LBB3_8
.Ltmp10:
.LBB3_4:                                @   in Loop: Header=BB3_2 Depth=1
	@DEBUG_VALUE: otPlatFindNwkMgmChildRegTable:aExtAddress <- $r4
	@DEBUG_VALUE: otPlatFindNwkMgmChildRegTable:ret <- 0
	@DEBUG_VALUE: otPlatFindNwkMgmChildRegTable:i <- [DW_OP_plus_uconst 1, DW_OP_stack_value] undef
	.loc	1 267 23                        @ ../das_subg_thread/network_management.c:267:23
	adds	r6, #18
.Ltmp11:
	.loc	1 267 9 is_stmt 0               @ ../das_subg_thread/network_management.c:267:9
	cmp.w	r6, #540
	bne	.LBB3_2
.Ltmp12:
@ %bb.5:
	@DEBUG_VALUE: otPlatFindNwkMgmChildRegTable:aExtAddress <- $r4
	@DEBUG_VALUE: otPlatFindNwkMgmChildRegTable:ret <- 0
	@DEBUG_VALUE: otPlatFindNwkMgmChildRegTable:ret <- undef
	.loc	1 0 9                           @ ../das_subg_thread/network_management.c:0:9
	movw	r0, :lower16:nwk_mgm_debug_flags
	movt	r0, :upper16:nwk_mgm_debug_flags
	ldr	r0, [r0]
	.loc	1 278 13 is_stmt 1              @ ../das_subg_thread/network_management.c:278:13
	cbz	r0, .LBB3_7
.Ltmp13:
@ %bb.6:
	@DEBUG_VALUE: otPlatFindNwkMgmChildRegTable:aExtAddress <- $r4
	.loc	1 280 13                        @ ../das_subg_thread/network_management.c:280:13
	ldrb	r0, [r4, #3]
	ldrb	r6, [r4, #4]
	ldrb	r1, [r4]
	ldrb	r2, [r4, #1]
	ldrb	r3, [r4, #2]
	ldrb	r5, [r4, #5]
	ldrb.w	r12, [r4, #6]
	ldrb	r4, [r4, #7]
.Ltmp14:
	@DEBUG_VALUE: otPlatFindNwkMgmChildRegTable:aExtAddress <- [DW_OP_LLVM_entry_value 1] $r0
	strd	r0, r6, [sp]
	adr	r0, .LCPI3_1
	strd	r5, r12, [sp, #8]
	str	r4, [sp, #16]
	bl	__2printf
.Ltmp15:
.LBB3_7:
	.loc	1 0 13 is_stmt 0                @ ../das_subg_thread/network_management.c:0:13
	movs	r0, #0
	b	.LBB3_11
.LBB3_8:
.Ltmp16:
	@DEBUG_VALUE: otPlatFindNwkMgmChildRegTable:aExtAddress <- $r4
	@DEBUG_VALUE: otPlatFindNwkMgmChildRegTable:ret <- 0
	.loc	1 272 17 is_stmt 1              @ ../das_subg_thread/network_management.c:272:17
	movw	r0, :lower16:nwk_mgm_debug_flags
	movt	r0, :upper16:nwk_mgm_debug_flags
	ldr	r0, [r0]
.Ltmp17:
	.loc	1 272 17 is_stmt 0              @ ../das_subg_thread/network_management.c:272:17
	cbz	r0, .LBB3_10
.Ltmp18:
@ %bb.9:
	@DEBUG_VALUE: otPlatFindNwkMgmChildRegTable:aExtAddress <- $r4
	@DEBUG_VALUE: otPlatFindNwkMgmChildRegTable:ret <- 0
	.loc	1 272 17                        @ ../das_subg_thread/network_management.c:272:17
	ldrb	r0, [r4, #3]
	ldrb	r6, [r4, #4]
	ldrb	r1, [r4]
	ldrb	r2, [r4, #1]
	ldrb	r3, [r4, #2]
	ldrb	r5, [r4, #5]
	ldrb.w	r12, [r4, #6]
	ldrb	r4, [r4, #7]
.Ltmp19:
	@DEBUG_VALUE: otPlatFindNwkMgmChildRegTable:aExtAddress <- [DW_OP_LLVM_entry_value 1] $r0
	strd	r0, r6, [sp]
	adr	r0, .LCPI3_0
	strd	r5, r12, [sp, #8]
	str	r4, [sp, #16]
	bl	__2printf
.Ltmp20:
.LBB3_10:
	@DEBUG_VALUE: otPlatFindNwkMgmChildRegTable:ret <- 0
	.loc	1 0 17                          @ ../das_subg_thread/network_management.c:0:17
	movs	r0, #1
.Ltmp21:
.LBB3_11:
	@DEBUG_VALUE: otPlatFindNwkMgmChildRegTable:ret <- undef
	.loc	1 284 5 is_stmt 1               @ ../das_subg_thread/network_management.c:284:5
	add	sp, #24
	pop	{r4, r5, r6, pc}
.Ltmp22:
	.p2align	2
@ %bb.12:
	.loc	1 0 5 is_stmt 0                 @ ../das_subg_thread/network_management.c:0:5
.LCPI3_0:
.L.str:
	.asciz	"fined %02X%02X%02X%02X%02X%02X%02X%02X \n\r\n\000"
.LCPI3_1:
.L.str.1:
	.asciz	"not find %02X%02X%02X%02X%02X%02X%02X%02X \n\r\n\000\000"
.Lfunc_end3:
	.size	otPlatFindNwkMgmChildRegTable, .Lfunc_end3-otPlatFindNwkMgmChildRegTable
	.cfi_endproc
	.cantunwind
	.fnend
                                        @ -- End function
	.section	.text.otPlatNwkMgmIsFull,"ax",%progbits
	.hidden	otPlatNwkMgmIsFull              @ -- Begin function otPlatNwkMgmIsFull
	.globl	otPlatNwkMgmIsFull
	.p2align	1
	.type	otPlatNwkMgmIsFull,%function
	.code	16                              @ @otPlatNwkMgmIsFull
	.thumb_func
otPlatNwkMgmIsFull:
.Lfunc_begin4:
	.loc	1 288 0 is_stmt 1               @ ../das_subg_thread/network_management.c:288:0
	.fnstart
	.cfi_startproc
@ %bb.0:
	.loc	1 289 12 prologue_end           @ ../das_subg_thread/network_management.c:289:12
	movw	r0, :lower16:reg_table_is_full
	movt	r0, :upper16:reg_table_is_full
	ldrb	r0, [r0]
	.loc	1 289 5 is_stmt 0               @ ../das_subg_thread/network_management.c:289:5
	bx	lr
.Ltmp23:
.Lfunc_end4:
	.size	otPlatNwkMgmIsFull, .Lfunc_end4-otPlatNwkMgmIsFull
	.cfi_endproc
	.cantunwind
	.fnend
                                        @ -- End function
	.section	.text.nwk_mgm_child_reg_table_display,"ax",%progbits
	.hidden	nwk_mgm_child_reg_table_display @ -- Begin function nwk_mgm_child_reg_table_display
	.globl	nwk_mgm_child_reg_table_display
	.p2align	2
	.type	nwk_mgm_child_reg_table_display,%function
	.code	16                              @ @nwk_mgm_child_reg_table_display
	.thumb_func
nwk_mgm_child_reg_table_display:
.Lfunc_begin5:
	.loc	1 293 0 is_stmt 1               @ ../das_subg_thread/network_management.c:293:0
	.fnstart
	.cfi_startproc
@ %bb.0:
	.save	{r4, r5, r6, r7, r8, r9, r10, r11, lr}
	push.w	{r4, r5, r6, r7, r8, r9, r10, r11, lr}
	.cfi_def_cfa_offset 36
	.cfi_offset lr, -4
	.cfi_offset r11, -8
	.cfi_offset r10, -12
	.cfi_offset r9, -16
	.cfi_offset r8, -20
	.cfi_offset r7, -24
	.cfi_offset r6, -28
	.cfi_offset r5, -32
	.cfi_offset r4, -36
	.pad	#60
	sub	sp, #60
	.cfi_def_cfa_offset 96
.Ltmp24:
	@DEBUG_VALUE: nwk_mgm_child_reg_table_display:i <- 0
	@DEBUG_VALUE: nwk_mgm_child_reg_table_display:count <- 0
	.loc	1 295 9 prologue_end            @ ../das_subg_thread/network_management.c:295:9
	movw	r5, :lower16:nwk_mgm_child_reg_table
	movt	r5, :upper16:nwk_mgm_child_reg_table
	ldr	r0, [r5]
.Ltmp25:
	.loc	1 295 9 is_stmt 0               @ ../das_subg_thread/network_management.c:295:9
	cmp	r0, #0
	beq.w	.LBB5_17
.Ltmp26:
@ %bb.1:
	@DEBUG_VALUE: nwk_mgm_child_reg_table_display:count <- 0
	@DEBUG_VALUE: nwk_mgm_child_reg_table_display:i <- 0
	.loc	1 297 9 is_stmt 1               @ ../das_subg_thread/network_management.c:297:9
	adr	r0, .LCPI5_0
	movs	r1, #0
	movs	r4, #0
	bl	__2printf
.Ltmp27:
	.loc	1 298 9                         @ ../das_subg_thread/network_management.c:298:9
	adr	r0, .LCPI5_1
	bl	puts
.Ltmp28:
	@DEBUG_VALUE: nwk_mgm_child_reg_table_display:count <- 0
	@DEBUG_VALUE: nwk_mgm_child_reg_table_display:i <- 0
	.loc	1 0 9 is_stmt 0                 @ ../das_subg_thread/network_management.c:0:9
	movs	r6, #0
.Ltmp29:
	.p2align	2
.LBB5_2:                                @ =>This Inner Loop Header: Depth=1
	@DEBUG_VALUE: nwk_mgm_child_reg_table_display:i <- undef
	@DEBUG_VALUE: nwk_mgm_child_reg_table_display:count <- $r6
	.loc	1 301 17 is_stmt 1              @ ../das_subg_thread/network_management.c:301:17
	ldr	r0, [r5]
	.loc	1 301 44 is_stmt 0              @ ../das_subg_thread/network_management.c:301:44
	ldrb	r1, [r0, r4]
	.loc	1 301 49                        @ ../das_subg_thread/network_management.c:301:49
	cbz	r1, .LBB5_5
.Ltmp30:
@ %bb.3:                                @   in Loop: Header=BB5_2 Depth=1
	@DEBUG_VALUE: nwk_mgm_child_reg_table_display:count <- $r6
	.loc	1 301 80                        @ ../das_subg_thread/network_management.c:301:80
	add	r0, r4
	ldrb	r0, [r0, #1]
.Ltmp31:
	.loc	1 301 17                        @ ../das_subg_thread/network_management.c:301:17
	cmp	r0, #3
	bne	.LBB5_5
.Ltmp32:
@ %bb.4:                                @   in Loop: Header=BB5_2 Depth=1
	@DEBUG_VALUE: nwk_mgm_child_reg_table_display:count <- $r6
	.loc	1 303 17 is_stmt 1              @ ../das_subg_thread/network_management.c:303:17
	adds	r6, #1
.Ltmp33:
	@DEBUG_VALUE: nwk_mgm_child_reg_table_display:count <- $r6
	.loc	1 304 17                        @ ../das_subg_thread/network_management.c:304:17
	uxth	r0, r6
	str	r0, [sp, #56]                   @ 4-byte Spill
	movs	r0, #3
	bl	otThreadDeviceRoleToString
.Ltmp34:
	ldr	r1, [r5]
	mov	r3, r6
.Ltmp35:
	@DEBUG_VALUE: nwk_mgm_child_reg_table_display:count <- $r3
	add	r1, r4
	ldrh	r2, [r1, #2]
	ldrh	r6, [r1, #4]
	str	r2, [sp, #52]                   @ 4-byte Spill
	ldrb	r2, [r1, #12]
	ldrb	r5, [r1, #6]
	ldrb	r7, [r1, #7]
	ldrb.w	r12, [r1, #8]
	ldrb.w	lr, [r1, #9]
	ldrb.w	r8, [r1, #10]
	ldrb.w	r9, [r1, #11]
	ldrb.w	r11, [r1, #13]
	ldrsb.w	r10, [r1, #14]
	ldrh	r1, [r1, #16]
	str	r2, [sp, #48]                   @ 4-byte Spill
	mov	r2, r0
	add	r0, sp, #8
	strd	r11, r10, [sp, #32]
	str	r1, [sp, #40]
	str	r6, [sp]
	str	r5, [sp, #4]
	stm.w	r0, {r7, r12, lr}
	strd	r8, r9, [sp, #20]
	mov	r6, r3
.Ltmp36:
	@DEBUG_VALUE: nwk_mgm_child_reg_table_display:count <- $r6
	@DEBUG_VALUE: nwk_mgm_child_reg_table_display:count <- $r6
	movw	r0, :lower16:.L.str.4
	ldr	r1, [sp, #56]                   @ 4-byte Reload
	ldrd	r7, r3, [sp, #48]               @ 8-byte Folded Reload
	movw	r5, :lower16:nwk_mgm_child_reg_table
	movt	r0, :upper16:.L.str.4
	movt	r5, :upper16:nwk_mgm_child_reg_table
	str	r7, [sp, #28]
	bl	__2printf
.Ltmp37:
.LBB5_5:                                @   in Loop: Header=BB5_2 Depth=1
	@DEBUG_VALUE: nwk_mgm_child_reg_table_display:count <- $r6
	@DEBUG_VALUE: nwk_mgm_child_reg_table_display:i <- [DW_OP_plus_uconst 1, DW_OP_stack_value] undef
	@DEBUG_VALUE: nwk_mgm_child_reg_table_display:count <- $r6
	.loc	1 299 23                        @ ../das_subg_thread/network_management.c:299:23
	adds	r4, #18
.Ltmp38:
	.loc	1 299 9 is_stmt 0               @ ../das_subg_thread/network_management.c:299:9
	cmp.w	r4, #540
	bne	.LBB5_2
.Ltmp39:
@ %bb.6:
	@DEBUG_VALUE: nwk_mgm_child_reg_table_display:count <- $r6
	.loc	1 0 9                           @ ../das_subg_thread/network_management.c:0:9
	movs	r4, #0
.Ltmp40:
	.p2align	2
.LBB5_7:                                @ =>This Inner Loop Header: Depth=1
	@DEBUG_VALUE: nwk_mgm_child_reg_table_display:count <- $r6
	@DEBUG_VALUE: nwk_mgm_child_reg_table_display:i <- undef
	@DEBUG_VALUE: nwk_mgm_child_reg_table_display:count <- $r6
	.loc	1 323 17 is_stmt 1              @ ../das_subg_thread/network_management.c:323:17
	ldr	r0, [r5]
	.loc	1 323 44 is_stmt 0              @ ../das_subg_thread/network_management.c:323:44
	ldrb	r1, [r0, r4]
.Ltmp41:
	.loc	1 323 17                        @ ../das_subg_thread/network_management.c:323:17
	cbz	r1, .LBB5_10
.Ltmp42:
@ %bb.8:                                @   in Loop: Header=BB5_7 Depth=1
	@DEBUG_VALUE: nwk_mgm_child_reg_table_display:count <- $r6
	.loc	1 325 48 is_stmt 1              @ ../das_subg_thread/network_management.c:325:48
	add	r0, r4
	ldrb	r0, [r0, #1]
.Ltmp43:
	.loc	1 325 21 is_stmt 0              @ ../das_subg_thread/network_management.c:325:21
	cmp	r0, #2
	bne	.LBB5_10
.Ltmp44:
@ %bb.9:                                @   in Loop: Header=BB5_7 Depth=1
	@DEBUG_VALUE: nwk_mgm_child_reg_table_display:count <- $r6
	.loc	1 327 21 is_stmt 1              @ ../das_subg_thread/network_management.c:327:21
	adds	r6, #1
.Ltmp45:
	@DEBUG_VALUE: nwk_mgm_child_reg_table_display:count <- $r6
	.loc	1 328 21                        @ ../das_subg_thread/network_management.c:328:21
	uxth	r0, r6
	str	r0, [sp, #56]                   @ 4-byte Spill
	movs	r0, #2
	bl	otThreadDeviceRoleToString
.Ltmp46:
	ldr	r1, [r5]
	mov	r3, r6
.Ltmp47:
	@DEBUG_VALUE: nwk_mgm_child_reg_table_display:count <- $r3
	add	r1, r4
	ldrh	r2, [r1, #2]
	ldrh	r7, [r1, #4]
	str	r2, [sp, #52]                   @ 4-byte Spill
	ldrb	r6, [r1, #6]
	ldrb	r5, [r1, #7]
	ldrb.w	r12, [r1, #8]
	ldrb.w	lr, [r1, #9]
	ldrb.w	r10, [r1, #10]
	ldrb.w	r11, [r1, #11]
	ldrb	r2, [r1, #12]
	ldrb.w	r9, [r1, #13]
	ldrsb.w	r8, [r1, #14]
	ldrh	r1, [r1, #16]
	str	r2, [sp, #48]                   @ 4-byte Spill
	strd	r9, r8, [sp, #32]
	str	r1, [sp, #40]
	strd	r7, r6, [sp]
	str	r5, [sp, #8]
	strd	r12, lr, [sp, #12]
	strd	r10, r11, [sp, #20]
	mov	r2, r0
	mov	r6, r3
.Ltmp48:
	@DEBUG_VALUE: nwk_mgm_child_reg_table_display:count <- $r6
	@DEBUG_VALUE: nwk_mgm_child_reg_table_display:count <- $r6
	movw	r0, :lower16:.L.str.4
	ldr	r1, [sp, #56]                   @ 4-byte Reload
	ldrd	r7, r3, [sp, #48]               @ 8-byte Folded Reload
	movw	r5, :lower16:nwk_mgm_child_reg_table
	movt	r0, :upper16:.L.str.4
	movt	r5, :upper16:nwk_mgm_child_reg_table
	str	r7, [sp, #28]
	bl	__2printf
.Ltmp49:
.LBB5_10:                               @   in Loop: Header=BB5_7 Depth=1
	@DEBUG_VALUE: nwk_mgm_child_reg_table_display:count <- $r6
	@DEBUG_VALUE: nwk_mgm_child_reg_table_display:i <- [DW_OP_plus_uconst 1, DW_OP_stack_value] undef
	@DEBUG_VALUE: nwk_mgm_child_reg_table_display:count <- $r6
	.loc	1 321 23                        @ ../das_subg_thread/network_management.c:321:23
	adds	r4, #18
.Ltmp50:
	.loc	1 321 9 is_stmt 0               @ ../das_subg_thread/network_management.c:321:9
	cmp.w	r4, #540
	bne	.LBB5_7
.Ltmp51:
@ %bb.11:
	@DEBUG_VALUE: nwk_mgm_child_reg_table_display:count <- $r6
	.loc	1 0 9                           @ ../das_subg_thread/network_management.c:0:9
	movs	r4, #0
.Ltmp52:
	.p2align	2
.LBB5_12:                               @ =>This Inner Loop Header: Depth=1
	@DEBUG_VALUE: nwk_mgm_child_reg_table_display:count <- $r6
	@DEBUG_VALUE: nwk_mgm_child_reg_table_display:i <- undef
	@DEBUG_VALUE: nwk_mgm_child_reg_table_display:count <- $r6
	.loc	1 348 17 is_stmt 1              @ ../das_subg_thread/network_management.c:348:17
	ldr	r0, [r5]
	.loc	1 348 44 is_stmt 0              @ ../das_subg_thread/network_management.c:348:44
	ldrb	r1, [r0, r4]
.Ltmp53:
	.loc	1 348 17                        @ ../das_subg_thread/network_management.c:348:17
	cbz	r1, .LBB5_15
.Ltmp54:
@ %bb.13:                               @   in Loop: Header=BB5_12 Depth=1
	@DEBUG_VALUE: nwk_mgm_child_reg_table_display:count <- $r6
	.loc	1 351 49 is_stmt 1              @ ../das_subg_thread/network_management.c:351:49
	add	r0, r4
	ldrb	r0, [r0, #1]
	.loc	1 351 79 is_stmt 0              @ ../das_subg_thread/network_management.c:351:79
	and	r1, r0, #254
	cmp	r1, #2
	beq	.LBB5_15
.Ltmp55:
@ %bb.14:                               @   in Loop: Header=BB5_12 Depth=1
	@DEBUG_VALUE: nwk_mgm_child_reg_table_display:count <- $r6
	.loc	1 354 21 is_stmt 1              @ ../das_subg_thread/network_management.c:354:21
	adds	r6, #1
.Ltmp56:
	@DEBUG_VALUE: nwk_mgm_child_reg_table_display:count <- $r6
	.loc	1 355 21                        @ ../das_subg_thread/network_management.c:355:21
	uxth	r1, r6
	str	r1, [sp, #56]                   @ 4-byte Spill
	bl	otThreadDeviceRoleToString
.Ltmp57:
	ldr	r1, [r5]
	mov	r3, r6
.Ltmp58:
	@DEBUG_VALUE: nwk_mgm_child_reg_table_display:count <- $r3
	add	r1, r4
	ldrh	r2, [r1, #2]
	ldrh	r7, [r1, #4]
	str	r2, [sp, #52]                   @ 4-byte Spill
	ldrb	r6, [r1, #6]
	ldrb	r5, [r1, #7]
	ldrb.w	r12, [r1, #8]
	ldrb.w	lr, [r1, #9]
	ldrb.w	r10, [r1, #10]
	ldrb.w	r11, [r1, #11]
	ldrb	r2, [r1, #12]
	ldrb.w	r8, [r1, #13]
	ldrsb.w	r9, [r1, #14]
	ldrh	r1, [r1, #16]
	str	r2, [sp, #48]                   @ 4-byte Spill
	strd	r8, r9, [sp, #32]
	str	r1, [sp, #40]
	strd	r7, r6, [sp]
	str	r5, [sp, #8]
	strd	r12, lr, [sp, #12]
	strd	r10, r11, [sp, #20]
	mov	r2, r0
	mov	r6, r3
.Ltmp59:
	@DEBUG_VALUE: nwk_mgm_child_reg_table_display:count <- $r6
	@DEBUG_VALUE: nwk_mgm_child_reg_table_display:count <- $r6
	movw	r0, :lower16:.L.str.4
	ldr	r1, [sp, #56]                   @ 4-byte Reload
	ldrd	r7, r3, [sp, #48]               @ 8-byte Folded Reload
	movw	r5, :lower16:nwk_mgm_child_reg_table
	movt	r0, :upper16:.L.str.4
	movt	r5, :upper16:nwk_mgm_child_reg_table
	str	r7, [sp, #28]
	bl	__2printf
.Ltmp60:
.LBB5_15:                               @   in Loop: Header=BB5_12 Depth=1
	@DEBUG_VALUE: nwk_mgm_child_reg_table_display:count <- $r6
	@DEBUG_VALUE: nwk_mgm_child_reg_table_display:i <- [DW_OP_plus_uconst 1, DW_OP_stack_value] undef
	@DEBUG_VALUE: nwk_mgm_child_reg_table_display:count <- $r6
	.loc	1 346 23                        @ ../das_subg_thread/network_management.c:346:23
	adds	r4, #18
.Ltmp61:
	.loc	1 346 9 is_stmt 0               @ ../das_subg_thread/network_management.c:346:9
	cmp.w	r4, #540
	bne	.LBB5_12
.Ltmp62:
@ %bb.16:
	@DEBUG_VALUE: nwk_mgm_child_reg_table_display:count <- $r6
	.loc	1 373 9 is_stmt 1               @ ../das_subg_thread/network_management.c:373:9
	movw	r0, :lower16:.Lstr.37
	movt	r0, :upper16:.Lstr.37
	bl	puts
.Ltmp63:
	.loc	1 374 9                         @ ../das_subg_thread/network_management.c:374:9
	uxth	r1, r6
	adr	r0, .LCPI5_2
	add	sp, #60
	pop.w	{r4, r5, r6, r7, r8, r9, r10, r11, lr}
.Ltmp64:
	b	__2printf
.Ltmp65:
.LBB5_17:
	@DEBUG_VALUE: nwk_mgm_child_reg_table_display:count <- 0
	@DEBUG_VALUE: nwk_mgm_child_reg_table_display:i <- 0
	.loc	1 376 1                         @ ../das_subg_thread/network_management.c:376:1
	add	sp, #60
	pop.w	{r4, r5, r6, r7, r8, r9, r10, r11, pc}
.Ltmp66:
	.p2align	2
@ %bb.18:
	.loc	1 0 1 is_stmt 0                 @ ../das_subg_thread/network_management.c:0:1
.LCPI5_0:
.L.str.2:
	.asciz	"index role parent rloc extaddr rssi %u \n\r\n\000"
.LCPI5_1:
.Lstr:
	.asciz	"\n =============================================== \n\r\000\000\000"
.LCPI5_2:
.L.str.6:
	.asciz	"total num %u \n\r\n\000\000\000"
.Lfunc_end5:
	.size	nwk_mgm_child_reg_table_display, .Lfunc_end5-nwk_mgm_child_reg_table_display
	.cfi_endproc
	.cantunwind
	.fnend
                                        @ -- End function
	.section	.text.nwk_mgm_coap_request,"ax",%progbits
	.hidden	nwk_mgm_coap_request            @ -- Begin function nwk_mgm_coap_request
	.globl	nwk_mgm_coap_request
	.p2align	1
	.type	nwk_mgm_coap_request,%function
	.code	16                              @ @nwk_mgm_coap_request
	.thumb_func
nwk_mgm_coap_request:
.Lfunc_begin6:
	.loc	1 869 0 is_stmt 1               @ ../das_subg_thread/network_management.c:869:0
	.fnstart
	.cfi_startproc
@ %bb.0:
	@DEBUG_VALUE: nwk_mgm_coap_request:aCoapCode <- $r0
	.save	{r4, r5, r6, r7, r8, r9, r10, r11, lr}
	push.w	{r4, r5, r6, r7, r8, r9, r10, r11, lr}
	.cfi_def_cfa_offset 36
	.cfi_offset lr, -4
	.cfi_offset r11, -8
	.cfi_offset r10, -12
	.cfi_offset r9, -16
	.cfi_offset r8, -20
	.cfi_offset r7, -24
	.cfi_offset r6, -28
	.cfi_offset r5, -32
	.cfi_offset r4, -36
	.pad	#52
	sub	sp, #52
	.cfi_def_cfa_offset 88
	mov	r8, r3
	mov	r9, r2
	mov	r11, r1
	mov	r6, r0
.Ltmp67:
	@DEBUG_VALUE: nwk_mgm_coap_request:aCoapCode <- $r6
	@DEBUG_VALUE: nwk_mgm_coap_request:message <- 0
	@DEBUG_VALUE: nwk_mgm_coap_request:error <- 0
	@DEBUG_VALUE: nwk_mgm_coap_request:coapDestinationIp <- [DW_OP_LLVM_fragment 96 32] undef
	@DEBUG_VALUE: nwk_mgm_coap_request:coapDestinationIp <- [DW_OP_LLVM_fragment 64 32] $r8
	@DEBUG_VALUE: nwk_mgm_coap_request:coapDestinationIp <- [DW_OP_LLVM_fragment 32 32] $r9
	@DEBUG_VALUE: nwk_mgm_coap_request:coapDestinationIp <- [DW_OP_LLVM_fragment 0 32] $r11
	@DEBUG_VALUE: nwk_mgm_coap_request:payloadLength <- undef
	@DEBUG_VALUE: nwk_mgm_coap_request:coap_Path <- [DW_OP_plus_uconst 104] [$sp+0]
	@DEBUG_VALUE: nwk_mgm_coap_request:payload <- [DW_OP_plus_uconst 96] [$sp+0]
	@DEBUG_VALUE: nwk_mgm_coap_request:coapType <- [DW_OP_plus_uconst 92] [$sp+0]
	@DEBUG_VALUE: nwk_mgm_coap_request:aCoapCode <- $r6
	.loc	1 874 28 prologue_end           @ ../das_subg_thread/network_management.c:874:28
	bl	otrGetInstance
.Ltmp68:
	@DEBUG_VALUE: nwk_mgm_coap_request:instance <- $r0
	.loc	1 875 9                         @ ../das_subg_thread/network_management.c:875:9
	cmp	r0, #0
	beq	.LBB6_12
.Ltmp69:
@ %bb.1:
	@DEBUG_VALUE: nwk_mgm_coap_request:coapDestinationIp <- [DW_OP_LLVM_fragment 0 32] $r11
	@DEBUG_VALUE: nwk_mgm_coap_request:coapDestinationIp <- [DW_OP_LLVM_fragment 32 32] $r9
	@DEBUG_VALUE: nwk_mgm_coap_request:coapDestinationIp <- [DW_OP_LLVM_fragment 64 32] $r8
	@DEBUG_VALUE: nwk_mgm_coap_request:aCoapCode <- $r6
	@DEBUG_VALUE: nwk_mgm_coap_request:instance <- $r0
	@DEBUG_VALUE: nwk_mgm_coap_request:coapType <- [DW_OP_plus_uconst 92] [$sp+0]
	@DEBUG_VALUE: nwk_mgm_coap_request:payload <- [DW_OP_plus_uconst 96] [$sp+0]
	@DEBUG_VALUE: nwk_mgm_coap_request:coap_Path <- [DW_OP_plus_uconst 104] [$sp+0]
	@DEBUG_VALUE: nwk_mgm_coap_request:error <- 0
	@DEBUG_VALUE: nwk_mgm_coap_request:message <- 0
	.loc	1 879 23                        @ ../das_subg_thread/network_management.c:879:23
	movs	r1, #0
.Ltmp70:
	.loc	1 0 0 is_stmt 0                 @ ../das_subg_thread/network_management.c:0:0
	mov	r5, r0
.Ltmp71:
	@DEBUG_VALUE: nwk_mgm_coap_request:instance <- $r5
	@DEBUG_VALUE: nwk_mgm_coap_request:payloadLength <- undef
	@DEBUG_VALUE: nwk_mgm_coap_request:coapDestinationIp <- [DW_OP_LLVM_fragment 96 32] undef
	.loc	1 879 23                        @ ../das_subg_thread/network_management.c:879:23
	bl	otCoapNewMessage
.Ltmp72:
	@DEBUG_VALUE: nwk_mgm_coap_request:message <- $r0
	.loc	1 880 17 is_stmt 1              @ ../das_subg_thread/network_management.c:880:17
	cbz	r0, .LBB6_4
.Ltmp73:
@ %bb.2:
	@DEBUG_VALUE: nwk_mgm_coap_request:coapDestinationIp <- [DW_OP_LLVM_fragment 0 32] $r11
	@DEBUG_VALUE: nwk_mgm_coap_request:coapDestinationIp <- [DW_OP_LLVM_fragment 32 32] $r9
	@DEBUG_VALUE: nwk_mgm_coap_request:coapDestinationIp <- [DW_OP_LLVM_fragment 64 32] $r8
	@DEBUG_VALUE: nwk_mgm_coap_request:aCoapCode <- $r6
	@DEBUG_VALUE: nwk_mgm_coap_request:instance <- $r5
	@DEBUG_VALUE: nwk_mgm_coap_request:message <- $r0
	@DEBUG_VALUE: nwk_mgm_coap_request:coapType <- [DW_OP_plus_uconst 92] [$sp+0]
	@DEBUG_VALUE: nwk_mgm_coap_request:payload <- [DW_OP_plus_uconst 96] [$sp+0]
	@DEBUG_VALUE: nwk_mgm_coap_request:coap_Path <- [DW_OP_plus_uconst 104] [$sp+0]
	@DEBUG_VALUE: nwk_mgm_coap_request:error <- 0
	.loc	1 0 17 is_stmt 0                @ ../das_subg_thread/network_management.c:0:17
	ldr.w	r10, [sp, #92]
.Ltmp74:
	@DEBUG_VALUE: nwk_mgm_coap_request:coapDestinationIp <- [DW_OP_LLVM_fragment 96 32] undef
	ldr	r7, [sp, #104]
.Ltmp75:
	@DEBUG_VALUE: nwk_mgm_coap_request:payloadLength <- undef
	.loc	1 885 13 is_stmt 1              @ ../das_subg_thread/network_management.c:885:13
	mov	r1, r10
	mov	r2, r6
	mov	r4, r0
.Ltmp76:
	@DEBUG_VALUE: nwk_mgm_coap_request:message <- $r4
	bl	otCoapMessageInit
.Ltmp77:
	.loc	1 886 13                        @ ../das_subg_thread/network_management.c:886:13
	mov	r0, r4
	movs	r1, #2
	bl	otCoapMessageGenerateToken
.Ltmp78:
	.loc	1 888 21                        @ ../das_subg_thread/network_management.c:888:21
	mov	r0, r4
	mov	r1, r7
	bl	otCoapMessageAppendUriPathOptions
.Ltmp79:
	mov	r7, r0
.Ltmp80:
	@DEBUG_VALUE: nwk_mgm_coap_request:error <- $r7
	.loc	1 889 17                        @ ../das_subg_thread/network_management.c:889:17
	cbz	r0, .LBB6_5
.Ltmp81:
.LBB6_3:
	@DEBUG_VALUE: nwk_mgm_coap_request:coapDestinationIp <- [DW_OP_LLVM_fragment 0 32] $r11
	@DEBUG_VALUE: nwk_mgm_coap_request:coapDestinationIp <- [DW_OP_LLVM_fragment 32 32] $r9
	@DEBUG_VALUE: nwk_mgm_coap_request:coapDestinationIp <- [DW_OP_LLVM_fragment 64 32] $r8
	@DEBUG_VALUE: nwk_mgm_coap_request:error <- $r7
	@DEBUG_VALUE: nwk_mgm_coap_request:aCoapCode <- $r6
	@DEBUG_VALUE: nwk_mgm_coap_request:instance <- $r5
	@DEBUG_VALUE: nwk_mgm_coap_request:message <- $r4
	@DEBUG_VALUE: nwk_mgm_coap_request:coapType <- [DW_OP_plus_uconst 92] [$sp+0]
	@DEBUG_VALUE: nwk_mgm_coap_request:payload <- [DW_OP_plus_uconst 96] [$sp+0]
	@DEBUG_VALUE: nwk_mgm_coap_request:coap_Path <- [DW_OP_plus_uconst 104] [$sp+0]
	.loc	1 930 13                        @ ../das_subg_thread/network_management.c:930:13
	mov	r0, r4
	bl	otMessageFree
.Ltmp82:
	.loc	1 0 13 is_stmt 0                @ ../das_subg_thread/network_management.c:0:13
	b	.LBB6_13
.Ltmp83:
.LBB6_4:
	@DEBUG_VALUE: nwk_mgm_coap_request:coapDestinationIp <- [DW_OP_LLVM_fragment 0 32] $r11
	@DEBUG_VALUE: nwk_mgm_coap_request:coapDestinationIp <- [DW_OP_LLVM_fragment 32 32] $r9
	@DEBUG_VALUE: nwk_mgm_coap_request:coapDestinationIp <- [DW_OP_LLVM_fragment 64 32] $r8
	@DEBUG_VALUE: nwk_mgm_coap_request:aCoapCode <- $r6
	@DEBUG_VALUE: nwk_mgm_coap_request:instance <- $r5
	@DEBUG_VALUE: nwk_mgm_coap_request:message <- $r0
	@DEBUG_VALUE: nwk_mgm_coap_request:coapType <- [DW_OP_plus_uconst 92] [$sp+0]
	@DEBUG_VALUE: nwk_mgm_coap_request:payload <- [DW_OP_plus_uconst 96] [$sp+0]
	@DEBUG_VALUE: nwk_mgm_coap_request:coap_Path <- [DW_OP_plus_uconst 104] [$sp+0]
	@DEBUG_VALUE: nwk_mgm_coap_request:error <- 0
	movs	r7, #3
	b	.LBB6_13
.Ltmp84:
.LBB6_5:
	@DEBUG_VALUE: nwk_mgm_coap_request:coapDestinationIp <- [DW_OP_LLVM_fragment 0 32] $r11
	@DEBUG_VALUE: nwk_mgm_coap_request:coapDestinationIp <- [DW_OP_LLVM_fragment 32 32] $r9
	@DEBUG_VALUE: nwk_mgm_coap_request:coapDestinationIp <- [DW_OP_LLVM_fragment 64 32] $r8
	@DEBUG_VALUE: nwk_mgm_coap_request:error <- $r7
	@DEBUG_VALUE: nwk_mgm_coap_request:aCoapCode <- $r6
	@DEBUG_VALUE: nwk_mgm_coap_request:instance <- $r5
	@DEBUG_VALUE: nwk_mgm_coap_request:message <- $r4
	@DEBUG_VALUE: nwk_mgm_coap_request:coapType <- [DW_OP_plus_uconst 92] [$sp+0]
	@DEBUG_VALUE: nwk_mgm_coap_request:payload <- [DW_OP_plus_uconst 96] [$sp+0]
	@DEBUG_VALUE: nwk_mgm_coap_request:coap_Path <- [DW_OP_plus_uconst 104] [$sp+0]
	ldr	r0, [sp, #100]
.Ltmp85:
	@DEBUG_VALUE: nwk_mgm_coap_request:coapDestinationIp <- [DW_OP_LLVM_fragment 96 32] undef
	@DEBUG_VALUE: nwk_mgm_coap_request:payloadLength <- undef
	@DEBUG_VALUE: nwk_mgm_coap_request:payloadLength <- $r0
	.loc	1 894 17 is_stmt 1              @ ../das_subg_thread/network_management.c:894:17
	cbz	r0, .LBB6_8
.Ltmp86:
@ %bb.6:
	@DEBUG_VALUE: nwk_mgm_coap_request:coapDestinationIp <- [DW_OP_LLVM_fragment 0 32] $r11
	@DEBUG_VALUE: nwk_mgm_coap_request:coapDestinationIp <- [DW_OP_LLVM_fragment 32 32] $r9
	@DEBUG_VALUE: nwk_mgm_coap_request:coapDestinationIp <- [DW_OP_LLVM_fragment 64 32] $r8
	@DEBUG_VALUE: nwk_mgm_coap_request:error <- $r7
	@DEBUG_VALUE: nwk_mgm_coap_request:aCoapCode <- $r6
	@DEBUG_VALUE: nwk_mgm_coap_request:instance <- $r5
	@DEBUG_VALUE: nwk_mgm_coap_request:message <- $r4
	@DEBUG_VALUE: nwk_mgm_coap_request:payloadLength <- $r0
	@DEBUG_VALUE: nwk_mgm_coap_request:coapType <- [DW_OP_plus_uconst 92] [$sp+0]
	@DEBUG_VALUE: nwk_mgm_coap_request:payload <- [DW_OP_plus_uconst 96] [$sp+0]
	@DEBUG_VALUE: nwk_mgm_coap_request:coap_Path <- [DW_OP_plus_uconst 104] [$sp+0]
	.loc	1 896 25                        @ ../das_subg_thread/network_management.c:896:25
	mov	r0, r4
.Ltmp87:
	bl	otCoapMessageSetPayloadMarker
.Ltmp88:
	mov	r7, r0
.Ltmp89:
	@DEBUG_VALUE: nwk_mgm_coap_request:error <- $r7
	.loc	1 897 21                        @ ../das_subg_thread/network_management.c:897:21
	cmp	r0, #0
	bne	.LBB6_3
.Ltmp90:
@ %bb.7:
	@DEBUG_VALUE: nwk_mgm_coap_request:coapDestinationIp <- [DW_OP_LLVM_fragment 0 32] $r11
	@DEBUG_VALUE: nwk_mgm_coap_request:coapDestinationIp <- [DW_OP_LLVM_fragment 32 32] $r9
	@DEBUG_VALUE: nwk_mgm_coap_request:coapDestinationIp <- [DW_OP_LLVM_fragment 64 32] $r8
	@DEBUG_VALUE: nwk_mgm_coap_request:error <- $r7
	@DEBUG_VALUE: nwk_mgm_coap_request:aCoapCode <- $r6
	@DEBUG_VALUE: nwk_mgm_coap_request:instance <- $r5
	@DEBUG_VALUE: nwk_mgm_coap_request:message <- $r4
	@DEBUG_VALUE: nwk_mgm_coap_request:coapType <- [DW_OP_plus_uconst 92] [$sp+0]
	@DEBUG_VALUE: nwk_mgm_coap_request:payload <- [DW_OP_plus_uconst 96] [$sp+0]
	@DEBUG_VALUE: nwk_mgm_coap_request:coap_Path <- [DW_OP_plus_uconst 104] [$sp+0]
	.loc	1 0 21 is_stmt 0                @ ../das_subg_thread/network_management.c:0:21
	ldr	r1, [sp, #96]
.Ltmp91:
	.loc	1 906 25 is_stmt 1              @ ../das_subg_thread/network_management.c:906:25
	ldr	r2, [sp, #100]
	mov	r0, r4
	bl	otMessageAppend
.Ltmp92:
	mov	r7, r0
.Ltmp93:
	@DEBUG_VALUE: nwk_mgm_coap_request:error <- $r7
	.loc	1 907 21                        @ ../das_subg_thread/network_management.c:907:21
	cmp	r0, #0
	bne	.LBB6_3
.Ltmp94:
.LBB6_8:
	@DEBUG_VALUE: nwk_mgm_coap_request:coapDestinationIp <- [DW_OP_LLVM_fragment 0 32] $r11
	@DEBUG_VALUE: nwk_mgm_coap_request:coapDestinationIp <- [DW_OP_LLVM_fragment 32 32] $r9
	@DEBUG_VALUE: nwk_mgm_coap_request:coapDestinationIp <- [DW_OP_LLVM_fragment 64 32] $r8
	@DEBUG_VALUE: nwk_mgm_coap_request:error <- $r7
	@DEBUG_VALUE: nwk_mgm_coap_request:aCoapCode <- $r6
	@DEBUG_VALUE: nwk_mgm_coap_request:instance <- $r5
	@DEBUG_VALUE: nwk_mgm_coap_request:message <- $r4
	@DEBUG_VALUE: nwk_mgm_coap_request:coapType <- [DW_OP_plus_uconst 92] [$sp+0]
	@DEBUG_VALUE: nwk_mgm_coap_request:payload <- [DW_OP_plus_uconst 96] [$sp+0]
	@DEBUG_VALUE: nwk_mgm_coap_request:coap_Path <- [DW_OP_plus_uconst 104] [$sp+0]
	.loc	1 0 21 is_stmt 0                @ ../das_subg_thread/network_management.c:0:21
	ldr	r7, [sp, #88]
.Ltmp95:
	@DEBUG_VALUE: nwk_mgm_coap_request:coapDestinationIp <- [DW_OP_LLVM_fragment 96 32] $r7
	add	r0, sp, #8
	.loc	1 913 13 is_stmt 1              @ ../das_subg_thread/network_management.c:913:13
	movs	r1, #44
	bl	__aeabi_memclr4
.Ltmp96:
	.loc	1 0 13 is_stmt 0                @ ../das_subg_thread/network_management.c:0:13
	movw	r0, #5683
.Ltmp97:
	.loc	1 917 56 is_stmt 1              @ ../das_subg_thread/network_management.c:917:56
	cmp	r6, #1
.Ltmp98:
	.loc	1 914 37                        @ ../das_subg_thread/network_management.c:914:37
	strd	r11, r9, [sp, #24]
	strd	r8, r7, [sp, #32]
	.loc	1 915 35                        @ ../das_subg_thread/network_management.c:915:35
	strh.w	r0, [sp, #42]
.Ltmp99:
	.loc	1 917 56                        @ ../das_subg_thread/network_management.c:917:56
	it	ne
	cmpne.w	r10, #0
	bne	.LBB6_10
.Ltmp100:
@ %bb.9:
	@DEBUG_VALUE: nwk_mgm_coap_request:coapDestinationIp <- [DW_OP_LLVM_fragment 0 32] $r11
	@DEBUG_VALUE: nwk_mgm_coap_request:coapDestinationIp <- [DW_OP_LLVM_fragment 32 32] $r9
	@DEBUG_VALUE: nwk_mgm_coap_request:coapDestinationIp <- [DW_OP_LLVM_fragment 64 32] $r8
	@DEBUG_VALUE: nwk_mgm_coap_request:coapDestinationIp <- [DW_OP_LLVM_fragment 96 32] $r7
	@DEBUG_VALUE: nwk_mgm_coap_request:aCoapCode <- $r6
	@DEBUG_VALUE: nwk_mgm_coap_request:instance <- $r5
	@DEBUG_VALUE: nwk_mgm_coap_request:message <- $r4
	@DEBUG_VALUE: nwk_mgm_coap_request:coapType <- [DW_OP_plus_uconst 92] [$sp+0]
	@DEBUG_VALUE: nwk_mgm_coap_request:payload <- [DW_OP_plus_uconst 96] [$sp+0]
	@DEBUG_VALUE: nwk_mgm_coap_request:coap_Path <- [DW_OP_plus_uconst 104] [$sp+0]
	.loc	1 0 56 is_stmt 0                @ ../das_subg_thread/network_management.c:0:56
	movs	r7, #0
.Ltmp101:
	.loc	1 919 25 is_stmt 1              @ ../das_subg_thread/network_management.c:919:25
	movw	r3, :lower16:nwk_mgm_ack_process
	str	r7, [sp]
	movt	r3, :upper16:nwk_mgm_ack_process
	add	r2, sp, #8
	mov	r0, r5
	mov	r1, r4
	b	.LBB6_11
.Ltmp102:
.LBB6_10:
	@DEBUG_VALUE: nwk_mgm_coap_request:coapDestinationIp <- [DW_OP_LLVM_fragment 0 32] $r11
	@DEBUG_VALUE: nwk_mgm_coap_request:coapDestinationIp <- [DW_OP_LLVM_fragment 32 32] $r9
	@DEBUG_VALUE: nwk_mgm_coap_request:coapDestinationIp <- [DW_OP_LLVM_fragment 64 32] $r8
	@DEBUG_VALUE: nwk_mgm_coap_request:coapDestinationIp <- [DW_OP_LLVM_fragment 96 32] $r7
	@DEBUG_VALUE: nwk_mgm_coap_request:aCoapCode <- $r6
	@DEBUG_VALUE: nwk_mgm_coap_request:instance <- $r5
	@DEBUG_VALUE: nwk_mgm_coap_request:message <- $r4
	@DEBUG_VALUE: nwk_mgm_coap_request:coapType <- [DW_OP_plus_uconst 92] [$sp+0]
	@DEBUG_VALUE: nwk_mgm_coap_request:payload <- [DW_OP_plus_uconst 96] [$sp+0]
	@DEBUG_VALUE: nwk_mgm_coap_request:coap_Path <- [DW_OP_plus_uconst 104] [$sp+0]
	.loc	1 0 25 is_stmt 0                @ ../das_subg_thread/network_management.c:0:25
	movs	r7, #0
.Ltmp103:
	add	r2, sp, #8
.Ltmp104:
	.loc	1 924 25 is_stmt 1              @ ../das_subg_thread/network_management.c:924:25
	mov	r0, r5
	mov	r1, r4
	movs	r3, #0
	str	r7, [sp]
.Ltmp105:
.LBB6_11:
	@DEBUG_VALUE: nwk_mgm_coap_request:coapDestinationIp <- [DW_OP_LLVM_fragment 0 32] $r11
	@DEBUG_VALUE: nwk_mgm_coap_request:coapDestinationIp <- [DW_OP_LLVM_fragment 32 32] $r9
	@DEBUG_VALUE: nwk_mgm_coap_request:coapDestinationIp <- [DW_OP_LLVM_fragment 64 32] $r8
	@DEBUG_VALUE: nwk_mgm_coap_request:aCoapCode <- $r6
	@DEBUG_VALUE: nwk_mgm_coap_request:instance <- $r5
	@DEBUG_VALUE: nwk_mgm_coap_request:message <- $r4
	@DEBUG_VALUE: nwk_mgm_coap_request:coapType <- [DW_OP_plus_uconst 92] [$sp+0]
	@DEBUG_VALUE: nwk_mgm_coap_request:payload <- [DW_OP_plus_uconst 96] [$sp+0]
	@DEBUG_VALUE: nwk_mgm_coap_request:coap_Path <- [DW_OP_plus_uconst 104] [$sp+0]
	.loc	1 0 0 is_stmt 0                 @ ../das_subg_thread/network_management.c:0:0
	str	r7, [sp, #4]
	bl	otCoapSendRequestWithParameters
.Ltmp106:
	mov	r7, r0
.Ltmp107:
	@DEBUG_VALUE: nwk_mgm_coap_request:error <- $r7
	.loc	1 928 38 is_stmt 1              @ ../das_subg_thread/network_management.c:928:38
	cmp	r0, #0
	bne	.LBB6_3
.Ltmp108:
.LBB6_12:
	@DEBUG_VALUE: nwk_mgm_coap_request:coapDestinationIp <- [DW_OP_LLVM_fragment 0 32] $r11
	@DEBUG_VALUE: nwk_mgm_coap_request:coapDestinationIp <- [DW_OP_LLVM_fragment 32 32] $r9
	@DEBUG_VALUE: nwk_mgm_coap_request:coapDestinationIp <- [DW_OP_LLVM_fragment 64 32] $r8
	@DEBUG_VALUE: nwk_mgm_coap_request:aCoapCode <- $r6
	@DEBUG_VALUE: nwk_mgm_coap_request:coapType <- [DW_OP_plus_uconst 92] [$sp+0]
	@DEBUG_VALUE: nwk_mgm_coap_request:payload <- [DW_OP_plus_uconst 96] [$sp+0]
	@DEBUG_VALUE: nwk_mgm_coap_request:coap_Path <- [DW_OP_plus_uconst 104] [$sp+0]
	.loc	1 0 38 is_stmt 0                @ ../das_subg_thread/network_management.c:0:38
	movs	r7, #0
.Ltmp109:
.LBB6_13:
	@DEBUG_VALUE: nwk_mgm_coap_request:coapDestinationIp <- [DW_OP_LLVM_fragment 0 32] $r11
	@DEBUG_VALUE: nwk_mgm_coap_request:coapDestinationIp <- [DW_OP_LLVM_fragment 32 32] $r9
	@DEBUG_VALUE: nwk_mgm_coap_request:coapDestinationIp <- [DW_OP_LLVM_fragment 64 32] $r8
	@DEBUG_VALUE: nwk_mgm_coap_request:aCoapCode <- $r6
	@DEBUG_VALUE: nwk_mgm_coap_request:coapType <- [DW_OP_plus_uconst 92] [$sp+0]
	@DEBUG_VALUE: nwk_mgm_coap_request:payload <- [DW_OP_plus_uconst 96] [$sp+0]
	@DEBUG_VALUE: nwk_mgm_coap_request:coap_Path <- [DW_OP_plus_uconst 104] [$sp+0]
	@DEBUG_VALUE: nwk_mgm_coap_request:error <- $r7
	.loc	1 933 5 is_stmt 1               @ ../das_subg_thread/network_management.c:933:5
	mov	r0, r7
	add	sp, #52
	pop.w	{r4, r5, r6, r7, r8, r9, r10, r11, pc}
.Ltmp110:
.Lfunc_end6:
	.size	nwk_mgm_coap_request, .Lfunc_end6-nwk_mgm_coap_request
	.cfi_endproc
	.cantunwind
	.fnend
                                        @ -- End function
	.section	.text.nwk_mgm_ack_process,"ax",%progbits
	.p2align	2                               @ -- Begin function nwk_mgm_ack_process
	.type	nwk_mgm_ack_process,%function
	.code	16                              @ @nwk_mgm_ack_process
	.thumb_func
nwk_mgm_ack_process:
.Lfunc_begin7:
	.loc	1 834 0                         @ ../das_subg_thread/network_management.c:834:0
	.fnstart
	.cfi_startproc
@ %bb.0:
	@DEBUG_VALUE: nwk_mgm_ack_process:aContext <- $r0
	@DEBUG_VALUE: nwk_mgm_ack_process:aMessage <- $r1
	@DEBUG_VALUE: nwk_mgm_ack_process:aMessageInfo <- $r2
	@DEBUG_VALUE: nwk_mgm_ack_process:aResult <- $r3
	.save	{r4, r5, r6, r7, r8, r9, r10, r11, lr}
	push.w	{r4, r5, r6, r7, r8, r9, r10, r11, lr}
	.cfi_def_cfa_offset 36
	.cfi_offset lr, -4
	.cfi_offset r11, -8
	.cfi_offset r10, -12
	.cfi_offset r9, -16
	.cfi_offset r8, -20
	.cfi_offset r7, -24
	.cfi_offset r6, -28
	.cfi_offset r5, -32
	.cfi_offset r4, -36
	.pad	#492
	sub	sp, #492
	.cfi_def_cfa_offset 528
	mov	r5, r1
.Ltmp111:
	@DEBUG_VALUE: nwk_mgm_ack_process:aMessage <- $r5
	@DEBUG_VALUE: nwk_mgm_ack_process:nwk_mgm_data_type <- -1
	@DEBUG_VALUE: nwk_mgm_ack_process:buf <- 0
	@DEBUG_VALUE: nwk_mgm_ack_process:aMessageInfo <- $r2
	@DEBUG_VALUE: nwk_mgm_ack_process:aMessage <- $r5
	.loc	1 839 41 prologue_end           @ ../das_subg_thread/network_management.c:839:41
	add.w	r0, r2, #16
.Ltmp112:
	@DEBUG_VALUE: nwk_mgm_ack_process:aContext <- [DW_OP_LLVM_entry_value 1] $r0
	.loc	1 0 41 is_stmt 0                @ ../das_subg_thread/network_management.c:0:41
	add	r1, sp, #40
	.loc	1 839 5                         @ ../das_subg_thread/network_management.c:839:5
	movs	r2, #40
.Ltmp113:
	@DEBUG_VALUE: nwk_mgm_ack_process:aMessageInfo <- [DW_OP_LLVM_entry_value 1] $r2
	bl	otIp6AddressToString
.Ltmp114:
	@DEBUG_VALUE: nwk_mgm_ack_process:aResult <- [DW_OP_LLVM_entry_value 1] $r3
	.loc	1 840 14 is_stmt 1              @ ../das_subg_thread/network_management.c:840:14
	mov	r0, r5
	bl	otMessageGetLength
.Ltmp115:
	mov	r4, r0
	.loc	1 840 45 is_stmt 0              @ ../das_subg_thread/network_management.c:840:45
	mov	r0, r5
	bl	otMessageGetOffset
.Ltmp116:
	.loc	1 840 43                        @ ../das_subg_thread/network_management.c:840:43
	subs	r0, r4, r0
.Ltmp117:
	@DEBUG_VALUE: nwk_mgm_ack_process:length <- $r0
	.loc	1 843 13 is_stmt 1              @ ../das_subg_thread/network_management.c:843:13
	lsls	r1, r0, #16
	beq	.LBB7_7
.Ltmp118:
@ %bb.1:
	@DEBUG_VALUE: nwk_mgm_ack_process:aMessage <- $r5
	@DEBUG_VALUE: nwk_mgm_ack_process:length <- $r0
	@DEBUG_VALUE: nwk_mgm_ack_process:aResult <- [DW_OP_LLVM_entry_value 1] $r3
	@DEBUG_VALUE: nwk_mgm_ack_process:aMessageInfo <- [DW_OP_LLVM_entry_value 1] $r2
	@DEBUG_VALUE: nwk_mgm_ack_process:aContext <- [DW_OP_LLVM_entry_value 1] $r0
	@DEBUG_VALUE: nwk_mgm_ack_process:buf <- 0
	@DEBUG_VALUE: nwk_mgm_ack_process:nwk_mgm_data_type <- -1
	.loc	1 843 13 is_stmt 0              @ ../das_subg_thread/network_management.c:843:13
	uxth	r7, r0
.Ltmp119:
	.loc	1 845 19 is_stmt 1              @ ../das_subg_thread/network_management.c:845:19
	mov	r0, r7
.Ltmp120:
	bl	pvPortMalloc
.Ltmp121:
	@DEBUG_VALUE: nwk_mgm_ack_process:buf <- $r0
	.loc	1 846 17                        @ ../das_subg_thread/network_management.c:846:17
	cbz	r0, .LBB7_7
.Ltmp122:
@ %bb.2:
	@DEBUG_VALUE: nwk_mgm_ack_process:aMessage <- $r5
	@DEBUG_VALUE: nwk_mgm_ack_process:buf <- $r0
	@DEBUG_VALUE: nwk_mgm_ack_process:aResult <- [DW_OP_LLVM_entry_value 1] $r3
	@DEBUG_VALUE: nwk_mgm_ack_process:aMessageInfo <- [DW_OP_LLVM_entry_value 1] $r2
	@DEBUG_VALUE: nwk_mgm_ack_process:aContext <- [DW_OP_LLVM_entry_value 1] $r0
	@DEBUG_VALUE: nwk_mgm_ack_process:nwk_mgm_data_type <- -1
	.loc	1 0 0 is_stmt 0                 @ ../das_subg_thread/network_management.c:0:0
	mov	r4, r0
.Ltmp123:
	@DEBUG_VALUE: nwk_mgm_ack_process:buf <- $r4
	@DEBUG_VALUE: nwk_mgm_ack_process:buf <- $r4
	.loc	1 848 41 is_stmt 1              @ ../das_subg_thread/network_management.c:848:41
	mov	r0, r5
	bl	otMessageGetOffset
.Ltmp124:
	mov	r1, r0
	.loc	1 848 17 is_stmt 0              @ ../das_subg_thread/network_management.c:848:17
	mov	r0, r5
	mov	r2, r4
	mov	r3, r7
	bl	otMessageRead
.Ltmp125:
	.loc	1 849 37 is_stmt 1              @ ../das_subg_thread/network_management.c:849:37
	ldrb	r0, [r4]
.Ltmp126:
	@DEBUG_VALUE: nwk_mgm_ack_process:nwk_mgm_data_type <- $r0
	.loc	1 850 17                        @ ../das_subg_thread/network_management.c:850:17
	cmp	r0, #1
	bne	.LBB7_6
.Ltmp127:
@ %bb.3:
	@DEBUG_VALUE: nwk_mgm_ack_process:aMessage <- $r5
	@DEBUG_VALUE: nwk_mgm_ack_process:buf <- $r4
	@DEBUG_VALUE: nwk_mgm_ack_process:nwk_mgm_data_type <- $r0
	@DEBUG_VALUE: nwk_mgm_ack_process:aResult <- [DW_OP_LLVM_entry_value 1] $r3
	@DEBUG_VALUE: nwk_mgm_ack_process:aMessageInfo <- [DW_OP_LLVM_entry_value 1] $r2
	@DEBUG_VALUE: nwk_mgm_ack_process:aContext <- [DW_OP_LLVM_entry_value 1] $r0
	@DEBUG_VALUE: nwk_mgm_childs_register_ack_proccess:buf <- $r4
	@DEBUG_VALUE: nwk_mgm_childs_register_ack_proccess:length <- undef
	.loc	1 697 28                        @ ../das_subg_thread/network_management.c:697:28
	bl	otrGetInstance
.Ltmp128:
	@DEBUG_VALUE: nwk_mgm_childs_register_ack_proccess:instance <- $r0
	.loc	1 698 9                         @ ../das_subg_thread/network_management.c:698:9
	cbz	r0, .LBB7_6
.Ltmp129:
@ %bb.4:
	@DEBUG_VALUE: nwk_mgm_ack_process:aMessage <- $r5
	@DEBUG_VALUE: nwk_mgm_childs_register_ack_proccess:buf <- $r4
	@DEBUG_VALUE: nwk_mgm_ack_process:buf <- $r4
	@DEBUG_VALUE: nwk_mgm_childs_register_ack_proccess:instance <- $r0
	@DEBUG_VALUE: nwk_mgm_ack_process:aResult <- [DW_OP_LLVM_entry_value 1] $r3
	@DEBUG_VALUE: nwk_mgm_ack_process:aMessageInfo <- [DW_OP_LLVM_entry_value 1] $r2
	@DEBUG_VALUE: nwk_mgm_ack_process:aContext <- [DW_OP_LLVM_entry_value 1] $r0
	.loc	1 0 0 is_stmt 0                 @ ../das_subg_thread/network_management.c:0:0
	mov	r9, r0
.Ltmp130:
	@DEBUG_VALUE: nwk_mgm_childs_register_ack_proccess:instance <- $r9
	.loc	1 700 30 is_stmt 1              @ ../das_subg_thread/network_management.c:700:30
	bl	otThreadGetDeviceRole
.Ltmp131:
	mov	r6, r0
.Ltmp132:
	@DEBUG_VALUE: mRole <- $r6
	.loc	1 703 24                        @ ../das_subg_thread/network_management.c:703:24
	mov	r0, r9
	bl	otLinkGetExtendedAddress
.Ltmp133:
	.loc	1 703 23 is_stmt 0              @ ../das_subg_thread/network_management.c:703:23
	ldr	r1, [r0, #4]
.Ltmp134:
	@DEBUG_VALUE: aExtAddress <- [DW_OP_LLVM_fragment 32 32] $r1
	ldr	r0, [r0]
.Ltmp135:
	@DEBUG_VALUE: aExtAddress <- [DW_OP_LLVM_fragment 0 32] $r0
	.loc	1 706 17 is_stmt 1              @ ../das_subg_thread/network_management.c:706:17
	cmp	r6, #3
.Ltmp136:
	.loc	1 703 23                        @ ../das_subg_thread/network_management.c:703:23
	str	r1, [sp, #84]
	str	r0, [sp, #80]
.Ltmp137:
	.loc	1 706 17                        @ ../das_subg_thread/network_management.c:706:17
	bne	.LBB7_6
.Ltmp138:
@ %bb.5:
	@DEBUG_VALUE: nwk_mgm_childs_register_ack_proccess:instance <- $r9
	@DEBUG_VALUE: mRole <- $r6
	@DEBUG_VALUE: nwk_mgm_ack_process:aMessage <- $r5
	@DEBUG_VALUE: nwk_mgm_childs_register_ack_proccess:buf <- $r4
	@DEBUG_VALUE: nwk_mgm_ack_process:buf <- $r4
	@DEBUG_VALUE: aExtAddress <- [DW_OP_LLVM_fragment 32 32] $r1
	@DEBUG_VALUE: aExtAddress <- [DW_OP_LLVM_fragment 0 32] $r0
	@DEBUG_VALUE: nwk_mgm_ack_process:aResult <- [DW_OP_LLVM_entry_value 1] $r3
	@DEBUG_VALUE: nwk_mgm_ack_process:aMessageInfo <- [DW_OP_LLVM_entry_value 1] $r2
	@DEBUG_VALUE: nwk_mgm_ack_process:aContext <- [DW_OP_LLVM_entry_value 1] $r0
	.loc	1 0 17 is_stmt 0                @ ../das_subg_thread/network_management.c:0:17
	add.w	r8, sp, #92
.Ltmp139:
	.loc	1 712 29 is_stmt 1              @ ../das_subg_thread/network_management.c:712:29
	movs	r0, #1
.Ltmp140:
	mov	r1, r4
.Ltmp141:
	mov	r2, r7
	mov	r3, r8
	bl	nwk_mgm_data_parse
.Ltmp142:
	.loc	1 712 29 is_stmt 0              @ ../das_subg_thread/network_management.c:712:29
	cbz	r0, .LBB7_8
.Ltmp143:
.LBB7_6:
	@DEBUG_VALUE: nwk_mgm_ack_process:buf <- $r4
	@DEBUG_VALUE: nwk_mgm_ack_process:aResult <- [DW_OP_LLVM_entry_value 1] $r3
	@DEBUG_VALUE: nwk_mgm_ack_process:aMessageInfo <- [DW_OP_LLVM_entry_value 1] $r2
	@DEBUG_VALUE: nwk_mgm_ack_process:aContext <- [DW_OP_LLVM_entry_value 1] $r0
	.loc	1 864 9 is_stmt 1               @ ../das_subg_thread/network_management.c:864:9
	mov	r0, r4
	bl	vPortFree
.Ltmp144:
.LBB7_7:
	@DEBUG_VALUE: nwk_mgm_ack_process:aResult <- [DW_OP_LLVM_entry_value 1] $r3
	@DEBUG_VALUE: nwk_mgm_ack_process:aMessageInfo <- [DW_OP_LLVM_entry_value 1] $r2
	@DEBUG_VALUE: nwk_mgm_ack_process:aContext <- [DW_OP_LLVM_entry_value 1] $r0
	.loc	1 866 1                         @ ../das_subg_thread/network_management.c:866:1
	add	sp, #492
	pop.w	{r4, r5, r6, r7, r8, r9, r10, r11, pc}
.Ltmp145:
.LBB7_8:
	@DEBUG_VALUE: nwk_mgm_childs_register_ack_proccess:instance <- $r9
	@DEBUG_VALUE: mRole <- $r6
	@DEBUG_VALUE: nwk_mgm_ack_process:aMessage <- $r5
	@DEBUG_VALUE: nwk_mgm_childs_register_ack_proccess:buf <- $r4
	@DEBUG_VALUE: nwk_mgm_ack_process:buf <- $r4
	@DEBUG_VALUE: nwk_mgm_ack_process:aResult <- [DW_OP_LLVM_entry_value 1] $r3
	@DEBUG_VALUE: nwk_mgm_ack_process:aMessageInfo <- [DW_OP_LLVM_entry_value 1] $r2
	@DEBUG_VALUE: nwk_mgm_ack_process:aContext <- [DW_OP_LLVM_entry_value 1] $r0
	.loc	1 716 25                        @ ../das_subg_thread/network_management.c:716:25
	movw	r0, :lower16:nwk_mgm_debug_flags
	movt	r0, :upper16:nwk_mgm_debug_flags
	ldr	r0, [r0]
.Ltmp146:
	.loc	1 0 0 is_stmt 0                 @ ../das_subg_thread/network_management.c:0:0
	ldrb.w	r7, [sp, #93]
.Ltmp147:
	.loc	1 716 25                        @ ../das_subg_thread/network_management.c:716:25
	cbz	r0, .LBB7_10
.Ltmp148:
@ %bb.9:
	@DEBUG_VALUE: nwk_mgm_childs_register_ack_proccess:instance <- $r9
	@DEBUG_VALUE: mRole <- $r6
	@DEBUG_VALUE: nwk_mgm_ack_process:aMessage <- $r5
	@DEBUG_VALUE: nwk_mgm_childs_register_ack_proccess:buf <- $r4
	@DEBUG_VALUE: nwk_mgm_ack_process:buf <- $r4
	@DEBUG_VALUE: nwk_mgm_ack_process:aResult <- [DW_OP_LLVM_entry_value 1] $r3
	@DEBUG_VALUE: nwk_mgm_ack_process:aMessageInfo <- [DW_OP_LLVM_entry_value 1] $r2
	@DEBUG_VALUE: nwk_mgm_ack_process:aContext <- [DW_OP_LLVM_entry_value 1] $r0
	.loc	1 716 25                        @ ../das_subg_thread/network_management.c:716:25
	adr	r0, .LCPI7_0
	mov	r1, r7
	bl	__2printf
.Ltmp149:
.LBB7_10:
	@DEBUG_VALUE: nwk_mgm_childs_register_ack_proccess:instance <- $r9
	@DEBUG_VALUE: mRole <- $r6
	@DEBUG_VALUE: nwk_mgm_ack_process:aMessage <- $r5
	@DEBUG_VALUE: nwk_mgm_childs_register_ack_proccess:buf <- $r4
	@DEBUG_VALUE: nwk_mgm_ack_process:buf <- $r4
	@DEBUG_VALUE: nwk_mgm_ack_process:aResult <- [DW_OP_LLVM_entry_value 1] $r3
	@DEBUG_VALUE: nwk_mgm_ack_process:aMessageInfo <- [DW_OP_LLVM_entry_value 1] $r2
	@DEBUG_VALUE: nwk_mgm_ack_process:aContext <- [DW_OP_LLVM_entry_value 1] $r0
	.loc	1 717 43 is_stmt 1              @ ../das_subg_thread/network_management.c:717:43
	movw	r0, :lower16:reg_table_is_full
	.loc	1 717 45 is_stmt 0              @ ../das_subg_thread/network_management.c:717:45
	cmp	r7, #0
	.loc	1 717 43                        @ ../das_subg_thread/network_management.c:717:43
	movt	r0, :upper16:reg_table_is_full
	.loc	1 717 45                        @ ../das_subg_thread/network_management.c:717:45
	it	ne
	movne	r7, #1
	.loc	1 717 43                        @ ../das_subg_thread/network_management.c:717:43
	strb	r7, [r0]
	.loc	1 718 29 is_stmt 1              @ ../das_subg_thread/network_management.c:718:29
	beq	.LBB7_6
.Ltmp150:
@ %bb.11:
	@DEBUG_VALUE: nwk_mgm_childs_register_ack_proccess:instance <- $r9
	@DEBUG_VALUE: mRole <- $r6
	@DEBUG_VALUE: nwk_mgm_ack_process:aMessage <- $r5
	@DEBUG_VALUE: nwk_mgm_childs_register_ack_proccess:buf <- $r4
	@DEBUG_VALUE: nwk_mgm_ack_process:buf <- $r4
	@DEBUG_VALUE: nwk_mgm_ack_process:aResult <- [DW_OP_LLVM_entry_value 1] $r3
	@DEBUG_VALUE: nwk_mgm_ack_process:aMessageInfo <- [DW_OP_LLVM_entry_value 1] $r2
	@DEBUG_VALUE: nwk_mgm_ack_process:aContext <- [DW_OP_LLVM_entry_value 1] $r0
	@DEBUG_VALUE: i <- 0
	.loc	1 720 73                        @ ../das_subg_thread/network_management.c:720:73
	ldrh.w	r0, [sp, #94]
.Ltmp151:
	.loc	1 720 29 is_stmt 0              @ ../das_subg_thread/network_management.c:720:29
	cmp	r0, #0
	beq	.LBB7_6
.Ltmp152:
@ %bb.12:
	@DEBUG_VALUE: nwk_mgm_childs_register_ack_proccess:instance <- $r9
	@DEBUG_VALUE: mRole <- $r6
	@DEBUG_VALUE: nwk_mgm_ack_process:aMessage <- $r5
	@DEBUG_VALUE: nwk_mgm_childs_register_ack_proccess:buf <- $r4
	@DEBUG_VALUE: nwk_mgm_ack_process:buf <- $r4
	@DEBUG_VALUE: i <- 0
	@DEBUG_VALUE: nwk_mgm_ack_process:aResult <- [DW_OP_LLVM_entry_value 1] $r3
	@DEBUG_VALUE: nwk_mgm_ack_process:aMessageInfo <- [DW_OP_LLVM_entry_value 1] $r2
	@DEBUG_VALUE: nwk_mgm_ack_process:aContext <- [DW_OP_LLVM_entry_value 1] $r0
	add.w	r0, r0, r0, lsl #1
	lsls	r0, r0, #2
	mov.w	r11, #0
	str	r0, [sp, #32]                   @ 4-byte Spill
.Ltmp153:
.LBB7_13:                               @ =>This Inner Loop Header: Depth=1
	@DEBUG_VALUE: nwk_mgm_childs_register_ack_proccess:instance <- $r9
	@DEBUG_VALUE: nwk_mgm_childs_register_ack_proccess:buf <- $r4
	@DEBUG_VALUE: nwk_mgm_ack_process:buf <- $r4
	@DEBUG_VALUE: nwk_mgm_ack_process:aResult <- [DW_OP_LLVM_entry_value 1] $r3
	@DEBUG_VALUE: nwk_mgm_ack_process:aMessageInfo <- [DW_OP_LLVM_entry_value 1] $r2
	@DEBUG_VALUE: nwk_mgm_ack_process:aContext <- [DW_OP_LLVM_entry_value 1] $r0
	@DEBUG_VALUE: i <- undef
	.loc	1 722 33 is_stmt 1              @ ../das_subg_thread/network_management.c:722:33
	movw	r0, :lower16:nwk_mgm_debug_flags
	movt	r0, :upper16:nwk_mgm_debug_flags
	ldr	r0, [r0]
.Ltmp154:
	.loc	1 722 33 is_stmt 0              @ ../das_subg_thread/network_management.c:722:33
	cbz	r0, .LBB7_15
.Ltmp155:
@ %bb.14:                               @   in Loop: Header=BB7_13 Depth=1
	@DEBUG_VALUE: nwk_mgm_childs_register_ack_proccess:instance <- $r9
	@DEBUG_VALUE: nwk_mgm_childs_register_ack_proccess:buf <- $r4
	@DEBUG_VALUE: nwk_mgm_ack_process:buf <- $r4
	@DEBUG_VALUE: nwk_mgm_ack_process:aResult <- [DW_OP_LLVM_entry_value 1] $r3
	@DEBUG_VALUE: nwk_mgm_ack_process:aMessageInfo <- [DW_OP_LLVM_entry_value 1] $r2
	@DEBUG_VALUE: nwk_mgm_ack_process:aContext <- [DW_OP_LLVM_entry_value 1] $r0
	.loc	1 722 33                        @ ../das_subg_thread/network_management.c:722:33
	add.w	r0, r8, r11
	ldrh	r1, [r0, #4]
	ldrb	r2, [r0, #6]
	ldrb	r3, [r0, #7]
	ldrb	r7, [r0, #8]
	ldrb	r6, [r0, #9]
	ldrb	r5, [r0, #10]
	ldrb.w	r12, [r0, #11]
	ldrb.w	lr, [r0, #12]
	ldrb.w	r10, [r0, #13]
	ldrsb.w	r0, [r0, #14]
	strd	r7, r6, [sp]
	str	r0, [sp, #36]                   @ 4-byte Spill
	add	r0, sp, #8
	ldr	r7, [sp, #36]                   @ 4-byte Reload
	stm.w	r0, {r5, r12, lr}
	adr	r0, .LCPI7_1
	str.w	r10, [sp, #20]
	str	r7, [sp, #24]
	bl	__2printf
.Ltmp156:
.LBB7_15:                               @   in Loop: Header=BB7_13 Depth=1
	@DEBUG_VALUE: nwk_mgm_childs_register_ack_proccess:instance <- $r9
	@DEBUG_VALUE: nwk_mgm_childs_register_ack_proccess:buf <- $r4
	@DEBUG_VALUE: nwk_mgm_ack_process:buf <- $r4
	@DEBUG_VALUE: nwk_mgm_ack_process:aResult <- [DW_OP_LLVM_entry_value 1] $r3
	@DEBUG_VALUE: nwk_mgm_ack_process:aMessageInfo <- [DW_OP_LLVM_entry_value 1] $r2
	@DEBUG_VALUE: nwk_mgm_ack_process:aContext <- [DW_OP_LLVM_entry_value 1] $r0
	@DEBUG_VALUE: aExtAddress <- [DW_OP_plus_uconst 80, DW_OP_deref] $sp
	.loc	1 733 37 is_stmt 1              @ ../das_subg_thread/network_management.c:733:37
	add.w	r6, r8, r11
	adds	r7, r6, #6
	mov	r0, r7
	add	r1, sp, #80
	movs	r2, #8
	bl	memcmp
.Ltmp157:
	.loc	1 733 37 is_stmt 0              @ ../das_subg_thread/network_management.c:733:37
	cbz	r0, .LBB7_17
.Ltmp158:
@ %bb.16:                               @   in Loop: Header=BB7_13 Depth=1
	@DEBUG_VALUE: nwk_mgm_childs_register_ack_proccess:instance <- $r9
	@DEBUG_VALUE: nwk_mgm_childs_register_ack_proccess:buf <- $r4
	@DEBUG_VALUE: nwk_mgm_ack_process:buf <- $r4
	@DEBUG_VALUE: aExtAddress <- [DW_OP_plus_uconst 80, DW_OP_deref] $sp
	@DEBUG_VALUE: nwk_mgm_ack_process:aResult <- [DW_OP_LLVM_entry_value 1] $r3
	@DEBUG_VALUE: nwk_mgm_ack_process:aMessageInfo <- [DW_OP_LLVM_entry_value 1] $r2
	@DEBUG_VALUE: nwk_mgm_ack_process:aContext <- [DW_OP_LLVM_entry_value 1] $r0
	.loc	1 745 94 is_stmt 1              @ ../das_subg_thread/network_management.c:745:94
	ldrh	r6, [r6, #4]
	.loc	1 746 61                        @ ../das_subg_thread/network_management.c:746:61
	mov	r0, r9
	bl	otLinkGetPanId
.Ltmp159:
	mov	r1, r0
	.loc	1 745 37                        @ ../das_subg_thread/network_management.c:745:37
	mov	r0, r6
	mov	r2, r7
	bl	nwk_mgm_kick_child_post
.Ltmp160:
	.loc	1 748 37                        @ ../das_subg_thread/network_management.c:748:37
	mov	r0, r9
	mov	r1, r6
	bl	otLinkRemoveChildren
.Ltmp161:
	@DEBUG_VALUE: i <- [DW_OP_plus_uconst 1, DW_OP_stack_value] undef
	.loc	1 720 29                        @ ../das_subg_thread/network_management.c:720:29
	ldr	r0, [sp, #32]                   @ 4-byte Reload
.Ltmp162:
	.loc	1 720 52 is_stmt 0              @ ../das_subg_thread/network_management.c:720:52
	add.w	r11, r11, #12
.Ltmp163:
	.loc	1 720 29                        @ ../das_subg_thread/network_management.c:720:29
	cmp	r0, r11
	bne	.LBB7_13
	b	.LBB7_6
.Ltmp164:
.LBB7_17:
	@DEBUG_VALUE: nwk_mgm_childs_register_ack_proccess:instance <- $r9
	@DEBUG_VALUE: nwk_mgm_childs_register_ack_proccess:buf <- $r4
	@DEBUG_VALUE: nwk_mgm_ack_process:buf <- $r4
	@DEBUG_VALUE: aExtAddress <- [DW_OP_plus_uconst 80, DW_OP_deref] $sp
	@DEBUG_VALUE: nwk_mgm_ack_process:aResult <- [DW_OP_LLVM_entry_value 1] $r3
	@DEBUG_VALUE: nwk_mgm_ack_process:aMessageInfo <- [DW_OP_LLVM_entry_value 1] $r2
	@DEBUG_VALUE: nwk_mgm_ack_process:aContext <- [DW_OP_LLVM_entry_value 1] $r0
	.loc	1 735 37 is_stmt 1              @ ../das_subg_thread/network_management.c:735:37
	movw	r0, :lower16:nwk_mgm_debug_flags
	movt	r0, :upper16:nwk_mgm_debug_flags
	ldr	r0, [r0]
.Ltmp165:
	.loc	1 735 37 is_stmt 0              @ ../das_subg_thread/network_management.c:735:37
	cbz	r0, .LBB7_19
.Ltmp166:
@ %bb.18:
	@DEBUG_VALUE: nwk_mgm_childs_register_ack_proccess:instance <- $r9
	@DEBUG_VALUE: nwk_mgm_childs_register_ack_proccess:buf <- $r4
	@DEBUG_VALUE: nwk_mgm_ack_process:buf <- $r4
	@DEBUG_VALUE: aExtAddress <- [DW_OP_plus_uconst 80, DW_OP_deref] $sp
	@DEBUG_VALUE: nwk_mgm_ack_process:aResult <- [DW_OP_LLVM_entry_value 1] $r3
	@DEBUG_VALUE: nwk_mgm_ack_process:aMessageInfo <- [DW_OP_LLVM_entry_value 1] $r2
	@DEBUG_VALUE: nwk_mgm_ack_process:aContext <- [DW_OP_LLVM_entry_value 1] $r0
	.loc	1 735 37                        @ ../das_subg_thread/network_management.c:735:37
	adr	r0, .LCPI7_2
	bl	puts
.Ltmp167:
.LBB7_19:
	@DEBUG_VALUE: nwk_mgm_childs_register_ack_proccess:instance <- $r9
	@DEBUG_VALUE: nwk_mgm_childs_register_ack_proccess:buf <- $r4
	@DEBUG_VALUE: nwk_mgm_ack_process:buf <- $r4
	@DEBUG_VALUE: aExtAddress <- [DW_OP_plus_uconst 80, DW_OP_deref] $sp
	@DEBUG_VALUE: nwk_mgm_ack_process:aResult <- [DW_OP_LLVM_entry_value 1] $r3
	@DEBUG_VALUE: nwk_mgm_ack_process:aMessageInfo <- [DW_OP_LLVM_entry_value 1] $r2
	@DEBUG_VALUE: nwk_mgm_ack_process:aContext <- [DW_OP_LLVM_entry_value 1] $r0
	.loc	1 736 92 is_stmt 1              @ ../das_subg_thread/network_management.c:736:92
	mov	r0, r9
	bl	otLinkGetPanId
.Ltmp168:
	mov	r1, r0
	.loc	1 736 58 is_stmt 0              @ ../das_subg_thread/network_management.c:736:58
	mov	r0, r9
	bl	otLinkBlackListAddPanId
.Ltmp169:
	.loc	1 736 41                        @ ../das_subg_thread/network_management.c:736:41
	cbz	r0, .LBB7_22
.Ltmp170:
@ %bb.20:
	@DEBUG_VALUE: nwk_mgm_childs_register_ack_proccess:instance <- $r9
	@DEBUG_VALUE: nwk_mgm_childs_register_ack_proccess:buf <- $r4
	@DEBUG_VALUE: nwk_mgm_ack_process:buf <- $r4
	@DEBUG_VALUE: aExtAddress <- [DW_OP_plus_uconst 80, DW_OP_deref] $sp
	@DEBUG_VALUE: nwk_mgm_ack_process:aResult <- [DW_OP_LLVM_entry_value 1] $r3
	@DEBUG_VALUE: nwk_mgm_ack_process:aMessageInfo <- [DW_OP_LLVM_entry_value 1] $r2
	@DEBUG_VALUE: nwk_mgm_ack_process:aContext <- [DW_OP_LLVM_entry_value 1] $r0
	.loc	1 0 41                          @ ../das_subg_thread/network_management.c:0:41
	movw	r0, :lower16:nwk_mgm_debug_flags
	movt	r0, :upper16:nwk_mgm_debug_flags
	ldr	r0, [r0]
	.loc	1 736 41                        @ ../das_subg_thread/network_management.c:736:41
	cbz	r0, .LBB7_22
.Ltmp171:
@ %bb.21:
	@DEBUG_VALUE: nwk_mgm_childs_register_ack_proccess:instance <- $r9
	@DEBUG_VALUE: nwk_mgm_childs_register_ack_proccess:buf <- $r4
	@DEBUG_VALUE: nwk_mgm_ack_process:buf <- $r4
	@DEBUG_VALUE: aExtAddress <- [DW_OP_plus_uconst 80, DW_OP_deref] $sp
	@DEBUG_VALUE: nwk_mgm_ack_process:aResult <- [DW_OP_LLVM_entry_value 1] $r3
	@DEBUG_VALUE: nwk_mgm_ack_process:aMessageInfo <- [DW_OP_LLVM_entry_value 1] $r2
	@DEBUG_VALUE: nwk_mgm_ack_process:aContext <- [DW_OP_LLVM_entry_value 1] $r0
	.loc	1 738 41 is_stmt 1              @ ../das_subg_thread/network_management.c:738:41
	movw	r0, :lower16:.Lstr.46
	movt	r0, :upper16:.Lstr.46
	bl	puts
.Ltmp172:
.LBB7_22:
	@DEBUG_VALUE: nwk_mgm_childs_register_ack_proccess:instance <- $r9
	@DEBUG_VALUE: nwk_mgm_childs_register_ack_proccess:buf <- $r4
	@DEBUG_VALUE: nwk_mgm_ack_process:buf <- $r4
	@DEBUG_VALUE: aExtAddress <- [DW_OP_plus_uconst 80, DW_OP_deref] $sp
	@DEBUG_VALUE: nwk_mgm_ack_process:aResult <- [DW_OP_LLVM_entry_value 1] $r3
	@DEBUG_VALUE: nwk_mgm_ack_process:aMessageInfo <- [DW_OP_LLVM_entry_value 1] $r2
	@DEBUG_VALUE: nwk_mgm_ack_process:aContext <- [DW_OP_LLVM_entry_value 1] $r0
	.loc	1 740 37                        @ ../das_subg_thread/network_management.c:740:37
	bl	nwk_mgm_reset
.Ltmp173:
	@DEBUG_VALUE: nwk_mgm_ack_process:buf <- $r4
	.loc	1 0 37 is_stmt 0                @ ../das_subg_thread/network_management.c:0:37
	b	.LBB7_6
.Ltmp174:
	.p2align	2
@ %bb.23:
.LCPI7_0:
.L.str.16:
	.asciz	"ack state %u\n\r\n"
.LCPI7_1:
.L.str.17:
	.asciz	"kick %04x, %02X%02X%02X%02X%02X%02X%02X%02X, %d \n\r\n"
.LCPI7_2:
.Lstr.43:
	.asciz	"kick self \n\r\000\000\000"
.Lfunc_end7:
	.size	nwk_mgm_ack_process, .Lfunc_end7-nwk_mgm_ack_process
	.cfi_endproc
	.file	11 "D:\\20240115\\rafael-iot-sdk-das\\examples\\das_subg_thread\\keil" "../../../components/network/thread/subg_openthread/include\\openthread/instance.h"
	.file	12 "D:\\20240115\\rafael-iot-sdk-das\\examples\\das_subg_thread\\keil" "../../../components/network/thread/subg_openthread/include\\openthread/platform/radio.h"
	.cantunwind
	.fnend
                                        @ -- End function
	.section	.text.nwk_mgm_child_register_post,"ax",%progbits
	.hidden	nwk_mgm_child_register_post     @ -- Begin function nwk_mgm_child_register_post
	.globl	nwk_mgm_child_register_post
	.p2align	2
	.type	nwk_mgm_child_register_post,%function
	.code	16                              @ @nwk_mgm_child_register_post
	.thumb_func
nwk_mgm_child_register_post:
.Lfunc_begin8:
	.loc	1 937 0 is_stmt 1               @ ../das_subg_thread/network_management.c:937:0
	.fnstart
	.cfi_startproc
@ %bb.0:
	.save	{r4, r5, r6, r7, r8, r9, r10, r11, lr}
	push.w	{r4, r5, r6, r7, r8, r9, r10, r11, lr}
	.cfi_def_cfa_offset 36
	.cfi_offset lr, -4
	.cfi_offset r11, -8
	.cfi_offset r10, -12
	.cfi_offset r9, -16
	.cfi_offset r8, -20
	.cfi_offset r7, -24
	.cfi_offset r6, -28
	.cfi_offset r5, -32
	.cfi_offset r4, -36
	.pad	#556
	sub.w	sp, sp, #556
	.cfi_def_cfa_offset 592
.Ltmp175:
	.loc	1 939 28 prologue_end           @ ../das_subg_thread/network_management.c:939:28
	bl	otrGetInstance
.Ltmp176:
	@DEBUG_VALUE: nwk_mgm_child_register_post:instance <- $r0
	.loc	1 940 9                         @ ../das_subg_thread/network_management.c:940:9
	cmp	r0, #0
	beq.w	.LBB8_14
.Ltmp177:
@ %bb.1:
	@DEBUG_VALUE: nwk_mgm_child_register_post:instance <- $r0
	.loc	1 0 0 is_stmt 0                 @ ../das_subg_thread/network_management.c:0:0
	mov	r5, r0
.Ltmp178:
	@DEBUG_VALUE: nwk_mgm_child_register_post:instance <- $r5
	@DEBUG_VALUE: error <- 0
	@DEBUG_VALUE: CoapCode <- 2
	.loc	1 944 43 is_stmt 1              @ ../das_subg_thread/network_management.c:944:43
	bl	otThreadGetRloc
.Ltmp179:
	.loc	1 0 43 is_stmt 0                @ ../das_subg_thread/network_management.c:0:43
	add	r4, sp, #540
	.loc	1 944 43                        @ ../das_subg_thread/network_management.c:944:43
	mov	r1, r0
	.loc	1 944 42                        @ ../das_subg_thread/network_management.c:944:42
	mov	r0, r4
	movs	r2, #16
	bl	__aeabi_memcpy
.Ltmp180:
	.loc	1 0 42                          @ ../das_subg_thread/network_management.c:0:42
	movs	r0, #252
	.loc	1 945 42 is_stmt 1              @ ../das_subg_thread/network_management.c:945:42
	strh.w	r0, [sp, #554]
	add	r1, sp, #500
	.loc	1 948 9                         @ ../das_subg_thread/network_management.c:948:9
	mov	r0, r4
	movs	r2, #40
	bl	otIp6AddressToString
.Ltmp181:
	@DEBUG_VALUE: payloadlength <- 0
	@DEBUG_VALUE: payload <- 0
	@DEBUG_VALUE: coapType <- 0
	.loc	1 0 9 is_stmt 0                 @ ../das_subg_thread/network_management.c:0:9
	add	r0, sp, #88
	.loc	1 959 34 is_stmt 1              @ ../das_subg_thread/network_management.c:959:34
	mov.w	r1, #412
	bl	__aeabi_memclr4
.Ltmp182:
	.loc	1 0 34 is_stmt 0                @ ../das_subg_thread/network_management.c:0:34
	add	r1, sp, #68
	.loc	1 960 9 is_stmt 1               @ ../das_subg_thread/network_management.c:960:9
	mov	r0, r5
	bl	otThreadGetParentInfo
.Ltmp183:
	.loc	1 961 44                        @ ../das_subg_thread/network_management.c:961:44
	ldrh.w	r9, [sp, #76]
	.loc	1 962 36                        @ ../das_subg_thread/network_management.c:962:36
	mov	r0, r5
	.loc	1 961 31                        @ ../das_subg_thread/network_management.c:961:31
	strh.w	r9, [sp, #90]
	.loc	1 962 36                        @ ../das_subg_thread/network_management.c:962:36
	bl	otThreadGetRloc16
.Ltmp184:
	mov	r8, r0
	.loc	1 962 34 is_stmt 0              @ ../das_subg_thread/network_management.c:962:34
	strh.w	r0, [sp, #92]
	.loc	1 963 24 is_stmt 1              @ ../das_subg_thread/network_management.c:963:24
	mov	r0, r5
	bl	otLinkGetExtendedAddress
.Ltmp185:
	.loc	1 963 23 is_stmt 0              @ ../das_subg_thread/network_management.c:963:23
	ldr	r4, [r0]
.Ltmp186:
	@DEBUG_VALUE: aExtAddress <- [DW_OP_LLVM_fragment 0 32] $r4
	ldr	r6, [r0, #4]
.Ltmp187:
	@DEBUG_VALUE: aExtAddress <- [DW_OP_LLVM_fragment 32 32] $r6
	.loc	1 967 32 is_stmt 1              @ ../das_subg_thread/network_management.c:967:32
	mov	r0, r5
	bl	otThreadGetMaxAllowedChildren
.Ltmp188:
	@DEBUG_VALUE: i <- 0
	@DEBUG_VALUE: childernmax <- $r0
	.loc	1 969 9                         @ ../das_subg_thread/network_management.c:969:9
	strd	r6, r4, [sp, #24]               @ 8-byte Folded Spill
	cbz	r0, .LBB8_7
.Ltmp189:
@ %bb.2:
	@DEBUG_VALUE: aExtAddress <- [DW_OP_LLVM_fragment 32 32] $r6
	@DEBUG_VALUE: nwk_mgm_child_register_post:instance <- $r5
	@DEBUG_VALUE: aExtAddress <- [DW_OP_LLVM_fragment 0 32] $r4
	@DEBUG_VALUE: childernmax <- $r0
	@DEBUG_VALUE: i <- 0
	@DEBUG_VALUE: coapType <- 0
	@DEBUG_VALUE: payload <- 0
	@DEBUG_VALUE: payloadlength <- 0
	@DEBUG_VALUE: CoapCode <- 2
	@DEBUG_VALUE: error <- 0
	.loc	1 0 9 is_stmt 0                 @ ../das_subg_thread/network_management.c:0:9
	mov	r7, r0
.Ltmp190:
	@DEBUG_VALUE: childernmax <- $r7
	@DEBUG_VALUE: childernmax <- $r7
	mov.w	r10, #0
	add	r4, sp, #32
.Ltmp191:
	mov.w	r11, #0
	add	r6, sp, #88
.Ltmp192:
	.p2align	2
.LBB8_3:                                @ =>This Inner Loop Header: Depth=1
	@DEBUG_VALUE: childernmax <- $r7
	@DEBUG_VALUE: nwk_mgm_child_register_post:instance <- $r5
	@DEBUG_VALUE: coapType <- 0
	@DEBUG_VALUE: payload <- 0
	@DEBUG_VALUE: payloadlength <- 0
	@DEBUG_VALUE: CoapCode <- 2
	@DEBUG_VALUE: error <- 0
	@DEBUG_VALUE: i <- $r11
	.loc	1 971 18 is_stmt 1              @ ../das_subg_thread/network_management.c:971:18
	uxth.w	r1, r11
	mov	r0, r5
	mov	r2, r4
	bl	otThreadGetChildInfoByIndex
.Ltmp193:
	.loc	1 971 89 is_stmt 0              @ ../das_subg_thread/network_management.c:971:89
	cbnz	r0, .LBB8_6
.Ltmp194:
@ %bb.4:                                @   in Loop: Header=BB8_3 Depth=1
	@DEBUG_VALUE: i <- $r11
	@DEBUG_VALUE: childernmax <- $r7
	@DEBUG_VALUE: nwk_mgm_child_register_post:instance <- $r5
	@DEBUG_VALUE: coapType <- 0
	@DEBUG_VALUE: payload <- 0
	@DEBUG_VALUE: payloadlength <- 0
	@DEBUG_VALUE: CoapCode <- 2
	@DEBUG_VALUE: error <- 0
	.loc	1 972 31 is_stmt 1              @ ../das_subg_thread/network_management.c:972:31
	ldrb.w	r0, [sp, #65]
.Ltmp195:
	.loc	1 971 17                        @ ../das_subg_thread/network_management.c:971:17
	lsls	r0, r0, #28
	bmi	.LBB8_6
.Ltmp196:
@ %bb.5:                                @   in Loop: Header=BB8_3 Depth=1
	@DEBUG_VALUE: i <- $r11
	@DEBUG_VALUE: childernmax <- $r7
	@DEBUG_VALUE: nwk_mgm_child_register_post:instance <- $r5
	@DEBUG_VALUE: coapType <- 0
	@DEBUG_VALUE: payload <- 0
	@DEBUG_VALUE: payloadlength <- 0
	@DEBUG_VALUE: CoapCode <- 2
	@DEBUG_VALUE: error <- 0
	.loc	1 977 13                        @ ../das_subg_thread/network_management.c:977:13
	uxth.w	r1, r10
	.loc	1 977 76 is_stmt 0              @ ../das_subg_thread/network_management.c:977:76
	ldrh.w	r0, [sp, #48]
	.loc	1 977 59                        @ ../das_subg_thread/network_management.c:977:59
	add.w	r1, r1, r1, lsl #1
	add.w	r1, r6, r1, lsl #2
	.loc	1 977 64                        @ ../das_subg_thread/network_management.c:977:64
	strh	r0, [r1, #16]
	.loc	1 978 13 is_stmt 1              @ ../das_subg_thread/network_management.c:978:13
	ldrd	r2, r0, [sp, #32]
	.loc	1 980 31                        @ ../das_subg_thread/network_management.c:980:31
	add.w	r10, r10, #1
	.loc	1 978 13                        @ ../das_subg_thread/network_management.c:978:13
	str.w	r0, [r1, #22]
	.loc	1 979 76                        @ ../das_subg_thread/network_management.c:979:76
	ldrb.w	r0, [sp, #54]
	.loc	1 978 13                        @ ../das_subg_thread/network_management.c:978:13
	str.w	r2, [r1, #18]
	.loc	1 979 64                        @ ../das_subg_thread/network_management.c:979:64
	strb	r0, [r1, #26]
.Ltmp197:
	.p2align	2
.LBB8_6:                                @   in Loop: Header=BB8_3 Depth=1
	@DEBUG_VALUE: i <- $r11
	@DEBUG_VALUE: childernmax <- $r7
	@DEBUG_VALUE: nwk_mgm_child_register_post:instance <- $r5
	@DEBUG_VALUE: coapType <- 0
	@DEBUG_VALUE: payload <- 0
	@DEBUG_VALUE: payloadlength <- 0
	@DEBUG_VALUE: CoapCode <- 2
	@DEBUG_VALUE: error <- 0
	.loc	1 969 48                        @ ../das_subg_thread/network_management.c:969:48
	add.w	r11, r11, #1
.Ltmp198:
	@DEBUG_VALUE: i <- $r11
	uxth.w	r0, r11
.Ltmp199:
	.loc	1 969 9 is_stmt 0               @ ../das_subg_thread/network_management.c:969:9
	cmp	r0, r7
	blo	.LBB8_3
	b	.LBB8_8
.Ltmp200:
.LBB8_7:
	@DEBUG_VALUE: aExtAddress <- [DW_OP_LLVM_fragment 32 32] $r6
	@DEBUG_VALUE: nwk_mgm_child_register_post:instance <- $r5
	@DEBUG_VALUE: aExtAddress <- [DW_OP_LLVM_fragment 0 32] $r4
	@DEBUG_VALUE: childernmax <- $r0
	@DEBUG_VALUE: i <- 0
	@DEBUG_VALUE: coapType <- 0
	@DEBUG_VALUE: payload <- 0
	@DEBUG_VALUE: payloadlength <- 0
	@DEBUG_VALUE: CoapCode <- 2
	@DEBUG_VALUE: error <- 0
	.loc	1 0 9                           @ ../das_subg_thread/network_management.c:0:9
	mov.w	r10, #0
	add	r6, sp, #88
.Ltmp201:
.LBB8_8:
	@DEBUG_VALUE: nwk_mgm_child_register_post:instance <- $r5
	@DEBUG_VALUE: coapType <- 0
	@DEBUG_VALUE: payload <- 0
	@DEBUG_VALUE: payloadlength <- 0
	@DEBUG_VALUE: CoapCode <- 2
	@DEBUG_VALUE: error <- 0
	.loc	1 983 19 is_stmt 1              @ ../das_subg_thread/network_management.c:983:19
	mov.w	r0, #412
	bl	pvPortMalloc
.Ltmp202:
	@DEBUG_VALUE: payload <- $r0
	.loc	1 984 13                        @ ../das_subg_thread/network_management.c:984:13
	cmp	r0, #0
	beq	.LBB8_14
.Ltmp203:
@ %bb.9:
	@DEBUG_VALUE: nwk_mgm_child_register_post:instance <- $r5
	@DEBUG_VALUE: payload <- $r0
	@DEBUG_VALUE: coapType <- 0
	@DEBUG_VALUE: payloadlength <- 0
	@DEBUG_VALUE: CoapCode <- 2
	@DEBUG_VALUE: error <- 0
	.loc	1 0 13 is_stmt 0                @ ../das_subg_thread/network_management.c:0:13
	mov.w	r11, #0
	@DEBUG_VALUE: nwk_mgm_data_piece:tmp <- [DW_OP_plus_uconst 1, DW_OP_stack_value] $r5
.Ltmp204:
	@DEBUG_VALUE: nwk_mgm_data_piece:kick_child_data <- 0
	@DEBUG_VALUE: nwk_mgm_data_piece:child_reg_data_ack <- 0
	@DEBUG_VALUE: nwk_mgm_data_piece:child_reg_data <- 0
	@DEBUG_VALUE: nwk_mgm_data_piece:payload <- $r5
	@DEBUG_VALUE: nwk_mgm_data_piece:type <- 0
	mov	r5, r0
.Ltmp205:
	@DEBUG_VALUE: payload <- $r5
	@DEBUG_VALUE: nwk_mgm_data_piece:payloadlength <- undef
	.loc	1 467 12 is_stmt 1              @ ../das_subg_thread/network_management.c:467:12
	strb.w	r11, [r0]
.Ltmp206:
	.loc	1 472 9                         @ ../das_subg_thread/network_management.c:472:9
	strh.w	r9, [r0, #1]
.Ltmp207:
	@DEBUG_VALUE: nwk_mgm_data_piece:tmp <- [DW_OP_plus_uconst 3, DW_OP_stack_value] $r5
	.loc	1 474 9                         @ ../das_subg_thread/network_management.c:474:9
	strh.w	r8, [r0, #3]
.Ltmp208:
	@DEBUG_VALUE: nwk_mgm_data_piece:tmp <- [DW_OP_plus_uconst 5, DW_OP_stack_value] $r5
	.loc	1 476 9                         @ ../das_subg_thread/network_management.c:476:9
	ldr	r0, [sp, #28]                   @ 4-byte Reload
	.loc	1 479 13                        @ ../das_subg_thread/network_management.c:479:13
	add.w	r4, r5, #15
.Ltmp209:
	@DEBUG_VALUE: nwk_mgm_data_piece:tmp <- $r4
	.loc	1 476 9                         @ ../das_subg_thread/network_management.c:476:9
	str.w	r0, [r5, #5]
	ldr	r0, [sp, #24]                   @ 4-byte Reload
	.loc	1 478 9                         @ ../das_subg_thread/network_management.c:478:9
	strh.w	r10, [r5, #13]
	.loc	1 476 9                         @ ../das_subg_thread/network_management.c:476:9
	str.w	r0, [r5, #9]
.Ltmp210:
	@DEBUG_VALUE: nwk_mgm_data_piece:tmp <- [DW_OP_plus_uconst 13, DW_OP_stack_value] $r5
	.loc	1 480 13                        @ ../das_subg_thread/network_management.c:480:13
	lsls.w	r0, r10, #16
.Ltmp211:
	@DEBUG_VALUE: nwk_mgm_data_piece:ptr <- [DW_OP_plus_uconst 88, DW_OP_stack_value] $sp
	@DEBUG_VALUE: nwk_mgm_data_piece:data <- [DW_OP_plus_uconst 88, DW_OP_stack_value] $sp
	@DEBUG_VALUE: nwk_mgm_data_piece:child_reg_data <- [DW_OP_plus_uconst 88, DW_OP_stack_value] $sp
	.loc	1 0 13 is_stmt 0                @ ../das_subg_thread/network_management.c:0:13
	beq	.LBB8_11
.Ltmp212:
@ %bb.10:
	@DEBUG_VALUE: nwk_mgm_data_piece:tmp <- [DW_OP_plus_uconst 13, DW_OP_stack_value] $r5
	@DEBUG_VALUE: payload <- $r5
	@DEBUG_VALUE: nwk_mgm_data_piece:child_reg_data <- [DW_OP_plus_uconst 88, DW_OP_stack_value] $sp
	@DEBUG_VALUE: nwk_mgm_data_piece:data <- [DW_OP_plus_uconst 88, DW_OP_stack_value] $sp
	@DEBUG_VALUE: nwk_mgm_data_piece:ptr <- [DW_OP_plus_uconst 88, DW_OP_stack_value] $sp
	@DEBUG_VALUE: nwk_mgm_data_piece:type <- 0
	@DEBUG_VALUE: nwk_mgm_data_piece:child_reg_data_ack <- 0
	@DEBUG_VALUE: nwk_mgm_data_piece:kick_child_data <- 0
	@DEBUG_VALUE: coapType <- 0
	@DEBUG_VALUE: payloadlength <- 0
	@DEBUG_VALUE: CoapCode <- 2
	@DEBUG_VALUE: error <- 0
	.loc	1 480 13                        @ ../das_subg_thread/network_management.c:480:13
	uxth.w	r0, r10
.Ltmp213:
	.loc	1 482 42 is_stmt 1              @ ../das_subg_thread/network_management.c:482:42
	add.w	r1, r6, #16
	.loc	1 482 75 is_stmt 0              @ ../das_subg_thread/network_management.c:482:75
	add.w	r6, r0, r0, lsl #1
	lsls	r2, r6, #2
	.loc	1 482 13                        @ ../das_subg_thread/network_management.c:482:13
	mov	r0, r4
	bl	__aeabi_memcpy
.Ltmp214:
	.loc	1 483 17 is_stmt 1              @ ../das_subg_thread/network_management.c:483:17
	add.w	r4, r4, r6, lsl #2
.Ltmp215:
	@DEBUG_VALUE: nwk_mgm_data_piece:tmp <- $r4
	@DEBUG_VALUE: nwk_mgm_data_piece:child_reg_data <- [DW_OP_plus_uconst 88, DW_OP_stack_value] $sp
.LBB8_11:
	@DEBUG_VALUE: payload <- $r5
	@DEBUG_VALUE: nwk_mgm_data_piece:child_reg_data <- [DW_OP_plus_uconst 88, DW_OP_stack_value] $sp
	@DEBUG_VALUE: nwk_mgm_data_piece:data <- [DW_OP_plus_uconst 88, DW_OP_stack_value] $sp
	@DEBUG_VALUE: nwk_mgm_data_piece:ptr <- [DW_OP_plus_uconst 88, DW_OP_stack_value] $sp
	@DEBUG_VALUE: nwk_mgm_data_piece:type <- 0
	@DEBUG_VALUE: nwk_mgm_data_piece:child_reg_data_ack <- 0
	@DEBUG_VALUE: nwk_mgm_data_piece:kick_child_data <- 0
	@DEBUG_VALUE: coapType <- 0
	@DEBUG_VALUE: payloadlength <- 0
	@DEBUG_VALUE: CoapCode <- 2
	@DEBUG_VALUE: error <- 0
	.loc	1 987 21                        @ ../das_subg_thread/network_management.c:987:21
	add	r3, sp, #540
	ldr	r0, [sp, #552]
	ldm	r3, {r1, r2, r3}
.Ltmp216:
	.loc	1 512 27                        @ ../das_subg_thread/network_management.c:512:27
	subs	r6, r4, r5
.Ltmp217:
	@DEBUG_VALUE: nwk_mgm_data_piece:tmp <- $r4
	.loc	1 987 21                        @ ../das_subg_thread/network_management.c:987:21
	movw	r7, :lower16:.L.str.7
	movt	r7, :upper16:.L.str.7
	uxth	r4, r6
.Ltmp218:
	@DEBUG_VALUE: payloadlength <- $r4
	strd	r0, r11, [sp]
	movs	r0, #2
	str	r5, [sp, #8]
	str	r7, [sp, #16]
	str	r4, [sp, #12]
	bl	nwk_mgm_coap_request
.Ltmp219:
	.loc	1 988 13                        @ ../das_subg_thread/network_management.c:988:13
	movw	r1, :lower16:nwk_mgm_debug_flags
	movt	r1, :upper16:nwk_mgm_debug_flags
	ldr	r1, [r1]
.Ltmp220:
	@DEBUG_VALUE: error <- $r0
	.loc	1 0 13 is_stmt 0                @ ../das_subg_thread/network_management.c:0:13
	cbz	r1, .LBB8_13
.Ltmp221:
@ %bb.12:
	@DEBUG_VALUE: payload <- $r5
	@DEBUG_VALUE: payloadlength <- $r4
	@DEBUG_VALUE: error <- $r0
	@DEBUG_VALUE: coapType <- 0
	@DEBUG_VALUE: CoapCode <- 2
	mov	r2, r0
.Ltmp222:
	@DEBUG_VALUE: error <- $r2
	.loc	1 988 13                        @ ../das_subg_thread/network_management.c:988:13
	adr	r0, .LCPI8_0
	add	r1, sp, #500
	mov	r3, r4
	bl	__2printf
.Ltmp223:
	@DEBUG_VALUE: payloadlength <- [DW_OP_LLVM_convert 32 7, DW_OP_LLVM_convert 16 7, DW_OP_stack_value] undef
.LBB8_13:
	@DEBUG_VALUE: payload <- $r5
	@DEBUG_VALUE: coapType <- 0
	@DEBUG_VALUE: CoapCode <- 2
	.loc	1 989 13 is_stmt 1              @ ../das_subg_thread/network_management.c:989:13
	mov	r0, r5
	bl	vPortFree
.Ltmp224:
	@DEBUG_VALUE: nwk_mgm_router_update_timer_set:time <- 101
	.loc	1 134 25                        @ ../das_subg_thread/network_management.c:134:25
	movw	r0, :lower16:mgm_router_up_timer
	movt	r0, :upper16:mgm_router_up_timer
	movs	r1, #101
	strh	r1, [r0]
.Ltmp225:
.LBB8_14:
	.loc	1 994 1                         @ ../das_subg_thread/network_management.c:994:1
	add.w	sp, sp, #556
	pop.w	{r4, r5, r6, r7, r8, r9, r10, r11, pc}
.Ltmp226:
	.p2align	2
@ %bb.15:
	.loc	1 0 1 is_stmt 0                 @ ../das_subg_thread/network_management.c:0:1
.LCPI8_0:
.L.str.8:
	.asciz	"register %s %u %u \n\r\n\000\000"
.Lfunc_end8:
	.size	nwk_mgm_child_register_post, .Lfunc_end8-nwk_mgm_child_register_post
	.cfi_endproc
	.cantunwind
	.fnend
                                        @ -- End function
	.section	.text.nwk_mgm_neighbor_Change_Callback,"ax",%progbits
	.hidden	nwk_mgm_neighbor_Change_Callback @ -- Begin function nwk_mgm_neighbor_Change_Callback
	.globl	nwk_mgm_neighbor_Change_Callback
	.p2align	2
	.type	nwk_mgm_neighbor_Change_Callback,%function
	.code	16                              @ @nwk_mgm_neighbor_Change_Callback
	.thumb_func
nwk_mgm_neighbor_Change_Callback:
.Lfunc_begin9:
	.loc	1 1038 0 is_stmt 1              @ ../das_subg_thread/network_management.c:1038:0
	.fnstart
	.cfi_startproc
@ %bb.0:
	@DEBUG_VALUE: nwk_mgm_neighbor_Change_Callback:aEvent <- $r0
	@DEBUG_VALUE: nwk_mgm_neighbor_Change_Callback:aEntryInfo <- $r1
	.save	{r4, r5, r6, r7, lr}
	push	{r4, r5, r6, r7, lr}
	.cfi_def_cfa_offset 20
	.cfi_offset lr, -4
	.cfi_offset r7, -8
	.cfi_offset r6, -12
	.cfi_offset r5, -16
	.cfi_offset r4, -20
	.pad	#4
	sub	sp, #4
	.cfi_def_cfa_offset 24
	mov	r4, r1
.Ltmp227:
	@DEBUG_VALUE: nwk_mgm_neighbor_Change_Callback:aEntryInfo <- $r4
	mov	r6, r0
.Ltmp228:
	@DEBUG_VALUE: nwk_mgm_neighbor_Change_Callback:aEvent <- $r6
	@DEBUG_VALUE: nwk_mgm_neighbor_Change_Callback:aEntryInfo <- $r4
	@DEBUG_VALUE: nwk_mgm_neighbor_Change_Callback:aEvent <- $r6
	.loc	1 1040 28 prologue_end          @ ../das_subg_thread/network_management.c:1040:28
	bl	otrGetInstance
.Ltmp229:
	@DEBUG_VALUE: nwk_mgm_neighbor_Change_Callback:instance <- $r0
	.loc	1 1041 9                        @ ../das_subg_thread/network_management.c:1041:9
	cmp	r0, #0
	beq	.LBB9_16
.Ltmp230:
@ %bb.1:
	@DEBUG_VALUE: nwk_mgm_neighbor_Change_Callback:aEvent <- $r6
	@DEBUG_VALUE: nwk_mgm_neighbor_Change_Callback:aEntryInfo <- $r4
	@DEBUG_VALUE: nwk_mgm_neighbor_Change_Callback:instance <- $r0
	.loc	1 0 0 is_stmt 0                 @ ../das_subg_thread/network_management.c:0:0
	mov	r5, r0
.Ltmp231:
	@DEBUG_VALUE: nwk_mgm_neighbor_Change_Callback:instance <- $r5
	.loc	1 1045 17 is_stmt 1             @ ../das_subg_thread/network_management.c:1045:17
	bl	otThreadGetDeviceRole
.Ltmp232:
	@DEBUG_VALUE: mRole <- $r0
	.loc	1 1047 13                       @ ../das_subg_thread/network_management.c:1047:13
	cmp	r0, #3
	beq	.LBB9_12
.Ltmp233:
@ %bb.2:
	@DEBUG_VALUE: nwk_mgm_neighbor_Change_Callback:aEvent <- $r6
	@DEBUG_VALUE: nwk_mgm_neighbor_Change_Callback:instance <- $r5
	@DEBUG_VALUE: nwk_mgm_neighbor_Change_Callback:aEntryInfo <- $r4
	@DEBUG_VALUE: mRole <- $r0
	cmp	r0, #4
	bne	.LBB9_14
.Ltmp234:
@ %bb.3:
	@DEBUG_VALUE: nwk_mgm_neighbor_Change_Callback:aEvent <- $r6
	@DEBUG_VALUE: nwk_mgm_neighbor_Change_Callback:instance <- $r5
	@DEBUG_VALUE: nwk_mgm_neighbor_Change_Callback:aEntryInfo <- $r4
	@DEBUG_VALUE: mRole <- $r0
	.loc	1 1049 25                       @ ../das_subg_thread/network_management.c:1049:25
	movw	r7, :lower16:nwk_mgm_child_reg_table
	movt	r7, :upper16:nwk_mgm_child_reg_table
	ldr	r0, [r7]
.Ltmp235:
	.loc	1 1049 17 is_stmt 0             @ ../das_subg_thread/network_management.c:1049:17
	cbnz	r0, .LBB9_5
.Ltmp236:
@ %bb.4:
	@DEBUG_VALUE: nwk_mgm_neighbor_Change_Callback:aEvent <- $r6
	@DEBUG_VALUE: nwk_mgm_neighbor_Change_Callback:instance <- $r5
	@DEBUG_VALUE: nwk_mgm_neighbor_Change_Callback:aEntryInfo <- $r4
	.loc	1 1051 17 is_stmt 1             @ ../das_subg_thread/network_management.c:1051:17
	adr	r0, .LCPI9_0
	mov.w	r1, #540
	bl	__2printf
.Ltmp237:
	.loc	1 1052 43                       @ ../das_subg_thread/network_management.c:1052:43
	mov.w	r0, #540
	bl	pvPortMalloc
.Ltmp238:
	.loc	1 1053 17                       @ ../das_subg_thread/network_management.c:1053:17
	mov.w	r1, #540
	.loc	1 1052 41                       @ ../das_subg_thread/network_management.c:1052:41
	str	r0, [r7]
	.loc	1 1053 17                       @ ../das_subg_thread/network_management.c:1053:17
	bl	__aeabi_memclr
.Ltmp239:
.LBB9_5:
	@DEBUG_VALUE: nwk_mgm_neighbor_Change_Callback:aEvent <- $r6
	@DEBUG_VALUE: nwk_mgm_neighbor_Change_Callback:instance <- $r5
	@DEBUG_VALUE: nwk_mgm_neighbor_Change_Callback:aEntryInfo <- $r4
	.loc	1 1055 13                       @ ../das_subg_thread/network_management.c:1055:13
	cmp	r6, #1
	beq	.LBB9_17
.Ltmp240:
@ %bb.6:
	@DEBUG_VALUE: nwk_mgm_neighbor_Change_Callback:aEvent <- $r6
	@DEBUG_VALUE: nwk_mgm_neighbor_Change_Callback:instance <- $r5
	@DEBUG_VALUE: nwk_mgm_neighbor_Change_Callback:aEntryInfo <- $r4
	cbnz	r6, .LBB9_16
.Ltmp241:
@ %bb.7:
	@DEBUG_VALUE: nwk_mgm_neighbor_Change_Callback:aEvent <- $r6
	@DEBUG_VALUE: nwk_mgm_neighbor_Change_Callback:instance <- $r5
	@DEBUG_VALUE: nwk_mgm_neighbor_Change_Callback:aEntryInfo <- $r4
	.loc	1 1059 49                       @ ../das_subg_thread/network_management.c:1059:49
	mov	r0, r5
	bl	otThreadGetRloc16
.Ltmp242:
	.loc	1 1060 74                       @ ../das_subg_thread/network_management.c:1060:74
	ldrh	r2, [r4, #20]
	.loc	1 1062 74                       @ ../das_subg_thread/network_management.c:1062:74
	ldrsb.w	r7, [r4, #26]
	.loc	1 1060 74                       @ ../das_subg_thread/network_management.c:1060:74
	adds	r6, r4, #4
.Ltmp243:
	.loc	1 1059 49                       @ ../das_subg_thread/network_management.c:1059:49
	mov	r1, r0
	.loc	1 1058 21                       @ ../das_subg_thread/network_management.c:1058:21
	movs	r0, #2
	mov	r3, r6
	str	r7, [sp]
	bl	nwk_mgm_child_reg_table_add
.Ltmp244:
	.loc	1 1058 21 is_stmt 0             @ ../das_subg_thread/network_management.c:1058:21
	cbz	r0, .LBB9_11
.Ltmp245:
@ %bb.8:
	@DEBUG_VALUE: nwk_mgm_neighbor_Change_Callback:instance <- $r5
	@DEBUG_VALUE: nwk_mgm_neighbor_Change_Callback:aEntryInfo <- $r4
	.loc	1 1064 21 is_stmt 1             @ ../das_subg_thread/network_management.c:1064:21
	movw	r0, :lower16:nwk_mgm_debug_flags
	movt	r0, :upper16:nwk_mgm_debug_flags
	ldr	r0, [r0]
.Ltmp246:
	.loc	1 1064 21 is_stmt 0             @ ../das_subg_thread/network_management.c:1064:21
	cbz	r0, .LBB9_10
.Ltmp247:
@ %bb.9:
	@DEBUG_VALUE: nwk_mgm_neighbor_Change_Callback:instance <- $r5
	@DEBUG_VALUE: nwk_mgm_neighbor_Change_Callback:aEntryInfo <- $r4
	.loc	1 1064 21                       @ ../das_subg_thread/network_management.c:1064:21
	adr	r0, .LCPI9_2
	bl	puts
.Ltmp248:
.LBB9_10:
	@DEBUG_VALUE: nwk_mgm_neighbor_Change_Callback:instance <- $r5
	@DEBUG_VALUE: nwk_mgm_neighbor_Change_Callback:aEntryInfo <- $r4
	.loc	1 1065 70 is_stmt 1             @ ../das_subg_thread/network_management.c:1065:70
	ldrh	r7, [r4, #20]
	.loc	1 1066 45                       @ ../das_subg_thread/network_management.c:1066:45
	mov	r0, r5
	bl	otLinkGetPanId
.Ltmp249:
	mov	r1, r0
	.loc	1 1065 21                       @ ../das_subg_thread/network_management.c:1065:21
	mov	r0, r7
	mov	r2, r6
	bl	nwk_mgm_kick_child_post
.Ltmp250:
	.loc	1 1068 77                       @ ../das_subg_thread/network_management.c:1068:77
	ldrh	r1, [r4, #20]
	.loc	1 1068 21 is_stmt 0             @ ../das_subg_thread/network_management.c:1068:21
	mov	r0, r5
	bl	otLinkRemoveChildren
.Ltmp251:
.LBB9_11:
	@DEBUG_VALUE: nwk_mgm_neighbor_Change_Callback:instance <- $r5
	@DEBUG_VALUE: nwk_mgm_neighbor_Change_Callback:aEntryInfo <- $r4
	@DEBUG_VALUE: nwk_mgm_router_update_timer_set:time <- 101
	.loc	1 134 25 is_stmt 1              @ ../das_subg_thread/network_management.c:134:25
	movw	r0, :lower16:mgm_router_up_timer
	movt	r0, :upper16:mgm_router_up_timer
	movs	r1, #101
	strh	r1, [r0]
	b	.LBB9_16
.Ltmp252:
.LBB9_12:
	@DEBUG_VALUE: nwk_mgm_neighbor_Change_Callback:aEvent <- $r6
	@DEBUG_VALUE: nwk_mgm_neighbor_Change_Callback:instance <- $r5
	@DEBUG_VALUE: nwk_mgm_neighbor_Change_Callback:aEntryInfo <- $r4
	@DEBUG_VALUE: mRole <- $r0
	.loc	1 1084 63                       @ ../das_subg_thread/network_management.c:1084:63
	cmp	r6, #1
	bhi	.LBB9_14
.Ltmp253:
@ %bb.13:
	@DEBUG_VALUE: nwk_mgm_neighbor_Change_Callback:aEvent <- $r6
	@DEBUG_VALUE: nwk_mgm_neighbor_Change_Callback:instance <- $r5
	@DEBUG_VALUE: nwk_mgm_neighbor_Change_Callback:aEntryInfo <- $r4
	@DEBUG_VALUE: mRole <- $r0
	@DEBUG_VALUE: nwk_mgm_reg_send_timer_set:time <- 10
	.loc	1 129 24                        @ ../das_subg_thread/network_management.c:129:24
	movw	r0, :lower16:mgm_reg_send_timer
.Ltmp254:
	movt	r0, :upper16:mgm_reg_send_timer
	movs	r1, #10
	strh	r1, [r0]
.Ltmp255:
.LBB9_14:
	@DEBUG_VALUE: nwk_mgm_neighbor_Change_Callback:aEvent <- $r6
	@DEBUG_VALUE: nwk_mgm_neighbor_Change_Callback:instance <- $r5
	@DEBUG_VALUE: nwk_mgm_neighbor_Change_Callback:aEntryInfo <- $r4
	.loc	1 0 0 is_stmt 0                 @ ../das_subg_thread/network_management.c:0:0
	movw	r4, :lower16:nwk_mgm_child_reg_table
.Ltmp256:
	movt	r4, :upper16:nwk_mgm_child_reg_table
	ldr	r0, [r4]
	cbz	r0, .LBB9_16
.Ltmp257:
@ %bb.15:
	@DEBUG_VALUE: nwk_mgm_neighbor_Change_Callback:aEvent <- $r6
	@DEBUG_VALUE: nwk_mgm_neighbor_Change_Callback:instance <- $r5
	bl	vPortFree
.Ltmp258:
	movs	r0, #0
	str	r0, [r4]
.Ltmp259:
.LBB9_16:
	.loc	1 1103 1 is_stmt 1              @ ../das_subg_thread/network_management.c:1103:1
	add	sp, #4
	pop	{r4, r5, r6, r7, pc}
.LBB9_17:
.Ltmp260:
	@DEBUG_VALUE: nwk_mgm_neighbor_Change_Callback:aEvent <- $r6
	@DEBUG_VALUE: nwk_mgm_neighbor_Change_Callback:instance <- $r5
	@DEBUG_VALUE: nwk_mgm_neighbor_Change_Callback:aEntryInfo <- $r4
	.loc	1 1074 17                       @ ../das_subg_thread/network_management.c:1074:17
	movw	r0, :lower16:nwk_mgm_debug_flags
	movt	r0, :upper16:nwk_mgm_debug_flags
	ldr	r0, [r0]
.Ltmp261:
	.loc	1 1074 17 is_stmt 0             @ ../das_subg_thread/network_management.c:1074:17
	cbz	r0, .LBB9_19
.Ltmp262:
@ %bb.18:
	@DEBUG_VALUE: nwk_mgm_neighbor_Change_Callback:aEvent <- $r6
	@DEBUG_VALUE: nwk_mgm_neighbor_Change_Callback:instance <- $r5
	@DEBUG_VALUE: nwk_mgm_neighbor_Change_Callback:aEntryInfo <- $r4
	.loc	1 1074 17                       @ ../das_subg_thread/network_management.c:1074:17
	adr	r0, .LCPI9_1
	bl	puts
.Ltmp263:
.LBB9_19:
	@DEBUG_VALUE: nwk_mgm_neighbor_Change_Callback:aEvent <- $r6
	@DEBUG_VALUE: nwk_mgm_neighbor_Change_Callback:instance <- $r5
	@DEBUG_VALUE: nwk_mgm_neighbor_Change_Callback:aEntryInfo <- $r4
	.loc	1 1075 81 is_stmt 1             @ ../das_subg_thread/network_management.c:1075:81
	adds	r0, r4, #4
	.loc	1 1075 17 is_stmt 0             @ ../das_subg_thread/network_management.c:1075:17
	add	sp, #4
	pop.w	{r4, r5, r6, r7, lr}
.Ltmp264:
	b	nwk_mgm_child_reg_table_remove
.Ltmp265:
	.p2align	2
@ %bb.20:
	.loc	1 0 17                          @ ../das_subg_thread/network_management.c:0:17
.LCPI9_0:
.L.str.9:
	.asciz	"malloc table %u \r\n\000"
.LCPI9_1:
.Lstr.38:
	.asciz	"leader remove \n\r\000\000\000"
.LCPI9_2:
.Lstr.39:
	.asciz	"leader add fail \n\r\000"
.Lfunc_end9:
	.size	nwk_mgm_neighbor_Change_Callback, .Lfunc_end9-nwk_mgm_neighbor_Change_Callback
	.cfi_endproc
	.cantunwind
	.fnend
                                        @ -- End function
	.section	.text.nwk_mgm_child_reg_table_add,"ax",%progbits
	.p2align	2                               @ -- Begin function nwk_mgm_child_reg_table_add
	.type	nwk_mgm_child_reg_table_add,%function
	.code	16                              @ @nwk_mgm_child_reg_table_add
	.thumb_func
nwk_mgm_child_reg_table_add:
.Lfunc_begin10:
	.loc	1 138 0 is_stmt 1               @ ../das_subg_thread/network_management.c:138:0
	.fnstart
	.cfi_startproc
@ %bb.0:
	@DEBUG_VALUE: nwk_mgm_child_reg_table_add:role <- $r0
	@DEBUG_VALUE: nwk_mgm_child_reg_table_add:parent <- $r1
	@DEBUG_VALUE: nwk_mgm_child_reg_table_add:rloc <- $r2
	@DEBUG_VALUE: nwk_mgm_child_reg_table_add:extaddr <- $r3
	.save	{r4, r5, r6, r7, r8, r9, r10, r11, lr}
	push.w	{r4, r5, r6, r7, r8, r9, r10, r11, lr}
	.cfi_def_cfa_offset 36
	.cfi_offset lr, -4
	.cfi_offset r11, -8
	.cfi_offset r10, -12
	.cfi_offset r9, -16
	.cfi_offset r8, -20
	.cfi_offset r7, -24
	.cfi_offset r6, -28
	.cfi_offset r5, -32
	.cfi_offset r4, -36
	.pad	#36
	sub	sp, #36
	.cfi_def_cfa_offset 72
.Ltmp266:
	.loc	1 140 9 prologue_end            @ ../das_subg_thread/network_management.c:140:9
	movw	r5, :lower16:nwk_mgm_child_reg_table
	movt	r5, :upper16:nwk_mgm_child_reg_table
	mov	r8, r1
.Ltmp267:
	@DEBUG_VALUE: nwk_mgm_child_reg_table_add:parent <- $r8
	@DEBUG_VALUE: nwk_mgm_child_reg_table_add:extaddr <- $r3
	@DEBUG_VALUE: nwk_mgm_child_reg_table_add:rloc <- $r2
	@DEBUG_VALUE: nwk_mgm_child_reg_table_add:parent <- $r8
	ldr	r1, [r5]
.Ltmp268:
	@DEBUG_VALUE: nwk_mgm_child_reg_table_add:i <- 0
	@DEBUG_VALUE: nwk_mgm_child_reg_table_add:rssi <- undef
	@DEBUG_VALUE: nwk_mgm_child_reg_table_add:role <- $r0
	.loc	1 0 9 is_stmt 0                 @ ../das_subg_thread/network_management.c:0:9
	movs	r4, #0
.Ltmp269:
	.loc	1 140 9                         @ ../das_subg_thread/network_management.c:140:9
	cbz	r1, .LBB10_9
.Ltmp270:
@ %bb.1:
	@DEBUG_VALUE: nwk_mgm_child_reg_table_add:parent <- $r8
	@DEBUG_VALUE: nwk_mgm_child_reg_table_add:extaddr <- $r3
	@DEBUG_VALUE: nwk_mgm_child_reg_table_add:rloc <- $r2
	@DEBUG_VALUE: nwk_mgm_child_reg_table_add:role <- $r0
	@DEBUG_VALUE: nwk_mgm_child_reg_table_add:i <- 0
	.loc	1 0 9                           @ ../das_subg_thread/network_management.c:0:9
	mov	r6, r3
.Ltmp271:
	@DEBUG_VALUE: nwk_mgm_child_reg_table_add:extaddr <- $r6
	@DEBUG_VALUE: nwk_mgm_child_reg_table_add:extaddr <- $r6
	mov	r11, r0
.Ltmp272:
	@DEBUG_VALUE: nwk_mgm_child_reg_table_add:role <- $r11
	@DEBUG_VALUE: nwk_mgm_child_reg_table_add:role <- $r11
	str	r2, [sp, #32]                   @ 4-byte Spill
.Ltmp273:
	@DEBUG_VALUE: nwk_mgm_child_reg_table_add:rloc <- [DW_OP_plus_uconst 32] [$sp+0]
	@DEBUG_VALUE: nwk_mgm_child_reg_table_add:rssi <- undef
	@DEBUG_VALUE: nwk_mgm_child_reg_table_add:rloc <- [DW_OP_plus_uconst 32] [$sp+0]
	@DEBUG_VALUE: nwk_mgm_child_reg_table_add:parent <- $r8
	@DEBUG_VALUE: nwk_mgm_child_reg_table_add:role <- $r11
	.loc	1 142 9 is_stmt 1               @ ../das_subg_thread/network_management.c:142:9
	bl	enter_critical_section
.Ltmp274:
	@DEBUG_VALUE: nwk_mgm_child_reg_table_add:i <- 0
	.loc	1 0 9 is_stmt 0                 @ ../das_subg_thread/network_management.c:0:9
	ldr.w	r10, [r5]
	movs	r5, #0
	mov.w	r9, #16
.Ltmp275:
	.p2align	2
.LBB10_2:                               @ =>This Inner Loop Header: Depth=1
	@DEBUG_VALUE: nwk_mgm_child_reg_table_add:role <- $r11
	@DEBUG_VALUE: nwk_mgm_child_reg_table_add:parent <- $r8
	@DEBUG_VALUE: nwk_mgm_child_reg_table_add:extaddr <- $r6
	@DEBUG_VALUE: nwk_mgm_child_reg_table_add:rloc <- [DW_OP_plus_uconst 32] [$sp+0]
	@DEBUG_VALUE: nwk_mgm_child_reg_table_add:i <- $r5
	.loc	1 145 44 is_stmt 1              @ ../das_subg_thread/network_management.c:145:44
	add.w	r7, r10, r9
	ldrb	r0, [r7, #-16]
	.loc	1 145 49 is_stmt 0              @ ../das_subg_thread/network_management.c:145:49
	cbz	r0, .LBB10_4
.Ltmp276:
@ %bb.3:                                @   in Loop: Header=BB10_2 Depth=1
	@DEBUG_VALUE: nwk_mgm_child_reg_table_add:role <- $r11
	@DEBUG_VALUE: nwk_mgm_child_reg_table_add:parent <- $r8
	@DEBUG_VALUE: nwk_mgm_child_reg_table_add:extaddr <- $r6
	@DEBUG_VALUE: nwk_mgm_child_reg_table_add:i <- $r5
	@DEBUG_VALUE: nwk_mgm_child_reg_table_add:rloc <- [DW_OP_plus_uconst 32] [$sp+0]
	.loc	1 146 21 is_stmt 1              @ ../das_subg_thread/network_management.c:146:21
	sub.w	r0, r7, #10
	mov	r1, r6
	movs	r2, #8
	bl	memcmp
.Ltmp277:
	.loc	1 145 17                        @ ../das_subg_thread/network_management.c:145:17
	cbz	r0, .LBB10_10
.Ltmp278:
.LBB10_4:                               @   in Loop: Header=BB10_2 Depth=1
	@DEBUG_VALUE: nwk_mgm_child_reg_table_add:role <- $r11
	@DEBUG_VALUE: nwk_mgm_child_reg_table_add:parent <- $r8
	@DEBUG_VALUE: nwk_mgm_child_reg_table_add:extaddr <- $r6
	@DEBUG_VALUE: nwk_mgm_child_reg_table_add:i <- $r5
	@DEBUG_VALUE: nwk_mgm_child_reg_table_add:rloc <- [DW_OP_plus_uconst 32] [$sp+0]
	.loc	1 143 23                        @ ../das_subg_thread/network_management.c:143:23
	add.w	r9, r9, #18
.Ltmp279:
	.loc	1 143 9 is_stmt 0               @ ../das_subg_thread/network_management.c:143:9
	cmp.w	r9, #556
.Ltmp280:
	.loc	1 143 56                        @ ../das_subg_thread/network_management.c:143:56
	add.w	r5, r5, #1
.Ltmp281:
	@DEBUG_VALUE: nwk_mgm_child_reg_table_add:i <- $r5
	.loc	1 143 9                         @ ../das_subg_thread/network_management.c:143:9
	bne	.LBB10_2
.Ltmp282:
@ %bb.5:
	@DEBUG_VALUE: nwk_mgm_child_reg_table_add:role <- $r11
	@DEBUG_VALUE: nwk_mgm_child_reg_table_add:parent <- $r8
	@DEBUG_VALUE: nwk_mgm_child_reg_table_add:extaddr <- $r6
	@DEBUG_VALUE: nwk_mgm_child_reg_table_add:i <- $r5
	@DEBUG_VALUE: nwk_mgm_child_reg_table_add:rloc <- [DW_OP_plus_uconst 32] [$sp+0]
	.loc	1 0 9                           @ ../das_subg_thread/network_management.c:0:9
	movs	r7, #0
	movs	r0, #0
.Ltmp283:
	.p2align	2
.LBB10_6:                               @ =>This Inner Loop Header: Depth=1
	@DEBUG_VALUE: nwk_mgm_child_reg_table_add:role <- $r11
	@DEBUG_VALUE: nwk_mgm_child_reg_table_add:parent <- $r8
	@DEBUG_VALUE: nwk_mgm_child_reg_table_add:extaddr <- $r6
	@DEBUG_VALUE: nwk_mgm_child_reg_table_add:rloc <- [DW_OP_plus_uconst 32] [$sp+0]
	@DEBUG_VALUE: nwk_mgm_child_reg_table_add:i <- $r0
	.loc	1 169 53 is_stmt 1              @ ../das_subg_thread/network_management.c:169:53
	ldrb.w	r1, [r10, r7]
.Ltmp284:
	.loc	1 169 21 is_stmt 0              @ ../das_subg_thread/network_management.c:169:21
	cbz	r1, .LBB10_13
.Ltmp285:
@ %bb.7:                                @   in Loop: Header=BB10_6 Depth=1
	@DEBUG_VALUE: nwk_mgm_child_reg_table_add:role <- $r11
	@DEBUG_VALUE: nwk_mgm_child_reg_table_add:parent <- $r8
	@DEBUG_VALUE: nwk_mgm_child_reg_table_add:extaddr <- $r6
	@DEBUG_VALUE: nwk_mgm_child_reg_table_add:i <- $r0
	@DEBUG_VALUE: nwk_mgm_child_reg_table_add:rloc <- [DW_OP_plus_uconst 32] [$sp+0]
	.loc	1 167 27 is_stmt 1              @ ../das_subg_thread/network_management.c:167:27
	adds	r7, #18
.Ltmp286:
	.loc	1 167 13 is_stmt 0              @ ../das_subg_thread/network_management.c:167:13
	cmp.w	r7, #540
.Ltmp287:
	.loc	1 167 60                        @ ../das_subg_thread/network_management.c:167:60
	add.w	r0, r0, #1
.Ltmp288:
	@DEBUG_VALUE: nwk_mgm_child_reg_table_add:i <- $r0
	.loc	1 167 13                        @ ../das_subg_thread/network_management.c:167:13
	bne	.LBB10_6
.Ltmp289:
@ %bb.8:
	@DEBUG_VALUE: nwk_mgm_child_reg_table_add:role <- $r11
	@DEBUG_VALUE: nwk_mgm_child_reg_table_add:parent <- $r8
	@DEBUG_VALUE: nwk_mgm_child_reg_table_add:extaddr <- $r6
	@DEBUG_VALUE: nwk_mgm_child_reg_table_add:i <- $r0
	@DEBUG_VALUE: nwk_mgm_child_reg_table_add:rloc <- [DW_OP_plus_uconst 32] [$sp+0]
	.loc	1 0 13                          @ ../das_subg_thread/network_management.c:0:13
	movs	r5, #30
	b	.LBB10_15
.Ltmp290:
.LBB10_9:
	@DEBUG_VALUE: nwk_mgm_child_reg_table_add:parent <- $r8
	@DEBUG_VALUE: nwk_mgm_child_reg_table_add:extaddr <- $r3
	@DEBUG_VALUE: nwk_mgm_child_reg_table_add:rloc <- $r2
	@DEBUG_VALUE: nwk_mgm_child_reg_table_add:role <- $r0
	@DEBUG_VALUE: nwk_mgm_child_reg_table_add:i <- 0
	movs	r5, #0
	b	.LBB10_16
.Ltmp291:
.LBB10_10:
	@DEBUG_VALUE: nwk_mgm_child_reg_table_add:role <- $r11
	@DEBUG_VALUE: nwk_mgm_child_reg_table_add:parent <- $r8
	@DEBUG_VALUE: nwk_mgm_child_reg_table_add:extaddr <- $r6
	@DEBUG_VALUE: nwk_mgm_child_reg_table_add:i <- $r5
	@DEBUG_VALUE: nwk_mgm_child_reg_table_add:rloc <- [DW_OP_plus_uconst 32] [$sp+0]
	.loc	1 148 17 is_stmt 1              @ ../das_subg_thread/network_management.c:148:17
	movw	r0, :lower16:nwk_mgm_debug_flags
	movt	r0, :upper16:nwk_mgm_debug_flags
	ldr	r0, [r0]
	uxth	r5, r5
.Ltmp292:
	.loc	1 148 17 is_stmt 0              @ ../das_subg_thread/network_management.c:148:17
	cbz	r0, .LBB10_12
.Ltmp293:
@ %bb.11:
	@DEBUG_VALUE: nwk_mgm_child_reg_table_add:role <- $r11
	@DEBUG_VALUE: nwk_mgm_child_reg_table_add:parent <- $r8
	@DEBUG_VALUE: nwk_mgm_child_reg_table_add:extaddr <- $r6
	@DEBUG_VALUE: nwk_mgm_child_reg_table_add:rloc <- [DW_OP_plus_uconst 32] [$sp+0]
	.loc	1 148 17                        @ ../das_subg_thread/network_management.c:148:17
	ldrb	r0, [r7, #-7]
	ldrb	r1, [r7, #-10]
	ldrb	r2, [r7, #-9]
	ldrb	r3, [r7, #-8]
	ldrb	r6, [r7, #-6]
.Ltmp294:
	@DEBUG_VALUE: nwk_mgm_child_reg_table_add:extaddr <- [DW_OP_LLVM_entry_value 1] $r3
	ldrb	r12, [r7, #-5]
	ldrb	lr, [r7, #-4]
	ldrb	r7, [r7, #-3]
	stm.w	sp, {r0, r6, r12, lr}
	adr	r0, .LCPI10_0
	str	r7, [sp, #16]
	bl	__2printf
.Ltmp295:
	.loc	1 157 17 is_stmt 1              @ ../das_subg_thread/network_management.c:157:17
	movw	r0, :lower16:nwk_mgm_child_reg_table
	movt	r0, :upper16:nwk_mgm_child_reg_table
	ldr.w	r10, [r0]
.Ltmp296:
.LBB10_12:
	@DEBUG_VALUE: nwk_mgm_child_reg_table_add:role <- $r11
	@DEBUG_VALUE: nwk_mgm_child_reg_table_add:parent <- $r8
	@DEBUG_VALUE: nwk_mgm_child_reg_table_add:rloc <- [DW_OP_plus_uconst 32] [$sp+0]
	.loc	1 159 49                        @ ../das_subg_thread/network_management.c:159:49
	ldr	r1, [sp, #32]                   @ 4-byte Reload
	.loc	1 157 51                        @ ../das_subg_thread/network_management.c:157:51
	add.w	r0, r10, r9
	.loc	1 159 49                        @ ../das_subg_thread/network_management.c:159:49
	strh	r1, [r0, #-12]
	.loc	1 160 49                        @ ../das_subg_thread/network_management.c:160:49
	ldr	r1, [sp, #72]
	.loc	1 157 51                        @ ../das_subg_thread/network_management.c:157:51
	strh	r8, [r0, #-14]
	.loc	1 158 49                        @ ../das_subg_thread/network_management.c:158:49
	strb	r11, [r0, #-15]
	.loc	1 160 49                        @ ../das_subg_thread/network_management.c:160:49
	strb	r1, [r0, #-2]
	mov.w	r0, #300
	.loc	1 161 54                        @ ../das_subg_thread/network_management.c:161:54
	strh.w	r0, [r10, r9]
	b	.LBB10_15
.Ltmp297:
.LBB10_13:
	@DEBUG_VALUE: nwk_mgm_child_reg_table_add:role <- $r11
	@DEBUG_VALUE: nwk_mgm_child_reg_table_add:parent <- $r8
	@DEBUG_VALUE: nwk_mgm_child_reg_table_add:extaddr <- $r6
	@DEBUG_VALUE: nwk_mgm_child_reg_table_add:i <- $r0
	@DEBUG_VALUE: nwk_mgm_child_reg_table_add:rloc <- [DW_OP_plus_uconst 32] [$sp+0]
	.loc	1 173 53                        @ ../das_subg_thread/network_management.c:173:53
	ldr	r1, [sp, #32]                   @ 4-byte Reload
	.loc	1 171 48                        @ ../das_subg_thread/network_management.c:171:48
	uxth	r5, r0
	.loc	1 171 55 is_stmt 0              @ ../das_subg_thread/network_management.c:171:55
	add.w	r0, r10, r7
.Ltmp298:
	strh.w	r8, [r0, #2]
	.loc	1 172 53 is_stmt 1              @ ../das_subg_thread/network_management.c:172:53
	strb.w	r11, [r0, #1]
	.loc	1 173 53                        @ ../das_subg_thread/network_management.c:173:53
	strh	r1, [r0, #4]
	.loc	1 174 21                        @ ../das_subg_thread/network_management.c:174:21
	ldr	r1, [r6, #4]
	ldr	r2, [r6]
	str.w	r1, [r0, #10]
	.loc	1 175 53                        @ ../das_subg_thread/network_management.c:175:53
	ldr	r1, [sp, #72]
	.loc	1 174 21                        @ ../das_subg_thread/network_management.c:174:21
	str.w	r2, [r0, #6]
	.loc	1 175 53                        @ ../das_subg_thread/network_management.c:175:53
	strb	r1, [r0, #14]
	movs	r1, #1
	.loc	1 176 53                        @ ../das_subg_thread/network_management.c:176:53
	strb.w	r1, [r10, r7]
.Ltmp299:
	.loc	1 178 21                        @ ../das_subg_thread/network_management.c:178:21
	movw	r1, :lower16:nwk_mgm_debug_flags
	movt	r1, :upper16:nwk_mgm_debug_flags
	ldr	r1, [r1]
	mov.w	r2, #300
.Ltmp300:
	.loc	1 177 58                        @ ../das_subg_thread/network_management.c:177:58
	strh	r2, [r0, #16]
.Ltmp301:
	.loc	1 178 21                        @ ../das_subg_thread/network_management.c:178:21
	cbz	r1, .LBB10_15
.Ltmp302:
@ %bb.14:
	@DEBUG_VALUE: nwk_mgm_child_reg_table_add:role <- $r11
	@DEBUG_VALUE: nwk_mgm_child_reg_table_add:parent <- $r8
	@DEBUG_VALUE: nwk_mgm_child_reg_table_add:extaddr <- $r6
	@DEBUG_VALUE: nwk_mgm_child_reg_table_add:rloc <- [DW_OP_plus_uconst 32] [$sp+0]
	.loc	1 178 21 is_stmt 0              @ ../das_subg_thread/network_management.c:178:21
	mov	r0, r11
	bl	otThreadDeviceRoleToString
.Ltmp303:
	movw	r1, :lower16:nwk_mgm_child_reg_table
	movt	r1, :upper16:nwk_mgm_child_reg_table
	ldr	r1, [r1]
	add	r1, r7
	ldrb.w	r8, [r1, #11]
.Ltmp304:
	ldrh	r2, [r1, #4]
	ldrb	r3, [r1, #6]
	ldrb	r7, [r1, #7]
	ldrb	r6, [r1, #8]
.Ltmp305:
	@DEBUG_VALUE: nwk_mgm_child_reg_table_add:extaddr <- [DW_OP_LLVM_entry_value 1] $r3
	ldrb.w	r12, [r1, #9]
	ldrb.w	lr, [r1, #10]
	ldrb.w	r9, [r1, #12]
	ldrb.w	r10, [r1, #13]
	ldrsb.w	r11, [r1, #14]
.Ltmp306:
	mov	r1, r0
	add	r0, sp, #16
	stm.w	r0, {r8, r9, r10}
	adr	r0, .LCPI10_1
	strd	r7, r6, [sp]
	strd	r12, lr, [sp, #8]
	str.w	r11, [sp, #28]
	bl	__2printf
.Ltmp307:
.LBB10_15:
	@DEBUG_VALUE: nwk_mgm_child_reg_table_add:rloc <- [DW_OP_plus_uconst 32] [$sp+0]
	@DEBUG_VALUE: nwk_mgm_child_reg_table_add:i <- $r5
	.loc	1 194 9 is_stmt 1               @ ../das_subg_thread/network_management.c:194:9
	bl	leave_critical_section
.Ltmp308:
.LBB10_16:
	@DEBUG_VALUE: nwk_mgm_child_reg_table_add:i <- $r5
	.loc	1 196 15                        @ ../das_subg_thread/network_management.c:196:15
	cmp	r5, #29
	it	hi
	movhi	r4, #1
	.loc	1 196 5 is_stmt 0               @ ../das_subg_thread/network_management.c:196:5
	mov	r0, r4
	add	sp, #36
	pop.w	{r4, r5, r6, r7, r8, r9, r10, r11, pc}
.Ltmp309:
	.p2align	2
@ %bb.17:
	.loc	1 0 5                           @ ../das_subg_thread/network_management.c:0:5
.LCPI10_0:
.L.str.24:
	.asciz	"updata %02X%02X%02X%02X%02X%02X%02X%02X \n\r\n"
.LCPI10_1:
.L.str.25:
	.asciz	"add %s %04X %02X%02X%02X%02X%02X%02X%02X%02X %d \n\r\n"
.Lfunc_end10:
	.size	nwk_mgm_child_reg_table_add, .Lfunc_end10-nwk_mgm_child_reg_table_add
	.cfi_endproc
	.cantunwind
	.fnend
                                        @ -- End function
	.section	.text.nwk_mgm_kick_child_post,"ax",%progbits
	.p2align	2                               @ -- Begin function nwk_mgm_kick_child_post
	.type	nwk_mgm_kick_child_post,%function
	.code	16                              @ @nwk_mgm_kick_child_post
	.thumb_func
nwk_mgm_kick_child_post:
.Lfunc_begin11:
	.loc	1 997 0 is_stmt 1               @ ../das_subg_thread/network_management.c:997:0
	.fnstart
	.cfi_startproc
@ %bb.0:
	@DEBUG_VALUE: nwk_mgm_kick_child_post:rloc <- $r0
	@DEBUG_VALUE: nwk_mgm_kick_child_post:panid <- $r1
	@DEBUG_VALUE: nwk_mgm_kick_child_post:extaddr <- $r2
	.save	{r4, r5, r6, r7, r8, lr}
	push.w	{r4, r5, r6, r7, r8, lr}
	.cfi_def_cfa_offset 24
	.cfi_offset lr, -4
	.cfi_offset r8, -8
	.cfi_offset r7, -12
	.cfi_offset r6, -16
	.cfi_offset r5, -20
	.cfi_offset r4, -24
	.pad	#80
	sub	sp, #80
	.cfi_def_cfa_offset 104
	mov	r5, r2
.Ltmp310:
	@DEBUG_VALUE: nwk_mgm_kick_child_post:extaddr <- $r5
	mov	r8, r1
.Ltmp311:
	@DEBUG_VALUE: nwk_mgm_kick_child_post:panid <- $r8
	mov	r7, r0
.Ltmp312:
	@DEBUG_VALUE: nwk_mgm_kick_child_post:rloc <- $r7
	@DEBUG_VALUE: nwk_mgm_kick_child_post:extaddr <- $r5
	@DEBUG_VALUE: nwk_mgm_kick_child_post:panid <- $r8
	@DEBUG_VALUE: nwk_mgm_kick_child_post:rloc <- $r7
	.loc	1 999 28 prologue_end           @ ../das_subg_thread/network_management.c:999:28
	bl	otrGetInstance
.Ltmp313:
	@DEBUG_VALUE: nwk_mgm_kick_child_post:instance <- $r0
	.loc	1 1000 9                        @ ../das_subg_thread/network_management.c:1000:9
	cmp	r0, #0
	beq	.LBB11_5
.Ltmp314:
@ %bb.1:
	@DEBUG_VALUE: nwk_mgm_kick_child_post:panid <- $r8
	@DEBUG_VALUE: nwk_mgm_kick_child_post:rloc <- $r7
	@DEBUG_VALUE: nwk_mgm_kick_child_post:extaddr <- $r5
	@DEBUG_VALUE: nwk_mgm_kick_child_post:instance <- $r0
	.loc	1 0 0 is_stmt 0                 @ ../das_subg_thread/network_management.c:0:0
	mov	r6, r0
.Ltmp315:
	@DEBUG_VALUE: nwk_mgm_kick_child_post:instance <- $r6
	@DEBUG_VALUE: nwk_mgm_kick_child_post:instance <- $r6
	@DEBUG_VALUE: nwk_mgm_kick_child_post:rloc <- $r7
	@DEBUG_VALUE: nwk_mgm_kick_child_post:panid <- $r8
	@DEBUG_VALUE: error <- 0
	@DEBUG_VALUE: CoapCode <- 2
	@DEBUG_VALUE: payload <- 0
	@DEBUG_VALUE: payloadlength <- 0
	.loc	1 1009 19 is_stmt 1             @ ../das_subg_thread/network_management.c:1009:19
	movs	r0, #6
	bl	pvPortMalloc
.Ltmp316:
	@DEBUG_VALUE: payload <- $r0
	.loc	1 1010 13                       @ ../das_subg_thread/network_management.c:1010:13
	cbz	r0, .LBB11_5
.Ltmp317:
@ %bb.2:
	@DEBUG_VALUE: nwk_mgm_kick_child_post:panid <- $r8
	@DEBUG_VALUE: nwk_mgm_kick_child_post:rloc <- $r7
	@DEBUG_VALUE: nwk_mgm_kick_child_post:instance <- $r6
	@DEBUG_VALUE: nwk_mgm_kick_child_post:extaddr <- $r5
	@DEBUG_VALUE: payload <- $r0
	@DEBUG_VALUE: payloadlength <- 0
	@DEBUG_VALUE: CoapCode <- 2
	@DEBUG_VALUE: error <- 0
	.loc	1 0 0 is_stmt 0                 @ ../das_subg_thread/network_management.c:0:0
	mov	r4, r0
.Ltmp318:
	@DEBUG_VALUE: payload <- $r4
	@DEBUG_VALUE: payload <- $r4
	@DEBUG_VALUE: nwk_mgm_kick_child_post:rloc <- $r7
	@DEBUG_VALUE: nwk_mgm_kick_child_post:panid <- $r8
	@DEBUG_VALUE: kick_child_data <- [DW_OP_LLVM_fragment 0 8] 2
	@DEBUG_VALUE: kick_child_data <- [DW_OP_LLVM_fragment 16 16] $r7
	@DEBUG_VALUE: kick_child_data <- [DW_OP_LLVM_fragment 32 16] $r8
	@DEBUG_VALUE: nwk_mgm_data_piece:payloadlength <- undef
	@DEBUG_VALUE: nwk_mgm_data_piece:data <- undef
	@DEBUG_VALUE: nwk_mgm_data_piece:ptr <- undef
	movs	r0, #2
.Ltmp319:
	@DEBUG_VALUE: nwk_mgm_data_piece:tmp <- [DW_OP_plus_uconst 1, DW_OP_stack_value] $r4
	@DEBUG_VALUE: nwk_mgm_data_piece:kick_child_data <- 0
	@DEBUG_VALUE: nwk_mgm_data_piece:child_reg_data_ack <- 0
	@DEBUG_VALUE: nwk_mgm_data_piece:child_reg_data <- 0
	@DEBUG_VALUE: nwk_mgm_data_piece:payload <- $r4
	@DEBUG_VALUE: nwk_mgm_data_piece:type <- 2
	.loc	1 467 12 is_stmt 1              @ ../das_subg_thread/network_management.c:467:12
	strb	r0, [r4]
.Ltmp320:
	@DEBUG_VALUE: nwk_mgm_data_piece:kick_child_data <- undef
	.loc	1 1017 34                       @ ../das_subg_thread/network_management.c:1017:34
	mov	r0, r6
.Ltmp321:
	.loc	1 503 9                         @ ../das_subg_thread/network_management.c:503:9
	strh.w	r7, [r4, #1]
.Ltmp322:
	@DEBUG_VALUE: nwk_mgm_data_piece:tmp <- [DW_OP_plus_uconst 3, DW_OP_stack_value] $r4
	.loc	1 505 9                         @ ../das_subg_thread/network_management.c:505:9
	strh.w	r8, [r4, #3]
.Ltmp323:
	@DEBUG_VALUE: nwk_mgm_data_piece:tmp <- [DW_OP_plus_uconst 5, DW_OP_stack_value] $r4
	.loc	1 1017 34                       @ ../das_subg_thread/network_management.c:1017:34
	bl	otThreadGetLinkLocalIp6Address
.Ltmp324:
	.loc	1 1017 33 is_stmt 0             @ ../das_subg_thread/network_management.c:1017:33
	ldr	r1, [r0, #4]
	ldr	r0, [r0]
	.loc	1 1024 13 is_stmt 1             @ ../das_subg_thread/network_management.c:1024:13
	movs	r2, #40
	.loc	1 1017 33                       @ ../das_subg_thread/network_management.c:1017:33
	strd	r0, r1, [sp, #64]
	.loc	1 1018 13                       @ ../das_subg_thread/network_management.c:1018:13
	ldr	r0, [r5]
	ldr	r1, [r5, #4]
	strd	r0, r1, [sp, #72]
	.loc	1 1019 45                       @ ../das_subg_thread/network_management.c:1019:45
	eor	r0, r0, #2
	strb.w	r0, [sp, #72]
.Ltmp325:
	@DEBUG_VALUE: coapType <- 1
	.loc	1 0 45 is_stmt 0                @ ../das_subg_thread/network_management.c:0:45
	add	r0, sp, #64
	add	r1, sp, #24
	.loc	1 1024 13 is_stmt 1             @ ../das_subg_thread/network_management.c:1024:13
	bl	otIp6AddressToString
.Ltmp326:
	@DEBUG_VALUE: payloadlength <- 5
	.loc	1 1026 21                       @ ../das_subg_thread/network_management.c:1026:21
	add	r3, sp, #64
	ldr	r0, [sp, #76]
	ldm	r3, {r1, r2, r3}
	movw	r7, :lower16:.L.str.7
.Ltmp327:
	.loc	1 0 21 is_stmt 0                @ ../das_subg_thread/network_management.c:0:21
	movs	r5, #1
.Ltmp328:
	.loc	1 1026 21                       @ ../das_subg_thread/network_management.c:1026:21
	movt	r7, :upper16:.L.str.7
	movs	r6, #5
.Ltmp329:
	strd	r0, r5, [sp]
	movs	r0, #2
	strd	r6, r7, [sp, #12]
	str	r4, [sp, #8]
	bl	nwk_mgm_coap_request
.Ltmp330:
	.loc	1 1027 13 is_stmt 1             @ ../das_subg_thread/network_management.c:1027:13
	movw	r1, :lower16:nwk_mgm_debug_flags
	movt	r1, :upper16:nwk_mgm_debug_flags
	ldr	r1, [r1]
.Ltmp331:
	@DEBUG_VALUE: error <- $r0
	.loc	1 1027 13 is_stmt 0             @ ../das_subg_thread/network_management.c:1027:13
	cbz	r1, .LBB11_4
.Ltmp332:
@ %bb.3:
	@DEBUG_VALUE: kick_child_data <- [DW_OP_LLVM_fragment 32 16] $r8
	@DEBUG_VALUE: nwk_mgm_kick_child_post:panid <- $r8
	@DEBUG_VALUE: payload <- $r4
	@DEBUG_VALUE: error <- $r0
	@DEBUG_VALUE: payloadlength <- 5
	@DEBUG_VALUE: coapType <- 1
	@DEBUG_VALUE: kick_child_data <- [DW_OP_LLVM_fragment 0 8] 2
	@DEBUG_VALUE: CoapCode <- 2
	.loc	1 0 0                           @ ../das_subg_thread/network_management.c:0:0
	mov	r2, r0
.Ltmp333:
	@DEBUG_VALUE: error <- $r2
	.loc	1 1027 13                       @ ../das_subg_thread/network_management.c:1027:13
	adr	r0, .LCPI11_0
	add	r1, sp, #24
	bl	__2printf
.Ltmp334:
.LBB11_4:
	@DEBUG_VALUE: kick_child_data <- [DW_OP_LLVM_fragment 32 16] $r8
	@DEBUG_VALUE: nwk_mgm_kick_child_post:panid <- $r8
	@DEBUG_VALUE: payload <- $r4
	@DEBUG_VALUE: payloadlength <- 5
	@DEBUG_VALUE: coapType <- 1
	@DEBUG_VALUE: kick_child_data <- [DW_OP_LLVM_fragment 0 8] 2
	@DEBUG_VALUE: CoapCode <- 2
	.loc	1 1030 17 is_stmt 1             @ ../das_subg_thread/network_management.c:1030:17
	mov	r0, r4
	bl	vPortFree
.Ltmp335:
.LBB11_5:
	@DEBUG_VALUE: nwk_mgm_kick_child_post:panid <- $r8
	.loc	1 1035 1                        @ ../das_subg_thread/network_management.c:1035:1
	add	sp, #80
	pop.w	{r4, r5, r6, r7, r8, pc}
.Ltmp336:
	.p2align	2
@ %bb.6:
	.loc	1 0 1 is_stmt 0                 @ ../das_subg_thread/network_management.c:0:1
.LCPI11_0:
.L.str.26:
	.asciz	"kick %s %u \n\r\n\000"
.Lfunc_end11:
	.size	nwk_mgm_kick_child_post, .Lfunc_end11-nwk_mgm_kick_child_post
	.cfi_endproc
	.cantunwind
	.fnend
                                        @ -- End function
	.section	.text.nwk_mgm_child_reg_table_remove,"ax",%progbits
	.p2align	2                               @ -- Begin function nwk_mgm_child_reg_table_remove
	.type	nwk_mgm_child_reg_table_remove,%function
	.code	16                              @ @nwk_mgm_child_reg_table_remove
	.thumb_func
nwk_mgm_child_reg_table_remove:
.Lfunc_begin12:
	.loc	1 200 0 is_stmt 1               @ ../das_subg_thread/network_management.c:200:0
	.fnstart
	.cfi_startproc
@ %bb.0:
	@DEBUG_VALUE: nwk_mgm_child_reg_table_remove:extaddr <- $r0
	.save	{r4, r5, r6, r7, r8, r9, r10, r11, lr}
	push.w	{r4, r5, r6, r7, r8, r9, r10, r11, lr}
	.cfi_def_cfa_offset 36
	.cfi_offset lr, -4
	.cfi_offset r11, -8
	.cfi_offset r10, -12
	.cfi_offset r9, -16
	.cfi_offset r8, -20
	.cfi_offset r7, -24
	.cfi_offset r6, -28
	.cfi_offset r5, -32
	.cfi_offset r4, -36
	.pad	#36
	sub	sp, #36
	.cfi_def_cfa_offset 72
.Ltmp337:
	.loc	1 201 9 prologue_end            @ ../das_subg_thread/network_management.c:201:9
	movw	r11, :lower16:nwk_mgm_child_reg_table
	movt	r11, :upper16:nwk_mgm_child_reg_table
	ldr.w	r1, [r11]
.Ltmp338:
	.loc	1 201 9 is_stmt 0               @ ../das_subg_thread/network_management.c:201:9
	cmp	r1, #0
	@DEBUG_VALUE: nwk_mgm_child_reg_table_remove:role <- 2
	@DEBUG_VALUE: nwk_mgm_child_reg_table_remove:extaddr <- $r0
	beq	.LBB12_10
.Ltmp339:
@ %bb.1:
	@DEBUG_VALUE: nwk_mgm_child_reg_table_remove:extaddr <- $r0
	@DEBUG_VALUE: nwk_mgm_child_reg_table_remove:role <- 2
	.loc	1 0 9                           @ ../das_subg_thread/network_management.c:0:9
	mov	r4, r0
.Ltmp340:
	@DEBUG_VALUE: nwk_mgm_child_reg_table_remove:extaddr <- $r4
	@DEBUG_VALUE: nwk_mgm_child_reg_table_remove:extaddr <- $r4
	.loc	1 203 9 is_stmt 1               @ ../das_subg_thread/network_management.c:203:9
	bl	enter_critical_section
.Ltmp341:
	@DEBUG_VALUE: i <- 0
	.loc	1 206 17                        @ ../das_subg_thread/network_management.c:206:17
	ldr.w	r5, [r11]
	movs	r7, #0
.Ltmp342:
	.p2align	2
.LBB12_2:                               @ =>This Inner Loop Header: Depth=1
	@DEBUG_VALUE: nwk_mgm_child_reg_table_remove:extaddr <- $r4
	@DEBUG_VALUE: nwk_mgm_child_reg_table_remove:role <- 2
	@DEBUG_VALUE: i <- undef
	.loc	1 206 44 is_stmt 0              @ ../das_subg_thread/network_management.c:206:44
	ldrb	r0, [r5, r7]
	.loc	1 206 49                        @ ../das_subg_thread/network_management.c:206:49
	cbz	r0, .LBB12_8
.Ltmp343:
@ %bb.3:                                @   in Loop: Header=BB12_2 Depth=1
	@DEBUG_VALUE: nwk_mgm_child_reg_table_remove:extaddr <- $r4
	@DEBUG_VALUE: nwk_mgm_child_reg_table_remove:role <- 2
	.loc	1 207 21 is_stmt 1              @ ../das_subg_thread/network_management.c:207:21
	adds	r6, r5, r7
	adds	r0, r6, #6
	mov	r1, r4
	movs	r2, #8
	bl	memcmp
.Ltmp344:
	.loc	1 206 17                        @ ../das_subg_thread/network_management.c:206:17
	cbnz	r0, .LBB12_8
.Ltmp345:
@ %bb.4:                                @   in Loop: Header=BB12_2 Depth=1
	@DEBUG_VALUE: nwk_mgm_child_reg_table_remove:extaddr <- $r4
	@DEBUG_VALUE: nwk_mgm_child_reg_table_remove:role <- 2
	.loc	1 209 56                        @ ../das_subg_thread/network_management.c:209:56
	ldrb	r0, [r6, #1]
.Ltmp346:
	.loc	1 209 21 is_stmt 0              @ ../das_subg_thread/network_management.c:209:21
	cmp	r0, #2
	bne	.LBB12_8
.Ltmp347:
@ %bb.5:                                @   in Loop: Header=BB12_2 Depth=1
	@DEBUG_VALUE: nwk_mgm_child_reg_table_remove:extaddr <- $r4
	@DEBUG_VALUE: nwk_mgm_child_reg_table_remove:role <- 2
	.loc	1 211 21 is_stmt 1              @ ../das_subg_thread/network_management.c:211:21
	movw	r0, :lower16:nwk_mgm_debug_flags
	movt	r0, :upper16:nwk_mgm_debug_flags
	ldr	r0, [r0]
.Ltmp348:
	.loc	1 211 21 is_stmt 0              @ ../das_subg_thread/network_management.c:211:21
	cbz	r0, .LBB12_7
.Ltmp349:
@ %bb.6:                                @   in Loop: Header=BB12_2 Depth=1
	@DEBUG_VALUE: nwk_mgm_child_reg_table_remove:extaddr <- $r4
	@DEBUG_VALUE: nwk_mgm_child_reg_table_remove:role <- 2
	.loc	1 211 21                        @ ../das_subg_thread/network_management.c:211:21
	movs	r0, #2
	bl	otThreadDeviceRoleToString
.Ltmp350:
	ldr.w	r1, [r11]
	add	r1, r7
	ldrh	r2, [r1, #4]
	ldrb	r3, [r1, #6]
	ldrb	r6, [r1, #7]
	ldrb	r5, [r1, #8]
	ldrb.w	r12, [r1, #9]
	ldrb.w	lr, [r1, #10]
	ldrb.w	r8, [r1, #11]
	ldrb.w	r9, [r1, #12]
	ldrb.w	r10, [r1, #13]
	ldrsb.w	r1, [r1, #14]
	str	r1, [sp, #32]                   @ 4-byte Spill
	mov	r1, r0
	add	r0, sp, #16
	strd	r6, r5, [sp]
	strd	r12, lr, [sp, #8]
	stm.w	r0, {r8, r9, r10}
	ldr	r6, [sp, #32]                   @ 4-byte Reload
	adr	r0, .LCPI12_0
	str	r6, [sp, #28]
	bl	__2printf
.Ltmp351:
	.loc	1 223 21 is_stmt 1              @ ../das_subg_thread/network_management.c:223:21
	ldr.w	r5, [r11]
.Ltmp352:
.LBB12_7:                               @   in Loop: Header=BB12_2 Depth=1
	@DEBUG_VALUE: nwk_mgm_child_reg_table_remove:extaddr <- $r4
	@DEBUG_VALUE: nwk_mgm_child_reg_table_remove:role <- 2
	.loc	1 223 53 is_stmt 0              @ ../das_subg_thread/network_management.c:223:53
	adds	r0, r5, r7
	movs	r1, #1
	strb	r1, [r0, #1]
.Ltmp353:
	.p2align	2
.LBB12_8:                               @   in Loop: Header=BB12_2 Depth=1
	@DEBUG_VALUE: nwk_mgm_child_reg_table_remove:extaddr <- $r4
	@DEBUG_VALUE: nwk_mgm_child_reg_table_remove:role <- 2
	@DEBUG_VALUE: i <- [DW_OP_plus_uconst 1, DW_OP_stack_value] undef
	.loc	1 204 32 is_stmt 1              @ ../das_subg_thread/network_management.c:204:32
	adds	r7, #18
.Ltmp354:
	.loc	1 204 9 is_stmt 0               @ ../das_subg_thread/network_management.c:204:9
	cmp.w	r7, #540
	bne	.LBB12_2
.Ltmp355:
@ %bb.9:
	@DEBUG_VALUE: nwk_mgm_child_reg_table_remove:extaddr <- $r4
	@DEBUG_VALUE: nwk_mgm_child_reg_table_remove:role <- 2
	.loc	1 227 9 is_stmt 1               @ ../das_subg_thread/network_management.c:227:9
	add	sp, #36
	pop.w	{r4, r5, r6, r7, r8, r9, r10, r11, lr}
.Ltmp356:
	@DEBUG_VALUE: nwk_mgm_child_reg_table_remove:extaddr <- [DW_OP_LLVM_entry_value 1] $r0
	b	leave_critical_section
.Ltmp357:
.LBB12_10:
	@DEBUG_VALUE: nwk_mgm_child_reg_table_remove:extaddr <- $r0
	@DEBUG_VALUE: nwk_mgm_child_reg_table_remove:role <- 2
	.loc	1 229 1                         @ ../das_subg_thread/network_management.c:229:1
	add	sp, #36
	pop.w	{r4, r5, r6, r7, r8, r9, r10, r11, pc}
.Ltmp358:
	.p2align	2
@ %bb.11:
	.loc	1 0 1 is_stmt 0                 @ ../das_subg_thread/network_management.c:0:1
.LCPI12_0:
.L.str.27:
	.asciz	"remove %s %04X %02X%02X%02X%02X%02X%02X%02X%02X %d \n\r\n\000"
.Lfunc_end12:
	.size	nwk_mgm_child_reg_table_remove, .Lfunc_end12-nwk_mgm_child_reg_table_remove
	.cfi_endproc
	.file	13 "D:\\20240115\\rafael-iot-sdk-das\\examples\\das_subg_thread\\keil" "../../../components/platform/soc/rt582/rt582_driver/Inc/sysfun.h"
	.cantunwind
	.fnend
                                        @ -- End function
	.section	.text.nwk_mgm_init,"ax",%progbits
	.hidden	nwk_mgm_init                    @ -- Begin function nwk_mgm_init
	.globl	nwk_mgm_init
	.p2align	2
	.type	nwk_mgm_init,%function
	.code	16                              @ @nwk_mgm_init
	.thumb_func
nwk_mgm_init:
.Lfunc_begin13:
	.loc	1 1186 0 is_stmt 1              @ ../das_subg_thread/network_management.c:1186:0
	.fnstart
	.cfi_startproc
@ %bb.0:
	@DEBUG_VALUE: nwk_mgm_init:aInstance <- $r0
	.save	{r4, r5, r6, lr}
	push	{r4, r5, r6, lr}
	.cfi_def_cfa_offset 16
	.cfi_offset lr, -4
	.cfi_offset r6, -8
	.cfi_offset r5, -12
	.cfi_offset r4, -16
	.pad	#8
	sub	sp, #8
	.cfi_def_cfa_offset 24
	mov	r4, r0
.Ltmp359:
	@DEBUG_VALUE: nwk_mgm_init:aInstance <- $r4
	@DEBUG_VALUE: nwk_mgm_init:error <- 0
	@DEBUG_VALUE: nwk_mgm_init:aInstance <- $r4
	.loc	1 1188 5 prologue_end           @ ../das_subg_thread/network_management.c:1188:5
	adr	r0, .LCPI13_0
	bl	puts
.Ltmp360:
	.loc	1 1193 35                       @ ../das_subg_thread/network_management.c:1193:35
	movw	r1, :lower16:nwk_mgm_resource
	movw	r0, :lower16:.L.str.7
	movt	r1, :upper16:nwk_mgm_resource
	movt	r0, :upper16:.L.str.7
	.loc	1 1195 35                       @ ../das_subg_thread/network_management.c:1195:35
	movw	r2, :lower16:nwk_mgm_request_proccess
	movt	r2, :upper16:nwk_mgm_request_proccess
	movs	r5, #0
	.loc	1 1193 35                       @ ../das_subg_thread/network_management.c:1193:35
	stm.w	r1, {r0, r2, r4, r5}
	.loc	1 1198 9                        @ ../das_subg_thread/network_management.c:1198:9
	mov	r0, r4
	bl	otCoapAddResource
.Ltmp361:
	.loc	1 1200 21                       @ ../das_subg_thread/network_management.c:1200:21
	movw	r6, :lower16:nwk_mgm_timer
	movt	r6, :upper16:nwk_mgm_timer
	ldr	r0, [r6]
.Ltmp362:
	.loc	1 1200 13 is_stmt 0             @ ../das_subg_thread/network_management.c:1200:13
	cbz	r0, .LBB13_2
.Ltmp363:
@ %bb.1:
	@DEBUG_VALUE: nwk_mgm_init:aInstance <- $r4
	@DEBUG_VALUE: nwk_mgm_init:error <- 0
	.loc	1 1212 13 is_stmt 1             @ ../das_subg_thread/network_management.c:1212:13
	adr	r0, .LCPI13_1
	bl	puts
.Ltmp364:
	.loc	1 0 13 is_stmt 0                @ ../das_subg_thread/network_management.c:0:13
	b	.LBB13_3
.Ltmp365:
.LBB13_2:
	@DEBUG_VALUE: nwk_mgm_init:aInstance <- $r4
	@DEBUG_VALUE: nwk_mgm_init:error <- 0
	.loc	1 1202 29 is_stmt 1             @ ../das_subg_thread/network_management.c:1202:29
	movw	r4, :lower16:nwk_mgm_timer_handler
.Ltmp366:
	movt	r4, :upper16:nwk_mgm_timer_handler
	adr	r0, .LCPI13_2
	mov.w	r1, #1000
	movs	r2, #0
	movs	r3, #0
	str	r4, [sp]
	bl	xTimerCreate
.Ltmp367:
	mov	r4, r0
	.loc	1 1202 27 is_stmt 0             @ ../das_subg_thread/network_management.c:1202:27
	str	r0, [r6]
	.loc	1 1208 13 is_stmt 1             @ ../das_subg_thread/network_management.c:1208:13
	bl	xTaskGetTickCount
.Ltmp368:
	mov	r2, r0
	mov	r0, r4
	movs	r1, #1
	movs	r3, #0
	str	r5, [sp]
	bl	xTimerGenericCommand
.Ltmp369:
.LBB13_3:
	@DEBUG_VALUE: nwk_mgm_init:error <- 0
	.loc	1 1216 5                        @ ../das_subg_thread/network_management.c:1216:5
	adr	r0, .LCPI13_3
	movs	r1, #0
	bl	__2printf
.Ltmp370:
	.loc	1 1217 5                        @ ../das_subg_thread/network_management.c:1217:5
	movs	r0, #0
	add	sp, #8
	pop	{r4, r5, r6, pc}
.Ltmp371:
	.p2align	2
@ %bb.4:
	.loc	1 0 5 is_stmt 0                 @ ../das_subg_thread/network_management.c:0:5
.LCPI13_0:
.Lstr.40:
	.asciz	"nwk_mgm_init \r\000"
.LCPI13_1:
.Lstr.41:
	.asciz	"nwk_mgm_timer exist\n\r\000\000"
.LCPI13_2:
.L.str.13:
	.asciz	"nwk_mgm_timer\000\000"
.LCPI13_3:
.L.str.15:
	.asciz	"nwk_mgm_init error %u \r\n\000\000\000"
.Lfunc_end13:
	.size	nwk_mgm_init, .Lfunc_end13-nwk_mgm_init
	.cfi_endproc
	.cantunwind
	.fnend
                                        @ -- End function
	.section	.text.nwk_mgm_request_proccess,"ax",%progbits
	.p2align	2                               @ -- Begin function nwk_mgm_request_proccess
	.type	nwk_mgm_request_proccess,%function
	.code	16                              @ @nwk_mgm_request_proccess
	.thumb_func
nwk_mgm_request_proccess:
.Lfunc_begin14:
	.loc	1 795 0 is_stmt 1               @ ../das_subg_thread/network_management.c:795:0
	.fnstart
	.cfi_startproc
@ %bb.0:
	@DEBUG_VALUE: nwk_mgm_request_proccess:aContext <- $r0
	@DEBUG_VALUE: nwk_mgm_request_proccess:aMessage <- $r1
	@DEBUG_VALUE: nwk_mgm_request_proccess:aMessageInfo <- $r2
	.save	{r4, r5, r6, r7, r8, r9, r10, r11, lr}
	push.w	{r4, r5, r6, r7, r8, r9, r10, r11, lr}
	.cfi_def_cfa_offset 36
	.cfi_offset lr, -4
	.cfi_offset r11, -8
	.cfi_offset r10, -12
	.cfi_offset r9, -16
	.cfi_offset r8, -20
	.cfi_offset r7, -24
	.cfi_offset r6, -28
	.cfi_offset r5, -32
	.cfi_offset r4, -36
	.pad	#916
	sub.w	sp, sp, #916
	.cfi_def_cfa_offset 952
	mov	r5, r2
	mov	r7, r1
.Ltmp372:
	@DEBUG_VALUE: nwk_mgm_request_proccess:aMessage <- $r7
	@DEBUG_VALUE: nwk_mgm_request_proccess:nwk_mgm_data_type <- -1
	@DEBUG_VALUE: nwk_mgm_request_proccess:buf <- 0
	@DEBUG_VALUE: nwk_mgm_request_proccess:aMessageInfo <- $r5
	@DEBUG_VALUE: nwk_mgm_request_proccess:aMessage <- $r7
	.loc	1 800 41 prologue_end           @ ../das_subg_thread/network_management.c:800:41
	add.w	r0, r2, #16
.Ltmp373:
	@DEBUG_VALUE: nwk_mgm_request_proccess:aContext <- [DW_OP_LLVM_entry_value 1] $r0
	.loc	1 0 41 is_stmt 0                @ ../das_subg_thread/network_management.c:0:41
	add	r1, sp, #64
	.loc	1 800 5                         @ ../das_subg_thread/network_management.c:800:5
	movs	r2, #40
	bl	otIp6AddressToString
.Ltmp374:
	.loc	1 801 14 is_stmt 1              @ ../das_subg_thread/network_management.c:801:14
	mov	r0, r7
	bl	otMessageGetLength
.Ltmp375:
	mov	r4, r0
	.loc	1 801 45 is_stmt 0              @ ../das_subg_thread/network_management.c:801:45
	mov	r0, r7
	bl	otMessageGetOffset
.Ltmp376:
	.loc	1 801 43                        @ ../das_subg_thread/network_management.c:801:43
	subs	r0, r4, r0
.Ltmp377:
	@DEBUG_VALUE: nwk_mgm_request_proccess:length <- $r0
	.loc	1 805 13 is_stmt 1              @ ../das_subg_thread/network_management.c:805:13
	lsls	r1, r0, #16
	beq.w	.LBB14_70
.Ltmp378:
@ %bb.1:
	@DEBUG_VALUE: nwk_mgm_request_proccess:aMessage <- $r7
	@DEBUG_VALUE: nwk_mgm_request_proccess:aMessageInfo <- $r5
	@DEBUG_VALUE: nwk_mgm_request_proccess:length <- $r0
	@DEBUG_VALUE: nwk_mgm_request_proccess:aContext <- [DW_OP_LLVM_entry_value 1] $r0
	@DEBUG_VALUE: nwk_mgm_request_proccess:buf <- 0
	@DEBUG_VALUE: nwk_mgm_request_proccess:nwk_mgm_data_type <- -1
	.loc	1 805 13 is_stmt 0              @ ../das_subg_thread/network_management.c:805:13
	uxth	r6, r0
.Ltmp379:
	.loc	1 807 19 is_stmt 1              @ ../das_subg_thread/network_management.c:807:19
	mov	r0, r6
.Ltmp380:
	bl	pvPortMalloc
.Ltmp381:
	@DEBUG_VALUE: nwk_mgm_request_proccess:buf <- $r0
	.loc	1 808 17                        @ ../das_subg_thread/network_management.c:808:17
	cmp	r0, #0
	beq.w	.LBB14_70
.Ltmp382:
@ %bb.2:
	@DEBUG_VALUE: nwk_mgm_request_proccess:aMessage <- $r7
	@DEBUG_VALUE: nwk_mgm_request_proccess:aMessageInfo <- $r5
	@DEBUG_VALUE: nwk_mgm_request_proccess:buf <- $r0
	@DEBUG_VALUE: nwk_mgm_request_proccess:aContext <- [DW_OP_LLVM_entry_value 1] $r0
	@DEBUG_VALUE: nwk_mgm_request_proccess:nwk_mgm_data_type <- -1
	.loc	1 0 0 is_stmt 0                 @ ../das_subg_thread/network_management.c:0:0
	mov	r4, r0
.Ltmp383:
	@DEBUG_VALUE: nwk_mgm_request_proccess:buf <- $r4
	@DEBUG_VALUE: nwk_mgm_request_proccess:buf <- $r4
	.loc	1 810 41 is_stmt 1              @ ../das_subg_thread/network_management.c:810:41
	mov	r0, r7
	bl	otMessageGetOffset
.Ltmp384:
	mov	r1, r0
	.loc	1 810 17 is_stmt 0              @ ../das_subg_thread/network_management.c:810:17
	mov	r0, r7
	mov	r2, r4
	mov	r3, r6
	bl	otMessageRead
.Ltmp385:
	.loc	1 811 37 is_stmt 1              @ ../das_subg_thread/network_management.c:811:37
	ldrb	r0, [r4]
.Ltmp386:
	@DEBUG_VALUE: nwk_mgm_request_proccess:nwk_mgm_data_type <- undef
	.loc	1 812 17                        @ ../das_subg_thread/network_management.c:812:17
	cmp	r0, #2
	beq	.LBB14_12
.Ltmp387:
@ %bb.3:
	@DEBUG_VALUE: nwk_mgm_request_proccess:aMessage <- $r7
	@DEBUG_VALUE: nwk_mgm_request_proccess:aMessageInfo <- $r5
	@DEBUG_VALUE: nwk_mgm_request_proccess:buf <- $r4
	@DEBUG_VALUE: nwk_mgm_request_proccess:aContext <- [DW_OP_LLVM_entry_value 1] $r0
	cmp	r0, #0
	bne.w	.LBB14_69
.Ltmp388:
@ %bb.4:
	@DEBUG_VALUE: nwk_mgm_request_proccess:aMessage <- $r7
	@DEBUG_VALUE: nwk_mgm_request_proccess:aMessageInfo <- $r5
	@DEBUG_VALUE: nwk_mgm_request_proccess:buf <- $r4
	@DEBUG_VALUE: nwk_mgm_request_proccess:aContext <- [DW_OP_LLVM_entry_value 1] $r0
	@DEBUG_VALUE: nwk_mgm_childs_register_proccess:aMessage <- $r7
	@DEBUG_VALUE: nwk_mgm_childs_register_proccess:aMessageInfo <- $r5
	@DEBUG_VALUE: nwk_mgm_childs_register_proccess:buf <- $r4
	@DEBUG_VALUE: nwk_mgm_childs_register_proccess:length <- undef
	@DEBUG_VALUE: nwk_mgm_childs_register_proccess:error <- 0
	@DEBUG_VALUE: nwk_mgm_childs_register_proccess:responseMessage <- 0
	@DEBUG_VALUE: nwk_mgm_childs_register_proccess:responseCode <- 0
	@DEBUG_VALUE: nwk_mgm_childs_register_proccess:ack_rloc <- 0
	@DEBUG_VALUE: nwk_mgm_childs_register_proccess:payload <- 0
	@DEBUG_VALUE: nwk_mgm_childs_register_proccess:i <- 0
	@DEBUG_VALUE: nwk_mgm_childs_register_proccess:k <- 0
	.loc	1 527 28                        @ ../das_subg_thread/network_management.c:527:28
	bl	otrGetInstance
.Ltmp389:
	@DEBUG_VALUE: nwk_mgm_childs_register_proccess:instance <- $r0
	.loc	1 528 9                         @ ../das_subg_thread/network_management.c:528:9
	cmp	r0, #0
	beq.w	.LBB14_69
.Ltmp390:
@ %bb.5:
	@DEBUG_VALUE: nwk_mgm_childs_register_proccess:aMessage <- $r7
	@DEBUG_VALUE: nwk_mgm_request_proccess:aMessage <- $r7
	@DEBUG_VALUE: nwk_mgm_childs_register_proccess:aMessageInfo <- $r5
	@DEBUG_VALUE: nwk_mgm_request_proccess:aMessageInfo <- $r5
	@DEBUG_VALUE: nwk_mgm_childs_register_proccess:buf <- $r4
	@DEBUG_VALUE: nwk_mgm_request_proccess:buf <- $r4
	@DEBUG_VALUE: nwk_mgm_childs_register_proccess:instance <- $r0
	@DEBUG_VALUE: nwk_mgm_childs_register_proccess:k <- 0
	@DEBUG_VALUE: nwk_mgm_childs_register_proccess:i <- 0
	@DEBUG_VALUE: nwk_mgm_childs_register_proccess:payload <- 0
	@DEBUG_VALUE: nwk_mgm_childs_register_proccess:ack_rloc <- 0
	@DEBUG_VALUE: nwk_mgm_childs_register_proccess:responseCode <- 0
	@DEBUG_VALUE: nwk_mgm_childs_register_proccess:responseMessage <- 0
	@DEBUG_VALUE: nwk_mgm_childs_register_proccess:error <- 0
	@DEBUG_VALUE: nwk_mgm_request_proccess:aContext <- [DW_OP_LLVM_entry_value 1] $r0
	.loc	1 0 0 is_stmt 0                 @ ../das_subg_thread/network_management.c:0:0
	mov	r10, r0
.Ltmp391:
	@DEBUG_VALUE: nwk_mgm_childs_register_proccess:instance <- $r10
	.loc	1 530 17 is_stmt 1              @ ../das_subg_thread/network_management.c:530:17
	bl	otThreadGetDeviceRole
.Ltmp392:
	mov	r11, r0
.Ltmp393:
	@DEBUG_VALUE: nwk_mgm_childs_register_proccess:mRole <- $r11
	.loc	1 537 25                        @ ../das_subg_thread/network_management.c:537:25
	mov	r0, r7
	bl	otCoapMessageGetType
.Ltmp394:
	.loc	1 537 25 is_stmt 0              @ ../das_subg_thread/network_management.c:537:25
	cmp	r0, #0
	bne.w	.LBB14_69
.Ltmp395:
@ %bb.6:
	@DEBUG_VALUE: nwk_mgm_childs_register_proccess:mRole <- $r11
	@DEBUG_VALUE: nwk_mgm_childs_register_proccess:instance <- $r10
	@DEBUG_VALUE: nwk_mgm_childs_register_proccess:aMessage <- $r7
	@DEBUG_VALUE: nwk_mgm_request_proccess:aMessage <- $r7
	@DEBUG_VALUE: nwk_mgm_childs_register_proccess:aMessageInfo <- $r5
	@DEBUG_VALUE: nwk_mgm_request_proccess:aMessageInfo <- $r5
	@DEBUG_VALUE: nwk_mgm_childs_register_proccess:buf <- $r4
	@DEBUG_VALUE: nwk_mgm_request_proccess:buf <- $r4
	@DEBUG_VALUE: nwk_mgm_childs_register_proccess:k <- 0
	@DEBUG_VALUE: nwk_mgm_childs_register_proccess:i <- 0
	@DEBUG_VALUE: nwk_mgm_childs_register_proccess:payload <- 0
	@DEBUG_VALUE: nwk_mgm_childs_register_proccess:ack_rloc <- 0
	@DEBUG_VALUE: nwk_mgm_childs_register_proccess:responseCode <- 0
	@DEBUG_VALUE: nwk_mgm_childs_register_proccess:responseMessage <- 0
	@DEBUG_VALUE: nwk_mgm_childs_register_proccess:error <- 0
	@DEBUG_VALUE: nwk_mgm_request_proccess:aContext <- [DW_OP_LLVM_entry_value 1] $r0
	@DEBUG_VALUE: nwk_mgm_childs_register_proccess:responseCode <- 67
	.loc	1 541 43 is_stmt 1              @ ../das_subg_thread/network_management.c:541:43
	mov	r0, r10
	movs	r1, #0
	bl	otCoapNewMessage
.Ltmp396:
	@DEBUG_VALUE: nwk_mgm_childs_register_proccess:responseMessage <- $r0
	.loc	1 542 29                        @ ../das_subg_thread/network_management.c:542:29
	cmp	r0, #0
	beq.w	.LBB14_69
.Ltmp397:
@ %bb.7:
	@DEBUG_VALUE: nwk_mgm_childs_register_proccess:mRole <- $r11
	@DEBUG_VALUE: nwk_mgm_childs_register_proccess:instance <- $r10
	@DEBUG_VALUE: nwk_mgm_childs_register_proccess:aMessage <- $r7
	@DEBUG_VALUE: nwk_mgm_request_proccess:aMessage <- $r7
	@DEBUG_VALUE: nwk_mgm_childs_register_proccess:aMessageInfo <- $r5
	@DEBUG_VALUE: nwk_mgm_request_proccess:aMessageInfo <- $r5
	@DEBUG_VALUE: nwk_mgm_childs_register_proccess:buf <- $r4
	@DEBUG_VALUE: nwk_mgm_request_proccess:buf <- $r4
	@DEBUG_VALUE: nwk_mgm_childs_register_proccess:responseMessage <- $r0
	@DEBUG_VALUE: nwk_mgm_childs_register_proccess:responseCode <- 67
	@DEBUG_VALUE: nwk_mgm_childs_register_proccess:k <- 0
	@DEBUG_VALUE: nwk_mgm_childs_register_proccess:i <- 0
	@DEBUG_VALUE: nwk_mgm_childs_register_proccess:payload <- 0
	@DEBUG_VALUE: nwk_mgm_childs_register_proccess:ack_rloc <- 0
	@DEBUG_VALUE: nwk_mgm_childs_register_proccess:error <- 0
	@DEBUG_VALUE: nwk_mgm_request_proccess:aContext <- [DW_OP_LLVM_entry_value 1] $r0
	.loc	1 547 33                        @ ../das_subg_thread/network_management.c:547:33
	mov	r1, r7
	movs	r2, #2
	movs	r3, #67
	.loc	1 0 0 is_stmt 0                 @ ../das_subg_thread/network_management.c:0:0
	mov	r9, r0
.Ltmp398:
	@DEBUG_VALUE: nwk_mgm_childs_register_proccess:responseMessage <- $r9
	.loc	1 547 33                        @ ../das_subg_thread/network_management.c:547:33
	bl	otCoapMessageInitResponse
.Ltmp399:
	@DEBUG_VALUE: nwk_mgm_childs_register_proccess:error <- $r0
	.loc	1 548 29 is_stmt 1              @ ../das_subg_thread/network_management.c:548:29
	cmp	r0, #0
	bne.w	.LBB14_68
.Ltmp400:
@ %bb.8:
	@DEBUG_VALUE: nwk_mgm_childs_register_proccess:mRole <- $r11
	@DEBUG_VALUE: nwk_mgm_childs_register_proccess:instance <- $r10
	@DEBUG_VALUE: nwk_mgm_childs_register_proccess:responseMessage <- $r9
	@DEBUG_VALUE: nwk_mgm_childs_register_proccess:aMessage <- $r7
	@DEBUG_VALUE: nwk_mgm_request_proccess:aMessage <- $r7
	@DEBUG_VALUE: nwk_mgm_childs_register_proccess:aMessageInfo <- $r5
	@DEBUG_VALUE: nwk_mgm_request_proccess:aMessageInfo <- $r5
	@DEBUG_VALUE: nwk_mgm_childs_register_proccess:buf <- $r4
	@DEBUG_VALUE: nwk_mgm_request_proccess:buf <- $r4
	@DEBUG_VALUE: nwk_mgm_childs_register_proccess:error <- $r0
	@DEBUG_VALUE: nwk_mgm_childs_register_proccess:responseCode <- 67
	@DEBUG_VALUE: nwk_mgm_childs_register_proccess:k <- 0
	@DEBUG_VALUE: nwk_mgm_childs_register_proccess:i <- 0
	@DEBUG_VALUE: nwk_mgm_childs_register_proccess:payload <- 0
	@DEBUG_VALUE: nwk_mgm_childs_register_proccess:ack_rloc <- 0
	@DEBUG_VALUE: nwk_mgm_request_proccess:aContext <- [DW_OP_LLVM_entry_value 1] $r0
	.loc	1 0 29 is_stmt 0                @ ../das_subg_thread/network_management.c:0:29
	add	r0, sp, #104
.Ltmp401:
	.loc	1 552 25 is_stmt 1              @ ../das_subg_thread/network_management.c:552:25
	mov.w	r1, #400
	bl	__aeabi_memclr4
.Ltmp402:
	.loc	1 0 25 is_stmt 0                @ ../das_subg_thread/network_management.c:0:25
	movs	r0, #1
	.loc	1 556 43 is_stmt 1              @ ../das_subg_thread/network_management.c:556:43
	movw	r1, :lower16:reg_table_is_full
	movw	r7, :lower16:nwk_mgm_debug_flags
.Ltmp403:
	.loc	1 553 54                        @ ../das_subg_thread/network_management.c:553:54
	strb.w	r0, [sp, #104]
	.loc	1 556 43                        @ ../das_subg_thread/network_management.c:556:43
	movt	r1, :upper16:reg_table_is_full
	movs	r0, #0
	.loc	1 558 29                        @ ../das_subg_thread/network_management.c:558:29
	cmp.w	r11, #4
	movt	r7, :upper16:nwk_mgm_debug_flags
	.loc	1 556 43                        @ ../das_subg_thread/network_management.c:556:43
	strb	r0, [r1]
	.loc	1 558 29                        @ ../das_subg_thread/network_management.c:558:29
	bne	.LBB14_23
.Ltmp404:
@ %bb.9:
	@DEBUG_VALUE: nwk_mgm_childs_register_proccess:mRole <- $r11
	@DEBUG_VALUE: nwk_mgm_childs_register_proccess:instance <- $r10
	@DEBUG_VALUE: nwk_mgm_childs_register_proccess:responseMessage <- $r9
	@DEBUG_VALUE: nwk_mgm_childs_register_proccess:aMessageInfo <- $r5
	@DEBUG_VALUE: nwk_mgm_request_proccess:aMessageInfo <- $r5
	@DEBUG_VALUE: nwk_mgm_childs_register_proccess:buf <- $r4
	@DEBUG_VALUE: nwk_mgm_request_proccess:buf <- $r4
	@DEBUG_VALUE: nwk_mgm_childs_register_proccess:responseCode <- 67
	@DEBUG_VALUE: nwk_mgm_childs_register_proccess:k <- 0
	@DEBUG_VALUE: nwk_mgm_childs_register_proccess:i <- 0
	@DEBUG_VALUE: nwk_mgm_childs_register_proccess:payload <- 0
	@DEBUG_VALUE: nwk_mgm_childs_register_proccess:ack_rloc <- 0
	@DEBUG_VALUE: nwk_mgm_request_proccess:aContext <- [DW_OP_LLVM_entry_value 1] $r0
	.loc	1 0 29 is_stmt 0                @ ../das_subg_thread/network_management.c:0:29
	add.w	r8, sp, #504
.Ltmp405:
	.loc	1 560 33 is_stmt 1              @ ../das_subg_thread/network_management.c:560:33
	movs	r0, #0
	mov	r1, r4
	mov	r2, r6
	mov	r3, r8
	bl	nwk_mgm_data_parse
.Ltmp406:
	.loc	1 560 33 is_stmt 0              @ ../das_subg_thread/network_management.c:560:33
	cmp	r0, #0
	bne.w	.LBB14_69
.Ltmp407:
@ %bb.10:
	@DEBUG_VALUE: nwk_mgm_childs_register_proccess:mRole <- $r11
	@DEBUG_VALUE: nwk_mgm_childs_register_proccess:instance <- $r10
	@DEBUG_VALUE: nwk_mgm_childs_register_proccess:responseMessage <- $r9
	@DEBUG_VALUE: nwk_mgm_childs_register_proccess:aMessageInfo <- $r5
	@DEBUG_VALUE: nwk_mgm_request_proccess:aMessageInfo <- $r5
	@DEBUG_VALUE: nwk_mgm_childs_register_proccess:buf <- $r4
	@DEBUG_VALUE: nwk_mgm_request_proccess:buf <- $r4
	@DEBUG_VALUE: nwk_mgm_childs_register_proccess:responseCode <- 67
	@DEBUG_VALUE: nwk_mgm_childs_register_proccess:k <- 0
	@DEBUG_VALUE: nwk_mgm_childs_register_proccess:i <- 0
	@DEBUG_VALUE: nwk_mgm_childs_register_proccess:payload <- 0
	@DEBUG_VALUE: nwk_mgm_childs_register_proccess:ack_rloc <- 0
	@DEBUG_VALUE: nwk_mgm_request_proccess:aContext <- [DW_OP_LLVM_entry_value 1] $r0
	.loc	1 564 29 is_stmt 1              @ ../das_subg_thread/network_management.c:564:29
	ldr	r0, [r7]
.Ltmp408:
	.loc	1 0 0 is_stmt 0                 @ ../das_subg_thread/network_management.c:0:0
	ldrh.w	r11, [sp, #506]
.Ltmp409:
	.loc	1 564 29                        @ ../das_subg_thread/network_management.c:564:29
	cmp	r0, #0
	beq	.LBB14_26
.Ltmp410:
@ %bb.11:
	@DEBUG_VALUE: nwk_mgm_childs_register_proccess:instance <- $r10
	@DEBUG_VALUE: nwk_mgm_childs_register_proccess:responseMessage <- $r9
	@DEBUG_VALUE: nwk_mgm_childs_register_proccess:aMessageInfo <- $r5
	@DEBUG_VALUE: nwk_mgm_request_proccess:aMessageInfo <- $r5
	@DEBUG_VALUE: nwk_mgm_childs_register_proccess:buf <- $r4
	@DEBUG_VALUE: nwk_mgm_request_proccess:buf <- $r4
	@DEBUG_VALUE: nwk_mgm_childs_register_proccess:responseCode <- 67
	@DEBUG_VALUE: nwk_mgm_childs_register_proccess:k <- 0
	@DEBUG_VALUE: nwk_mgm_childs_register_proccess:i <- 0
	@DEBUG_VALUE: nwk_mgm_childs_register_proccess:payload <- 0
	@DEBUG_VALUE: nwk_mgm_childs_register_proccess:ack_rloc <- 0
	@DEBUG_VALUE: nwk_mgm_request_proccess:aContext <- [DW_OP_LLVM_entry_value 1] $r0
	.loc	1 564 29                        @ ../das_subg_thread/network_management.c:564:29
	ldrh.w	r6, [sp, #508]
	ldrb.w	r0, [sp, #511]
	ldrb.w	r3, [sp, #510]
	ldrb.w	r1, [sp, #512]
	ldrb.w	r2, [sp, #513]
	ldrb.w	r8, [sp, #517]
	ldrb.w	r7, [sp, #514]
	ldrb.w	r12, [sp, #515]
	ldrb.w	lr, [sp, #516]
	stm.w	sp, {r0, r1, r2, r7, r12, lr}
	adr.w	r0, .LCPI14_2
	mov	r1, r11
	mov	r2, r6
	str.w	r8, [sp, #24]
	add.w	r8, sp, #504
	bl	__2printf
.Ltmp411:
	.loc	1 0 29                          @ ../das_subg_thread/network_management.c:0:29
	b	.LBB14_27
.Ltmp412:
.LBB14_12:
	@DEBUG_VALUE: nwk_mgm_request_proccess:aMessage <- $r7
	@DEBUG_VALUE: nwk_mgm_request_proccess:aMessageInfo <- $r5
	@DEBUG_VALUE: nwk_mgm_request_proccess:buf <- $r4
	@DEBUG_VALUE: nwk_mgm_request_proccess:aContext <- [DW_OP_LLVM_entry_value 1] $r0
	@DEBUG_VALUE: nwk_mgm_kick_child_proccess:buf <- $r4
	@DEBUG_VALUE: nwk_mgm_kick_child_proccess:length <- undef
	.loc	1 763 28 is_stmt 1              @ ../das_subg_thread/network_management.c:763:28
	bl	otrGetInstance
.Ltmp413:
	@DEBUG_VALUE: nwk_mgm_kick_child_proccess:instance <- $r0
	.loc	1 764 9                         @ ../das_subg_thread/network_management.c:764:9
	cmp	r0, #0
	beq.w	.LBB14_69
.Ltmp414:
@ %bb.13:
	@DEBUG_VALUE: nwk_mgm_request_proccess:aMessage <- $r7
	@DEBUG_VALUE: nwk_mgm_request_proccess:aMessageInfo <- $r5
	@DEBUG_VALUE: nwk_mgm_kick_child_proccess:buf <- $r4
	@DEBUG_VALUE: nwk_mgm_request_proccess:buf <- $r4
	@DEBUG_VALUE: nwk_mgm_kick_child_proccess:instance <- $r0
	@DEBUG_VALUE: nwk_mgm_request_proccess:aContext <- [DW_OP_LLVM_entry_value 1] $r0
	.loc	1 0 0 is_stmt 0                 @ ../das_subg_thread/network_management.c:0:0
	mov	r5, r0
.Ltmp415:
	@DEBUG_VALUE: nwk_mgm_kick_child_proccess:instance <- $r5
	.loc	1 766 30 is_stmt 1              @ ../das_subg_thread/network_management.c:766:30
	bl	otThreadGetDeviceRole
.Ltmp416:
	.loc	1 452 9                         @ ../das_subg_thread/network_management.c:452:9
	cmp	r6, #5
.Ltmp417:
	@DEBUG_VALUE: nwk_mgm_kick_child_proccess:kick_child_data <- [DW_OP_LLVM_fragment 32 16] undef
	@DEBUG_VALUE: nwk_mgm_kick_child_proccess:kick_child_data <- [DW_OP_LLVM_fragment 16 16] undef
	@DEBUG_VALUE: nwk_mgm_kick_child_proccess:kick_child_data <- [DW_OP_LLVM_fragment 0 8] undef
	@DEBUG_VALUE: nwk_mgm_data_parse:tmp <- [DW_OP_plus_uconst 5, DW_OP_stack_value] $r4
	@DEBUG_VALUE: nwk_mgm_data_parse:kick_child_data <- undef
	@DEBUG_VALUE: nwk_mgm_data_parse:child_reg_data_ack <- 0
	@DEBUG_VALUE: nwk_mgm_data_parse:child_reg_data <- 0
	@DEBUG_VALUE: nwk_mgm_data_parse:data <- undef
	@DEBUG_VALUE: nwk_mgm_data_parse:payloadlength <- undef
	@DEBUG_VALUE: nwk_mgm_data_parse:payload <- $r4
	@DEBUG_VALUE: nwk_mgm_data_parse:type <- 2
	@DEBUG_VALUE: mRole <- $r0
	bne	.LBB14_21
.Ltmp418:
@ %bb.14:
	@DEBUG_VALUE: nwk_mgm_request_proccess:aMessage <- $r7
	@DEBUG_VALUE: nwk_mgm_kick_child_proccess:instance <- $r5
	@DEBUG_VALUE: nwk_mgm_kick_child_proccess:buf <- $r4
	@DEBUG_VALUE: nwk_mgm_request_proccess:buf <- $r4
	@DEBUG_VALUE: mRole <- $r0
	@DEBUG_VALUE: nwk_mgm_request_proccess:aContext <- [DW_OP_LLVM_entry_value 1] $r0
	.loc	1 0 9 is_stmt 0                 @ ../das_subg_thread/network_management.c:0:9
	bic	r0, r0, #1
.Ltmp419:
	.loc	1 774 25 is_stmt 1              @ ../das_subg_thread/network_management.c:774:25
	cmp	r0, #2
	bne.w	.LBB14_69
.Ltmp420:
@ %bb.15:
	@DEBUG_VALUE: nwk_mgm_request_proccess:aMessage <- $r7
	@DEBUG_VALUE: nwk_mgm_kick_child_proccess:instance <- $r5
	@DEBUG_VALUE: nwk_mgm_kick_child_proccess:buf <- $r4
	@DEBUG_VALUE: nwk_mgm_request_proccess:buf <- $r4
	@DEBUG_VALUE: nwk_mgm_request_proccess:aContext <- [DW_OP_LLVM_entry_value 1] $r0
	.loc	1 780 25                        @ ../das_subg_thread/network_management.c:780:25
	movw	r7, :lower16:nwk_mgm_debug_flags
.Ltmp421:
	movt	r7, :upper16:nwk_mgm_debug_flags
	ldr	r0, [r7]
	ldrh.w	r6, [r4, #3]
.Ltmp422:
	.loc	1 780 25 is_stmt 0              @ ../das_subg_thread/network_management.c:780:25
	cbz	r0, .LBB14_17
.Ltmp423:
@ %bb.16:
	@DEBUG_VALUE: nwk_mgm_kick_child_proccess:instance <- $r5
	@DEBUG_VALUE: nwk_mgm_kick_child_proccess:buf <- $r4
	@DEBUG_VALUE: nwk_mgm_request_proccess:buf <- $r4
	@DEBUG_VALUE: nwk_mgm_request_proccess:aContext <- [DW_OP_LLVM_entry_value 1] $r0
	.loc	1 780 25                        @ ../das_subg_thread/network_management.c:780:25
	adr	r0, .LCPI14_0
	mov	r1, r6
	bl	__2printf
.Ltmp424:
.LBB14_17:
	@DEBUG_VALUE: nwk_mgm_kick_child_proccess:instance <- $r5
	@DEBUG_VALUE: nwk_mgm_kick_child_proccess:buf <- $r4
	@DEBUG_VALUE: nwk_mgm_request_proccess:buf <- $r4
	@DEBUG_VALUE: nwk_mgm_request_proccess:aContext <- [DW_OP_LLVM_entry_value 1] $r0
	.loc	1 782 46 is_stmt 1              @ ../das_subg_thread/network_management.c:782:46
	mov	r0, r5
	mov	r1, r6
	bl	otLinkBlackListAddPanId
.Ltmp425:
	.loc	1 782 29 is_stmt 0              @ ../das_subg_thread/network_management.c:782:29
	cbz	r0, .LBB14_20
.Ltmp426:
@ %bb.18:
	@DEBUG_VALUE: nwk_mgm_kick_child_proccess:instance <- $r5
	@DEBUG_VALUE: nwk_mgm_kick_child_proccess:buf <- $r4
	@DEBUG_VALUE: nwk_mgm_request_proccess:buf <- $r4
	@DEBUG_VALUE: nwk_mgm_request_proccess:aContext <- [DW_OP_LLVM_entry_value 1] $r0
	.loc	1 0 29                          @ ../das_subg_thread/network_management.c:0:29
	ldr	r0, [r7]
	.loc	1 782 29                        @ ../das_subg_thread/network_management.c:782:29
	cbz	r0, .LBB14_20
.Ltmp427:
@ %bb.19:
	@DEBUG_VALUE: nwk_mgm_kick_child_proccess:instance <- $r5
	@DEBUG_VALUE: nwk_mgm_kick_child_proccess:buf <- $r4
	@DEBUG_VALUE: nwk_mgm_request_proccess:buf <- $r4
	@DEBUG_VALUE: nwk_mgm_request_proccess:aContext <- [DW_OP_LLVM_entry_value 1] $r0
	.loc	1 784 29 is_stmt 1              @ ../das_subg_thread/network_management.c:784:29
	movw	r0, :lower16:.Lstr.46
	movt	r0, :upper16:.Lstr.46
	bl	puts
.Ltmp428:
.LBB14_20:
	@DEBUG_VALUE: nwk_mgm_kick_child_proccess:instance <- $r5
	@DEBUG_VALUE: nwk_mgm_kick_child_proccess:buf <- $r4
	@DEBUG_VALUE: nwk_mgm_request_proccess:buf <- $r4
	@DEBUG_VALUE: nwk_mgm_request_proccess:aContext <- [DW_OP_LLVM_entry_value 1] $r0
	.loc	1 786 25                        @ ../das_subg_thread/network_management.c:786:25
	bl	nwk_mgm_reset
.Ltmp429:
	.loc	1 0 25 is_stmt 0                @ ../das_subg_thread/network_management.c:0:25
	b	.LBB14_69
.Ltmp430:
.LBB14_21:
	@DEBUG_VALUE: nwk_mgm_request_proccess:aMessage <- $r7
	@DEBUG_VALUE: nwk_mgm_kick_child_proccess:instance <- $r5
	@DEBUG_VALUE: nwk_mgm_data_parse:payload <- $r4
	@DEBUG_VALUE: nwk_mgm_data_parse:tmp <- [DW_OP_plus_uconst 5, DW_OP_stack_value] $r4
	@DEBUG_VALUE: nwk_mgm_kick_child_proccess:buf <- $r4
	@DEBUG_VALUE: nwk_mgm_request_proccess:buf <- $r4
	@DEBUG_VALUE: mRole <- $r0
	@DEBUG_VALUE: nwk_mgm_data_parse:type <- 2
	@DEBUG_VALUE: nwk_mgm_data_parse:child_reg_data <- 0
	@DEBUG_VALUE: nwk_mgm_data_parse:child_reg_data_ack <- 0
	@DEBUG_VALUE: nwk_mgm_request_proccess:aContext <- [DW_OP_LLVM_entry_value 1] $r0
	.loc	1 454 9 is_stmt 1               @ ../das_subg_thread/network_management.c:454:9
	movw	r0, :lower16:nwk_mgm_debug_flags
.Ltmp431:
	movt	r0, :upper16:nwk_mgm_debug_flags
	ldr	r0, [r0]
.Ltmp432:
	.loc	1 454 9 is_stmt 0               @ ../das_subg_thread/network_management.c:454:9
	cmp	r0, #0
	beq.w	.LBB14_69
.Ltmp433:
@ %bb.22:
	@DEBUG_VALUE: nwk_mgm_request_proccess:aMessage <- $r7
	@DEBUG_VALUE: nwk_mgm_kick_child_proccess:instance <- $r5
	@DEBUG_VALUE: nwk_mgm_data_parse:payload <- $r4
	@DEBUG_VALUE: nwk_mgm_data_parse:tmp <- [DW_OP_plus_uconst 5, DW_OP_stack_value] $r4
	@DEBUG_VALUE: nwk_mgm_kick_child_proccess:buf <- $r4
	@DEBUG_VALUE: nwk_mgm_request_proccess:buf <- $r4
	@DEBUG_VALUE: nwk_mgm_data_parse:type <- 2
	@DEBUG_VALUE: nwk_mgm_data_parse:child_reg_data <- 0
	@DEBUG_VALUE: nwk_mgm_data_parse:child_reg_data_ack <- 0
	@DEBUG_VALUE: nwk_mgm_request_proccess:aContext <- [DW_OP_LLVM_entry_value 1] $r0
	.loc	1 454 9                         @ ../das_subg_thread/network_management.c:454:9
	movw	r0, :lower16:.L.str.21
	movt	r0, :upper16:.L.str.21
	movs	r1, #2
	movs	r2, #5
	mov	r3, r6
	bl	__2printf
.Ltmp434:
	.loc	1 0 9                           @ ../das_subg_thread/network_management.c:0:9
	b	.LBB14_69
.Ltmp435:
.LBB14_23:
	@DEBUG_VALUE: nwk_mgm_childs_register_proccess:mRole <- $r11
	@DEBUG_VALUE: nwk_mgm_childs_register_proccess:instance <- $r10
	@DEBUG_VALUE: nwk_mgm_childs_register_proccess:responseMessage <- $r9
	@DEBUG_VALUE: nwk_mgm_childs_register_proccess:aMessageInfo <- $r5
	@DEBUG_VALUE: nwk_mgm_request_proccess:aMessageInfo <- $r5
	@DEBUG_VALUE: nwk_mgm_childs_register_proccess:buf <- $r4
	@DEBUG_VALUE: nwk_mgm_request_proccess:buf <- $r4
	@DEBUG_VALUE: nwk_mgm_childs_register_proccess:responseCode <- 67
	@DEBUG_VALUE: nwk_mgm_childs_register_proccess:k <- 0
	@DEBUG_VALUE: nwk_mgm_childs_register_proccess:i <- 0
	@DEBUG_VALUE: nwk_mgm_childs_register_proccess:payload <- 0
	@DEBUG_VALUE: nwk_mgm_childs_register_proccess:ack_rloc <- 0
	@DEBUG_VALUE: nwk_mgm_request_proccess:aContext <- [DW_OP_LLVM_entry_value 1] $r0
	.loc	1 656 29 is_stmt 1              @ ../das_subg_thread/network_management.c:656:29
	ldr	r0, [r7]
.Ltmp436:
	.loc	1 656 29 is_stmt 0              @ ../das_subg_thread/network_management.c:656:29
	cbz	r0, .LBB14_25
.Ltmp437:
@ %bb.24:
	@DEBUG_VALUE: nwk_mgm_childs_register_proccess:mRole <- $r11
	@DEBUG_VALUE: nwk_mgm_childs_register_proccess:instance <- $r10
	@DEBUG_VALUE: nwk_mgm_childs_register_proccess:responseMessage <- $r9
	@DEBUG_VALUE: nwk_mgm_childs_register_proccess:aMessageInfo <- $r5
	@DEBUG_VALUE: nwk_mgm_request_proccess:aMessageInfo <- $r5
	@DEBUG_VALUE: nwk_mgm_childs_register_proccess:buf <- $r4
	@DEBUG_VALUE: nwk_mgm_request_proccess:buf <- $r4
	@DEBUG_VALUE: nwk_mgm_childs_register_proccess:responseCode <- 67
	@DEBUG_VALUE: nwk_mgm_childs_register_proccess:k <- 0
	@DEBUG_VALUE: nwk_mgm_childs_register_proccess:i <- 0
	@DEBUG_VALUE: nwk_mgm_childs_register_proccess:payload <- 0
	@DEBUG_VALUE: nwk_mgm_childs_register_proccess:ack_rloc <- 0
	@DEBUG_VALUE: nwk_mgm_request_proccess:aContext <- [DW_OP_LLVM_entry_value 1] $r0
	.loc	1 656 29                        @ ../das_subg_thread/network_management.c:656:29
	adr	r0, .LCPI14_1
	bl	puts
.Ltmp438:
	.loc	1 0 29                          @ ../das_subg_thread/network_management.c:0:29
	mov.w	r8, #0
	mov.w	r11, #0
.Ltmp439:
	b	.LBB14_57
.Ltmp440:
.LBB14_25:
	@DEBUG_VALUE: nwk_mgm_childs_register_proccess:mRole <- $r11
	@DEBUG_VALUE: nwk_mgm_childs_register_proccess:instance <- $r10
	@DEBUG_VALUE: nwk_mgm_childs_register_proccess:responseMessage <- $r9
	@DEBUG_VALUE: nwk_mgm_childs_register_proccess:aMessageInfo <- $r5
	@DEBUG_VALUE: nwk_mgm_request_proccess:aMessageInfo <- $r5
	@DEBUG_VALUE: nwk_mgm_childs_register_proccess:buf <- $r4
	@DEBUG_VALUE: nwk_mgm_request_proccess:buf <- $r4
	@DEBUG_VALUE: nwk_mgm_childs_register_proccess:responseCode <- 67
	@DEBUG_VALUE: nwk_mgm_childs_register_proccess:k <- 0
	@DEBUG_VALUE: nwk_mgm_childs_register_proccess:i <- 0
	@DEBUG_VALUE: nwk_mgm_childs_register_proccess:payload <- 0
	@DEBUG_VALUE: nwk_mgm_childs_register_proccess:ack_rloc <- 0
	@DEBUG_VALUE: nwk_mgm_request_proccess:aContext <- [DW_OP_LLVM_entry_value 1] $r0
	mov.w	r11, #0
.Ltmp441:
	mov.w	r8, #0
	b	.LBB14_59
.Ltmp442:
.LBB14_26:
	@DEBUG_VALUE: nwk_mgm_childs_register_proccess:instance <- $r10
	@DEBUG_VALUE: nwk_mgm_childs_register_proccess:responseMessage <- $r9
	@DEBUG_VALUE: nwk_mgm_childs_register_proccess:aMessageInfo <- $r5
	@DEBUG_VALUE: nwk_mgm_request_proccess:aMessageInfo <- $r5
	@DEBUG_VALUE: nwk_mgm_childs_register_proccess:buf <- $r4
	@DEBUG_VALUE: nwk_mgm_request_proccess:buf <- $r4
	@DEBUG_VALUE: nwk_mgm_childs_register_proccess:responseCode <- 67
	@DEBUG_VALUE: nwk_mgm_childs_register_proccess:k <- 0
	@DEBUG_VALUE: nwk_mgm_childs_register_proccess:i <- 0
	@DEBUG_VALUE: nwk_mgm_childs_register_proccess:payload <- 0
	@DEBUG_VALUE: nwk_mgm_childs_register_proccess:ack_rloc <- 0
	@DEBUG_VALUE: nwk_mgm_request_proccess:aContext <- [DW_OP_LLVM_entry_value 1] $r0
	.loc	1 579 76 is_stmt 1              @ ../das_subg_thread/network_management.c:579:76
	ldrh.w	r6, [sp, #508]
.Ltmp443:
.LBB14_27:
	@DEBUG_VALUE: nwk_mgm_childs_register_proccess:instance <- $r10
	@DEBUG_VALUE: nwk_mgm_childs_register_proccess:responseMessage <- $r9
	@DEBUG_VALUE: nwk_mgm_childs_register_proccess:aMessageInfo <- $r5
	@DEBUG_VALUE: nwk_mgm_request_proccess:aMessageInfo <- $r5
	@DEBUG_VALUE: nwk_mgm_childs_register_proccess:buf <- $r4
	@DEBUG_VALUE: nwk_mgm_request_proccess:buf <- $r4
	@DEBUG_VALUE: nwk_mgm_childs_register_proccess:responseCode <- 67
	@DEBUG_VALUE: nwk_mgm_childs_register_proccess:k <- 0
	@DEBUG_VALUE: nwk_mgm_childs_register_proccess:i <- 0
	@DEBUG_VALUE: nwk_mgm_childs_register_proccess:payload <- 0
	@DEBUG_VALUE: nwk_mgm_childs_register_proccess:ack_rloc <- 0
	@DEBUG_VALUE: nwk_mgm_request_proccess:aContext <- [DW_OP_LLVM_entry_value 1] $r0
	.loc	1 580 61                        @ ../das_subg_thread/network_management.c:580:61
	add.w	r7, r8, #6
	mvn	r12, #127
	.loc	1 577 33                        @ ../das_subg_thread/network_management.c:577:33
	movs	r0, #3
	mov	r1, r11
	mov	r2, r6
	mov	r3, r7
	str.w	r12, [sp]
	bl	nwk_mgm_child_reg_table_add
.Ltmp444:
	.loc	1 577 33 is_stmt 0              @ ../das_subg_thread/network_management.c:577:33
	strd	r10, r9, [sp, #36]              @ 8-byte Folded Spill
	cbz	r0, .LBB14_31
.Ltmp445:
@ %bb.28:
	@DEBUG_VALUE: nwk_mgm_childs_register_proccess:instance <- $r10
	@DEBUG_VALUE: nwk_mgm_childs_register_proccess:responseMessage <- $r9
	@DEBUG_VALUE: nwk_mgm_childs_register_proccess:aMessageInfo <- $r5
	@DEBUG_VALUE: nwk_mgm_request_proccess:aMessageInfo <- $r5
	@DEBUG_VALUE: nwk_mgm_childs_register_proccess:buf <- $r4
	@DEBUG_VALUE: nwk_mgm_request_proccess:buf <- $r4
	@DEBUG_VALUE: nwk_mgm_childs_register_proccess:responseCode <- 67
	@DEBUG_VALUE: nwk_mgm_childs_register_proccess:k <- 0
	@DEBUG_VALUE: nwk_mgm_childs_register_proccess:i <- 0
	@DEBUG_VALUE: nwk_mgm_childs_register_proccess:payload <- 0
	@DEBUG_VALUE: nwk_mgm_childs_register_proccess:ack_rloc <- 0
	@DEBUG_VALUE: nwk_mgm_request_proccess:aContext <- [DW_OP_LLVM_entry_value 1] $r0
	.loc	1 582 33 is_stmt 1              @ ../das_subg_thread/network_management.c:582:33
	movw	r0, :lower16:nwk_mgm_debug_flags
	movt	r0, :upper16:nwk_mgm_debug_flags
	ldr	r0, [r0]
.Ltmp446:
	.loc	1 582 33 is_stmt 0              @ ../das_subg_thread/network_management.c:582:33
	cbz	r0, .LBB14_30
.Ltmp447:
@ %bb.29:
	@DEBUG_VALUE: nwk_mgm_childs_register_proccess:instance <- $r10
	@DEBUG_VALUE: nwk_mgm_childs_register_proccess:responseMessage <- $r9
	@DEBUG_VALUE: nwk_mgm_childs_register_proccess:aMessageInfo <- $r5
	@DEBUG_VALUE: nwk_mgm_request_proccess:aMessageInfo <- $r5
	@DEBUG_VALUE: nwk_mgm_childs_register_proccess:buf <- $r4
	@DEBUG_VALUE: nwk_mgm_request_proccess:buf <- $r4
	@DEBUG_VALUE: nwk_mgm_childs_register_proccess:responseCode <- 67
	@DEBUG_VALUE: nwk_mgm_childs_register_proccess:k <- 0
	@DEBUG_VALUE: nwk_mgm_childs_register_proccess:i <- 0
	@DEBUG_VALUE: nwk_mgm_childs_register_proccess:payload <- 0
	@DEBUG_VALUE: nwk_mgm_childs_register_proccess:ack_rloc <- 0
	@DEBUG_VALUE: nwk_mgm_request_proccess:aContext <- [DW_OP_LLVM_entry_value 1] $r0
	.loc	1 582 33                        @ ../das_subg_thread/network_management.c:582:33
	adr	r0, .LCPI14_3
	bl	puts
.Ltmp448:
.LBB14_30:
	@DEBUG_VALUE: nwk_mgm_childs_register_proccess:instance <- $r10
	@DEBUG_VALUE: nwk_mgm_childs_register_proccess:responseMessage <- $r9
	@DEBUG_VALUE: nwk_mgm_childs_register_proccess:aMessageInfo <- $r5
	@DEBUG_VALUE: nwk_mgm_request_proccess:aMessageInfo <- $r5
	@DEBUG_VALUE: nwk_mgm_childs_register_proccess:buf <- $r4
	@DEBUG_VALUE: nwk_mgm_request_proccess:buf <- $r4
	@DEBUG_VALUE: nwk_mgm_childs_register_proccess:responseCode <- 67
	@DEBUG_VALUE: nwk_mgm_childs_register_proccess:k <- 0
	@DEBUG_VALUE: nwk_mgm_childs_register_proccess:i <- 0
	@DEBUG_VALUE: nwk_mgm_childs_register_proccess:payload <- 0
	@DEBUG_VALUE: nwk_mgm_childs_register_proccess:ack_rloc <- 0
	@DEBUG_VALUE: nwk_mgm_request_proccess:aContext <- [DW_OP_LLVM_entry_value 1] $r0
	.loc	1 583 51 is_stmt 1              @ ../das_subg_thread/network_management.c:583:51
	movw	r0, :lower16:reg_table_is_full
	movs	r2, #1
	movt	r0, :upper16:reg_table_is_full
	strb	r2, [r0]
	.loc	1 585 114                       @ ../das_subg_thread/network_management.c:585:114
	ldrh.w	r0, [sp, #508]
	.loc	1 586 33                        @ ../das_subg_thread/network_management.c:586:33
	ldr	r1, [r7]
	str	r0, [sp, #52]                   @ 4-byte Spill
	.loc	1 585 97                        @ ../das_subg_thread/network_management.c:585:97
	strh.w	r0, [sp, #108]
	.loc	1 586 33                        @ ../das_subg_thread/network_management.c:586:33
	ldr	r0, [r7, #4]
	.loc	1 584 58                        @ ../das_subg_thread/network_management.c:584:58
	strb.w	r2, [sp, #105]
	.loc	1 586 33                        @ ../das_subg_thread/network_management.c:586:33
	str.w	r0, [sp, #114]
	movs	r0, #0
	.loc	1 587 97                        @ ../das_subg_thread/network_management.c:587:97
	strb.w	r0, [sp, #118]
	movs	r0, #1
	.loc	1 586 33                        @ ../das_subg_thread/network_management.c:586:33
	str.w	r1, [sp, #110]
	.loc	1 588 60                        @ ../das_subg_thread/network_management.c:588:60
	str	r0, [sp, #56]                   @ 4-byte Spill
	strh.w	r2, [sp, #106]
	b	.LBB14_32
.Ltmp449:
.LBB14_31:
	@DEBUG_VALUE: nwk_mgm_childs_register_proccess:instance <- $r10
	@DEBUG_VALUE: nwk_mgm_childs_register_proccess:responseMessage <- $r9
	@DEBUG_VALUE: nwk_mgm_childs_register_proccess:aMessageInfo <- $r5
	@DEBUG_VALUE: nwk_mgm_request_proccess:aMessageInfo <- $r5
	@DEBUG_VALUE: nwk_mgm_childs_register_proccess:buf <- $r4
	@DEBUG_VALUE: nwk_mgm_request_proccess:buf <- $r4
	@DEBUG_VALUE: nwk_mgm_childs_register_proccess:responseCode <- 67
	@DEBUG_VALUE: nwk_mgm_childs_register_proccess:k <- 0
	@DEBUG_VALUE: nwk_mgm_childs_register_proccess:i <- 0
	@DEBUG_VALUE: nwk_mgm_childs_register_proccess:payload <- 0
	@DEBUG_VALUE: nwk_mgm_childs_register_proccess:ack_rloc <- 0
	@DEBUG_VALUE: nwk_mgm_request_proccess:aContext <- [DW_OP_LLVM_entry_value 1] $r0
	.loc	1 0 60 is_stmt 0                @ ../das_subg_thread/network_management.c:0:60
	ldrh.w	r0, [sp, #508]
	str	r0, [sp, #52]                   @ 4-byte Spill
	movs	r0, #0
	.loc	1 577 33 is_stmt 1              @ ../das_subg_thread/network_management.c:577:33
	str	r0, [sp, #56]                   @ 4-byte Spill
.Ltmp450:
.LBB14_32:
	@DEBUG_VALUE: nwk_mgm_childs_register_proccess:instance <- $r10
	@DEBUG_VALUE: nwk_mgm_childs_register_proccess:responseMessage <- $r9
	@DEBUG_VALUE: nwk_mgm_childs_register_proccess:aMessageInfo <- $r5
	@DEBUG_VALUE: nwk_mgm_request_proccess:aMessageInfo <- $r5
	@DEBUG_VALUE: nwk_mgm_childs_register_proccess:buf <- $r4
	@DEBUG_VALUE: nwk_mgm_request_proccess:buf <- $r4
	@DEBUG_VALUE: nwk_mgm_childs_register_proccess:responseCode <- 67
	@DEBUG_VALUE: nwk_mgm_childs_register_proccess:k <- 0
	@DEBUG_VALUE: nwk_mgm_childs_register_proccess:i <- 0
	@DEBUG_VALUE: nwk_mgm_childs_register_proccess:payload <- 0
	@DEBUG_VALUE: nwk_mgm_childs_register_proccess:ack_rloc <- 0
	@DEBUG_VALUE: nwk_mgm_request_proccess:aContext <- [DW_OP_LLVM_entry_value 1] $r0
	@DEBUG_VALUE: nwk_mgm_childs_register_proccess:i <- 0
	.loc	1 0 33 is_stmt 0                @ ../das_subg_thread/network_management.c:0:33
	ldrh.w	r0, [sp, #518]
	movs	r6, #0
.Ltmp451:
	.loc	1 591 29 is_stmt 1              @ ../das_subg_thread/network_management.c:591:29
	str	r0, [sp, #48]                   @ 4-byte Spill
	add.w	r0, r8, #18
	str	r0, [sp, #44]                   @ 4-byte Spill
.Ltmp452:
.LBB14_33:                              @ =>This Loop Header: Depth=1
                                        @     Child Loop BB14_37 Depth 2
	@DEBUG_VALUE: nwk_mgm_childs_register_proccess:aMessageInfo <- $r5
	@DEBUG_VALUE: nwk_mgm_request_proccess:aMessageInfo <- $r5
	@DEBUG_VALUE: nwk_mgm_childs_register_proccess:buf <- $r4
	@DEBUG_VALUE: nwk_mgm_request_proccess:buf <- $r4
	@DEBUG_VALUE: nwk_mgm_childs_register_proccess:responseCode <- 67
	@DEBUG_VALUE: nwk_mgm_childs_register_proccess:payload <- 0
	@DEBUG_VALUE: nwk_mgm_childs_register_proccess:ack_rloc <- 0
	@DEBUG_VALUE: nwk_mgm_request_proccess:aContext <- [DW_OP_LLVM_entry_value 1] $r0
	@DEBUG_VALUE: nwk_mgm_childs_register_proccess:i <- $r6
	.loc	1 593 37                        @ ../das_subg_thread/network_management.c:593:37
	movw	r0, :lower16:nwk_mgm_child_reg_table
	movt	r0, :upper16:nwk_mgm_child_reg_table
	ldr.w	r11, [r0]
	.loc	1 593 64 is_stmt 0              @ ../das_subg_thread/network_management.c:593:64
	add.w	r0, r6, r6, lsl #3
	str	r0, [sp, #60]                   @ 4-byte Spill
	ldrb.w	r0, [r11, r0, lsl #1]
.Ltmp453:
	.loc	1 593 37                        @ ../das_subg_thread/network_management.c:593:37
	cmp	r0, #0
	beq	.LBB14_42
.Ltmp454:
@ %bb.34:                               @   in Loop: Header=BB14_33 Depth=1
	@DEBUG_VALUE: nwk_mgm_childs_register_proccess:i <- $r6
	@DEBUG_VALUE: nwk_mgm_childs_register_proccess:aMessageInfo <- $r5
	@DEBUG_VALUE: nwk_mgm_request_proccess:aMessageInfo <- $r5
	@DEBUG_VALUE: nwk_mgm_childs_register_proccess:buf <- $r4
	@DEBUG_VALUE: nwk_mgm_request_proccess:buf <- $r4
	@DEBUG_VALUE: nwk_mgm_childs_register_proccess:responseCode <- 67
	@DEBUG_VALUE: nwk_mgm_childs_register_proccess:payload <- 0
	@DEBUG_VALUE: nwk_mgm_childs_register_proccess:ack_rloc <- 0
	@DEBUG_VALUE: nwk_mgm_request_proccess:aContext <- [DW_OP_LLVM_entry_value 1] $r0
	.loc	1 595 68 is_stmt 1              @ ../das_subg_thread/network_management.c:595:68
	ldr	r0, [sp, #60]                   @ 4-byte Reload
.Ltmp455:
	.loc	1 595 41 is_stmt 0              @ ../das_subg_thread/network_management.c:595:41
	ldr	r1, [sp, #52]                   @ 4-byte Reload
.Ltmp456:
	.loc	1 595 68                        @ ../das_subg_thread/network_management.c:595:68
	add.w	r9, r11, r0, lsl #1
	ldrh.w	r0, [r9, #2]
.Ltmp457:
	.loc	1 595 41                        @ ../das_subg_thread/network_management.c:595:41
	cmp	r0, r1
	bne	.LBB14_42
.Ltmp458:
@ %bb.35:                               @   in Loop: Header=BB14_33 Depth=1
	@DEBUG_VALUE: nwk_mgm_childs_register_proccess:i <- $r6
	@DEBUG_VALUE: nwk_mgm_childs_register_proccess:aMessageInfo <- $r5
	@DEBUG_VALUE: nwk_mgm_request_proccess:aMessageInfo <- $r5
	@DEBUG_VALUE: nwk_mgm_childs_register_proccess:buf <- $r4
	@DEBUG_VALUE: nwk_mgm_request_proccess:buf <- $r4
	@DEBUG_VALUE: nwk_mgm_childs_register_proccess:responseCode <- 67
	@DEBUG_VALUE: nwk_mgm_childs_register_proccess:payload <- 0
	@DEBUG_VALUE: nwk_mgm_childs_register_proccess:ack_rloc <- 0
	@DEBUG_VALUE: nwk_mgm_request_proccess:aContext <- [DW_OP_LLVM_entry_value 1] $r0
	@DEBUG_VALUE: nwk_mgm_childs_register_proccess:k <- 0
	.loc	1 597 41 is_stmt 1              @ ../das_subg_thread/network_management.c:597:41
	ldr	r0, [sp, #48]                   @ 4-byte Reload
	cbz	r0, .LBB14_39
.Ltmp459:
@ %bb.36:                               @   in Loop: Header=BB14_33 Depth=1
	@DEBUG_VALUE: nwk_mgm_childs_register_proccess:i <- $r6
	@DEBUG_VALUE: nwk_mgm_childs_register_proccess:aMessageInfo <- $r5
	@DEBUG_VALUE: nwk_mgm_request_proccess:aMessageInfo <- $r5
	@DEBUG_VALUE: nwk_mgm_childs_register_proccess:buf <- $r4
	@DEBUG_VALUE: nwk_mgm_request_proccess:buf <- $r4
	@DEBUG_VALUE: nwk_mgm_childs_register_proccess:responseCode <- 67
	@DEBUG_VALUE: nwk_mgm_childs_register_proccess:k <- 0
	@DEBUG_VALUE: nwk_mgm_childs_register_proccess:payload <- 0
	@DEBUG_VALUE: nwk_mgm_childs_register_proccess:ack_rloc <- 0
	@DEBUG_VALUE: nwk_mgm_request_proccess:aContext <- [DW_OP_LLVM_entry_value 1] $r0
	.loc	1 0 41 is_stmt 0                @ ../das_subg_thread/network_management.c:0:41
	ldrd	r8, r10, [sp, #44]              @ 8-byte Folded Reload
	add.w	r7, r9, #6
.Ltmp460:
.LBB14_37:                              @   Parent Loop BB14_33 Depth=1
                                        @ =>  This Inner Loop Header: Depth=2
	@DEBUG_VALUE: nwk_mgm_childs_register_proccess:i <- $r6
	@DEBUG_VALUE: nwk_mgm_childs_register_proccess:aMessageInfo <- $r5
	@DEBUG_VALUE: nwk_mgm_request_proccess:aMessageInfo <- $r5
	@DEBUG_VALUE: nwk_mgm_childs_register_proccess:buf <- $r4
	@DEBUG_VALUE: nwk_mgm_request_proccess:buf <- $r4
	@DEBUG_VALUE: nwk_mgm_childs_register_proccess:responseCode <- 67
	@DEBUG_VALUE: nwk_mgm_childs_register_proccess:payload <- 0
	@DEBUG_VALUE: nwk_mgm_childs_register_proccess:ack_rloc <- 0
	@DEBUG_VALUE: nwk_mgm_request_proccess:aContext <- [DW_OP_LLVM_entry_value 1] $r0
	@DEBUG_VALUE: nwk_mgm_childs_register_proccess:k <- undef
	.loc	1 599 49 is_stmt 1              @ ../das_subg_thread/network_management.c:599:49
	mov	r0, r7
	mov	r1, r8
	movs	r2, #8
	bl	memcmp
.Ltmp461:
	@DEBUG_VALUE: nwk_mgm_childs_register_proccess:k <- [DW_OP_plus_uconst 1, DW_OP_stack_value] undef
	.loc	1 599 49 is_stmt 0              @ ../das_subg_thread/network_management.c:599:49
	cbz	r0, .LBB14_42
.Ltmp462:
@ %bb.38:                               @   in Loop: Header=BB14_37 Depth=2
	@DEBUG_VALUE: nwk_mgm_childs_register_proccess:i <- $r6
	@DEBUG_VALUE: nwk_mgm_childs_register_proccess:aMessageInfo <- $r5
	@DEBUG_VALUE: nwk_mgm_request_proccess:aMessageInfo <- $r5
	@DEBUG_VALUE: nwk_mgm_childs_register_proccess:buf <- $r4
	@DEBUG_VALUE: nwk_mgm_request_proccess:buf <- $r4
	@DEBUG_VALUE: nwk_mgm_childs_register_proccess:responseCode <- 67
	@DEBUG_VALUE: nwk_mgm_childs_register_proccess:payload <- 0
	@DEBUG_VALUE: nwk_mgm_childs_register_proccess:ack_rloc <- 0
	@DEBUG_VALUE: nwk_mgm_request_proccess:aContext <- [DW_OP_LLVM_entry_value 1] $r0
	@DEBUG_VALUE: nwk_mgm_childs_register_proccess:k <- [DW_OP_plus_uconst 1, DW_OP_stack_value] undef
	.loc	1 597 55 is_stmt 1              @ ../das_subg_thread/network_management.c:597:55
	subs.w	r10, r10, #1
	add.w	r8, r8, #12
.Ltmp463:
	.loc	1 597 41 is_stmt 0              @ ../das_subg_thread/network_management.c:597:41
	bne	.LBB14_37
.Ltmp464:
.LBB14_39:                              @   in Loop: Header=BB14_33 Depth=1
	@DEBUG_VALUE: nwk_mgm_childs_register_proccess:i <- $r6
	@DEBUG_VALUE: nwk_mgm_childs_register_proccess:aMessageInfo <- $r5
	@DEBUG_VALUE: nwk_mgm_request_proccess:aMessageInfo <- $r5
	@DEBUG_VALUE: nwk_mgm_childs_register_proccess:buf <- $r4
	@DEBUG_VALUE: nwk_mgm_request_proccess:buf <- $r4
	@DEBUG_VALUE: nwk_mgm_childs_register_proccess:responseCode <- 67
	@DEBUG_VALUE: nwk_mgm_childs_register_proccess:payload <- 0
	@DEBUG_VALUE: nwk_mgm_childs_register_proccess:ack_rloc <- 0
	@DEBUG_VALUE: nwk_mgm_request_proccess:aContext <- [DW_OP_LLVM_entry_value 1] $r0
	.loc	1 607 45 is_stmt 1              @ ../das_subg_thread/network_management.c:607:45
	movw	r0, :lower16:nwk_mgm_debug_flags
	movt	r0, :upper16:nwk_mgm_debug_flags
	ldr	r0, [r0]
.Ltmp465:
	.loc	1 607 45 is_stmt 0              @ ../das_subg_thread/network_management.c:607:45
	cbz	r0, .LBB14_41
.Ltmp466:
@ %bb.40:                               @   in Loop: Header=BB14_33 Depth=1
	@DEBUG_VALUE: nwk_mgm_childs_register_proccess:i <- $r6
	@DEBUG_VALUE: nwk_mgm_childs_register_proccess:aMessageInfo <- $r5
	@DEBUG_VALUE: nwk_mgm_request_proccess:aMessageInfo <- $r5
	@DEBUG_VALUE: nwk_mgm_childs_register_proccess:buf <- $r4
	@DEBUG_VALUE: nwk_mgm_request_proccess:buf <- $r4
	@DEBUG_VALUE: nwk_mgm_childs_register_proccess:responseCode <- 67
	@DEBUG_VALUE: nwk_mgm_childs_register_proccess:payload <- 0
	@DEBUG_VALUE: nwk_mgm_childs_register_proccess:ack_rloc <- 0
	@DEBUG_VALUE: nwk_mgm_request_proccess:aContext <- [DW_OP_LLVM_entry_value 1] $r0
	.loc	1 607 45                        @ ../das_subg_thread/network_management.c:607:45
	ldrb.w	r0, [r9, #7]
	ldrb.w	r1, [r9, #8]
	ldrh.w	r2, [r9, #4]
	ldrb.w	r3, [r9, #6]
	ldrb.w	r7, [r9, #9]
	ldrb.w	r12, [r9, #10]
	ldrb.w	lr, [r9, #11]
	ldrb.w	r8, [r9, #12]
	ldrb.w	r9, [r9, #13]
	stm.w	sp, {r0, r1, r7, r12, lr}
	movw	r0, :lower16:.L.str.30
	ldr	r1, [sp, #52]                   @ 4-byte Reload
	movt	r0, :upper16:.L.str.30
	str.w	r8, [sp, #20]
	str.w	r9, [sp, #24]
	bl	__2printf
.Ltmp467:
	.loc	1 618 109 is_stmt 1             @ ../das_subg_thread/network_management.c:618:109
	movw	r0, :lower16:nwk_mgm_child_reg_table
	movt	r0, :upper16:nwk_mgm_child_reg_table
	ldr.w	r11, [r0]
.Ltmp468:
.LBB14_41:                              @   in Loop: Header=BB14_33 Depth=1
	@DEBUG_VALUE: nwk_mgm_childs_register_proccess:i <- $r6
	@DEBUG_VALUE: nwk_mgm_childs_register_proccess:aMessageInfo <- $r5
	@DEBUG_VALUE: nwk_mgm_request_proccess:aMessageInfo <- $r5
	@DEBUG_VALUE: nwk_mgm_childs_register_proccess:buf <- $r4
	@DEBUG_VALUE: nwk_mgm_request_proccess:buf <- $r4
	@DEBUG_VALUE: nwk_mgm_childs_register_proccess:responseCode <- 67
	@DEBUG_VALUE: nwk_mgm_childs_register_proccess:payload <- 0
	@DEBUG_VALUE: nwk_mgm_childs_register_proccess:ack_rloc <- 0
	@DEBUG_VALUE: nwk_mgm_request_proccess:aContext <- [DW_OP_LLVM_entry_value 1] $r0
	ldr	r0, [sp, #60]                   @ 4-byte Reload
	add.w	r0, r11, r0, lsl #1
	adds	r0, #6
	.loc	1 618 45 is_stmt 0              @ ../das_subg_thread/network_management.c:618:45
	bl	nwk_mgm_child_reg_table_remove
.Ltmp469:
.LBB14_42:                              @   in Loop: Header=BB14_33 Depth=1
	@DEBUG_VALUE: nwk_mgm_childs_register_proccess:i <- $r6
	@DEBUG_VALUE: nwk_mgm_childs_register_proccess:aMessageInfo <- $r5
	@DEBUG_VALUE: nwk_mgm_request_proccess:aMessageInfo <- $r5
	@DEBUG_VALUE: nwk_mgm_childs_register_proccess:buf <- $r4
	@DEBUG_VALUE: nwk_mgm_request_proccess:buf <- $r4
	@DEBUG_VALUE: nwk_mgm_childs_register_proccess:responseCode <- 67
	@DEBUG_VALUE: nwk_mgm_childs_register_proccess:payload <- 0
	@DEBUG_VALUE: nwk_mgm_childs_register_proccess:ack_rloc <- 0
	@DEBUG_VALUE: nwk_mgm_request_proccess:aContext <- [DW_OP_LLVM_entry_value 1] $r0
	.loc	1 591 76 is_stmt 1              @ ../das_subg_thread/network_management.c:591:76
	adds	r6, #1
.Ltmp470:
	@DEBUG_VALUE: nwk_mgm_childs_register_proccess:i <- $r6
	.loc	1 591 29 is_stmt 0              @ ../das_subg_thread/network_management.c:591:29
	cmp	r6, #30
	bne	.LBB14_33
.Ltmp471:
@ %bb.43:
	@DEBUG_VALUE: nwk_mgm_childs_register_proccess:i <- $r6
	@DEBUG_VALUE: nwk_mgm_childs_register_proccess:aMessageInfo <- $r5
	@DEBUG_VALUE: nwk_mgm_request_proccess:aMessageInfo <- $r5
	@DEBUG_VALUE: nwk_mgm_childs_register_proccess:buf <- $r4
	@DEBUG_VALUE: nwk_mgm_request_proccess:buf <- $r4
	@DEBUG_VALUE: nwk_mgm_childs_register_proccess:responseCode <- 67
	@DEBUG_VALUE: nwk_mgm_childs_register_proccess:payload <- 0
	@DEBUG_VALUE: nwk_mgm_childs_register_proccess:ack_rloc <- 0
	@DEBUG_VALUE: nwk_mgm_request_proccess:aContext <- [DW_OP_LLVM_entry_value 1] $r0
	.loc	1 0 29                          @ ../das_subg_thread/network_management.c:0:29
	movw	r7, :lower16:nwk_mgm_debug_flags
	movt	r7, :upper16:nwk_mgm_debug_flags
.Ltmp472:
	.loc	1 624 29 is_stmt 1              @ ../das_subg_thread/network_management.c:624:29
	ldr	r0, [r7]
	ldr	r6, [sp, #48]                   @ 4-byte Reload
.Ltmp473:
	.loc	1 624 29 is_stmt 0              @ ../das_subg_thread/network_management.c:624:29
	cbz	r0, .LBB14_45
.Ltmp474:
@ %bb.44:
	@DEBUG_VALUE: nwk_mgm_childs_register_proccess:aMessageInfo <- $r5
	@DEBUG_VALUE: nwk_mgm_request_proccess:aMessageInfo <- $r5
	@DEBUG_VALUE: nwk_mgm_childs_register_proccess:buf <- $r4
	@DEBUG_VALUE: nwk_mgm_request_proccess:buf <- $r4
	@DEBUG_VALUE: nwk_mgm_childs_register_proccess:responseCode <- 67
	@DEBUG_VALUE: nwk_mgm_childs_register_proccess:payload <- 0
	@DEBUG_VALUE: nwk_mgm_childs_register_proccess:ack_rloc <- 0
	@DEBUG_VALUE: nwk_mgm_request_proccess:aContext <- [DW_OP_LLVM_entry_value 1] $r0
	.loc	1 624 29                        @ ../das_subg_thread/network_management.c:624:29
	adr	r0, .LCPI14_4
	mov	r1, r6
	bl	__2printf
.Ltmp475:
.LBB14_45:
	@DEBUG_VALUE: nwk_mgm_childs_register_proccess:aMessageInfo <- $r5
	@DEBUG_VALUE: nwk_mgm_request_proccess:aMessageInfo <- $r5
	@DEBUG_VALUE: nwk_mgm_childs_register_proccess:buf <- $r4
	@DEBUG_VALUE: nwk_mgm_request_proccess:buf <- $r4
	@DEBUG_VALUE: nwk_mgm_childs_register_proccess:responseCode <- 67
	@DEBUG_VALUE: nwk_mgm_childs_register_proccess:payload <- 0
	@DEBUG_VALUE: nwk_mgm_childs_register_proccess:ack_rloc <- 0
	@DEBUG_VALUE: nwk_mgm_request_proccess:aContext <- [DW_OP_LLVM_entry_value 1] $r0
	@DEBUG_VALUE: nwk_mgm_childs_register_proccess:i <- 0
	.loc	1 0 29                          @ ../das_subg_thread/network_management.c:0:29
	ldr.w	r11, [sp, #56]                  @ 4-byte Reload
.Ltmp476:
	.loc	1 625 29 is_stmt 1              @ ../das_subg_thread/network_management.c:625:29
	cmp	r6, #0
	add	r0, sp, #504
	beq.w	.LBB14_55
.Ltmp477:
@ %bb.46:
	@DEBUG_VALUE: nwk_mgm_childs_register_proccess:aMessageInfo <- $r5
	@DEBUG_VALUE: nwk_mgm_request_proccess:aMessageInfo <- $r5
	@DEBUG_VALUE: nwk_mgm_childs_register_proccess:buf <- $r4
	@DEBUG_VALUE: nwk_mgm_request_proccess:buf <- $r4
	@DEBUG_VALUE: nwk_mgm_childs_register_proccess:responseCode <- 67
	@DEBUG_VALUE: nwk_mgm_childs_register_proccess:i <- 0
	@DEBUG_VALUE: nwk_mgm_childs_register_proccess:payload <- 0
	@DEBUG_VALUE: nwk_mgm_childs_register_proccess:ack_rloc <- 0
	@DEBUG_VALUE: nwk_mgm_request_proccess:aContext <- [DW_OP_LLVM_entry_value 1] $r0
	add.w	r8, r0, #26
	mov.w	r10, #0
	str.w	r11, [sp, #48]                  @ 4-byte Spill
.Ltmp478:
.LBB14_47:                              @ =>This Inner Loop Header: Depth=1
	@DEBUG_VALUE: nwk_mgm_childs_register_proccess:aMessageInfo <- $r5
	@DEBUG_VALUE: nwk_mgm_request_proccess:aMessageInfo <- $r5
	@DEBUG_VALUE: nwk_mgm_childs_register_proccess:buf <- $r4
	@DEBUG_VALUE: nwk_mgm_request_proccess:buf <- $r4
	@DEBUG_VALUE: nwk_mgm_childs_register_proccess:responseCode <- 67
	@DEBUG_VALUE: nwk_mgm_childs_register_proccess:payload <- 0
	@DEBUG_VALUE: nwk_mgm_childs_register_proccess:ack_rloc <- 0
	@DEBUG_VALUE: nwk_mgm_request_proccess:aContext <- [DW_OP_LLVM_entry_value 1] $r0
	@DEBUG_VALUE: nwk_mgm_childs_register_proccess:i <- $r10
	.loc	1 627 33                        @ ../das_subg_thread/network_management.c:627:33
	ldr	r0, [r7]
.Ltmp479:
	.loc	1 0 0 is_stmt 0                 @ ../das_subg_thread/network_management.c:0:0
	ldrh.w	r1, [sp, #508]
.Ltmp480:
	.loc	1 627 33                        @ ../das_subg_thread/network_management.c:627:33
	str.w	r11, [sp, #56]                  @ 4-byte Spill
	cbz	r0, .LBB14_49
.Ltmp481:
@ %bb.48:                               @   in Loop: Header=BB14_47 Depth=1
	@DEBUG_VALUE: nwk_mgm_childs_register_proccess:i <- $r10
	@DEBUG_VALUE: nwk_mgm_childs_register_proccess:aMessageInfo <- $r5
	@DEBUG_VALUE: nwk_mgm_request_proccess:aMessageInfo <- $r5
	@DEBUG_VALUE: nwk_mgm_childs_register_proccess:buf <- $r4
	@DEBUG_VALUE: nwk_mgm_request_proccess:buf <- $r4
	@DEBUG_VALUE: nwk_mgm_childs_register_proccess:responseCode <- 67
	@DEBUG_VALUE: nwk_mgm_childs_register_proccess:payload <- 0
	@DEBUG_VALUE: nwk_mgm_childs_register_proccess:ack_rloc <- 0
	@DEBUG_VALUE: nwk_mgm_request_proccess:aContext <- [DW_OP_LLVM_entry_value 1] $r0
	.loc	1 627 33                        @ ../das_subg_thread/network_management.c:627:33
	ldrb	r0, [r8, #-8]
	ldrb	r3, [r8, #-7]
	str	r0, [sp, #60]                   @ 4-byte Spill
	mov	r7, r1
	ldrb	r1, [r8, #-6]
	ldrb	r0, [r8, #-2]
	ldrb	r2, [r8, #-5]
	str	r0, [sp, #52]                   @ 4-byte Spill
	strd	r3, r1, [sp]
	add	r1, sp, #8
	ldrb	r12, [r8, #-4]
	ldrb	lr, [r8, #-3]
	ldrb	r0, [r8, #-1]
	stm.w	r1, {r2, r12, lr}
	ldr	r1, [sp, #52]                   @ 4-byte Reload
	ldrh	r6, [r8, #-10]
	ldrsb.w	r9, [r8]
	strd	r1, r0, [sp, #20]
	movw	r0, :lower16:.L.str.32
	ldr	r3, [sp, #60]                   @ 4-byte Reload
	movt	r0, :upper16:.L.str.32
	mov	r1, r7
	mov	r2, r6
	uxtb.w	r11, r9
	str.w	r9, [sp, #28]
	bl	__2printf
.Ltmp482:
	.loc	1 0 33                          @ ../das_subg_thread/network_management.c:0:33
	mov	r1, r7
	b	.LBB14_50
.Ltmp483:
.LBB14_49:                              @   in Loop: Header=BB14_47 Depth=1
	@DEBUG_VALUE: nwk_mgm_childs_register_proccess:i <- $r10
	@DEBUG_VALUE: nwk_mgm_childs_register_proccess:aMessageInfo <- $r5
	@DEBUG_VALUE: nwk_mgm_request_proccess:aMessageInfo <- $r5
	@DEBUG_VALUE: nwk_mgm_childs_register_proccess:buf <- $r4
	@DEBUG_VALUE: nwk_mgm_request_proccess:buf <- $r4
	@DEBUG_VALUE: nwk_mgm_childs_register_proccess:responseCode <- 67
	@DEBUG_VALUE: nwk_mgm_childs_register_proccess:payload <- 0
	@DEBUG_VALUE: nwk_mgm_childs_register_proccess:ack_rloc <- 0
	@DEBUG_VALUE: nwk_mgm_request_proccess:aContext <- [DW_OP_LLVM_entry_value 1] $r0
	.loc	1 641 94 is_stmt 1              @ ../das_subg_thread/network_management.c:641:94
	ldrh	r6, [r8, #-10]
	.loc	1 643 94                        @ ../das_subg_thread/network_management.c:643:94
	ldrb.w	r11, [r8]
.Ltmp484:
.LBB14_50:                              @   in Loop: Header=BB14_47 Depth=1
	@DEBUG_VALUE: nwk_mgm_childs_register_proccess:i <- $r10
	@DEBUG_VALUE: nwk_mgm_childs_register_proccess:aMessageInfo <- $r5
	@DEBUG_VALUE: nwk_mgm_request_proccess:aMessageInfo <- $r5
	@DEBUG_VALUE: nwk_mgm_childs_register_proccess:buf <- $r4
	@DEBUG_VALUE: nwk_mgm_request_proccess:buf <- $r4
	@DEBUG_VALUE: nwk_mgm_childs_register_proccess:responseCode <- 67
	@DEBUG_VALUE: nwk_mgm_childs_register_proccess:payload <- 0
	@DEBUG_VALUE: nwk_mgm_childs_register_proccess:ack_rloc <- 0
	@DEBUG_VALUE: nwk_mgm_request_proccess:aContext <- [DW_OP_LLVM_entry_value 1] $r0
	.loc	1 639 37                        @ ../das_subg_thread/network_management.c:639:37
	sub.w	r3, r8, #8
	sxtb.w	r7, r11
	movs	r0, #2
	mov	r2, r6
	str	r7, [sp]
	bl	nwk_mgm_child_reg_table_add
.Ltmp485:
	.loc	1 639 37 is_stmt 0              @ ../das_subg_thread/network_management.c:639:37
	cbz	r0, .LBB14_52
.Ltmp486:
@ %bb.51:                               @   in Loop: Header=BB14_47 Depth=1
	@DEBUG_VALUE: nwk_mgm_childs_register_proccess:i <- $r10
	@DEBUG_VALUE: nwk_mgm_childs_register_proccess:aMessageInfo <- $r5
	@DEBUG_VALUE: nwk_mgm_request_proccess:aMessageInfo <- $r5
	@DEBUG_VALUE: nwk_mgm_childs_register_proccess:buf <- $r4
	@DEBUG_VALUE: nwk_mgm_request_proccess:buf <- $r4
	@DEBUG_VALUE: nwk_mgm_childs_register_proccess:responseCode <- 67
	@DEBUG_VALUE: nwk_mgm_childs_register_proccess:payload <- 0
	@DEBUG_VALUE: nwk_mgm_childs_register_proccess:ack_rloc <- 0
	@DEBUG_VALUE: nwk_mgm_request_proccess:aContext <- [DW_OP_LLVM_entry_value 1] $r0
	.loc	1 0 37                          @ ../das_subg_thread/network_management.c:0:37
	ldr.w	r11, [sp, #56]                  @ 4-byte Reload
.Ltmp487:
	.loc	1 645 55 is_stmt 1              @ ../das_subg_thread/network_management.c:645:55
	movw	r0, :lower16:reg_table_is_full
	movs	r1, #1
	movs	r2, #1
	movt	r0, :upper16:reg_table_is_full
	str	r1, [sp, #48]                   @ 4-byte Spill
	.loc	1 647 37                        @ ../das_subg_thread/network_management.c:647:37
	uxth.w	r1, r11
	.loc	1 645 55                        @ ../das_subg_thread/network_management.c:645:55
	strb	r2, [r0]
	.loc	1 647 132                       @ ../das_subg_thread/network_management.c:647:132
	ldrh	r0, [r8, #-10]
	.loc	1 647 96 is_stmt 0              @ ../das_subg_thread/network_management.c:647:96
	add.w	r1, r1, r1, lsl #1
	add	r2, sp, #104
	add.w	r1, r2, r1, lsl #2
	.loc	1 647 101                       @ ../das_subg_thread/network_management.c:647:101
	strh	r0, [r1, #4]
	.loc	1 648 37 is_stmt 1              @ ../das_subg_thread/network_management.c:648:37
	ldr	r0, [r8, #-4]
	ldr	r2, [r8, #-8]
	str.w	r0, [r1, #10]
	.loc	1 649 132                       @ ../das_subg_thread/network_management.c:649:132
	ldrb.w	r0, [r8]
	movw	r7, :lower16:nwk_mgm_debug_flags
	.loc	1 650 64                        @ ../das_subg_thread/network_management.c:650:64
	add.w	r11, r11, #1
	movt	r7, :upper16:nwk_mgm_debug_flags
	.loc	1 648 37                        @ ../das_subg_thread/network_management.c:648:37
	str.w	r2, [r1, #6]
	.loc	1 649 101                       @ ../das_subg_thread/network_management.c:649:101
	strb	r0, [r1, #14]
	b	.LBB14_53
.Ltmp488:
.LBB14_52:                              @   in Loop: Header=BB14_47 Depth=1
	@DEBUG_VALUE: nwk_mgm_childs_register_proccess:i <- $r10
	@DEBUG_VALUE: nwk_mgm_childs_register_proccess:aMessageInfo <- $r5
	@DEBUG_VALUE: nwk_mgm_request_proccess:aMessageInfo <- $r5
	@DEBUG_VALUE: nwk_mgm_childs_register_proccess:buf <- $r4
	@DEBUG_VALUE: nwk_mgm_request_proccess:buf <- $r4
	@DEBUG_VALUE: nwk_mgm_childs_register_proccess:responseCode <- 67
	@DEBUG_VALUE: nwk_mgm_childs_register_proccess:payload <- 0
	@DEBUG_VALUE: nwk_mgm_childs_register_proccess:ack_rloc <- 0
	@DEBUG_VALUE: nwk_mgm_request_proccess:aContext <- [DW_OP_LLVM_entry_value 1] $r0
	.loc	1 0 101 is_stmt 0               @ ../das_subg_thread/network_management.c:0:101
	movw	r7, :lower16:nwk_mgm_debug_flags
	ldr.w	r11, [sp, #56]                  @ 4-byte Reload
	movt	r7, :upper16:nwk_mgm_debug_flags
.Ltmp489:
.LBB14_53:                              @   in Loop: Header=BB14_47 Depth=1
	@DEBUG_VALUE: nwk_mgm_childs_register_proccess:i <- $r10
	@DEBUG_VALUE: nwk_mgm_childs_register_proccess:aMessageInfo <- $r5
	@DEBUG_VALUE: nwk_mgm_request_proccess:aMessageInfo <- $r5
	@DEBUG_VALUE: nwk_mgm_childs_register_proccess:buf <- $r4
	@DEBUG_VALUE: nwk_mgm_request_proccess:buf <- $r4
	@DEBUG_VALUE: nwk_mgm_childs_register_proccess:responseCode <- 67
	@DEBUG_VALUE: nwk_mgm_childs_register_proccess:payload <- 0
	@DEBUG_VALUE: nwk_mgm_childs_register_proccess:ack_rloc <- 0
	@DEBUG_VALUE: nwk_mgm_request_proccess:aContext <- [DW_OP_LLVM_entry_value 1] $r0
	.loc	1 625 60 is_stmt 1              @ ../das_subg_thread/network_management.c:625:60
	ldrh.w	r0, [sp, #518]
	.loc	1 625 66 is_stmt 0              @ ../das_subg_thread/network_management.c:625:66
	add.w	r10, r10, #1
.Ltmp490:
	@DEBUG_VALUE: nwk_mgm_childs_register_proccess:i <- $r10
	.loc	1 625 29                        @ ../das_subg_thread/network_management.c:625:29
	cmp	r10, r0
.Ltmp491:
	.loc	1 625 43                        @ ../das_subg_thread/network_management.c:625:43
	add.w	r8, r8, #12
.Ltmp492:
	.loc	1 625 29                        @ ../das_subg_thread/network_management.c:625:29
	blo	.LBB14_47
.Ltmp493:
@ %bb.54:
	@DEBUG_VALUE: nwk_mgm_childs_register_proccess:i <- $r10
	@DEBUG_VALUE: nwk_mgm_childs_register_proccess:aMessageInfo <- $r5
	@DEBUG_VALUE: nwk_mgm_request_proccess:aMessageInfo <- $r5
	@DEBUG_VALUE: nwk_mgm_childs_register_proccess:buf <- $r4
	@DEBUG_VALUE: nwk_mgm_request_proccess:buf <- $r4
	@DEBUG_VALUE: nwk_mgm_childs_register_proccess:responseCode <- 67
	@DEBUG_VALUE: nwk_mgm_childs_register_proccess:payload <- 0
	@DEBUG_VALUE: nwk_mgm_childs_register_proccess:ack_rloc <- 0
	@DEBUG_VALUE: nwk_mgm_request_proccess:aContext <- [DW_OP_LLVM_entry_value 1] $r0
	.loc	1 0 29                          @ ../das_subg_thread/network_management.c:0:29
	ldr.w	r8, [sp, #48]                   @ 4-byte Reload
.Ltmp494:
	strh.w	r11, [sp, #106]
	.loc	1 646 62 is_stmt 1              @ ../das_subg_thread/network_management.c:646:62
	strb.w	r8, [sp, #105]
	b	.LBB14_56
.Ltmp495:
.LBB14_55:
	@DEBUG_VALUE: nwk_mgm_childs_register_proccess:aMessageInfo <- $r5
	@DEBUG_VALUE: nwk_mgm_request_proccess:aMessageInfo <- $r5
	@DEBUG_VALUE: nwk_mgm_childs_register_proccess:buf <- $r4
	@DEBUG_VALUE: nwk_mgm_request_proccess:buf <- $r4
	@DEBUG_VALUE: nwk_mgm_childs_register_proccess:responseCode <- 67
	@DEBUG_VALUE: nwk_mgm_childs_register_proccess:i <- 0
	@DEBUG_VALUE: nwk_mgm_childs_register_proccess:payload <- 0
	@DEBUG_VALUE: nwk_mgm_childs_register_proccess:ack_rloc <- 0
	@DEBUG_VALUE: nwk_mgm_request_proccess:aContext <- [DW_OP_LLVM_entry_value 1] $r0
	.loc	1 0 62 is_stmt 0                @ ../das_subg_thread/network_management.c:0:62
	mov	r8, r11
.Ltmp496:
.LBB14_56:
	@DEBUG_VALUE: nwk_mgm_childs_register_proccess:aMessageInfo <- $r5
	@DEBUG_VALUE: nwk_mgm_request_proccess:aMessageInfo <- $r5
	@DEBUG_VALUE: nwk_mgm_childs_register_proccess:buf <- $r4
	@DEBUG_VALUE: nwk_mgm_request_proccess:buf <- $r4
	@DEBUG_VALUE: nwk_mgm_childs_register_proccess:responseCode <- 67
	@DEBUG_VALUE: nwk_mgm_childs_register_proccess:payload <- 0
	@DEBUG_VALUE: nwk_mgm_childs_register_proccess:ack_rloc <- 0
	@DEBUG_VALUE: nwk_mgm_request_proccess:aContext <- [DW_OP_LLVM_entry_value 1] $r0
	ldrd	r10, r9, [sp, #36]              @ 8-byte Folded Reload
.Ltmp497:
.LBB14_57:
	@DEBUG_VALUE: nwk_mgm_childs_register_proccess:aMessageInfo <- $r5
	@DEBUG_VALUE: nwk_mgm_request_proccess:aMessageInfo <- $r5
	@DEBUG_VALUE: nwk_mgm_childs_register_proccess:buf <- $r4
	@DEBUG_VALUE: nwk_mgm_request_proccess:buf <- $r4
	@DEBUG_VALUE: nwk_mgm_childs_register_proccess:responseCode <- 67
	@DEBUG_VALUE: nwk_mgm_childs_register_proccess:payload <- 0
	@DEBUG_VALUE: nwk_mgm_childs_register_proccess:ack_rloc <- 0
	@DEBUG_VALUE: nwk_mgm_request_proccess:aContext <- [DW_OP_LLVM_entry_value 1] $r0
	.loc	1 658 25 is_stmt 1              @ ../das_subg_thread/network_management.c:658:25
	ldr	r0, [r7]
.Ltmp498:
	.loc	1 658 25 is_stmt 0              @ ../das_subg_thread/network_management.c:658:25
	cbz	r0, .LBB14_59
.Ltmp499:
@ %bb.58:
	@DEBUG_VALUE: nwk_mgm_childs_register_proccess:aMessageInfo <- $r5
	@DEBUG_VALUE: nwk_mgm_request_proccess:aMessageInfo <- $r5
	@DEBUG_VALUE: nwk_mgm_childs_register_proccess:buf <- $r4
	@DEBUG_VALUE: nwk_mgm_request_proccess:buf <- $r4
	@DEBUG_VALUE: nwk_mgm_childs_register_proccess:responseCode <- 67
	@DEBUG_VALUE: nwk_mgm_childs_register_proccess:payload <- 0
	@DEBUG_VALUE: nwk_mgm_childs_register_proccess:ack_rloc <- 0
	@DEBUG_VALUE: nwk_mgm_request_proccess:aContext <- [DW_OP_LLVM_entry_value 1] $r0
	.loc	1 658 25                        @ ../das_subg_thread/network_management.c:658:25
	uxth.w	r1, r11
	adr	r0, .LCPI14_5
	bl	__2printf
.Ltmp500:
.LBB14_59:
	@DEBUG_VALUE: nwk_mgm_childs_register_proccess:aMessageInfo <- $r5
	@DEBUG_VALUE: nwk_mgm_request_proccess:aMessageInfo <- $r5
	@DEBUG_VALUE: nwk_mgm_childs_register_proccess:buf <- $r4
	@DEBUG_VALUE: nwk_mgm_request_proccess:buf <- $r4
	@DEBUG_VALUE: nwk_mgm_childs_register_proccess:responseCode <- 67
	@DEBUG_VALUE: nwk_mgm_childs_register_proccess:payload <- 0
	@DEBUG_VALUE: nwk_mgm_childs_register_proccess:ack_rloc <- 0
	@DEBUG_VALUE: nwk_mgm_request_proccess:aContext <- [DW_OP_LLVM_entry_value 1] $r0
	.loc	1 659 35 is_stmt 1              @ ../das_subg_thread/network_management.c:659:35
	mov.w	r0, #400
	bl	pvPortMalloc
.Ltmp501:
	@DEBUG_VALUE: nwk_mgm_childs_register_proccess:payload <- $r0
	.loc	1 660 29                        @ ../das_subg_thread/network_management.c:660:29
	cbz	r0, .LBB14_66
.Ltmp502:
@ %bb.60:
	@DEBUG_VALUE: nwk_mgm_childs_register_proccess:aMessageInfo <- $r5
	@DEBUG_VALUE: nwk_mgm_request_proccess:aMessageInfo <- $r5
	@DEBUG_VALUE: nwk_mgm_childs_register_proccess:buf <- $r4
	@DEBUG_VALUE: nwk_mgm_request_proccess:buf <- $r4
	@DEBUG_VALUE: nwk_mgm_childs_register_proccess:payload <- $r0
	@DEBUG_VALUE: nwk_mgm_childs_register_proccess:responseCode <- 67
	@DEBUG_VALUE: nwk_mgm_childs_register_proccess:ack_rloc <- 0
	@DEBUG_VALUE: nwk_mgm_request_proccess:aContext <- [DW_OP_LLVM_entry_value 1] $r0
	.loc	1 0 0 is_stmt 0                 @ ../das_subg_thread/network_management.c:0:0
	mov	r6, r0
.Ltmp503:
	@DEBUG_VALUE: nwk_mgm_childs_register_proccess:payload <- $r6
	@DEBUG_VALUE: nwk_mgm_childs_register_proccess:payload <- $r6
	@DEBUG_VALUE: nwk_mgm_data_piece:payloadlength <- undef
	movs	r0, #1
.Ltmp504:
	@DEBUG_VALUE: nwk_mgm_data_piece:tmp <- [DW_OP_plus_uconst 1, DW_OP_stack_value] $r6
	@DEBUG_VALUE: nwk_mgm_data_piece:kick_child_data <- 0
	@DEBUG_VALUE: nwk_mgm_data_piece:child_reg_data_ack <- 0
	@DEBUG_VALUE: nwk_mgm_data_piece:child_reg_data <- 0
	@DEBUG_VALUE: nwk_mgm_data_piece:payload <- $r6
	@DEBUG_VALUE: nwk_mgm_data_piece:type <- 1
	.loc	1 467 12 is_stmt 1              @ ../das_subg_thread/network_management.c:467:12
	strb	r0, [r6]
.Ltmp505:
	@DEBUG_VALUE: nwk_mgm_data_piece:tmp <- [DW_OP_plus_uconst 2, DW_OP_stack_value] $r6
	.loc	1 490 16                        @ ../das_subg_thread/network_management.c:490:16
	strb.w	r8, [r6, #1]
	.loc	1 493 13                        @ ../das_subg_thread/network_management.c:493:13
	lsls.w	r0, r11, #16
.Ltmp506:
	@DEBUG_VALUE: nwk_mgm_data_piece:ptr <- [DW_OP_plus_uconst 104, DW_OP_stack_value] $sp
	@DEBUG_VALUE: nwk_mgm_data_piece:data <- [DW_OP_plus_uconst 104, DW_OP_stack_value] $sp
	@DEBUG_VALUE: nwk_mgm_data_piece:child_reg_data_ack <- [DW_OP_plus_uconst 104, DW_OP_stack_value] $sp
	.loc	1 492 13                        @ ../das_subg_thread/network_management.c:492:13
	add.w	r8, r6, #4
.Ltmp507:
	@DEBUG_VALUE: nwk_mgm_data_piece:tmp <- $r8
	.loc	1 491 9                         @ ../das_subg_thread/network_management.c:491:9
	strh.w	r11, [r6, #2]
	.loc	1 493 13                        @ ../das_subg_thread/network_management.c:493:13
	beq	.LBB14_62
.Ltmp508:
@ %bb.61:
	@DEBUG_VALUE: nwk_mgm_data_piece:tmp <- $r8
	@DEBUG_VALUE: nwk_mgm_data_piece:payload <- $r6
	@DEBUG_VALUE: nwk_mgm_childs_register_proccess:payload <- $r6
	@DEBUG_VALUE: nwk_mgm_childs_register_proccess:aMessageInfo <- $r5
	@DEBUG_VALUE: nwk_mgm_request_proccess:aMessageInfo <- $r5
	@DEBUG_VALUE: nwk_mgm_childs_register_proccess:buf <- $r4
	@DEBUG_VALUE: nwk_mgm_request_proccess:buf <- $r4
	@DEBUG_VALUE: nwk_mgm_data_piece:child_reg_data_ack <- [DW_OP_plus_uconst 104, DW_OP_stack_value] $sp
	@DEBUG_VALUE: nwk_mgm_data_piece:data <- [DW_OP_plus_uconst 104, DW_OP_stack_value] $sp
	@DEBUG_VALUE: nwk_mgm_data_piece:ptr <- [DW_OP_plus_uconst 104, DW_OP_stack_value] $sp
	@DEBUG_VALUE: nwk_mgm_data_piece:type <- 1
	@DEBUG_VALUE: nwk_mgm_data_piece:child_reg_data <- 0
	@DEBUG_VALUE: nwk_mgm_data_piece:kick_child_data <- 0
	@DEBUG_VALUE: nwk_mgm_childs_register_proccess:responseCode <- 67
	@DEBUG_VALUE: nwk_mgm_childs_register_proccess:ack_rloc <- 0
	@DEBUG_VALUE: nwk_mgm_request_proccess:aContext <- [DW_OP_LLVM_entry_value 1] $r0
	.loc	1 493 13 is_stmt 0              @ ../das_subg_thread/network_management.c:493:13
	uxth.w	r0, r11
.Ltmp509:
	.loc	1 495 46 is_stmt 1              @ ../das_subg_thread/network_management.c:495:46
	add	r1, sp, #104
	.loc	1 495 88 is_stmt 0              @ ../das_subg_thread/network_management.c:495:88
	add.w	r7, r0, r0, lsl #1
	.loc	1 495 46                        @ ../das_subg_thread/network_management.c:495:46
	adds	r1, #4
	.loc	1 495 88                        @ ../das_subg_thread/network_management.c:495:88
	lsls	r2, r7, #2
	.loc	1 495 13                        @ ../das_subg_thread/network_management.c:495:13
	mov	r0, r8
	bl	__aeabi_memcpy
.Ltmp510:
	.loc	1 496 17 is_stmt 1              @ ../das_subg_thread/network_management.c:496:17
	add.w	r8, r8, r7, lsl #2
.Ltmp511:
	@DEBUG_VALUE: nwk_mgm_data_piece:tmp <- $r8
	@DEBUG_VALUE: nwk_mgm_data_piece:child_reg_data_ack <- [DW_OP_plus_uconst 104, DW_OP_stack_value] $sp
.LBB14_62:
	@DEBUG_VALUE: nwk_mgm_childs_register_proccess:payload <- $r6
	@DEBUG_VALUE: nwk_mgm_childs_register_proccess:aMessageInfo <- $r5
	@DEBUG_VALUE: nwk_mgm_request_proccess:aMessageInfo <- $r5
	@DEBUG_VALUE: nwk_mgm_childs_register_proccess:buf <- $r4
	@DEBUG_VALUE: nwk_mgm_request_proccess:buf <- $r4
	@DEBUG_VALUE: nwk_mgm_childs_register_proccess:responseCode <- 67
	@DEBUG_VALUE: nwk_mgm_childs_register_proccess:ack_rloc <- 0
	@DEBUG_VALUE: nwk_mgm_request_proccess:aContext <- [DW_OP_LLVM_entry_value 1] $r0
	.loc	1 663 37                        @ ../das_subg_thread/network_management.c:663:37
	mov	r0, r9
	bl	otCoapMessageSetPayloadMarker
.Ltmp512:
	mov	r7, r0
.Ltmp513:
	@DEBUG_VALUE: nwk_mgm_childs_register_proccess:error <- $r7
	.loc	1 664 33                        @ ../das_subg_thread/network_management.c:664:33
	cbnz	r0, .LBB14_65
.Ltmp514:
@ %bb.63:
	@DEBUG_VALUE: nwk_mgm_childs_register_proccess:error <- $r7
	@DEBUG_VALUE: nwk_mgm_childs_register_proccess:payload <- $r6
	@DEBUG_VALUE: nwk_mgm_childs_register_proccess:aMessageInfo <- $r5
	@DEBUG_VALUE: nwk_mgm_request_proccess:aMessageInfo <- $r5
	@DEBUG_VALUE: nwk_mgm_childs_register_proccess:buf <- $r4
	@DEBUG_VALUE: nwk_mgm_request_proccess:buf <- $r4
	@DEBUG_VALUE: nwk_mgm_childs_register_proccess:responseCode <- 67
	@DEBUG_VALUE: nwk_mgm_childs_register_proccess:ack_rloc <- 0
	@DEBUG_VALUE: nwk_mgm_request_proccess:aContext <- [DW_OP_LLVM_entry_value 1] $r0
	.loc	1 512 27                        @ ../das_subg_thread/network_management.c:512:27
	sub.w	r0, r8, r6
.Ltmp515:
	.loc	1 668 37                        @ ../das_subg_thread/network_management.c:668:37
	uxth	r2, r0
.Ltmp516:
	@DEBUG_VALUE: nwk_mgm_childs_register_proccess:payloadlength <- $r2
	mov	r0, r9
	mov	r1, r6
	bl	otMessageAppend
.Ltmp517:
	mov	r7, r0
.Ltmp518:
	@DEBUG_VALUE: nwk_mgm_childs_register_proccess:error <- $r7
	.loc	1 669 33                        @ ../das_subg_thread/network_management.c:669:33
	cbnz	r0, .LBB14_65
.Ltmp519:
@ %bb.64:
	@DEBUG_VALUE: nwk_mgm_childs_register_proccess:error <- $r7
	@DEBUG_VALUE: nwk_mgm_childs_register_proccess:payload <- $r6
	@DEBUG_VALUE: nwk_mgm_childs_register_proccess:aMessageInfo <- $r5
	@DEBUG_VALUE: nwk_mgm_request_proccess:aMessageInfo <- $r5
	@DEBUG_VALUE: nwk_mgm_childs_register_proccess:buf <- $r4
	@DEBUG_VALUE: nwk_mgm_request_proccess:buf <- $r4
	@DEBUG_VALUE: nwk_mgm_childs_register_proccess:responseCode <- 67
	@DEBUG_VALUE: nwk_mgm_childs_register_proccess:ack_rloc <- 0
	@DEBUG_VALUE: nwk_mgm_request_proccess:aContext <- [DW_OP_LLVM_entry_value 1] $r0
	.loc	1 674 33                        @ ../das_subg_thread/network_management.c:674:33
	mov	r0, r10
	mov	r1, r9
	mov	r2, r5
	movs	r3, #0
	bl	otCoapSendResponseWithParameters
.Ltmp520:
	mov	r7, r0
.Ltmp521:
	@DEBUG_VALUE: nwk_mgm_childs_register_proccess:payload <- $r6
	@DEBUG_VALUE: nwk_mgm_childs_register_proccess:responseMessage <- $r9
	@DEBUG_VALUE: nwk_mgm_childs_register_proccess:error <- $r7
.LBB14_65:
	@DEBUG_VALUE: nwk_mgm_childs_register_proccess:error <- $r7
	@DEBUG_VALUE: nwk_mgm_childs_register_proccess:payload <- $r6
	@DEBUG_VALUE: nwk_mgm_childs_register_proccess:aMessageInfo <- $r5
	@DEBUG_VALUE: nwk_mgm_request_proccess:aMessageInfo <- $r5
	@DEBUG_VALUE: nwk_mgm_childs_register_proccess:buf <- $r4
	@DEBUG_VALUE: nwk_mgm_request_proccess:buf <- $r4
	@DEBUG_VALUE: nwk_mgm_childs_register_proccess:responseCode <- 67
	@DEBUG_VALUE: nwk_mgm_childs_register_proccess:ack_rloc <- 0
	@DEBUG_VALUE: nwk_mgm_request_proccess:aContext <- [DW_OP_LLVM_entry_value 1] $r0
	.loc	1 685 13                        @ ../das_subg_thread/network_management.c:685:13
	mov	r0, r6
	bl	vPortFree
.Ltmp522:
	.loc	1 0 13 is_stmt 0                @ ../das_subg_thread/network_management.c:0:13
	b	.LBB14_67
.Ltmp523:
.LBB14_66:
	@DEBUG_VALUE: nwk_mgm_childs_register_proccess:aMessageInfo <- $r5
	@DEBUG_VALUE: nwk_mgm_request_proccess:aMessageInfo <- $r5
	@DEBUG_VALUE: nwk_mgm_childs_register_proccess:buf <- $r4
	@DEBUG_VALUE: nwk_mgm_request_proccess:buf <- $r4
	@DEBUG_VALUE: nwk_mgm_childs_register_proccess:payload <- $r0
	@DEBUG_VALUE: nwk_mgm_childs_register_proccess:responseCode <- 67
	@DEBUG_VALUE: nwk_mgm_childs_register_proccess:ack_rloc <- 0
	@DEBUG_VALUE: nwk_mgm_request_proccess:aContext <- [DW_OP_LLVM_entry_value 1] $r0
	.loc	1 674 33 is_stmt 1              @ ../das_subg_thread/network_management.c:674:33
	mov	r0, r10
.Ltmp524:
	mov	r1, r9
	mov	r2, r5
	movs	r3, #0
	bl	otCoapSendResponseWithParameters
.Ltmp525:
	mov	r7, r0
.Ltmp526:
	@DEBUG_VALUE: nwk_mgm_childs_register_proccess:payload <- undef
	@DEBUG_VALUE: nwk_mgm_childs_register_proccess:responseMessage <- $r9
.LBB14_67:
	@DEBUG_VALUE: nwk_mgm_childs_register_proccess:aMessageInfo <- $r5
	@DEBUG_VALUE: nwk_mgm_request_proccess:aMessageInfo <- $r5
	@DEBUG_VALUE: nwk_mgm_childs_register_proccess:buf <- $r4
	@DEBUG_VALUE: nwk_mgm_request_proccess:buf <- $r4
	@DEBUG_VALUE: nwk_mgm_childs_register_proccess:responseCode <- 67
	@DEBUG_VALUE: nwk_mgm_childs_register_proccess:ack_rloc <- 0
	@DEBUG_VALUE: nwk_mgm_request_proccess:aContext <- [DW_OP_LLVM_entry_value 1] $r0
	.loc	1 687 36                        @ ../das_subg_thread/network_management.c:687:36
	cbz	r7, .LBB14_69
.Ltmp527:
.LBB14_68:
	@DEBUG_VALUE: nwk_mgm_childs_register_proccess:aMessageInfo <- $r5
	@DEBUG_VALUE: nwk_mgm_request_proccess:aMessageInfo <- $r5
	@DEBUG_VALUE: nwk_mgm_childs_register_proccess:buf <- $r4
	@DEBUG_VALUE: nwk_mgm_request_proccess:buf <- $r4
	@DEBUG_VALUE: nwk_mgm_childs_register_proccess:responseCode <- 67
	@DEBUG_VALUE: nwk_mgm_childs_register_proccess:ack_rloc <- 0
	@DEBUG_VALUE: nwk_mgm_request_proccess:aContext <- [DW_OP_LLVM_entry_value 1] $r0
	.loc	1 689 13                        @ ../das_subg_thread/network_management.c:689:13
	mov	r0, r9
	bl	otMessageFree
.Ltmp528:
	@DEBUG_VALUE: nwk_mgm_request_proccess:buf <- $r4
.LBB14_69:
	@DEBUG_VALUE: nwk_mgm_request_proccess:buf <- $r4
	@DEBUG_VALUE: nwk_mgm_request_proccess:aContext <- [DW_OP_LLVM_entry_value 1] $r0
	.loc	1 829 9                         @ ../das_subg_thread/network_management.c:829:9
	mov	r0, r4
	bl	vPortFree
.Ltmp529:
.LBB14_70:
	@DEBUG_VALUE: nwk_mgm_request_proccess:aContext <- [DW_OP_LLVM_entry_value 1] $r0
	.loc	1 831 1                         @ ../das_subg_thread/network_management.c:831:1
	add.w	sp, sp, #916
	pop.w	{r4, r5, r6, r7, r8, r9, r10, r11, pc}
.Ltmp530:
	.p2align	2
@ %bb.71:
	.loc	1 0 1 is_stmt 0                 @ ../das_subg_thread/network_management.c:0:1
.LCPI14_0:
.L.str.35:
	.asciz	"kick %04x \n\r\n\000\000"
.LCPI14_1:
.Lstr.44:
	.asciz	"isn't leader \n\r"
.LCPI14_2:
.L.str.28:
	.asciz	"self %04x,%04x, %02X%02X%02X%02X%02X%02X%02X%02X \n\r\n\000\000\000"
.LCPI14_3:
.Lstr.45:
	.asciz	"unexpected router add fail\n\r\000\000\000"
.LCPI14_4:
.L.str.31:
	.asciz	"rece %u \n\r\n"
.LCPI14_5:
.L.str.34:
	.asciz	"ack send %u \n\r\n"
.Lfunc_end14:
	.size	nwk_mgm_request_proccess, .Lfunc_end14-nwk_mgm_request_proccess
	.cfi_endproc
	.cantunwind
	.fnend
                                        @ -- End function
	.section	.text.nwk_mgm_timer_handler,"ax",%progbits
	.p2align	2                               @ -- Begin function nwk_mgm_timer_handler
	.type	nwk_mgm_timer_handler,%function
	.code	16                              @ @nwk_mgm_timer_handler
	.thumb_func
nwk_mgm_timer_handler:
.Lfunc_begin15:
	.loc	1 1170 0 is_stmt 1              @ ../das_subg_thread/network_management.c:1170:0
	.fnstart
	.cfi_startproc
@ %bb.0:
	@DEBUG_VALUE: nwk_mgm_timer_handler:xTimer <- $r0
	.save	{r4, r5, r6, r7, r8, r9, r10, r11, lr}
	push.w	{r4, r5, r6, r7, r8, r9, r10, r11, lr}
	.cfi_def_cfa_offset 36
	.cfi_offset lr, -4
	.cfi_offset r11, -8
	.cfi_offset r10, -12
	.cfi_offset r9, -16
	.cfi_offset r8, -20
	.cfi_offset r7, -24
	.cfi_offset r6, -28
	.cfi_offset r5, -32
	.cfi_offset r4, -36
	.pad	#68
	sub	sp, #68
	.cfi_def_cfa_offset 104
.Ltmp531:
	.loc	1 1171 10 prologue_end          @ ../das_subg_thread/network_management.c:1171:10
	movw	r0, :lower16:mgm_reg_send_timer
.Ltmp532:
	@DEBUG_VALUE: nwk_mgm_timer_handler:xTimer <- [DW_OP_LLVM_entry_value 1] $r0
	movt	r0, :upper16:mgm_reg_send_timer
	ldrh	r1, [r0]
	.loc	1 1171 33 is_stmt 0             @ ../das_subg_thread/network_management.c:1171:33
	cbz	r1, .LBB15_4
.Ltmp533:
@ %bb.1:
	@DEBUG_VALUE: nwk_mgm_timer_handler:xTimer <- [DW_OP_LLVM_entry_value 1] $r0
	.loc	1 1171 37                       @ ../das_subg_thread/network_management.c:1171:37
	subs	r1, #1
.Ltmp534:
	.loc	1 1171 9                        @ ../das_subg_thread/network_management.c:1171:9
	lsls	r2, r1, #16
.Ltmp535:
	.loc	1 1171 37                       @ ../das_subg_thread/network_management.c:1171:37
	strh	r1, [r0]
.Ltmp536:
	.loc	1 1171 9                        @ ../das_subg_thread/network_management.c:1171:9
	bne	.LBB15_4
.Ltmp537:
@ %bb.2:
	@DEBUG_VALUE: nwk_mgm_timer_handler:xTimer <- [DW_OP_LLVM_entry_value 1] $r0
	.loc	1 1108 28 is_stmt 1             @ ../das_subg_thread/network_management.c:1108:28
	bl	otrGetInstance
.Ltmp538:
	@DEBUG_VALUE: nwk_mgm_child_register_post_resend:instance <- $r0
	.loc	1 1109 9                        @ ../das_subg_thread/network_management.c:1109:9
	cbz	r0, .LBB15_4
.Ltmp539:
@ %bb.3:
	@DEBUG_VALUE: nwk_mgm_child_register_post_resend:instance <- $r0
	@DEBUG_VALUE: nwk_mgm_timer_handler:xTimer <- [DW_OP_LLVM_entry_value 1] $r0
	.loc	1 1111 30                       @ ../das_subg_thread/network_management.c:1111:30
	bl	otThreadGetDeviceRole
.Ltmp540:
	@DEBUG_VALUE: mRole <- $r0
	.loc	1 1113 13                       @ ../das_subg_thread/network_management.c:1113:13
	cmp	r0, #3
.Ltmp541:
	.loc	1 1115 13                       @ ../das_subg_thread/network_management.c:1115:13
	it	eq
	bleq	nwk_mgm_child_register_post
.Ltmp542:
.LBB15_4:
	@DEBUG_VALUE: nwk_mgm_timer_handler:xTimer <- [DW_OP_LLVM_entry_value 1] $r0
	.loc	1 1175 9                        @ ../das_subg_thread/network_management.c:1175:9
	movw	r9, :lower16:mgm_router_up_timer
	movt	r9, :upper16:mgm_router_up_timer
	ldrh.w	r0, [r9]
	movw	r10, :lower16:nwk_mgm_child_reg_table
	.loc	1 1175 33 is_stmt 0             @ ../das_subg_thread/network_management.c:1175:33
	cmp	r0, #0
	movt	r10, :upper16:nwk_mgm_child_reg_table
	beq	.LBB15_19
.Ltmp543:
@ %bb.5:
	@DEBUG_VALUE: nwk_mgm_timer_handler:xTimer <- [DW_OP_LLVM_entry_value 1] $r0
	.loc	1 1175 37                       @ ../das_subg_thread/network_management.c:1175:37
	subs	r0, #1
.Ltmp544:
	.loc	1 1175 9                        @ ../das_subg_thread/network_management.c:1175:9
	lsls	r1, r0, #16
.Ltmp545:
	.loc	1 1175 37                       @ ../das_subg_thread/network_management.c:1175:37
	strh.w	r0, [r9]
.Ltmp546:
	.loc	1 1175 9                        @ ../das_subg_thread/network_management.c:1175:9
	bne	.LBB15_19
.Ltmp547:
@ %bb.6:
	@DEBUG_VALUE: nwk_mgm_timer_handler:xTimer <- [DW_OP_LLVM_entry_value 1] $r0
	.loc	1 1123 28 is_stmt 1             @ ../das_subg_thread/network_management.c:1123:28
	bl	otrGetInstance
.Ltmp548:
	@DEBUG_VALUE: mgm_router_update_timer_handler:instance <- $r0
	.loc	1 1124 9                        @ ../das_subg_thread/network_management.c:1124:9
	cbz	r0, .LBB15_19
.Ltmp549:
@ %bb.7:
	@DEBUG_VALUE: mgm_router_update_timer_handler:instance <- $r0
	@DEBUG_VALUE: nwk_mgm_timer_handler:xTimer <- [DW_OP_LLVM_entry_value 1] $r0
	.loc	1 0 0 is_stmt 0                 @ ../das_subg_thread/network_management.c:0:0
	mov	r4, r0
.Ltmp550:
	@DEBUG_VALUE: mgm_router_update_timer_handler:instance <- $r4
	.loc	1 1126 30 is_stmt 1             @ ../das_subg_thread/network_management.c:1126:30
	bl	otThreadGetDeviceRole
.Ltmp551:
	@DEBUG_VALUE: mRole <- $r0
	.loc	1 1128 13                       @ ../das_subg_thread/network_management.c:1128:13
	cmp	r0, #4
	beq	.LBB15_12
.Ltmp552:
@ %bb.8:
	@DEBUG_VALUE: mgm_router_update_timer_handler:instance <- $r4
	@DEBUG_VALUE: mRole <- $r0
	@DEBUG_VALUE: nwk_mgm_timer_handler:xTimer <- [DW_OP_LLVM_entry_value 1] $r0
	cmp	r0, #3
	bne	.LBB15_10
.Ltmp553:
@ %bb.9:
	@DEBUG_VALUE: mgm_router_update_timer_handler:instance <- $r4
	@DEBUG_VALUE: mRole <- $r0
	@DEBUG_VALUE: nwk_mgm_timer_handler:xTimer <- [DW_OP_LLVM_entry_value 1] $r0
	.loc	1 1130 13                       @ ../das_subg_thread/network_management.c:1130:13
	bl	nwk_mgm_child_register_post
.Ltmp554:
.LBB15_10:
	@DEBUG_VALUE: mgm_router_update_timer_handler:instance <- $r4
	@DEBUG_VALUE: nwk_mgm_timer_handler:xTimer <- [DW_OP_LLVM_entry_value 1] $r0
	.loc	1 0 0 is_stmt 0                 @ ../das_subg_thread/network_management.c:0:0
	ldr.w	r0, [r10]
	cbz	r0, .LBB15_18
.Ltmp555:
@ %bb.11:
	@DEBUG_VALUE: mgm_router_update_timer_handler:instance <- $r4
	@DEBUG_VALUE: nwk_mgm_timer_handler:xTimer <- [DW_OP_LLVM_entry_value 1] $r0
	bl	vPortFree
.Ltmp556:
	movs	r0, #0
	str.w	r0, [r10]
	b	.LBB15_18
.Ltmp557:
.LBB15_12:
	@DEBUG_VALUE: mgm_router_update_timer_handler:instance <- $r4
	@DEBUG_VALUE: mRole <- $r0
	@DEBUG_VALUE: nwk_mgm_timer_handler:xTimer <- [DW_OP_LLVM_entry_value 1] $r0
	.loc	1 1140 36 is_stmt 1             @ ../das_subg_thread/network_management.c:1140:36
	mov	r0, r4
.Ltmp558:
	bl	otThreadGetMaxAllowedChildren
.Ltmp559:
	@DEBUG_VALUE: i <- 0
	@DEBUG_VALUE: childernmax <- $r0
	.loc	1 1142 13                       @ ../das_subg_thread/network_management.c:1142:13
	cbz	r0, .LBB15_18
.Ltmp560:
@ %bb.13:
	@DEBUG_VALUE: mgm_router_update_timer_handler:instance <- $r4
	@DEBUG_VALUE: childernmax <- $r0
	@DEBUG_VALUE: i <- 0
	@DEBUG_VALUE: nwk_mgm_timer_handler:xTimer <- [DW_OP_LLVM_entry_value 1] $r0
	.loc	1 0 13 is_stmt 0                @ ../das_subg_thread/network_management.c:0:13
	mov	r5, r0
.Ltmp561:
	@DEBUG_VALUE: childernmax <- $r5
	@DEBUG_VALUE: childernmax <- $r5
	movs	r6, #0
	add.w	r8, sp, #32
.Ltmp562:
	.p2align	2
.LBB15_14:                              @ =>This Inner Loop Header: Depth=1
	@DEBUG_VALUE: childernmax <- $r5
	@DEBUG_VALUE: mgm_router_update_timer_handler:instance <- $r4
	@DEBUG_VALUE: nwk_mgm_timer_handler:xTimer <- [DW_OP_LLVM_entry_value 1] $r0
	@DEBUG_VALUE: i <- $r6
	.loc	1 1144 22 is_stmt 1             @ ../das_subg_thread/network_management.c:1144:22
	uxth	r1, r6
	mov	r0, r4
	mov	r2, r8
	bl	otThreadGetChildInfoByIndex
.Ltmp563:
	.loc	1 1144 93 is_stmt 0             @ ../das_subg_thread/network_management.c:1144:93
	cbnz	r0, .LBB15_17
.Ltmp564:
@ %bb.15:                               @   in Loop: Header=BB15_14 Depth=1
	@DEBUG_VALUE: i <- $r6
	@DEBUG_VALUE: childernmax <- $r5
	@DEBUG_VALUE: mgm_router_update_timer_handler:instance <- $r4
	@DEBUG_VALUE: nwk_mgm_timer_handler:xTimer <- [DW_OP_LLVM_entry_value 1] $r0
	.loc	1 1145 35 is_stmt 1             @ ../das_subg_thread/network_management.c:1145:35
	ldrb.w	r0, [sp, #65]
.Ltmp565:
	.loc	1 1144 21                       @ ../das_subg_thread/network_management.c:1144:21
	lsls	r0, r0, #28
	bmi	.LBB15_17
.Ltmp566:
@ %bb.16:                               @   in Loop: Header=BB15_14 Depth=1
	@DEBUG_VALUE: i <- $r6
	@DEBUG_VALUE: childernmax <- $r5
	@DEBUG_VALUE: mgm_router_update_timer_handler:instance <- $r4
	@DEBUG_VALUE: nwk_mgm_timer_handler:xTimer <- [DW_OP_LLVM_entry_value 1] $r0
	.loc	1 1151 45                       @ ../das_subg_thread/network_management.c:1151:45
	mov	r0, r4
	bl	otThreadGetRloc16
.Ltmp567:
	.loc	1 1152 55                       @ ../das_subg_thread/network_management.c:1152:55
	ldrh.w	r2, [sp, #48]
	.loc	1 1154 55                       @ ../das_subg_thread/network_management.c:1154:55
	ldrsb.w	r12, [sp, #54]
	.loc	1 1151 45                       @ ../das_subg_thread/network_management.c:1151:45
	mov	r1, r0
	.loc	1 1150 17                       @ ../das_subg_thread/network_management.c:1150:17
	movs	r0, #2
	mov	r3, r8
	str.w	r12, [sp]
	bl	nwk_mgm_child_reg_table_add
.Ltmp568:
	.p2align	2
.LBB15_17:                              @   in Loop: Header=BB15_14 Depth=1
	@DEBUG_VALUE: i <- $r6
	@DEBUG_VALUE: childernmax <- $r5
	@DEBUG_VALUE: mgm_router_update_timer_handler:instance <- $r4
	@DEBUG_VALUE: nwk_mgm_timer_handler:xTimer <- [DW_OP_LLVM_entry_value 1] $r0
	.loc	1 1142 52                       @ ../das_subg_thread/network_management.c:1142:52
	adds	r6, #1
.Ltmp569:
	@DEBUG_VALUE: i <- $r6
	uxth	r0, r6
.Ltmp570:
	.loc	1 1142 13 is_stmt 0             @ ../das_subg_thread/network_management.c:1142:13
	cmp	r0, r5
	blo	.LBB15_14
.Ltmp571:
.LBB15_18:
	@DEBUG_VALUE: mgm_router_update_timer_handler:instance <- $r4
	@DEBUG_VALUE: nwk_mgm_timer_handler:xTimer <- [DW_OP_LLVM_entry_value 1] $r0
	.loc	1 0 13                          @ ../das_subg_thread/network_management.c:0:13
	movs	r0, #101
.Ltmp572:
	@DEBUG_VALUE: nwk_mgm_router_update_timer_set:time <- 101
	.loc	1 134 25 is_stmt 1              @ ../das_subg_thread/network_management.c:134:25
	strh.w	r0, [r9]
.Ltmp573:
.LBB15_19:
	@DEBUG_VALUE: nwk_mgm_timer_handler:xTimer <- [DW_OP_LLVM_entry_value 1] $r0
	.loc	1 233 9                         @ ../das_subg_thread/network_management.c:233:9
	ldr.w	r0, [r10]
.Ltmp574:
	.loc	1 233 9 is_stmt 0               @ ../das_subg_thread/network_management.c:233:9
	cmp	r0, #0
	beq	.LBB15_29
.Ltmp575:
@ %bb.20:
	@DEBUG_VALUE: nwk_mgm_timer_handler:xTimer <- [DW_OP_LLVM_entry_value 1] $r0
	.loc	1 235 9 is_stmt 1               @ ../das_subg_thread/network_management.c:235:9
	bl	enter_critical_section
.Ltmp576:
	@DEBUG_VALUE: i <- 0
	.loc	1 238 17                        @ ../das_subg_thread/network_management.c:238:17
	ldr.w	r4, [r10]
	movw	r9, :lower16:nwk_mgm_debug_flags
	movs	r5, #0
	movt	r9, :upper16:nwk_mgm_debug_flags
.Ltmp577:
	.p2align	2
.LBB15_21:                              @ =>This Inner Loop Header: Depth=1
	@DEBUG_VALUE: nwk_mgm_timer_handler:xTimer <- [DW_OP_LLVM_entry_value 1] $r0
	@DEBUG_VALUE: i <- undef
	.loc	1 238 44 is_stmt 0              @ ../das_subg_thread/network_management.c:238:44
	ldrb	r0, [r4, r5]
.Ltmp578:
	.loc	1 238 17                        @ ../das_subg_thread/network_management.c:238:17
	cbz	r0, .LBB15_27
.Ltmp579:
@ %bb.22:                               @   in Loop: Header=BB15_21 Depth=1
	@DEBUG_VALUE: nwk_mgm_timer_handler:xTimer <- [DW_OP_LLVM_entry_value 1] $r0
	.loc	1 240 48 is_stmt 1              @ ../das_subg_thread/network_management.c:240:48
	adds	r0, r4, r5
	ldrh	r1, [r0, #16]
	.loc	1 240 62 is_stmt 0              @ ../das_subg_thread/network_management.c:240:62
	cbz	r1, .LBB15_27
.Ltmp580:
@ %bb.23:                               @   in Loop: Header=BB15_21 Depth=1
	@DEBUG_VALUE: nwk_mgm_timer_handler:xTimer <- [DW_OP_LLVM_entry_value 1] $r0
	.loc	1 240 65                        @ ../das_subg_thread/network_management.c:240:65
	subs	r1, #1
.Ltmp581:
	.loc	1 240 21                        @ ../das_subg_thread/network_management.c:240:21
	lsls	r2, r1, #16
.Ltmp582:
	.loc	1 240 65                        @ ../das_subg_thread/network_management.c:240:65
	strh	r1, [r0, #16]
.Ltmp583:
	.loc	1 240 21                        @ ../das_subg_thread/network_management.c:240:21
	bne	.LBB15_27
.Ltmp584:
@ %bb.24:                               @   in Loop: Header=BB15_21 Depth=1
	@DEBUG_VALUE: nwk_mgm_timer_handler:xTimer <- [DW_OP_LLVM_entry_value 1] $r0
	.loc	1 242 21 is_stmt 1              @ ../das_subg_thread/network_management.c:242:21
	ldr.w	r1, [r9]
.Ltmp585:
	.loc	1 242 21 is_stmt 0              @ ../das_subg_thread/network_management.c:242:21
	cbz	r1, .LBB15_26
.Ltmp586:
@ %bb.25:                               @   in Loop: Header=BB15_21 Depth=1
	@DEBUG_VALUE: nwk_mgm_timer_handler:xTimer <- [DW_OP_LLVM_entry_value 1] $r0
	.loc	1 242 21                        @ ../das_subg_thread/network_management.c:242:21
	ldrb	r0, [r0, #1]
	bl	otThreadDeviceRoleToString
.Ltmp587:
	ldr.w	r1, [r10]
	add	r1, r5
	ldrb	r6, [r1, #9]
	ldrh	r2, [r1, #4]
	ldrb	r3, [r1, #6]
	ldrb	r4, [r1, #7]
	ldrb	r7, [r1, #8]
	ldrb.w	r12, [r1, #10]
	ldrb.w	lr, [r1, #11]
	ldrb.w	r11, [r1, #12]
	ldrb.w	r8, [r1, #13]
	mov	r1, r0
	add	r0, sp, #8
	stm.w	r0, {r6, r12, lr}
	adr	r0, .LCPI15_0
	strd	r4, r7, [sp]
	str.w	r11, [sp, #20]
	str.w	r8, [sp, #24]
	bl	__2printf
.Ltmp588:
	.loc	1 253 29 is_stmt 1              @ ../das_subg_thread/network_management.c:253:29
	ldr.w	r4, [r10]
.Ltmp589:
.LBB15_26:                              @   in Loop: Header=BB15_21 Depth=1
	@DEBUG_VALUE: nwk_mgm_timer_handler:xTimer <- [DW_OP_LLVM_entry_value 1] $r0
	.loc	1 253 21 is_stmt 0              @ ../das_subg_thread/network_management.c:253:21
	adds	r0, r4, r5
	movs	r1, #18
	bl	__aeabi_memclr
.Ltmp590:
	.p2align	2
.LBB15_27:                              @   in Loop: Header=BB15_21 Depth=1
	@DEBUG_VALUE: nwk_mgm_timer_handler:xTimer <- [DW_OP_LLVM_entry_value 1] $r0
	@DEBUG_VALUE: i <- [DW_OP_plus_uconst 1, DW_OP_stack_value] undef
	.loc	1 236 32 is_stmt 1              @ ../das_subg_thread/network_management.c:236:32
	adds	r5, #18
.Ltmp591:
	.loc	1 236 9 is_stmt 0               @ ../das_subg_thread/network_management.c:236:9
	cmp.w	r5, #540
	bne	.LBB15_21
.Ltmp592:
@ %bb.28:
	@DEBUG_VALUE: nwk_mgm_timer_handler:xTimer <- [DW_OP_LLVM_entry_value 1] $r0
	.loc	1 257 9 is_stmt 1               @ ../das_subg_thread/network_management.c:257:9
	bl	leave_critical_section
.Ltmp593:
.LBB15_29:
	@DEBUG_VALUE: nwk_mgm_timer_handler:xTimer <- [DW_OP_LLVM_entry_value 1] $r0
	.loc	1 1182 5                        @ ../das_subg_thread/network_management.c:1182:5
	movw	r0, :lower16:nwk_mgm_timer
	movt	r0, :upper16:nwk_mgm_timer
	ldr	r4, [r0]
	bl	xTaskGetTickCount
.Ltmp594:
	mov	r2, r0
	movs	r7, #0
	mov	r0, r4
	movs	r1, #1
	movs	r3, #0
	str	r7, [sp]
	bl	xTimerGenericCommand
.Ltmp595:
	.loc	1 1183 1                        @ ../das_subg_thread/network_management.c:1183:1
	add	sp, #68
	pop.w	{r4, r5, r6, r7, r8, r9, r10, r11, pc}
.Ltmp596:
	.p2align	2
@ %bb.30:
	.loc	1 0 1 is_stmt 0                 @ ../das_subg_thread/network_management.c:0:1
.LCPI15_0:
.L.str.36:
	.asciz	"timeout %s %04X %02X%02X%02X%02X%02X%02X%02X%02X \n\r\n\000\000\000"
.Lfunc_end15:
	.size	nwk_mgm_timer_handler, .Lfunc_end15-nwk_mgm_timer_handler
	.cfi_endproc
	.cantunwind
	.fnend
                                        @ -- End function
	.section	.text.nwk_mgm_data_parse,"ax",%progbits
	.p2align	1                               @ -- Begin function nwk_mgm_data_parse
	.type	nwk_mgm_data_parse,%function
	.code	16                              @ @nwk_mgm_data_parse
	.thumb_func
nwk_mgm_data_parse:
.Lfunc_begin16:
	.loc	1 402 0 is_stmt 1               @ ../das_subg_thread/network_management.c:402:0
	.fnstart
	.cfi_startproc
@ %bb.0:
	@DEBUG_VALUE: nwk_mgm_data_parse:type <- $r0
	@DEBUG_VALUE: nwk_mgm_data_parse:payload <- $r1
	@DEBUG_VALUE: nwk_mgm_data_parse:payloadlength <- $r2
	@DEBUG_VALUE: nwk_mgm_data_parse:data <- $r3
	.save	{r4, r5, r6, r7, r8, lr}
	push.w	{r4, r5, r6, r7, r8, lr}
	.cfi_def_cfa_offset 24
	.cfi_offset lr, -4
	.cfi_offset r8, -8
	.cfi_offset r7, -12
	.cfi_offset r6, -16
	.cfi_offset r5, -20
	.cfi_offset r4, -24
.Ltmp597:
	@DEBUG_VALUE: nwk_mgm_data_parse:tmp <- $r1
	mov	r8, r2
.Ltmp598:
	@DEBUG_VALUE: nwk_mgm_data_parse:payloadlength <- $r8
	mov	r5, r0
.Ltmp599:
	@DEBUG_VALUE: nwk_mgm_data_parse:kick_child_data <- 0
	@DEBUG_VALUE: nwk_mgm_data_parse:child_reg_data_ack <- 0
	@DEBUG_VALUE: nwk_mgm_data_parse:child_reg_data <- 0
	@DEBUG_VALUE: nwk_mgm_data_parse:data <- $r3
	@DEBUG_VALUE: nwk_mgm_data_parse:payloadlength <- $r8
	@DEBUG_VALUE: nwk_mgm_data_parse:type <- $r5
	.loc	1 408 9 prologue_end            @ ../das_subg_thread/network_management.c:408:9
	cmp	r0, #1
	mov	r6, r1
.Ltmp600:
	@DEBUG_VALUE: nwk_mgm_data_parse:payload <- $r6
	@DEBUG_VALUE: nwk_mgm_data_parse:tmp <- $r6
	@DEBUG_VALUE: nwk_mgm_data_parse:payload <- $r6
	beq	.LBB16_4
.Ltmp601:
@ %bb.1:
	@DEBUG_VALUE: nwk_mgm_data_parse:payloadlength <- $r8
	@DEBUG_VALUE: nwk_mgm_data_parse:tmp <- $r6
	@DEBUG_VALUE: nwk_mgm_data_parse:payload <- $r6
	@DEBUG_VALUE: nwk_mgm_data_parse:type <- $r5
	@DEBUG_VALUE: nwk_mgm_data_parse:data <- $r3
	@DEBUG_VALUE: nwk_mgm_data_parse:child_reg_data <- 0
	@DEBUG_VALUE: nwk_mgm_data_parse:child_reg_data_ack <- 0
	@DEBUG_VALUE: nwk_mgm_data_parse:kick_child_data <- 0
	cbnz	r5, .LBB16_7
.Ltmp602:
@ %bb.2:
	@DEBUG_VALUE: nwk_mgm_data_parse:payloadlength <- $r8
	@DEBUG_VALUE: nwk_mgm_data_parse:tmp <- $r6
	@DEBUG_VALUE: nwk_mgm_data_parse:payload <- $r6
	@DEBUG_VALUE: nwk_mgm_data_parse:type <- $r5
	@DEBUG_VALUE: nwk_mgm_data_parse:data <- $r3
	@DEBUG_VALUE: nwk_mgm_data_parse:child_reg_data <- 0
	@DEBUG_VALUE: nwk_mgm_data_parse:child_reg_data_ack <- 0
	@DEBUG_VALUE: nwk_mgm_data_parse:kick_child_data <- 0
	@DEBUG_VALUE: nwk_mgm_data_parse:tmp <- [DW_OP_plus_uconst 1, DW_OP_stack_value] $r6
	@DEBUG_VALUE: nwk_mgm_data_parse:child_reg_data <- $r3
	.loc	1 411 37                        @ ../das_subg_thread/network_management.c:411:37
	ldrb	r0, [r6]
	.loc	1 419 13                        @ ../das_subg_thread/network_management.c:419:13
	add.w	r7, r6, #15
.Ltmp603:
	@DEBUG_VALUE: nwk_mgm_data_parse:tmp <- $r7
	.loc	1 411 35                        @ ../das_subg_thread/network_management.c:411:35
	strb	r0, [r3]
	.loc	1 412 9                         @ ../das_subg_thread/network_management.c:412:9
	ldrh.w	r0, [r6, #1]
	strh	r0, [r3, #2]
.Ltmp604:
	@DEBUG_VALUE: nwk_mgm_data_parse:tmp <- [DW_OP_plus_uconst 3, DW_OP_stack_value] $r6
	.loc	1 414 9                         @ ../das_subg_thread/network_management.c:414:9
	ldrh.w	r0, [r6, #3]
	strh	r0, [r3, #4]
.Ltmp605:
	@DEBUG_VALUE: nwk_mgm_data_parse:tmp <- [DW_OP_plus_uconst 5, DW_OP_stack_value] $r6
	.loc	1 416 9                         @ ../das_subg_thread/network_management.c:416:9
	ldr.w	r0, [r6, #9]
	ldr.w	r1, [r6, #5]
	str.w	r0, [r3, #10]
	str.w	r1, [r3, #6]
.Ltmp606:
	@DEBUG_VALUE: nwk_mgm_data_parse:tmp <- [DW_OP_plus_uconst 13, DW_OP_stack_value] $r6
	.loc	1 418 9                         @ ../das_subg_thread/network_management.c:418:9
	ldrh.w	r1, [r6, #13]
	strh	r1, [r3, #14]
	.loc	1 420 13                        @ ../das_subg_thread/network_management.c:420:13
	cbz	r1, .LBB16_8
.Ltmp607:
@ %bb.3:
	@DEBUG_VALUE: nwk_mgm_data_parse:payloadlength <- $r8
	@DEBUG_VALUE: nwk_mgm_data_parse:tmp <- [DW_OP_plus_uconst 13, DW_OP_stack_value] $r6
	@DEBUG_VALUE: nwk_mgm_data_parse:payload <- $r6
	@DEBUG_VALUE: nwk_mgm_data_parse:type <- $r5
	@DEBUG_VALUE: nwk_mgm_data_parse:child_reg_data <- $r3
	@DEBUG_VALUE: nwk_mgm_data_parse:data <- $r3
	@DEBUG_VALUE: nwk_mgm_data_parse:child_reg_data_ack <- 0
	@DEBUG_VALUE: nwk_mgm_data_parse:kick_child_data <- 0
	@DEBUG_VALUE: nwk_mgm_data_parse:child_reg_data <- $r3
	.loc	1 422 37                        @ ../das_subg_thread/network_management.c:422:37
	add.w	r0, r3, #16
	b	.LBB16_6
.Ltmp608:
.LBB16_4:
	@DEBUG_VALUE: nwk_mgm_data_parse:payloadlength <- $r8
	@DEBUG_VALUE: nwk_mgm_data_parse:tmp <- $r6
	@DEBUG_VALUE: nwk_mgm_data_parse:payload <- $r6
	@DEBUG_VALUE: nwk_mgm_data_parse:type <- $r5
	@DEBUG_VALUE: nwk_mgm_data_parse:data <- $r3
	@DEBUG_VALUE: nwk_mgm_data_parse:child_reg_data <- 0
	@DEBUG_VALUE: nwk_mgm_data_parse:child_reg_data_ack <- 0
	@DEBUG_VALUE: nwk_mgm_data_parse:kick_child_data <- 0
	@DEBUG_VALUE: nwk_mgm_data_parse:tmp <- [DW_OP_plus_uconst 1, DW_OP_stack_value] $r6
	@DEBUG_VALUE: nwk_mgm_data_parse:child_reg_data_ack <- $r3
	.loc	1 429 41                        @ ../das_subg_thread/network_management.c:429:41
	ldrb	r0, [r6]
	.loc	1 432 13                        @ ../das_subg_thread/network_management.c:432:13
	adds	r7, r6, #4
.Ltmp609:
	@DEBUG_VALUE: nwk_mgm_data_parse:tmp <- $r7
	.loc	1 429 39                        @ ../das_subg_thread/network_management.c:429:39
	strb	r0, [r3]
.Ltmp610:
	@DEBUG_VALUE: nwk_mgm_data_parse:tmp <- [DW_OP_plus_uconst 2, DW_OP_stack_value] $r6
	.loc	1 430 37                        @ ../das_subg_thread/network_management.c:430:37
	ldrb	r0, [r6, #1]
	.loc	1 430 35 is_stmt 0              @ ../das_subg_thread/network_management.c:430:35
	strb	r0, [r3, #1]
	.loc	1 431 9 is_stmt 1               @ ../das_subg_thread/network_management.c:431:9
	ldrh	r1, [r6, #2]
	strh	r1, [r3, #2]
	.loc	1 433 13                        @ ../das_subg_thread/network_management.c:433:13
	cbz	r1, .LBB16_8
.Ltmp611:
@ %bb.5:
	@DEBUG_VALUE: nwk_mgm_data_parse:payloadlength <- $r8
	@DEBUG_VALUE: nwk_mgm_data_parse:tmp <- [DW_OP_plus_uconst 2, DW_OP_stack_value] $r6
	@DEBUG_VALUE: nwk_mgm_data_parse:payload <- $r6
	@DEBUG_VALUE: nwk_mgm_data_parse:type <- $r5
	@DEBUG_VALUE: nwk_mgm_data_parse:child_reg_data_ack <- $r3
	@DEBUG_VALUE: nwk_mgm_data_parse:data <- $r3
	@DEBUG_VALUE: nwk_mgm_data_parse:child_reg_data <- 0
	@DEBUG_VALUE: nwk_mgm_data_parse:kick_child_data <- 0
	@DEBUG_VALUE: nwk_mgm_data_parse:child_reg_data_ack <- $r3
	.loc	1 435 41                        @ ../das_subg_thread/network_management.c:435:41
	adds	r0, r3, #4
.Ltmp612:
.LBB16_6:
	@DEBUG_VALUE: nwk_mgm_data_parse:payloadlength <- $r8
	@DEBUG_VALUE: nwk_mgm_data_parse:payload <- $r6
	@DEBUG_VALUE: nwk_mgm_data_parse:type <- $r5
	@DEBUG_VALUE: nwk_mgm_data_parse:data <- $r3
	@DEBUG_VALUE: nwk_mgm_data_parse:kick_child_data <- 0
	.loc	1 0 0 is_stmt 0                 @ ../das_subg_thread/network_management.c:0:0
	add.w	r4, r1, r1, lsl #1
	lsls	r2, r4, #2
	mov	r1, r7
	bl	__aeabi_memcpy
.Ltmp613:
	@DEBUG_VALUE: nwk_mgm_data_parse:data <- [DW_OP_LLVM_entry_value 1] $r3
	add.w	r7, r7, r4, lsl #2
.Ltmp614:
	@DEBUG_VALUE: nwk_mgm_data_parse:tmp <- $r7
	b	.LBB16_8
.Ltmp615:
.LBB16_7:
	@DEBUG_VALUE: nwk_mgm_data_parse:payloadlength <- $r8
	@DEBUG_VALUE: nwk_mgm_data_parse:tmp <- $r6
	@DEBUG_VALUE: nwk_mgm_data_parse:payload <- $r6
	@DEBUG_VALUE: nwk_mgm_data_parse:type <- $r5
	@DEBUG_VALUE: nwk_mgm_data_parse:data <- $r3
	@DEBUG_VALUE: nwk_mgm_data_parse:child_reg_data <- 0
	@DEBUG_VALUE: nwk_mgm_data_parse:child_reg_data_ack <- 0
	@DEBUG_VALUE: nwk_mgm_data_parse:kick_child_data <- 0
	@DEBUG_VALUE: nwk_mgm_data_parse:tmp <- [DW_OP_plus_uconst 1, DW_OP_stack_value] $r6
	@DEBUG_VALUE: nwk_mgm_data_parse:kick_child_data <- $r3
	.loc	1 442 38 is_stmt 1              @ ../das_subg_thread/network_management.c:442:38
	ldrb	r0, [r6]
	.loc	1 446 13                        @ ../das_subg_thread/network_management.c:446:13
	adds	r7, r6, #5
.Ltmp616:
	@DEBUG_VALUE: nwk_mgm_data_parse:tmp <- $r7
	.loc	1 442 36                        @ ../das_subg_thread/network_management.c:442:36
	strb	r0, [r3]
	.loc	1 443 9                         @ ../das_subg_thread/network_management.c:443:9
	ldrh.w	r0, [r6, #1]
	strh	r0, [r3, #2]
.Ltmp617:
	@DEBUG_VALUE: nwk_mgm_data_parse:tmp <- [DW_OP_plus_uconst 3, DW_OP_stack_value] $r6
	.loc	1 445 9                         @ ../das_subg_thread/network_management.c:445:9
	ldrh.w	r0, [r6, #3]
	strh	r0, [r3, #4]
.Ltmp618:
.LBB16_8:
	@DEBUG_VALUE: nwk_mgm_data_parse:payloadlength <- $r8
	@DEBUG_VALUE: nwk_mgm_data_parse:payload <- $r6
	@DEBUG_VALUE: nwk_mgm_data_parse:type <- $r5
	@DEBUG_VALUE: nwk_mgm_data_parse:payloadlength <- $r8
	@DEBUG_VALUE: nwk_mgm_data_parse:tmp <- $r7
	.loc	1 452 14                        @ ../das_subg_thread/network_management.c:452:14
	subs	r2, r7, r6
.Ltmp619:
	.loc	1 452 9 is_stmt 0               @ ../das_subg_thread/network_management.c:452:9
	cmp	r2, r8
	itt	eq
	moveq	r0, #0
	.loc	1 458 1 is_stmt 1               @ ../das_subg_thread/network_management.c:458:1
	popeq.w	{r4, r5, r6, r7, r8, pc}
.Ltmp620:
.LBB16_9:
	@DEBUG_VALUE: nwk_mgm_data_parse:payloadlength <- $r8
	.loc	1 454 9                         @ ../das_subg_thread/network_management.c:454:9
	movw	r0, :lower16:nwk_mgm_debug_flags
	movt	r0, :upper16:nwk_mgm_debug_flags
	ldr	r0, [r0]
.Ltmp621:
	.loc	1 454 9 is_stmt 0               @ ../das_subg_thread/network_management.c:454:9
	cbz	r0, .LBB16_11
.Ltmp622:
@ %bb.10:
	@DEBUG_VALUE: nwk_mgm_data_parse:payloadlength <- $r8
	@DEBUG_VALUE: nwk_mgm_data_parse:payloadlength <- $r8
	.loc	1 454 9                         @ ../das_subg_thread/network_management.c:454:9
	movw	r0, :lower16:.L.str.21
	movt	r0, :upper16:.L.str.21
	mov	r1, r5
	mov	r3, r8
	bl	__2printf
.Ltmp623:
.LBB16_11:
	@DEBUG_VALUE: nwk_mgm_data_parse:payloadlength <- $r8
	.loc	1 0 9                           @ ../das_subg_thread/network_management.c:0:9
	movs	r0, #1
	.loc	1 458 1 is_stmt 1               @ ../das_subg_thread/network_management.c:458:1
	pop.w	{r4, r5, r6, r7, r8, pc}
.Ltmp624:
.Lfunc_end16:
	.size	nwk_mgm_data_parse, .Lfunc_end16-nwk_mgm_data_parse
	.cfi_endproc
	.cantunwind
	.fnend
                                        @ -- End function
	.section	.text.nwk_mgm_reset,"ax",%progbits
	.p2align	1                               @ -- Begin function nwk_mgm_reset
	.type	nwk_mgm_reset,%function
	.code	16                              @ @nwk_mgm_reset
	.thumb_func
nwk_mgm_reset:
.Lfunc_begin17:
	.loc	1 379 0                         @ ../das_subg_thread/network_management.c:379:0
	.fnstart
	.cfi_startproc
@ %bb.0:
	.save	{r4, r5, r7, lr}
	push	{r4, r5, r7, lr}
	.cfi_def_cfa_offset 16
	.cfi_offset lr, -4
	.cfi_offset r7, -8
	.cfi_offset r5, -12
	.cfi_offset r4, -16
	.pad	#120
	sub	sp, #120
	.cfi_def_cfa_offset 136
.Ltmp625:
	.loc	1 380 28 prologue_end           @ ../das_subg_thread/network_management.c:380:28
	bl	otrGetInstance
.Ltmp626:
	@DEBUG_VALUE: nwk_mgm_reset:instance <- $r0
	.loc	1 381 9                         @ ../das_subg_thread/network_management.c:381:9
	cbz	r0, .LBB17_8
.Ltmp627:
@ %bb.1:
	@DEBUG_VALUE: nwk_mgm_reset:instance <- $r0
	.loc	1 0 0 is_stmt 0                 @ ../das_subg_thread/network_management.c:0:0
	mov	r4, r0
.Ltmp628:
	@DEBUG_VALUE: nwk_mgm_reset:instance <- $r4
	.loc	1 383 30 is_stmt 1              @ ../das_subg_thread/network_management.c:383:30
	bl	otThreadGetDeviceRole
.Ltmp629:
	@DEBUG_VALUE: mRole <- $r0
	.loc	1 384 44                        @ ../das_subg_thread/network_management.c:384:44
	bic	r0, r0, #1
.Ltmp630:
	cmp	r0, #2
	bne	.LBB17_8
.Ltmp631:
@ %bb.2:
	@DEBUG_VALUE: nwk_mgm_reset:instance <- $r4
	.loc	1 0 44 is_stmt 0                @ ../das_subg_thread/network_management.c:0:44
	mov	r5, sp
.Ltmp632:
	.loc	1 391 47 is_stmt 1              @ ../das_subg_thread/network_management.c:391:47
	mov	r0, r5
	movs	r1, #120
	bl	__aeabi_memclr8
.Ltmp633:
	.loc	1 393 13                        @ ../das_subg_thread/network_management.c:393:13
	mov	r0, r4
	mov	r1, r5
	bl	otDatasetSetActive
.Ltmp634:
	.loc	1 393 13 is_stmt 0              @ ../das_subg_thread/network_management.c:393:13
	cbz	r0, .LBB17_5
.Ltmp635:
@ %bb.3:
	@DEBUG_VALUE: nwk_mgm_reset:instance <- $r4
	.loc	1 393 13                        @ ../das_subg_thread/network_management.c:393:13
	movw	r0, :lower16:.L.str.22
	movt	r0, :upper16:.L.str.22
	movw	r1, #393
	bl	otPlatAssertFail
.Ltmp636:
	.p2align	2
.LBB17_4:                               @ =>This Inner Loop Header: Depth=1
	@DEBUG_VALUE: nwk_mgm_reset:instance <- $r4
	b	.LBB17_4
.Ltmp637:
.LBB17_5:
	@DEBUG_VALUE: nwk_mgm_reset:instance <- $r4
	.loc	1 396 13 is_stmt 1              @ ../das_subg_thread/network_management.c:396:13
	mov	r0, r4
	bl	otThreadBecomeDetached
.Ltmp638:
	.loc	1 396 13 is_stmt 0              @ ../das_subg_thread/network_management.c:396:13
	cbz	r0, .LBB17_8
.Ltmp639:
@ %bb.6:
	@DEBUG_VALUE: nwk_mgm_reset:instance <- $r4
	.loc	1 396 13                        @ ../das_subg_thread/network_management.c:396:13
	movw	r0, :lower16:.L.str.22
	movt	r0, :upper16:.L.str.22
	mov.w	r1, #396
	bl	otPlatAssertFail
.Ltmp640:
	.p2align	2
.LBB17_7:                               @ =>This Inner Loop Header: Depth=1
	@DEBUG_VALUE: nwk_mgm_reset:instance <- $r4
	b	.LBB17_7
.Ltmp641:
.LBB17_8:
	.loc	1 399 1 is_stmt 1               @ ../das_subg_thread/network_management.c:399:1
	add	sp, #120
	pop	{r4, r5, r7, pc}
.Ltmp642:
.Lfunc_end17:
	.size	nwk_mgm_reset, .Lfunc_end17-nwk_mgm_reset
	.cfi_endproc
	.cantunwind
	.fnend
                                        @ -- End function
	.hidden	nwk_mgm_debug_flags             @ @nwk_mgm_debug_flags
	.type	nwk_mgm_debug_flags,%object
	.section	.bss.nwk_mgm_debug_flags,"aw",%nobits
	.globl	nwk_mgm_debug_flags
	.p2align	2
nwk_mgm_debug_flags:
	.long	0                               @ 0x0
	.size	nwk_mgm_debug_flags, 4

	.type	mgm_reg_send_timer,%object      @ @mgm_reg_send_timer
	.section	.bss.mgm_reg_send_timer,"aw",%nobits
	.p2align	1
mgm_reg_send_timer:
	.short	0                               @ 0x0
	.size	mgm_reg_send_timer, 2

	.type	mgm_router_up_timer,%object     @ @mgm_router_up_timer
	.section	.bss.mgm_router_up_timer,"aw",%nobits
	.p2align	1
mgm_router_up_timer:
	.short	0                               @ 0x0
	.size	mgm_router_up_timer, 2

	.type	nwk_mgm_child_reg_table,%object @ @nwk_mgm_child_reg_table
	.section	.bss.nwk_mgm_child_reg_table,"aw",%nobits
	.p2align	2
nwk_mgm_child_reg_table:
	.long	0
	.size	nwk_mgm_child_reg_table, 4

	.type	reg_table_is_full,%object       @ @reg_table_is_full
	.section	.bss.reg_table_is_full,"aw",%nobits
reg_table_is_full:
	.byte	0                               @ 0x0
	.size	reg_table_is_full, 1

	.type	.L.str.4,%object                @ @.str.4
	.section	.rodata.str1.1,"aMS",%progbits,1
.L.str.4:
	.asciz	"[%u] %s %04X %04X %02X%02X%02X%02X%02X%02X%02X%02X %d %u\n\r\n"
	.size	.L.str.4, 60

	.type	.L.str.7,%object                @ @.str.7
.L.str.7:
	.asciz	"nwk"
	.size	.L.str.7, 4

	.hidden	nwk_mgm_resource                @ @nwk_mgm_resource
	.type	nwk_mgm_resource,%object
	.section	.bss.nwk_mgm_resource,"aw",%nobits
	.globl	nwk_mgm_resource
	.p2align	2
nwk_mgm_resource:
	.zero	16
	.size	nwk_mgm_resource, 16

	.type	nwk_mgm_timer,%object           @ @nwk_mgm_timer
	.section	.bss.nwk_mgm_timer,"aw",%nobits
	.p2align	2
nwk_mgm_timer:
	.long	0
	.size	nwk_mgm_timer, 4

	.type	.L.str.21,%object               @ @.str.21
	.section	.rodata.str1.1,"aMS",%progbits,1
.L.str.21:
	.asciz	"parse fail %u (%u/%u)\n\r\n"
	.size	.L.str.21, 25

	.type	.L.str.22,%object               @ @.str.22
.L.str.22:
	.asciz	"../das_subg_thread/network_management.c"
	.size	.L.str.22, 40

	.type	.L.str.30,%object               @ @.str.30
.L.str.30:
	.asciz	"data rm %04x %04x %02X%02X%02X%02X%02X%02X%02X%02X\n\r\n"
	.size	.L.str.30, 54

	.type	.L.str.32,%object               @ @.str.32
.L.str.32:
	.asciz	"child %04x,%04x, %02X%02X%02X%02X%02X%02X%02X%02X, %d \n\r\n"
	.size	.L.str.32, 58

	.type	.Lstr.37,%object                @ @str.37
.Lstr.37:
	.asciz	"=============================================== \n\r"
	.size	.Lstr.37, 51

	.type	.Lstr.46,%object                @ @str.46
.Lstr.46:
	.asciz	"black add fill \n\r"
	.size	.Lstr.46, 18

	.globl	_printf_percent
	.globl	_printf_flags
	.globl	_printf_widthprec
	.globl	_printf_pre_padding
	.globl	_printf_s
	.globl	_printf_x
	.globl	_printf_d
	.globl	_printf_u
	.globl	_printf_int_dec
	.globl	_printf_longlong_hex
	.globl	_printf_str
	.hidden	_printf_percent
	.hidden	_printf_flags
	.hidden	_printf_widthprec
	.hidden	_printf_pre_padding
	.hidden	_printf_s
	.hidden	_printf_x
	.hidden	_printf_d
	.hidden	_printf_u
	.hidden	_printf_int_dec
	.hidden	_printf_longlong_hex
	.hidden	_printf_str
	.file	14 "D:\\20240115\\rafael-iot-sdk-das\\examples\\das_subg_thread\\keil" "../../../components/network/thread/subg_openthread/include\\openthread/dataset.h"
	.section	".note.GNU-stack","",%progbits
	.eabi_attribute	30, 3	@ Tag_ABI_optimization_goals
	.ARM_attribute	16, 1	@ Tag_AV_eba