	.text
	.syntax unified
	.eabi_attribute	67, "2.09"	@ Tag_conformance
	.cpu	cortex-m3
	.eabi_attribute	6, 10	@ Tag_CPU_arch
	.eabi_attribute	7, 77	@ Tag_CPU_arch_profile
	.eabi_attribute	8, 0	@ Tag_ARM_ISA_use
	.eabi_attribute	9, 2	@ Tag_THUMB_ISA_use
	.eabi_attribute	34, 1	@ Tag_CPU_unaligned_access
	.eabi_attribute	17, 1	@ Tag_ABI_PCS_GOT_use
	.eabi_attribute	20, 2	@ Tag_ABI_FP_denormal
	.eabi_attribute	21, 0	@ Tag_ABI_FP_exceptions
	.eabi_attribute	23, 1	@ Tag_ABI_FP_number_model
	.eabi_attribute	24, 1	@ Tag_ABI_align_needed
	.eabi_attribute	25, 1	@ Tag_ABI_align_preserved
	.eabi_attribute	38, 1	@ Tag_ABI_FP_16bit_format
	.eabi_attribute	18, 4	@ Tag_ABI_PCS_wchar_t
	.eabi_attribute	26, 2	@ Tag_ABI_enum_size
	.eabi_attribute	14, 0	@ Tag_ABI_PCS_R9_use
	.file	"oid.c"
	.file	1 "D:\\Rafael-IoT-SDK-Internal-main\\examples\\das_subg_thread\\keil" "../../../components/network/thread/subg_openthread/third_party/mbedtls/repo/include\\mbedtls/oid.h"
	.file	2 "C:\\Keil_v5\\ARM\\ARMCLANG\\Bin\\..\\include" "stdio.h"
	.file	3 "D:\\Rafael-IoT-SDK-Internal-main\\examples\\das_subg_thread\\keil" "../../../components/network/thread/subg_openthread/third_party/mbedtls/repo/library/oid.c"
	.file	4 "D:\\Rafael-IoT-SDK-Internal-main\\examples\\das_subg_thread\\keil" "../../../components/network/thread/subg_openthread/third_party/mbedtls/repo/include\\mbedtls/md.h"
	.file	5 "D:\\Rafael-IoT-SDK-Internal-main\\examples\\das_subg_thread\\keil" "../../../components/network/thread/subg_openthread/third_party/mbedtls/repo/include\\mbedtls/pk.h"
	.file	6 "D:\\Rafael-IoT-SDK-Internal-main\\examples\\das_subg_thread\\keil" "../../../components/network/thread/subg_openthread/third_party/mbedtls/repo/include\\mbedtls/ecp.h"
	.file	7 "D:\\Rafael-IoT-SDK-Internal-main\\examples\\das_subg_thread\\keil" "../../../components/network/thread/subg_openthread/third_party/mbedtls/repo/include\\mbedtls/cipher.h"
	.section	.text.mbedtls_oid_get_attr_short_name,"ax",%progbits
	.hidden	mbedtls_oid_get_attr_short_name @ -- Begin function mbedtls_oid_get_attr_short_name
	.globl	mbedtls_oid_get_attr_short_name
	.p2align	1
	.type	mbedtls_oid_get_attr_short_name,%function
	.code	16                              @ @mbedtls_oid_get_attr_short_name
	.thumb_func
mbedtls_oid_get_attr_short_name:
.Lfunc_begin0:
	.loc	3 242 0                         @ ../../../components/network/thread/subg_openthread/third_party/mbedtls/repo/library/oid.c:242:0
	.fnstart
	.cfi_sections .debug_frame
	.cfi_startproc
@ %bb.0:
	@DEBUG_VALUE: mbedtls_oid_get_attr_short_name:oid <- $r0
	@DEBUG_VALUE: mbedtls_oid_get_attr_short_name:short_name <- $r1
	@DEBUG_VALUE: oid_x520_attr_from_asn1:oid <- $r0
	@DEBUG_VALUE: oid_x520_attr_from_asn1:oid <- $r0
	@DEBUG_VALUE: mbedtls_oid_get_attr_short_name:oid <- $r0
	.save	{r4, r5, r6, r7, lr}
	push	{r4, r5, r6, r7, lr}
	.cfi_def_cfa_offset 20
	.cfi_offset lr, -4
	.cfi_offset r7, -8
	.cfi_offset r6, -12
	.cfi_offset r5, -16
	.cfi_offset r4, -20
	.pad	#4
	sub	sp, #4
	.cfi_def_cfa_offset 24
.Ltmp0:
	@DEBUG_VALUE: oid_x520_attr_from_asn1:cur <- undef
	@DEBUG_VALUE: mbedtls_oid_get_attr_short_name:short_name <- $r1
	.loc	3 241 1 prologue_end            @ ../../../components/network/thread/subg_openthread/third_party/mbedtls/repo/library/oid.c:241:1
	cbz	r0, .LBB0_5
.Ltmp1:
@ %bb.1:
	@DEBUG_VALUE: mbedtls_oid_get_attr_short_name:short_name <- $r1
	@DEBUG_VALUE: oid_x520_attr_from_asn1:oid <- $r0
	@DEBUG_VALUE: mbedtls_oid_get_attr_short_name:oid <- $r0
	.loc	3 0 1 is_stmt 0                 @ ../../../components/network/thread/subg_openthread/third_party/mbedtls/repo/library/oid.c:0:1
	mov	r5, r0
.Ltmp2:
	@DEBUG_VALUE: mbedtls_oid_get_attr_short_name:oid <- $r5
	@DEBUG_VALUE: mbedtls_oid_get_attr_short_name:oid <- $r5
	@DEBUG_VALUE: oid_x520_attr_from_asn1:oid <- $r5
	movw	r0, :lower16:oid_x520_attr_type
	movt	r0, :upper16:oid_x520_attr_type
	add.w	r7, r0, #16
	ldr	r6, [r5, #4]
	movw	r0, :lower16:.L.str.2
	mov	r4, r1
.Ltmp3:
	@DEBUG_VALUE: mbedtls_oid_get_attr_short_name:short_name <- $r4
	@DEBUG_VALUE: mbedtls_oid_get_attr_short_name:short_name <- $r4
	movt	r0, :upper16:.L.str.2
.Ltmp4:
	@DEBUG_VALUE: oid_x520_attr_from_asn1:cur <- undef
	.p2align	2
.LBB0_2:                                @ =>This Inner Loop Header: Depth=1
	@DEBUG_VALUE: oid_x520_attr_from_asn1:oid <- $r5
	@DEBUG_VALUE: mbedtls_oid_get_attr_short_name:oid <- $r5
	@DEBUG_VALUE: mbedtls_oid_get_attr_short_name:short_name <- $r4
	@DEBUG_VALUE: oid_x520_attr_from_asn1:cur <- undef
	@DEBUG_VALUE: oid_x520_attr_from_asn1:p <- undef
	.loc	3 241 1                         @ ../../../components/network/thread/subg_openthread/third_party/mbedtls/repo/library/oid.c:241:1
	ldr	r1, [r7, #-12]
	cmp	r1, r6
	bne	.LBB0_4
.Ltmp5:
@ %bb.3:                                @   in Loop: Header=BB0_2 Depth=1
	@DEBUG_VALUE: oid_x520_attr_from_asn1:oid <- $r5
	@DEBUG_VALUE: mbedtls_oid_get_attr_short_name:oid <- $r5
	@DEBUG_VALUE: mbedtls_oid_get_attr_short_name:short_name <- $r4
	@DEBUG_VALUE: oid_x520_attr_from_asn1:p <- undef
	ldr	r1, [r5, #8]
	mov	r2, r6
	bl	memcmp
.Ltmp6:
	.loc	3 241 1                         @ ../../../components/network/thread/subg_openthread/third_party/mbedtls/repo/library/oid.c:241:1
	cbz	r0, .LBB0_6
.Ltmp7:
.LBB0_4:                                @   in Loop: Header=BB0_2 Depth=1
	@DEBUG_VALUE: oid_x520_attr_from_asn1:oid <- $r5
	@DEBUG_VALUE: mbedtls_oid_get_attr_short_name:oid <- $r5
	@DEBUG_VALUE: mbedtls_oid_get_attr_short_name:short_name <- $r4
	@DEBUG_VALUE: oid_x520_attr_from_asn1:cur <- [DW_OP_plus_uconst 20, DW_OP_stack_value] undef
	@DEBUG_VALUE: oid_x520_attr_from_asn1:p <- [DW_OP_plus_uconst 20, DW_OP_stack_value] undef
	.loc	3 241 1                         @ ../../../components/network/thread/subg_openthread/third_party/mbedtls/repo/library/oid.c:241:1
	ldr	r0, [r7, #4]
	adds	r7, #20
	cmp	r0, #0
	bne	.LBB0_2
.Ltmp8:
.LBB0_5:
	.loc	3 0 1                           @ ../../../components/network/thread/subg_openthread/third_party/mbedtls/repo/library/oid.c:0:1
	mvn	r0, #45
	b	.LBB0_7
.LBB0_6:
.Ltmp9:
	@DEBUG_VALUE: mbedtls_oid_get_attr_short_name:oid <- $r5
	@DEBUG_VALUE: mbedtls_oid_get_attr_short_name:short_name <- $r4
	@DEBUG_VALUE: mbedtls_oid_get_attr_short_name:data <- undef
	.loc	3 242 1 is_stmt 1               @ ../../../components/network/thread/subg_openthread/third_party/mbedtls/repo/library/oid.c:242:1
	ldr	r0, [r7]
	str	r0, [r4]
	movs	r0, #0
.Ltmp10:
.LBB0_7:
	add	sp, #4
	pop	{r4, r5, r6, r7, pc}
.Ltmp11:
.Lfunc_end0:
	.size	mbedtls_oid_get_attr_short_name, .Lfunc_end0-mbedtls_oid_get_attr_short_name
	.cfi_endproc
	.file	8 "D:\\Rafael-IoT-SDK-Internal-main\\examples\\das_subg_thread\\keil" "../../../components/network/thread/subg_openthread/third_party/mbedtls/repo/include\\mbedtls/asn1.h"
	.cantunwind
	.fnend
                                        @ -- End function
	.section	.text.mbedtls_oid_get_x509_ext_type,"ax",%progbits
	.hidden	mbedtls_oid_get_x509_ext_type   @ -- Begin function mbedtls_oid_get_x509_ext_type
	.globl	mbedtls_oid_get_x509_ext_type
	.p2align	1
	.type	mbedtls_oid_get_x509_ext_type,%function
	.code	16                              @ @mbedtls_oid_get_x509_ext_type
	.thumb_func
mbedtls_oid_get_x509_ext_type:
.Lfunc_begin1:
	.loc	3 285 0                         @ ../../../components/network/thread/subg_openthread/third_party/mbedtls/repo/library/oid.c:285:0
	.fnstart
	.cfi_startproc
@ %bb.0:
	@DEBUG_VALUE: mbedtls_oid_get_x509_ext_type:oid <- $r0
	@DEBUG_VALUE: mbedtls_oid_get_x509_ext_type:ext_type <- $r1
	@DEBUG_VALUE: oid_x509_ext_from_asn1:oid <- $r0
	@DEBUG_VALUE: oid_x509_ext_from_asn1:oid <- $r0
	@DEBUG_VALUE: mbedtls_oid_get_x509_ext_type:oid <- $r0
	.save	{r4, r5, r6, r7, lr}
	push	{r4, r5, r6, r7, lr}
	.cfi_def_cfa_offset 20
	.cfi_offset lr, -4
	.cfi_offset r7, -8
	.cfi_offset r6, -12
	.cfi_offset r5, -16
	.cfi_offset r4, -20
	.pad	#4
	sub	sp, #4
	.cfi_def_cfa_offset 24
.Ltmp12:
	@DEBUG_VALUE: oid_x509_ext_from_asn1:cur <- undef
	@DEBUG_VALUE: mbedtls_oid_get_x509_ext_type:ext_type <- $r1
	.loc	3 284 1 prologue_end            @ ../../../components/network/thread/subg_openthread/third_party/mbedtls/repo/library/oid.c:284:1
	cbz	r0, .LBB1_5
.Ltmp13:
@ %bb.1:
	@DEBUG_VALUE: mbedtls_oid_get_x509_ext_type:ext_type <- $r1
	@DEBUG_VALUE: oid_x509_ext_from_asn1:oid <- $r0
	@DEBUG_VALUE: mbedtls_oid_get_x509_ext_type:oid <- $r0
	.loc	3 0 1 is_stmt 0                 @ ../../../components/network/thread/subg_openthread/third_party/mbedtls/repo/library/oid.c:0:1
	mov	r5, r0
.Ltmp14:
	@DEBUG_VALUE: mbedtls_oid_get_x509_ext_type:oid <- $r5
	@DEBUG_VALUE: mbedtls_oid_get_x509_ext_type:oid <- $r5
	@DEBUG_VALUE: oid_x509_ext_from_asn1:oid <- $r5
	movw	r0, :lower16:oid_x509_ext
	movt	r0, :upper16:oid_x509_ext
	add.w	r7, r0, #16
	ldr	r6, [r5, #4]
	movw	r0, :lower16:.L.str.77
	mov	r4, r1
.Ltmp15:
	@DEBUG_VALUE: mbedtls_oid_get_x509_ext_type:ext_type <- $r4
	@DEBUG_VALUE: mbedtls_oid_get_x509_ext_type:ext_type <- $r4
	movt	r0, :upper16:.L.str.77
.Ltmp16:
	@DEBUG_VALUE: oid_x509_ext_from_asn1:cur <- undef
	.p2align	2
.LBB1_2:                                @ =>This Inner Loop Header: Depth=1
	@DEBUG_VALUE: oid_x509_ext_from_asn1:oid <- $r5
	@DEBUG_VALUE: mbedtls_oid_get_x509_ext_type:oid <- $r5
	@DEBUG_VALUE: mbedtls_oid_get_x509_ext_type:ext_type <- $r4
	@DEBUG_VALUE: oid_x509_ext_from_asn1:cur <- undef
	@DEBUG_VALUE: oid_x509_ext_from_asn1:p <- undef
	.loc	3 284 1                         @ ../../../components/network/thread/subg_openthread/third_party/mbedtls/repo/library/oid.c:284:1
	ldr	r1, [r7, #-12]
	cmp	r1, r6
	bne	.LBB1_4
.Ltmp17:
@ %bb.3:                                @   in Loop: Header=BB1_2 Depth=1
	@DEBUG_VALUE: oid_x509_ext_from_asn1:oid <- $r5
	@DEBUG_VALUE: mbedtls_oid_get_x509_ext_type:oid <- $r5
	@DEBUG_VALUE: mbedtls_oid_get_x509_ext_type:ext_type <- $r4
	@DEBUG_VALUE: oid_x509_ext_from_asn1:p <- undef
	ldr	r1, [r5, #8]
	mov	r2, r6
	bl	memcmp
.Ltmp18:
	.loc	3 284 1                         @ ../../../components/network/thread/subg_openthread/third_party/mbedtls/repo/library/oid.c:284:1
	cbz	r0, .LBB1_6
.Ltmp19:
.LBB1_4:                                @   in Loop: Header=BB1_2 Depth=1
	@DEBUG_VALUE: oid_x509_ext_from_asn1:oid <- $r5
	@DEBUG_VALUE: mbedtls_oid_get_x509_ext_type:oid <- $r5
	@DEBUG_VALUE: mbedtls_oid_get_x509_ext_type:ext_type <- $r4
	@DEBUG_VALUE: oid_x509_ext_from_asn1:cur <- [DW_OP_plus_uconst 20, DW_OP_stack_value] undef
	@DEBUG_VALUE: oid_x509_ext_from_asn1:p <- [DW_OP_plus_uconst 20, DW_OP_stack_value] undef
	.loc	3 284 1                         @ ../../../components/network/thread/subg_openthread/third_party/mbedtls/repo/library/oid.c:284:1
	ldr	r0, [r7, #4]
	adds	r7, #20
	cmp	r0, #0
	bne	.LBB1_2
.Ltmp20:
.LBB1_5:
	.loc	3 0 1                           @ ../../../components/network/thread/subg_openthread/third_party/mbedtls/repo/library/oid.c:0:1
	mvn	r0, #45
	b	.LBB1_7
.LBB1_6:
.Ltmp21:
	@DEBUG_VALUE: mbedtls_oid_get_x509_ext_type:oid <- $r5
	@DEBUG_VALUE: mbedtls_oid_get_x509_ext_type:ext_type <- $r4
	@DEBUG_VALUE: mbedtls_oid_get_x509_ext_type:data <- undef
	.loc	3 285 1 is_stmt 1               @ ../../../components/network/thread/subg_openthread/third_party/mbedtls/repo/library/oid.c:285:1
	ldr	r0, [r7]
	str	r0, [r4]
	movs	r0, #0
.Ltmp22:
.LBB1_7:
	add	sp, #4
	pop	{r4, r5, r6, r7, pc}
.Ltmp23:
.Lfunc_end1:
	.size	mbedtls_oid_get_x509_ext_type, .Lfunc_end1-mbedtls_oid_get_x509_ext_type
	.cfi_endproc
	.cantunwind
	.fnend
                                        @ -- End function
	.section	.text.mbedtls_oid_get_extended_key_usage,"ax",%progbits
	.hidden	mbedtls_oid_get_extended_key_usage @ -- Begin function mbedtls_oid_get_extended_key_usage
	.globl	mbedtls_oid_get_extended_key_usage
	.p2align	1
	.type	mbedtls_oid_get_extended_key_usage,%function
	.code	16                              @ @mbedtls_oid_get_extended_key_usage
	.thumb_func
mbedtls_oid_get_extended_key_usage:
.Lfunc_begin2:
	.loc	3 300 0                         @ ../../../components/network/thread/subg_openthread/third_party/mbedtls/repo/library/oid.c:300:0
	.fnstart
	.cfi_startproc
@ %bb.0:
	@DEBUG_VALUE: mbedtls_oid_get_extended_key_usage:oid <- $r0
	@DEBUG_VALUE: mbedtls_oid_get_extended_key_usage:description <- $r1
	@DEBUG_VALUE: oid_ext_key_usage_from_asn1:oid <- $r0
	@DEBUG_VALUE: oid_ext_key_usage_from_asn1:oid <- $r0
	@DEBUG_VALUE: mbedtls_oid_get_extended_key_usage:oid <- $r0
	.save	{r4, r5, r6, r7, lr}
	push	{r4, r5, r6, r7, lr}
	.cfi_def_cfa_offset 20
	.cfi_offset lr, -4
	.cfi_offset r7, -8
	.cfi_offset r6, -12
	.cfi_offset r5, -16
	.cfi_offset r4, -20
	.pad	#4
	sub	sp, #4
	.cfi_def_cfa_offset 24
.Ltmp24:
	@DEBUG_VALUE: oid_ext_key_usage_from_asn1:cur <- undef
	@DEBUG_VALUE: oid_ext_key_usage_from_asn1:p <- undef
	@DEBUG_VALUE: mbedtls_oid_get_extended_key_usage:description <- $r1
	.loc	3 299 1 prologue_end            @ ../../../components/network/thread/subg_openthread/third_party/mbedtls/repo/library/oid.c:299:1
	cbz	r0, .LBB2_5
.Ltmp25:
@ %bb.1:
	@DEBUG_VALUE: mbedtls_oid_get_extended_key_usage:description <- $r1
	@DEBUG_VALUE: oid_ext_key_usage_from_asn1:oid <- $r0
	@DEBUG_VALUE: mbedtls_oid_get_extended_key_usage:oid <- $r0
	.loc	3 0 1 is_stmt 0                 @ ../../../components/network/thread/subg_openthread/third_party/mbedtls/repo/library/oid.c:0:1
	mov	r5, r0
.Ltmp26:
	@DEBUG_VALUE: mbedtls_oid_get_extended_key_usage:oid <- $r5
	@DEBUG_VALUE: mbedtls_oid_get_extended_key_usage:oid <- $r5
	@DEBUG_VALUE: oid_ext_key_usage_from_asn1:oid <- $r5
	movw	r0, :lower16:oid_ext_key_usage
	movt	r0, :upper16:oid_ext_key_usage
	add.w	r7, r0, #12
	ldr	r6, [r5, #4]
	movw	r0, :lower16:.L.str.95
	mov	r4, r1
.Ltmp27:
	@DEBUG_VALUE: mbedtls_oid_get_extended_key_usage:description <- $r4
	@DEBUG_VALUE: mbedtls_oid_get_extended_key_usage:description <- $r4
	movt	r0, :upper16:.L.str.95
.Ltmp28:
	@DEBUG_VALUE: oid_ext_key_usage_from_asn1:cur <- undef
	@DEBUG_VALUE: oid_ext_key_usage_from_asn1:p <- undef
	.p2align	2
.LBB2_2:                                @ =>This Inner Loop Header: Depth=1
	@DEBUG_VALUE: oid_ext_key_usage_from_asn1:oid <- $r5
	@DEBUG_VALUE: mbedtls_oid_get_extended_key_usage:oid <- $r5
	@DEBUG_VALUE: mbedtls_oid_get_extended_key_usage:description <- $r4
	@DEBUG_VALUE: oid_ext_key_usage_from_asn1:cur <- undef
	.loc	3 299 1                         @ ../../../components/network/thread/subg_openthread/third_party/mbedtls/repo/library/oid.c:299:1
	ldr	r1, [r7, #-8]
	cmp	r1, r6
	bne	.LBB2_4
.Ltmp29:
@ %bb.3:                                @   in Loop: Header=BB2_2 Depth=1
	@DEBUG_VALUE: oid_ext_key_usage_from_asn1:oid <- $r5
	@DEBUG_VALUE: mbedtls_oid_get_extended_key_usage:oid <- $r5
	@DEBUG_VALUE: mbedtls_oid_get_extended_key_usage:description <- $r4
	ldr	r1, [r5, #8]
	mov	r2, r6
	bl	memcmp
.Ltmp30:
	.loc	3 299 1                         @ ../../../components/network/thread/subg_openthread/third_party/mbedtls/repo/library/oid.c:299:1
	cbz	r0, .LBB2_6
.Ltmp31:
.LBB2_4:                                @   in Loop: Header=BB2_2 Depth=1
	@DEBUG_VALUE: oid_ext_key_usage_from_asn1:oid <- $r5
	@DEBUG_VALUE: mbedtls_oid_get_extended_key_usage:oid <- $r5
	@DEBUG_VALUE: mbedtls_oid_get_extended_key_usage:description <- $r4
	@DEBUG_VALUE: oid_ext_key_usage_from_asn1:p <- [DW_OP_plus_uconst 16, DW_OP_stack_value] undef
	@DEBUG_VALUE: oid_ext_key_usage_from_asn1:cur <- [DW_OP_plus_uconst 16, DW_OP_stack_value] undef
	.loc	3 299 1                         @ ../../../components/network/thread/subg_openthread/third_party/mbedtls/repo/library/oid.c:299:1
	ldr	r0, [r7, #4]
	adds	r7, #16
	cmp	r0, #0
	bne	.LBB2_2
.Ltmp32:
.LBB2_5:
	.loc	3 0 1                           @ ../../../components/network/thread/subg_openthread/third_party/mbedtls/repo/library/oid.c:0:1
	mvn	r0, #45
	b	.LBB2_7
.LBB2_6:
.Ltmp33:
	@DEBUG_VALUE: mbedtls_oid_get_extended_key_usage:oid <- $r5
	@DEBUG_VALUE: mbedtls_oid_get_extended_key_usage:description <- $r4
	@DEBUG_VALUE: mbedtls_oid_get_extended_key_usage:data <- undef
	.loc	3 300 1 is_stmt 1               @ ../../../components/network/thread/subg_openthread/third_party/mbedtls/repo/library/oid.c:300:1
	ldr	r0, [r7]
	str	r0, [r4]
	movs	r0, #0
.Ltmp34:
.LBB2_7:
	add	sp, #4
	pop	{r4, r5, r6, r7, pc}
.Ltmp35:
.Lfunc_end2:
	.size	mbedtls_oid_get_extended_key_usage, .Lfunc_end2-mbedtls_oid_get_extended_key_usage
	.cfi_endproc
	.cantunwind
	.fnend
                                        @ -- End function
	.section	.text.mbedtls_oid_get_certificate_policies,"ax",%progbits
	.hidden	mbedtls_oid_get_certificate_policies @ -- Begin function mbedtls_oid_get_certificate_policies
	.globl	mbedtls_oid_get_certificate_policies
	.p2align	2
	.type	mbedtls_oid_get_certificate_policies,%function
	.code	16                              @ @mbedtls_oid_get_certificate_policies
	.thumb_func
mbedtls_oid_get_certificate_policies:
.Lfunc_begin3:
	.loc	3 309 0                         @ ../../../components/network/thread/subg_openthread/third_party/mbedtls/repo/library/oid.c:309:0
	.fnstart
	.cfi_startproc
@ %bb.0:
	@DEBUG_VALUE: mbedtls_oid_get_certificate_policies:oid <- $r0
	@DEBUG_VALUE: mbedtls_oid_get_certificate_policies:oid <- $r0
	@DEBUG_VALUE: mbedtls_oid_get_certificate_policies:description <- $r1
	@DEBUG_VALUE: oid_certificate_policies_from_asn1:oid <- $r0
	@DEBUG_VALUE: oid_certificate_policies_from_asn1:oid <- $r0
	@DEBUG_VALUE: mbedtls_oid_get_certificate_policies:description <- $r1
	.loc	3 308 1 prologue_end            @ ../../../components/network/thread/subg_openthread/third_party/mbedtls/repo/library/oid.c:308:1
	cbz	r0, .LBB3_3
.Ltmp36:
@ %bb.1:
	@DEBUG_VALUE: mbedtls_oid_get_certificate_policies:description <- $r1
	@DEBUG_VALUE: oid_certificate_policies_from_asn1:oid <- $r0
	@DEBUG_VALUE: mbedtls_oid_get_certificate_policies:oid <- $r0
	.loc	3 0 1 is_stmt 0                 @ ../../../components/network/thread/subg_openthread/third_party/mbedtls/repo/library/oid.c:0:1
	ldr	r2, [r0, #4]
.Ltmp37:
	.loc	3 308 1                         @ ../../../components/network/thread/subg_openthread/third_party/mbedtls/repo/library/oid.c:308:1
	cmp	r2, #4
	bne	.LBB3_3
.Ltmp38:
@ %bb.2:
	@DEBUG_VALUE: mbedtls_oid_get_certificate_policies:description <- $r1
	@DEBUG_VALUE: oid_certificate_policies_from_asn1:oid <- $r0
	@DEBUG_VALUE: mbedtls_oid_get_certificate_policies:oid <- $r0
	ldr	r0, [r0, #8]
.Ltmp39:
	@DEBUG_VALUE: mbedtls_oid_get_certificate_policies:oid <- [DW_OP_LLVM_entry_value 1] $r0
	.loc	3 0 1                           @ ../../../components/network/thread/subg_openthread/third_party/mbedtls/repo/library/oid.c:0:1
	movw	r2, #7509
	.loc	3 308 1                         @ ../../../components/network/thread/subg_openthread/third_party/mbedtls/repo/library/oid.c:308:1
	ldr	r0, [r0]
	movt	r2, #32
.Ltmp40:
	.loc	3 308 1                         @ ../../../components/network/thread/subg_openthread/third_party/mbedtls/repo/library/oid.c:308:1
	cmp	r0, r2
	beq	.LBB3_4
.Ltmp41:
.LBB3_3:
	@DEBUG_VALUE: mbedtls_oid_get_certificate_policies:description <- $r1
	.loc	3 0 1                           @ ../../../components/network/thread/subg_openthread/third_party/mbedtls/repo/library/oid.c:0:1
	mvn	r0, #45
	.loc	3 309 1 is_stmt 1               @ ../../../components/network/thread/subg_openthread/third_party/mbedtls/repo/library/oid.c:309:1
	bx	lr
.Ltmp42:
.LBB3_4:
	@DEBUG_VALUE: mbedtls_oid_get_certificate_policies:description <- $r1
	@DEBUG_VALUE: mbedtls_oid_get_certificate_policies:oid <- [DW_OP_LLVM_entry_value 1] $r0
	adr	r0, .LCPI3_0
	str	r0, [r1]
	movs	r0, #0
	bx	lr
.Ltmp43:
	.p2align	2
@ %bb.5:
	.loc	3 0 1 is_stmt 0                 @ ../../../components/network/thread/subg_openthread/third_party/mbedtls/repo/library/oid.c:0:1
.LCPI3_0:
.L.str.118:
	.asciz	"Any Policy\000"
.Lfunc_end3:
	.size	mbedtls_oid_get_certificate_policies, .Lfunc_end3-mbedtls_oid_get_certificate_policies
	.cfi_endproc
	.cantunwind
	.fnend
                                        @ -- End function
	.section	.text.mbedtls_oid_get_sig_alg_desc,"ax",%progbits
	.hidden	mbedtls_oid_get_sig_alg_desc    @ -- Begin function mbedtls_oid_get_sig_alg_desc
	.globl	mbedtls_oid_get_sig_alg_desc
	.p2align	1
	.type	mbedtls_oid_get_sig_alg_desc,%function
	.code	16                              @ @mbedtls_oid_get_sig_alg_desc
	.thumb_func
mbedtls_oid_get_sig_alg_desc:
.Lfunc_begin4:
	.loc	3 416 0 is_stmt 1               @ ../../../components/network/thread/subg_openthread/third_party/mbedtls/repo/library/oid.c:416:0
	.fnstart
	.cfi_startproc
@ %bb.0:
	@DEBUG_VALUE: mbedtls_oid_get_sig_alg_desc:oid <- $r0
	@DEBUG_VALUE: mbedtls_oid_get_sig_alg_desc:description <- $r1
	.save	{r4, lr}
	push	{r4, lr}
	.cfi_def_cfa_offset 8
	.cfi_offset lr, -4
	.cfi_offset r4, -8
	mov	r4, r1
.Ltmp44:
	@DEBUG_VALUE: mbedtls_oid_get_sig_alg_desc:description <- $r4
	@DEBUG_VALUE: mbedtls_oid_get_sig_alg_desc:description <- $r4
	@DEBUG_VALUE: mbedtls_oid_get_sig_alg_desc:oid <- $r0
	@DEBUG_VALUE: mbedtls_oid_get_sig_alg_desc:oid <- $r0
	.loc	3 416 1 prologue_end            @ ../../../components/network/thread/subg_openthread/third_party/mbedtls/repo/library/oid.c:416:1
	bl	oid_sig_alg_from_asn1
.Ltmp45:
	@DEBUG_VALUE: mbedtls_oid_get_sig_alg_desc:oid <- [DW_OP_LLVM_entry_value 1] $r0
	@DEBUG_VALUE: mbedtls_oid_get_sig_alg_desc:data <- $r0
	cmp	r0, #0
	iteee	eq
	mvneq	r0, #45
.Ltmp46:
	ldrne	r0, [r0, #12]
	strne	r0, [r4]
	movne	r0, #0
	pop	{r4, pc}
.Ltmp47:
.Lfunc_end4:
	.size	mbedtls_oid_get_sig_alg_desc, .Lfunc_end4-mbedtls_oid_get_sig_alg_desc
	.cfi_endproc
	.cantunwind
	.fnend
                                        @ -- End function
	.section	.text.oid_sig_alg_from_asn1,"ax",%progbits
	.p2align	1                               @ -- Begin function oid_sig_alg_from_asn1
	.type	oid_sig_alg_from_asn1,%function
	.code	16                              @ @oid_sig_alg_from_asn1
	.thumb_func
oid_sig_alg_from_asn1:
.Lfunc_begin5:
	.loc	3 415 0                         @ ../../../components/network/thread/subg_openthread/third_party/mbedtls/repo/library/oid.c:415:0
	.fnstart
	.cfi_startproc
@ %bb.0:
	@DEBUG_VALUE: oid_sig_alg_from_asn1:oid <- $r0
	@DEBUG_VALUE: oid_sig_alg_from_asn1:oid <- $r0
	.save	{r4, r5, r6, lr}
	push	{r4, r5, r6, lr}
	.cfi_def_cfa_offset 16
	.cfi_offset lr, -4
	.cfi_offset r6, -8
	.cfi_offset r5, -12
	.cfi_offset r4, -16
.Ltmp48:
	@DEBUG_VALUE: oid_sig_alg_from_asn1:cur <- undef
	@DEBUG_VALUE: oid_sig_alg_from_asn1:p <- undef
	.loc	3 415 1 prologue_end            @ ../../../components/network/thread/subg_openthread/third_party/mbedtls/repo/library/oid.c:415:1
	cbz	r0, .LBB5_5
.Ltmp49:
@ %bb.1:
	@DEBUG_VALUE: oid_sig_alg_from_asn1:oid <- $r0
	.loc	3 0 1 is_stmt 0                 @ ../../../components/network/thread/subg_openthread/third_party/mbedtls/repo/library/oid.c:0:1
	mov	r5, r0
.Ltmp50:
	@DEBUG_VALUE: oid_sig_alg_from_asn1:oid <- $r5
	ldr	r6, [r0, #4]
	movw	r4, :lower16:oid_sig_alg
	movw	r0, :lower16:.L.str.119
	movt	r4, :upper16:oid_sig_alg
.Ltmp51:
	@DEBUG_VALUE: oid_sig_alg_from_asn1:cur <- $r4
	movt	r0, :upper16:.L.str.119
.Ltmp52:
	@DEBUG_VALUE: oid_sig_alg_from_asn1:p <- undef
	.p2align	2
.LBB5_2:                                @ =>This Inner Loop Header: Depth=1
	@DEBUG_VALUE: oid_sig_alg_from_asn1:oid <- $r5
	@DEBUG_VALUE: oid_sig_alg_from_asn1:cur <- $r4
	@DEBUG_VALUE: oid_sig_alg_from_asn1:p <- $r4
	@DEBUG_VALUE: oid_sig_alg_from_asn1:cur <- $r4
	.loc	3 415 1                         @ ../../../components/network/thread/subg_openthread/third_party/mbedtls/repo/library/oid.c:415:1
	ldr	r1, [r4, #4]
	cmp	r1, r6
	bne	.LBB5_4
.Ltmp53:
@ %bb.3:                                @   in Loop: Header=BB5_2 Depth=1
	@DEBUG_VALUE: oid_sig_alg_from_asn1:oid <- $r5
	@DEBUG_VALUE: oid_sig_alg_from_asn1:p <- $r4
	@DEBUG_VALUE: oid_sig_alg_from_asn1:cur <- $r4
	@DEBUG_VALUE: oid_sig_alg_from_asn1:p <- $r4
	ldr	r1, [r5, #8]
	mov	r2, r6
	bl	memcmp
.Ltmp54:
	.loc	3 415 1                         @ ../../../components/network/thread/subg_openthread/third_party/mbedtls/repo/library/oid.c:415:1
	cbz	r0, .LBB5_6
.Ltmp55:
.LBB5_4:                                @   in Loop: Header=BB5_2 Depth=1
	@DEBUG_VALUE: oid_sig_alg_from_asn1:oid <- $r5
	@DEBUG_VALUE: oid_sig_alg_from_asn1:p <- $r4
	@DEBUG_VALUE: oid_sig_alg_from_asn1:cur <- $r4
	.loc	3 415 1                         @ ../../../components/network/thread/subg_openthread/third_party/mbedtls/repo/library/oid.c:415:1
	ldr	r0, [r4, #24]!
.Ltmp56:
	@DEBUG_VALUE: oid_sig_alg_from_asn1:cur <- $r4
	@DEBUG_VALUE: oid_sig_alg_from_asn1:p <- $r4
	cmp	r0, #0
	bne	.LBB5_2
.Ltmp57:
.LBB5_5:
	.loc	3 0 1                           @ ../../../components/network/thread/subg_openthread/third_party/mbedtls/repo/library/oid.c:0:1
	movs	r4, #0
.LBB5_6:
	.loc	3 415 1                         @ ../../../components/network/thread/subg_openthread/third_party/mbedtls/repo/library/oid.c:415:1
	mov	r0, r4
	pop	{r4, r5, r6, pc}
.Ltmp58:
.Lfunc_end5:
	.size	oid_sig_alg_from_asn1, .Lfunc_end5-oid_sig_alg_from_asn1
	.cfi_endproc
	.cantunwind
	.fnend
                                        @ -- End function
	.section	.text.mbedtls_oid_get_sig_alg,"ax",%progbits
	.hidden	mbedtls_oid_get_sig_alg         @ -- Begin function mbedtls_oid_get_sig_alg
	.globl	mbedtls_oid_get_sig_alg
	.p2align	1
	.type	mbedtls_oid_get_sig_alg,%function
	.code	16                              @ @mbedtls_oid_get_sig_alg
	.thumb_func
mbedtls_oid_get_sig_alg:
.Lfunc_begin6:
	.loc	3 417 0 is_stmt 1               @ ../../../components/network/thread/subg_openthread/third_party/mbedtls/repo/library/oid.c:417:0
	.fnstart
	.cfi_startproc
@ %bb.0:
	@DEBUG_VALUE: mbedtls_oid_get_sig_alg:oid <- $r0
	@DEBUG_VALUE: mbedtls_oid_get_sig_alg:md_alg <- $r1
	@DEBUG_VALUE: mbedtls_oid_get_sig_alg:pk_alg <- $r2
	.save	{r4, r5, r7, lr}
	push	{r4, r5, r7, lr}
	.cfi_def_cfa_offset 16
	.cfi_offset lr, -4
	.cfi_offset r7, -8
	.cfi_offset r5, -12
	.cfi_offset r4, -16
	mov	r4, r2
.Ltmp59:
	@DEBUG_VALUE: mbedtls_oid_get_sig_alg:pk_alg <- $r4
	mov	r5, r1
.Ltmp60:
	@DEBUG_VALUE: mbedtls_oid_get_sig_alg:md_alg <- $r5
	@DEBUG_VALUE: mbedtls_oid_get_sig_alg:pk_alg <- $r4
	@DEBUG_VALUE: mbedtls_oid_get_sig_alg:md_alg <- $r5
	@DEBUG_VALUE: mbedtls_oid_get_sig_alg:oid <- $r0
	@DEBUG_VALUE: mbedtls_oid_get_sig_alg:oid <- $r0
	.loc	3 417 1 prologue_end            @ ../../../components/network/thread/subg_openthread/third_party/mbedtls/repo/library/oid.c:417:1
	bl	oid_sig_alg_from_asn1
.Ltmp61:
	@DEBUG_VALUE: mbedtls_oid_get_sig_alg:oid <- [DW_OP_LLVM_entry_value 1] $r0
	@DEBUG_VALUE: mbedtls_oid_get_sig_alg:data <- $r0
	cbz	r0, .LBB6_2
.Ltmp62:
@ %bb.1:
	@DEBUG_VALUE: mbedtls_oid_get_sig_alg:md_alg <- $r5
	@DEBUG_VALUE: mbedtls_oid_get_sig_alg:pk_alg <- $r4
	@DEBUG_VALUE: mbedtls_oid_get_sig_alg:data <- $r0
	@DEBUG_VALUE: mbedtls_oid_get_sig_alg:oid <- [DW_OP_LLVM_entry_value 1] $r0
	ldr	r1, [r0, #16]
	str	r1, [r5]
	ldr	r0, [r0, #20]
.Ltmp63:
	str	r0, [r4]
	movs	r0, #0
	pop	{r4, r5, r7, pc}
.Ltmp64:
.LBB6_2:
	@DEBUG_VALUE: mbedtls_oid_get_sig_alg:md_alg <- $r5
	@DEBUG_VALUE: mbedtls_oid_get_sig_alg:pk_alg <- $r4
	@DEBUG_VALUE: mbedtls_oid_get_sig_alg:data <- $r0
	@DEBUG_VALUE: mbedtls_oid_get_sig_alg:oid <- [DW_OP_LLVM_entry_value 1] $r0
	.loc	3 0 1 is_stmt 0                 @ ../../../components/network/thread/subg_openthread/third_party/mbedtls/repo/library/oid.c:0:1
	mvn	r0, #45
.Ltmp65:
	.loc	3 417 1                         @ ../../../components/network/thread/subg_openthread/third_party/mbedtls/repo/library/oid.c:417:1
	pop	{r4, r5, r7, pc}
.Ltmp66:
.Lfunc_end6:
	.size	mbedtls_oid_get_sig_alg, .Lfunc_end6-mbedtls_oid_get_sig_alg
	.cfi_endproc
	.cantunwind
	.fnend
                                        @ -- End function
	.section	.text.mbedtls_oid_get_oid_by_sig_alg,"ax",%progbits
	.hidden	mbedtls_oid_get_oid_by_sig_alg  @ -- Begin function mbedtls_oid_get_oid_by_sig_alg
	.globl	mbedtls_oid_get_oid_by_sig_alg
	.p2align	1
	.type	mbedtls_oid_get_oid_by_sig_alg,%function
	.code	16                              @ @mbedtls_oid_get_oid_by_sig_alg
	.thumb_func
mbedtls_oid_get_oid_by_sig_alg:
.Lfunc_begin7:
	.loc	3 418 0 is_stmt 1               @ ../../../components/network/thread/subg_openthread/third_party/mbedtls/repo/library/oid.c:418:0
	.fnstart
	.cfi_startproc
@ %bb.0:
	@DEBUG_VALUE: mbedtls_oid_get_oid_by_sig_alg:pk_alg <- $r0
	@DEBUG_VALUE: mbedtls_oid_get_oid_by_sig_alg:pk_alg <- $r0
	@DEBUG_VALUE: mbedtls_oid_get_oid_by_sig_alg:md_alg <- $r1
	@DEBUG_VALUE: mbedtls_oid_get_oid_by_sig_alg:md_alg <- $r1
	@DEBUG_VALUE: mbedtls_oid_get_oid_by_sig_alg:oid <- $r2
	@DEBUG_VALUE: mbedtls_oid_get_oid_by_sig_alg:oid <- $r2
	@DEBUG_VALUE: mbedtls_oid_get_oid_by_sig_alg:olen <- $r3
	@DEBUG_VALUE: mbedtls_oid_get_oid_by_sig_alg:olen <- $r3
	.save	{r4, lr}
	push	{r4, lr}
	.cfi_def_cfa_offset 8
	.cfi_offset lr, -4
	.cfi_offset r4, -8
	movw	r12, :lower16:oid_sig_alg
	movt	r12, :upper16:oid_sig_alg
	movw	lr, :lower16:.L.str.119
	add.w	r12, r12, #16
	movt	lr, :upper16:.L.str.119
.Ltmp67:
	@DEBUG_VALUE: mbedtls_oid_get_oid_by_sig_alg:cur <- undef
	.p2align	2
.LBB7_1:                                @ =>This Inner Loop Header: Depth=1
	@DEBUG_VALUE: mbedtls_oid_get_oid_by_sig_alg:olen <- $r3
	@DEBUG_VALUE: mbedtls_oid_get_oid_by_sig_alg:oid <- $r2
	@DEBUG_VALUE: mbedtls_oid_get_oid_by_sig_alg:md_alg <- $r1
	@DEBUG_VALUE: mbedtls_oid_get_oid_by_sig_alg:pk_alg <- $r0
	@DEBUG_VALUE: mbedtls_oid_get_oid_by_sig_alg:cur <- undef
	.loc	3 418 1 prologue_end            @ ../../../components/network/thread/subg_openthread/third_party/mbedtls/repo/library/oid.c:418:1
	ldr.w	r4, [r12, #4]
	cmp	r4, r0
	bne	.LBB7_3
.Ltmp68:
@ %bb.2:                                @   in Loop: Header=BB7_1 Depth=1
	@DEBUG_VALUE: mbedtls_oid_get_oid_by_sig_alg:olen <- $r3
	@DEBUG_VALUE: mbedtls_oid_get_oid_by_sig_alg:oid <- $r2
	@DEBUG_VALUE: mbedtls_oid_get_oid_by_sig_alg:md_alg <- $r1
	@DEBUG_VALUE: mbedtls_oid_get_oid_by_sig_alg:pk_alg <- $r0
	ldr.w	r4, [r12]
.Ltmp69:
	.loc	3 418 1 is_stmt 0               @ ../../../components/network/thread/subg_openthread/third_party/mbedtls/repo/library/oid.c:418:1
	cmp	r4, r1
	beq	.LBB7_5
.Ltmp70:
.LBB7_3:                                @   in Loop: Header=BB7_1 Depth=1
	@DEBUG_VALUE: mbedtls_oid_get_oid_by_sig_alg:olen <- $r3
	@DEBUG_VALUE: mbedtls_oid_get_oid_by_sig_alg:oid <- $r2
	@DEBUG_VALUE: mbedtls_oid_get_oid_by_sig_alg:md_alg <- $r1
	@DEBUG_VALUE: mbedtls_oid_get_oid_by_sig_alg:pk_alg <- $r0
	@DEBUG_VALUE: mbedtls_oid_get_oid_by_sig_alg:cur <- [DW_OP_plus_uconst 24, DW_OP_stack_value] undef
	.loc	3 418 1                         @ ../../../components/network/thread/subg_openthread/third_party/mbedtls/repo/library/oid.c:418:1
	ldr.w	lr, [r12, #8]
	add.w	r12, r12, #24
	cmp.w	lr, #0
	bne	.LBB7_1
.Ltmp71:
@ %bb.4:
	@DEBUG_VALUE: mbedtls_oid_get_oid_by_sig_alg:olen <- $r3
	@DEBUG_VALUE: mbedtls_oid_get_oid_by_sig_alg:oid <- $r2
	@DEBUG_VALUE: mbedtls_oid_get_oid_by_sig_alg:md_alg <- $r1
	@DEBUG_VALUE: mbedtls_oid_get_oid_by_sig_alg:pk_alg <- $r0
	.loc	3 0 1                           @ ../../../components/network/thread/subg_openthread/third_party/mbedtls/repo/library/oid.c:0:1
	mvn	r0, #45
.Ltmp72:
	@DEBUG_VALUE: mbedtls_oid_get_oid_by_sig_alg:pk_alg <- [DW_OP_LLVM_entry_value 1] $r0
	.loc	3 418 1                         @ ../../../components/network/thread/subg_openthread/third_party/mbedtls/repo/library/oid.c:418:1
	pop	{r4, pc}
.Ltmp73:
.LBB7_5:
	@DEBUG_VALUE: mbedtls_oid_get_oid_by_sig_alg:olen <- $r3
	@DEBUG_VALUE: mbedtls_oid_get_oid_by_sig_alg:oid <- $r2
	@DEBUG_VALUE: mbedtls_oid_get_oid_by_sig_alg:md_alg <- $r1
	@DEBUG_VALUE: mbedtls_oid_get_oid_by_sig_alg:pk_alg <- $r0
	.loc	3 418 1                         @ ../../../components/network/thread/subg_openthread/third_party/mbedtls/repo/library/oid.c:418:1
	ldr	r0, [r12, #-12]
.Ltmp74:
	@DEBUG_VALUE: mbedtls_oid_get_oid_by_sig_alg:pk_alg <- [DW_OP_LLVM_entry_value 1] $r0
	str.w	lr, [r2]
	str	r0, [r3]
	movs	r0, #0
.Ltmp75:
	.loc	3 418 1                         @ ../../../components/network/thread/subg_openthread/third_party/mbedtls/repo/library/oid.c:418:1
	pop	{r4, pc}
.Ltmp76:
.Lfunc_end7:
	.size	mbedtls_oid_get_oid_by_sig_alg, .Lfunc_end7-mbedtls_oid_get_oid_by_sig_alg
	.cfi_endproc
	.cantunwind
	.fnend
                                        @ -- End function
	.section	.text.mbedtls_oid_get_pk_alg,"ax",%progbits
	.hidden	mbedtls_oid_get_pk_alg          @ -- Begin function mbedtls_oid_get_pk_alg
	.globl	mbedtls_oid_get_pk_alg
	.p2align	1
	.type	mbedtls_oid_get_pk_alg,%function
	.code	16                              @ @mbedtls_oid_get_pk_alg
	.thumb_func
mbedtls_oid_get_pk_alg:
.Lfunc_begin8:
	.loc	3 450 0 is_stmt 1               @ ../../../components/network/thread/subg_openthread/third_party/mbedtls/repo/library/oid.c:450:0
	.fnstart
	.cfi_startproc
@ %bb.0:
	@DEBUG_VALUE: mbedtls_oid_get_pk_alg:oid <- $r0
	@DEBUG_VALUE: mbedtls_oid_get_pk_alg:pk_alg <- $r1
	@DEBUG_VALUE: oid_pk_alg_from_asn1:oid <- $r0
	@DEBUG_VALUE: oid_pk_alg_from_asn1:oid <- $r0
	@DEBUG_VALUE: mbedtls_oid_get_pk_alg:oid <- $r0
	.save	{r4, r5, r6, r7, lr}
	push	{r4, r5, r6, r7, lr}
	.cfi_def_cfa_offset 20
	.cfi_offset lr, -4
	.cfi_offset r7, -8
	.cfi_offset r6, -12
	.cfi_offset r5, -16
	.cfi_offset r4, -20
	.pad	#4
	sub	sp, #4
	.cfi_def_cfa_offset 24
.Ltmp77:
	@DEBUG_VALUE: oid_pk_alg_from_asn1:cur <- undef
	@DEBUG_VALUE: oid_pk_alg_from_asn1:p <- undef
	@DEBUG_VALUE: mbedtls_oid_get_pk_alg:pk_alg <- $r1
	.loc	3 449 1 prologue_end            @ ../../../components/network/thread/subg_openthread/third_party/mbedtls/repo/library/oid.c:449:1
	cbz	r0, .LBB8_5
.Ltmp78:
@ %bb.1:
	@DEBUG_VALUE: mbedtls_oid_get_pk_alg:pk_alg <- $r1
	@DEBUG_VALUE: oid_pk_alg_from_asn1:oid <- $r0
	@DEBUG_VALUE: mbedtls_oid_get_pk_alg:oid <- $r0
	.loc	3 0 1 is_stmt 0                 @ ../../../components/network/thread/subg_openthread/third_party/mbedtls/repo/library/oid.c:0:1
	mov	r5, r0
.Ltmp79:
	@DEBUG_VALUE: mbedtls_oid_get_pk_alg:oid <- $r5
	@DEBUG_VALUE: mbedtls_oid_get_pk_alg:oid <- $r5
	@DEBUG_VALUE: oid_pk_alg_from_asn1:oid <- $r5
	movw	r0, :lower16:oid_pk_alg
	movt	r0, :upper16:oid_pk_alg
	add.w	r7, r0, #16
	ldr	r6, [r5, #4]
	movw	r0, :lower16:.L.str.125
	mov	r4, r1
.Ltmp80:
	@DEBUG_VALUE: mbedtls_oid_get_pk_alg:pk_alg <- $r4
	@DEBUG_VALUE: mbedtls_oid_get_pk_alg:pk_alg <- $r4
	movt	r0, :upper16:.L.str.125
.Ltmp81:
	@DEBUG_VALUE: oid_pk_alg_from_asn1:cur <- undef
	@DEBUG_VALUE: oid_pk_alg_from_asn1:p <- undef
	.p2align	2
.LBB8_2:                                @ =>This Inner Loop Header: Depth=1
	@DEBUG_VALUE: oid_pk_alg_from_asn1:oid <- $r5
	@DEBUG_VALUE: mbedtls_oid_get_pk_alg:oid <- $r5
	@DEBUG_VALUE: mbedtls_oid_get_pk_alg:pk_alg <- $r4
	@DEBUG_VALUE: oid_pk_alg_from_asn1:p <- undef
	@DEBUG_VALUE: oid_pk_alg_from_asn1:cur <- undef
	.loc	3 449 1                         @ ../../../components/network/thread/subg_openthread/third_party/mbedtls/repo/library/oid.c:449:1
	ldr	r1, [r7, #-12]
	cmp	r1, r6
	bne	.LBB8_4
.Ltmp82:
@ %bb.3:                                @   in Loop: Header=BB8_2 Depth=1
	@DEBUG_VALUE: oid_pk_alg_from_asn1:oid <- $r5
	@DEBUG_VALUE: mbedtls_oid_get_pk_alg:oid <- $r5
	@DEBUG_VALUE: mbedtls_oid_get_pk_alg:pk_alg <- $r4
	@DEBUG_VALUE: oid_pk_alg_from_asn1:p <- undef
	ldr	r1, [r5, #8]
	mov	r2, r6
	bl	memcmp
.Ltmp83:
	.loc	3 449 1                         @ ../../../components/network/thread/subg_openthread/third_party/mbedtls/repo/library/oid.c:449:1
	cbz	r0, .LBB8_6
.Ltmp84:
.LBB8_4:                                @   in Loop: Header=BB8_2 Depth=1
	@DEBUG_VALUE: oid_pk_alg_from_asn1:oid <- $r5
	@DEBUG_VALUE: mbedtls_oid_get_pk_alg:oid <- $r5
	@DEBUG_VALUE: mbedtls_oid_get_pk_alg:pk_alg <- $r4
	@DEBUG_VALUE: oid_pk_alg_from_asn1:p <- [DW_OP_plus_uconst 20, DW_OP_stack_value] undef
	@DEBUG_VALUE: oid_pk_alg_from_asn1:cur <- [DW_OP_plus_uconst 20, DW_OP_stack_value] undef
	.loc	3 449 1                         @ ../../../components/network/thread/subg_openthread/third_party/mbedtls/repo/library/oid.c:449:1
	ldr	r0, [r7, #4]
	adds	r7, #20
	cmp	r0, #0
	bne	.LBB8_2
.Ltmp85:
.LBB8_5:
	.loc	3 0 1                           @ ../../../components/network/thread/subg_openthread/third_party/mbedtls/repo/library/oid.c:0:1
	mvn	r0, #45
	b	.LBB8_7
.LBB8_6:
.Ltmp86:
	@DEBUG_VALUE: mbedtls_oid_get_pk_alg:oid <- $r5
	@DEBUG_VALUE: mbedtls_oid_get_pk_alg:pk_alg <- $r4
	@DEBUG_VALUE: mbedtls_oid_get_pk_alg:data <- undef
	.loc	3 450 1 is_stmt 1               @ ../../../components/network/thread/subg_openthread/third_party/mbedtls/repo/library/oid.c:450:1
	ldr	r0, [r7]
	str	r0, [r4]
	movs	r0, #0
.Ltmp87:
.LBB8_7:
	add	sp, #4
	pop	{r4, r5, r6, r7, pc}
.Ltmp88:
.Lfunc_end8:
	.size	mbedtls_oid_get_pk_alg, .Lfunc_end8-mbedtls_oid_get_pk_alg
	.cfi_endproc
	.cantunwind
	.fnend
                                        @ -- End function
	.section	.text.mbedtls_oid_get_oid_by_pk_alg,"ax",%progbits
	.hidden	mbedtls_oid_get_oid_by_pk_alg   @ -- Begin function mbedtls_oid_get_oid_by_pk_alg
	.globl	mbedtls_oid_get_oid_by_pk_alg
	.p2align	1
	.type	mbedtls_oid_get_oid_by_pk_alg,%function
	.code	16                              @ @mbedtls_oid_get_oid_by_pk_alg
	.thumb_func
mbedtls_oid_get_oid_by_pk_alg:
.Lfunc_begin9:
	.loc	3 451 0                         @ ../../../components/network/thread/subg_openthread/third_party/mbedtls/repo/library/oid.c:451:0
	.fnstart
	.cfi_startproc
@ %bb.0:
	@DEBUG_VALUE: mbedtls_oid_get_oid_by_pk_alg:pk_alg <- $r0
	@DEBUG_VALUE: mbedtls_oid_get_oid_by_pk_alg:pk_alg <- $r0
	@DEBUG_VALUE: mbedtls_oid_get_oid_by_pk_alg:oid <- $r1
	@DEBUG_VALUE: mbedtls_oid_get_oid_by_pk_alg:olen <- $r2
	@DEBUG_VALUE: mbedtls_oid_get_oid_by_pk_alg:olen <- $r2
	.save	{r4, lr}
	push	{r4, lr}
	.cfi_def_cfa_offset 8
	.cfi_offset lr, -4
	.cfi_offset r4, -8
.Ltmp89:
	@DEBUG_VALUE: mbedtls_oid_get_oid_by_pk_alg:cur <- undef
	.loc	3 451 1 prologue_end            @ ../../../components/network/thread/subg_openthread/third_party/mbedtls/repo/library/oid.c:451:1
	cmp	r0, #1
	@DEBUG_VALUE: mbedtls_oid_get_oid_by_pk_alg:oid <- $r1
	bne	.LBB9_2
.Ltmp90:
@ %bb.1:
	@DEBUG_VALUE: mbedtls_oid_get_oid_by_pk_alg:olen <- $r2
	@DEBUG_VALUE: mbedtls_oid_get_oid_by_pk_alg:oid <- $r1
	@DEBUG_VALUE: mbedtls_oid_get_oid_by_pk_alg:pk_alg <- $r0
	.loc	3 0 1 is_stmt 0                 @ ../../../components/network/thread/subg_openthread/third_party/mbedtls/repo/library/oid.c:0:1
	movw	r4, :lower16:oid_pk_alg
	movw	r12, :lower16:.L.str.125
	movt	r4, :upper16:oid_pk_alg
.Ltmp91:
	@DEBUG_VALUE: mbedtls_oid_get_oid_by_pk_alg:cur <- $r4
	movt	r12, :upper16:.L.str.125
	b	.LBB9_5
.Ltmp92:
.LBB9_2:
	@DEBUG_VALUE: mbedtls_oid_get_oid_by_pk_alg:olen <- $r2
	@DEBUG_VALUE: mbedtls_oid_get_oid_by_pk_alg:oid <- $r1
	@DEBUG_VALUE: mbedtls_oid_get_oid_by_pk_alg:pk_alg <- $r0
	movw	lr, :lower16:oid_pk_alg
	movt	lr, :upper16:oid_pk_alg
	.loc	3 451 1                         @ ../../../components/network/thread/subg_openthread/third_party/mbedtls/repo/library/oid.c:451:1
	mov	r4, lr
.Ltmp93:
	.p2align	2
.LBB9_3:                                @ =>This Inner Loop Header: Depth=1
	@DEBUG_VALUE: mbedtls_oid_get_oid_by_pk_alg:olen <- $r2
	@DEBUG_VALUE: mbedtls_oid_get_oid_by_pk_alg:oid <- $r1
	@DEBUG_VALUE: mbedtls_oid_get_oid_by_pk_alg:pk_alg <- $r0
	@DEBUG_VALUE: mbedtls_oid_get_oid_by_pk_alg:cur <- $lr
	ldr	r12, [r4, #20]!
.Ltmp94:
	@DEBUG_VALUE: mbedtls_oid_get_oid_by_pk_alg:cur <- $r4
	cmp.w	r12, #0
	beq	.LBB9_6
.Ltmp95:
@ %bb.4:                                @   in Loop: Header=BB9_3 Depth=1
	@DEBUG_VALUE: mbedtls_oid_get_oid_by_pk_alg:cur <- $r4
	@DEBUG_VALUE: mbedtls_oid_get_oid_by_pk_alg:olen <- $r2
	@DEBUG_VALUE: mbedtls_oid_get_oid_by_pk_alg:oid <- $r1
	@DEBUG_VALUE: mbedtls_oid_get_oid_by_pk_alg:pk_alg <- $r0
	@DEBUG_VALUE: mbedtls_oid_get_oid_by_pk_alg:cur <- $r4
	.loc	3 451 1                         @ ../../../components/network/thread/subg_openthread/third_party/mbedtls/repo/library/oid.c:451:1
	ldr.w	r3, [lr, #36]
	mov	lr, r4
.Ltmp96:
	.loc	3 451 1                         @ ../../../components/network/thread/subg_openthread/third_party/mbedtls/repo/library/oid.c:451:1
	cmp	r3, r0
	bne	.LBB9_3
.Ltmp97:
.LBB9_5:
	@DEBUG_VALUE: mbedtls_oid_get_oid_by_pk_alg:cur <- $r4
	@DEBUG_VALUE: mbedtls_oid_get_oid_by_pk_alg:olen <- $r2
	@DEBUG_VALUE: mbedtls_oid_get_oid_by_pk_alg:oid <- $r1
	@DEBUG_VALUE: mbedtls_oid_get_oid_by_pk_alg:pk_alg <- $r0
	.loc	3 451 1                         @ ../../../components/network/thread/subg_openthread/third_party/mbedtls/repo/library/oid.c:451:1
	ldr	r0, [r4, #4]
.Ltmp98:
	@DEBUG_VALUE: mbedtls_oid_get_oid_by_pk_alg:pk_alg <- [DW_OP_LLVM_entry_value 1] $r0
	str.w	r12, [r1]
	str	r0, [r2]
	movs	r0, #0
.Ltmp99:
	.loc	3 451 1                         @ ../../../components/network/thread/subg_openthread/third_party/mbedtls/repo/library/oid.c:451:1
	pop	{r4, pc}
.Ltmp100:
.LBB9_6:
	@DEBUG_VALUE: mbedtls_oid_get_oid_by_pk_alg:cur <- $r4
	@DEBUG_VALUE: mbedtls_oid_get_oid_by_pk_alg:olen <- $r2
	@DEBUG_VALUE: mbedtls_oid_get_oid_by_pk_alg:oid <- $r1
	@DEBUG_VALUE: mbedtls_oid_get_oid_by_pk_alg:pk_alg <- $r0
	.loc	3 0 1                           @ ../../../components/network/thread/subg_openthread/third_party/mbedtls/repo/library/oid.c:0:1
	mvn	r0, #45
.Ltmp101:
	@DEBUG_VALUE: mbedtls_oid_get_oid_by_pk_alg:pk_alg <- [DW_OP_LLVM_entry_value 1] $r0
	.loc	3 451 1                         @ ../../../components/network/thread/subg_openthread/third_party/mbedtls/repo/library/oid.c:451:1
	pop	{r4, pc}
.Ltmp102:
.Lfunc_end9:
	.size	mbedtls_oid_get_oid_by_pk_alg, .Lfunc_end9-mbedtls_oid_get_oid_by_pk_alg
	.cfi_endproc
	.cantunwind
	.fnend
                                        @ -- End function
	.section	.text.mbedtls_oid_get_ec_grp,"ax",%progbits
	.hidden	mbedtls_oid_get_ec_grp          @ -- Begin function mbedtls_oid_get_ec_grp
	.globl	mbedtls_oid_get_ec_grp
	.p2align	1
	.type	mbedtls_oid_get_ec_grp,%function
	.code	16                              @ @mbedtls_oid_get_ec_grp
	.thumb_func
mbedtls_oid_get_ec_grp:
.Lfunc_begin10:
	.loc	3 537 0 is_stmt 1               @ ../../../components/network/thread/subg_openthread/third_party/mbedtls/repo/library/oid.c:537:0
	.fnstart
	.cfi_startproc
@ %bb.0:
	@DEBUG_VALUE: mbedtls_oid_get_ec_grp:oid <- $r0
	@DEBUG_VALUE: mbedtls_oid_get_ec_grp:oid <- $r0
	@DEBUG_VALUE: mbedtls_oid_get_ec_grp:grp_id <- $r1
	@DEBUG_VALUE: oid_grp_id_from_asn1:oid <- $r0
	@DEBUG_VALUE: oid_grp_id_from_asn1:oid <- $r0
	.save	{r4, lr}
	push	{r4, lr}
	.cfi_def_cfa_offset 8
	.cfi_offset lr, -4
	.cfi_offset r4, -8
	@DEBUG_VALUE: mbedtls_oid_get_ec_grp:grp_id <- $r1
.Ltmp103:
	.loc	3 536 1 prologue_end            @ ../../../components/network/thread/subg_openthread/third_party/mbedtls/repo/library/oid.c:536:1
	cbz	r0, .LBB10_3
.Ltmp104:
@ %bb.1:
	@DEBUG_VALUE: mbedtls_oid_get_ec_grp:grp_id <- $r1
	@DEBUG_VALUE: oid_grp_id_from_asn1:oid <- $r0
	@DEBUG_VALUE: mbedtls_oid_get_ec_grp:oid <- $r0
	.loc	3 0 1 is_stmt 0                 @ ../../../components/network/thread/subg_openthread/third_party/mbedtls/repo/library/oid.c:0:1
	mov	r4, r1
.Ltmp105:
	@DEBUG_VALUE: mbedtls_oid_get_ec_grp:grp_id <- $r4
	@DEBUG_VALUE: mbedtls_oid_get_ec_grp:grp_id <- $r4
	ldr	r1, [r0, #4]
.Ltmp106:
	.loc	3 536 1                         @ ../../../components/network/thread/subg_openthread/third_party/mbedtls/repo/library/oid.c:536:1
	cmp	r1, #8
	bne	.LBB10_3
.Ltmp107:
@ %bb.2:
	@DEBUG_VALUE: mbedtls_oid_get_ec_grp:grp_id <- $r4
	@DEBUG_VALUE: oid_grp_id_from_asn1:oid <- $r0
	@DEBUG_VALUE: mbedtls_oid_get_ec_grp:oid <- $r0
	ldr	r1, [r0, #8]
	movw	r0, :lower16:.L.str.134
.Ltmp108:
	@DEBUG_VALUE: mbedtls_oid_get_ec_grp:oid <- [DW_OP_LLVM_entry_value 1] $r0
	movt	r0, :upper16:.L.str.134
	movs	r2, #8
	bl	memcmp
.Ltmp109:
	.loc	3 536 1                         @ ../../../components/network/thread/subg_openthread/third_party/mbedtls/repo/library/oid.c:536:1
	cbz	r0, .LBB10_4
.Ltmp110:
.LBB10_3:
	.loc	3 0 1                           @ ../../../components/network/thread/subg_openthread/third_party/mbedtls/repo/library/oid.c:0:1
	mvn	r0, #45
	.loc	3 537 1 is_stmt 1               @ ../../../components/network/thread/subg_openthread/third_party/mbedtls/repo/library/oid.c:537:1
	pop	{r4, pc}
.LBB10_4:
.Ltmp111:
	@DEBUG_VALUE: mbedtls_oid_get_ec_grp:grp_id <- $r4
	@DEBUG_VALUE: mbedtls_oid_get_ec_grp:oid <- [DW_OP_LLVM_entry_value 1] $r0
	.loc	3 0 1 is_stmt 0                 @ ../../../components/network/thread/subg_openthread/third_party/mbedtls/repo/library/oid.c:0:1
	movs	r0, #3
	.loc	3 537 1                         @ ../../../components/network/thread/subg_openthread/third_party/mbedtls/repo/library/oid.c:537:1
	str	r0, [r4]
	movs	r0, #0
	pop	{r4, pc}
.Ltmp112:
.Lfunc_end10:
	.size	mbedtls_oid_get_ec_grp, .Lfunc_end10-mbedtls_oid_get_ec_grp
	.cfi_endproc
	.cantunwind
	.fnend
                                        @ -- End function
	.section	.text.mbedtls_oid_get_oid_by_ec_grp,"ax",%progbits
	.hidden	mbedtls_oid_get_oid_by_ec_grp   @ -- Begin function mbedtls_oid_get_oid_by_ec_grp
	.globl	mbedtls_oid_get_oid_by_ec_grp
	.p2align	1
	.type	mbedtls_oid_get_oid_by_ec_grp,%function
	.code	16                              @ @mbedtls_oid_get_oid_by_ec_grp
	.thumb_func
mbedtls_oid_get_oid_by_ec_grp:
.Lfunc_begin11:
	.loc	3 538 0 is_stmt 1               @ ../../../components/network/thread/subg_openthread/third_party/mbedtls/repo/library/oid.c:538:0
	.fnstart
	.cfi_startproc
@ %bb.0:
	@DEBUG_VALUE: mbedtls_oid_get_oid_by_ec_grp:grp_id <- $r0
	@DEBUG_VALUE: mbedtls_oid_get_oid_by_ec_grp:grp_id <- $r0
	@DEBUG_VALUE: mbedtls_oid_get_oid_by_ec_grp:oid <- $r1
	@DEBUG_VALUE: mbedtls_oid_get_oid_by_ec_grp:olen <- $r2
	@DEBUG_VALUE: mbedtls_oid_get_oid_by_ec_grp:olen <- $r2
	.loc	3 538 1 prologue_end            @ ../../../components/network/thread/subg_openthread/third_party/mbedtls/repo/library/oid.c:538:1
	cmp	r0, #3
	@DEBUG_VALUE: mbedtls_oid_get_oid_by_ec_grp:oid <- $r1
	itt	ne
	mvnne	r0, #45
.Ltmp113:
	@DEBUG_VALUE: mbedtls_oid_get_oid_by_ec_grp:grp_id <- [DW_OP_LLVM_entry_value 1] $r0
	.loc	3 538 1 is_stmt 0               @ ../../../components/network/thread/subg_openthread/third_party/mbedtls/repo/library/oid.c:538:1
	bxne	lr
.Ltmp114:
.LBB11_1:
	@DEBUG_VALUE: mbedtls_oid_get_oid_by_ec_grp:olen <- $r2
	@DEBUG_VALUE: mbedtls_oid_get_oid_by_ec_grp:oid <- $r1
	@DEBUG_VALUE: mbedtls_oid_get_oid_by_ec_grp:grp_id <- [DW_OP_LLVM_entry_value 1] $r0
	.loc	3 538 1                         @ ../../../components/network/thread/subg_openthread/third_party/mbedtls/repo/library/oid.c:538:1
	movw	r0, :lower16:.L.str.134
	movt	r0, :upper16:.L.str.134
	str	r0, [r1]
	movs	r0, #8
	str	r0, [r2]
	movs	r0, #0
.Ltmp115:
	.loc	3 538 1                         @ ../../../components/network/thread/subg_openthread/third_party/mbedtls/repo/library/oid.c:538:1
	bx	lr
.Ltmp116:
.Lfunc_end11:
	.size	mbedtls_oid_get_oid_by_ec_grp, .Lfunc_end11-mbedtls_oid_get_oid_by_ec_grp
	.cfi_endproc
	.cantunwind
	.fnend
                                        @ -- End function
	.section	.text.mbedtls_oid_get_cipher_alg,"ax",%progbits
	.hidden	mbedtls_oid_get_cipher_alg      @ -- Begin function mbedtls_oid_get_cipher_alg
	.globl	mbedtls_oid_get_cipher_alg
	.p2align	1
	.type	mbedtls_oid_get_cipher_alg,%function
	.code	16                              @ @mbedtls_oid_get_cipher_alg
	.thumb_func
mbedtls_oid_get_cipher_alg:
.Lfunc_begin12:
	.loc	3 567 0 is_stmt 1               @ ../../../components/network/thread/subg_openthread/third_party/mbedtls/repo/library/oid.c:567:0
	.fnstart
	.cfi_startproc
@ %bb.0:
	@DEBUG_VALUE: mbedtls_oid_get_cipher_alg:oid <- $r0
	@DEBUG_VALUE: mbedtls_oid_get_cipher_alg:cipher_alg <- $r1
	@DEBUG_VALUE: oid_cipher_alg_from_asn1:oid <- $r0
	@DEBUG_VALUE: oid_cipher_alg_from_asn1:oid <- $r0
	@DEBUG_VALUE: mbedtls_oid_get_cipher_alg:oid <- $r0
	.save	{r4, r5, r6, r7, lr}
	push	{r4, r5, r6, r7, lr}
	.cfi_def_cfa_offset 20
	.cfi_offset lr, -4
	.cfi_offset r7, -8
	.cfi_offset r6, -12
	.cfi_offset r5, -16
	.cfi_offset r4, -20
	.pad	#4
	sub	sp, #4
	.cfi_def_cfa_offset 24
.Ltmp117:
	@DEBUG_VALUE: oid_cipher_alg_from_asn1:cur <- undef
	@DEBUG_VALUE: mbedtls_oid_get_cipher_alg:cipher_alg <- $r1
	.loc	3 566 1 prologue_end            @ ../../../components/network/thread/subg_openthread/third_party/mbedtls/repo/library/oid.c:566:1
	cbz	r0, .LBB12_5
.Ltmp118:
@ %bb.1:
	@DEBUG_VALUE: mbedtls_oid_get_cipher_alg:cipher_alg <- $r1
	@DEBUG_VALUE: oid_cipher_alg_from_asn1:oid <- $r0
	@DEBUG_VALUE: mbedtls_oid_get_cipher_alg:oid <- $r0
	.loc	3 0 1 is_stmt 0                 @ ../../../components/network/thread/subg_openthread/third_party/mbedtls/repo/library/oid.c:0:1
	mov	r5, r0
.Ltmp119:
	@DEBUG_VALUE: mbedtls_oid_get_cipher_alg:oid <- $r5
	@DEBUG_VALUE: mbedtls_oid_get_cipher_alg:oid <- $r5
	@DEBUG_VALUE: oid_cipher_alg_from_asn1:oid <- $r5
	movw	r0, :lower16:oid_cipher_alg
	movt	r0, :upper16:oid_cipher_alg
	add.w	r7, r0, #16
	ldr	r6, [r5, #4]
	movw	r0, :lower16:.L.str.136
	mov	r4, r1
.Ltmp120:
	@DEBUG_VALUE: mbedtls_oid_get_cipher_alg:cipher_alg <- $r4
	@DEBUG_VALUE: mbedtls_oid_get_cipher_alg:cipher_alg <- $r4
	movt	r0, :upper16:.L.str.136
.Ltmp121:
	@DEBUG_VALUE: oid_cipher_alg_from_asn1:cur <- undef
	.p2align	2
.LBB12_2:                               @ =>This Inner Loop Header: Depth=1
	@DEBUG_VALUE: oid_cipher_alg_from_asn1:oid <- $r5
	@DEBUG_VALUE: mbedtls_oid_get_cipher_alg:oid <- $r5
	@DEBUG_VALUE: mbedtls_oid_get_cipher_alg:cipher_alg <- $r4
	@DEBUG_VALUE: oid_cipher_alg_from_asn1:cur <- undef
	@DEBUG_VALUE: oid_cipher_alg_from_asn1:p <- undef
	.loc	3 566 1                         @ ../../../components/network/thread/subg_openthread/third_party/mbedtls/repo/library/oid.c:566:1
	ldr	r1, [r7, #-12]
	cmp	r1, r6
	bne	.LBB12_4
.Ltmp122:
@ %bb.3:                                @   in Loop: Header=BB12_2 Depth=1
	@DEBUG_VALUE: oid_cipher_alg_from_asn1:oid <- $r5
	@DEBUG_VALUE: mbedtls_oid_get_cipher_alg:oid <- $r5
	@DEBUG_VALUE: mbedtls_oid_get_cipher_alg:cipher_alg <- $r4
	@DEBUG_VALUE: oid_cipher_alg_from_asn1:p <- undef
	ldr	r1, [r5, #8]
	mov	r2, r6
	bl	memcmp
.Ltmp123:
	.loc	3 566 1                         @ ../../../components/network/thread/subg_openthread/third_party/mbedtls/repo/library/oid.c:566:1
	cbz	r0, .LBB12_6
.Ltmp124:
.LBB12_4:                               @   in Loop: Header=BB12_2 Depth=1
	@DEBUG_VALUE: oid_cipher_alg_from_asn1:oid <- $r5
	@DEBUG_VALUE: mbedtls_oid_get_cipher_alg:oid <- $r5
	@DEBUG_VALUE: mbedtls_oid_get_cipher_alg:cipher_alg <- $r4
	@DEBUG_VALUE: oid_cipher_alg_from_asn1:cur <- [DW_OP_plus_uconst 20, DW_OP_stack_value] undef
	@DEBUG_VALUE: oid_cipher_alg_from_asn1:p <- [DW_OP_plus_uconst 20, DW_OP_stack_value] undef
	.loc	3 566 1                         @ ../../../components/network/thread/subg_openthread/third_party/mbedtls/repo/library/oid.c:566:1
	ldr	r0, [r7, #4]
	adds	r7, #20
	cmp	r0, #0
	bne	.LBB12_2
.Ltmp125:
.LBB12_5:
	.loc	3 0 1                           @ ../../../components/network/thread/subg_openthread/third_party/mbedtls/repo/library/oid.c:0:1
	mvn	r0, #45
	b	.LBB12_7
.LBB12_6:
.Ltmp126:
	@DEBUG_VALUE: mbedtls_oid_get_cipher_alg:oid <- $r5
	@DEBUG_VALUE: mbedtls_oid_get_cipher_alg:cipher_alg <- $r4
	@DEBUG_VALUE: mbedtls_oid_get_cipher_alg:data <- undef
	.loc	3 567 1 is_stmt 1               @ ../../../components/network/thread/subg_openthread/third_party/mbedtls/repo/library/oid.c:567:1
	ldr	r0, [r7]
	str	r0, [r4]
	movs	r0, #0
.Ltmp127:
.LBB12_7:
	add	sp, #4
	pop	{r4, r5, r6, r7, pc}
.Ltmp128:
.Lfunc_end12:
	.size	mbedtls_oid_get_cipher_alg, .Lfunc_end12-mbedtls_oid_get_cipher_alg
	.cfi_endproc
	.cantunwind
	.fnend
                                        @ -- End function
	.section	.text.mbedtls_oid_get_md_alg,"ax",%progbits
	.hidden	mbedtls_oid_get_md_alg          @ -- Begin function mbedtls_oid_get_md_alg
	.globl	mbedtls_oid_get_md_alg
	.p2align	1
	.type	mbedtls_oid_get_md_alg,%function
	.code	16                              @ @mbedtls_oid_get_md_alg
	.thumb_func
mbedtls_oid_get_md_alg:
.Lfunc_begin13:
	.loc	3 638 0                         @ ../../../components/network/thread/subg_openthread/third_party/mbedtls/repo/library/oid.c:638:0
	.fnstart
	.cfi_startproc
@ %bb.0:
	@DEBUG_VALUE: mbedtls_oid_get_md_alg:oid <- $r0
	@DEBUG_VALUE: mbedtls_oid_get_md_alg:md_alg <- $r1
	@DEBUG_VALUE: oid_md_alg_from_asn1:oid <- $r0
	@DEBUG_VALUE: oid_md_alg_from_asn1:oid <- $r0
	@DEBUG_VALUE: mbedtls_oid_get_md_alg:oid <- $r0
	.save	{r4, r5, r6, r7, lr}
	push	{r4, r5, r6, r7, lr}
	.cfi_def_cfa_offset 20
	.cfi_offset lr, -4
	.cfi_offset r7, -8
	.cfi_offset r6, -12
	.cfi_offset r5, -16
	.cfi_offset r4, -20
	.pad	#4
	sub	sp, #4
	.cfi_def_cfa_offset 24
.Ltmp129:
	@DEBUG_VALUE: oid_md_alg_from_asn1:cur <- undef
	@DEBUG_VALUE: oid_md_alg_from_asn1:p <- undef
	@DEBUG_VALUE: mbedtls_oid_get_md_alg:md_alg <- $r1
	.loc	3 637 1 prologue_end            @ ../../../components/network/thread/subg_openthread/third_party/mbedtls/repo/library/oid.c:637:1
	cbz	r0, .LBB13_5
.Ltmp130:
@ %bb.1:
	@DEBUG_VALUE: mbedtls_oid_get_md_alg:md_alg <- $r1
	@DEBUG_VALUE: oid_md_alg_from_asn1:oid <- $r0
	@DEBUG_VALUE: mbedtls_oid_get_md_alg:oid <- $r0
	.loc	3 0 1 is_stmt 0                 @ ../../../components/network/thread/subg_openthread/third_party/mbedtls/repo/library/oid.c:0:1
	mov	r5, r0
.Ltmp131:
	@DEBUG_VALUE: mbedtls_oid_get_md_alg:oid <- $r5
	@DEBUG_VALUE: mbedtls_oid_get_md_alg:oid <- $r5
	@DEBUG_VALUE: oid_md_alg_from_asn1:oid <- $r5
	movw	r0, :lower16:oid_md_alg
	movt	r0, :upper16:oid_md_alg
	add.w	r7, r0, #16
	ldr	r6, [r5, #4]
	movw	r0, :lower16:.L.str.142
	mov	r4, r1
.Ltmp132:
	@DEBUG_VALUE: mbedtls_oid_get_md_alg:md_alg <- $r4
	@DEBUG_VALUE: mbedtls_oid_get_md_alg:md_alg <- $r4
	movt	r0, :upper16:.L.str.142
.Ltmp133:
	@DEBUG_VALUE: oid_md_alg_from_asn1:cur <- undef
	@DEBUG_VALUE: oid_md_alg_from_asn1:p <- undef
	.p2align	2
.LBB13_2:                               @ =>This Inner Loop Header: Depth=1
	@DEBUG_VALUE: oid_md_alg_from_asn1:oid <- $r5
	@DEBUG_VALUE: mbedtls_oid_get_md_alg:oid <- $r5
	@DEBUG_VALUE: mbedtls_oid_get_md_alg:md_alg <- $r4
	@DEBUG_VALUE: oid_md_alg_from_asn1:p <- undef
	@DEBUG_VALUE: oid_md_alg_from_asn1:cur <- undef
	.loc	3 637 1                         @ ../../../components/network/thread/subg_openthread/third_party/mbedtls/repo/library/oid.c:637:1
	ldr	r1, [r7, #-12]
	cmp	r1, r6
	bne	.LBB13_4
.Ltmp134:
@ %bb.3:                                @   in Loop: Header=BB13_2 Depth=1
	@DEBUG_VALUE: oid_md_alg_from_asn1:oid <- $r5
	@DEBUG_VALUE: mbedtls_oid_get_md_alg:oid <- $r5
	@DEBUG_VALUE: mbedtls_oid_get_md_alg:md_alg <- $r4
	@DEBUG_VALUE: oid_md_alg_from_asn1:p <- undef
	ldr	r1, [r5, #8]
	mov	r2, r6
	bl	memcmp
.Ltmp135:
	.loc	3 637 1                         @ ../../../components/network/thread/subg_openthread/third_party/mbedtls/repo/library/oid.c:637:1
	cbz	r0, .LBB13_6
.Ltmp136:
.LBB13_4:                               @   in Loop: Header=BB13_2 Depth=1
	@DEBUG_VALUE: oid_md_alg_from_asn1:oid <- $r5
	@DEBUG_VALUE: mbedtls_oid_get_md_alg:oid <- $r5
	@DEBUG_VALUE: mbedtls_oid_get_md_alg:md_alg <- $r4
	@DEBUG_VALUE: oid_md_alg_from_asn1:p <- [DW_OP_plus_uconst 20, DW_OP_stack_value] undef
	@DEBUG_VALUE: oid_md_alg_from_asn1:cur <- [DW_OP_plus_uconst 20, DW_OP_stack_value] undef
	.loc	3 637 1                         @ ../../../components/network/thread/subg_openthread/third_party/mbedtls/repo/library/oid.c:637:1
	ldr	r0, [r7, #4]
	adds	r7, #20
	cmp	r0, #0
	bne	.LBB13_2
.Ltmp137:
.LBB13_5:
	.loc	3 0 1                           @ ../../../components/network/thread/subg_openthread/third_party/mbedtls/repo/library/oid.c:0:1
	mvn	r0, #45
	b	.LBB13_7
.LBB13_6:
.Ltmp138:
	@DEBUG_VALUE: mbedtls_oid_get_md_alg:oid <- $r5
	@DEBUG_VALUE: mbedtls_oid_get_md_alg:md_alg <- $r4
	@DEBUG_VALUE: mbedtls_oid_get_md_alg:data <- undef
	.loc	3 638 1 is_stmt 1               @ ../../../components/network/thread/subg_openthread/third_party/mbedtls/repo/library/oid.c:638:1
	ldr	r0, [r7]
	str	r0, [r4]
	movs	r0, #0
.Ltmp139:
.LBB13_7:
	add	sp, #4
	pop	{r4, r5, r6, r7, pc}
.Ltmp140:
.Lfunc_end13:
	.size	mbedtls_oid_get_md_alg, .Lfunc_end13-mbedtls_oid_get_md_alg
	.cfi_endproc
	.cantunwind
	.fnend
                                        @ -- End function
	.section	.text.mbedtls_oid_get_oid_by_md,"ax",%progbits
	.hidden	mbedtls_oid_get_oid_by_md       @ -- Begin function mbedtls_oid_get_oid_by_md
	.globl	mbedtls_oid_get_oid_by_md
	.p2align	1
	.type	mbedtls_oid_get_oid_by_md,%function
	.code	16                              @ @mbedtls_oid_get_oid_by_md
	.thumb_func
mbedtls_oid_get_oid_by_md:
.Lfunc_begin14:
	.loc	3 639 0                         @ ../../../components/network/thread/subg_openthread/third_party/mbedtls/repo/library/oid.c:639:0
	.fnstart
	.cfi_startproc
@ %bb.0:
	@DEBUG_VALUE: mbedtls_oid_get_oid_by_md:md_alg <- $r0
	@DEBUG_VALUE: mbedtls_oid_get_oid_by_md:md_alg <- $r0
	@DEBUG_VALUE: mbedtls_oid_get_oid_by_md:oid <- $r1
	@DEBUG_VALUE: mbedtls_oid_get_oid_by_md:olen <- $r2
	@DEBUG_VALUE: mbedtls_oid_get_oid_by_md:olen <- $r2
	.save	{r4, lr}
	push	{r4, lr}
	.cfi_def_cfa_offset 8
	.cfi_offset lr, -4
	.cfi_offset r4, -8
.Ltmp141:
	@DEBUG_VALUE: mbedtls_oid_get_oid_by_md:cur <- undef
	.loc	3 639 1 prologue_end            @ ../../../components/network/thread/subg_openthread/third_party/mbedtls/repo/library/oid.c:639:1
	cmp	r0, #5
	@DEBUG_VALUE: mbedtls_oid_get_oid_by_md:oid <- $r1
	bne	.LBB14_2
.Ltmp142:
@ %bb.1:
	@DEBUG_VALUE: mbedtls_oid_get_oid_by_md:olen <- $r2
	@DEBUG_VALUE: mbedtls_oid_get_oid_by_md:oid <- $r1
	@DEBUG_VALUE: mbedtls_oid_get_oid_by_md:md_alg <- $r0
	.loc	3 0 1 is_stmt 0                 @ ../../../components/network/thread/subg_openthread/third_party/mbedtls/repo/library/oid.c:0:1
	movw	r4, :lower16:oid_md_alg
	movw	r12, :lower16:.L.str.142
	movt	r4, :upper16:oid_md_alg
.Ltmp143:
	@DEBUG_VALUE: mbedtls_oid_get_oid_by_md:cur <- $r4
	movt	r12, :upper16:.L.str.142
	b	.LBB14_5
.Ltmp144:
.LBB14_2:
	@DEBUG_VALUE: mbedtls_oid_get_oid_by_md:olen <- $r2
	@DEBUG_VALUE: mbedtls_oid_get_oid_by_md:oid <- $r1
	@DEBUG_VALUE: mbedtls_oid_get_oid_by_md:md_alg <- $r0
	movw	lr, :lower16:oid_md_alg
	movt	lr, :upper16:oid_md_alg
	.loc	3 639 1                         @ ../../../components/network/thread/subg_openthread/third_party/mbedtls/repo/library/oid.c:639:1
	mov	r4, lr
.Ltmp145:
	.p2align	2
.LBB14_3:                               @ =>This Inner Loop Header: Depth=1
	@DEBUG_VALUE: mbedtls_oid_get_oid_by_md:olen <- $r2
	@DEBUG_VALUE: mbedtls_oid_get_oid_by_md:oid <- $r1
	@DEBUG_VALUE: mbedtls_oid_get_oid_by_md:md_alg <- $r0
	@DEBUG_VALUE: mbedtls_oid_get_oid_by_md:cur <- $lr
	ldr	r12, [r4, #20]!
.Ltmp146:
	@DEBUG_VALUE: mbedtls_oid_get_oid_by_md:cur <- $r4
	cmp.w	r12, #0
	beq	.LBB14_6
.Ltmp147:
@ %bb.4:                                @   in Loop: Header=BB14_3 Depth=1
	@DEBUG_VALUE: mbedtls_oid_get_oid_by_md:cur <- $r4
	@DEBUG_VALUE: mbedtls_oid_get_oid_by_md:olen <- $r2
	@DEBUG_VALUE: mbedtls_oid_get_oid_by_md:oid <- $r1
	@DEBUG_VALUE: mbedtls_oid_get_oid_by_md:md_alg <- $r0
	@DEBUG_VALUE: mbedtls_oid_get_oid_by_md:cur <- $r4
	.loc	3 639 1                         @ ../../../components/network/thread/subg_openthread/third_party/mbedtls/repo/library/oid.c:639:1
	ldr.w	r3, [lr, #36]
	mov	lr, r4
.Ltmp148:
	.loc	3 639 1                         @ ../../../components/network/thread/subg_openthread/third_party/mbedtls/repo/library/oid.c:639:1
	cmp	r3, r0
	bne	.LBB14_3
.Ltmp149:
.LBB14_5:
	@DEBUG_VALUE: mbedtls_oid_get_oid_by_md:cur <- $r4
	@DEBUG_VALUE: mbedtls_oid_get_oid_by_md:olen <- $r2
	@DEBUG_VALUE: mbedtls_oid_get_oid_by_md:oid <- $r1
	@DEBUG_VALUE: mbedtls_oid_get_oid_by_md:md_alg <- $r0
	.loc	3 639 1                         @ ../../../components/network/thread/subg_openthread/third_party/mbedtls/repo/library/oid.c:639:1
	ldr	r0, [r4, #4]
.Ltmp150:
	@DEBUG_VALUE: mbedtls_oid_get_oid_by_md:md_alg <- [DW_OP_LLVM_entry_value 1] $r0
	str.w	r12, [r1]
	str	r0, [r2]
	movs	r0, #0
.Ltmp151:
	.loc	3 639 1                         @ ../../../components/network/thread/subg_openthread/third_party/mbedtls/repo/library/oid.c:639:1
	pop	{r4, pc}
.Ltmp152:
.LBB14_6:
	@DEBUG_VALUE: mbedtls_oid_get_oid_by_md:cur <- $r4
	@DEBUG_VALUE: mbedtls_oid_get_oid_by_md:olen <- $r2
	@DEBUG_VALUE: mbedtls_oid_get_oid_by_md:oid <- $r1
	@DEBUG_VALUE: mbedtls_oid_get_oid_by_md:md_alg <- $r0
	.loc	3 0 1                           @ ../../../components/network/thread/subg_openthread/third_party/mbedtls/repo/library/oid.c:0:1
	mvn	r0, #45
.Ltmp153:
	@DEBUG_VALUE: mbedtls_oid_get_oid_by_md:md_alg <- [DW_OP_LLVM_entry_value 1] $r0
	.loc	3 639 1                         @ ../../../components/network/thread/subg_openthread/third_party/mbedtls/repo/library/oid.c:639:1
	pop	{r4, pc}
.Ltmp154:
.Lfunc_end14:
	.size	mbedtls_oid_get_oid_by_md, .Lfunc_end14-mbedtls_oid_get_oid_by_md
	.cfi_endproc
	.cantunwind
	.fnend
                                        @ -- End function
	.section	.text.mbedtls_oid_get_md_hmac,"ax",%progbits
	.hidden	mbedtls_oid_get_md_hmac         @ -- Begin function mbedtls_oid_get_md_hmac
	.globl	mbedtls_oid_get_md_hmac
	.p2align	1
	.type	mbedtls_oid_get_md_hmac,%function
	.code	16                              @ @mbedtls_oid_get_md_hmac
	.thumb_func
mbedtls_oid_get_md_hmac:
.Lfunc_begin15:
	.loc	3 684 0 is_stmt 1               @ ../../../components/network/thread/subg_openthread/third_party/mbedtls/repo/library/oid.c:684:0
	.fnstart
	.cfi_startproc
@ %bb.0:
	@DEBUG_VALUE: mbedtls_oid_get_md_hmac:oid <- $r0
	@DEBUG_VALUE: mbedtls_oid_get_md_hmac:md_hmac <- $r1
	@DEBUG_VALUE: oid_md_hmac_from_asn1:oid <- $r0
	@DEBUG_VALUE: oid_md_hmac_from_asn1:oid <- $r0
	@DEBUG_VALUE: mbedtls_oid_get_md_hmac:oid <- $r0
	.save	{r4, r5, r6, r7, lr}
	push	{r4, r5, r6, r7, lr}
	.cfi_def_cfa_offset 20
	.cfi_offset lr, -4
	.cfi_offset r7, -8
	.cfi_offset r6, -12
	.cfi_offset r5, -16
	.cfi_offset r4, -20
	.pad	#4
	sub	sp, #4
	.cfi_def_cfa_offset 24
.Ltmp155:
	@DEBUG_VALUE: oid_md_hmac_from_asn1:cur <- undef
	@DEBUG_VALUE: mbedtls_oid_get_md_hmac:md_hmac <- $r1
	.loc	3 683 1 prologue_end            @ ../../../components/network/thread/subg_openthread/third_party/mbedtls/repo/library/oid.c:683:1
	cbz	r0, .LBB15_5
.Ltmp156:
@ %bb.1:
	@DEBUG_VALUE: mbedtls_oid_get_md_hmac:md_hmac <- $r1
	@DEBUG_VALUE: oid_md_hmac_from_asn1:oid <- $r0
	@DEBUG_VALUE: mbedtls_oid_get_md_hmac:oid <- $r0
	.loc	3 0 1 is_stmt 0                 @ ../../../components/network/thread/subg_openthread/third_party/mbedtls/repo/library/oid.c:0:1
	mov	r5, r0
.Ltmp157:
	@DEBUG_VALUE: mbedtls_oid_get_md_hmac:oid <- $r5
	@DEBUG_VALUE: mbedtls_oid_get_md_hmac:oid <- $r5
	@DEBUG_VALUE: oid_md_hmac_from_asn1:oid <- $r5
	movw	r0, :lower16:oid_md_hmac
	movt	r0, :upper16:oid_md_hmac
	add.w	r7, r0, #16
	ldr	r6, [r5, #4]
	movw	r0, :lower16:.L.str.148
	mov	r4, r1
.Ltmp158:
	@DEBUG_VALUE: mbedtls_oid_get_md_hmac:md_hmac <- $r4
	@DEBUG_VALUE: mbedtls_oid_get_md_hmac:md_hmac <- $r4
	movt	r0, :upper16:.L.str.148
.Ltmp159:
	@DEBUG_VALUE: oid_md_hmac_from_asn1:cur <- undef
	.p2align	2
.LBB15_2:                               @ =>This Inner Loop Header: Depth=1
	@DEBUG_VALUE: oid_md_hmac_from_asn1:oid <- $r5
	@DEBUG_VALUE: mbedtls_oid_get_md_hmac:oid <- $r5
	@DEBUG_VALUE: mbedtls_oid_get_md_hmac:md_hmac <- $r4
	@DEBUG_VALUE: oid_md_hmac_from_asn1:cur <- undef
	@DEBUG_VALUE: oid_md_hmac_from_asn1:p <- undef
	.loc	3 683 1                         @ ../../../components/network/thread/subg_openthread/third_party/mbedtls/repo/library/oid.c:683:1
	ldr	r1, [r7, #-12]
	cmp	r1, r6
	bne	.LBB15_4
.Ltmp160:
@ %bb.3:                                @   in Loop: Header=BB15_2 Depth=1
	@DEBUG_VALUE: oid_md_hmac_from_asn1:oid <- $r5
	@DEBUG_VALUE: mbedtls_oid_get_md_hmac:oid <- $r5
	@DEBUG_VALUE: mbedtls_oid_get_md_hmac:md_hmac <- $r4
	@DEBUG_VALUE: oid_md_hmac_from_asn1:p <- undef
	ldr	r1, [r5, #8]
	mov	r2, r6
	bl	memcmp
.Ltmp161:
	.loc	3 683 1                         @ ../../../components/network/thread/subg_openthread/third_party/mbedtls/repo/library/oid.c:683:1
	cbz	r0, .LBB15_6
.Ltmp162:
.LBB15_4:                               @   in Loop: Header=BB15_2 Depth=1
	@DEBUG_VALUE: oid_md_hmac_from_asn1:oid <- $r5
	@DEBUG_VALUE: mbedtls_oid_get_md_hmac:oid <- $r5
	@DEBUG_VALUE: mbedtls_oid_get_md_hmac:md_hmac <- $r4
	@DEBUG_VALUE: oid_md_hmac_from_asn1:cur <- [DW_OP_plus_uconst 20, DW_OP_stack_value] undef
	@DEBUG_VALUE: oid_md_hmac_from_asn1:p <- [DW_OP_plus_uconst 20, DW_OP_stack_value] undef
	.loc	3 683 1                         @ ../../../components/network/thread/subg_openthread/third_party/mbedtls/repo/library/oid.c:683:1
	ldr	r0, [r7, #4]
	adds	r7, #20
	cmp	r0, #0
	bne	.LBB15_2
.Ltmp163:
.LBB15_5:
	.loc	3 0 1                           @ ../../../components/network/thread/subg_openthread/third_party/mbedtls/repo/library/oid.c:0:1
	mvn	r0, #45
	b	.LBB15_7
.LBB15_6:
.Ltmp164:
	@DEBUG_VALUE: mbedtls_oid_get_md_hmac:oid <- $r5
	@DEBUG_VALUE: mbedtls_oid_get_md_hmac:md_hmac <- $r4
	@DEBUG_VALUE: mbedtls_oid_get_md_hmac:data <- undef
	.loc	3 684 1 is_stmt 1               @ ../../../components/network/thread/subg_openthread/third_party/mbedtls/repo/library/oid.c:684:1
	ldr	r0, [r7]
	str	r0, [r4]
	movs	r0, #0
.Ltmp165:
.LBB15_7:
	add	sp, #4
	pop	{r4, r5, r6, r7, pc}
.Ltmp166:
.Lfunc_end15:
	.size	mbedtls_oid_get_md_hmac, .Lfunc_end15-mbedtls_oid_get_md_hmac
	.cfi_endproc
	.cantunwind
	.fnend
                                        @ -- End function
	.section	.text.mbedtls_oid_get_numeric_string,"ax",%progbits
	.hidden	mbedtls_oid_get_numeric_string  @ -- Begin function mbedtls_oid_get_numeric_string
	.globl	mbedtls_oid_get_numeric_string
	.p2align	2
	.type	mbedtls_oid_get_numeric_string,%function
	.code	16                              @ @mbedtls_oid_get_numeric_string
	.thumb_func
mbedtls_oid_get_numeric_string:
.Lfunc_begin16:
	.loc	3 729 0                         @ ../../../components/network/thread/subg_openthread/third_party/mbedtls/repo/library/oid.c:729:0
	.fnstart
	.cfi_startproc
@ %bb.0:
	@DEBUG_VALUE: mbedtls_oid_get_numeric_string:buf <- $r0
	@DEBUG_VALUE: mbedtls_oid_get_numeric_string:size <- $r1
	@DEBUG_VALUE: mbedtls_oid_get_numeric_string:oid <- $r2
	.save	{r4, r5, r6, r7, r8, r9, r10, lr}
	push.w	{r4, r5, r6, r7, r8, r9, r10, lr}
	.cfi_def_cfa_offset 32
	.cfi_offset lr, -4
	.cfi_offset r10, -8
	.cfi_offset r9, -12
	.cfi_offset r8, -16
	.cfi_offset r7, -20
	.cfi_offset r6, -24
	.cfi_offset r5, -28
	.cfi_offset r4, -32
	.pad	#8
	sub	sp, #8
	.cfi_def_cfa_offset 40
.Ltmp167:
	@DEBUG_VALUE: mbedtls_oid_get_numeric_string:p <- $r0
	@DEBUG_VALUE: mbedtls_oid_get_numeric_string:n <- $r1
	mov	r9, r1
.Ltmp168:
	@DEBUG_VALUE: mbedtls_oid_get_numeric_string:size <- $r9
	@DEBUG_VALUE: mbedtls_oid_get_numeric_string:n <- $r9
	@DEBUG_VALUE: mbedtls_oid_get_numeric_string:oid <- $r2
	@DEBUG_VALUE: mbedtls_oid_get_numeric_string:size <- $r9
	.loc	3 739 14 prologue_end           @ ../../../components/network/thread/subg_openthread/third_party/mbedtls/repo/library/oid.c:739:14
	ldr	r1, [r2, #4]
.Ltmp169:
	@DEBUG_VALUE: mbedtls_oid_get_numeric_string:ret <- -110
	@DEBUG_VALUE: mbedtls_oid_get_numeric_string:p <- $r0
	@DEBUG_VALUE: mbedtls_oid_get_numeric_string:buf <- $r0
	.loc	3 742 9                         @ ../../../components/network/thread/subg_openthread/third_party/mbedtls/repo/library/oid.c:742:9
	mov	r6, r9
.Ltmp170:
	.loc	3 739 9                         @ ../../../components/network/thread/subg_openthread/third_party/mbedtls/repo/library/oid.c:739:9
	cmp	r1, #0
	beq	.LBB16_11
.Ltmp171:
@ %bb.1:
	@DEBUG_VALUE: mbedtls_oid_get_numeric_string:n <- $r9
	@DEBUG_VALUE: mbedtls_oid_get_numeric_string:size <- $r9
	@DEBUG_VALUE: mbedtls_oid_get_numeric_string:oid <- $r2
	@DEBUG_VALUE: mbedtls_oid_get_numeric_string:p <- $r0
	@DEBUG_VALUE: mbedtls_oid_get_numeric_string:buf <- $r0
	@DEBUG_VALUE: mbedtls_oid_get_numeric_string:ret <- -110
	.loc	3 0 9 is_stmt 0                 @ ../../../components/network/thread/subg_openthread/third_party/mbedtls/repo/library/oid.c:0:9
	mov	r7, r0
.Ltmp172:
	@DEBUG_VALUE: mbedtls_oid_get_numeric_string:buf <- $r7
	@DEBUG_VALUE: mbedtls_oid_get_numeric_string:buf <- $r7
	@DEBUG_VALUE: mbedtls_oid_get_numeric_string:p <- $r7
	.loc	3 741 53 is_stmt 1              @ ../../../components/network/thread/subg_openthread/third_party/mbedtls/repo/library/oid.c:741:53
	ldr	r0, [r2, #8]
	mov	r5, r2
.Ltmp173:
	@DEBUG_VALUE: mbedtls_oid_get_numeric_string:oid <- $r5
	@DEBUG_VALUE: mbedtls_oid_get_numeric_string:oid <- $r5
	.loc	3 741 48 is_stmt 0              @ ../../../components/network/thread/subg_openthread/third_party/mbedtls/repo/library/oid.c:741:48
	ldrb	r0, [r0]
	movw	r2, #52429
	uxtb	r1, r0
	movt	r2, #52428
	.loc	3 741 58                        @ ../../../components/network/thread/subg_openthread/third_party/mbedtls/repo/library/oid.c:741:58
	umull	r1, r2, r1, r2
	lsrs	r3, r2, #5
	add.w	r1, r3, r3, lsl #2
	sub.w	r0, r0, r1, lsl #3
	.loc	3 741 74                        @ ../../../components/network/thread/subg_openthread/third_party/mbedtls/repo/library/oid.c:741:74
	uxtb	r6, r0
	.loc	3 741 15                        @ ../../../components/network/thread/subg_openthread/third_party/mbedtls/repo/library/oid.c:741:15
	adr	r2, .LCPI16_0
	mov	r0, r7
	mov	r1, r9
	str	r6, [sp]
	bl	__2snprintf
.Ltmp174:
	mov	r1, r0
.Ltmp175:
	@DEBUG_VALUE: mbedtls_oid_get_numeric_string:ret <- $r1
	.loc	3 742 9 is_stmt 1               @ ../../../components/network/thread/subg_openthread/third_party/mbedtls/repo/library/oid.c:742:9
	cmp	r0, #0
	mvn	r0, #10
	bmi	.LBB16_12
.Ltmp176:
@ %bb.2:
	@DEBUG_VALUE: mbedtls_oid_get_numeric_string:n <- $r9
	@DEBUG_VALUE: mbedtls_oid_get_numeric_string:size <- $r9
	@DEBUG_VALUE: mbedtls_oid_get_numeric_string:p <- $r7
	@DEBUG_VALUE: mbedtls_oid_get_numeric_string:buf <- $r7
	@DEBUG_VALUE: mbedtls_oid_get_numeric_string:oid <- $r5
	@DEBUG_VALUE: mbedtls_oid_get_numeric_string:ret <- $r1
	cmp	r1, r9
	bhs	.LBB16_12
.Ltmp177:
@ %bb.3:
	@DEBUG_VALUE: mbedtls_oid_get_numeric_string:n <- $r9
	@DEBUG_VALUE: mbedtls_oid_get_numeric_string:size <- $r9
	@DEBUG_VALUE: mbedtls_oid_get_numeric_string:p <- $r7
	@DEBUG_VALUE: mbedtls_oid_get_numeric_string:buf <- $r7
	@DEBUG_VALUE: mbedtls_oid_get_numeric_string:oid <- $r5
	@DEBUG_VALUE: mbedtls_oid_get_numeric_string:ret <- $r1
	.loc	3 746 26                        @ ../../../components/network/thread/subg_openthread/third_party/mbedtls/repo/library/oid.c:746:26
	ldr	r0, [r5, #4]
.Ltmp178:
	@DEBUG_VALUE: mbedtls_oid_get_numeric_string:i <- 1
	@DEBUG_VALUE: mbedtls_oid_get_numeric_string:value <- 0
	.loc	3 742 9                         @ ../../../components/network/thread/subg_openthread/third_party/mbedtls/repo/library/oid.c:742:9
	sub.w	r6, r9, r1
.Ltmp179:
	@DEBUG_VALUE: mbedtls_oid_get_numeric_string:n <- $r6
	@DEBUG_VALUE: mbedtls_oid_get_numeric_string:p <- undef
	.loc	3 746 5                         @ ../../../components/network/thread/subg_openthread/third_party/mbedtls/repo/library/oid.c:746:5
	cmp	r0, #2
	blo	.LBB16_11
.Ltmp180:
@ %bb.4:
	@DEBUG_VALUE: mbedtls_oid_get_numeric_string:size <- $r9
	@DEBUG_VALUE: mbedtls_oid_get_numeric_string:buf <- $r7
	@DEBUG_VALUE: mbedtls_oid_get_numeric_string:n <- $r6
	@DEBUG_VALUE: mbedtls_oid_get_numeric_string:oid <- $r5
	@DEBUG_VALUE: mbedtls_oid_get_numeric_string:ret <- $r1
	@DEBUG_VALUE: mbedtls_oid_get_numeric_string:value <- 0
	@DEBUG_VALUE: mbedtls_oid_get_numeric_string:i <- 1
	.loc	3 742 9                         @ ../../../components/network/thread/subg_openthread/third_party/mbedtls/repo/library/oid.c:742:9
	add	r7, r1
.Ltmp181:
	@DEBUG_VALUE: mbedtls_oid_get_numeric_string:buf <- [DW_OP_LLVM_entry_value 1] $r0
	@DEBUG_VALUE: mbedtls_oid_get_numeric_string:p <- $r7
	.loc	3 0 9 is_stmt 0                 @ ../../../components/network/thread/subg_openthread/third_party/mbedtls/repo/library/oid.c:0:9
	movs	r4, #1
	mov.w	r10, #0
	adr.w	r8, .LCPI16_1
	movs	r3, #0
.Ltmp182:
	.p2align	2
.LBB16_5:                               @ =>This Inner Loop Header: Depth=1
	@DEBUG_VALUE: mbedtls_oid_get_numeric_string:size <- $r9
	@DEBUG_VALUE: mbedtls_oid_get_numeric_string:p <- $r7
	@DEBUG_VALUE: mbedtls_oid_get_numeric_string:n <- $r6
	@DEBUG_VALUE: mbedtls_oid_get_numeric_string:oid <- $r5
	@DEBUG_VALUE: mbedtls_oid_get_numeric_string:buf <- [DW_OP_LLVM_entry_value 1] $r0
	@DEBUG_VALUE: mbedtls_oid_get_numeric_string:p <- $r7
	@DEBUG_VALUE: mbedtls_oid_get_numeric_string:n <- $r6
	@DEBUG_VALUE: mbedtls_oid_get_numeric_string:value <- $r3
	@DEBUG_VALUE: mbedtls_oid_get_numeric_string:i <- $r4
	.loc	3 749 13 is_stmt 1              @ ../../../components/network/thread/subg_openthread/third_party/mbedtls/repo/library/oid.c:749:13
	cmp.w	r10, r3, lsr #25
	bne	.LBB16_13
.Ltmp183:
@ %bb.6:                                @   in Loop: Header=BB16_5 Depth=1
	@DEBUG_VALUE: mbedtls_oid_get_numeric_string:size <- $r9
	@DEBUG_VALUE: mbedtls_oid_get_numeric_string:p <- $r7
	@DEBUG_VALUE: mbedtls_oid_get_numeric_string:n <- $r6
	@DEBUG_VALUE: mbedtls_oid_get_numeric_string:oid <- $r5
	@DEBUG_VALUE: mbedtls_oid_get_numeric_string:i <- $r4
	@DEBUG_VALUE: mbedtls_oid_get_numeric_string:value <- $r3
	@DEBUG_VALUE: mbedtls_oid_get_numeric_string:buf <- [DW_OP_LLVM_entry_value 1] $r0
	@DEBUG_VALUE: mbedtls_oid_get_numeric_string:value <- undef
	.loc	3 753 23                        @ ../../../components/network/thread/subg_openthread/third_party/mbedtls/repo/library/oid.c:753:23
	ldr	r1, [r5, #8]
	.loc	3 753 18 is_stmt 0              @ ../../../components/network/thread/subg_openthread/third_party/mbedtls/repo/library/oid.c:753:18
	ldrb	r1, [r1, r4]
	.loc	3 753 28                        @ ../../../components/network/thread/subg_openthread/third_party/mbedtls/repo/library/oid.c:753:28
	and	r2, r1, #127
	.loc	3 755 13 is_stmt 1              @ ../../../components/network/thread/subg_openthread/third_party/mbedtls/repo/library/oid.c:755:13
	lsls	r1, r1, #24
	.loc	3 753 15                        @ ../../../components/network/thread/subg_openthread/third_party/mbedtls/repo/library/oid.c:753:15
	orr.w	r3, r2, r3, lsl #7
.Ltmp184:
	@DEBUG_VALUE: mbedtls_oid_get_numeric_string:value <- $r3
	.loc	3 755 13                        @ ../../../components/network/thread/subg_openthread/third_party/mbedtls/repo/library/oid.c:755:13
	bmi	.LBB16_10
.Ltmp185:
@ %bb.7:                                @   in Loop: Header=BB16_5 Depth=1
	@DEBUG_VALUE: mbedtls_oid_get_numeric_string:size <- $r9
	@DEBUG_VALUE: mbedtls_oid_get_numeric_string:p <- $r7
	@DEBUG_VALUE: mbedtls_oid_get_numeric_string:n <- $r6
	@DEBUG_VALUE: mbedtls_oid_get_numeric_string:oid <- $r5
	@DEBUG_VALUE: mbedtls_oid_get_numeric_string:i <- $r4
	@DEBUG_VALUE: mbedtls_oid_get_numeric_string:value <- $r3
	@DEBUG_VALUE: mbedtls_oid_get_numeric_string:buf <- [DW_OP_LLVM_entry_value 1] $r0
	.loc	3 758 19                        @ ../../../components/network/thread/subg_openthread/third_party/mbedtls/repo/library/oid.c:758:19
	mov	r0, r7
	mov	r1, r6
	mov	r2, r8
	bl	__2snprintf
.Ltmp186:
	mov	r1, r0
.Ltmp187:
	@DEBUG_VALUE: mbedtls_oid_get_numeric_string:ret <- $r1
	.loc	3 759 13                        @ ../../../components/network/thread/subg_openthread/third_party/mbedtls/repo/library/oid.c:759:13
	cmp	r0, #0
	mvn	r0, #10
	bmi	.LBB16_12
.Ltmp188:
@ %bb.8:                                @   in Loop: Header=BB16_5 Depth=1
	@DEBUG_VALUE: mbedtls_oid_get_numeric_string:size <- $r9
	@DEBUG_VALUE: mbedtls_oid_get_numeric_string:p <- $r7
	@DEBUG_VALUE: mbedtls_oid_get_numeric_string:n <- $r6
	@DEBUG_VALUE: mbedtls_oid_get_numeric_string:oid <- $r5
	@DEBUG_VALUE: mbedtls_oid_get_numeric_string:i <- $r4
	@DEBUG_VALUE: mbedtls_oid_get_numeric_string:ret <- $r1
	@DEBUG_VALUE: mbedtls_oid_get_numeric_string:buf <- [DW_OP_LLVM_entry_value 1] $r0
	cmp	r6, r1
	bls	.LBB16_12
.Ltmp189:
@ %bb.9:                                @   in Loop: Header=BB16_5 Depth=1
	@DEBUG_VALUE: mbedtls_oid_get_numeric_string:size <- $r9
	@DEBUG_VALUE: mbedtls_oid_get_numeric_string:p <- $r7
	@DEBUG_VALUE: mbedtls_oid_get_numeric_string:n <- $r6
	@DEBUG_VALUE: mbedtls_oid_get_numeric_string:oid <- $r5
	@DEBUG_VALUE: mbedtls_oid_get_numeric_string:i <- $r4
	@DEBUG_VALUE: mbedtls_oid_get_numeric_string:ret <- $r1
	@DEBUG_VALUE: mbedtls_oid_get_numeric_string:buf <- [DW_OP_LLVM_entry_value 1] $r0
	.loc	3 746 26                        @ ../../../components/network/thread/subg_openthread/third_party/mbedtls/repo/library/oid.c:746:26
	ldr	r0, [r5, #4]
.Ltmp190:
	.loc	3 759 13                        @ ../../../components/network/thread/subg_openthread/third_party/mbedtls/repo/library/oid.c:759:13
	subs	r6, r6, r1
.Ltmp191:
	@DEBUG_VALUE: mbedtls_oid_get_numeric_string:n <- $r6
	add	r7, r1
.Ltmp192:
	@DEBUG_VALUE: mbedtls_oid_get_numeric_string:value <- 0
	@DEBUG_VALUE: mbedtls_oid_get_numeric_string:p <- $r7
	.loc	3 0 13 is_stmt 0                @ ../../../components/network/thread/subg_openthread/third_party/mbedtls/repo/library/oid.c:0:13
	movs	r3, #0
.Ltmp193:
.LBB16_10:                              @   in Loop: Header=BB16_5 Depth=1
	@DEBUG_VALUE: mbedtls_oid_get_numeric_string:size <- $r9
	@DEBUG_VALUE: mbedtls_oid_get_numeric_string:p <- $r7
	@DEBUG_VALUE: mbedtls_oid_get_numeric_string:n <- $r6
	@DEBUG_VALUE: mbedtls_oid_get_numeric_string:oid <- $r5
	@DEBUG_VALUE: mbedtls_oid_get_numeric_string:i <- $r4
	@DEBUG_VALUE: mbedtls_oid_get_numeric_string:buf <- [DW_OP_LLVM_entry_value 1] $r0
	@DEBUG_VALUE: mbedtls_oid_get_numeric_string:p <- $r7
	@DEBUG_VALUE: mbedtls_oid_get_numeric_string:n <- $r6
	@DEBUG_VALUE: mbedtls_oid_get_numeric_string:value <- $r3
	.loc	3 746 32 is_stmt 1              @ ../../../components/network/thread/subg_openthread/third_party/mbedtls/repo/library/oid.c:746:32
	adds	r4, #1
.Ltmp194:
	@DEBUG_VALUE: mbedtls_oid_get_numeric_string:i <- $r4
	.loc	3 746 5 is_stmt 0               @ ../../../components/network/thread/subg_openthread/third_party/mbedtls/repo/library/oid.c:746:5
	cmp	r4, r0
	blo	.LBB16_5
.Ltmp195:
.LBB16_11:
	@DEBUG_VALUE: mbedtls_oid_get_numeric_string:size <- $r9
	.loc	3 764 26 is_stmt 1              @ ../../../components/network/thread/subg_openthread/third_party/mbedtls/repo/library/oid.c:764:26
	sub.w	r0, r9, r6
.Ltmp196:
.LBB16_12:
	@DEBUG_VALUE: mbedtls_oid_get_numeric_string:size <- $r9
	.loc	3 765 1                         @ ../../../components/network/thread/subg_openthread/third_party/mbedtls/repo/library/oid.c:765:1
	add	sp, #8
	pop.w	{r4, r5, r6, r7, r8, r9, r10, pc}
.Ltmp197:
.LBB16_13:
	@DEBUG_VALUE: mbedtls_oid_get_numeric_string:size <- $r9
	@DEBUG_VALUE: mbedtls_oid_get_numeric_string:p <- $r7
	@DEBUG_VALUE: mbedtls_oid_get_numeric_string:n <- $r6
	@DEBUG_VALUE: mbedtls_oid_get_numeric_string:oid <- $r5
	@DEBUG_VALUE: mbedtls_oid_get_numeric_string:i <- $r4
	@DEBUG_VALUE: mbedtls_oid_get_numeric_string:value <- $r3
	@DEBUG_VALUE: mbedtls_oid_get_numeric_string:buf <- [DW_OP_LLVM_entry_value 1] $r0
	.loc	3 0 1 is_stmt 0                 @ ../../../components/network/thread/subg_openthread/third_party/mbedtls/repo/library/oid.c:0:1
	mvn	r0, #10
	b	.LBB16_12
.Ltmp198:
	.p2align	2
@ %bb.14:
.LCPI16_0:
.L.str:
	.asciz	"%d.%d\000\000"
.LCPI16_1:
.L.str.1:
	.asciz	".%u"
.Lfunc_end16:
	.size	mbedtls_oid_get_numeric_string, .Lfunc_end16-mbedtls_oid_get_numeric_string
	.cfi_endproc
	.cantunwind
	.fnend
                                        @ -- End function
	.type	oid_sig_alg,%object             @ @oid_sig_alg
	.section	.rodata.oid_sig_alg,"a",%progbits
	.p2align	2
oid_sig_alg:
	.long	.L.str.119
	.long	8                               @ 0x8
	.long	.L.str.120
	.long	.L.str.121
	.long	5                               @ 0x5
	.long	4                               @ 0x4
	.long	.L.str.122
	.long	8                               @ 0x8
	.long	.L.str.123
	.long	.L.str.124
	.long	6                               @ 0x6
	.long	4                               @ 0x4
	.zero	24
	.size	oid_sig_alg, 72

	.type	oid_pk_alg,%object              @ @oid_pk_alg
	.section	.rodata.oid_pk_alg,"a",%progbits
	.p2align	2
oid_pk_alg:
	.long	.L.str.125
	.long	9                               @ 0x9
	.long	.L.str.126
	.long	.L.str.127
	.long	1                               @ 0x1
	.long	.L.str.128
	.long	7                               @ 0x7
	.long	.L.str.129
	.long	.L.str.130
	.long	2                               @ 0x2
	.long	.L.str.131
	.long	5                               @ 0x5
	.long	.L.str.132
	.long	.L.str.133
	.long	3                               @ 0x3
	.zero	20
	.size	oid_pk_alg, 80

	.type	oid_md_alg,%object              @ @oid_md_alg
	.section	.rodata.oid_md_alg,"a",%progbits
	.p2align	2
oid_md_alg:
	.long	.L.str.142
	.long	9                               @ 0x9
	.long	.L.str.143
	.long	.L.str.144
	.long	5                               @ 0x5
	.long	.L.str.145
	.long	9                               @ 0x9
	.long	.L.str.146
	.long	.L.str.147
	.long	6                               @ 0x6
	.zero	20
	.size	oid_md_alg, 60

	.type	oid_x520_attr_type,%object      @ @oid_x520_attr_type
	.section	.rodata.oid_x520_attr_type,"a",%progbits
	.p2align	2
oid_x520_attr_type:
	.long	.L.str.2
	.long	3                               @ 0x3
	.long	.L.str.3
	.long	.L.str.4
	.long	.L.str.5
	.long	.L.str.6
	.long	3                               @ 0x3
	.long	.L.str.7
	.long	.L.str.8
	.long	.L.str.9
	.long	.L.str.10
	.long	3                               @ 0x3
	.long	.L.str.11
	.long	.L.str.12
	.long	.L.str.13
	.long	.L.str.14
	.long	3                               @ 0x3
	.long	.L.str.15
	.long	.L.str.16
	.long	.L.str.17
	.long	.L.str.18
	.long	3                               @ 0x3
	.long	.L.str.19
	.long	.L.str.20
	.long	.L.str.21
	.long	.L.str.22
	.long	3                               @ 0x3
	.long	.L.str.23
	.long	.L.str.24
	.long	.L.str.25
	.long	.L.str.26
	.long	9                               @ 0x9
	.long	.L.str.27
	.long	.L.str.28
	.long	.L.str.27
	.long	.L.str.29
	.long	3                               @ 0x3
	.long	.L.str.30
	.long	.L.str.31
	.long	.L.str.32
	.long	.L.str.33
	.long	3                               @ 0x3
	.long	.L.str.34
	.long	.L.str.35
	.long	.L.str.36
	.long	.L.str.37
	.long	3                               @ 0x3
	.long	.L.str.38
	.long	.L.str.39
	.long	.L.str.40
	.long	.L.str.41
	.long	3                               @ 0x3
	.long	.L.str.42
	.long	.L.str.43
	.long	.L.str.44
	.long	.L.str.45
	.long	3                               @ 0x3
	.long	.L.str.46
	.long	.L.str.47
	.long	.L.str.48
	.long	.L.str.49
	.long	3                               @ 0x3
	.long	.L.str.50
	.long	.L.str.51
	.long	.L.str.52
	.long	.L.str.53
	.long	3                               @ 0x3
	.long	.L.str.54
	.long	.L.str.55
	.long	.L.str.56
	.long	.L.str.57
	.long	3                               @ 0x3
	.long	.L.str.58
	.long	.L.str.59
	.long	.L.str.60
	.long	.L.str.61
	.long	3                               @ 0x3
	.long	.L.str.62
	.long	.L.str.63
	.long	.L.str.64
	.long	.L.str.65
	.long	3                               @ 0x3
	.long	.L.str.66
	.long	.L.str.67
	.long	.L.str.68
	.long	.L.str.69
	.long	10                              @ 0xa
	.long	.L.str.70
	.long	.L.str.71
	.long	.L.str.72
	.long	.L.str.73
	.long	3                               @ 0x3
	.long	.L.str.74
	.long	.L.str.75
	.long	.L.str.76
	.zero	20
	.size	oid_x520_attr_type, 400

	.type	.L.str.2,%object                @ @.str.2
	.section	.rodata.str1.1,"aMS",%progbits,1
.L.str.2:
	.asciz	"U\004\003"
	.size	.L.str.2, 4

	.type	.L.str.3,%object                @ @.str.3
.L.str.3:
	.asciz	"id-at-commonName"
	.size	.L.str.3, 17

	.type	.L.str.4,%object                @ @.str.4
.L.str.4:
	.asciz	"Common Name"
	.size	.L.str.4, 12

	.type	.L.str.5,%object                @ @.str.5
.L.str.5:
	.asciz	"CN"
	.size	.L.str.5, 3

	.type	.L.str.6,%object                @ @.str.6
.L.str.6:
	.asciz	"U\004\006"
	.size	.L.str.6, 4

	.type	.L.str.7,%object                @ @.str.7
.L.str.7:
	.asciz	"id-at-countryName"
	.size	.L.str.7, 18

	.type	.L.str.8,%object                @ @.str.8
.L.str.8:
	.asciz	"Country"
	.size	.L.str.8, 8

	.type	.L.str.9,%object                @ @.str.9
.L.str.9:
	.asciz	"C"
	.size	.L.str.9, 2

	.type	.L.str.10,%object               @ @.str.10
.L.str.10:
	.asciz	"U\004\007"
	.size	.L.str.10, 4

	.type	.L.str.11,%object               @ @.str.11
.L.str.11:
	.asciz	"id-at-locality"
	.size	.L.str.11, 15

	.type	.L.str.12,%object               @ @.str.12
.L.str.12:
	.asciz	"Locality"
	.size	.L.str.12, 9

	.type	.L.str.13,%object               @ @.str.13
.L.str.13:
	.asciz	"L"
	.size	.L.str.13, 2

	.type	.L.str.14,%object               @ @.str.14
.L.str.14:
	.asciz	"U\004\b"
	.size	.L.str.14, 4

	.type	.L.str.15,%object               @ @.str.15
.L.str.15:
	.asciz	"id-at-state"
	.size	.L.str.15, 12

	.type	.L.str.16,%object               @ @.str.16
.L.str.16:
	.asciz	"State"
	.size	.L.str.16, 6

	.type	.L.str.17,%object               @ @.str.17
.L.str.17:
	.asciz	"ST"
	.size	.L.str.17, 3

	.type	.L.str.18,%object               @ @.str.18
.L.str.18:
	.asciz	"U\004\n"
	.size	.L.str.18, 4

	.type	.L.str.19,%object               @ @.str.19
.L.str.19:
	.asciz	"id-at-organizationName"
	.size	.L.str.19, 23

	.type	.L.str.20,%object               @ @.str.20
.L.str.20:
	.asciz	"Organization"
	.size	.L.str.20, 13

	.type	.L.str.21,%object               @ @.str.21
.L.str.21:
	.asciz	"O"
	.size	.L.str.21, 2

	.type	.L.str.22,%object               @ @.str.22
.L.str.22:
	.asciz	"U\004\013"
	.size	.L.str.22, 4

	.type	.L.str.23,%object               @ @.str.23
.L.str.23:
	.asciz	"id-at-organizationalUnitName"
	.size	.L.str.23, 29

	.type	.L.str.24,%object               @ @.str.24
.L.str.24:
	.asciz	"Org Unit"
	.size	.L.str.24, 9

	.type	.L.str.25,%object               @ @.str.25
.L.str.25:
	.asciz	"OU"
	.size	.L.str.25, 3

	.type	.L.str.26,%object               @ @.str.26
.L.str.26:
	.asciz	"*\206H\206\367\r\001\t\001"
	.size	.L.str.26, 10

	.type	.L.str.27,%object               @ @.str.27
.L.str.27:
	.asciz	"emailAddress"
	.size	.L.str.27, 13

	.type	.L.str.28,%object               @ @.str.28
.L.str.28:
	.asciz	"E-mail address"
	.size	.L.str.28, 15

	.type	.L.str.29,%object               @ @.str.29
.L.str.29:
	.asciz	"U\004\005"
	.size	.L.str.29, 4

	.type	.L.str.30,%object               @ @.str.30
.L.str.30:
	.asciz	"id-at-serialNumber"
	.size	.L.str.30, 19

	.type	.L.str.31,%object               @ @.str.31
.L.str.31:
	.asciz	"Serial number"
	.size	.L.str.31, 14

	.type	.L.str.32,%object               @ @.str.32
.L.str.32:
	.asciz	"serialNumber"
	.size	.L.str.32, 13

	.type	.L.str.33,%object               @ @.str.33
.L.str.33:
	.asciz	"U\004\020"
	.size	.L.str.33, 4

	.type	.L.str.34,%object               @ @.str.34
.L.str.34:
	.asciz	"id-at-postalAddress"
	.size	.L.str.34, 20

	.type	.L.str.35,%object               @ @.str.35
.L.str.35:
	.asciz	"Postal address"
	.size	.L.str.35, 15

	.type	.L.str.36,%object               @ @.str.36
.L.str.36:
	.asciz	"postalAddress"
	.size	.L.str.36, 14

	.type	.L.str.37,%object               @ @.str.37
.L.str.37:
	.asciz	"U\004\021"
	.size	.L.str.37, 4

	.type	.L.str.38,%object               @ @.str.38
.L.str.38:
	.asciz	"id-at-postalCode"
	.size	.L.str.38, 17

	.type	.L.str.39,%object               @ @.str.39
.L.str.39:
	.asciz	"Postal code"
	.size	.L.str.39, 12

	.type	.L.str.40,%object               @ @.str.40
.L.str.40:
	.asciz	"postalCode"
	.size	.L.str.40, 11

	.type	.L.str.41,%object               @ @.str.41
.L.str.41:
	.asciz	"U\004\004"
	.size	.L.str.41, 4

	.type	.L.str.42,%object               @ @.str.42
.L.str.42:
	.asciz	"id-at-surName"
	.size	.L.str.42, 14

	.type	.L.str.43,%object               @ @.str.43
.L.str.43:
	.asciz	"Surname"
	.size	.L.str.43, 8

	.type	.L.str.44,%object               @ @.str.44
.L.str.44:
	.asciz	"SN"
	.size	.L.str.44, 3

	.type	.L.str.45,%object               @ @.str.45
.L.str.45:
	.asciz	"U\004*"
	.size	.L.str.45, 4

	.type	.L.str.46,%object               @ @.str.46
.L.str.46:
	.asciz	"id-at-givenName"
	.size	.L.str.46, 16

	.type	.L.str.47,%object               @ @.str.47
.L.str.47:
	.asciz	"Given name"
	.size	.L.str.47, 11

	.type	.L.str.48,%object               @ @.str.48
.L.str.48:
	.asciz	"GN"
	.size	.L.str.48, 3

	.type	.L.str.49,%object               @ @.str.49
.L.str.49:
	.asciz	"U\004+"
	.size	.L.str.49, 4

	.type	.L.str.50,%object               @ @.str.50
.L.str.50:
	.asciz	"id-at-initials"
	.size	.L.str.50, 15

	.type	.L.str.51,%object               @ @.str.51
.L.str.51:
	.asciz	"Initials"
	.size	.L.str.51, 9

	.type	.L.str.52,%object               @ @.str.52
.L.str.52:
	.asciz	"initials"
	.size	.L.str.52, 9

	.type	.L.str.53,%object               @ @.str.53
.L.str.53:
	.asciz	"U\004,"
	.size	.L.str.53, 4

	.type	.L.str.54,%object               @ @.str.54
.L.str.54:
	.asciz	"id-at-generationQualifier"
	.size	.L.str.54, 26

	.type	.L.str.55,%object               @ @.str.55
.L.str.55:
	.asciz	"Generation qualifier"
	.size	.L.str.55, 21

	.type	.L.str.56,%object               @ @.str.56
.L.str.56:
	.asciz	"generationQualifier"
	.size	.L.str.56, 20

	.type	.L.str.57,%object               @ @.str.57
.L.str.57:
	.asciz	"U\004\f"
	.size	.L.str.57, 4

	.type	.L.str.58,%object               @ @.str.58
.L.str.58:
	.asciz	"id-at-title"
	.size	.L.str.58, 12

	.type	.L.str.59,%object               @ @.str.59
.L.str.59:
	.asciz	"Title"
	.size	.L.str.59, 6

	.type	.L.str.60,%object               @ @.str.60
.L.str.60:
	.asciz	"title"
	.size	.L.str.60, 6

	.type	.L.str.61,%object               @ @.str.61
.L.str.61:
	.asciz	"U\004."
	.size	.L.str.61, 4

	.type	.L.str.62,%object               @ @.str.62
.L.str.62:
	.asciz	"id-at-dnQualifier"
	.size	.L.str.62, 18

	.type	.L.str.63,%object               @ @.str.63
.L.str.63:
	.asciz	"Distinguished Name qualifier"
	.size	.L.str.63, 29

	.type	.L.str.64,%object               @ @.str.64
.L.str.64:
	.asciz	"dnQualifier"
	.size	.L.str.64, 12

	.type	.L.str.65,%object               @ @.str.65
.L.str.65:
	.asciz	"U\004A"
	.size	.L.str.65, 4

	.type	.L.str.66,%object               @ @.str.66
.L.str.66:
	.asciz	"id-at-pseudonym"
	.size	.L.str.66, 16

	.type	.L.str.67,%object               @ @.str.67
.L.str.67:
	.asciz	"Pseudonym"
	.size	.L.str.67, 10

	.type	.L.str.68,%object               @ @.str.68
.L.str.68:
	.asciz	"pseudonym"
	.size	.L.str.68, 10

	.type	.L.str.69,%object               @ @.str.69
.L.str.69:
	.asciz	"\t\222&\211\223\362,d\001\031"
	.size	.L.str.69, 11

	.type	.L.str.70,%object               @ @.str.70
.L.str.70:
	.asciz	"id-domainComponent"
	.size	.L.str.70, 19

	.type	.L.str.71,%object               @ @.str.71
.L.str.71:
	.asciz	"Domain component"
	.size	.L.str.71, 17

	.type	.L.str.72,%object               @ @.str.72
.L.str.72:
	.asciz	"DC"
	.size	.L.str.72, 3

	.type	.L.str.73,%object               @ @.str.73
.L.str.73:
	.asciz	"U\004-"
	.size	.L.str.73, 4

	.type	.L.str.74,%object               @ @.str.74
.L.str.74:
	.asciz	"id-at-uniqueIdentifier"
	.size	.L.str.74, 23

	.type	.L.str.75,%object               @ @.str.75
.L.str.75:
	.asciz	"Unique Identifier"
	.size	.L.str.75, 18

	.type	.L.str.76,%object               @ @.str.76
.L.str.76:
	.asciz	"uniqueIdentifier"
	.size	.L.str.76, 17

	.type	oid_x509_ext,%object            @ @oid_x509_ext
	.section	.rodata.oid_x509_ext,"a",%progbits
	.p2align	2
oid_x509_ext:
	.long	.L.str.77
	.long	3                               @ 0x3
	.long	.L.str.78
	.long	.L.str.79
	.long	256                             @ 0x100
	.long	.L.str.80
	.long	3                               @ 0x3
	.long	.L.str.81
	.long	.L.str.82
	.long	4                               @ 0x4
	.long	.L.str.83
	.long	3                               @ 0x3
	.long	.L.str.84
	.long	.L.str.85
	.long	2048                            @ 0x800
	.long	.L.str.86
	.long	3                               @ 0x3
	.long	.L.str.87
	.long	.L.str.88
	.long	32                              @ 0x20
	.long	.L.str.89
	.long	9                               @ 0x9
	.long	.L.str.90
	.long	.L.str.91
	.long	65536                           @ 0x10000
	.long	.L.str.92
	.long	3                               @ 0x3
	.long	.L.str.93
	.long	.L.str.94
	.long	8                               @ 0x8
	.zero	20
	.size	oid_x509_ext, 140

	.type	.L.str.77,%object               @ @.str.77
	.section	.rodata.str1.1,"aMS",%progbits,1
.L.str.77:
	.asciz	"U\035\023"
	.size	.L.str.77, 4

	.type	.L.str.78,%object               @ @.str.78
.L.str.78:
	.asciz	"id-ce-basicConstraints"
	.size	.L.str.78, 23

	.type	.L.str.79,%object               @ @.str.79
.L.str.79:
	.asciz	"Basic Constraints"
	.size	.L.str.79, 18

	.type	.L.str.80,%object               @ @.str.80
.L.str.80:
	.asciz	"U\035\017"
	.size	.L.str.80, 4

	.type	.L.str.81,%object               @ @.str.81
.L.str.81:
	.asciz	"id-ce-keyUsage"
	.size	.L.str.81, 15

	.type	.L.str.82,%object               @ @.str.82
.L.str.82:
	.asciz	"Key Usage"
	.size	.L.str.82, 10

	.type	.L.str.83,%object               @ @.str.83
.L.str.83:
	.asciz	"U\035%"
	.size	.L.str.83, 4

	.type	.L.str.84,%object               @ @.str.84
.L.str.84:
	.asciz	"id-ce-extKeyUsage"
	.size	.L.str.84, 18

	.type	.L.str.85,%object               @ @.str.85
.L.str.85:
	.asciz	"Extended Key Usage"
	.size	.L.str.85, 19

	.type	.L.str.86,%object               @ @.str.86
.L.str.86:
	.asciz	"U\035\021"
	.size	.L.str.86, 4

	.type	.L.str.87,%object               @ @.str.87
.L.str.87:
	.asciz	"id-ce-subjectAltName"
	.size	.L.str.87, 21

	.type	.L.str.88,%object               @ @.str.88
.L.str.88:
	.asciz	"Subject Alt Name"
	.size	.L.str.88, 17

	.type	.L.str.89,%object               @ @.str.89
.L.str.89:
	.asciz	"`\206H\001\206\370B\001\001"
	.size	.L.str.89, 10

	.type	.L.str.90,%object               @ @.str.90
.L.str.90:
	.asciz	"id-netscape-certtype"
	.size	.L.str.90, 21

	.type	.L.str.91,%object               @ @.str.91
.L.str.91:
	.asciz	"Netscape Certificate Type"
	.size	.L.str.91, 26

	.type	.L.str.92,%object               @ @.str.92
.L.str.92:
	.asciz	"U\035 "
	.size	.L.str.92, 4

	.type	.L.str.93,%object               @ @.str.93
.L.str.93:
	.asciz	"id-ce-certificatePolicies"
	.size	.L.str.93, 26

	.type	.L.str.94,%object               @ @.str.94
.L.str.94:
	.asciz	"Certificate Policies"
	.size	.L.str.94, 21

	.type	oid_ext_key_usage,%object       @ @oid_ext_key_usage
	.section	.rodata.oid_ext_key_usage,"a",%progbits
	.p2align	2
oid_ext_key_usage:
	.long	.L.str.95
	.long	8                               @ 0x8
	.long	.L.str.96
	.long	.L.str.97
	.long	.L.str.98
	.long	8                               @ 0x8
	.long	.L.str.99
	.long	.L.str.100
	.long	.L.str.101
	.long	8                               @ 0x8
	.long	.L.str.102
	.long	.L.str.103
	.long	.L.str.104
	.long	8                               @ 0x8
	.long	.L.str.105
	.long	.L.str.106
	.long	.L.str.107
	.long	8                               @ 0x8
	.long	.L.str.108
	.long	.L.str.109
	.long	.L.str.110
	.long	8                               @ 0x8
	.long	.L.str.111
	.long	.L.str.112
	.long	.L.str.113
	.long	9                               @ 0x9
	.long	.L.str.114
	.long	.L.str.115
	.zero	16
	.size	oid_ext_key_usage, 128

	.type	.L.str.95,%object               @ @.str.95
	.section	.rodata.str1.1,"aMS",%progbits,1
.L.str.95:
	.asciz	"+\006\001\005\005\007\003\001"
	.size	.L.str.95, 9

	.type	.L.str.96,%object               @ @.str.96
.L.str.96:
	.asciz	"id-kp-serverAuth"
	.size	.L.str.96, 17

	.type	.L.str.97,%object               @ @.str.97
.L.str.97:
	.asciz	"TLS Web Server Authentication"
	.size	.L.str.97, 30

	.type	.L.str.98,%object               @ @.str.98
.L.str.98:
	.asciz	"+\006\001\005\005\007\003\002"
	.size	.L.str.98, 9

	.type	.L.str.99,%object               @ @.str.99
.L.str.99:
	.asciz	"id-kp-clientAuth"
	.size	.L.str.99, 17

	.type	.L.str.100,%object              @ @.str.100
.L.str.100:
	.asciz	"TLS Web Client Authentication"
	.size	.L.str.100, 30

	.type	.L.str.101,%object              @ @.str.101
.L.str.101:
	.asciz	"+\006\001\005\005\007\003\003"
	.size	.L.str.101, 9

	.type	.L.str.102,%object              @ @.str.102
.L.str.102:
	.asciz	"id-kp-codeSigning"
	.size	.L.str.102, 18

	.type	.L.str.103,%object              @ @.str.103
.L.str.103:
	.asciz	"Code Signing"
	.size	.L.str.103, 13

	.type	.L.str.104,%object              @ @.str.104
.L.str.104:
	.asciz	"+\006\001\005\005\007\003\004"
	.size	.L.str.104, 9

	.type	.L.str.105,%object              @ @.str.105
.L.str.105:
	.asciz	"id-kp-emailProtection"
	.size	.L.str.105, 22

	.type	.L.str.106,%object              @ @.str.106
.L.str.106:
	.asciz	"E-mail Protection"
	.size	.L.str.106, 18

	.type	.L.str.107,%object              @ @.str.107
.L.str.107:
	.asciz	"+\006\001\005\005\007\003\b"
	.size	.L.str.107, 9

	.type	.L.str.108,%object              @ @.str.108
.L.str.108:
	.asciz	"id-kp-timeStamping"
	.size	.L.str.108, 19

	.type	.L.str.109,%object              @ @.str.109
.L.str.109:
	.asciz	"Time Stamping"
	.size	.L.str.109, 14

	.type	.L.str.110,%object              @ @.str.110
.L.str.110:
	.asciz	"+\006\001\005\005\007\003\t"
	.size	.L.str.110, 9

	.type	.L.str.111,%object              @ @.str.111
.L.str.111:
	.asciz	"id-kp-OCSPSigning"
	.size	.L.str.111, 18

	.type	.L.str.112,%object              @ @.str.112
.L.str.112:
	.asciz	"OCSP Signing"
	.size	.L.str.112, 13

	.type	.L.str.113,%object              @ @.str.113
.L.str.113:
	.asciz	"+\006\001\004\001\202\344%\001"
	.size	.L.str.113, 10

	.type	.L.str.114,%object              @ @.str.114
.L.str.114:
	.asciz	"id-kp-wisun-fan-device"
	.size	.L.str.114, 23

	.type	.L.str.115,%object              @ @.str.115
.L.str.115:
	.asciz	"Wi-SUN Alliance Field Area Network (FAN)"
	.size	.L.str.115, 41

	.type	.L.str.116,%object              @ @.str.116
	.section	.rodata..L.str.116,"a",%progbits
.L.str.116:
	.asciz	"U\035 \000"
	.size	.L.str.116, 5

	.type	.L.str.119,%object              @ @.str.119
	.section	.rodata.str1.1,"aMS",%progbits,1
.L.str.119:
	.asciz	"*\206H\316=\004\003\001"
	.size	.L.str.119, 9

	.type	.L.str.120,%object              @ @.str.120
.L.str.120:
	.asciz	"ecdsa-with-SHA224"
	.size	.L.str.120, 18

	.type	.L.str.121,%object              @ @.str.121
.L.str.121:
	.asciz	"ECDSA with SHA224"
	.size	.L.str.121, 18

	.type	.L.str.122,%object              @ @.str.122
.L.str.122:
	.asciz	"*\206H\316=\004\003\002"
	.size	.L.str.122, 9

	.type	.L.str.123,%object              @ @.str.123
.L.str.123:
	.asciz	"ecdsa-with-SHA256"
	.size	.L.str.123, 18

	.type	.L.str.124,%object              @ @.str.124
.L.str.124:
	.asciz	"ECDSA with SHA256"
	.size	.L.str.124, 18

	.type	.L.str.125,%object              @ @.str.125
.L.str.125:
	.asciz	"*\206H\206\367\r\001\001\001"
	.size	.L.str.125, 10

	.type	.L.str.126,%object              @ @.str.126
.L.str.126:
	.asciz	"rsaEncryption"
	.size	.L.str.126, 14

	.type	.L.str.127,%object              @ @.str.127
.L.str.127:
	.asciz	"RSA"
	.size	.L.str.127, 4

	.type	.L.str.128,%object              @ @.str.128
.L.str.128:
	.asciz	"*\206H\316=\002\001"
	.size	.L.str.128, 8

	.type	.L.str.129,%object              @ @.str.129
.L.str.129:
	.asciz	"id-ecPublicKey"
	.size	.L.str.129, 15

	.type	.L.str.130,%object              @ @.str.130
.L.str.130:
	.asciz	"Generic EC key"
	.size	.L.str.130, 15

	.type	.L.str.131,%object              @ @.str.131
.L.str.131:
	.asciz	"+\201\004\001\f"
	.size	.L.str.131, 6

	.type	.L.str.132,%object              @ @.str.132
.L.str.132:
	.asciz	"id-ecDH"
	.size	.L.str.132, 8

	.type	.L.str.133,%object              @ @.str.133
.L.str.133:
	.asciz	"EC key for ECDH"
	.size	.L.str.133, 16

	.type	.L.str.134,%object              @ @.str.134
.L.str.134:
	.asciz	"*\206H\316=\003\001\007"
	.size	.L.str.134, 9

	.type	oid_cipher_alg,%object          @ @oid_cipher_alg
	.section	.rodata.oid_cipher_alg,"a",%progbits
	.p2align	2
oid_cipher_alg:
	.long	.L.str.136
	.long	5                               @ 0x5
	.long	.L.str.137
	.long	.L.str.138
	.long	33                              @ 0x21
	.long	.L.str.139
	.long	8                               @ 0x8
	.long	.L.str.140
	.long	.L.str.141
	.long	37                              @ 0x25
	.zero	20
	.size	oid_cipher_alg, 60

	.type	.L.str.136,%object              @ @.str.136
	.section	.rodata.str1.1,"aMS",%progbits,1
.L.str.136:
	.asciz	"+\016\003\002\007"
	.size	.L.str.136, 6

	.type	.L.str.137,%object              @ @.str.137
.L.str.137:
	.asciz	"desCBC"
	.size	.L.str.137, 7

	.type	.L.str.138,%object              @ @.str.138
.L.str.138:
	.asciz	"DES-CBC"
	.size	.L.str.138, 8

	.type	.L.str.139,%object              @ @.str.139
.L.str.139:
	.asciz	"*\206H\206\367\r\003\007"
	.size	.L.str.139, 9

	.type	.L.str.140,%object              @ @.str.140
.L.str.140:
	.asciz	"des-ede3-cbc"
	.size	.L.str.140, 13

	.type	.L.str.141,%object              @ @.str.141
.L.str.141:
	.asciz	"DES-EDE3-CBC"
	.size	.L.str.141, 13

	.type	.L.str.142,%object              @ @.str.142
.L.str.142:
	.asciz	"`\206H\001e\003\004\002\004"
	.size	.L.str.142, 10

	.type	.L.str.143,%object              @ @.str.143
.L.str.143:
	.asciz	"id-sha224"
	.size	.L.str.143, 10

	.type	.L.str.144,%object              @ @.str.144
.L.str.144:
	.asciz	"SHA-224"
	.size	.L.str.144, 8

	.type	.L.str.145,%object              @ @.str.145
.L.str.145:
	.asciz	"`\206H\001e\003\004\002\001"
	.size	.L.str.145, 10

	.type	.L.str.146,%object              @ @.str.146
.L.str.146:
	.asciz	"id-sha256"
	.size	.L.str.146, 10

	.type	.L.str.147,%object              @ @.str.147
.L.str.147:
	.asciz	"SHA-256"
	.size	.L.str.147, 8

	.type	oid_md_hmac,%object             @ @oid_md_hmac
	.section	.rodata.oid_md_hmac,"a",%progbits
	.p2align	2
oid_md_hmac:
	.long	.L.str.148
	.long	8                               @ 0x8
	.long	.L.str.149
	.long	.L.str.150
	.long	5                               @ 0x5
	.long	.L.str.151
	.long	8                               @ 0x8
	.long	.L.str.152
	.long	.L.str.153
	.long	6                               @ 0x6
	.zero	20
	.size	oid_md_hmac, 60

	.type	.L.str.148,%object              @ @.str.148
	.section	.rodata.str1.1,"aMS",%progbits,1
.L.str.148:
	.asciz	"*\206H\206\367\r\002\b"
	.size	.L.str.148, 9

	.type	.L.str.149,%object              @ @.str.149
.L.str.149:
	.asciz	"hmacSHA224"
	.size	.L.str.149, 11

	.type	.L.str.150,%object              @ @.str.150
.L.str.150:
	.asciz	"HMAC-SHA-224"
	.size	.L.str.150, 13

	.type	.L.str.151,%object              @ @.str.151
.L.str.151:
	.asciz	"*\206H\206\367\r\002\t"
	.size	.L.str.151, 9

	.type	.L.str.152,%object              @ @.str.152
.L.str.152:
	.asciz	"hmacSHA256"
	.size	.L.str.152, 11

	.type	.L.str.153,%object              @ @.str.153
.L.str.153:
	.asciz	"HMAC-SHA-256"
	.size	.L.str.153, 13

	.globl	_printf_percent
	.globl	_printf_return_value
	.globl	_printf_d
	.globl	_printf_u
	.globl	_printf_int_dec
	.hidden	_printf_percent
	.hidden	_printf_return_value
	.hidden	_printf_d
	.hidden	_printf_u
	.hidden	_printf_int_dec
	.section	".note.GNU-stack","",%progbits
	.eabi_attribute	30, 3	@ Tag_ABI_optimization_goals
	.ARM_attribute	16, 1	@ Tag_AV_eba