	.text
	.syntax unified
	.eabi_attribute	67, "2.09"	@ Tag_conformance
	.cpu	cortex-m3
	.eabi_attribute	6, 10	@ Tag_CPU_arch
	.eabi_attribute	7, 77	@ Tag_CPU_arch_profile
	.eabi_attribute	8, 0	@ Tag_ARM_ISA_use
	.eabi_attribute	9, 2	@ Tag_THUMB_ISA_use
	.eabi_attribute	34, 1	@ Tag_CPU_unaligned_access
	.eabi_attribute	17, 1	@ Tag_ABI_PCS_GOT_use
	.eabi_attribute	20, 2	@ Tag_ABI_FP_denormal
	.eabi_attribute	21, 0	@ Tag_ABI_FP_exceptions
	.eabi_attribute	23, 1	@ Tag_ABI_FP_number_model
	.eabi_attribute	24, 1	@ Tag_ABI_align_needed
	.eabi_attribute	25, 1	@ Tag_ABI_align_preserved
	.eabi_attribute	38, 1	@ Tag_ABI_FP_16bit_format
	.eabi_attribute	18, 4	@ Tag_ABI_PCS_wchar_t
	.eabi_attribute	26, 2	@ Tag_ABI_enum_size
	.eabi_attribute	14, 0	@ Tag_ABI_PCS_R9_use
	.file	"pem.c"
	.section	.text.mbedtls_pem_init,"ax",%progbits
	.hidden	mbedtls_pem_init                @ -- Begin function mbedtls_pem_init
	.globl	mbedtls_pem_init
	.p2align	1
	.type	mbedtls_pem_init,%function
	.code	16                              @ @mbedtls_pem_init
	.thumb_func
mbedtls_pem_init:
.Lfunc_begin0:
	.file	1 "D:\\20240115\\rafael-iot-sdk-das\\examples\\das_subg_thread\\keil" "../../../components/network/thread/subg_openthread/third_party/mbedtls/repo/library/pem.c"
	.loc	1 45 0                          @ ../../../components/network/thread/subg_openthread/third_party/mbedtls/repo/library/pem.c:45:0
	.fnstart
	.cfi_sections .debug_frame
	.cfi_startproc
@ %bb.0:
	@DEBUG_VALUE: mbedtls_pem_init:ctx <- $r0
	movs	r1, #0
	@DEBUG_VALUE: mbedtls_pem_init:ctx <- $r0
.Ltmp0:
	.loc	1 46 5 prologue_end             @ ../../../components/network/thread/subg_openthread/third_party/mbedtls/repo/library/pem.c:46:5
	strd	r1, r1, [r0]
	str	r1, [r0, #8]
	.loc	1 47 1                          @ ../../../components/network/thread/subg_openthread/third_party/mbedtls/repo/library/pem.c:47:1
	bx	lr
.Ltmp1:
.Lfunc_end0:
	.size	mbedtls_pem_init, .Lfunc_end0-mbedtls_pem_init
	.cfi_endproc
	.cantunwind
	.fnend
                                        @ -- End function
	.section	.text.mbedtls_pem_read_buffer,"ax",%progbits
	.hidden	mbedtls_pem_read_buffer         @ -- Begin function mbedtls_pem_read_buffer
	.globl	mbedtls_pem_read_buffer
	.p2align	2
	.type	mbedtls_pem_read_buffer,%function
	.code	16                              @ @mbedtls_pem_read_buffer
	.thumb_func
mbedtls_pem_read_buffer:
.Lfunc_begin1:
	.loc	1 228 0                         @ ../../../components/network/thread/subg_openthread/third_party/mbedtls/repo/library/pem.c:228:0
	.fnstart
	.cfi_startproc
@ %bb.0:
	@DEBUG_VALUE: mbedtls_pem_read_buffer:ctx <- $r0
	@DEBUG_VALUE: mbedtls_pem_read_buffer:header <- $r1
	@DEBUG_VALUE: mbedtls_pem_read_buffer:footer <- $r2
	@DEBUG_VALUE: mbedtls_pem_read_buffer:data <- $r3
	@DEBUG_VALUE: mbedtls_pem_read_buffer:data <- $r3
	@DEBUG_VALUE: mbedtls_pem_read_buffer:footer <- $r2
	@DEBUG_VALUE: mbedtls_pem_read_buffer:header <- $r1
	@DEBUG_VALUE: mbedtls_pem_read_buffer:ctx <- $r0
	.save	{r4, r5, r6, r7, r8, r9, r10, r11, lr}
	push.w	{r4, r5, r6, r7, r8, r9, r10, r11, lr}
	.cfi_def_cfa_offset 36
	.cfi_offset lr, -4
	.cfi_offset r11, -8
	.cfi_offset r10, -12
	.cfi_offset r9, -16
	.cfi_offset r8, -20
	.cfi_offset r7, -24
	.cfi_offset r6, -28
	.cfi_offset r5, -32
	.cfi_offset r4, -36
	.pad	#12
	sub	sp, #12
	.cfi_def_cfa_offset 48
.Ltmp2:
	@DEBUG_VALUE: mbedtls_pem_read_buffer:use_len <- [DW_OP_plus_uconst 56] [$sp+0]
	@DEBUG_VALUE: mbedtls_pem_read_buffer:pwdlen <- [DW_OP_plus_uconst 52] [$sp+0]
	@DEBUG_VALUE: mbedtls_pem_read_buffer:pwd <- [DW_OP_plus_uconst 48] [$sp+0]
	movw	r11, #60288
.Ltmp3:
	.loc	1 243 9 prologue_end            @ ../../../components/network/thread/subg_openthread/third_party/mbedtls/repo/library/pem.c:243:9
	cmp	r0, #0
	movt	r11, #65535
	beq	.LBB1_9
.Ltmp4:
@ %bb.1:
	@DEBUG_VALUE: mbedtls_pem_read_buffer:data <- $r3
	@DEBUG_VALUE: mbedtls_pem_read_buffer:footer <- $r2
	@DEBUG_VALUE: mbedtls_pem_read_buffer:header <- $r1
	@DEBUG_VALUE: mbedtls_pem_read_buffer:ctx <- $r0
	@DEBUG_VALUE: mbedtls_pem_read_buffer:pwd <- [DW_OP_plus_uconst 48] [$sp+0]
	@DEBUG_VALUE: mbedtls_pem_read_buffer:pwdlen <- [DW_OP_plus_uconst 52] [$sp+0]
	@DEBUG_VALUE: mbedtls_pem_read_buffer:use_len <- [DW_OP_plus_uconst 56] [$sp+0]
	.loc	1 0 9 is_stmt 0                 @ ../../../components/network/thread/subg_openthread/third_party/mbedtls/repo/library/pem.c:0:9
	mov	r9, r0
.Ltmp5:
	@DEBUG_VALUE: mbedtls_pem_read_buffer:ctx <- $r9
	@DEBUG_VALUE: mbedtls_pem_read_buffer:ctx <- $r9
	.loc	1 246 28 is_stmt 1              @ ../../../components/network/thread/subg_openthread/third_party/mbedtls/repo/library/pem.c:246:28
	mov	r0, r3
	mov	r6, r3
.Ltmp6:
	@DEBUG_VALUE: mbedtls_pem_read_buffer:data <- $r6
	@DEBUG_VALUE: mbedtls_pem_read_buffer:data <- $r6
	.loc	1 0 28 is_stmt 0                @ ../../../components/network/thread/subg_openthread/third_party/mbedtls/repo/library/pem.c:0:28
	mov	r10, r2
.Ltmp7:
	@DEBUG_VALUE: mbedtls_pem_read_buffer:footer <- $r10
	@DEBUG_VALUE: mbedtls_pem_read_buffer:footer <- $r10
	mov	r4, r1
.Ltmp8:
	@DEBUG_VALUE: mbedtls_pem_read_buffer:header <- $r4
	.loc	1 246 28                        @ ../../../components/network/thread/subg_openthread/third_party/mbedtls/repo/library/pem.c:246:28
	bl	strstr
.Ltmp9:
	@DEBUG_VALUE: mbedtls_pem_read_buffer:s1 <- $r0
	.loc	1 248 9 is_stmt 1               @ ../../../components/network/thread/subg_openthread/third_party/mbedtls/repo/library/pem.c:248:9
	cmp	r0, #0
	.loc	1 0 0 is_stmt 0                 @ ../../../components/network/thread/subg_openthread/third_party/mbedtls/repo/library/pem.c:0:0
	add.w	r5, r11, #1024
	.loc	1 248 9                         @ ../../../components/network/thread/subg_openthread/third_party/mbedtls/repo/library/pem.c:248:9
	beq	.LBB1_10
.Ltmp10:
@ %bb.2:
	@DEBUG_VALUE: mbedtls_pem_read_buffer:footer <- $r10
	@DEBUG_VALUE: mbedtls_pem_read_buffer:ctx <- $r9
	@DEBUG_VALUE: mbedtls_pem_read_buffer:data <- $r6
	@DEBUG_VALUE: mbedtls_pem_read_buffer:header <- $r4
	@DEBUG_VALUE: mbedtls_pem_read_buffer:s1 <- $r0
	@DEBUG_VALUE: mbedtls_pem_read_buffer:pwd <- [DW_OP_plus_uconst 48] [$sp+0]
	@DEBUG_VALUE: mbedtls_pem_read_buffer:pwdlen <- [DW_OP_plus_uconst 52] [$sp+0]
	@DEBUG_VALUE: mbedtls_pem_read_buffer:use_len <- [DW_OP_plus_uconst 56] [$sp+0]
	.loc	1 0 0                           @ ../../../components/network/thread/subg_openthread/third_party/mbedtls/repo/library/pem.c:0:0
	mov	r7, r0
.Ltmp11:
	@DEBUG_VALUE: mbedtls_pem_read_buffer:s1 <- $r7
	@DEBUG_VALUE: mbedtls_pem_read_buffer:s1 <- $r7
	.loc	1 251 28 is_stmt 1              @ ../../../components/network/thread/subg_openthread/third_party/mbedtls/repo/library/pem.c:251:28
	mov	r0, r6
	mov	r1, r10
	bl	strstr
.Ltmp12:
	@DEBUG_VALUE: mbedtls_pem_read_buffer:s2 <- $r0
	.loc	1 253 20                        @ ../../../components/network/thread/subg_openthread/third_party/mbedtls/repo/library/pem.c:253:20
	cmp	r0, r7
	bls	.LBB1_10
.Ltmp13:
@ %bb.3:
	@DEBUG_VALUE: mbedtls_pem_read_buffer:footer <- $r10
	@DEBUG_VALUE: mbedtls_pem_read_buffer:ctx <- $r9
	@DEBUG_VALUE: mbedtls_pem_read_buffer:s1 <- $r7
	@DEBUG_VALUE: mbedtls_pem_read_buffer:data <- $r6
	@DEBUG_VALUE: mbedtls_pem_read_buffer:header <- $r4
	@DEBUG_VALUE: mbedtls_pem_read_buffer:s2 <- $r0
	@DEBUG_VALUE: mbedtls_pem_read_buffer:pwd <- [DW_OP_plus_uconst 48] [$sp+0]
	@DEBUG_VALUE: mbedtls_pem_read_buffer:pwdlen <- [DW_OP_plus_uconst 52] [$sp+0]
	@DEBUG_VALUE: mbedtls_pem_read_buffer:use_len <- [DW_OP_plus_uconst 56] [$sp+0]
	.loc	1 0 0 is_stmt 0                 @ ../../../components/network/thread/subg_openthread/third_party/mbedtls/repo/library/pem.c:0:0
	mov	r8, r0
.Ltmp14:
	@DEBUG_VALUE: mbedtls_pem_read_buffer:s2 <- $r8
	@DEBUG_VALUE: mbedtls_pem_read_buffer:s2 <- $r8
	.loc	1 256 11 is_stmt 1              @ ../../../components/network/thread/subg_openthread/third_party/mbedtls/repo/library/pem.c:256:11
	mov	r0, r4
	bl	strlen
.Ltmp15:
	.loc	1 256 8 is_stmt 0               @ ../../../components/network/thread/subg_openthread/third_party/mbedtls/repo/library/pem.c:256:8
	add	r0, r7
.Ltmp16:
	@DEBUG_VALUE: mbedtls_pem_read_buffer:s1 <- $r0
	.loc	1 257 9 is_stmt 1               @ ../../../components/network/thread/subg_openthread/third_party/mbedtls/repo/library/pem.c:257:9
	mov	r1, r0
	ldrb	r2, [r1], #1
.Ltmp17:
	.loc	1 257 9 is_stmt 0               @ ../../../components/network/thread/subg_openthread/third_party/mbedtls/repo/library/pem.c:257:9
	cmp	r2, #32
	it	ne
	movne	r1, r0
.Ltmp18:
	@DEBUG_VALUE: mbedtls_pem_read_buffer:s1 <- $r1
	.loc	1 258 9 is_stmt 1               @ ../../../components/network/thread/subg_openthread/third_party/mbedtls/repo/library/pem.c:258:9
	mov	r0, r1
	ldrb	r2, [r0], #1
.Ltmp19:
	.loc	1 258 9 is_stmt 0               @ ../../../components/network/thread/subg_openthread/third_party/mbedtls/repo/library/pem.c:258:9
	cmp	r2, #13
	it	ne
	movne	r0, r1
.Ltmp20:
	@DEBUG_VALUE: mbedtls_pem_read_buffer:s1 <- $r0
	.loc	1 259 9 is_stmt 1               @ ../../../components/network/thread/subg_openthread/third_party/mbedtls/repo/library/pem.c:259:9
	ldrb	r1, [r0]
.Ltmp21:
	.loc	1 259 9 is_stmt 0               @ ../../../components/network/thread/subg_openthread/third_party/mbedtls/repo/library/pem.c:259:9
	cmp	r1, #10
	bne	.LBB1_10
.Ltmp22:
@ %bb.4:
	@DEBUG_VALUE: mbedtls_pem_read_buffer:footer <- $r10
	@DEBUG_VALUE: mbedtls_pem_read_buffer:ctx <- $r9
	@DEBUG_VALUE: mbedtls_pem_read_buffer:s2 <- $r8
	@DEBUG_VALUE: mbedtls_pem_read_buffer:data <- $r6
	@DEBUG_VALUE: mbedtls_pem_read_buffer:header <- $r4
	@DEBUG_VALUE: mbedtls_pem_read_buffer:s1 <- $r0
	@DEBUG_VALUE: mbedtls_pem_read_buffer:pwd <- [DW_OP_plus_uconst 48] [$sp+0]
	@DEBUG_VALUE: mbedtls_pem_read_buffer:pwdlen <- [DW_OP_plus_uconst 52] [$sp+0]
	@DEBUG_VALUE: mbedtls_pem_read_buffer:use_len <- [DW_OP_plus_uconst 56] [$sp+0]
	.loc	1 0 9                           @ ../../../components/network/thread/subg_openthread/third_party/mbedtls/repo/library/pem.c:0:9
	ldr	r7, [sp, #56]
.Ltmp23:
	.loc	1 259 25                        @ ../../../components/network/thread/subg_openthread/third_party/mbedtls/repo/library/pem.c:259:25
	adds	r5, r0, #1
.Ltmp24:
	@DEBUG_VALUE: mbedtls_pem_read_buffer:end <- $r8
	@DEBUG_VALUE: mbedtls_pem_read_buffer:s1 <- $r5
	.loc	1 263 12 is_stmt 1              @ ../../../components/network/thread/subg_openthread/third_party/mbedtls/repo/library/pem.c:263:12
	mov	r0, r10
	bl	strlen
.Ltmp25:
	.loc	1 263 9 is_stmt 0               @ ../../../components/network/thread/subg_openthread/third_party/mbedtls/repo/library/pem.c:263:9
	add	r0, r8
.Ltmp26:
	@DEBUG_VALUE: mbedtls_pem_read_buffer:end <- $r0
	.loc	1 264 9 is_stmt 1               @ ../../../components/network/thread/subg_openthread/third_party/mbedtls/repo/library/pem.c:264:9
	mov	r1, r0
	ldrb	r2, [r1], #1
.Ltmp27:
	.loc	1 271 12                        @ ../../../components/network/thread/subg_openthread/third_party/mbedtls/repo/library/pem.c:271:12
	sub.w	r4, r8, r5
.Ltmp28:
	@DEBUG_VALUE: mbedtls_pem_read_buffer:header <- [DW_OP_LLVM_entry_value 1] $r1
	.loc	1 264 9                         @ ../../../components/network/thread/subg_openthread/third_party/mbedtls/repo/library/pem.c:264:9
	cmp	r2, #32
	it	ne
	movne	r1, r0
.Ltmp29:
	@DEBUG_VALUE: mbedtls_pem_read_buffer:end <- $r1
	.loc	1 265 9                         @ ../../../components/network/thread/subg_openthread/third_party/mbedtls/repo/library/pem.c:265:9
	mov	r0, r1
	ldrb	r2, [r0], #1
.Ltmp30:
	.loc	1 265 9 is_stmt 0               @ ../../../components/network/thread/subg_openthread/third_party/mbedtls/repo/library/pem.c:265:9
	cmp	r2, #13
	it	ne
	movne	r0, r1
.Ltmp31:
	@DEBUG_VALUE: mbedtls_pem_read_buffer:end <- $r0
	.loc	1 266 9 is_stmt 1               @ ../../../components/network/thread/subg_openthread/third_party/mbedtls/repo/library/pem.c:266:9
	mov	r1, r0
	ldrb	r2, [r1], #1
.Ltmp32:
	.loc	1 266 9 is_stmt 0               @ ../../../components/network/thread/subg_openthread/third_party/mbedtls/repo/library/pem.c:266:9
	cmp	r2, #10
	it	ne
	movne	r1, r0
.Ltmp33:
	@DEBUG_VALUE: mbedtls_pem_read_buffer:end <- $r1
	.loc	1 267 20 is_stmt 1              @ ../../../components/network/thread/subg_openthread/third_party/mbedtls/repo/library/pem.c:267:20
	subs	r0, r1, r6
.Ltmp34:
	.loc	1 271 23                        @ ../../../components/network/thread/subg_openthread/third_party/mbedtls/repo/library/pem.c:271:23
	cmp	r4, #22
.Ltmp35:
	.loc	1 267 14                        @ ../../../components/network/thread/subg_openthread/third_party/mbedtls/repo/library/pem.c:267:14
	str	r0, [r7]
.Ltmp36:
	@DEBUG_VALUE: mbedtls_pem_read_buffer:enc <- 0
	.loc	1 271 23                        @ ../../../components/network/thread/subg_openthread/third_party/mbedtls/repo/library/pem.c:271:23
	blt	.LBB1_6
.Ltmp37:
@ %bb.5:
	@DEBUG_VALUE: mbedtls_pem_read_buffer:footer <- $r10
	@DEBUG_VALUE: mbedtls_pem_read_buffer:ctx <- $r9
	@DEBUG_VALUE: mbedtls_pem_read_buffer:s2 <- $r8
	@DEBUG_VALUE: mbedtls_pem_read_buffer:data <- $r6
	@DEBUG_VALUE: mbedtls_pem_read_buffer:s1 <- $r5
	@DEBUG_VALUE: mbedtls_pem_read_buffer:end <- $r1
	@DEBUG_VALUE: mbedtls_pem_read_buffer:pwd <- [DW_OP_plus_uconst 48] [$sp+0]
	@DEBUG_VALUE: mbedtls_pem_read_buffer:pwdlen <- [DW_OP_plus_uconst 52] [$sp+0]
	@DEBUG_VALUE: mbedtls_pem_read_buffer:use_len <- [DW_OP_plus_uconst 56] [$sp+0]
	@DEBUG_VALUE: mbedtls_pem_read_buffer:enc <- 0
	@DEBUG_VALUE: mbedtls_pem_read_buffer:header <- [DW_OP_LLVM_entry_value 1] $r1
	.loc	1 271 26 is_stmt 0              @ ../../../components/network/thread/subg_openthread/third_party/mbedtls/repo/library/pem.c:271:26
	adr	r1, .LCPI1_0
.Ltmp38:
	mov	r0, r5
	movs	r2, #22
	bl	memcmp
.Ltmp39:
	.loc	1 271 9                         @ ../../../components/network/thread/subg_openthread/third_party/mbedtls/repo/library/pem.c:271:9
	cbz	r0, .LBB1_15
.Ltmp40:
.LBB1_6:
	@DEBUG_VALUE: mbedtls_pem_read_buffer:footer <- $r10
	@DEBUG_VALUE: mbedtls_pem_read_buffer:ctx <- $r9
	@DEBUG_VALUE: mbedtls_pem_read_buffer:s2 <- $r8
	@DEBUG_VALUE: mbedtls_pem_read_buffer:data <- $r6
	@DEBUG_VALUE: mbedtls_pem_read_buffer:s1 <- $r5
	@DEBUG_VALUE: mbedtls_pem_read_buffer:pwd <- [DW_OP_plus_uconst 48] [$sp+0]
	@DEBUG_VALUE: mbedtls_pem_read_buffer:pwdlen <- [DW_OP_plus_uconst 52] [$sp+0]
	@DEBUG_VALUE: mbedtls_pem_read_buffer:use_len <- [DW_OP_plus_uconst 56] [$sp+0]
	@DEBUG_VALUE: mbedtls_pem_read_buffer:enc <- 0
	@DEBUG_VALUE: mbedtls_pem_read_buffer:header <- [DW_OP_LLVM_entry_value 1] $r1
	.loc	1 340 9 is_stmt 1               @ ../../../components/network/thread/subg_openthread/third_party/mbedtls/repo/library/pem.c:340:9
	cmp	r5, r8
	bhs	.LBB1_11
.Ltmp41:
@ %bb.7:
	@DEBUG_VALUE: mbedtls_pem_read_buffer:footer <- $r10
	@DEBUG_VALUE: mbedtls_pem_read_buffer:ctx <- $r9
	@DEBUG_VALUE: mbedtls_pem_read_buffer:s2 <- $r8
	@DEBUG_VALUE: mbedtls_pem_read_buffer:data <- $r6
	@DEBUG_VALUE: mbedtls_pem_read_buffer:s1 <- $r5
	@DEBUG_VALUE: mbedtls_pem_read_buffer:pwd <- [DW_OP_plus_uconst 48] [$sp+0]
	@DEBUG_VALUE: mbedtls_pem_read_buffer:pwdlen <- [DW_OP_plus_uconst 52] [$sp+0]
	@DEBUG_VALUE: mbedtls_pem_read_buffer:use_len <- [DW_OP_plus_uconst 56] [$sp+0]
	@DEBUG_VALUE: mbedtls_pem_read_buffer:enc <- 0
	@DEBUG_VALUE: mbedtls_pem_read_buffer:header <- [DW_OP_LLVM_entry_value 1] $r1
	@DEBUG_VALUE: mbedtls_pem_read_buffer:len <- [DW_OP_plus_uconst 8, DW_OP_deref] $sp
	.loc	1 0 9 is_stmt 0                 @ ../../../components/network/thread/subg_openthread/third_party/mbedtls/repo/library/pem.c:0:9
	add	r2, sp, #8
	.loc	1 343 11 is_stmt 1              @ ../../../components/network/thread/subg_openthread/third_party/mbedtls/repo/library/pem.c:343:11
	movs	r0, #0
	movs	r1, #0
	mov	r3, r5
	str	r4, [sp]
	bl	mbedtls_base64_decode
.Ltmp42:
	@DEBUG_VALUE: mbedtls_pem_read_buffer:ret <- $r0
	.loc	1 345 9                         @ ../../../components/network/thread/subg_openthread/third_party/mbedtls/repo/library/pem.c:345:9
	adds	r0, #44
.Ltmp43:
	bne	.LBB1_12
.Ltmp44:
@ %bb.8:
	@DEBUG_VALUE: mbedtls_pem_read_buffer:footer <- $r10
	@DEBUG_VALUE: mbedtls_pem_read_buffer:ctx <- $r9
	@DEBUG_VALUE: mbedtls_pem_read_buffer:s2 <- $r8
	@DEBUG_VALUE: mbedtls_pem_read_buffer:data <- $r6
	@DEBUG_VALUE: mbedtls_pem_read_buffer:s1 <- $r5
	@DEBUG_VALUE: mbedtls_pem_read_buffer:len <- [DW_OP_plus_uconst 8, DW_OP_deref] $sp
	@DEBUG_VALUE: mbedtls_pem_read_buffer:pwd <- [DW_OP_plus_uconst 48] [$sp+0]
	@DEBUG_VALUE: mbedtls_pem_read_buffer:pwdlen <- [DW_OP_plus_uconst 52] [$sp+0]
	@DEBUG_VALUE: mbedtls_pem_read_buffer:use_len <- [DW_OP_plus_uconst 56] [$sp+0]
	@DEBUG_VALUE: mbedtls_pem_read_buffer:enc <- 0
	@DEBUG_VALUE: mbedtls_pem_read_buffer:header <- [DW_OP_LLVM_entry_value 1] $r1
	.loc	1 0 9 is_stmt 0                 @ ../../../components/network/thread/subg_openthread/third_party/mbedtls/repo/library/pem.c:0:9
	add.w	r5, r11, #852
.Ltmp45:
	b	.LBB1_10
.Ltmp46:
.LBB1_9:
	@DEBUG_VALUE: mbedtls_pem_read_buffer:data <- $r3
	@DEBUG_VALUE: mbedtls_pem_read_buffer:footer <- $r2
	@DEBUG_VALUE: mbedtls_pem_read_buffer:header <- $r1
	@DEBUG_VALUE: mbedtls_pem_read_buffer:ctx <- $r0
	@DEBUG_VALUE: mbedtls_pem_read_buffer:pwd <- [DW_OP_plus_uconst 48] [$sp+0]
	@DEBUG_VALUE: mbedtls_pem_read_buffer:pwdlen <- [DW_OP_plus_uconst 52] [$sp+0]
	@DEBUG_VALUE: mbedtls_pem_read_buffer:use_len <- [DW_OP_plus_uconst 56] [$sp+0]
	mov	r5, r11
.Ltmp47:
.LBB1_10:
	@DEBUG_VALUE: mbedtls_pem_read_buffer:pwd <- [DW_OP_plus_uconst 48] [$sp+0]
	@DEBUG_VALUE: mbedtls_pem_read_buffer:pwdlen <- [DW_OP_plus_uconst 52] [$sp+0]
	@DEBUG_VALUE: mbedtls_pem_read_buffer:use_len <- [DW_OP_plus_uconst 56] [$sp+0]
	.loc	1 417 1 is_stmt 1               @ ../../../components/network/thread/subg_openthread/third_party/mbedtls/repo/library/pem.c:417:1
	mov	r0, r5
	add	sp, #12
	pop.w	{r4, r5, r6, r7, r8, r9, r10, r11, pc}
.Ltmp48:
.LBB1_11:
	@DEBUG_VALUE: mbedtls_pem_read_buffer:footer <- $r10
	@DEBUG_VALUE: mbedtls_pem_read_buffer:ctx <- $r9
	@DEBUG_VALUE: mbedtls_pem_read_buffer:s2 <- $r8
	@DEBUG_VALUE: mbedtls_pem_read_buffer:data <- $r6
	@DEBUG_VALUE: mbedtls_pem_read_buffer:s1 <- $r5
	@DEBUG_VALUE: mbedtls_pem_read_buffer:pwd <- [DW_OP_plus_uconst 48] [$sp+0]
	@DEBUG_VALUE: mbedtls_pem_read_buffer:pwdlen <- [DW_OP_plus_uconst 52] [$sp+0]
	@DEBUG_VALUE: mbedtls_pem_read_buffer:use_len <- [DW_OP_plus_uconst 56] [$sp+0]
	@DEBUG_VALUE: mbedtls_pem_read_buffer:enc <- 0
	@DEBUG_VALUE: mbedtls_pem_read_buffer:header <- [DW_OP_LLVM_entry_value 1] $r1
	.loc	1 0 1 is_stmt 0                 @ ../../../components/network/thread/subg_openthread/third_party/mbedtls/repo/library/pem.c:0:1
	add.w	r5, r11, #896
.Ltmp49:
	b	.LBB1_10
.Ltmp50:
.LBB1_12:
	@DEBUG_VALUE: mbedtls_pem_read_buffer:footer <- $r10
	@DEBUG_VALUE: mbedtls_pem_read_buffer:ctx <- $r9
	@DEBUG_VALUE: mbedtls_pem_read_buffer:s2 <- $r8
	@DEBUG_VALUE: mbedtls_pem_read_buffer:data <- $r6
	@DEBUG_VALUE: mbedtls_pem_read_buffer:s1 <- $r5
	@DEBUG_VALUE: mbedtls_pem_read_buffer:len <- [DW_OP_plus_uconst 8, DW_OP_deref] $sp
	@DEBUG_VALUE: mbedtls_pem_read_buffer:pwd <- [DW_OP_plus_uconst 48] [$sp+0]
	@DEBUG_VALUE: mbedtls_pem_read_buffer:pwdlen <- [DW_OP_plus_uconst 52] [$sp+0]
	@DEBUG_VALUE: mbedtls_pem_read_buffer:use_len <- [DW_OP_plus_uconst 56] [$sp+0]
	@DEBUG_VALUE: mbedtls_pem_read_buffer:enc <- 0
	@DEBUG_VALUE: mbedtls_pem_read_buffer:header <- [DW_OP_LLVM_entry_value 1] $r1
	.loc	1 348 36 is_stmt 1              @ ../../../components/network/thread/subg_openthread/third_party/mbedtls/repo/library/pem.c:348:36
	ldr	r1, [sp, #8]
.Ltmp51:
	@DEBUG_VALUE: mbedtls_pem_read_buffer:len <- $r1
	.loc	1 348 17 is_stmt 0              @ ../../../components/network/thread/subg_openthread/third_party/mbedtls/repo/library/pem.c:348:17
	movs	r0, #1
	bl	mbedtls_calloc
.Ltmp52:
	@DEBUG_VALUE: mbedtls_pem_read_buffer:buf <- $r0
	.loc	1 348 9                         @ ../../../components/network/thread/subg_openthread/third_party/mbedtls/repo/library/pem.c:348:9
	cbz	r0, .LBB1_16
.Ltmp53:
@ %bb.13:
	@DEBUG_VALUE: mbedtls_pem_read_buffer:footer <- $r10
	@DEBUG_VALUE: mbedtls_pem_read_buffer:ctx <- $r9
	@DEBUG_VALUE: mbedtls_pem_read_buffer:s2 <- $r8
	@DEBUG_VALUE: mbedtls_pem_read_buffer:data <- $r6
	@DEBUG_VALUE: mbedtls_pem_read_buffer:s1 <- $r5
	@DEBUG_VALUE: mbedtls_pem_read_buffer:buf <- $r0
	@DEBUG_VALUE: mbedtls_pem_read_buffer:pwd <- [DW_OP_plus_uconst 48] [$sp+0]
	@DEBUG_VALUE: mbedtls_pem_read_buffer:pwdlen <- [DW_OP_plus_uconst 52] [$sp+0]
	@DEBUG_VALUE: mbedtls_pem_read_buffer:use_len <- [DW_OP_plus_uconst 56] [$sp+0]
	@DEBUG_VALUE: mbedtls_pem_read_buffer:enc <- 0
	@DEBUG_VALUE: mbedtls_pem_read_buffer:header <- [DW_OP_LLVM_entry_value 1] $r1
	.loc	1 351 45 is_stmt 1              @ ../../../components/network/thread/subg_openthread/third_party/mbedtls/repo/library/pem.c:351:45
	ldr	r1, [sp, #8]
.Ltmp54:
	@DEBUG_VALUE: mbedtls_pem_read_buffer:len <- [DW_OP_plus_uconst 8, DW_OP_deref] $sp
	.loc	1 0 45 is_stmt 0                @ ../../../components/network/thread/subg_openthread/third_party/mbedtls/repo/library/pem.c:0:45
	add	r2, sp, #8
	.loc	1 351 17                        @ ../../../components/network/thread/subg_openthread/third_party/mbedtls/repo/library/pem.c:351:17
	mov	r3, r5
.Ltmp55:
	.loc	1 0 0                           @ ../../../components/network/thread/subg_openthread/third_party/mbedtls/repo/library/pem.c:0:0
	mov	r6, r0
.Ltmp56:
	@DEBUG_VALUE: mbedtls_pem_read_buffer:data <- [DW_OP_LLVM_entry_value 1] $r3
	@DEBUG_VALUE: mbedtls_pem_read_buffer:buf <- $r6
	.loc	1 351 17                        @ ../../../components/network/thread/subg_openthread/third_party/mbedtls/repo/library/pem.c:351:17
	str	r4, [sp]
	bl	mbedtls_base64_decode
.Ltmp57:
	@DEBUG_VALUE: mbedtls_pem_read_buffer:ret <- $r0
	.loc	1 351 9                         @ ../../../components/network/thread/subg_openthread/third_party/mbedtls/repo/library/pem.c:351:9
	cbz	r0, .LBB1_17
.Ltmp58:
@ %bb.14:
	@DEBUG_VALUE: mbedtls_pem_read_buffer:footer <- $r10
	@DEBUG_VALUE: mbedtls_pem_read_buffer:ctx <- $r9
	@DEBUG_VALUE: mbedtls_pem_read_buffer:s2 <- $r8
	@DEBUG_VALUE: mbedtls_pem_read_buffer:buf <- $r6
	@DEBUG_VALUE: mbedtls_pem_read_buffer:s1 <- $r5
	@DEBUG_VALUE: mbedtls_pem_read_buffer:ret <- $r0
	@DEBUG_VALUE: mbedtls_pem_read_buffer:len <- [DW_OP_plus_uconst 8, DW_OP_deref] $sp
	@DEBUG_VALUE: mbedtls_pem_read_buffer:pwd <- [DW_OP_plus_uconst 48] [$sp+0]
	@DEBUG_VALUE: mbedtls_pem_read_buffer:pwdlen <- [DW_OP_plus_uconst 52] [$sp+0]
	@DEBUG_VALUE: mbedtls_pem_read_buffer:use_len <- [DW_OP_plus_uconst 56] [$sp+0]
	@DEBUG_VALUE: mbedtls_pem_read_buffer:data <- [DW_OP_LLVM_entry_value 1] $r3
	@DEBUG_VALUE: mbedtls_pem_read_buffer:enc <- 0
	@DEBUG_VALUE: mbedtls_pem_read_buffer:header <- [DW_OP_LLVM_entry_value 1] $r1
	.loc	1 353 40 is_stmt 1              @ ../../../components/network/thread/subg_openthread/third_party/mbedtls/repo/library/pem.c:353:40
	ldr	r1, [sp, #8]
.Ltmp59:
	@DEBUG_VALUE: mbedtls_pem_read_buffer:len <- $r1
	.loc	1 0 0 is_stmt 0                 @ ../../../components/network/thread/subg_openthread/third_party/mbedtls/repo/library/pem.c:0:0
	mov	r4, r0
.Ltmp60:
	@DEBUG_VALUE: mbedtls_pem_read_buffer:ret <- $r4
	@DEBUG_VALUE: mbedtls_pem_read_buffer:ret <- $r4
	.loc	1 353 9                         @ ../../../components/network/thread/subg_openthread/third_party/mbedtls/repo/library/pem.c:353:9
	mov	r0, r6
	bl	mbedtls_platform_zeroize
.Ltmp61:
	.loc	1 354 9 is_stmt 1               @ ../../../components/network/thread/subg_openthread/third_party/mbedtls/repo/library/pem.c:354:9
	mov	r0, r6
	bl	mbedtls_free
.Ltmp62:
	@DEBUG_VALUE: mbedtls_error_add:line <- undef
	@DEBUG_VALUE: mbedtls_error_add:file <- undef
	@DEBUG_VALUE: mbedtls_error_add:low <- $r4
	@DEBUG_VALUE: mbedtls_error_add:high <- -4352
	.file	2 "D:\\20240115\\rafael-iot-sdk-das\\examples\\das_subg_thread\\keil" "../../../components/network/thread/subg_openthread/third_party/mbedtls/repo/include\\mbedtls/error.h"
	.loc	2 169 18                        @ ../../../components/network/thread/subg_openthread/third_party/mbedtls/repo/include\mbedtls/error.h:169:18
	sub.w	r5, r4, #4352
.Ltmp63:
	.loc	2 0 18 is_stmt 0                @ ../../../components/network/thread/subg_openthread/third_party/mbedtls/repo/include\mbedtls/error.h:0:18
	b	.LBB1_10
.Ltmp64:
.LBB1_15:
	@DEBUG_VALUE: mbedtls_pem_read_buffer:footer <- $r10
	@DEBUG_VALUE: mbedtls_pem_read_buffer:ctx <- $r9
	@DEBUG_VALUE: mbedtls_pem_read_buffer:s2 <- $r8
	@DEBUG_VALUE: mbedtls_pem_read_buffer:data <- $r6
	@DEBUG_VALUE: mbedtls_pem_read_buffer:s1 <- $r5
	@DEBUG_VALUE: mbedtls_pem_read_buffer:pwd <- [DW_OP_plus_uconst 48] [$sp+0]
	@DEBUG_VALUE: mbedtls_pem_read_buffer:pwdlen <- [DW_OP_plus_uconst 52] [$sp+0]
	@DEBUG_VALUE: mbedtls_pem_read_buffer:use_len <- [DW_OP_plus_uconst 56] [$sp+0]
	@DEBUG_VALUE: mbedtls_pem_read_buffer:enc <- 0
	@DEBUG_VALUE: mbedtls_pem_read_buffer:header <- [DW_OP_LLVM_entry_value 1] $r1
	add.w	r5, r11, #128
.Ltmp65:
	b	.LBB1_10
.Ltmp66:
.LBB1_16:
	@DEBUG_VALUE: mbedtls_pem_read_buffer:footer <- $r10
	@DEBUG_VALUE: mbedtls_pem_read_buffer:ctx <- $r9
	@DEBUG_VALUE: mbedtls_pem_read_buffer:s2 <- $r8
	@DEBUG_VALUE: mbedtls_pem_read_buffer:data <- $r6
	@DEBUG_VALUE: mbedtls_pem_read_buffer:s1 <- $r5
	@DEBUG_VALUE: mbedtls_pem_read_buffer:buf <- $r0
	@DEBUG_VALUE: mbedtls_pem_read_buffer:pwd <- [DW_OP_plus_uconst 48] [$sp+0]
	@DEBUG_VALUE: mbedtls_pem_read_buffer:pwdlen <- [DW_OP_plus_uconst 52] [$sp+0]
	@DEBUG_VALUE: mbedtls_pem_read_buffer:use_len <- [DW_OP_plus_uconst 56] [$sp+0]
	@DEBUG_VALUE: mbedtls_pem_read_buffer:enc <- 0
	@DEBUG_VALUE: mbedtls_pem_read_buffer:header <- [DW_OP_LLVM_entry_value 1] $r1
	add.w	r5, r11, #768
.Ltmp67:
	b	.LBB1_10
.Ltmp68:
.LBB1_17:
	@DEBUG_VALUE: mbedtls_pem_read_buffer:footer <- $r10
	@DEBUG_VALUE: mbedtls_pem_read_buffer:ctx <- $r9
	@DEBUG_VALUE: mbedtls_pem_read_buffer:s2 <- $r8
	@DEBUG_VALUE: mbedtls_pem_read_buffer:buf <- $r6
	@DEBUG_VALUE: mbedtls_pem_read_buffer:s1 <- $r5
	@DEBUG_VALUE: mbedtls_pem_read_buffer:ret <- $r0
	@DEBUG_VALUE: mbedtls_pem_read_buffer:len <- [DW_OP_plus_uconst 8, DW_OP_deref] $sp
	@DEBUG_VALUE: mbedtls_pem_read_buffer:pwd <- [DW_OP_plus_uconst 48] [$sp+0]
	@DEBUG_VALUE: mbedtls_pem_read_buffer:pwdlen <- [DW_OP_plus_uconst 52] [$sp+0]
	@DEBUG_VALUE: mbedtls_pem_read_buffer:use_len <- [DW_OP_plus_uconst 56] [$sp+0]
	@DEBUG_VALUE: mbedtls_pem_read_buffer:data <- [DW_OP_LLVM_entry_value 1] $r3
	@DEBUG_VALUE: mbedtls_pem_read_buffer:enc <- 0
	@DEBUG_VALUE: mbedtls_pem_read_buffer:header <- [DW_OP_LLVM_entry_value 1] $r1
	.loc	1 414 19 is_stmt 1              @ ../../../components/network/thread/subg_openthread/third_party/mbedtls/repo/library/pem.c:414:19
	ldr	r0, [sp, #8]
.Ltmp69:
	@DEBUG_VALUE: mbedtls_pem_read_buffer:len <- $r0
	.loc	1 0 19 is_stmt 0                @ ../../../components/network/thread/subg_openthread/third_party/mbedtls/repo/library/pem.c:0:19
	movs	r5, #0
.Ltmp70:
	.loc	1 413 14 is_stmt 1              @ ../../../components/network/thread/subg_openthread/third_party/mbedtls/repo/library/pem.c:413:14
	strd	r6, r0, [r9]
	b	.LBB1_10
.Ltmp71:
	.p2align	2
@ %bb.18:
	.loc	1 0 14 is_stmt 0                @ ../../../components/network/thread/subg_openthread/third_party/mbedtls/repo/library/pem.c:0:14
.LCPI1_0:
.L.str:
	.asciz	"Proc-Type: 4,ENCRYPTED\000"
.Lfunc_end1:
	.size	mbedtls_pem_read_buffer, .Lfunc_end1-mbedtls_pem_read_buffer
	.cfi_endproc
	.cantunwind
	.fnend
                                        @ -- End function
	.section	.text.mbedtls_pem_free,"ax",%progbits
	.hidden	mbedtls_pem_free                @ -- Begin function mbedtls_pem_free
	.globl	mbedtls_pem_free
	.p2align	1
	.type	mbedtls_pem_free,%function
	.code	16                              @ @mbedtls_pem_free
	.thumb_func
mbedtls_pem_free:
.Lfunc_begin2:
	.loc	1 420 0 is_stmt 1               @ ../../../components/network/thread/subg_openthread/third_party/mbedtls/repo/library/pem.c:420:0
	.fnstart
	.cfi_startproc
@ %bb.0:
	@DEBUG_VALUE: mbedtls_pem_free:ctx <- $r0
	.save	{r4, lr}
	push	{r4, lr}
	.cfi_def_cfa_offset 8
	.cfi_offset lr, -4
	.cfi_offset r4, -8
	mov	r4, r0
.Ltmp72:
	@DEBUG_VALUE: mbedtls_pem_free:ctx <- $r4
	.loc	1 421 15 prologue_end           @ ../../../components/network/thread/subg_openthread/third_party/mbedtls/repo/library/pem.c:421:15
	ldr	r0, [r0]
.Ltmp73:
	.loc	1 421 10 is_stmt 0              @ ../../../components/network/thread/subg_openthread/third_party/mbedtls/repo/library/pem.c:421:10
	cbz	r0, .LBB2_2
.Ltmp74:
@ %bb.1:
	@DEBUG_VALUE: mbedtls_pem_free:ctx <- $r4
	.loc	1 423 50 is_stmt 1              @ ../../../components/network/thread/subg_openthread/third_party/mbedtls/repo/library/pem.c:423:50
	ldr	r1, [r4, #4]
	.loc	1 423 9 is_stmt 0               @ ../../../components/network/thread/subg_openthread/third_party/mbedtls/repo/library/pem.c:423:9
	bl	mbedtls_platform_zeroize
.Ltmp75:
	.loc	1 424 28 is_stmt 1              @ ../../../components/network/thread/subg_openthread/third_party/mbedtls/repo/library/pem.c:424:28
	ldr	r0, [r4]
	.loc	1 424 9 is_stmt 0               @ ../../../components/network/thread/subg_openthread/third_party/mbedtls/repo/library/pem.c:424:9
	bl	mbedtls_free
.Ltmp76:
.LBB2_2:
	@DEBUG_VALUE: mbedtls_pem_free:ctx <- $r4
	.loc	1 426 24 is_stmt 1              @ ../../../components/network/thread/subg_openthread/third_party/mbedtls/repo/library/pem.c:426:24
	ldr	r0, [r4, #8]
	.loc	1 426 5 is_stmt 0               @ ../../../components/network/thread/subg_openthread/third_party/mbedtls/repo/library/pem.c:426:5
	bl	mbedtls_free
.Ltmp77:
	.loc	1 428 5 is_stmt 1               @ ../../../components/network/thread/subg_openthread/third_party/mbedtls/repo/library/pem.c:428:5
	mov	r0, r4
	movs	r1, #12
	pop.w	{r4, lr}
.Ltmp78:
	@DEBUG_VALUE: mbedtls_pem_free:ctx <- [DW_OP_LLVM_entry_value 1] $r0
	b	mbedtls_platform_zeroize
.Ltmp79:
.Lfunc_end2:
	.size	mbedtls_pem_free, .Lfunc_end2-mbedtls_pem_free
	.cfi_endproc
	.file	3 "D:\\20240115\\rafael-iot-sdk-das\\examples\\das_subg_thread\\keil" "../../../components/network/thread/subg_openthread/third_party/mbedtls/repo/include\\mbedtls/platform_util.h"
	.cantunwind
	.fnend
                                        @ -- End function
	.file	4 "D:\\20240115\\rafael-iot-sdk-das\\examples\\das_subg_thread\\keil" "../../../components/network/thread/subg_openthread/third_party/mbedtls/repo/include\\mbedtls/pem.h"
	.file	5 "C:\\Keil_v5\\ARM\\ARMCLANG\\Bin\\..\\include" "stdio.h"
	.section	".note.GNU-stack","",%progbits
	.eabi_attribute	30, 3	@ Tag_ABI_optimization_goals
	.ARM_attribute	16, 1	@ Tag_AV_eba