	.text
	.syntax unified
	.eabi_attribute	67, "2.09"	@ Tag_conformance
	.cpu	cortex-m3
	.eabi_attribute	6, 10	@ Tag_CPU_arch
	.eabi_attribute	7, 77	@ Tag_CPU_arch_profile
	.eabi_attribute	8, 0	@ Tag_ARM_ISA_use
	.eabi_attribute	9, 2	@ Tag_THUMB_ISA_use
	.eabi_attribute	34, 1	@ Tag_CPU_unaligned_access
	.eabi_attribute	17, 1	@ Tag_ABI_PCS_GOT_use
	.eabi_attribute	20, 2	@ Tag_ABI_FP_denormal
	.eabi_attribute	21, 0	@ Tag_ABI_FP_exceptions
	.eabi_attribute	23, 1	@ Tag_ABI_FP_number_model
	.eabi_attribute	24, 1	@ Tag_ABI_align_needed
	.eabi_attribute	25, 1	@ Tag_ABI_align_preserved
	.eabi_attribute	38, 1	@ Tag_ABI_FP_16bit_format
	.eabi_attribute	18, 4	@ Tag_ABI_PCS_wchar_t
	.eabi_attribute	26, 2	@ Tag_ABI_enum_size
	.eabi_attribute	14, 0	@ Tag_ABI_PCS_R9_use
	.file	"port.c"
	.file	1 "C:\\" "Keil_v5\\ARM\\ARMCLANG\\Bin\\..\\include\\stdint.h"
	.file	2 "C:\\Users\\testo\\Desktop\\rafael-iot-sdk-das - \350\244\207\350\243\275 (2)\\examples\\das_subg_thread\\keil" "../../../components/platform/soc/rt582/rt582_freertos/portable/GCC/ARM_CM3/port.c"
	.file	3 "C:\\Users\\testo\\Desktop\\rafael-iot-sdk-das - \350\244\207\350\243\275 (2)\\examples\\das_subg_thread\\keil" "../../../components/platform/soc/rt582/rt582_freertos/portable/GCC/ARM_CM3\\portmacro.h"
	.file	4 "C:\\Users\\testo\\Desktop\\rafael-iot-sdk-das - \350\244\207\350\243\275 (2)\\examples\\das_subg_thread\\keil" "../../../components/platform/soc/rt582/rt582_freertos/Inc\\task.h"
	.section	.text.pxPortInitialiseStack,"ax",%progbits
	.hidden	pxPortInitialiseStack           @ -- Begin function pxPortInitialiseStack
	.globl	pxPortInitialiseStack
	.p2align	1
	.type	pxPortInitialiseStack,%function
	.code	16                              @ @pxPortInitialiseStack
	.thumb_func
pxPortInitialiseStack:
.Lfunc_begin0:
	.loc	2 175 0                         @ ../../../components/platform/soc/rt582/rt582_freertos/portable/GCC/ARM_CM3/port.c:175:0
	.fnstart
	.cfi_sections .debug_frame
	.cfi_startproc
@ %bb.0:
	@DEBUG_VALUE: pxPortInitialiseStack:pxTopOfStack <- $r0
	@DEBUG_VALUE: pxPortInitialiseStack:pxCode <- $r1
	@DEBUG_VALUE: pxPortInitialiseStack:pvParameters <- $r2
	mov	r3, r0
.Ltmp0:
	@DEBUG_VALUE: pxPortInitialiseStack:pxTopOfStack <- [DW_OP_plus_uconst 4294967292, DW_OP_stack_value] $r3
	.loc	2 183 19 prologue_end           @ ../../../components/platform/soc/rt582/rt582_freertos/portable/GCC/ARM_CM3/port.c:183:19
	movw	r0, :lower16:prvTaskExitError
	movt	r0, :upper16:prvTaskExitError
.Ltmp1:
	@DEBUG_VALUE: pxPortInitialiseStack:pxTopOfStack <- [DW_OP_plus_uconst 4294967264, DW_OP_stack_value] $r3
	.loc	2 0 19 is_stmt 0                @ ../../../components/platform/soc/rt582/rt582_freertos/portable/GCC/ARM_CM3/port.c:0:19
	mov.w	r12, #16777216
	@DEBUG_VALUE: pxPortInitialiseStack:pvParameters <- $r2
	@DEBUG_VALUE: pxPortInitialiseStack:pxCode <- $r1
.Ltmp2:
	@DEBUG_VALUE: pxPortInitialiseStack:pxTopOfStack <- [DW_OP_plus_uconst 4294967288, DW_OP_stack_value] $r3
	.loc	2 181 48 is_stmt 1              @ ../../../components/platform/soc/rt582/rt582_freertos/portable/GCC/ARM_CM3/port.c:181:48
	bic	r1, r1, #1
.Ltmp3:
	@DEBUG_VALUE: pxPortInitialiseStack:pxCode <- [DW_OP_LLVM_entry_value 1] $r1
	@DEBUG_VALUE: pxPortInitialiseStack:pxTopOfStack <- [DW_OP_plus_uconst 4294967284, DW_OP_stack_value] $r3
	.loc	2 183 19                        @ ../../../components/platform/soc/rt582/rt582_freertos/portable/GCC/ARM_CM3/port.c:183:19
	stmdb	r3, {r0, r1, r12}
	.loc	2 186 18                        @ ../../../components/platform/soc/rt582/rt582_freertos/portable/GCC/ARM_CM3/port.c:186:18
	sub.w	r0, r3, #64
.Ltmp4:
	@DEBUG_VALUE: pxPortInitialiseStack:pxTopOfStack <- $r0
	.loc	2 185 19                        @ ../../../components/platform/soc/rt582/rt582_freertos/portable/GCC/ARM_CM3/port.c:185:19
	str	r2, [r3, #-32]
	.loc	2 188 5                         @ ../../../components/platform/soc/rt582/rt582_freertos/portable/GCC/ARM_CM3/port.c:188:5
	bx	lr
.Ltmp5:
.Lfunc_end0:
	.size	pxPortInitialiseStack, .Lfunc_end0-pxPortInitialiseStack
	.cfi_endproc
	.cantunwind
	.fnend
                                        @ -- End function
	.section	.text.prvTaskExitError,"ax",%progbits
	.p2align	2                               @ -- Begin function prvTaskExitError
	.type	prvTaskExitError,%function
	.code	16                              @ @prvTaskExitError
	.thumb_func
prvTaskExitError:
.Lfunc_begin1:
	.loc	2 193 0                         @ ../../../components/platform/soc/rt582/rt582_freertos/portable/GCC/ARM_CM3/port.c:193:0
	.fnstart
	.cfi_startproc
@ %bb.0:
	.save	{r7, lr}
	push	{r7, lr}
	.cfi_def_cfa_offset 8
	.cfi_offset lr, -4
	.cfi_offset r7, -8
	.pad	#8
	sub	sp, #8
	.cfi_def_cfa_offset 16
	movs	r0, #0
.Ltmp6:
	.loc	2 194 23 prologue_end           @ ../../../components/platform/soc/rt582/rt582_freertos/portable/GCC/ARM_CM3/port.c:194:23
	str	r0, [sp, #4]
.Ltmp7:
	.loc	2 202 5                         @ ../../../components/platform/soc/rt582/rt582_freertos/portable/GCC/ARM_CM3/port.c:202:5
	movw	r0, :lower16:uxCriticalNesting
	movt	r0, :upper16:uxCriticalNesting
	ldr	r0, [r0]
.Ltmp8:
	.loc	2 202 5 is_stmt 0               @ ../../../components/platform/soc/rt582/rt582_freertos/portable/GCC/ARM_CM3/port.c:202:5
	adds	r0, #1
	beq	.LBB1_3
@ %bb.1:
.Ltmp9:
	.loc	2 202 5                         @ ../../../components/platform/soc/rt582/rt582_freertos/portable/GCC/ARM_CM3/port.c:202:5
	movw	r0, :lower16:.L.str
	movw	r2, :lower16:.L.str.2
	mov.w	r12, #202
	movt	r0, :upper16:.L.str
	adr	r1, .LCPI1_0
	movt	r2, :upper16:.L.str.2
	adr	r3, .LCPI1_1
	str.w	r12, [sp]
	bl	__2printf
.Ltmp10:
	.file	5 "C:/Keil_v5/ARM/Pack/ARM/CMSIS/6.0.0/CMSIS/Core/Include/./m-profile" "cmsis_armclang_m.h"
	.loc	5 708 3 is_stmt 1               @ C:/Keil_v5/ARM/Pack/ARM/CMSIS/6.0.0/CMSIS/Core/Include/./m-profile/cmsis_armclang_m.h:708:3
	@APP
	cpsid i
	@NO_APP
.Ltmp11:
	.p2align	2
.LBB1_2:                                @ =>This Inner Loop Header: Depth=1
	.loc	2 202 5                         @ ../../../components/platform/soc/rt582/rt582_freertos/portable/GCC/ARM_CM3/port.c:202:5
	b	.LBB1_2
.Ltmp12:
.LBB1_3:
	.loc	3 197 5                         @ ../../../components/platform/soc/rt582/rt582_freertos/portable/GCC/ARM_CM3\portmacro.h:197:5
	@APP
	mov.w	r0, #64
	msr	basepri, r0
	isb	sy
	dsb	sy

	@NO_APP
.Ltmp13:
	@DEBUG_VALUE: vPortRaiseBASEPRI:ulNewBASEPRI <- $r0
	.p2align	2
.LBB1_4:                                @ =>This Inner Loop Header: Depth=1
	.loc	2 204 13                        @ ../../../components/platform/soc/rt582/rt582_freertos/portable/GCC/ARM_CM3/port.c:204:13
	ldr	r0, [sp, #4]
	.loc	2 204 5 is_stmt 0               @ ../../../components/platform/soc/rt582/rt582_freertos/portable/GCC/ARM_CM3/port.c:204:5
	cmp	r0, #0
	beq	.LBB1_4
@ %bb.5:
	.loc	2 214 1 is_stmt 1               @ ../../../components/platform/soc/rt582/rt582_freertos/portable/GCC/ARM_CM3/port.c:214:1
	add	sp, #8
	pop	{r7, pc}
.Ltmp14:
	.p2align	2
@ %bb.6:
	.loc	2 0 1 is_stmt 0                 @ ../../../components/platform/soc/rt582/rt582_freertos/portable/GCC/ARM_CM3/port.c:0:1
.LCPI1_0:
.L.str.8:
	.asciz	"uxCriticalNesting == ~0UL\000\000"
.LCPI1_1:
.L__func__.prvTaskExitError:
	.asciz	"prvTaskExitError\000\000\000"
.Lfunc_end1:
	.size	prvTaskExitError, .Lfunc_end1-prvTaskExitError
	.cfi_endproc
	.cantunwind
	.fnend
                                        @ -- End function
	.section	.text.vPortSVCHandler,"ax",%progbits
	.hidden	vPortSVCHandler                 @ -- Begin function vPortSVCHandler
	.globl	vPortSVCHandler
	.p2align	1
	.type	vPortSVCHandler,%function
	.code	16                              @ @vPortSVCHandler
	.thumb_func
vPortSVCHandler:
.Lfunc_begin2:
	.loc	2 218 0 is_stmt 1               @ ../../../components/platform/soc/rt582/rt582_freertos/portable/GCC/ARM_CM3/port.c:218:0
	.fnstart
	.cfi_startproc
@ %bb.0:
	.loc	2 219 5 prologue_end            @ ../../../components/platform/soc/rt582/rt582_freertos/portable/GCC/ARM_CM3/port.c:219:5
	@APP
	ldr	r3, pxCurrentTCBConst2
	ldr	r1, [r3]
	ldr	r0, [r1]
	ldm.w	r0!, {r4, r5, r6, r7, r8, r9, r10, r11}
	msr	psp, r0
	isb	sy
	mov.w	r0, #0
	msr	basepri, r0
	orr	lr, lr, #13
	bx	lr

	.p2align	4
pxCurrentTCBConst2:
	.long	pxCurrentTCB

	@NO_APP
.Ltmp15:
.Lfunc_end2:
	.size	vPortSVCHandler, .Lfunc_end2-vPortSVCHandler
	.cfi_endproc
	.cantunwind
	.fnend
                                        @ -- End function
	.section	.text.xPortStartScheduler,"ax",%progbits
	.hidden	xPortStartScheduler             @ -- Begin function xPortStartScheduler
	.globl	xPortStartScheduler
	.p2align	2
	.type	xPortStartScheduler,%function
	.code	16                              @ @xPortStartScheduler
	.thumb_func
xPortStartScheduler:
.Lfunc_begin3:
	.loc	2 258 0                         @ ../../../components/platform/soc/rt582/rt582_freertos/portable/GCC/ARM_CM3/port.c:258:0
	.fnstart
	.cfi_startproc
@ %bb.0:
	.save	{r7, lr}
	push	{r7, lr}
	.cfi_def_cfa_offset 8
	.cfi_offset lr, -4
	.cfi_offset r7, -8
	.pad	#16
	sub	sp, #16
	.cfi_def_cfa_offset 24
	movw	r0, #58368
	movt	r0, #57344
.Ltmp16:
	.loc	2 274 30 prologue_end           @ ../../../components/platform/soc/rt582/rt582_freertos/portable/GCC/ARM_CM3/port.c:274:30
	ldrb	r1, [r0]
	.loc	2 284 30                        @ ../../../components/platform/soc/rt582/rt582_freertos/portable/GCC/ARM_CM3/port.c:284:30
	movw	r2, :lower16:ucMaxSysCallPriority
	.loc	2 274 28                        @ ../../../components/platform/soc/rt582/rt582_freertos/portable/GCC/ARM_CM3/port.c:274:28
	str	r1, [sp, #12]
	movs	r1, #255
	.loc	2 278 39                        @ ../../../components/platform/soc/rt582/rt582_freertos/portable/GCC/ARM_CM3/port.c:278:39
	strb	r1, [r0]
	.loc	2 281 30                        @ ../../../components/platform/soc/rt582/rt582_freertos/portable/GCC/ARM_CM3/port.c:281:30
	ldrb	r1, [r0]
	.loc	2 284 30                        @ ../../../components/platform/soc/rt582/rt582_freertos/portable/GCC/ARM_CM3/port.c:284:30
	movt	r2, :upper16:ucMaxSysCallPriority
	.loc	2 281 28                        @ ../../../components/platform/soc/rt582/rt582_freertos/portable/GCC/ARM_CM3/port.c:281:28
	strb.w	r1, [sp, #11]
	.loc	2 284 71                        @ ../../../components/platform/soc/rt582/rt582_freertos/portable/GCC/ARM_CM3/port.c:284:71
	ldrb.w	r1, [sp, #11]
	.loc	2 284 69 is_stmt 0              @ ../../../components/platform/soc/rt582/rt582_freertos/portable/GCC/ARM_CM3/port.c:284:69
	and	r1, r1, #64
	.loc	2 284 30                        @ ../../../components/platform/soc/rt582/rt582_freertos/portable/GCC/ARM_CM3/port.c:284:30
	strb	r1, [r2]
	.loc	2 288 28 is_stmt 1              @ ../../../components/platform/soc/rt582/rt582_freertos/portable/GCC/ARM_CM3/port.c:288:28
	movw	r1, :lower16:ulMaxPRIGROUPValue
	movt	r1, :upper16:ulMaxPRIGROUPValue
	movs	r2, #7
	str	r2, [r1]
	.loc	2 289 19                        @ ../../../components/platform/soc/rt582/rt582_freertos/portable/GCC/ARM_CM3/port.c:289:19
	ldrsb.w	r2, [sp, #11]
	.loc	2 289 9 is_stmt 0               @ ../../../components/platform/soc/rt582/rt582_freertos/portable/GCC/ARM_CM3/port.c:289:9
	cmp.w	r2, #-1
.Ltmp17:
	@DEBUG_VALUE: pucFirstUserPriorityRegister <- undef
	bgt	.LBB3_5
.Ltmp18:
@ %bb.1:
	.loc	2 0 9                           @ ../../../components/platform/soc/rt582/rt582_freertos/portable/GCC/ARM_CM3/port.c:0:9
	movs	r2, #7
	.p2align	2
.LBB3_2:                                @ =>This Inner Loop Header: Depth=1
.Ltmp19:
	.loc	2 292 32 is_stmt 1              @ ../../../components/platform/soc/rt582/rt582_freertos/portable/GCC/ARM_CM3/port.c:292:32
	ldrb.w	r3, [sp, #11]
	.loc	2 291 31                        @ ../../../components/platform/soc/rt582/rt582_freertos/portable/GCC/ARM_CM3/port.c:291:31
	subs	r2, #1
	.loc	2 292 32                        @ ../../../components/platform/soc/rt582/rt582_freertos/portable/GCC/ARM_CM3/port.c:292:32
	lsls	r3, r3, #1
	strb.w	r3, [sp, #11]
.Ltmp20:
	.loc	2 289 19                        @ ../../../components/platform/soc/rt582/rt582_freertos/portable/GCC/ARM_CM3/port.c:289:19
	ldrsb.w	r3, [sp, #11]
	.loc	2 289 9 is_stmt 0               @ ../../../components/platform/soc/rt582/rt582_freertos/portable/GCC/ARM_CM3/port.c:289:9
	cmp	r3, #0
	bmi	.LBB3_2
@ %bb.3:
.Ltmp21:
	.loc	2 300 13 is_stmt 1              @ ../../../components/platform/soc/rt582/rt582_freertos/portable/GCC/ARM_CM3/port.c:300:13
	cmp	r2, #4
.Ltmp22:
	.loc	2 291 31                        @ ../../../components/platform/soc/rt582/rt582_freertos/portable/GCC/ARM_CM3/port.c:291:31
	str	r2, [r1]
.Ltmp23:
	.loc	2 300 13                        @ ../../../components/platform/soc/rt582/rt582_freertos/portable/GCC/ARM_CM3/port.c:300:13
	bne	.LBB3_5
.Ltmp24:
@ %bb.4:
	.loc	2 0 13 is_stmt 0                @ ../../../components/platform/soc/rt582/rt582_freertos/portable/GCC/ARM_CM3/port.c:0:13
	mov.w	r2, #1024
	.loc	2 316 28 is_stmt 1              @ ../../../components/platform/soc/rt582/rt582_freertos/portable/GCC/ARM_CM3/port.c:316:28
	str	r2, [r1]
	.loc	2 320 41                        @ ../../../components/platform/soc/rt582/rt582_freertos/portable/GCC/ARM_CM3/port.c:320:41
	ldr	r1, [sp, #12]
	.loc	2 320 39 is_stmt 0              @ ../../../components/platform/soc/rt582/rt582_freertos/portable/GCC/ARM_CM3/port.c:320:39
	strb	r1, [r0]
.Ltmp25:
	.loc	2 325 26 is_stmt 1              @ ../../../components/platform/soc/rt582/rt582_freertos/portable/GCC/ARM_CM3/port.c:325:26
	ldr.w	r1, [r0, #2336]
	orr	r1, r1, #14680064
	str.w	r1, [r0, #2336]
	.loc	2 326 26                        @ ../../../components/platform/soc/rt582/rt582_freertos/portable/GCC/ARM_CM3/port.c:326:26
	ldr.w	r1, [r0, #2336]
	orr	r1, r1, #-536870912
	str.w	r1, [r0, #2336]
	.loc	2 330 5                         @ ../../../components/platform/soc/rt582/rt582_freertos/portable/GCC/ARM_CM3/port.c:330:5
	bl	vPortSetupTimerInterrupt
.Ltmp26:
	.loc	2 333 23                        @ ../../../components/platform/soc/rt582/rt582_freertos/portable/GCC/ARM_CM3/port.c:333:23
	movw	r0, :lower16:uxCriticalNesting
	movt	r0, :upper16:uxCriticalNesting
	movs	r1, #0
	str	r1, [r0]
	.loc	2 336 5                         @ ../../../components/platform/soc/rt582/rt582_freertos/portable/GCC/ARM_CM3/port.c:336:5
	bl	prvPortStartFirstTask
.Ltmp27:
	.loc	2 344 5                         @ ../../../components/platform/soc/rt582/rt582_freertos/portable/GCC/ARM_CM3/port.c:344:5
	bl	vTaskSwitchContext
.Ltmp28:
	.loc	2 345 5                         @ ../../../components/platform/soc/rt582/rt582_freertos/portable/GCC/ARM_CM3/port.c:345:5
	bl	prvTaskExitError
.Ltmp29:
	.loc	2 348 5                         @ ../../../components/platform/soc/rt582/rt582_freertos/portable/GCC/ARM_CM3/port.c:348:5
	movs	r0, #0
	add	sp, #16
	pop	{r7, pc}
.LBB3_5:
.Ltmp30:
	.loc	2 300 13                        @ ../../../components/platform/soc/rt582/rt582_freertos/portable/GCC/ARM_CM3/port.c:300:13
	movw	r0, :lower16:.L.str
	movw	r1, :lower16:.L.str.1
	movw	r2, :lower16:.L.str.2
	mov.w	r12, #300
	movt	r0, :upper16:.L.str
	movt	r1, :upper16:.L.str.1
	movt	r2, :upper16:.L.str.2
	adr	r3, .LCPI3_0
	str.w	r12, [sp]
	bl	__2printf
.Ltmp31:
	.loc	5 708 3                         @ C:/Keil_v5/ARM/Pack/ARM/CMSIS/6.0.0/CMSIS/Core/Include/./m-profile/cmsis_armclang_m.h:708:3
	@APP
	cpsid i
	@NO_APP
.Ltmp32:
	.p2align	2
.LBB3_6:                                @ =>This Inner Loop Header: Depth=1
	.loc	2 300 13                        @ ../../../components/platform/soc/rt582/rt582_freertos/portable/GCC/ARM_CM3/port.c:300:13
	b	.LBB3_6
.Ltmp33:
	.p2align	2
@ %bb.7:
	.loc	2 0 13 is_stmt 0                @ ../../../components/platform/soc/rt582/rt582_freertos/portable/GCC/ARM_CM3/port.c:0:13
.LCPI3_0:
.L__func__.xPortStartScheduler:
	.asciz	"xPortStartScheduler"
.Lfunc_end3:
	.size	xPortStartScheduler, .Lfunc_end3-xPortStartScheduler
	.cfi_endproc
	.cantunwind
	.fnend
                                        @ -- End function
	.section	.text.vPortSetupTimerInterrupt,"ax",%progbits
	.hidden	vPortSetupTimerInterrupt        @ -- Begin function vPortSetupTimerInterrupt
	.weak	vPortSetupTimerInterrupt
	.p2align	1
	.type	vPortSetupTimerInterrupt,%function
	.code	16                              @ @vPortSetupTimerInterrupt
	.thumb_func
vPortSetupTimerInterrupt:
.Lfunc_begin4:
	.loc	2 617 0 is_stmt 1               @ ../../../components/platform/soc/rt582/rt582_freertos/portable/GCC/ARM_CM3/port.c:617:0
	.fnstart
	.cfi_startproc
@ %bb.0:
	.loc	2 621 37 prologue_end           @ ../../../components/platform/soc/rt582/rt582_freertos/portable/GCC/ARM_CM3/port.c:621:37
	movw	r0, :lower16:SystemCoreClock
	movt	r0, :upper16:SystemCoreClock
	ldr	r1, [r0]
	movw	r2, #19923
	movt	r2, #4194
	.loc	2 621 60 is_stmt 0              @ ../../../components/platform/soc/rt582/rt582_freertos/portable/GCC/ARM_CM3/port.c:621:60
	umull	r1, r3, r1, r2
	lsrs	r1, r3, #6
	.loc	2 621 33                        @ ../../../components/platform/soc/rt582/rt582_freertos/portable/GCC/ARM_CM3/port.c:621:33
	movw	r3, :lower16:ulTimerCountsForOneTick
	movt	r3, :upper16:ulTimerCountsForOneTick
	str	r1, [r3]
	mvn	r3, #-16777216
	.loc	2 622 65 is_stmt 1              @ ../../../components/platform/soc/rt582/rt582_freertos/portable/GCC/ARM_CM3/port.c:622:65
	udiv	r1, r3, r1
	.loc	2 622 41 is_stmt 0              @ ../../../components/platform/soc/rt582/rt582_freertos/portable/GCC/ARM_CM3/port.c:622:41
	movw	r3, :lower16:xMaximumPossibleSuppressedTicks
	movt	r3, :upper16:xMaximumPossibleSuppressedTicks
	str	r1, [r3]
	.loc	2 623 36 is_stmt 1              @ ../../../components/platform/soc/rt582/rt582_freertos/portable/GCC/ARM_CM3/port.c:623:36
	movw	r1, :lower16:ulStoppedTimerCompensation
	movt	r1, :upper16:ulStoppedTimerCompensation
	movs	r3, #1
	strb	r3, [r1]
	movw	r1, #57360
	movt	r1, #57344
	movs	r3, #0
.Ltmp34:
	.loc	2 628 31                        @ ../../../components/platform/soc/rt582/rt582_freertos/portable/GCC/ARM_CM3/port.c:628:31
	str	r3, [r1]
	.loc	2 629 40                        @ ../../../components/platform/soc/rt582/rt582_freertos/portable/GCC/ARM_CM3/port.c:629:40
	str	r3, [r1, #8]
	.loc	2 632 35                        @ ../../../components/platform/soc/rt582/rt582_freertos/portable/GCC/ARM_CM3/port.c:632:35
	ldr	r0, [r0]
	.loc	2 632 58 is_stmt 0              @ ../../../components/platform/soc/rt582/rt582_freertos/portable/GCC/ARM_CM3/port.c:632:58
	umull	r0, r2, r0, r2
	mov.w	r0, #-1
	.loc	2 632 81                        @ ../../../components/platform/soc/rt582/rt582_freertos/portable/GCC/ARM_CM3/port.c:632:81
	add.w	r0, r0, r2, lsr #6
	.loc	2 632 31                        @ ../../../components/platform/soc/rt582/rt582_freertos/portable/GCC/ARM_CM3/port.c:632:31
	str	r0, [r1, #4]
	movs	r0, #7
	.loc	2 633 31 is_stmt 1              @ ../../../components/platform/soc/rt582/rt582_freertos/portable/GCC/ARM_CM3/port.c:633:31
	str	r0, [r1]
	.loc	2 634 1                         @ ../../../components/platform/soc/rt582/rt582_freertos/portable/GCC/ARM_CM3/port.c:634:1
	bx	lr
.Ltmp35:
.Lfunc_end4:
	.size	vPortSetupTimerInterrupt, .Lfunc_end4-vPortSetupTimerInterrupt
	.cfi_endproc
	.cantunwind
	.fnend
                                        @ -- End function
	.section	.text.prvPortStartFirstTask,"ax",%progbits
	.p2align	1                               @ -- Begin function prvPortStartFirstTask
	.type	prvPortStartFirstTask,%function
	.code	16                              @ @prvPortStartFirstTask
	.thumb_func
prvPortStartFirstTask:
.Lfunc_begin5:
	.loc	2 238 0                         @ ../../../components/platform/soc/rt582/rt582_freertos/portable/GCC/ARM_CM3/port.c:238:0
	.fnstart
	.cfi_startproc
@ %bb.0:
	.loc	2 239 5 prologue_end            @ ../../../components/platform/soc/rt582/rt582_freertos/portable/GCC/ARM_CM3/port.c:239:5
	@APP
	ldr	r0, .Ltmp36
	ldr	r0, [r0]
	ldr	r0, [r0]
	msr	msp, r0
	cpsie i
	cpsie f
	dsb	sy
	isb	sy
	svc	#0
	nop

	@NO_APP
.Ltmp37:
.Lfunc_end5:
	.size	prvPortStartFirstTask, .Lfunc_end5-prvPortStartFirstTask
	.cfi_endproc
	.cantunwind
	.fnend
                                        @ -- End function
	.section	.text.vPortEndScheduler,"ax",%progbits
	.hidden	vPortEndScheduler               @ -- Begin function vPortEndScheduler
	.globl	vPortEndScheduler
	.p2align	2
	.type	vPortEndScheduler,%function
	.code	16                              @ @vPortEndScheduler
	.thumb_func
vPortEndScheduler:
.Lfunc_begin6:
	.loc	2 353 0                         @ ../../../components/platform/soc/rt582/rt582_freertos/portable/GCC/ARM_CM3/port.c:353:0
	.fnstart
	.cfi_startproc
@ %bb.0:
	.save	{r7, lr}
	push	{r7, lr}
	.cfi_def_cfa_offset 8
	.cfi_offset lr, -4
	.cfi_offset r7, -8
	.pad	#8
	sub	sp, #8
	.cfi_def_cfa_offset 16
.Ltmp38:
	.loc	2 356 5 prologue_end            @ ../../../components/platform/soc/rt582/rt582_freertos/portable/GCC/ARM_CM3/port.c:356:5
	movw	r0, :lower16:uxCriticalNesting
	movt	r0, :upper16:uxCriticalNesting
	ldr	r0, [r0]
.Ltmp39:
	.loc	2 356 5 is_stmt 0               @ ../../../components/platform/soc/rt582/rt582_freertos/portable/GCC/ARM_CM3/port.c:356:5
	cmp.w	r0, #1000
	.loc	2 357 1 is_stmt 1               @ ../../../components/platform/soc/rt582/rt582_freertos/portable/GCC/ARM_CM3/port.c:357:1
	itt	eq
	addeq	sp, #8
	popeq	{r7, pc}
.LBB6_1:
.Ltmp40:
	.loc	2 356 5                         @ ../../../components/platform/soc/rt582/rt582_freertos/portable/GCC/ARM_CM3/port.c:356:5
	movw	r0, :lower16:.L.str
	movw	r2, :lower16:.L.str.2
	mov.w	r12, #356
	movt	r0, :upper16:.L.str
	adr	r1, .LCPI6_0
	movt	r2, :upper16:.L.str.2
	adr	r3, .LCPI6_1
	str.w	r12, [sp]
	bl	__2printf
.Ltmp41:
	.loc	5 708 3                         @ C:/Keil_v5/ARM/Pack/ARM/CMSIS/6.0.0/CMSIS/Core/Include/./m-profile/cmsis_armclang_m.h:708:3
	@APP
	cpsid i
	@NO_APP
.Ltmp42:
	.p2align	2
.LBB6_2:                                @ =>This Inner Loop Header: Depth=1
	.loc	2 356 5                         @ ../../../components/platform/soc/rt582/rt582_freertos/portable/GCC/ARM_CM3/port.c:356:5
	b	.LBB6_2
.Ltmp43:
	.p2align	2
@ %bb.3:
	.loc	2 0 5 is_stmt 0                 @ ../../../components/platform/soc/rt582/rt582_freertos/portable/GCC/ARM_CM3/port.c:0:5
.LCPI6_0:
.L.str.3:
	.asciz	"uxCriticalNesting == 1000UL"
.LCPI6_1:
.L__func__.vPortEndScheduler:
	.asciz	"vPortEndScheduler\000\000"
.Lfunc_end6:
	.size	vPortEndScheduler, .Lfunc_end6-vPortEndScheduler
	.cfi_endproc
	.cantunwind
	.fnend
                                        @ -- End function
	.section	.text.vPortEnterCritical,"ax",%progbits
	.hidden	vPortEnterCritical              @ -- Begin function vPortEnterCritical
	.globl	vPortEnterCritical
	.p2align	2
	.type	vPortEnterCritical,%function
	.code	16                              @ @vPortEnterCritical
	.thumb_func
vPortEnterCritical:
.Lfunc_begin7:
	.loc	2 361 0 is_stmt 1               @ ../../../components/platform/soc/rt582/rt582_freertos/portable/GCC/ARM_CM3/port.c:361:0
	.fnstart
	.cfi_startproc
@ %bb.0:
	.save	{r7, lr}
	push	{r7, lr}
	.cfi_def_cfa_offset 8
	.cfi_offset lr, -4
	.cfi_offset r7, -8
	.pad	#8
	sub	sp, #8
	.cfi_def_cfa_offset 16
.Ltmp44:
	.loc	3 197 5 prologue_end            @ ../../../components/platform/soc/rt582/rt582_freertos/portable/GCC/ARM_CM3\portmacro.h:197:5
	@APP
	mov.w	r0, #64
	msr	basepri, r0
	isb	sy
	dsb	sy

	@NO_APP
.Ltmp45:
	@DEBUG_VALUE: vPortRaiseBASEPRI:ulNewBASEPRI <- $r0
	.loc	2 363 22                        @ ../../../components/platform/soc/rt582/rt582_freertos/portable/GCC/ARM_CM3/port.c:363:22
	movw	r0, :lower16:uxCriticalNesting
	movt	r0, :upper16:uxCriticalNesting
	ldr	r1, [r0]
	adds	r2, r1, #1
	str	r2, [r0]
	.loc	2 370 10                        @ ../../../components/platform/soc/rt582/rt582_freertos/portable/GCC/ARM_CM3/port.c:370:10
	cbz	r1, .LBB7_2
.LBB7_1:
	.loc	2 374 1                         @ ../../../components/platform/soc/rt582/rt582_freertos/portable/GCC/ARM_CM3/port.c:374:1
	add	sp, #8
	pop	{r7, pc}
.LBB7_2:
	.loc	2 0 1 is_stmt 0                 @ ../../../components/platform/soc/rt582/rt582_freertos/portable/GCC/ARM_CM3/port.c:0:1
	movw	r0, #60676
	movt	r0, #57344
.Ltmp46:
	.loc	2 372 9 is_stmt 1               @ ../../../components/platform/soc/rt582/rt582_freertos/portable/GCC/ARM_CM3/port.c:372:9
	ldr	r0, [r0]
.Ltmp47:
	.loc	2 372 9 is_stmt 0               @ ../../../components/platform/soc/rt582/rt582_freertos/portable/GCC/ARM_CM3/port.c:372:9
	lsls	r0, r0, #24
	beq	.LBB7_1
@ %bb.3:
.Ltmp48:
	.loc	2 372 9                         @ ../../../components/platform/soc/rt582/rt582_freertos/portable/GCC/ARM_CM3/port.c:372:9
	movw	r0, :lower16:.L.str
	movw	r2, :lower16:.L.str.2
	mov.w	r12, #372
	movt	r0, :upper16:.L.str
	adr	r1, .LCPI7_0
	movt	r2, :upper16:.L.str.2
	adr	r3, .LCPI7_1
	str.w	r12, [sp]
	bl	__2printf
.Ltmp49:
	.loc	5 708 3 is_stmt 1               @ C:/Keil_v5/ARM/Pack/ARM/CMSIS/6.0.0/CMSIS/Core/Include/./m-profile/cmsis_armclang_m.h:708:3
	@APP
	cpsid i
	@NO_APP
.Ltmp50:
	.p2align	2
.LBB7_4:                                @ =>This Inner Loop Header: Depth=1
	.loc	2 372 9                         @ ../../../components/platform/soc/rt582/rt582_freertos/portable/GCC/ARM_CM3/port.c:372:9
	b	.LBB7_4
.Ltmp51:
	.p2align	2
@ %bb.5:
	.loc	2 0 9 is_stmt 0                 @ ../../../components/platform/soc/rt582/rt582_freertos/portable/GCC/ARM_CM3/port.c:0:9
.LCPI7_0:
.L.str.4:
	.asciz	"( portNVIC_INT_CTRL_REG & portVECTACTIVE_MASK ) == 0\000\000\000"
.LCPI7_1:
.L__func__.vPortEnterCritical:
	.asciz	"vPortEnterCritical\000"
.Lfunc_end7:
	.size	vPortEnterCritical, .Lfunc_end7-vPortEnterCritical
	.cfi_endproc
	.cantunwind
	.fnend
                                        @ -- End function
	.section	.text.vPortExitCritical,"ax",%progbits
	.hidden	vPortExitCritical               @ -- Begin function vPortExitCritical
	.globl	vPortExitCritical
	.p2align	2
	.type	vPortExitCritical,%function
	.code	16                              @ @vPortExitCritical
	.thumb_func
vPortExitCritical:
.Lfunc_begin8:
	.loc	2 378 0 is_stmt 1               @ ../../../components/platform/soc/rt582/rt582_freertos/portable/GCC/ARM_CM3/port.c:378:0
	.fnstart
	.cfi_startproc
@ %bb.0:
	.save	{r7, lr}
	push	{r7, lr}
	.cfi_def_cfa_offset 8
	.cfi_offset lr, -4
	.cfi_offset r7, -8
	.pad	#8
	sub	sp, #8
	.cfi_def_cfa_offset 16
.Ltmp52:
	.loc	2 379 5 prologue_end            @ ../../../components/platform/soc/rt582/rt582_freertos/portable/GCC/ARM_CM3/port.c:379:5
	movw	r0, :lower16:uxCriticalNesting
	movt	r0, :upper16:uxCriticalNesting
	ldr	r1, [r0]
.Ltmp53:
	.loc	2 379 5 is_stmt 0               @ ../../../components/platform/soc/rt582/rt582_freertos/portable/GCC/ARM_CM3/port.c:379:5
	cbz	r1, .LBB8_4
@ %bb.1:
	.loc	2 380 22 is_stmt 1              @ ../../../components/platform/soc/rt582/rt582_freertos/portable/GCC/ARM_CM3/port.c:380:22
	subs	r1, #1
	str	r1, [r0]
	.loc	2 381 10                        @ ../../../components/platform/soc/rt582/rt582_freertos/portable/GCC/ARM_CM3/port.c:381:10
	bne	.LBB8_3
@ %bb.2:
	.loc	2 0 10 is_stmt 0                @ ../../../components/platform/soc/rt582/rt582_freertos/portable/GCC/ARM_CM3/port.c:0:10
	movs	r0, #0
.Ltmp54:
	@DEBUG_VALUE: vPortSetBASEPRI:ulNewMaskValue <- 0
	.loc	3 231 5 is_stmt 1               @ ../../../components/platform/soc/rt582/rt582_freertos/portable/GCC/ARM_CM3\portmacro.h:231:5
	@APP
	msr	basepri, r0
	@NO_APP
.Ltmp55:
.LBB8_3:
	.loc	2 385 1                         @ ../../../components/platform/soc/rt582/rt582_freertos/portable/GCC/ARM_CM3/port.c:385:1
	add	sp, #8
	pop	{r7, pc}
.LBB8_4:
.Ltmp56:
	.loc	2 379 5                         @ ../../../components/platform/soc/rt582/rt582_freertos/portable/GCC/ARM_CM3/port.c:379:5
	movw	r0, :lower16:.L.str
	movw	r2, :lower16:.L.str.2
	movw	r12, #379
	movt	r0, :upper16:.L.str
	adr	r1, .LCPI8_0
	movt	r2, :upper16:.L.str.2
	adr	r3, .LCPI8_1
	str.w	r12, [sp]
	bl	__2printf
.Ltmp57:
	.loc	5 708 3                         @ C:/Keil_v5/ARM/Pack/ARM/CMSIS/6.0.0/CMSIS/Core/Include/./m-profile/cmsis_armclang_m.h:708:3
	@APP
	cpsid i
	@NO_APP
.Ltmp58:
	.p2align	2
.LBB8_5:                                @ =>This Inner Loop Header: Depth=1
	.loc	2 379 5                         @ ../../../components/platform/soc/rt582/rt582_freertos/portable/GCC/ARM_CM3/port.c:379:5
	b	.LBB8_5
.Ltmp59:
	.p2align	2
@ %bb.6:
	.loc	2 0 5 is_stmt 0                 @ ../../../components/platform/soc/rt582/rt582_freertos/portable/GCC/ARM_CM3/port.c:0:5
.LCPI8_0:
.L.str.5:
	.asciz	"uxCriticalNesting\000\000"
.LCPI8_1:
.L__func__.vPortExitCritical:
	.asciz	"vPortExitCritical\000\000"
.Lfunc_end8:
	.size	vPortExitCritical, .Lfunc_end8-vPortExitCritical
	.cfi_endproc
	.cantunwind
	.fnend
                                        @ -- End function
	.section	.text.xPortPendSVHandler,"ax",%progbits
	.hidden	xPortPendSVHandler              @ -- Begin function xPortPendSVHandler
	.globl	xPortPendSVHandler
	.p2align	1
	.type	xPortPendSVHandler,%function
	.code	16                              @ @xPortPendSVHandler
	.thumb_func
xPortPendSVHandler:
.Lfunc_begin9:
	.loc	2 389 0 is_stmt 1               @ ../../../components/platform/soc/rt582/rt582_freertos/portable/GCC/ARM_CM3/port.c:389:0
	.fnstart
	.cfi_startproc
@ %bb.0:
	.loc	2 392 5 prologue_end            @ ../../../components/platform/soc/rt582/rt582_freertos/portable/GCC/ARM_CM3/port.c:392:5
	@APP
	mrs	r0, psp
	isb	sy

	ldr	r3, pxCurrentTCBConst
	ldr	r2, [r3]

	stmdb	r0!, {r4, r5, r6, r7, r8, r9, r10, r11}
	str	r0, [r2]

	push.w	{r3, lr}
	mov.w	r0, #64
	msr	basepri, r0
	bl	vTaskSwitchContext
	mov.w	r0, #0
	msr	basepri, r0
	pop.w	{r3, lr}

	ldr	r1, [r3]
	ldr	r0, [r1]
	ldm.w	r0!, {r4, r5, r6, r7, r8, r9, r10, r11}
	msr	psp, r0
	isb	sy
	bx	lr

	.p2align	4
pxCurrentTCBConst:
	.long	pxCurrentTCB

	@NO_APP
.Ltmp60:
.Lfunc_end9:
	.size	xPortPendSVHandler, .Lfunc_end9-xPortPendSVHandler
	.cfi_endproc
	.cantunwind
	.fnend
                                        @ -- End function
	.section	.text.xPortSysTickHandler,"ax",%progbits
	.hidden	xPortSysTickHandler             @ -- Begin function xPortSysTickHandler
	.globl	xPortSysTickHandler
	.p2align	1
	.type	xPortSysTickHandler,%function
	.code	16                              @ @xPortSysTickHandler
	.thumb_func
xPortSysTickHandler:
.Lfunc_begin10:
	.loc	2 426 0                         @ ../../../components/platform/soc/rt582/rt582_freertos/portable/GCC/ARM_CM3/port.c:426:0
	.fnstart
	.cfi_startproc
@ %bb.0:
	.save	{r7, lr}
	push	{r7, lr}
	.cfi_def_cfa_offset 8
	.cfi_offset lr, -4
	.cfi_offset r7, -8
.Ltmp61:
	.loc	3 197 5 prologue_end            @ ../../../components/platform/soc/rt582/rt582_freertos/portable/GCC/ARM_CM3\portmacro.h:197:5
	@APP
	mov.w	r0, #64
	msr	basepri, r0
	isb	sy
	dsb	sy

	@NO_APP
.Ltmp62:
	@DEBUG_VALUE: vPortRaiseBASEPRI:ulNewBASEPRI <- $r0
	.loc	2 434 14                        @ ../../../components/platform/soc/rt582/rt582_freertos/portable/GCC/ARM_CM3/port.c:434:14
	bl	xTaskIncrementTick
.Ltmp63:
	.loc	2 434 14 is_stmt 0              @ ../../../components/platform/soc/rt582/rt582_freertos/portable/GCC/ARM_CM3/port.c:434:14
	cbz	r0, .LBB10_2
@ %bb.1:
	.loc	2 0 14                          @ ../../../components/platform/soc/rt582/rt582_freertos/portable/GCC/ARM_CM3/port.c:0:14
	movw	r0, #60676
	movt	r0, #57344
	mov.w	r1, #268435456
.Ltmp64:
	.loc	2 438 35 is_stmt 1              @ ../../../components/platform/soc/rt582/rt582_freertos/portable/GCC/ARM_CM3/port.c:438:35
	str	r1, [r0]
.Ltmp65:
.LBB10_2:
	.loc	2 0 35 is_stmt 0                @ ../../../components/platform/soc/rt582/rt582_freertos/portable/GCC/ARM_CM3/port.c:0:35
	movs	r0, #0
.Ltmp66:
	@DEBUG_VALUE: vPortSetBASEPRI:ulNewMaskValue <- 0
	.loc	3 231 5 is_stmt 1               @ ../../../components/platform/soc/rt582/rt582_freertos/portable/GCC/ARM_CM3\portmacro.h:231:5
	@APP
	msr	basepri, r0
	@NO_APP
.Ltmp67:
	.loc	2 442 1                         @ ../../../components/platform/soc/rt582/rt582_freertos/portable/GCC/ARM_CM3/port.c:442:1
	pop	{r7, pc}
.Ltmp68:
.Lfunc_end10:
	.size	xPortSysTickHandler, .Lfunc_end10-xPortSysTickHandler
	.cfi_endproc
	.cantunwind
	.fnend
                                        @ -- End function
	.section	.text.vPortSuppressTicksAndSleep,"ax",%progbits
	.hidden	vPortSuppressTicksAndSleep      @ -- Begin function vPortSuppressTicksAndSleep
	.weak	vPortSuppressTicksAndSleep
	.p2align	1
	.type	vPortSuppressTicksAndSleep,%function
	.code	16                              @ @vPortSuppressTicksAndSleep
	.thumb_func
vPortSuppressTicksAndSleep:
.Lfunc_begin11:
	.loc	2 448 0                         @ ../../../components/platform/soc/rt582/rt582_freertos/portable/GCC/ARM_CM3/port.c:448:0
	.fnstart
	.cfi_startproc
@ %bb.0:
	@DEBUG_VALUE: vPortSuppressTicksAndSleep:xExpectedIdleTime <- $r0
	.save	{r4, r5, r6, r7, r8, r9, lr}
	push.w	{r4, r5, r6, r7, r8, r9, lr}
	.cfi_def_cfa_offset 28
	.cfi_offset lr, -4
	.cfi_offset r9, -8
	.cfi_offset r8, -12
	.cfi_offset r7, -16
	.cfi_offset r6, -20
	.cfi_offset r5, -24
	.cfi_offset r4, -28
	.pad	#4
	sub	sp, #4
	.cfi_def_cfa_offset 32
	mov	r5, r0
.Ltmp69:
	@DEBUG_VALUE: vPortSuppressTicksAndSleep:xExpectedIdleTime <- $r5
	@DEBUG_VALUE: vPortSuppressTicksAndSleep:xExpectedIdleTime <- $r5
	.loc	2 453 30 prologue_end           @ ../../../components/platform/soc/rt582/rt582_freertos/portable/GCC/ARM_CM3/port.c:453:30
	movw	r0, :lower16:xMaximumPossibleSuppressedTicks
	movw	r6, #57360
	movt	r0, :upper16:xMaximumPossibleSuppressedTicks
	movt	r6, #57344
	ldr	r0, [r0]
.Ltmp70:
	.loc	2 462 31                        @ ../../../components/platform/soc/rt582/rt582_freertos/portable/GCC/ARM_CM3/port.c:462:31
	ldr	r1, [r6]
	.loc	2 453 10                        @ ../../../components/platform/soc/rt582/rt582_freertos/portable/GCC/ARM_CM3/port.c:453:10
	cmp	r0, r5
	it	lo
	movlo	r5, r0
.Ltmp71:
	@DEBUG_VALUE: vPortSuppressTicksAndSleep:xExpectedIdleTime <- [DW_OP_LLVM_entry_value 1] $r0
	@DEBUG_VALUE: vPortSuppressTicksAndSleep:xExpectedIdleTime <- $r5
	.loc	2 462 31                        @ ../../../components/platform/soc/rt582/rt582_freertos/portable/GCC/ARM_CM3/port.c:462:31
	bic	r0, r1, #1
	.loc	2 467 60                        @ ../../../components/platform/soc/rt582/rt582_freertos/portable/GCC/ARM_CM3/port.c:467:60
	movw	r8, :lower16:ulTimerCountsForOneTick
	.loc	2 462 31                        @ ../../../components/platform/soc/rt582/rt582_freertos/portable/GCC/ARM_CM3/port.c:462:31
	str	r0, [r6]
	.loc	2 467 60                        @ ../../../components/platform/soc/rt582/rt582_freertos/portable/GCC/ARM_CM3/port.c:467:60
	movt	r8, :upper16:ulTimerCountsForOneTick
.Ltmp72:
	.loc	2 468 26                        @ ../../../components/platform/soc/rt582/rt582_freertos/portable/GCC/ARM_CM3/port.c:468:26
	movw	r9, :lower16:ulStoppedTimerCompensation
.Ltmp73:
	.loc	2 467 21                        @ ../../../components/platform/soc/rt582/rt582_freertos/portable/GCC/ARM_CM3/port.c:467:21
	ldr	r0, [r6, #8]
	.loc	2 467 60 is_stmt 0              @ ../../../components/platform/soc/rt582/rt582_freertos/portable/GCC/ARM_CM3/port.c:467:60
	ldr.w	r1, [r8]
.Ltmp74:
	.loc	2 468 26 is_stmt 1              @ ../../../components/platform/soc/rt582/rt582_freertos/portable/GCC/ARM_CM3/port.c:468:26
	movt	r9, :upper16:ulStoppedTimerCompensation
.Ltmp75:
	.loc	2 467 106                       @ ../../../components/platform/soc/rt582/rt582_freertos/portable/GCC/ARM_CM3/port.c:467:106
	subs	r4, r5, #1
.Ltmp76:
	.loc	2 468 26                        @ ../../../components/platform/soc/rt582/rt582_freertos/portable/GCC/ARM_CM3/port.c:468:26
	ldrb.w	r2, [r9]
.Ltmp77:
	.loc	2 467 56                        @ ../../../components/platform/soc/rt582/rt582_freertos/portable/GCC/ARM_CM3/port.c:467:56
	mla	r0, r1, r4, r0
.Ltmp78:
	@DEBUG_VALUE: vPortSuppressTicksAndSleep:ulReloadValue <- $r0
	.loc	2 468 26                        @ ../../../components/platform/soc/rt582/rt582_freertos/portable/GCC/ARM_CM3/port.c:468:26
	cmp	r2, #0
	it	ne
	movne	r2, #45
.Ltmp79:
	.loc	2 468 10 is_stmt 0              @ ../../../components/platform/soc/rt582/rt582_freertos/portable/GCC/ARM_CM3/port.c:468:10
	subs	r7, r0, r2
	it	ls
	movls	r7, r0
.Ltmp80:
	@DEBUG_VALUE: vPortSuppressTicksAndSleep:ulReloadValue <- $r7
	@DEBUG_VALUE: vPortSuppressTicksAndSleep:ulReloadValue <- $r7
	.loc	2 475 5 is_stmt 1               @ ../../../components/platform/soc/rt582/rt582_freertos/portable/GCC/ARM_CM3/port.c:475:5
	@APP
	cpsid i
	@NO_APP
	.loc	2 476 5                         @ ../../../components/platform/soc/rt582/rt582_freertos/portable/GCC/ARM_CM3/port.c:476:5
	@APP
	dsb	sy
	@NO_APP
	.loc	2 477 5                         @ ../../../components/platform/soc/rt582/rt582_freertos/portable/GCC/ARM_CM3/port.c:477:5
	@APP
	isb	sy
	@NO_APP
.Ltmp81:
	.loc	2 481 10                        @ ../../../components/platform/soc/rt582/rt582_freertos/portable/GCC/ARM_CM3/port.c:481:10
	bl	eTaskConfirmSleepModeStatus
.Ltmp82:
	.loc	2 481 10 is_stmt 0              @ ../../../components/platform/soc/rt582/rt582_freertos/portable/GCC/ARM_CM3/port.c:481:10
	cbz	r0, .LBB11_5
.Ltmp83:
@ %bb.1:
	@DEBUG_VALUE: vPortSuppressTicksAndSleep:ulReloadValue <- $r7
	@DEBUG_VALUE: vPortSuppressTicksAndSleep:xExpectedIdleTime <- $r5
	.loc	2 0 10                          @ ../../../components/platform/soc/rt582/rt582_freertos/portable/GCC/ARM_CM3/port.c:0:10
	movs	r0, #0
.Ltmp84:
	.loc	2 501 35 is_stmt 1              @ ../../../components/platform/soc/rt582/rt582_freertos/portable/GCC/ARM_CM3/port.c:501:35
	str	r7, [r6, #4]
	.loc	2 505 44                        @ ../../../components/platform/soc/rt582/rt582_freertos/portable/GCC/ARM_CM3/port.c:505:44
	str	r0, [r6, #8]
	.loc	2 508 35                        @ ../../../components/platform/soc/rt582/rt582_freertos/portable/GCC/ARM_CM3/port.c:508:35
	ldr	r0, [r6]
	orr	r0, r0, #1
	str	r0, [r6]
.Ltmp85:
	@DEBUG_VALUE: vPortSuppressTicksAndSleep:xModifiableIdleTime <- $r5
	.loc	2 517 14                        @ ../../../components/platform/soc/rt582/rt582_freertos/portable/GCC/ARM_CM3/port.c:517:14
	cbz	r5, .LBB11_3
.Ltmp86:
@ %bb.2:
	@DEBUG_VALUE: vPortSuppressTicksAndSleep:ulReloadValue <- $r7
	@DEBUG_VALUE: vPortSuppressTicksAndSleep:xModifiableIdleTime <- $r5
	@DEBUG_VALUE: vPortSuppressTicksAndSleep:xExpectedIdleTime <- $r5
	.loc	2 519 13                        @ ../../../components/platform/soc/rt582/rt582_freertos/portable/GCC/ARM_CM3/port.c:519:13
	@APP
	dsb	sy
	@NO_APP
	.loc	2 520 13                        @ ../../../components/platform/soc/rt582/rt582_freertos/portable/GCC/ARM_CM3/port.c:520:13
	@APP
	wfi
	@NO_APP
	.loc	2 521 13                        @ ../../../components/platform/soc/rt582/rt582_freertos/portable/GCC/ARM_CM3/port.c:521:13
	@APP
	isb	sy
	@NO_APP
.Ltmp87:
.LBB11_3:
	@DEBUG_VALUE: vPortSuppressTicksAndSleep:ulReloadValue <- $r7
	@DEBUG_VALUE: vPortSuppressTicksAndSleep:xModifiableIdleTime <- $r5
	@DEBUG_VALUE: vPortSuppressTicksAndSleep:xExpectedIdleTime <- $r5
	.loc	2 0 13 is_stmt 0                @ ../../../components/platform/soc/rt582/rt582_freertos/portable/GCC/ARM_CM3/port.c:0:13
	movs	r0, #6
	.loc	2 528 9 is_stmt 1               @ ../../../components/platform/soc/rt582/rt582_freertos/portable/GCC/ARM_CM3/port.c:528:9
	@APP
	cpsie i
	@NO_APP
	.loc	2 529 9                         @ ../../../components/platform/soc/rt582/rt582_freertos/portable/GCC/ARM_CM3/port.c:529:9
	@APP
	dsb	sy
	@NO_APP
	.loc	2 530 9                         @ ../../../components/platform/soc/rt582/rt582_freertos/portable/GCC/ARM_CM3/port.c:530:9
	@APP
	isb	sy
	@NO_APP
	.loc	2 536 9                         @ ../../../components/platform/soc/rt582/rt582_freertos/portable/GCC/ARM_CM3/port.c:536:9
	@APP
	cpsid i
	@NO_APP
	.loc	2 537 9                         @ ../../../components/platform/soc/rt582/rt582_freertos/portable/GCC/ARM_CM3/port.c:537:9
	@APP
	dsb	sy
	@NO_APP
	.loc	2 538 9                         @ ../../../components/platform/soc/rt582/rt582_freertos/portable/GCC/ARM_CM3/port.c:538:9
	@APP
	isb	sy
	@NO_APP
	.loc	2 547 35                        @ ../../../components/platform/soc/rt582/rt582_freertos/portable/GCC/ARM_CM3/port.c:547:35
	str	r0, [r6]
.Ltmp88:
	.loc	2 554 16                        @ ../../../components/platform/soc/rt582/rt582_freertos/portable/GCC/ARM_CM3/port.c:554:16
	ldr	r1, [r6]
	.loc	2 0 0 is_stmt 0                 @ ../../../components/platform/soc/rt582/rt582_freertos/portable/GCC/ARM_CM3/port.c:0:0
	ldr.w	r0, [r8]
.Ltmp89:
	.loc	2 554 14                        @ ../../../components/platform/soc/rt582/rt582_freertos/portable/GCC/ARM_CM3/port.c:554:14
	lsls	r1, r1, #15
	bmi	.LBB11_6
.Ltmp90:
@ %bb.4:
	@DEBUG_VALUE: vPortSuppressTicksAndSleep:ulReloadValue <- $r7
	@DEBUG_VALUE: vPortSuppressTicksAndSleep:xModifiableIdleTime <- $r5
	@DEBUG_VALUE: vPortSuppressTicksAndSleep:xExpectedIdleTime <- $r5
	.loc	2 585 94 is_stmt 1              @ ../../../components/platform/soc/rt582/rt582_freertos/portable/GCC/ARM_CM3/port.c:585:94
	ldr	r1, [r6, #8]
	.loc	2 585 64 is_stmt 0              @ ../../../components/platform/soc/rt582/rt582_freertos/portable/GCC/ARM_CM3/port.c:585:64
	mul	r2, r0, r5
	.loc	2 585 92                        @ ../../../components/platform/soc/rt582/rt582_freertos/portable/GCC/ARM_CM3/port.c:585:92
	subs	r1, r2, r1
.Ltmp91:
	@DEBUG_VALUE: vPortSuppressTicksAndSleep:ulCompletedSysTickDecrements <- $r1
	.loc	2 589 66 is_stmt 1              @ ../../../components/platform/soc/rt582/rt582_freertos/portable/GCC/ARM_CM3/port.c:589:66
	udiv	r4, r1, r0
.Ltmp92:
	@DEBUG_VALUE: vPortSuppressTicksAndSleep:ulCompleteTickPeriods <- $r4
	.loc	2 593 67                        @ ../../../components/platform/soc/rt582/rt582_freertos/portable/GCC/ARM_CM3/port.c:593:67
	adds	r2, r4, #1
	.loc	2 593 75 is_stmt 0              @ ../../../components/platform/soc/rt582/rt582_freertos/portable/GCC/ARM_CM3/port.c:593:75
	muls	r0, r2, r0
	.loc	2 593 103                       @ ../../../components/platform/soc/rt582/rt582_freertos/portable/GCC/ARM_CM3/port.c:593:103
	subs	r0, r0, r1
	b	.LBB11_7
.Ltmp93:
.LBB11_5:
	@DEBUG_VALUE: vPortSuppressTicksAndSleep:ulReloadValue <- $r7
	@DEBUG_VALUE: vPortSuppressTicksAndSleep:xExpectedIdleTime <- $r5
	.loc	2 485 37 is_stmt 1              @ ../../../components/platform/soc/rt582/rt582_freertos/portable/GCC/ARM_CM3/port.c:485:37
	ldr	r0, [r6, #8]
	.loc	2 485 35 is_stmt 0              @ ../../../components/platform/soc/rt582/rt582_freertos/portable/GCC/ARM_CM3/port.c:485:35
	str	r0, [r6, #4]
	.loc	2 488 35 is_stmt 1              @ ../../../components/platform/soc/rt582/rt582_freertos/portable/GCC/ARM_CM3/port.c:488:35
	ldr	r0, [r6]
	orr	r0, r0, #1
	str	r0, [r6]
	.loc	2 492 37                        @ ../../../components/platform/soc/rt582/rt582_freertos/portable/GCC/ARM_CM3/port.c:492:37
	ldr.w	r0, [r8]
	.loc	2 492 61 is_stmt 0              @ ../../../components/platform/soc/rt582/rt582_freertos/portable/GCC/ARM_CM3/port.c:492:61
	subs	r0, #1
	.loc	2 492 35                        @ ../../../components/platform/soc/rt582/rt582_freertos/portable/GCC/ARM_CM3/port.c:492:35
	str	r0, [r6, #4]
	.loc	2 496 9 is_stmt 1               @ ../../../components/platform/soc/rt582/rt582_freertos/portable/GCC/ARM_CM3/port.c:496:9
	@APP
	cpsie i
	@NO_APP
	b	.LBB11_8
.Ltmp94:
.LBB11_6:
	@DEBUG_VALUE: vPortSuppressTicksAndSleep:ulReloadValue <- $r7
	@DEBUG_VALUE: vPortSuppressTicksAndSleep:xModifiableIdleTime <- $r5
	@DEBUG_VALUE: vPortSuppressTicksAndSleep:xExpectedIdleTime <- $r5
	.loc	2 562 91                        @ ../../../components/platform/soc/rt582/rt582_freertos/portable/GCC/ARM_CM3/port.c:562:91
	ldr	r1, [r6, #8]
.Ltmp95:
	.loc	2 567 44                        @ ../../../components/platform/soc/rt582/rt582_freertos/portable/GCC/ARM_CM3/port.c:567:44
	ldrb.w	r3, [r9]
.Ltmp96:
	.loc	2 562 63                        @ ../../../components/platform/soc/rt582/rt582_freertos/portable/GCC/ARM_CM3/port.c:562:63
	subs	r2, r0, #1
	.loc	2 562 89 is_stmt 0              @ ../../../components/platform/soc/rt582/rt582_freertos/portable/GCC/ARM_CM3/port.c:562:89
	subs	r1, r1, r7
	.loc	2 562 71                        @ ../../../components/platform/soc/rt582/rt582_freertos/portable/GCC/ARM_CM3/port.c:562:71
	add	r1, r2
.Ltmp97:
	@DEBUG_VALUE: ulCalculatedLoadValue <- $r1
	.loc	2 567 44 is_stmt 1              @ ../../../components/platform/soc/rt582/rt582_freertos/portable/GCC/ARM_CM3/port.c:567:44
	cmp	r3, #0
	it	ne
	movne	r3, #45
	.loc	2 567 73 is_stmt 0              @ ../../../components/platform/soc/rt582/rt582_freertos/portable/GCC/ARM_CM3/port.c:567:73
	cmp	r1, r0
	mov	r0, r1
	it	hi
	movhi	r0, r2
	cmp	r1, r3
	it	lo
	movlo	r0, r2
.Ltmp98:
	@DEBUG_VALUE: vPortSuppressTicksAndSleep:ulCompleteTickPeriods <- $r4
	@DEBUG_VALUE: ulCalculatedLoadValue <- $r0
.LBB11_7:
	@DEBUG_VALUE: vPortSuppressTicksAndSleep:ulReloadValue <- $r7
	@DEBUG_VALUE: vPortSuppressTicksAndSleep:xModifiableIdleTime <- $r5
	@DEBUG_VALUE: vPortSuppressTicksAndSleep:xExpectedIdleTime <- $r5
	@DEBUG_VALUE: vPortSuppressTicksAndSleep:ulCompleteTickPeriods <- $r4
	.loc	2 0 0                           @ ../../../components/platform/soc/rt582/rt582_freertos/portable/GCC/ARM_CM3/port.c:0:0
	str	r0, [r6, #4]
	movs	r0, #0
.Ltmp99:
	@DEBUG_VALUE: vPortSuppressTicksAndSleep:ulCompleteTickPeriods <- $r4
	.loc	2 599 44 is_stmt 1              @ ../../../components/platform/soc/rt582/rt582_freertos/portable/GCC/ARM_CM3/port.c:599:44
	str	r0, [r6, #8]
	.loc	2 600 35                        @ ../../../components/platform/soc/rt582/rt582_freertos/portable/GCC/ARM_CM3/port.c:600:35
	ldr	r0, [r6]
	orr	r0, r0, #1
	str	r0, [r6]
	.loc	2 601 9                         @ ../../../components/platform/soc/rt582/rt582_freertos/portable/GCC/ARM_CM3/port.c:601:9
	mov	r0, r4
	bl	vTaskStepTick
.Ltmp100:
	.loc	2 602 37                        @ ../../../components/platform/soc/rt582/rt582_freertos/portable/GCC/ARM_CM3/port.c:602:37
	ldr.w	r0, [r8]
	.loc	2 602 61 is_stmt 0              @ ../../../components/platform/soc/rt582/rt582_freertos/portable/GCC/ARM_CM3/port.c:602:61
	subs	r0, #1
	.loc	2 602 35                        @ ../../../components/platform/soc/rt582/rt582_freertos/portable/GCC/ARM_CM3/port.c:602:35
	str	r0, [r6, #4]
	.loc	2 605 9 is_stmt 1               @ ../../../components/platform/soc/rt582/rt582_freertos/portable/GCC/ARM_CM3/port.c:605:9
	@APP
	cpsie i
	@NO_APP
.Ltmp101:
.LBB11_8:
	@DEBUG_VALUE: vPortSuppressTicksAndSleep:ulReloadValue <- $r7
	@DEBUG_VALUE: vPortSuppressTicksAndSleep:xExpectedIdleTime <- $r5
	.loc	2 607 1                         @ ../../../components/platform/soc/rt582/rt582_freertos/portable/GCC/ARM_CM3/port.c:607:1
	add	sp, #4
	pop.w	{r4, r5, r6, r7, r8, r9, pc}
.Ltmp102:
.Lfunc_end11:
	.size	vPortSuppressTicksAndSleep, .Lfunc_end11-vPortSuppressTicksAndSleep
	.cfi_endproc
	.cantunwind
	.fnend
                                        @ -- End function
	.section	.text.vPortValidateInterruptPriority,"ax",%progbits
	.hidden	vPortValidateInterruptPriority  @ -- Begin function vPortValidateInterruptPriority
	.globl	vPortValidateInterruptPriority
	.p2align	2
	.type	vPortValidateInterruptPriority,%function
	.code	16                              @ @vPortValidateInterruptPriority
	.thumb_func
vPortValidateInterruptPriority:
.Lfunc_begin12:
	.loc	2 640 0                         @ ../../../components/platform/soc/rt582/rt582_freertos/portable/GCC/ARM_CM3/port.c:640:0
	.fnstart
	.cfi_startproc
@ %bb.0:
	.save	{r7, lr}
	push	{r7, lr}
	.cfi_def_cfa_offset 8
	.cfi_offset lr, -4
	.cfi_offset r7, -8
	.pad	#8
	sub	sp, #8
	.cfi_def_cfa_offset 16
.Ltmp103:
	.loc	2 645 5 prologue_end            @ ../../../components/platform/soc/rt582/rt582_freertos/portable/GCC/ARM_CM3/port.c:645:5
	@APP
	mrs	r0, ipsr
	@NO_APP
.Ltmp104:
	@DEBUG_VALUE: vPortValidateInterruptPriority:ulCurrentInterrupt <- $r0
	.loc	2 648 10                        @ ../../../components/platform/soc/rt582/rt582_freertos/portable/GCC/ARM_CM3/port.c:648:10
	cmp	r0, #16
	blo	.LBB12_4
.Ltmp105:
@ %bb.1:
	@DEBUG_VALUE: vPortValidateInterruptPriority:ulCurrentInterrupt <- $r0
	.loc	2 0 10 is_stmt 0                @ ../../../components/platform/soc/rt582/rt582_freertos/portable/GCC/ARM_CM3/port.c:0:10
	movw	r1, #58352
	movt	r1, #57344
.Ltmp106:
	.loc	2 651 29 is_stmt 1              @ ../../../components/platform/soc/rt582/rt582_freertos/portable/GCC/ARM_CM3/port.c:651:29
	ldrb	r0, [r0, r1]
.Ltmp107:
	@DEBUG_VALUE: vPortValidateInterruptPriority:ucCurrentPriority <- $r0
	.loc	2 676 9                         @ ../../../components/platform/soc/rt582/rt582_freertos/portable/GCC/ARM_CM3/port.c:676:9
	movw	r1, :lower16:ucMaxSysCallPriority
	movt	r1, :upper16:ucMaxSysCallPriority
	ldrb	r1, [r1]
.Ltmp108:
	.loc	2 676 9 is_stmt 0               @ ../../../components/platform/soc/rt582/rt582_freertos/portable/GCC/ARM_CM3/port.c:676:9
	cmp	r0, r1
	bhs	.LBB12_4
.Ltmp109:
@ %bb.2:
	@DEBUG_VALUE: vPortValidateInterruptPriority:ucCurrentPriority <- $r0
	.loc	2 676 9                         @ ../../../components/platform/soc/rt582/rt582_freertos/portable/GCC/ARM_CM3/port.c:676:9
	movw	r0, :lower16:.L.str
.Ltmp110:
	movw	r2, :lower16:.L.str.2
	movw	r3, :lower16:.L__func__.vPortValidateInterruptPriority
	mov.w	r12, #676
	movt	r0, :upper16:.L.str
	adr	r1, .LCPI12_0
	movt	r2, :upper16:.L.str.2
	movt	r3, :upper16:.L__func__.vPortValidateInterruptPriority
	str.w	r12, [sp]
	bl	__2printf
.Ltmp111:
	.loc	5 708 3 is_stmt 1               @ C:/Keil_v5/ARM/Pack/ARM/CMSIS/6.0.0/CMSIS/Core/Include/./m-profile/cmsis_armclang_m.h:708:3
	@APP
	cpsid i
	@NO_APP
.Ltmp112:
	.p2align	2
.LBB12_3:                               @ =>This Inner Loop Header: Depth=1
	.loc	2 676 9                         @ ../../../components/platform/soc/rt582/rt582_freertos/portable/GCC/ARM_CM3/port.c:676:9
	b	.LBB12_3
.Ltmp113:
.LBB12_4:
	.loc	2 0 9 is_stmt 0                 @ ../../../components/platform/soc/rt582/rt582_freertos/portable/GCC/ARM_CM3/port.c:0:9
	movw	r0, #60684
	movt	r0, #57344
.Ltmp114:
	.loc	2 692 5 is_stmt 1               @ ../../../components/platform/soc/rt582/rt582_freertos/portable/GCC/ARM_CM3/port.c:692:5
	movw	r1, :lower16:ulMaxPRIGROUPValue
	ldr	r0, [r0]
	movt	r1, :upper16:ulMaxPRIGROUPValue
	ldr	r1, [r1]
	and	r0, r0, #1792
.Ltmp115:
	.loc	2 692 5 is_stmt 0               @ ../../../components/platform/soc/rt582/rt582_freertos/portable/GCC/ARM_CM3/port.c:692:5
	cmp	r0, r1
	.loc	2 693 1 is_stmt 1               @ ../../../components/platform/soc/rt582/rt582_freertos/portable/GCC/ARM_CM3/port.c:693:1
	itt	ls
	addls	sp, #8
	popls	{r7, pc}
.LBB12_5:
.Ltmp116:
	.loc	2 692 5                         @ ../../../components/platform/soc/rt582/rt582_freertos/portable/GCC/ARM_CM3/port.c:692:5
	movw	r0, :lower16:.L.str
	movw	r1, :lower16:.L.str.7
	movw	r2, :lower16:.L.str.2
	movw	r3, :lower16:.L__func__.vPortValidateInterruptPriority
	mov.w	r12, #692
	movt	r0, :upper16:.L.str
	movt	r1, :upper16:.L.str.7
	movt	r2, :upper16:.L.str.2
	movt	r3, :upper16:.L__func__.vPortValidateInterruptPriority
	str.w	r12, [sp]
	bl	__2printf
.Ltmp117:
	.loc	5 708 3                         @ C:/Keil_v5/ARM/Pack/ARM/CMSIS/6.0.0/CMSIS/Core/Include/./m-profile/cmsis_armclang_m.h:708:3
	@APP
	cpsid i
	@NO_APP
.Ltmp118:
	.p2align	2
.LBB12_6:                               @ =>This Inner Loop Header: Depth=1
	.loc	2 692 5                         @ ../../../components/platform/soc/rt582/rt582_freertos/portable/GCC/ARM_CM3/port.c:692:5
	b	.LBB12_6
.Ltmp119:
	.p2align	2
@ %bb.7:
	.loc	2 0 5 is_stmt 0                 @ ../../../components/platform/soc/rt582/rt582_freertos/portable/GCC/ARM_CM3/port.c:0:5
.LCPI12_0:
.L.str.6:
	.asciz	"ucCurrentPriority >= ucMaxSysCallPriority\000\000"
.Lfunc_end12:
	.size	vPortValidateInterruptPriority, .Lfunc_end12-vPortValidateInterruptPriority
	.cfi_endproc
	.cantunwind
	.fnend
                                        @ -- End function
	.type	ucMaxSysCallPriority,%object    @ @ucMaxSysCallPriority
	.section	.bss.ucMaxSysCallPriority,"aw",%nobits
ucMaxSysCallPriority:
	.byte	0                               @ 0x0
	.size	ucMaxSysCallPriority, 1

	.type	ulMaxPRIGROUPValue,%object      @ @ulMaxPRIGROUPValue
	.section	.bss.ulMaxPRIGROUPValue,"aw",%nobits
	.p2align	2
ulMaxPRIGROUPValue:
	.long	0                               @ 0x0
	.size	ulMaxPRIGROUPValue, 4

	.type	.L.str,%object                  @ @.str
	.section	.rodata.str1.1,"aMS",%progbits,1
.L.str:
	.asciz	"\nFREERTOS ASSERT ( %s ) %s %s %d\n"
	.size	.L.str, 34

	.type	.L.str.1,%object                @ @.str.1
.L.str.1:
	.asciz	"( portMAX_PRIGROUP_BITS - ulMaxPRIGROUPValue ) == __NVIC_PRIO_BITS"
	.size	.L.str.1, 67

	.type	.L.str.2,%object                @ @.str.2
.L.str.2:
	.asciz	"../../../components/platform/soc/rt582/rt582_freertos/portable/GCC/ARM_CM3/port.c"
	.size	.L.str.2, 82

	.type	uxCriticalNesting,%object       @ @uxCriticalNesting
	.section	.data.uxCriticalNesting,"aw",%progbits
	.p2align	2
uxCriticalNesting:
	.long	2863311530                      @ 0xaaaaaaaa
	.size	uxCriticalNesting, 4

	.type	xMaximumPossibleSuppressedTicks,%object @ @xMaximumPossibleSuppressedTicks
	.section	.bss.xMaximumPossibleSuppressedTicks,"aw",%nobits
	.p2align	2
xMaximumPossibleSuppressedTicks:
	.long	0                               @ 0x0
	.size	xMaximumPossibleSuppressedTicks, 4

	.type	ulTimerCountsForOneTick,%object @ @ulTimerCountsForOneTick
	.section	.bss.ulTimerCountsForOneTick,"aw",%nobits
	.p2align	2
ulTimerCountsForOneTick:
	.long	0                               @ 0x0
	.size	ulTimerCountsForOneTick, 4

	.type	ulStoppedTimerCompensation,%object @ @ulStoppedTimerCompensation
	.section	.bss.ulStoppedTimerCompensation,"aw",%nobits
	.p2align	2
ulStoppedTimerCompensation:
	.byte	0                               @ 0x0
	.size	ulStoppedTimerCompensation, 1

	.type	.L__func__.vPortValidateInterruptPriority,%object @ @__func__.vPortValidateInterruptPriority
	.section	.rodata.str1.1,"aMS",%progbits,1
.L__func__.vPortValidateInterruptPriority:
	.asciz	"vPortValidateInterruptPriority"
	.size	.L__func__.vPortValidateInterruptPriority, 31

	.type	.L.str.7,%object                @ @.str.7
.L.str.7:
	.asciz	"( portAIRCR_REG & portPRIORITY_GROUP_MASK ) <= ulMaxPRIGROUPValue"
	.size	.L.str.7, 66

	.globl	_printf_percent
	.globl	_printf_s
	.globl	_printf_d
	.globl	_printf_int_dec
	.globl	_printf_str
	.hidden	_printf_percent
	.hidden	_printf_s
	.hidden	_printf_d
	.hidden	_printf_int_dec
	.hidden	_printf_str
	.file	6 "C:\\Users\\testo\\Desktop\\rafael-iot-sdk-das - \350\244\207\350\243\275 (2)\\examples\\das_subg_thread\\keil" "../../../components/platform/soc/rt582/rt582_freertos/Inc/projdefs.h"
	.section	".note.GNU-stack","",%progbits
	.eabi_attribute	30, 3	@ Tag_ABI_optimization_goals
	.ARM_attribute	16, 1	@ Tag_AV_eba
	.section	.text.prvPortStartFirstTask,"ax",%progbits
	.p2align	2
.Ltmp36:
	.long	3758157064