	.text
	.syntax unified
	.eabi_attribute	67, "2.09"	@ Tag_conformance
	.cpu	cortex-m3
	.eabi_attribute	6, 10	@ Tag_CPU_arch
	.eabi_attribute	7, 77	@ Tag_CPU_arch_profile
	.eabi_attribute	8, 0	@ Tag_ARM_ISA_use
	.eabi_attribute	9, 2	@ Tag_THUMB_ISA_use
	.eabi_attribute	34, 1	@ Tag_CPU_unaligned_access
	.eabi_attribute	17, 1	@ Tag_ABI_PCS_GOT_use
	.eabi_attribute	20, 2	@ Tag_ABI_FP_denormal
	.eabi_attribute	21, 0	@ Tag_ABI_FP_exceptions
	.eabi_attribute	23, 1	@ Tag_ABI_FP_number_model
	.eabi_attribute	24, 1	@ Tag_ABI_align_needed
	.eabi_attribute	25, 1	@ Tag_ABI_align_preserved
	.eabi_attribute	38, 1	@ Tag_ABI_FP_16bit_format
	.eabi_attribute	18, 4	@ Tag_ABI_PCS_wchar_t
	.eabi_attribute	26, 2	@ Tag_ABI_enum_size
	.eabi_attribute	14, 0	@ Tag_ABI_PCS_R9_use
	.file	"qspi.c"
	.file	1 "C:\\Keil_v5\\ARM\\ARMCLANG\\Bin\\..\\include" "stdint.h"
	.file	2 "D:\\Rafael-IoT-SDK-Internal-main\\examples\\das_subg_thread\\keil" "../../../components/platform/soc/rt582/rt582_driver/Inc/qspi.h"
	.file	3 "D:\\Rafael-IoT-SDK-Internal-main\\examples\\das_subg_thread\\keil" "../../../components/platform/soc/rt582/rt582_driver/Src/qspi.c"
	.file	4 "D:\\Rafael-IoT-SDK-Internal-main\\examples\\das_subg_thread\\keil" "../../../components/platform/soc/rt582/rt582_driver/Inc/cm3_mcu.h"
	.file	5 "D:\\Rafael-IoT-SDK-Internal-main\\examples\\das_subg_thread\\keil" "../../../components/platform/soc/rt582/rt582_driver/Inc/qspi_reg.h"
	.file	6 "D:\\Rafael-IoT-SDK-Internal-main\\examples\\das_subg_thread\\keil" "../../../components/platform/soc/rt582/rt582_driver/Inc/sysctrl_reg.h"
	.file	7 "C:/Users\\P350\\AppData\\Local\\Arm\\Packs\\ARM\\CMSIS\\5.8.0\\CMSIS\\Core\\Include" "core_cm3.h"
	.section	.text.qspi_init,"ax",%progbits
	.hidden	qspi_init                       @ -- Begin function qspi_init
	.globl	qspi_init
	.p2align	1
	.type	qspi_init,%function
	.code	16                              @ @qspi_init
	.thumb_func
qspi_init:
.Lfunc_begin0:
	.loc	3 45 0                          @ ../../../components/platform/soc/rt582/rt582_driver/Src/qspi.c:45:0
	.fnstart
	.cfi_sections .debug_frame
	.cfi_startproc
@ %bb.0:
	@DEBUG_VALUE: qspi_init:qspi_id <- $r0
	@DEBUG_VALUE: qspi_init:spi_mode <- $r1
	@DEBUG_VALUE: qspi_init:qspi_id <- $r0
	.save	{r4, r5, r6, r7, r8, lr}
	push.w	{r4, r5, r6, r7, r8, lr}
	.cfi_def_cfa_offset 24
	.cfi_offset lr, -4
	.cfi_offset r8, -8
	.cfi_offset r7, -12
	.cfi_offset r6, -16
	.cfi_offset r5, -20
	.cfi_offset r4, -24
.Ltmp0:
	.loc	3 49 9 prologue_end             @ ../../../components/platform/soc/rt582/rt582_driver/Src/qspi.c:49:9
	cmp	r0, #1
	@DEBUG_VALUE: qspi_init:spi_mode <- $r1
	bhi	.LBB0_2
.Ltmp1:
@ %bb.1:
	@DEBUG_VALUE: qspi_init:spi_mode <- $r1
	@DEBUG_VALUE: qspi_init:qspi_id <- $r0
	.loc	3 0 9 is_stmt 0                 @ ../../../components/platform/soc/rt582/rt582_driver/Src/qspi.c:0:9
	mov	r4, r0
.Ltmp2:
	@DEBUG_VALUE: qspi_init:qspi_id <- $r4
	@DEBUG_VALUE: qspi_init:qspi_id <- $r4
	.loc	3 54 19 is_stmt 1               @ ../../../components/platform/soc/rt582/rt582_driver/Src/qspi.c:54:19
	ldrh	r0, [r1, #2]
	mov	r5, r1
.Ltmp3:
	@DEBUG_VALUE: qspi_init:spi_mode <- $r5
	@DEBUG_VALUE: qspi_init:spi_mode <- $r5
	.loc	3 0 19 is_stmt 0                @ ../../../components/platform/soc/rt582/rt582_driver/Src/qspi.c:0:19
	movs	r1, #0
.Ltmp4:
	.loc	3 54 9                          @ ../../../components/platform/soc/rt582/rt582_driver/Src/qspi.c:54:9
	cmp.w	r1, r0, lsr #9
	beq	.LBB0_3
.Ltmp5:
.LBB0_2:
	.loc	3 0 9                           @ ../../../components/platform/soc/rt582/rt582_driver/Src/qspi.c:0:9
	movs	r0, #1
	.loc	3 176 1 is_stmt 1               @ ../../../components/platform/soc/rt582/rt582_driver/Src/qspi.c:176:1
	pop.w	{r4, r5, r6, r7, r8, pc}
.LBB0_3:
.Ltmp6:
	@DEBUG_VALUE: qspi_init:spi_mode <- $r5
	@DEBUG_VALUE: qspi_init:qspi_id <- $r4
	.loc	3 59 5                          @ ../../../components/platform/soc/rt582/rt582_driver/Src/qspi.c:59:5
	bl	enter_critical_section
.Ltmp7:
	.loc	3 61 27                         @ ../../../components/platform/soc/rt582/rt582_driver/Src/qspi.c:61:27
	movw	r0, :lower16:qspi_cfg
	movt	r0, :upper16:qspi_cfg
	add.w	r6, r0, r4, lsl #3
	ldrh	r0, [r6, #4]!
.Ltmp8:
	.loc	3 61 9 is_stmt 0                @ ../../../components/platform/soc/rt582/rt582_driver/Src/qspi.c:61:9
	cmp	r0, #2
	blo	.LBB0_5
.Ltmp9:
@ %bb.4:
	@DEBUG_VALUE: qspi_init:spi_mode <- $r5
	@DEBUG_VALUE: qspi_init:qspi_id <- $r4
	.loc	3 64 9 is_stmt 1                @ ../../../components/platform/soc/rt582/rt582_driver/Src/qspi.c:64:9
	bl	leave_critical_section
.Ltmp10:
	.loc	3 0 9 is_stmt 0                 @ ../../../components/platform/soc/rt582/rt582_driver/Src/qspi.c:0:9
	movs	r0, #5
.Ltmp11:
	.loc	3 176 1 is_stmt 1               @ ../../../components/platform/soc/rt582/rt582_driver/Src/qspi.c:176:1
	pop.w	{r4, r5, r6, r7, r8, pc}
.Ltmp12:
.LBB0_5:
	@DEBUG_VALUE: qspi_init:spi_mode <- $r5
	@DEBUG_VALUE: qspi_init:qspi_id <- $r4
	.loc	3 0 1 is_stmt 0                 @ ../../../components/platform/soc/rt582/rt582_driver/Src/qspi.c:0:1
	movw	r8, #16
	movs	r7, #12
	movs	r0, #4
	movt	r8, #45056
	movt	r7, #32768
	.loc	3 68 34 is_stmt 1               @ ../../../components/platform/soc/rt582/rt582_driver/Src/qspi.c:68:34
	strh	r0, [r6]
	.loc	3 70 5                          @ ../../../components/platform/soc/rt582/rt582_driver/Src/qspi.c:70:5
	bl	leave_critical_section
.Ltmp13:
	.loc	3 73 35                         @ ../../../components/platform/soc/rt582/rt582_driver/Src/qspi.c:73:35
	add.w	r0, r4, #20
	.loc	3 73 5 is_stmt 0                @ ../../../components/platform/soc/rt582/rt582_driver/Src/qspi.c:73:5
	bl	enable_perclk
.Ltmp14:
	@DEBUG_VALUE: qspi_init:QSPI <- undef
	.loc	3 89 20 is_stmt 1               @ ../../../components/platform/soc/rt582/rt582_driver/Src/qspi.c:89:20
	ldrh	r0, [r5, #2]
	.loc	3 89 45 is_stmt 0               @ ../../../components/platform/soc/rt582/rt582_driver/Src/qspi.c:89:45
	cbnz	r0, .LBB0_7
.Ltmp15:
@ %bb.6:
	@DEBUG_VALUE: qspi_init:spi_mode <- $r5
	@DEBUG_VALUE: qspi_init:qspi_id <- $r4
	.loc	3 0 45                          @ ../../../components/platform/soc/rt582/rt582_driver/Src/qspi.c:0:45
	movs	r1, #4
	movt	r1, #16512
	.loc	3 89 59                         @ ../../../components/platform/soc/rt582/rt582_driver/Src/qspi.c:89:59
	ldr	r1, [r1]
.Ltmp16:
	.loc	3 89 9                          @ ../../../components/platform/soc/rt582/rt582_driver/Src/qspi.c:89:9
	lsls	r1, r1, #30
	beq.w	.LBB0_11
.Ltmp17:
.LBB0_7:
	@DEBUG_VALUE: qspi_init:spi_mode <- $r5
	@DEBUG_VALUE: qspi_init:qspi_id <- $r4
	.loc	3 104 15 is_stmt 1              @ ../../../components/platform/soc/rt582/rt582_driver/Src/qspi.c:104:15
	add.w	r1, r7, #68
	cmp	r4, #0
	it	eq
	addeq.w	r1, r8, #64
	.loc	3 104 27 is_stmt 0              @ ../../../components/platform/soc/rt582/rt582_driver/Src/qspi.c:104:27
	str	r0, [r1]
.Ltmp18:
.LBB0_8:
	@DEBUG_VALUE: qspi_init:spi_mode <- $r5
	@DEBUG_VALUE: qspi_init:qspi_id <- $r4
	.loc	3 107 11 is_stmt 1              @ ../../../components/platform/soc/rt582/rt582_driver/Src/qspi.c:107:11
	add.w	r0, r7, #48
	movs	r1, #0
	cmp	r4, #0
	it	eq
	addeq.w	r0, r8, #44
	.loc	3 107 19 is_stmt 0              @ ../../../components/platform/soc/rt582/rt582_driver/Src/qspi.c:107:19
	str	r1, [r0]
.Ltmp19:
	.p2align	2
.LBB0_9:                                @ =>This Inner Loop Header: Depth=1
	@DEBUG_VALUE: qspi_init:spi_mode <- $r5
	@DEBUG_VALUE: qspi_init:qspi_id <- $r4
	.loc	3 110 18 is_stmt 1              @ ../../../components/platform/soc/rt582/rt582_driver/Src/qspi.c:110:18
	ldr	r1, [r0]
	.loc	3 110 5 is_stmt 0               @ ../../../components/platform/soc/rt582/rt582_driver/Src/qspi.c:110:5
	cmp	r1, #0
	bne	.LBB0_9
.Ltmp20:
@ %bb.10:
	@DEBUG_VALUE: qspi_init:spi_mode <- $r5
	@DEBUG_VALUE: qspi_init:qspi_id <- $r4
	.loc	3 113 11 is_stmt 1              @ ../../../components/platform/soc/rt582/rt582_driver/Src/qspi.c:113:11
	add.w	r1, r7, #28
	cmp	r4, #0
	it	eq
	addeq.w	r1, r8, #24
	movs	r2, #255
	.loc	3 113 24 is_stmt 0              @ ../../../components/platform/soc/rt582/rt582_driver/Src/qspi.c:113:24
	str	r2, [r1]
	.loc	3 115 11 is_stmt 1              @ ../../../components/platform/soc/rt582/rt582_driver/Src/qspi.c:115:11
	add.w	r1, r7, #20
	mov.w	lr, #0
	cmp	r4, #0
	it	eq
	addeq.w	r1, r8, #16
	.loc	3 115 23 is_stmt 0              @ ../../../components/platform/soc/rt582/rt582_driver/Src/qspi.c:115:23
	str.w	lr, [r1]
	.loc	3 122 43 is_stmt 1              @ ../../../components/platform/soc/rt582/rt582_driver/Src/qspi.c:122:43
	ldrb	r1, [r5]
	.loc	3 122 11 is_stmt 0              @ ../../../components/platform/soc/rt582/rt582_driver/Src/qspi.c:122:11
	cmp	r4, #0
	.loc	3 122 43                        @ ../../../components/platform/soc/rt582/rt582_driver/Src/qspi.c:122:43
	ubfx	r3, r1, #5, #1
	.loc	3 122 67                        @ ../../../components/platform/soc/rt582/rt582_driver/Src/qspi.c:122:67
	ubfx	r1, r1, #3, #2
	.loc	3 122 54                        @ ../../../components/platform/soc/rt582/rt582_driver/Src/qspi.c:122:54
	lsl.w	r1, r3, r1
	.loc	3 122 11                        @ ../../../components/platform/soc/rt582/rt582_driver/Src/qspi.c:122:11
	add.w	r3, r7, #16
	it	eq
	addeq.w	r3, r8, #12
	.loc	3 122 30                        @ ../../../components/platform/soc/rt582/rt582_driver/Src/qspi.c:122:30
	str	r1, [r3]
	.loc	3 125 44 is_stmt 1              @ ../../../components/platform/soc/rt582/rt582_driver/Src/qspi.c:125:44
	ldrb	r1, [r5]
	mov.w	r12, #1
	ubfx	r3, r1, #3, #2
	.loc	3 125 11 is_stmt 0              @ ../../../components/platform/soc/rt582/rt582_driver/Src/qspi.c:125:11
	add.w	r1, r7, #12
	.loc	3 125 31                        @ ../../../components/platform/soc/rt582/rt582_driver/Src/qspi.c:125:31
	lsl.w	r3, r12, r3
	.loc	3 125 11                        @ ../../../components/platform/soc/rt582/rt582_driver/Src/qspi.c:125:11
	cmp	r4, #0
	it	eq
	addeq.w	r1, r8, #8
	.loc	3 125 26                        @ ../../../components/platform/soc/rt582/rt582_driver/Src/qspi.c:125:26
	str	r3, [r1]
	.loc	3 128 11 is_stmt 1              @ ../../../components/platform/soc/rt582/rt582_driver/Src/qspi.c:128:11
	mov	r1, r8
	it	ne
	addne	r1, r7, #4
	movs	r3, #24
	.loc	3 128 20 is_stmt 0              @ ../../../components/platform/soc/rt582/rt582_driver/Src/qspi.c:128:20
	str	r3, [r1]
	.loc	3 131 11 is_stmt 1              @ ../../../components/platform/soc/rt582/rt582_driver/Src/qspi.c:131:11
	add.w	r1, r7, #108
	.loc	3 132 11                        @ ../../../components/platform/soc/rt582/rt582_driver/Src/qspi.c:132:11
	add.w	r3, r7, #112
	movs	r2, #3
	.loc	3 131 11                        @ ../../../components/platform/soc/rt582/rt582_driver/Src/qspi.c:131:11
	cmp	r4, #0
	it	eq
	addeq.w	r1, r8, #104
	.loc	3 131 19 is_stmt 0              @ ../../../components/platform/soc/rt582/rt582_driver/Src/qspi.c:131:19
	str.w	lr, [r1]
	.loc	3 132 11 is_stmt 1              @ ../../../components/platform/soc/rt582/rt582_driver/Src/qspi.c:132:11
	it	eq
	addeq.w	r3, r8, #108
	.loc	3 132 26 is_stmt 0              @ ../../../components/platform/soc/rt582/rt582_driver/Src/qspi.c:132:26
	str	r2, [r3]
	.loc	3 133 11 is_stmt 1              @ ../../../components/platform/soc/rt582/rt582_driver/Src/qspi.c:133:11
	add.w	r2, r7, #116
	cmp	r4, #0
	it	eq
	addeq.w	r2, r8, #112
	.loc	3 133 25 is_stmt 0              @ ../../../components/platform/soc/rt582/rt582_driver/Src/qspi.c:133:25
	str.w	lr, [r2]
	.loc	3 134 11 is_stmt 1              @ ../../../components/platform/soc/rt582/rt582_driver/Src/qspi.c:134:11
	add.w	r2, r7, #120
	it	eq
	addeq.w	r2, r8, #116
	.loc	3 134 25 is_stmt 0              @ ../../../components/platform/soc/rt582/rt582_driver/Src/qspi.c:134:25
	str.w	lr, [r2]
	.loc	3 138 19 is_stmt 1              @ ../../../components/platform/soc/rt582/rt582_driver/Src/qspi.c:138:19
	str.w	r12, [r1]
	.loc	3 142 30                        @ ../../../components/platform/soc/rt582/rt582_driver/Src/qspi.c:142:30
	ldrb	r1, [r5]
	movs	r3, #16
	.loc	3 143 39                        @ ../../../components/platform/soc/rt582/rt582_driver/Src/qspi.c:143:39
	and.w	r3, r3, r1, lsl #3
	.loc	3 143 67 is_stmt 0              @ ../../../components/platform/soc/rt582/rt582_driver/Src/qspi.c:143:67
	and	r5, r1, #4
.Ltmp21:
	@DEBUG_VALUE: qspi_init:spi_mode <- [DW_OP_LLVM_entry_value 1] $r1
	.loc	3 142 30 is_stmt 1              @ ../../../components/platform/soc/rt582/rt582_driver/Src/qspi.c:142:30
	ubfx	r2, r1, #6, #1
	.loc	3 144 44                        @ ../../../components/platform/soc/rt582/rt582_driver/Src/qspi.c:144:44
	and	r1, r1, #1
	.loc	3 142 47                        @ ../../../components/platform/soc/rt582/rt582_driver/Src/qspi.c:142:47
	orr.w	r3, r3, r5, lsl #1
	.loc	3 143 45                        @ ../../../components/platform/soc/rt582/rt582_driver/Src/qspi.c:143:45
	orr.w	r1, r3, r1, lsl #2
	.loc	3 143 73 is_stmt 0              @ ../../../components/platform/soc/rt582/rt582_driver/Src/qspi.c:143:73
	orr.w	r1, r1, r2, lsl #5
	movw	r3, #20483
.Ltmp22:
	@DEBUG_VALUE: qspi_init:control_reg <- [DW_OP_constu 20482, DW_OP_or, DW_OP_stack_value] $r1
	.loc	3 146 9 is_stmt 1               @ ../../../components/platform/soc/rt582/rt582_driver/Src/qspi.c:146:9
	cmp	r2, #0
	it	eq
	movweq	r3, #20546
.Ltmp23:
	.loc	3 0 0 is_stmt 0                 @ ../../../components/platform/soc/rt582/rt582_driver/Src/qspi.c:0:0
	add	r1, r3
.Ltmp24:
	cmp	r4, #0
	it	eq
	addeq.w	r7, r7, #805306368
	str	r1, [r7]
.Ltmp25:
	.loc	3 161 19 is_stmt 1              @ ../../../components/platform/soc/rt582/rt582_driver/Src/qspi.c:161:19
	str.w	r12, [r0]
	movw	r0, #57600
	movt	r0, #57344
.Ltmp26:
	.loc	3 0 0 is_stmt 0                 @ ../../../components/platform/soc/rt582/rt582_driver/Src/qspi.c:0:0
	@APP
	@NO_APP
	ite	ne
	movne.w	r1, #536870912
.Ltmp27:
	@DEBUG_VALUE: __NVIC_EnableIRQ:IRQn <- 29
	moveq.w	r1, #8192
.Ltmp28:
	@DEBUG_VALUE: __NVIC_EnableIRQ:IRQn <- 13
	.loc	7 1513 43 is_stmt 1             @ C:/Users\P350\AppData\Local\Arm\Packs\ARM\CMSIS\5.8.0\CMSIS\Core\Include\core_cm3.h:1513:43
	str	r1, [r0]
	movs	r0, #1
	.loc	7 1514 5                        @ C:/Users\P350\AppData\Local\Arm\Packs\ARM\CMSIS\5.8.0\CMSIS\Core\Include\core_cm3.h:1514:5
	@APP
	@NO_APP
.Ltmp29:
	.loc	3 172 34                        @ ../../../components/platform/soc/rt582/rt582_driver/Src/qspi.c:172:34
	strh	r0, [r6]
	movs	r0, #0
	.loc	3 176 1                         @ ../../../components/platform/soc/rt582/rt582_driver/Src/qspi.c:176:1
	pop.w	{r4, r5, r6, r7, r8, pc}
.Ltmp30:
.LBB0_11:
	@DEBUG_VALUE: qspi_init:spi_mode <- $r5
	@DEBUG_VALUE: qspi_init:qspi_id <- $r4
	.loc	3 92 23                         @ ../../../components/platform/soc/rt582/rt582_driver/Src/qspi.c:92:23
	ldrb	r1, [r5]
	.loc	3 0 0 is_stmt 0                 @ ../../../components/platform/soc/rt582/rt582_driver/Src/qspi.c:0:0
	add.w	r0, r7, #68
	cmp	r4, #0
	it	eq
	addeq.w	r0, r8, #64
.Ltmp31:
	.loc	3 92 13                         @ ../../../components/platform/soc/rt582/rt582_driver/Src/qspi.c:92:13
	lsls	r1, r1, #25
	ite	mi
	movmi	r1, #0
	movpl.w	r1, #256
.Ltmp32:
	.loc	3 94 31 is_stmt 1               @ ../../../components/platform/soc/rt582/rt582_driver/Src/qspi.c:94:31
	str	r1, [r0]
	b	.LBB0_8
.Ltmp33:
.Lfunc_end0:
	.size	qspi_init, .Lfunc_end0-qspi_init
	.cfi_endproc
	.cantunwind
	.fnend
                                        @ -- End function
	.section	.text.qspi_change_clk,"ax",%progbits
	.hidden	qspi_change_clk                 @ -- Begin function qspi_change_clk
	.globl	qspi_change_clk
	.p2align	1
	.type	qspi_change_clk,%function
	.code	16                              @ @qspi_change_clk
	.thumb_func
qspi_change_clk:
.Lfunc_begin1:
	.loc	3 184 0                         @ ../../../components/platform/soc/rt582/rt582_driver/Src/qspi.c:184:0
	.fnstart
	.cfi_startproc
@ %bb.0:
	@DEBUG_VALUE: qspi_change_clk:qspi_id <- $r0
	@DEBUG_VALUE: qspi_change_clk:SPI_CLK <- $r1
	@DEBUG_VALUE: qspi_change_clk:SPI_CLK <- $r1
	@DEBUG_VALUE: qspi_change_clk:qspi_id <- $r0
	.save	{r4, r5, r6, lr}
	push	{r4, r5, r6, lr}
	.cfi_def_cfa_offset 16
	.cfi_offset lr, -4
	.cfi_offset r6, -8
	.cfi_offset r5, -12
	.cfi_offset r4, -16
.Ltmp34:
	.loc	3 187 9 prologue_end            @ ../../../components/platform/soc/rt582/rt582_driver/Src/qspi.c:187:9
	cmp	r0, #1
	mov.w	r6, #1
	bhi	.LBB1_8
.Ltmp35:
@ %bb.1:
	@DEBUG_VALUE: qspi_change_clk:SPI_CLK <- $r1
	@DEBUG_VALUE: qspi_change_clk:qspi_id <- $r0
	.loc	3 0 9 is_stmt 0                 @ ../../../components/platform/soc/rt582/rt582_driver/Src/qspi.c:0:9
	mov	r5, r0
.Ltmp36:
	@DEBUG_VALUE: qspi_change_clk:qspi_id <- $r5
	@DEBUG_VALUE: qspi_change_clk:qspi_id <- $r5
	movs	r0, #0
	mov	r4, r1
.Ltmp37:
	@DEBUG_VALUE: qspi_change_clk:SPI_CLK <- $r4
	.loc	3 187 9                         @ ../../../components/platform/soc/rt582/rt582_driver/Src/qspi.c:187:9
	cmp.w	r0, r1, lsr #9
	bne	.LBB1_8
.Ltmp38:
@ %bb.2:
	@DEBUG_VALUE: qspi_change_clk:qspi_id <- $r5
	@DEBUG_VALUE: qspi_change_clk:SPI_CLK <- $r4
	@DEBUG_VALUE: qspi_change_clk:QSPI <- undef
	.loc	3 206 5 is_stmt 1               @ ../../../components/platform/soc/rt582/rt582_driver/Src/qspi.c:206:5
	bl	enter_critical_section
.Ltmp39:
	.loc	3 208 27                        @ ../../../components/platform/soc/rt582/rt582_driver/Src/qspi.c:208:27
	movw	r0, :lower16:qspi_cfg
	movt	r0, :upper16:qspi_cfg
	add.w	r0, r0, r5, lsl #3
	ldrh	r0, [r0, #4]
.Ltmp40:
	.loc	3 208 9 is_stmt 0               @ ../../../components/platform/soc/rt582/rt582_driver/Src/qspi.c:208:9
	cmp	r0, #1
	bls	.LBB1_4
.Ltmp41:
@ %bb.3:
	@DEBUG_VALUE: qspi_change_clk:qspi_id <- $r5
	@DEBUG_VALUE: qspi_change_clk:SPI_CLK <- $r4
	.loc	3 0 9                           @ ../../../components/platform/soc/rt582/rt582_driver/Src/qspi.c:0:9
	movs	r6, #5
	b	.LBB1_7
.Ltmp42:
.LBB1_4:
	@DEBUG_VALUE: qspi_change_clk:qspi_id <- $r5
	@DEBUG_VALUE: qspi_change_clk:SPI_CLK <- $r4
	.loc	3 219 35 is_stmt 1              @ ../../../components/platform/soc/rt582/rt582_driver/Src/qspi.c:219:35
	cbnz	r4, .LBB1_6
.Ltmp43:
@ %bb.5:
	@DEBUG_VALUE: qspi_change_clk:qspi_id <- $r5
	@DEBUG_VALUE: qspi_change_clk:SPI_CLK <- $r4
	.loc	3 0 35 is_stmt 0                @ ../../../components/platform/soc/rt582/rt582_driver/Src/qspi.c:0:35
	movs	r0, #4
	movt	r0, #16512
	.loc	3 219 49                        @ ../../../components/platform/soc/rt582/rt582_driver/Src/qspi.c:219:49
	ldr	r0, [r0]
.Ltmp44:
	.loc	3 219 9                         @ ../../../components/platform/soc/rt582/rt582_driver/Src/qspi.c:219:9
	lsls	r0, r0, #30
	it	eq
	moveq.w	r4, #256
.Ltmp45:
	@DEBUG_VALUE: qspi_change_clk:SPI_CLK <- [DW_OP_LLVM_entry_value 1] $r1
.LBB1_6:
	@DEBUG_VALUE: qspi_change_clk:qspi_id <- $r5
	.loc	3 0 9                           @ ../../../components/platform/soc/rt582/rt582_driver/Src/qspi.c:0:9
	movs	r0, #80
	movt	r0, #32768
	movs	r6, #0
.Ltmp46:
	cmp	r5, #0
	it	eq
	addeq.w	r0, r0, #805306368
	str	r4, [r0]
.Ltmp47:
.LBB1_7:
	@DEBUG_VALUE: qspi_change_clk:qspi_id <- $r5
	bl	leave_critical_section
.Ltmp48:
.LBB1_8:
	.loc	3 231 1 is_stmt 1               @ ../../../components/platform/soc/rt582/rt582_driver/Src/qspi.c:231:1
	mov	r0, r6
	pop	{r4, r5, r6, pc}
.Ltmp49:
.Lfunc_end1:
	.size	qspi_change_clk, .Lfunc_end1-qspi_change_clk
	.cfi_endproc
	.cantunwind
	.fnend
                                        @ -- End function
	.section	.text.qspi_transfer,"ax",%progbits
	.hidden	qspi_transfer                   @ -- Begin function qspi_transfer
	.globl	qspi_transfer
	.p2align	1
	.type	qspi_transfer,%function
	.code	16                              @ @qspi_transfer
	.thumb_func
qspi_transfer:
.Lfunc_begin2:
	.loc	3 303 0                         @ ../../../components/platform/soc/rt582/rt582_driver/Src/qspi.c:303:0
	.fnstart
	.cfi_startproc
@ %bb.0:
	@DEBUG_VALUE: qspi_transfer:qspi_id <- $r0
	@DEBUG_VALUE: qspi_transfer:req <- $r1
	.save	{r4, r5, r6, r7, r8, r9, r10, r11, lr}
	push.w	{r4, r5, r6, r7, r8, r9, r10, r11, lr}
	.cfi_def_cfa_offset 36
	.cfi_offset lr, -4
	.cfi_offset r11, -8
	.cfi_offset r10, -12
	.cfi_offset r9, -16
	.cfi_offset r8, -20
	.cfi_offset r7, -24
	.cfi_offset r6, -28
	.cfi_offset r5, -32
	.cfi_offset r4, -36
	.pad	#12
	sub	sp, #12
	.cfi_def_cfa_offset 48
	mov	r11, r1
.Ltmp50:
	@DEBUG_VALUE: qspi_transfer:req <- $r11
	mov	r10, r0
.Ltmp51:
	@DEBUG_VALUE: qspi_transfer:qspi_id <- $r10
	@DEBUG_VALUE: qspi_transfer:req <- $r11
	@DEBUG_VALUE: qspi_transfer:qspi_id <- $r10
	.loc	3 343 5 prologue_end            @ ../../../components/platform/soc/rt582/rt582_driver/Src/qspi.c:343:5
	bl	enter_critical_section
.Ltmp52:
	.loc	3 345 27                        @ ../../../components/platform/soc/rt582/rt582_driver/Src/qspi.c:345:27
	movw	r0, :lower16:qspi_cfg
	movt	r0, :upper16:qspi_cfg
	add.w	r8, r0, r10, lsl #3
	ldrh	r0, [r8, #4]!
	movs	r6, #2
.Ltmp53:
	.loc	3 345 9 is_stmt 0               @ ../../../components/platform/soc/rt582/rt582_driver/Src/qspi.c:345:9
	cmp	r0, #1
	bne.w	.LBB2_41
.Ltmp54:
@ %bb.1:
	@DEBUG_VALUE: qspi_transfer:req <- $r11
	@DEBUG_VALUE: qspi_transfer:qspi_id <- $r10
	.loc	3 0 9                           @ ../../../components/platform/soc/rt582/rt582_driver/Src/qspi.c:0:9
	movw	r9, #16
	movs	r5, #4
	movt	r9, #45056
	movt	r5, #32768
	.loc	3 351 34 is_stmt 1              @ ../../../components/platform/soc/rt582/rt582_driver/Src/qspi.c:351:34
	strh.w	r6, [r8]
	.loc	3 353 5                         @ ../../../components/platform/soc/rt582/rt582_driver/Src/qspi.c:353:5
	bl	leave_critical_section
.Ltmp55:
	@DEBUG_VALUE: qspi_transfer:qspi_sync_req <- [DW_OP_LLVM_fragment 64 32] undef
	@DEBUG_VALUE: qspi_transfer:qspi_sync_req <- [DW_OP_LLVM_fragment 32 32] undef
	@DEBUG_VALUE: qspi_transfer:qspi_sync_req <- [DW_OP_LLVM_fragment 0 32] undef
	@DEBUG_VALUE: qspi_transfer:QSPI <- undef
	.loc	3 364 21                        @ ../../../components/platform/soc/rt582/rt582_driver/Src/qspi.c:364:21
	ldr.w	r0, [r11, #8]
	ldrh.w	r6, [r11, #12]
.Ltmp56:
	@DEBUG_VALUE: qspi_transfer:qspi_sync_req <- [DW_OP_LLVM_fragment 96 16] undef
	str	r0, [sp, #4]                    @ 4-byte Spill
	ldrh.w	r0, [r11, #16]
.Ltmp57:
	@DEBUG_VALUE: qspi_transfer:aux_reg <- 152
	@DEBUG_VALUE: qspi_transfer:qspi_sync_req <- [DW_OP_LLVM_fragment 128 16] undef
	ldrd	r1, r2, [r11]
	ldrh.w	r3, [r11, #14]
.Ltmp58:
	@DEBUG_VALUE: qspi_transfer:qspi_sync_req <- [DW_OP_LLVM_fragment 112 16] undef
	.loc	3 375 11                        @ ../../../components/platform/soc/rt582/rt582_driver/Src/qspi.c:375:11
	add.w	lr, r5, #12
	cmp.w	r10, #0
	str	r0, [sp, #8]                    @ 4-byte Spill
	itt	eq
	movweq	lr, #16
	movteq	lr, #45056
	movs	r4, #152
	.loc	3 375 20 is_stmt 0              @ ../../../components/platform/soc/rt582/rt582_driver/Src/qspi.c:375:20
	str.w	r4, [lr]
.Ltmp59:
	@DEBUG_VALUE: qspi_transfer:cmd_ptr <- $r1
	@DEBUG_VALUE: qspi_transfer:qspi_sync_req <- [DW_OP_LLVM_fragment 96 16] undef
	.loc	3 379 5 is_stmt 1               @ ../../../components/platform/soc/rt582/rt582_driver/Src/qspi.c:379:5
	cbz	r6, .LBB2_6
.Ltmp60:
@ %bb.2:
	@DEBUG_VALUE: qspi_transfer:req <- $r11
	@DEBUG_VALUE: qspi_transfer:qspi_id <- $r10
	@DEBUG_VALUE: qspi_transfer:cmd_ptr <- $r1
	@DEBUG_VALUE: qspi_transfer:aux_reg <- 152
	.loc	3 0 5 is_stmt 0                 @ ../../../components/platform/soc/rt582/rt582_driver/Src/qspi.c:0:5
	add.w	r7, r5, #16
	mov.w	r4, #-2147483648
	cmp.w	r10, #0
	it	eq
	addeq.w	r7, r9, #4
	it	eq
	moveq.w	r4, #-1342177280
.Ltmp61:
	.p2align	2
.LBB2_3:                                @ =>This Inner Loop Header: Depth=1
	@DEBUG_VALUE: qspi_transfer:req <- $r11
	@DEBUG_VALUE: qspi_transfer:qspi_id <- $r10
	@DEBUG_VALUE: qspi_transfer:cmd_ptr <- $r1
	@DEBUG_VALUE: qspi_transfer:aux_reg <- 152
	@DEBUG_VALUE: qspi_transfer:qspi_sync_req <- [DW_OP_LLVM_fragment 96 16] $r6
	@DEBUG_VALUE: qspi_transfer:cmd_ptr <- $r1
	.loc	3 381 21 is_stmt 1              @ ../../../components/platform/soc/rt582/rt582_driver/Src/qspi.c:381:21
	ldr.w	r12, [r7]
.Ltmp62:
	.loc	3 381 13 is_stmt 0              @ ../../../components/platform/soc/rt582/rt582_driver/Src/qspi.c:381:13
	lsls.w	r0, r12, #27
	bmi	.LBB2_5
.Ltmp63:
@ %bb.4:                                @   in Loop: Header=BB2_3 Depth=1
	@DEBUG_VALUE: qspi_transfer:req <- $r11
	@DEBUG_VALUE: qspi_transfer:qspi_id <- $r10
	@DEBUG_VALUE: qspi_transfer:qspi_sync_req <- [DW_OP_LLVM_fragment 96 16] $r6
	@DEBUG_VALUE: qspi_transfer:cmd_ptr <- $r1
	@DEBUG_VALUE: qspi_transfer:aux_reg <- 152
	.loc	3 383 34 is_stmt 1              @ ../../../components/platform/soc/rt582/rt582_driver/Src/qspi.c:383:34
	ldrb	r0, [r1], #1
.Ltmp64:
	@DEBUG_VALUE: qspi_transfer:cmd_ptr <- $r1
	.loc	3 385 37                        @ ../../../components/platform/soc/rt582/rt582_driver/Src/qspi.c:385:37
	subs	r6, #1
.Ltmp65:
	@DEBUG_VALUE: qspi_transfer:qspi_sync_req <- [DW_OP_LLVM_fragment 96 16] $r6
	.loc	3 383 32                        @ ../../../components/platform/soc/rt582/rt582_driver/Src/qspi.c:383:32
	str	r0, [r4]
.Ltmp66:
.LBB2_5:                                @   in Loop: Header=BB2_3 Depth=1
	@DEBUG_VALUE: qspi_transfer:req <- $r11
	@DEBUG_VALUE: qspi_transfer:qspi_id <- $r10
	@DEBUG_VALUE: qspi_transfer:qspi_sync_req <- [DW_OP_LLVM_fragment 96 16] $r6
	@DEBUG_VALUE: qspi_transfer:cmd_ptr <- $r1
	@DEBUG_VALUE: qspi_transfer:aux_reg <- 152
	@DEBUG_VALUE: qspi_transfer:qspi_sync_req <- [DW_OP_LLVM_fragment 96 16] $r6
	@DEBUG_VALUE: qspi_transfer:cmd_ptr <- $r1
	.loc	3 379 5                         @ ../../../components/platform/soc/rt582/rt582_driver/Src/qspi.c:379:5
	lsls	r0, r6, #16
	bne	.LBB2_3
.Ltmp67:
.LBB2_6:
	@DEBUG_VALUE: qspi_transfer:req <- $r11
	@DEBUG_VALUE: qspi_transfer:qspi_id <- $r10
	@DEBUG_VALUE: qspi_transfer:cmd_ptr <- $r1
	@DEBUG_VALUE: qspi_transfer:aux_reg <- 152
	.loc	3 389 9                         @ ../../../components/platform/soc/rt582/rt582_driver/Src/qspi.c:389:9
	cbz	r3, .LBB2_8
.Ltmp68:
@ %bb.7:
	@DEBUG_VALUE: qspi_transfer:req <- $r11
	@DEBUG_VALUE: qspi_transfer:qspi_id <- $r10
	@DEBUG_VALUE: qspi_transfer:cmd_ptr <- $r1
	@DEBUG_VALUE: qspi_transfer:aux_reg <- 152
	.loc	3 0 0 is_stmt 0                 @ ../../../components/platform/soc/rt582/rt582_driver/Src/qspi.c:0:0
	ldrb.w	r0, [r11, #18]
.Ltmp69:
	.loc	3 391 13 is_stmt 1              @ ../../../components/platform/soc/rt582/rt582_driver/Src/qspi.c:391:13
	cmp	r3, #4
.Ltmp70:
	.loc	3 0 0 is_stmt 0                 @ ../../../components/platform/soc/rt582/rt582_driver/Src/qspi.c:0:0
	and	r1, r0, #3
.Ltmp71:
	.loc	3 397 84 is_stmt 1              @ ../../../components/platform/soc/rt582/rt582_driver/Src/qspi.c:397:84
	ite	lo
	ornlo	r6, r1, #103
.Ltmp72:
	@DEBUG_VALUE: qspi_transfer:aux_reg <- [DW_OP_LLVM_convert 8 7, DW_OP_LLVM_convert 32 7, DW_OP_stack_value] $r6
	.loc	3 393 85                        @ ../../../components/platform/soc/rt582/rt582_driver/Src/qspi.c:393:85
	ornhs	r6, r1, #7
.Ltmp73:
	@DEBUG_VALUE: qspi_transfer:aux_reg <- [DW_OP_LLVM_convert 8 7, DW_OP_LLVM_convert 32 7, DW_OP_stack_value] $r6
	.loc	3 0 85 is_stmt 0                @ ../../../components/platform/soc/rt582/rt582_driver/Src/qspi.c:0:85
	ldr	r7, [sp, #8]                    @ 4-byte Reload
	b	.LBB2_11
.Ltmp74:
.LBB2_8:
	@DEBUG_VALUE: qspi_transfer:req <- $r11
	@DEBUG_VALUE: qspi_transfer:qspi_id <- $r10
	@DEBUG_VALUE: qspi_transfer:cmd_ptr <- $r1
	@DEBUG_VALUE: qspi_transfer:aux_reg <- 152
	ldr	r7, [sp, #8]                    @ 4-byte Reload
	.loc	3 400 14 is_stmt 1              @ ../../../components/platform/soc/rt582/rt582_driver/Src/qspi.c:400:14
	cbz	r7, .LBB2_10
.Ltmp75:
@ %bb.9:
	@DEBUG_VALUE: qspi_transfer:req <- $r11
	@DEBUG_VALUE: qspi_transfer:qspi_id <- $r10
	@DEBUG_VALUE: qspi_transfer:cmd_ptr <- $r1
	@DEBUG_VALUE: qspi_transfer:aux_reg <- 152
	.loc	3 0 0 is_stmt 0                 @ ../../../components/platform/soc/rt582/rt582_driver/Src/qspi.c:0:0
	ldrb.w	r0, [r11, #18]
.Ltmp76:
	.loc	3 402 13 is_stmt 1              @ ../../../components/platform/soc/rt582/rt582_driver/Src/qspi.c:402:13
	cmp	r7, #4
.Ltmp77:
	.loc	3 0 0 is_stmt 0                 @ ../../../components/platform/soc/rt582/rt582_driver/Src/qspi.c:0:0
	and	r1, r0, #3
.Ltmp78:
	.loc	3 408 66 is_stmt 1              @ ../../../components/platform/soc/rt582/rt582_driver/Src/qspi.c:408:66
	ite	lo
	ornlo	r6, r1, #111
.Ltmp79:
	.loc	3 404 67                        @ ../../../components/platform/soc/rt582/rt582_driver/Src/qspi.c:404:67
	ornhs	r6, r1, #15
.Ltmp80:
	@DEBUG_VALUE: qspi_transfer:aux_reg <- [DW_OP_LLVM_convert 8 7, DW_OP_LLVM_convert 32 7, DW_OP_stack_value] $r6
	.loc	3 0 67 is_stmt 0                @ ../../../components/platform/soc/rt582/rt582_driver/Src/qspi.c:0:67
	b	.LBB2_11
.Ltmp81:
.LBB2_10:
	@DEBUG_VALUE: qspi_transfer:req <- $r11
	@DEBUG_VALUE: qspi_transfer:qspi_id <- $r10
	@DEBUG_VALUE: qspi_transfer:cmd_ptr <- $r1
	@DEBUG_VALUE: qspi_transfer:aux_reg <- 152
	movs	r6, #152
.Ltmp82:
.LBB2_11:
	@DEBUG_VALUE: qspi_transfer:req <- $r11
	@DEBUG_VALUE: qspi_transfer:qspi_id <- $r10
	add.w	r1, r5, #16
	cmp.w	r10, #0
	it	eq
	addeq.w	r1, r9, #4
.Ltmp83:
	.p2align	2
.LBB2_12:                               @ =>This Inner Loop Header: Depth=1
	@DEBUG_VALUE: qspi_transfer:req <- $r11
	@DEBUG_VALUE: qspi_transfer:qspi_id <- $r10
	.loc	3 413 20 is_stmt 1              @ ../../../components/platform/soc/rt582/rt582_driver/Src/qspi.c:413:20
	ldr	r0, [r1]
	.loc	3 413 5 is_stmt 0               @ ../../../components/platform/soc/rt582/rt582_driver/Src/qspi.c:413:5
	lsls	r0, r0, #30
	bpl	.LBB2_12
.Ltmp84:
@ %bb.13:
	@DEBUG_VALUE: qspi_transfer:req <- $r11
	@DEBUG_VALUE: qspi_transfer:qspi_id <- $r10
	.loc	3 0 0                           @ ../../../components/platform/soc/rt582/rt582_driver/Src/qspi.c:0:0
	uxtb	r4, r6
.Ltmp85:
	@DEBUG_VALUE: qspi_transfer:aux_reg <- $r4
	.loc	3 417 34 is_stmt 1              @ ../../../components/platform/soc/rt582/rt582_driver/Src/qspi.c:417:34
	cbz	r3, .LBB2_24
.Ltmp86:
@ %bb.14:
	@DEBUG_VALUE: qspi_transfer:req <- $r11
	@DEBUG_VALUE: qspi_transfer:qspi_id <- $r10
	@DEBUG_VALUE: qspi_transfer:aux_reg <- $r4
	.loc	3 430 9                         @ ../../../components/platform/soc/rt582/rt582_driver/Src/qspi.c:430:9
	cmp	r3, #4
.Ltmp87:
	.loc	3 424 20                        @ ../../../components/platform/soc/rt582/rt582_driver/Src/qspi.c:424:20
	str.w	r4, [lr]
.Ltmp88:
	@DEBUG_VALUE: qspi_transfer:write_ptr <- $r2
	@DEBUG_VALUE: qspi_transfer:qspi_sync_req <- [DW_OP_LLVM_fragment 112 16] $r3
	.loc	3 430 9                         @ ../../../components/platform/soc/rt582/rt582_driver/Src/qspi.c:430:9
	blo	.LBB2_19
.Ltmp89:
@ %bb.15:
	@DEBUG_VALUE: qspi_transfer:req <- $r11
	@DEBUG_VALUE: qspi_transfer:qspi_id <- $r10
	@DEBUG_VALUE: qspi_transfer:aux_reg <- $r4
	@DEBUG_VALUE: qspi_transfer:qspi_sync_req <- [DW_OP_LLVM_fragment 112 16] $r3
	@DEBUG_VALUE: qspi_transfer:write_ptr <- $r2
	.loc	3 0 9 is_stmt 0                 @ ../../../components/platform/soc/rt582/rt582_driver/Src/qspi.c:0:9
	mov.w	r7, #-2147483648
	cmp.w	r10, #0
	it	eq
	moveq.w	r7, #-1342177280
.Ltmp90:
	.p2align	2
.LBB2_16:                               @ =>This Inner Loop Header: Depth=1
	@DEBUG_VALUE: qspi_transfer:req <- $r11
	@DEBUG_VALUE: qspi_transfer:qspi_id <- $r10
	@DEBUG_VALUE: qspi_transfer:aux_reg <- $r4
	@DEBUG_VALUE: qspi_transfer:qspi_sync_req <- [DW_OP_LLVM_fragment 112 16] $r3
	@DEBUG_VALUE: qspi_transfer:write_ptr <- $r2
	@DEBUG_VALUE: qspi_transfer:qspi_sync_req <- [DW_OP_LLVM_fragment 112 16] $r3
	@DEBUG_VALUE: qspi_transfer:write_ptr <- $r2
	.loc	3 433 25 is_stmt 1              @ ../../../components/platform/soc/rt582/rt582_driver/Src/qspi.c:433:25
	ldr	r0, [r1]
.Ltmp91:
	.loc	3 433 17 is_stmt 0              @ ../../../components/platform/soc/rt582/rt582_driver/Src/qspi.c:433:17
	lsls	r0, r0, #27
	bmi	.LBB2_18
.Ltmp92:
@ %bb.17:                               @   in Loop: Header=BB2_16 Depth=1
	@DEBUG_VALUE: qspi_transfer:req <- $r11
	@DEBUG_VALUE: qspi_transfer:qspi_id <- $r10
	@DEBUG_VALUE: qspi_transfer:aux_reg <- $r4
	@DEBUG_VALUE: qspi_transfer:qspi_sync_req <- [DW_OP_LLVM_fragment 112 16] $r3
	@DEBUG_VALUE: qspi_transfer:write_ptr <- $r2
	.loc	3 435 24 is_stmt 1              @ ../../../components/platform/soc/rt582/rt582_driver/Src/qspi.c:435:24
	ldr	r0, [r2], #4
.Ltmp93:
	@DEBUG_VALUE: qspi_transfer:temp <- $r0
	.loc	3 438 44                        @ ../../../components/platform/soc/rt582/rt582_driver/Src/qspi.c:438:44
	subs	r3, #4
.Ltmp94:
	@DEBUG_VALUE: qspi_transfer:write_ptr <- $r2
	@DEBUG_VALUE: qspi_transfer:qspi_sync_req <- [DW_OP_LLVM_fragment 112 16] $r3
	.loc	3 436 36                        @ ../../../components/platform/soc/rt582/rt582_driver/Src/qspi.c:436:36
	str	r0, [r7]
.Ltmp95:
.LBB2_18:                               @   in Loop: Header=BB2_16 Depth=1
	@DEBUG_VALUE: qspi_transfer:req <- $r11
	@DEBUG_VALUE: qspi_transfer:qspi_id <- $r10
	@DEBUG_VALUE: qspi_transfer:aux_reg <- $r4
	@DEBUG_VALUE: qspi_transfer:qspi_sync_req <- [DW_OP_LLVM_fragment 112 16] $r3
	@DEBUG_VALUE: qspi_transfer:write_ptr <- $r2
	@DEBUG_VALUE: qspi_transfer:qspi_sync_req <- [DW_OP_LLVM_fragment 112 16] $r3
	@DEBUG_VALUE: qspi_transfer:write_ptr <- $r2
	.loc	3 430 43                        @ ../../../components/platform/soc/rt582/rt582_driver/Src/qspi.c:430:43
	uxth	r0, r3
	.loc	3 430 9 is_stmt 0               @ ../../../components/platform/soc/rt582/rt582_driver/Src/qspi.c:430:9
	cmp	r0, #3
	bhi	.LBB2_16
.Ltmp96:
	.p2align	2
.LBB2_19:                               @ =>This Inner Loop Header: Depth=1
	@DEBUG_VALUE: qspi_transfer:req <- $r11
	@DEBUG_VALUE: qspi_transfer:qspi_id <- $r10
	@DEBUG_VALUE: qspi_transfer:aux_reg <- $r4
	@DEBUG_VALUE: qspi_transfer:qspi_sync_req <- [DW_OP_LLVM_fragment 112 16] $r3
	@DEBUG_VALUE: qspi_transfer:write_ptr <- $r2
	.loc	3 444 24 is_stmt 1              @ ../../../components/platform/soc/rt582/rt582_driver/Src/qspi.c:444:24
	ldr	r0, [r1]
	.loc	3 444 9 is_stmt 0               @ ../../../components/platform/soc/rt582/rt582_driver/Src/qspi.c:444:9
	lsls	r0, r0, #30
	bpl	.LBB2_19
.Ltmp97:
@ %bb.20:
	@DEBUG_VALUE: qspi_transfer:req <- $r11
	@DEBUG_VALUE: qspi_transfer:qspi_id <- $r10
	@DEBUG_VALUE: qspi_transfer:aux_reg <- $r4
	@DEBUG_VALUE: qspi_transfer:qspi_sync_req <- [DW_OP_LLVM_fragment 112 16] $r3
	@DEBUG_VALUE: qspi_transfer:write_ptr <- $r2
	.loc	3 447 32 is_stmt 1              @ ../../../components/platform/soc/rt582/rt582_driver/Src/qspi.c:447:32
	ldrb.w	r0, [r11, #18]
	movs	r7, #38
	.loc	3 447 87 is_stmt 0              @ ../../../components/platform/soc/rt582/rt582_driver/Src/qspi.c:447:87
	bfi	r0, r7, #2, #30
	.loc	3 449 13 is_stmt 1              @ ../../../components/platform/soc/rt582/rt582_driver/Src/qspi.c:449:13
	lsls	r7, r3, #16
	.loc	3 447 24                        @ ../../../components/platform/soc/rt582/rt582_driver/Src/qspi.c:447:24
	str.w	r0, [lr]
	.loc	3 449 13                        @ ../../../components/platform/soc/rt582/rt582_driver/Src/qspi.c:449:13
	beq	.LBB2_40
.Ltmp98:
@ %bb.21:
	@DEBUG_VALUE: qspi_transfer:req <- $r11
	@DEBUG_VALUE: qspi_transfer:qspi_id <- $r10
	@DEBUG_VALUE: qspi_transfer:aux_reg <- $r4
	@DEBUG_VALUE: qspi_transfer:qspi_sync_req <- [DW_OP_LLVM_fragment 112 16] $r3
	@DEBUG_VALUE: qspi_transfer:write_ptr <- $r2
	@DEBUG_VALUE: qspi_transfer:qspi_sync_req <- [DW_OP_LLVM_fragment 112 16] $r3
	@DEBUG_VALUE: qspi_transfer:write_ptr <- $r2
	.loc	3 0 13 is_stmt 0                @ ../../../components/platform/soc/rt582/rt582_driver/Src/qspi.c:0:13
	mov.w	r7, #-2147483648
	cmp.w	r10, #0
	it	eq
	moveq.w	r7, #-1342177280
.Ltmp99:
	.p2align	2
.LBB2_22:                               @ =>This Inner Loop Header: Depth=1
	@DEBUG_VALUE: qspi_transfer:req <- $r11
	@DEBUG_VALUE: qspi_transfer:qspi_id <- $r10
	@DEBUG_VALUE: qspi_transfer:aux_reg <- $r4
	@DEBUG_VALUE: qspi_transfer:qspi_sync_req <- [DW_OP_LLVM_fragment 112 16] $r3
	@DEBUG_VALUE: qspi_transfer:write_ptr <- $r2
	@DEBUG_VALUE: qspi_transfer:qspi_sync_req <- [DW_OP_LLVM_fragment 112 16] $r3
	@DEBUG_VALUE: qspi_transfer:write_ptr <- $r2
	.loc	3 455 38 is_stmt 1              @ ../../../components/platform/soc/rt582/rt582_driver/Src/qspi.c:455:38
	ldrb	r0, [r2], #1
.Ltmp100:
	@DEBUG_VALUE: qspi_transfer:write_ptr <- $r2
	.loc	3 456 43                        @ ../../../components/platform/soc/rt582/rt582_driver/Src/qspi.c:456:43
	subs	r3, #1
.Ltmp101:
	@DEBUG_VALUE: qspi_transfer:qspi_sync_req <- [DW_OP_LLVM_fragment 112 16] $r3
	.loc	3 453 13                        @ ../../../components/platform/soc/rt582/rt582_driver/Src/qspi.c:453:13
	lsls	r6, r3, #16
.Ltmp102:
	.loc	3 455 36                        @ ../../../components/platform/soc/rt582/rt582_driver/Src/qspi.c:455:36
	str	r0, [r7]
.Ltmp103:
	.loc	3 453 13                        @ ../../../components/platform/soc/rt582/rt582_driver/Src/qspi.c:453:13
	bne	.LBB2_22
.Ltmp104:
	.p2align	2
.LBB2_23:                               @ =>This Inner Loop Header: Depth=1
	@DEBUG_VALUE: qspi_transfer:req <- $r11
	@DEBUG_VALUE: qspi_transfer:qspi_id <- $r10
	@DEBUG_VALUE: qspi_transfer:aux_reg <- $r4
	@DEBUG_VALUE: qspi_transfer:qspi_sync_req <- [DW_OP_LLVM_fragment 112 16] $r3
	@DEBUG_VALUE: qspi_transfer:write_ptr <- $r2
	.loc	3 460 28                        @ ../../../components/platform/soc/rt582/rt582_driver/Src/qspi.c:460:28
	ldr	r0, [r1]
	.loc	3 460 13 is_stmt 0              @ ../../../components/platform/soc/rt582/rt582_driver/Src/qspi.c:460:13
	lsls	r0, r0, #30
	bpl	.LBB2_23
	b	.LBB2_40
.Ltmp105:
.LBB2_24:
	@DEBUG_VALUE: qspi_transfer:req <- $r11
	@DEBUG_VALUE: qspi_transfer:qspi_id <- $r10
	@DEBUG_VALUE: qspi_transfer:aux_reg <- $r4
	.loc	3 417 9 is_stmt 1               @ ../../../components/platform/soc/rt582/rt582_driver/Src/qspi.c:417:9
	cmp	r7, #0
	beq	.LBB2_40
.Ltmp106:
@ %bb.25:
	@DEBUG_VALUE: qspi_transfer:req <- $r11
	@DEBUG_VALUE: qspi_transfer:qspi_id <- $r10
	@DEBUG_VALUE: qspi_transfer:aux_reg <- $r4
	.loc	3 471 9                         @ ../../../components/platform/soc/rt582/rt582_driver/Src/qspi.c:471:9
	cmp	r7, #4
.Ltmp107:
	.loc	3 424 20                        @ ../../../components/platform/soc/rt582/rt582_driver/Src/qspi.c:424:20
	str.w	r4, [lr]
.Ltmp108:
	@DEBUG_VALUE: qspi_transfer:remain_len <- [DW_OP_plus_uconst 8] [$sp+0]
	@DEBUG_VALUE: qspi_transfer:read_ptr <- [DW_OP_plus_uconst 4] [$sp+0]
	.loc	3 0 20 is_stmt 0                @ ../../../components/platform/soc/rt582/rt582_driver/Src/qspi.c:0:20
	blo	.LBB2_28
.Ltmp109:
@ %bb.26:
	@DEBUG_VALUE: qspi_transfer:req <- $r11
	@DEBUG_VALUE: qspi_transfer:qspi_id <- $r10
	@DEBUG_VALUE: qspi_transfer:aux_reg <- $r4
	@DEBUG_VALUE: qspi_transfer:read_ptr <- [DW_OP_plus_uconst 4] [$sp+0]
	@DEBUG_VALUE: qspi_transfer:remain_len <- [DW_OP_plus_uconst 8] [$sp+0]
	mov.w	r6, #-2147483648
	mov	r2, r7
	mov	r7, r5
	cmp.w	r10, #0
	it	eq
	moveq.w	r6, #-1342177280
	it	eq
	addeq.w	r7, r7, #805306368
	ldr	r3, [sp, #4]                    @ 4-byte Reload
	mov.w	r9, #0
.Ltmp110:
	.p2align	2
.LBB2_27:                               @ =>This Inner Loop Header: Depth=1
	@DEBUG_VALUE: qspi_transfer:req <- $r11
	@DEBUG_VALUE: qspi_transfer:qspi_id <- $r10
	@DEBUG_VALUE: qspi_transfer:read_ptr <- $r3
	@DEBUG_VALUE: qspi_transfer:remain_len <- $r2
	.loc	3 473 32 is_stmt 1              @ ../../../components/platform/soc/rt582/rt582_driver/Src/qspi.c:473:32
	ldr	r4, [r1]
.Ltmp111:
	@DEBUG_VALUE: qspi_transfer:status_reg <- $r4
	.loc	3 474 17                        @ ../../../components/platform/soc/rt582/rt582_driver/Src/qspi.c:474:17
	lsls	r0, r4, #27
.Ltmp112:
	.loc	3 476 36                        @ ../../../components/platform/soc/rt582/rt582_driver/Src/qspi.c:476:36
	itt	pl
	strpl.w	r9, [r6]
	.loc	3 477 28                        @ ../../../components/platform/soc/rt582/rt582_driver/Src/qspi.c:477:28
	subpl	r2, #4
.Ltmp113:
	@DEBUG_VALUE: qspi_transfer:remain_len <- $r2
	.loc	3 480 17                        @ ../../../components/platform/soc/rt582/rt582_driver/Src/qspi.c:480:17
	lsls	r0, r4, #26
.Ltmp114:
	.loc	3 482 30                        @ ../../../components/platform/soc/rt582/rt582_driver/Src/qspi.c:482:30
	itt	pl
	ldrpl	r0, [r7]
.Ltmp115:
	@DEBUG_VALUE: qspi_transfer:temp <- $r0
	.loc	3 483 42                        @ ../../../components/platform/soc/rt582/rt582_driver/Src/qspi.c:483:42
	strpl	r0, [r3], #4
.Ltmp116:
	@DEBUG_VALUE: qspi_transfer:read_ptr <- $r3
	@DEBUG_VALUE: qspi_transfer:remain_len <- $r2
	.loc	3 471 9                         @ ../../../components/platform/soc/rt582/rt582_driver/Src/qspi.c:471:9
	cmp	r2, #3
	bhi	.LBB2_27
	b	.LBB2_29
.Ltmp117:
.LBB2_28:
	@DEBUG_VALUE: qspi_transfer:req <- $r11
	@DEBUG_VALUE: qspi_transfer:qspi_id <- $r10
	@DEBUG_VALUE: qspi_transfer:aux_reg <- $r4
	@DEBUG_VALUE: qspi_transfer:read_ptr <- [DW_OP_plus_uconst 4] [$sp+0]
	@DEBUG_VALUE: qspi_transfer:remain_len <- [DW_OP_plus_uconst 8] [$sp+0]
	.loc	3 467 18                        @ ../../../components/platform/soc/rt582/rt582_driver/Src/qspi.c:467:18
	ldr	r3, [sp, #4]                    @ 4-byte Reload
	.loc	3 468 20                        @ ../../../components/platform/soc/rt582/rt582_driver/Src/qspi.c:468:20
	mov	r2, r7
.Ltmp118:
.LBB2_29:
	@DEBUG_VALUE: qspi_transfer:req <- $r11
	@DEBUG_VALUE: qspi_transfer:qspi_id <- $r10
	.loc	3 491 65                        @ ../../../components/platform/soc/rt582/rt582_driver/Src/qspi.c:491:65
	ldrd	r0, r7, [sp, #4]                @ 8-byte Folded Reload
	add	r0, r7
	.loc	3 491 86 is_stmt 0              @ ../../../components/platform/soc/rt582/rt582_driver/Src/qspi.c:491:86
	subs	r7, r0, r3
.Ltmp119:
	@DEBUG_VALUE: qspi_transfer:still_required_bytes <- $r7
	@DEBUG_VALUE: qspi_transfer:read_ptr <- $r3
	.loc	3 493 9 is_stmt 1               @ ../../../components/platform/soc/rt582/rt582_driver/Src/qspi.c:493:9
	cmp	r2, r7
	beq	.LBB2_34
.Ltmp120:
@ %bb.30:
	@DEBUG_VALUE: qspi_transfer:req <- $r11
	@DEBUG_VALUE: qspi_transfer:qspi_id <- $r10
	@DEBUG_VALUE: qspi_transfer:still_required_bytes <- $r7
	@DEBUG_VALUE: qspi_transfer:read_ptr <- $r3
	.loc	3 0 9 is_stmt 0                 @ ../../../components/platform/soc/rt582/rt582_driver/Src/qspi.c:0:9
	mov	r4, r5
	cmp.w	r10, #0
	it	eq
	addeq.w	r4, r4, #805306368
.Ltmp121:
	.p2align	2
.LBB2_31:                               @ =>This Inner Loop Header: Depth=1
	@DEBUG_VALUE: qspi_transfer:req <- $r11
	@DEBUG_VALUE: qspi_transfer:qspi_id <- $r10
	@DEBUG_VALUE: qspi_transfer:still_required_bytes <- $r7
	@DEBUG_VALUE: qspi_transfer:read_ptr <- $r3
	@DEBUG_VALUE: qspi_transfer:read_ptr <- $r3
	@DEBUG_VALUE: qspi_transfer:still_required_bytes <- $r7
	.loc	3 495 32 is_stmt 1              @ ../../../components/platform/soc/rt582/rt582_driver/Src/qspi.c:495:32
	ldr	r0, [r1]
.Ltmp122:
	@DEBUG_VALUE: qspi_transfer:status_reg <- $r0
	.loc	3 496 17                        @ ../../../components/platform/soc/rt582/rt582_driver/Src/qspi.c:496:17
	lsls	r0, r0, #26
.Ltmp123:
	bmi	.LBB2_33
.Ltmp124:
@ %bb.32:                               @   in Loop: Header=BB2_31 Depth=1
	@DEBUG_VALUE: qspi_transfer:req <- $r11
	@DEBUG_VALUE: qspi_transfer:qspi_id <- $r10
	@DEBUG_VALUE: qspi_transfer:still_required_bytes <- $r7
	@DEBUG_VALUE: qspi_transfer:read_ptr <- $r3
	.loc	3 498 30                        @ ../../../components/platform/soc/rt582/rt582_driver/Src/qspi.c:498:30
	ldr	r0, [r4]
.Ltmp125:
	@DEBUG_VALUE: qspi_transfer:temp <- $r0
	.loc	3 501 38                        @ ../../../components/platform/soc/rt582/rt582_driver/Src/qspi.c:501:38
	subs	r7, #4
.Ltmp126:
	@DEBUG_VALUE: qspi_transfer:still_required_bytes <- $r7
	.loc	3 499 42                        @ ../../../components/platform/soc/rt582/rt582_driver/Src/qspi.c:499:42
	str	r0, [r3], #4
.Ltmp127:
	@DEBUG_VALUE: qspi_transfer:read_ptr <- $r3
.LBB2_33:                               @   in Loop: Header=BB2_31 Depth=1
	@DEBUG_VALUE: qspi_transfer:req <- $r11
	@DEBUG_VALUE: qspi_transfer:qspi_id <- $r10
	@DEBUG_VALUE: qspi_transfer:still_required_bytes <- $r7
	@DEBUG_VALUE: qspi_transfer:read_ptr <- $r3
	@DEBUG_VALUE: qspi_transfer:read_ptr <- $r3
	@DEBUG_VALUE: qspi_transfer:still_required_bytes <- $r7
	.loc	3 493 9                         @ ../../../components/platform/soc/rt582/rt582_driver/Src/qspi.c:493:9
	cmp	r2, r7
	bne	.LBB2_31
.Ltmp128:
.LBB2_34:
	@DEBUG_VALUE: qspi_transfer:req <- $r11
	@DEBUG_VALUE: qspi_transfer:qspi_id <- $r10
	@DEBUG_VALUE: qspi_transfer:still_required_bytes <- $r7
	@DEBUG_VALUE: qspi_transfer:read_ptr <- $r3
	.loc	3 505 13                        @ ../../../components/platform/soc/rt582/rt582_driver/Src/qspi.c:505:13
	cbz	r2, .LBB2_40
.Ltmp129:
	.p2align	2
.LBB2_35:                               @ =>This Inner Loop Header: Depth=1
	@DEBUG_VALUE: qspi_transfer:req <- $r11
	@DEBUG_VALUE: qspi_transfer:qspi_id <- $r10
	@DEBUG_VALUE: qspi_transfer:still_required_bytes <- $r7
	@DEBUG_VALUE: qspi_transfer:read_ptr <- $r3
	.loc	3 508 28                        @ ../../../components/platform/soc/rt582/rt582_driver/Src/qspi.c:508:28
	ldr	r0, [r1]
	.loc	3 508 13 is_stmt 0              @ ../../../components/platform/soc/rt582/rt582_driver/Src/qspi.c:508:13
	lsls	r0, r0, #30
	bpl	.LBB2_35
.Ltmp130:
@ %bb.36:
	@DEBUG_VALUE: qspi_transfer:req <- $r11
	@DEBUG_VALUE: qspi_transfer:qspi_id <- $r10
	@DEBUG_VALUE: qspi_transfer:still_required_bytes <- $r7
	@DEBUG_VALUE: qspi_transfer:read_ptr <- $r3
	.loc	3 513 36 is_stmt 1              @ ../../../components/platform/soc/rt582/rt582_driver/Src/qspi.c:513:36
	ldrb.w	r0, [r11, #18]
	movs	r7, #36
.Ltmp131:
	.loc	3 513 73 is_stmt 0              @ ../../../components/platform/soc/rt582/rt582_driver/Src/qspi.c:513:73
	bfi	r0, r7, #2, #30
	mov.w	r7, #-2147483648
	.loc	3 514 19 is_stmt 1              @ ../../../components/platform/soc/rt582/rt582_driver/Src/qspi.c:514:19
	cmp.w	r10, #0
	mov.w	r6, #0
	.loc	3 513 28                        @ ../../../components/platform/soc/rt582/rt582_driver/Src/qspi.c:513:28
	str.w	r0, [lr]
	.loc	3 514 19                        @ ../../../components/platform/soc/rt582/rt582_driver/Src/qspi.c:514:19
	it	eq
	moveq.w	r7, #-1342177280
	.loc	3 514 32 is_stmt 0              @ ../../../components/platform/soc/rt582/rt582_driver/Src/qspi.c:514:32
	str	r6, [r7]
.Ltmp132:
	@DEBUG_VALUE: qspi_transfer:remain_len <- $r2
	@DEBUG_VALUE: qspi_transfer:read_ptr <- $r3
	.loc	3 0 32                          @ ../../../components/platform/soc/rt582/rt582_driver/Src/qspi.c:0:32
	cmp.w	r10, #0
	it	eq
	addeq.w	r5, r5, #805306368
	@DEBUG_VALUE: qspi_transfer:read_ptr <- $r3
	@DEBUG_VALUE: qspi_transfer:remain_len <- $r2
.Ltmp133:
	.p2align	2
.LBB2_37:                               @ =>This Inner Loop Header: Depth=1
	@DEBUG_VALUE: qspi_transfer:req <- $r11
	@DEBUG_VALUE: qspi_transfer:qspi_id <- $r10
	@DEBUG_VALUE: qspi_transfer:read_ptr <- $r3
	@DEBUG_VALUE: qspi_transfer:remain_len <- $r2
	.loc	3 518 30 is_stmt 1              @ ../../../components/platform/soc/rt582/rt582_driver/Src/qspi.c:518:30
	ldr	r0, [r1]
	.loc	3 518 17 is_stmt 0              @ ../../../components/platform/soc/rt582/rt582_driver/Src/qspi.c:518:17
	lsls	r0, r0, #26
	bmi	.LBB2_37
.Ltmp134:
@ %bb.38:                               @   in Loop: Header=BB2_37 Depth=1
	@DEBUG_VALUE: qspi_transfer:req <- $r11
	@DEBUG_VALUE: qspi_transfer:qspi_id <- $r10
	@DEBUG_VALUE: qspi_transfer:read_ptr <- $r3
	@DEBUG_VALUE: qspi_transfer:remain_len <- $r2
	.loc	3 521 37 is_stmt 1              @ ../../../components/platform/soc/rt582/rt582_driver/Src/qspi.c:521:37
	ldr	r0, [r5]
.Ltmp135:
	@DEBUG_VALUE: qspi_transfer:read_ptr <- [DW_OP_plus_uconst 1, DW_OP_stack_value] $r3
	.loc	3 522 27                        @ ../../../components/platform/soc/rt582/rt582_driver/Src/qspi.c:522:27
	subs	r2, #1
.Ltmp136:
	@DEBUG_VALUE: qspi_transfer:remain_len <- $r2
	.loc	3 521 29                        @ ../../../components/platform/soc/rt582/rt582_driver/Src/qspi.c:521:29
	strb	r0, [r3]
	.loc	3 523 21                        @ ../../../components/platform/soc/rt582/rt582_driver/Src/qspi.c:523:21
	beq	.LBB2_40
.Ltmp137:
@ %bb.39:                               @   in Loop: Header=BB2_37 Depth=1
	@DEBUG_VALUE: qspi_transfer:req <- $r11
	@DEBUG_VALUE: qspi_transfer:qspi_id <- $r10
	@DEBUG_VALUE: qspi_transfer:read_ptr <- [DW_OP_plus_uconst 1, DW_OP_stack_value] $r3
	@DEBUG_VALUE: qspi_transfer:remain_len <- $r2
	.loc	3 521 26                        @ ../../../components/platform/soc/rt582/rt582_driver/Src/qspi.c:521:26
	adds	r3, #1
.Ltmp138:
	@DEBUG_VALUE: qspi_transfer:read_ptr <- $r3
	.loc	3 525 40                        @ ../../../components/platform/soc/rt582/rt582_driver/Src/qspi.c:525:40
	str	r6, [r7]
	@DEBUG_VALUE: qspi_transfer:remain_len <- $r2
.Ltmp139:
	@DEBUG_VALUE: qspi_transfer:read_ptr <- [DW_OP_plus_uconst 1, DW_OP_stack_value] $r3
	@DEBUG_VALUE: qspi_transfer:read_ptr <- $r3
	@DEBUG_VALUE: qspi_transfer:remain_len <- $r2
	.loc	3 0 40 is_stmt 0                @ ../../../components/platform/soc/rt582/rt582_driver/Src/qspi.c:0:40
	b	.LBB2_37
.Ltmp140:
.LBB2_40:
	@DEBUG_VALUE: qspi_transfer:req <- $r11
	@DEBUG_VALUE: qspi_transfer:qspi_id <- $r10
	ldr.w	r0, [lr]
	bic	r0, r0, #128
	str.w	r0, [lr]
	bl	enter_critical_section
.Ltmp141:
	movs	r0, #1
	movs	r6, #0
	strh.w	r0, [r8]
.Ltmp142:
.LBB2_41:
	@DEBUG_VALUE: qspi_transfer:req <- $r11
	@DEBUG_VALUE: qspi_transfer:qspi_id <- $r10
	bl	leave_critical_section
.Ltmp143:
	.loc	3 535 1 is_stmt 1               @ ../../../components/platform/soc/rt582/rt582_driver/Src/qspi.c:535:1
	mov	r0, r6
	add	sp, #12
	pop.w	{r4, r5, r6, r7, r8, r9, r10, r11, pc}
.Ltmp144:
.Lfunc_end2:
	.size	qspi_transfer, .Lfunc_end2-qspi_transfer
	.cfi_endproc
	.cantunwind
	.fnend
                                        @ -- End function
	.section	.text.spi_transfer_pio,"ax",%progbits
	.hidden	spi_transfer_pio                @ -- Begin function spi_transfer_pio
	.globl	spi_transfer_pio
	.p2align	1
	.type	spi_transfer_pio,%function
	.code	16                              @ @spi_transfer_pio
	.thumb_func
spi_transfer_pio:
.Lfunc_begin3:
	.loc	3 598 0                         @ ../../../components/platform/soc/rt582/rt582_driver/Src/qspi.c:598:0
	.fnstart
	.cfi_startproc
@ %bb.0:
	@DEBUG_VALUE: spi_transfer_pio:qspi_id <- $r0
	@DEBUG_VALUE: spi_transfer_pio:req <- $r1
	.save	{r4, r5, r6, r7, r8, r9, r10, lr}
	push.w	{r4, r5, r6, r7, r8, r9, r10, lr}
	.cfi_def_cfa_offset 32
	.cfi_offset lr, -4
	.cfi_offset r10, -8
	.cfi_offset r9, -12
	.cfi_offset r8, -16
	.cfi_offset r7, -20
	.cfi_offset r6, -24
	.cfi_offset r5, -28
	.cfi_offset r4, -32
	mov	r4, r0
	@DEBUG_VALUE: spi_transfer_pio:req <- $r1
.Ltmp145:
	@DEBUG_VALUE: spi_transfer_pio:qspi_id <- $r4
	.loc	3 604 9 prologue_end            @ ../../../components/platform/soc/rt582/rt582_driver/Src/qspi.c:604:9
	cmp	r0, #1
	mov.w	r0, #1
	bhi.w	.LBB3_21
.Ltmp146:
@ %bb.1:
	@DEBUG_VALUE: spi_transfer_pio:qspi_id <- $r4
	@DEBUG_VALUE: spi_transfer_pio:req <- $r1
	.loc	3 0 9 is_stmt 0                 @ ../../../components/platform/soc/rt582/rt582_driver/Src/qspi.c:0:9
	mov	r5, r1
.Ltmp147:
	@DEBUG_VALUE: spi_transfer_pio:req <- $r5
	.loc	3 604 9                         @ ../../../components/platform/soc/rt582/rt582_driver/Src/qspi.c:604:9
	cmp	r1, #0
	beq.w	.LBB3_21
.Ltmp148:
@ %bb.2:
	@DEBUG_VALUE: spi_transfer_pio:req <- $r5
	@DEBUG_VALUE: spi_transfer_pio:qspi_id <- $r4
	.loc	3 611 33 is_stmt 1              @ ../../../components/platform/soc/rt582/rt582_driver/Src/qspi.c:611:33
	ldr	r0, [r5]
.Ltmp149:
	.loc	3 611 10 is_stmt 0              @ ../../../components/platform/soc/rt582/rt582_driver/Src/qspi.c:611:10
	cbz	r0, .LBB3_5
.Ltmp150:
@ %bb.3:
	@DEBUG_VALUE: spi_transfer_pio:req <- $r5
	@DEBUG_VALUE: spi_transfer_pio:qspi_id <- $r4
	.loc	3 618 14 is_stmt 1              @ ../../../components/platform/soc/rt582/rt582_driver/Src/qspi.c:618:14
	ldr	r1, [r5, #4]
	.loc	3 0 0 is_stmt 0                 @ ../../../components/platform/soc/rt582/rt582_driver/Src/qspi.c:0:0
	ldrh	r0, [r5, #8]
.Ltmp151:
	.loc	3 618 9                         @ ../../../components/platform/soc/rt582/rt582_driver/Src/qspi.c:618:9
	cbz	r1, .LBB3_6
.Ltmp152:
@ %bb.4:
	@DEBUG_VALUE: spi_transfer_pio:req <- $r5
	@DEBUG_VALUE: spi_transfer_pio:qspi_id <- $r4
	.loc	3 627 32 is_stmt 1              @ ../../../components/platform/soc/rt582/rt582_driver/Src/qspi.c:627:32
	subs	r0, #1
	cmp	r0, #30
	bls	.LBB3_7
.Ltmp153:
.LBB3_5:
	@DEBUG_VALUE: spi_transfer_pio:req <- $r5
	@DEBUG_VALUE: spi_transfer_pio:qspi_id <- $r4
	.loc	3 0 32 is_stmt 0                @ ../../../components/platform/soc/rt582/rt582_driver/Src/qspi.c:0:32
	movs	r0, #1
	.loc	3 715 1 is_stmt 1               @ ../../../components/platform/soc/rt582/rt582_driver/Src/qspi.c:715:1
	pop.w	{r4, r5, r6, r7, r8, r9, r10, pc}
.Ltmp154:
.LBB3_6:
	@DEBUG_VALUE: spi_transfer_pio:req <- $r5
	@DEBUG_VALUE: spi_transfer_pio:qspi_id <- $r4
	.loc	3 620 13                        @ ../../../components/platform/soc/rt582/rt582_driver/Src/qspi.c:620:13
	cmp	r0, #0
	beq	.LBB3_5
.Ltmp155:
.LBB3_7:
	@DEBUG_VALUE: spi_transfer_pio:req <- $r5
	@DEBUG_VALUE: spi_transfer_pio:qspi_id <- $r4
	.loc	3 633 5                         @ ../../../components/platform/soc/rt582/rt582_driver/Src/qspi.c:633:5
	bl	enter_critical_section
.Ltmp156:
	.loc	3 635 27                        @ ../../../components/platform/soc/rt582/rt582_driver/Src/qspi.c:635:27
	movw	r9, :lower16:qspi_cfg
	movt	r9, :upper16:qspi_cfg
	add.w	r10, r9, r4, lsl #3
	ldrh	r0, [r10, #4]!
.Ltmp157:
	.loc	3 635 9 is_stmt 0               @ ../../../components/platform/soc/rt582/rt582_driver/Src/qspi.c:635:9
	cmp	r0, #1
	bne	.LBB3_13
.Ltmp158:
@ %bb.8:
	@DEBUG_VALUE: spi_transfer_pio:req <- $r5
	@DEBUG_VALUE: spi_transfer_pio:qspi_id <- $r4
	.loc	3 0 9                           @ ../../../components/platform/soc/rt582/rt582_driver/Src/qspi.c:0:9
	movw	r8, #12
	movs	r7, #4
	movs	r0, #2
	movt	r8, #45056
	movt	r7, #32768
	.loc	3 641 34 is_stmt 1              @ ../../../components/platform/soc/rt582/rt582_driver/Src/qspi.c:641:34
	strh.w	r0, [r10]
	.loc	3 643 5                         @ ../../../components/platform/soc/rt582/rt582_driver/Src/qspi.c:643:5
	bl	leave_critical_section
.Ltmp159:
	@DEBUG_VALUE: spi_transfer_pio:QSPI <- undef
	.loc	3 661 15                        @ ../../../components/platform/soc/rt582/rt582_driver/Src/qspi.c:661:15
	add.w	r0, r7, #8
	cmp	r4, #0
	itt	eq
	moveq	r0, #12
	movteq	r0, #45056
	ldr	r0, [r0]
	mov.w	lr, #144
.Ltmp160:
	.loc	3 661 9 is_stmt 0               @ ../../../components/platform/soc/rt582/rt582_driver/Src/qspi.c:661:9
	lsls	r0, r0, #26
.Ltmp161:
	.loc	3 670 14 is_stmt 1              @ ../../../components/platform/soc/rt582/rt582_driver/Src/qspi.c:670:14
	ldr	r0, [r5, #4]
.Ltmp162:
	.loc	3 661 9                         @ ../../../components/platform/soc/rt582/rt582_driver/Src/qspi.c:661:9
	it	pl
	movpl.w	lr, #16
.Ltmp163:
	@DEBUG_VALUE: spi_transfer_pio:aux_reg <- $lr
	.loc	3 670 9                         @ ../../../components/platform/soc/rt582/rt582_driver/Src/qspi.c:670:9
	cmp	r0, #0
	.loc	3 675 11                        @ ../../../components/platform/soc/rt582/rt582_driver/Src/qspi.c:675:11
	add.w	r12, r7, #12
	.loc	3 670 9                         @ ../../../components/platform/soc/rt582/rt582_driver/Src/qspi.c:670:9
	it	eq
	addeq.w	lr, lr, #8
.Ltmp164:
	@DEBUG_VALUE: spi_transfer_pio:aux_reg <- $lr
	.loc	3 675 11                        @ ../../../components/platform/soc/rt582/rt582_driver/Src/qspi.c:675:11
	cmp	r4, #0
	it	eq
	addeq.w	r12, r8, #4
	.loc	3 675 20 is_stmt 0              @ ../../../components/platform/soc/rt582/rt582_driver/Src/qspi.c:675:20
	str.w	lr, [r12]
	.loc	3 680 19 is_stmt 1              @ ../../../components/platform/soc/rt582/rt582_driver/Src/qspi.c:680:19
	ldrh	r3, [r5, #8]
.Ltmp165:
	@DEBUG_VALUE: spi_transfer_pio:write_ptr <- undef
	@DEBUG_VALUE: spi_transfer_pio:length <- [DW_OP_LLVM_convert 16 7, DW_OP_LLVM_convert 32 7, DW_OP_stack_value] undef
	.loc	3 0 19 is_stmt 0                @ ../../../components/platform/soc/rt582/rt582_driver/Src/qspi.c:0:19
	movs	r1, #0
	.loc	3 678 37 is_stmt 1              @ ../../../components/platform/soc/rt582/rt582_driver/Src/qspi.c:678:37
	str.w	r1, [r9, r4, lsl #3]
	.loc	3 684 5                         @ ../../../components/platform/soc/rt582/rt582_driver/Src/qspi.c:684:5
	cbz	r3, .LBB3_14
.Ltmp166:
@ %bb.9:
	@DEBUG_VALUE: spi_transfer_pio:req <- $r5
	@DEBUG_VALUE: spi_transfer_pio:qspi_id <- $r4
	@DEBUG_VALUE: spi_transfer_pio:aux_reg <- $lr
	@DEBUG_VALUE: spi_transfer_pio:length <- $r3
	.loc	3 681 22                        @ ../../../components/platform/soc/rt582/rt582_driver/Src/qspi.c:681:22
	ldr	r5, [r5]
.Ltmp167:
	@DEBUG_VALUE: spi_transfer_pio:req <- [DW_OP_LLVM_entry_value 1] $r1
	@DEBUG_VALUE: spi_transfer_pio:write_ptr <- $r5
	.loc	3 0 22 is_stmt 0                @ ../../../components/platform/soc/rt582/rt582_driver/Src/qspi.c:0:22
	add.w	r1, r7, #16
	mov.w	r6, #-2147483648
	cmp	r4, #0
	it	eq
	addeq.w	r1, r8, #8
	it	eq
	moveq.w	r6, #-1342177280
.Ltmp168:
	.p2align	2
.LBB3_10:                               @ =>This Inner Loop Header: Depth=1
	@DEBUG_VALUE: spi_transfer_pio:write_ptr <- $r5
	@DEBUG_VALUE: spi_transfer_pio:qspi_id <- $r4
	@DEBUG_VALUE: spi_transfer_pio:length <- $r3
	@DEBUG_VALUE: spi_transfer_pio:aux_reg <- $lr
	@DEBUG_VALUE: spi_transfer_pio:req <- [DW_OP_LLVM_entry_value 1] $r1
	@DEBUG_VALUE: spi_transfer_pio:length <- $r3
	@DEBUG_VALUE: spi_transfer_pio:write_ptr <- $r5
	.loc	3 686 21 is_stmt 1              @ ../../../components/platform/soc/rt582/rt582_driver/Src/qspi.c:686:21
	ldr	r2, [r1]
.Ltmp169:
	.loc	3 686 13 is_stmt 0              @ ../../../components/platform/soc/rt582/rt582_driver/Src/qspi.c:686:13
	lsls	r2, r2, #27
	bmi	.LBB3_12
.Ltmp170:
@ %bb.11:                               @   in Loop: Header=BB3_10 Depth=1
	@DEBUG_VALUE: spi_transfer_pio:write_ptr <- $r5
	@DEBUG_VALUE: spi_transfer_pio:qspi_id <- $r4
	@DEBUG_VALUE: spi_transfer_pio:length <- $r3
	@DEBUG_VALUE: spi_transfer_pio:aux_reg <- $lr
	@DEBUG_VALUE: spi_transfer_pio:req <- [DW_OP_LLVM_entry_value 1] $r1
	.loc	3 688 34 is_stmt 1              @ ../../../components/platform/soc/rt582/rt582_driver/Src/qspi.c:688:34
	ldrb	r2, [r5], #1
.Ltmp171:
	@DEBUG_VALUE: spi_transfer_pio:write_ptr <- $r5
	.loc	3 690 19                        @ ../../../components/platform/soc/rt582/rt582_driver/Src/qspi.c:690:19
	subs	r3, #1
.Ltmp172:
	@DEBUG_VALUE: spi_transfer_pio:length <- $r3
	.loc	3 688 32                        @ ../../../components/platform/soc/rt582/rt582_driver/Src/qspi.c:688:32
	str	r2, [r6]
.Ltmp173:
.LBB3_12:                               @   in Loop: Header=BB3_10 Depth=1
	@DEBUG_VALUE: spi_transfer_pio:write_ptr <- $r5
	@DEBUG_VALUE: spi_transfer_pio:qspi_id <- $r4
	@DEBUG_VALUE: spi_transfer_pio:length <- $r3
	@DEBUG_VALUE: spi_transfer_pio:aux_reg <- $lr
	@DEBUG_VALUE: spi_transfer_pio:req <- [DW_OP_LLVM_entry_value 1] $r1
	@DEBUG_VALUE: spi_transfer_pio:length <- $r3
	@DEBUG_VALUE: spi_transfer_pio:write_ptr <- $r5
	.loc	3 684 5                         @ ../../../components/platform/soc/rt582/rt582_driver/Src/qspi.c:684:5
	cmp	r3, #0
	bne	.LBB3_10
	b	.LBB3_15
.Ltmp174:
.LBB3_13:
	@DEBUG_VALUE: spi_transfer_pio:req <- $r5
	@DEBUG_VALUE: spi_transfer_pio:qspi_id <- $r4
	.loc	3 637 9                         @ ../../../components/platform/soc/rt582/rt582_driver/Src/qspi.c:637:9
	bl	leave_critical_section
.Ltmp175:
	.loc	3 0 9 is_stmt 0                 @ ../../../components/platform/soc/rt582/rt582_driver/Src/qspi.c:0:9
	movs	r0, #2
.Ltmp176:
	.loc	3 715 1 is_stmt 1               @ ../../../components/platform/soc/rt582/rt582_driver/Src/qspi.c:715:1
	pop.w	{r4, r5, r6, r7, r8, r9, r10, pc}
.Ltmp177:
.LBB3_14:
	@DEBUG_VALUE: spi_transfer_pio:req <- $r5
	@DEBUG_VALUE: spi_transfer_pio:qspi_id <- $r4
	@DEBUG_VALUE: spi_transfer_pio:aux_reg <- $lr
	.loc	3 0 1 is_stmt 0                 @ ../../../components/platform/soc/rt582/rt582_driver/Src/qspi.c:0:1
	add.w	r1, r7, #16
	cmp	r4, #0
	it	eq
	addeq.w	r1, r8, #8
.Ltmp178:
	.p2align	2
.LBB3_15:                               @ =>This Inner Loop Header: Depth=1
	@DEBUG_VALUE: spi_transfer_pio:qspi_id <- $r4
	@DEBUG_VALUE: spi_transfer_pio:aux_reg <- $lr
	.loc	3 694 20 is_stmt 1              @ ../../../components/platform/soc/rt582/rt582_driver/Src/qspi.c:694:20
	ldr	r2, [r1]
	.loc	3 694 5 is_stmt 0               @ ../../../components/platform/soc/rt582/rt582_driver/Src/qspi.c:694:5
	lsls	r2, r2, #30
	bpl	.LBB3_15
.Ltmp179:
@ %bb.16:
	@DEBUG_VALUE: spi_transfer_pio:qspi_id <- $r4
	@DEBUG_VALUE: spi_transfer_pio:aux_reg <- $lr
	.loc	3 698 23 is_stmt 1              @ ../../../components/platform/soc/rt582/rt582_driver/Src/qspi.c:698:23
	and	r2, lr, #24
.Ltmp180:
	@DEBUG_VALUE: spi_transfer_pio:aux_reg <- $r2
	.loc	3 699 20                        @ ../../../components/platform/soc/rt582/rt582_driver/Src/qspi.c:699:20
	str.w	r2, [r12]
	.loc	3 701 9                         @ ../../../components/platform/soc/rt582/rt582_driver/Src/qspi.c:701:9
	cbz	r0, .LBB3_20
.Ltmp181:
@ %bb.17:
	@DEBUG_VALUE: spi_transfer_pio:qspi_id <- $r4
	@DEBUG_VALUE: spi_transfer_pio:aux_reg <- $r2
	@DEBUG_VALUE: spi_transfer_pio:read_ptr <- $r0
	.loc	3 705 24                        @ ../../../components/platform/soc/rt582/rt582_driver/Src/qspi.c:705:24
	ldr	r2, [r1]
.Ltmp182:
	.loc	3 705 9 is_stmt 0               @ ../../../components/platform/soc/rt582/rt582_driver/Src/qspi.c:705:9
	lsls	r2, r2, #26
	bmi	.LBB3_20
.Ltmp183:
@ %bb.18:
	@DEBUG_VALUE: spi_transfer_pio:qspi_id <- $r4
	@DEBUG_VALUE: spi_transfer_pio:read_ptr <- $r0
	.loc	3 0 9                           @ ../../../components/platform/soc/rt582/rt582_driver/Src/qspi.c:0:9
	cmp	r4, #0
	it	eq
	addeq.w	r7, r7, #805306368
.Ltmp184:
	.p2align	2
.LBB3_19:                               @ =>This Inner Loop Header: Depth=1
	@DEBUG_VALUE: spi_transfer_pio:qspi_id <- $r4
	@DEBUG_VALUE: spi_transfer_pio:read_ptr <- $r0
	@DEBUG_VALUE: spi_transfer_pio:read_ptr <- $r0
	.loc	3 707 33 is_stmt 1              @ ../../../components/platform/soc/rt582/rt582_driver/Src/qspi.c:707:33
	ldr	r2, [r7]
	.loc	3 707 25 is_stmt 0              @ ../../../components/platform/soc/rt582/rt582_driver/Src/qspi.c:707:25
	strb	r2, [r0], #1
.Ltmp185:
	@DEBUG_VALUE: spi_transfer_pio:read_ptr <- $r0
	.loc	3 705 24 is_stmt 1              @ ../../../components/platform/soc/rt582/rt582_driver/Src/qspi.c:705:24
	ldr	r2, [r1]
	.loc	3 705 9 is_stmt 0               @ ../../../components/platform/soc/rt582/rt582_driver/Src/qspi.c:705:9
	lsls	r2, r2, #26
	bpl	.LBB3_19
.Ltmp186:
.LBB3_20:
	@DEBUG_VALUE: spi_transfer_pio:qspi_id <- $r4
	.loc	3 0 9                           @ ../../../components/platform/soc/rt582/rt582_driver/Src/qspi.c:0:9
	movs	r0, #1
	.loc	3 712 34 is_stmt 1              @ ../../../components/platform/soc/rt582/rt582_driver/Src/qspi.c:712:34
	strh.w	r0, [r10]
	movs	r0, #0
.Ltmp187:
.LBB3_21:
	@DEBUG_VALUE: spi_transfer_pio:qspi_id <- $r4
	.loc	3 715 1                         @ ../../../components/platform/soc/rt582/rt582_driver/Src/qspi.c:715:1
	pop.w	{r4, r5, r6, r7, r8, r9, r10, pc}
.Ltmp188:
.Lfunc_end3:
	.size	spi_transfer_pio, .Lfunc_end3-spi_transfer_pio
	.cfi_endproc
	.cantunwind
	.fnend
                                        @ -- End function
	.section	.text.qspi_write_dma,"ax",%progbits
	.hidden	qspi_write_dma                  @ -- Begin function qspi_write_dma
	.globl	qspi_write_dma
	.p2align	1
	.type	qspi_write_dma,%function
	.code	16                              @ @qspi_write_dma
	.thumb_func
qspi_write_dma:
.Lfunc_begin4:
	.loc	3 727 0                         @ ../../../components/platform/soc/rt582/rt582_driver/Src/qspi.c:727:0
	.fnstart
	.cfi_startproc
@ %bb.0:
	@DEBUG_VALUE: qspi_write_dma:qspi_id <- $r0
	@DEBUG_VALUE: qspi_write_dma:req <- $r1
	@DEBUG_VALUE: qspi_write_dma:finish_proc_cb <- $r2
	.save	{r4, r5, r6, lr}
	push	{r4, r5, r6, lr}
	.cfi_def_cfa_offset 16
	.cfi_offset lr, -4
	.cfi_offset r6, -8
	.cfi_offset r5, -12
	.cfi_offset r4, -16
	mov	r5, r2
.Ltmp189:
	@DEBUG_VALUE: qspi_write_dma:finish_proc_cb <- $r5
	mov	r6, r1
	mov	r4, r0
	@DEBUG_VALUE: qspi_write_dma:finish_proc_cb <- $r5
.Ltmp190:
	@DEBUG_VALUE: qspi_write_dma:req <- $r6
	@DEBUG_VALUE: qspi_write_dma:qspi_id <- $r4
	.loc	3 757 11 prologue_end           @ ../../../components/platform/soc/rt582/rt582_driver/Src/qspi.c:757:11
	bl	qspi_tranfer_command
.Ltmp191:
	@DEBUG_VALUE: qspi_write_dma:ret <- $r0
	.loc	3 759 9                         @ ../../../components/platform/soc/rt582/rt582_driver/Src/qspi.c:759:9
	cbz	r0, .LBB4_2
.Ltmp192:
@ %bb.1:
	@DEBUG_VALUE: qspi_write_dma:req <- $r6
	@DEBUG_VALUE: qspi_write_dma:finish_proc_cb <- $r5
	@DEBUG_VALUE: qspi_write_dma:qspi_id <- $r4
	@DEBUG_VALUE: qspi_write_dma:ret <- $r0
	.loc	3 809 1                         @ ../../../components/platform/soc/rt582/rt582_driver/Src/qspi.c:809:1
	pop	{r4, r5, r6, pc}
.Ltmp193:
.LBB4_2:
	@DEBUG_VALUE: qspi_write_dma:req <- $r6
	@DEBUG_VALUE: qspi_write_dma:finish_proc_cb <- $r5
	@DEBUG_VALUE: qspi_write_dma:qspi_id <- $r4
	@DEBUG_VALUE: qspi_write_dma:ret <- $r0
	.loc	3 0 1 is_stmt 0                 @ ../../../components/platform/soc/rt582/rt582_driver/Src/qspi.c:0:1
	movs	r1, #16
	movt	r1, #32768
.Ltmp194:
	@DEBUG_VALUE: qspi_write_dma:QSPI <- undef
	.loc	3 774 42 is_stmt 1              @ ../../../components/platform/soc/rt582/rt582_driver/Src/qspi.c:774:42
	ldr	r2, [r6, #4]
	movw	r12, #20
	.loc	3 774 11 is_stmt 0              @ ../../../components/platform/soc/rt582/rt582_driver/Src/qspi.c:774:11
	add.w	r3, r1, #88
	movt	r12, #45056
	cmp	r4, #0
	it	eq
	addeq.w	r3, r12, #84
	.loc	3 774 23                        @ ../../../components/platform/soc/rt582/rt582_driver/Src/qspi.c:774:23
	str	r2, [r3]
	.loc	3 775 29 is_stmt 1              @ ../../../components/platform/soc/rt582/rt582_driver/Src/qspi.c:775:29
	ldrh	r2, [r6, #14]
	.loc	3 775 11 is_stmt 0              @ ../../../components/platform/soc/rt582/rt582_driver/Src/qspi.c:775:11
	add.w	r3, r1, #92
	cmp	r4, #0
	it	eq
	addeq.w	r3, r12, #88
	.loc	3 775 22                        @ ../../../components/platform/soc/rt582/rt582_driver/Src/qspi.c:775:22
	str	r2, [r3]
	add.w	r3, r1, #4
	itt	eq
	moveq	r3, #20
	movteq	r3, #45056
.Ltmp195:
	.p2align	2
.LBB4_3:                                @ =>This Inner Loop Header: Depth=1
	@DEBUG_VALUE: qspi_write_dma:req <- $r6
	@DEBUG_VALUE: qspi_write_dma:finish_proc_cb <- $r5
	@DEBUG_VALUE: qspi_write_dma:qspi_id <- $r4
	.loc	3 779 20 is_stmt 1              @ ../../../components/platform/soc/rt582/rt582_driver/Src/qspi.c:779:20
	ldr	r0, [r3]
	.loc	3 779 5 is_stmt 0               @ ../../../components/platform/soc/rt582/rt582_driver/Src/qspi.c:779:5
	lsls	r0, r0, #30
	bpl	.LBB4_3
.Ltmp196:
@ %bb.4:
	@DEBUG_VALUE: qspi_write_dma:req <- $r6
	@DEBUG_VALUE: qspi_write_dma:finish_proc_cb <- $r5
	@DEBUG_VALUE: qspi_write_dma:qspi_id <- $r4
	.loc	3 0 0                           @ ../../../components/platform/soc/rt582/rt582_driver/Src/qspi.c:0:0
	ldrb	r0, [r6, #18]
.Ltmp197:
	.loc	3 782 9 is_stmt 1               @ ../../../components/platform/soc/rt582/rt582_driver/Src/qspi.c:782:9
	lsls	r2, r2, #30
	mov.w	r2, #152
.Ltmp198:
	.loc	3 0 0 is_stmt 0                 @ ../../../components/platform/soc/rt582/rt582_driver/Src/qspi.c:0:0
	and	r0, r0, #3
.Ltmp199:
	.loc	3 782 9                         @ ../../../components/platform/soc/rt582/rt582_driver/Src/qspi.c:782:9
	it	eq
	moveq	r2, #248
.Ltmp200:
	.loc	3 0 0                           @ ../../../components/platform/soc/rt582/rt582_driver/Src/qspi.c:0:0
	add	r0, r2
	mov	r2, r1
	cmp	r4, #0
	it	eq
	addeq.w	r2, r2, #805306368
	str	r0, [r2]
.Ltmp201:
	.loc	3 792 23 is_stmt 1              @ ../../../components/platform/soc/rt582/rt582_driver/Src/qspi.c:792:23
	movw	r0, :lower16:qspi_cfg
	movt	r0, :upper16:qspi_cfg
	.loc	3 792 37 is_stmt 0              @ ../../../components/platform/soc/rt582/rt582_driver/Src/qspi.c:792:37
	str.w	r5, [r0, r4, lsl #3]
	.loc	3 800 11 is_stmt 1              @ ../../../components/platform/soc/rt582/rt582_driver/Src/qspi.c:800:11
	add.w	r0, r1, #24
	cmp	r4, #0
	it	eq
	addeq.w	r0, r12, #20
	movs	r2, #255
	.loc	3 800 24 is_stmt 0              @ ../../../components/platform/soc/rt582/rt582_driver/Src/qspi.c:800:24
	str	r2, [r0]
	.loc	3 803 11 is_stmt 1              @ ../../../components/platform/soc/rt582/rt582_driver/Src/qspi.c:803:11
	add.w	r0, r1, #16
	cmp	r4, #0
	it	eq
	addeq.w	r0, r12, #12
	movs	r2, #16
	.loc	3 803 23 is_stmt 0              @ ../../../components/platform/soc/rt582/rt582_driver/Src/qspi.c:803:23
	str	r2, [r0]
	.loc	3 806 11 is_stmt 1              @ ../../../components/platform/soc/rt582/rt582_driver/Src/qspi.c:806:11
	add.w	r0, r1, #116
	cmp	r4, #0
	it	eq
	addeq.w	r0, r12, #112
	movs	r1, #1
	.loc	3 806 25 is_stmt 0              @ ../../../components/platform/soc/rt582/rt582_driver/Src/qspi.c:806:25
	str	r1, [r0]
	movs	r0, #0
	.loc	3 809 1 is_stmt 1               @ ../../../components/platform/soc/rt582/rt582_driver/Src/qspi.c:809:1
	pop	{r4, r5, r6, pc}
.Ltmp202:
.Lfunc_end4:
	.size	qspi_write_dma, .Lfunc_end4-qspi_write_dma
	.cfi_endproc
	.cantunwind
	.fnend
                                        @ -- End function
	.section	.text.qspi_tranfer_command,"ax",%progbits
	.p2align	1                               @ -- Begin function qspi_tranfer_command
	.type	qspi_tranfer_command,%function
	.code	16                              @ @qspi_tranfer_command
	.thumb_func
qspi_tranfer_command:
.Lfunc_begin5:
	.loc	3 540 0                         @ ../../../components/platform/soc/rt582/rt582_driver/Src/qspi.c:540:0
	.fnstart
	.cfi_startproc
@ %bb.0:
	@DEBUG_VALUE: qspi_tranfer_command:qspi_id <- $r0
	@DEBUG_VALUE: qspi_tranfer_command:req <- $r1
	.save	{r4, r5, r6, lr}
	push	{r4, r5, r6, lr}
	.cfi_def_cfa_offset 16
	.cfi_offset lr, -4
	.cfi_offset r6, -8
	.cfi_offset r5, -12
	.cfi_offset r4, -16
	mov	r5, r1
.Ltmp203:
	@DEBUG_VALUE: qspi_tranfer_command:req <- $r5
	mov	r4, r0
.Ltmp204:
	@DEBUG_VALUE: qspi_tranfer_command:qspi_id <- $r4
	@DEBUG_VALUE: qspi_tranfer_command:req <- $r5
	@DEBUG_VALUE: qspi_tranfer_command:qspi_id <- $r4
	.loc	3 545 5 prologue_end            @ ../../../components/platform/soc/rt582/rt582_driver/Src/qspi.c:545:5
	bl	enter_critical_section
.Ltmp205:
	.loc	3 547 27                        @ ../../../components/platform/soc/rt582/rt582_driver/Src/qspi.c:547:27
	movw	r0, :lower16:qspi_cfg
	movt	r0, :upper16:qspi_cfg
	add.w	r0, r0, r4, lsl #3
	ldrh	r1, [r0, #4]!
.Ltmp206:
	.loc	3 547 9 is_stmt 0               @ ../../../components/platform/soc/rt582/rt582_driver/Src/qspi.c:547:9
	cmp	r1, #1
	bne	.LBB5_7
.Ltmp207:
@ %bb.1:
	@DEBUG_VALUE: qspi_tranfer_command:req <- $r5
	@DEBUG_VALUE: qspi_tranfer_command:qspi_id <- $r4
	.loc	3 0 9                           @ ../../../components/platform/soc/rt582/rt582_driver/Src/qspi.c:0:9
	movs	r6, #16
	movs	r1, #8
	movt	r6, #32768
	.loc	3 553 34 is_stmt 1              @ ../../../components/platform/soc/rt582/rt582_driver/Src/qspi.c:553:34
	strh	r1, [r0]
	.loc	3 555 5                         @ ../../../components/platform/soc/rt582/rt582_driver/Src/qspi.c:555:5
	bl	leave_critical_section
.Ltmp208:
	@DEBUG_VALUE: qspi_tranfer_command:QSPI <- undef
	.loc	3 571 11                        @ ../../../components/platform/soc/rt582/rt582_driver/Src/qspi.c:571:11
	mov	r0, r6
	movs	r1, #152
	cmp	r4, #0
	it	eq
	addeq.w	r0, r0, #805306368
	.loc	3 571 20 is_stmt 0              @ ../../../components/platform/soc/rt582/rt582_driver/Src/qspi.c:571:20
	str	r1, [r0]
.Ltmp209:
	@DEBUG_VALUE: qspi_tranfer_command:qspi_req <- [DW_OP_LLVM_fragment 0 32] undef
	.loc	3 573 16 is_stmt 1              @ ../../../components/platform/soc/rt582/rt582_driver/Src/qspi.c:573:16
	ldrh	r0, [r5, #12]
.Ltmp210:
	@DEBUG_VALUE: qspi_tranfer_command:cmd_ptr <- undef
	@DEBUG_VALUE: qspi_tranfer_command:qspi_req <- [DW_OP_LLVM_fragment 96 16] undef
	.loc	3 578 5                         @ ../../../components/platform/soc/rt582/rt582_driver/Src/qspi.c:578:5
	cbz	r0, .LBB5_6
.Ltmp211:
@ %bb.2:
	@DEBUG_VALUE: qspi_tranfer_command:req <- $r5
	@DEBUG_VALUE: qspi_tranfer_command:qspi_id <- $r4
	.loc	3 573 16                        @ ../../../components/platform/soc/rt582/rt582_driver/Src/qspi.c:573:16
	ldr	r1, [r5]
.Ltmp212:
	@DEBUG_VALUE: qspi_tranfer_command:cmd_ptr <- $r1
	@DEBUG_VALUE: qspi_tranfer_command:qspi_req <- [DW_OP_LLVM_fragment 0 32] $r1
	.loc	3 0 16 is_stmt 0                @ ../../../components/platform/soc/rt582/rt582_driver/Src/qspi.c:0:16
	adds	r2, r6, #4
	mov.w	r3, #-2147483648
	cmp	r4, #0
	itt	eq
	moveq	r2, #20
	movteq	r2, #45056
	it	eq
	moveq.w	r3, #-1342177280
.Ltmp213:
	.p2align	2
.LBB5_3:                                @ =>This Inner Loop Header: Depth=1
	@DEBUG_VALUE: qspi_tranfer_command:req <- $r5
	@DEBUG_VALUE: qspi_tranfer_command:qspi_id <- $r4
	@DEBUG_VALUE: qspi_tranfer_command:cmd_ptr <- $r1
	@DEBUG_VALUE: qspi_tranfer_command:qspi_req <- [DW_OP_LLVM_fragment 96 16] $r0
	@DEBUG_VALUE: qspi_tranfer_command:cmd_ptr <- $r1
	.loc	3 580 21 is_stmt 1              @ ../../../components/platform/soc/rt582/rt582_driver/Src/qspi.c:580:21
	ldr	r6, [r2]
.Ltmp214:
	.loc	3 580 13 is_stmt 0              @ ../../../components/platform/soc/rt582/rt582_driver/Src/qspi.c:580:13
	lsls	r6, r6, #27
	bmi	.LBB5_5
.Ltmp215:
@ %bb.4:                                @   in Loop: Header=BB5_3 Depth=1
	@DEBUG_VALUE: qspi_tranfer_command:req <- $r5
	@DEBUG_VALUE: qspi_tranfer_command:qspi_id <- $r4
	@DEBUG_VALUE: qspi_tranfer_command:cmd_ptr <- $r1
	@DEBUG_VALUE: qspi_tranfer_command:qspi_req <- [DW_OP_LLVM_fragment 96 16] $r0
	.loc	3 582 34 is_stmt 1              @ ../../../components/platform/soc/rt582/rt582_driver/Src/qspi.c:582:34
	ldrb	r6, [r1], #1
.Ltmp216:
	@DEBUG_VALUE: qspi_tranfer_command:cmd_ptr <- $r1
	.loc	3 584 32                        @ ../../../components/platform/soc/rt582/rt582_driver/Src/qspi.c:584:32
	subs	r0, #1
.Ltmp217:
	@DEBUG_VALUE: qspi_tranfer_command:qspi_req <- [DW_OP_LLVM_fragment 96 16] $r0
	.loc	3 582 32                        @ ../../../components/platform/soc/rt582/rt582_driver/Src/qspi.c:582:32
	str	r6, [r3]
.Ltmp218:
.LBB5_5:                                @   in Loop: Header=BB5_3 Depth=1
	@DEBUG_VALUE: qspi_tranfer_command:req <- $r5
	@DEBUG_VALUE: qspi_tranfer_command:qspi_id <- $r4
	@DEBUG_VALUE: qspi_tranfer_command:cmd_ptr <- $r1
	@DEBUG_VALUE: qspi_tranfer_command:qspi_req <- [DW_OP_LLVM_fragment 96 16] $r0
	@DEBUG_VALUE: qspi_tranfer_command:qspi_req <- [DW_OP_LLVM_fragment 96 16] $r0
	@DEBUG_VALUE: qspi_tranfer_command:cmd_ptr <- $r1
	.loc	3 578 5                         @ ../../../components/platform/soc/rt582/rt582_driver/Src/qspi.c:578:5
	lsls	r6, r0, #16
	bne	.LBB5_3
.Ltmp219:
.LBB5_6:
	@DEBUG_VALUE: qspi_tranfer_command:req <- $r5
	@DEBUG_VALUE: qspi_tranfer_command:qspi_id <- $r4
	.loc	3 0 5 is_stmt 0                 @ ../../../components/platform/soc/rt582/rt582_driver/Src/qspi.c:0:5
	movs	r0, #0
	.loc	3 592 1 is_stmt 1               @ ../../../components/platform/soc/rt582/rt582_driver/Src/qspi.c:592:1
	pop	{r4, r5, r6, pc}
.Ltmp220:
.LBB5_7:
	@DEBUG_VALUE: qspi_tranfer_command:req <- $r5
	@DEBUG_VALUE: qspi_tranfer_command:qspi_id <- $r4
	.loc	3 549 9                         @ ../../../components/platform/soc/rt582/rt582_driver/Src/qspi.c:549:9
	bl	leave_critical_section
.Ltmp221:
	.loc	3 0 9 is_stmt 0                 @ ../../../components/platform/soc/rt582/rt582_driver/Src/qspi.c:0:9
	movs	r0, #2
.Ltmp222:
	.loc	3 592 1 is_stmt 1               @ ../../../components/platform/soc/rt582/rt582_driver/Src/qspi.c:592:1
	pop	{r4, r5, r6, pc}
.Ltmp223:
.Lfunc_end5:
	.size	qspi_tranfer_command, .Lfunc_end5-qspi_tranfer_command
	.cfi_endproc
	.cantunwind
	.fnend
                                        @ -- End function
	.section	.text.qspi_read_dma,"ax",%progbits
	.hidden	qspi_read_dma                   @ -- Begin function qspi_read_dma
	.globl	qspi_read_dma
	.p2align	1
	.type	qspi_read_dma,%function
	.code	16                              @ @qspi_read_dma
	.thumb_func
qspi_read_dma:
.Lfunc_begin6:
	.loc	3 820 0                         @ ../../../components/platform/soc/rt582/rt582_driver/Src/qspi.c:820:0
	.fnstart
	.cfi_startproc
@ %bb.0:
	@DEBUG_VALUE: qspi_read_dma:qspi_id <- $r0
	@DEBUG_VALUE: qspi_read_dma:req <- $r1
	@DEBUG_VALUE: qspi_read_dma:finish_proc_cb <- $r2
	.save	{r4, r5, r6, lr}
	push	{r4, r5, r6, lr}
	.cfi_def_cfa_offset 16
	.cfi_offset lr, -4
	.cfi_offset r6, -8
	.cfi_offset r5, -12
	.cfi_offset r4, -16
	mov	r5, r2
.Ltmp224:
	@DEBUG_VALUE: qspi_read_dma:finish_proc_cb <- $r5
	mov	r6, r1
	mov	r4, r0
	@DEBUG_VALUE: qspi_read_dma:finish_proc_cb <- $r5
.Ltmp225:
	@DEBUG_VALUE: qspi_read_dma:req <- $r6
	@DEBUG_VALUE: qspi_read_dma:qspi_id <- $r4
	.loc	3 847 11 prologue_end           @ ../../../components/platform/soc/rt582/rt582_driver/Src/qspi.c:847:11
	bl	qspi_tranfer_command
.Ltmp226:
	@DEBUG_VALUE: qspi_read_dma:ret <- $r0
	.loc	3 848 9                         @ ../../../components/platform/soc/rt582/rt582_driver/Src/qspi.c:848:9
	cbz	r0, .LBB6_2
.Ltmp227:
@ %bb.1:
	@DEBUG_VALUE: qspi_read_dma:req <- $r6
	@DEBUG_VALUE: qspi_read_dma:finish_proc_cb <- $r5
	@DEBUG_VALUE: qspi_read_dma:qspi_id <- $r4
	@DEBUG_VALUE: qspi_read_dma:ret <- $r0
	.loc	3 904 1                         @ ../../../components/platform/soc/rt582/rt582_driver/Src/qspi.c:904:1
	pop	{r4, r5, r6, pc}
.Ltmp228:
.LBB6_2:
	@DEBUG_VALUE: qspi_read_dma:req <- $r6
	@DEBUG_VALUE: qspi_read_dma:finish_proc_cb <- $r5
	@DEBUG_VALUE: qspi_read_dma:qspi_id <- $r4
	@DEBUG_VALUE: qspi_read_dma:ret <- $r0
	.loc	3 857 23                        @ ../../../components/platform/soc/rt582/rt582_driver/Src/qspi.c:857:23
	movw	r12, :lower16:qspi_cfg
	movt	r12, :upper16:qspi_cfg
	movs	r1, #16
	add.w	r2, r12, r4, lsl #3
	movs	r3, #16
	movt	r1, #32768
	.loc	3 857 34 is_stmt 0              @ ../../../components/platform/soc/rt582/rt582_driver/Src/qspi.c:857:34
	strh	r3, [r2, #4]
.Ltmp229:
	@DEBUG_VALUE: qspi_read_dma:QSPI <- undef
	.loc	3 871 42 is_stmt 1              @ ../../../components/platform/soc/rt582/rt582_driver/Src/qspi.c:871:42
	ldr	r2, [r6, #8]
	movw	lr, #20
	.loc	3 871 11 is_stmt 0              @ ../../../components/platform/soc/rt582/rt582_driver/Src/qspi.c:871:11
	add.w	r3, r1, #80
	movt	lr, #45056
	cmp	r4, #0
	it	eq
	addeq.w	r3, lr, #76
	.loc	3 871 23                        @ ../../../components/platform/soc/rt582/rt582_driver/Src/qspi.c:871:23
	str	r2, [r3]
	.loc	3 872 29 is_stmt 1              @ ../../../components/platform/soc/rt582/rt582_driver/Src/qspi.c:872:29
	ldrh	r3, [r6, #16]
	.loc	3 872 11 is_stmt 0              @ ../../../components/platform/soc/rt582/rt582_driver/Src/qspi.c:872:11
	add.w	r2, r1, #84
	cmp	r4, #0
	it	eq
	addeq.w	r2, lr, #80
	.loc	3 872 22                        @ ../../../components/platform/soc/rt582/rt582_driver/Src/qspi.c:872:22
	str	r3, [r2]
	add.w	r2, r1, #4
	itt	eq
	moveq	r2, #20
	movteq	r2, #45056
.Ltmp230:
	.p2align	2
.LBB6_3:                                @ =>This Inner Loop Header: Depth=1
	@DEBUG_VALUE: qspi_read_dma:req <- $r6
	@DEBUG_VALUE: qspi_read_dma:finish_proc_cb <- $r5
	@DEBUG_VALUE: qspi_read_dma:qspi_id <- $r4
	.loc	3 876 20 is_stmt 1              @ ../../../components/platform/soc/rt582/rt582_driver/Src/qspi.c:876:20
	ldr	r0, [r2]
	.loc	3 876 5 is_stmt 0               @ ../../../components/platform/soc/rt582/rt582_driver/Src/qspi.c:876:5
	lsls	r0, r0, #30
	bpl	.LBB6_3
.Ltmp231:
@ %bb.4:
	@DEBUG_VALUE: qspi_read_dma:req <- $r6
	@DEBUG_VALUE: qspi_read_dma:finish_proc_cb <- $r5
	@DEBUG_VALUE: qspi_read_dma:qspi_id <- $r4
	.loc	3 0 0                           @ ../../../components/platform/soc/rt582/rt582_driver/Src/qspi.c:0:0
	ldrb	r0, [r6, #18]
.Ltmp232:
	.loc	3 879 9 is_stmt 1               @ ../../../components/platform/soc/rt582/rt582_driver/Src/qspi.c:879:9
	lsls	r2, r3, #30
	mov.w	r2, #144
.Ltmp233:
	.loc	3 0 0 is_stmt 0                 @ ../../../components/platform/soc/rt582/rt582_driver/Src/qspi.c:0:0
	and	r0, r0, #3
.Ltmp234:
	.loc	3 879 9                         @ ../../../components/platform/soc/rt582/rt582_driver/Src/qspi.c:879:9
	it	eq
	moveq	r2, #240
.Ltmp235:
	.loc	3 0 0                           @ ../../../components/platform/soc/rt582/rt582_driver/Src/qspi.c:0:0
	add	r0, r2
	mov	r2, r1
	cmp	r4, #0
	it	eq
	addeq.w	r2, r2, #805306368
	str	r0, [r2]
.Ltmp236:
	.loc	3 892 11 is_stmt 1              @ ../../../components/platform/soc/rt582/rt582_driver/Src/qspi.c:892:11
	add.w	r0, r1, #24
	.loc	3 889 37                        @ ../../../components/platform/soc/rt582/rt582_driver/Src/qspi.c:889:37
	str.w	r5, [r12, r4, lsl #3]
	.loc	3 892 11                        @ ../../../components/platform/soc/rt582/rt582_driver/Src/qspi.c:892:11
	cmp	r4, #0
	it	eq
	addeq.w	r0, lr, #20
	movs	r2, #255
	.loc	3 892 24 is_stmt 0              @ ../../../components/platform/soc/rt582/rt582_driver/Src/qspi.c:892:24
	str	r2, [r0]
	.loc	3 901 11 is_stmt 1              @ ../../../components/platform/soc/rt582/rt582_driver/Src/qspi.c:901:11
	add.w	r0, r1, #112
	cmp	r4, #0
	it	eq
	addeq.w	r0, lr, #108
	movs	r1, #3
	.loc	3 901 25 is_stmt 0              @ ../../../components/platform/soc/rt582/rt582_driver/Src/qspi.c:901:25
	str	r1, [r0]
	movs	r0, #0
	.loc	3 904 1 is_stmt 1               @ ../../../components/platform/soc/rt582/rt582_driver/Src/qspi.c:904:1
	pop	{r4, r5, r6, pc}
.Ltmp237:
.Lfunc_end6:
	.size	qspi_read_dma, .Lfunc_end6-qspi_read_dma
	.cfi_endproc
	.cantunwind
	.fnend
                                        @ -- End function
	.section	.text.spi_transfer,"ax",%progbits
	.hidden	spi_transfer                    @ -- Begin function spi_transfer
	.globl	spi_transfer
	.p2align	1
	.type	spi_transfer,%function
	.code	16                              @ @spi_transfer
	.thumb_func
spi_transfer:
.Lfunc_begin7:
	.loc	3 910 0                         @ ../../../components/platform/soc/rt582/rt582_driver/Src/qspi.c:910:0
	.fnstart
	.cfi_startproc
@ %bb.0:
	@DEBUG_VALUE: spi_transfer:qspi_id <- $r0
	@DEBUG_VALUE: spi_transfer:req <- $r1
	@DEBUG_VALUE: spi_transfer:finish_proc_cb <- $r2
	.save	{r4, r5, r6, r7, r8, r9, r10, r11, lr}
	push.w	{r4, r5, r6, r7, r8, r9, r10, r11, lr}
	.cfi_def_cfa_offset 36
	.cfi_offset lr, -4
	.cfi_offset r11, -8
	.cfi_offset r10, -12
	.cfi_offset r9, -16
	.cfi_offset r8, -20
	.cfi_offset r7, -24
	.cfi_offset r6, -28
	.cfi_offset r5, -32
	.cfi_offset r4, -36
	.pad	#4
	sub	sp, #4
	.cfi_def_cfa_offset 40
	mov	r10, r2
.Ltmp238:
	@DEBUG_VALUE: spi_transfer:finish_proc_cb <- $r10
	mov	r6, r1
.Ltmp239:
	@DEBUG_VALUE: spi_transfer:req <- $r6
	mov	r4, r0
.Ltmp240:
	@DEBUG_VALUE: spi_transfer:qspi_id <- $r4
	@DEBUG_VALUE: spi_transfer:dummy_enable <- 0
	@DEBUG_VALUE: spi_transfer:finish_proc_cb <- $r10
	@DEBUG_VALUE: spi_transfer:req <- $r6
	@DEBUG_VALUE: spi_transfer:qspi_id <- $r4
	.loc	3 934 5 prologue_end            @ ../../../components/platform/soc/rt582/rt582_driver/Src/qspi.c:934:5
	bl	enter_critical_section
.Ltmp241:
	.loc	3 936 27                        @ ../../../components/platform/soc/rt582/rt582_driver/Src/qspi.c:936:27
	movw	r9, :lower16:qspi_cfg
	movt	r9, :upper16:qspi_cfg
	add.w	r0, r9, r4, lsl #3
	ldrh	r1, [r0, #4]!
.Ltmp242:
	.loc	3 936 9 is_stmt 0               @ ../../../components/platform/soc/rt582/rt582_driver/Src/qspi.c:936:9
	cmp	r1, #1
	bne	.LBB7_5
.Ltmp243:
@ %bb.1:
	@DEBUG_VALUE: spi_transfer:finish_proc_cb <- $r10
	@DEBUG_VALUE: spi_transfer:req <- $r6
	@DEBUG_VALUE: spi_transfer:qspi_id <- $r4
	@DEBUG_VALUE: spi_transfer:dummy_enable <- 0
	.loc	3 942 14 is_stmt 1              @ ../../../components/platform/soc/rt582/rt582_driver/Src/qspi.c:942:14
	ldr	r1, [r6, #4]
	movw	r8, #16
	movw	r11, #12
.Ltmp244:
	.loc	3 942 9 is_stmt 0               @ ../../../components/platform/soc/rt582/rt582_driver/Src/qspi.c:942:9
	cmp	r1, #0
	mov.w	r1, #16
	movt	r8, #45056
	movt	r11, #32768
	mov.w	r7, #16
	it	eq
	moveq	r1, #8
.Ltmp245:
	.loc	3 0 0                           @ ../../../components/platform/soc/rt582/rt582_driver/Src/qspi.c:0:0
	strh	r1, [r0]
.Ltmp246:
	.loc	3 955 5 is_stmt 1               @ ../../../components/platform/soc/rt582/rt582_driver/Src/qspi.c:955:5
	bl	leave_critical_section
.Ltmp247:
	@DEBUG_VALUE: spi_transfer:QSPI <- undef
	.loc	3 979 14                        @ ../../../components/platform/soc/rt582/rt582_driver/Src/qspi.c:979:14
	ldrh	r1, [r6, #8]
	.loc	3 0 0 is_stmt 0                 @ ../../../components/platform/soc/rt582/rt582_driver/Src/qspi.c:0:0
	mov	r2, r11
	add.w	r0, r11, #805306368
	cmp	r4, #0
	it	eq
	moveq	r2, r0
	ldr	r2, [r2]
.Ltmp248:
	.loc	3 979 9                         @ ../../../components/platform/soc/rt582/rt582_driver/Src/qspi.c:979:9
	lsls	r3, r1, #30
	mov.w	r3, #144
	it	eq
	moveq	r3, #240
.Ltmp249:
	.loc	3 0 0                           @ ../../../components/platform/soc/rt582/rt582_driver/Src/qspi.c:0:0
	lsls	r2, r2, #26
.Ltmp250:
	.loc	3 1007 11 is_stmt 1             @ ../../../components/platform/soc/rt582/rt582_driver/Src/qspi.c:1007:11
	add.w	r2, r11, #28
	mov.w	r5, #255
.Ltmp251:
	.loc	3 0 0 is_stmt 0                 @ ../../../components/platform/soc/rt582/rt582_driver/Src/qspi.c:0:0
	it	pl
	movpl	r3, #16
.Ltmp252:
	@DEBUG_VALUE: spi_transfer:aux_reg <- $r3
	.loc	3 1007 11                       @ ../../../components/platform/soc/rt582/rt582_driver/Src/qspi.c:1007:11
	cmp	r4, #0
	it	eq
	addeq.w	r2, r8, #24
	.loc	3 1007 24                       @ ../../../components/platform/soc/rt582/rt582_driver/Src/qspi.c:1007:24
	str	r5, [r2]
.Ltmp253:
	.loc	3 1009 14 is_stmt 1             @ ../../../components/platform/soc/rt582/rt582_driver/Src/qspi.c:1009:14
	ldr	r5, [r6, #4]
.Ltmp254:
	.loc	3 1009 9 is_stmt 0              @ ../../../components/platform/soc/rt582/rt582_driver/Src/qspi.c:1009:9
	cbnz	r5, .LBB7_3
.Ltmp255:
@ %bb.2:
	@DEBUG_VALUE: spi_transfer:finish_proc_cb <- $r10
	@DEBUG_VALUE: spi_transfer:req <- $r6
	@DEBUG_VALUE: spi_transfer:qspi_id <- $r4
	@DEBUG_VALUE: spi_transfer:aux_reg <- $r3
	@DEBUG_VALUE: spi_transfer:dummy_enable <- 0
	.loc	3 1012 17 is_stmt 1             @ ../../../components/platform/soc/rt582/rt582_driver/Src/qspi.c:1012:17
	orr	r3, r3, #8
.Ltmp256:
	@DEBUG_VALUE: spi_transfer:aux_reg <- $r3
	.loc	3 1015 15                       @ ../../../components/platform/soc/rt582/rt582_driver/Src/qspi.c:1015:15
	add.w	r2, r11, #20
	cmp	r4, #0
	it	eq
	addeq.w	r2, r8, #16
	.loc	3 1015 27 is_stmt 0             @ ../../../components/platform/soc/rt582/rt582_driver/Src/qspi.c:1015:27
	str	r7, [r2]
.Ltmp257:
.LBB7_3:
	@DEBUG_VALUE: spi_transfer:finish_proc_cb <- $r10
	@DEBUG_VALUE: spi_transfer:req <- $r6
	@DEBUG_VALUE: spi_transfer:qspi_id <- $r4
	@DEBUG_VALUE: spi_transfer:aux_reg <- $r3
	@DEBUG_VALUE: spi_transfer:dummy_enable <- 0
	@DEBUG_VALUE: spi_transfer:aux_reg <- $r3
	.loc	3 1018 14 is_stmt 1             @ ../../../components/platform/soc/rt582/rt582_driver/Src/qspi.c:1018:14
	ldr	r2, [r6]
.Ltmp258:
	.loc	3 1018 9 is_stmt 0              @ ../../../components/platform/soc/rt582/rt582_driver/Src/qspi.c:1018:9
	cbz	r2, .LBB7_6
.Ltmp259:
@ %bb.4:
	@DEBUG_VALUE: spi_transfer:finish_proc_cb <- $r10
	@DEBUG_VALUE: spi_transfer:req <- $r6
	@DEBUG_VALUE: spi_transfer:qspi_id <- $r4
	@DEBUG_VALUE: spi_transfer:aux_reg <- $r3
	@DEBUG_VALUE: spi_transfer:dummy_enable <- 0
	.loc	3 0 9                           @ ../../../components/platform/soc/rt582/rt582_driver/Src/qspi.c:0:9
	movs	r6, #1
.Ltmp260:
	b	.LBB7_7
.Ltmp261:
.LBB7_5:
	@DEBUG_VALUE: spi_transfer:finish_proc_cb <- $r10
	@DEBUG_VALUE: spi_transfer:req <- $r6
	@DEBUG_VALUE: spi_transfer:qspi_id <- $r4
	@DEBUG_VALUE: spi_transfer:dummy_enable <- 0
	.loc	3 938 9 is_stmt 1               @ ../../../components/platform/soc/rt582/rt582_driver/Src/qspi.c:938:9
	bl	leave_critical_section
.Ltmp262:
	.loc	3 0 9 is_stmt 0                 @ ../../../components/platform/soc/rt582/rt582_driver/Src/qspi.c:0:9
	movs	r0, #2
	b	.LBB7_14
.Ltmp263:
.LBB7_6:
	@DEBUG_VALUE: spi_transfer:finish_proc_cb <- $r10
	@DEBUG_VALUE: spi_transfer:req <- $r6
	@DEBUG_VALUE: spi_transfer:qspi_id <- $r4
	@DEBUG_VALUE: spi_transfer:aux_reg <- $r3
	@DEBUG_VALUE: spi_transfer:dummy_enable <- 0
	.loc	3 1020 20 is_stmt 1             @ ../../../components/platform/soc/rt582/rt582_driver/Src/qspi.c:1020:20
	mov	r7, r11
	cmp	r4, #0
	it	eq
	moveq	r7, r0
	ldr	r7, [r7]
	movs	r6, #3
.Ltmp264:
	.loc	3 1020 33 is_stmt 0             @ ../../../components/platform/soc/rt582/rt582_driver/Src/qspi.c:1020:33
	ands	r7, r7, #32
.Ltmp265:
	.loc	3 1020 13                       @ ../../../components/platform/soc/rt582/rt582_driver/Src/qspi.c:1020:13
	it	eq
	orreq	r3, r3, #4
.Ltmp266:
	it	eq
	moveq	r6, #1
.Ltmp267:
.LBB7_7:
	@DEBUG_VALUE: spi_transfer:finish_proc_cb <- $r10
	@DEBUG_VALUE: spi_transfer:qspi_id <- $r4
	@DEBUG_VALUE: spi_transfer:dummy_enable <- 0
	@DEBUG_VALUE: spi_transfer:dummy_enable <- undef
	@DEBUG_VALUE: spi_transfer:aux_reg <- $r3
	.loc	3 1036 11 is_stmt 1             @ ../../../components/platform/soc/rt582/rt582_driver/Src/qspi.c:1036:11
	cmp	r4, #0
	mov	r7, r8
	it	ne
	addne.w	r7, r11, #4
	.loc	3 1036 20 is_stmt 0             @ ../../../components/platform/soc/rt582/rt582_driver/Src/qspi.c:1036:20
	str	r3, [r7]
	.loc	3 1039 37 is_stmt 1             @ ../../../components/platform/soc/rt582/rt582_driver/Src/qspi.c:1039:37
	str.w	r10, [r9, r4, lsl #3]
	.loc	3 1042 9                        @ ../../../components/platform/soc/rt582/rt582_driver/Src/qspi.c:1042:9
	cbz	r5, .LBB7_9
.Ltmp268:
@ %bb.8:
	@DEBUG_VALUE: spi_transfer:finish_proc_cb <- $r10
	@DEBUG_VALUE: spi_transfer:qspi_id <- $r4
	@DEBUG_VALUE: spi_transfer:aux_reg <- $r3
	.loc	3 1044 15                       @ ../../../components/platform/soc/rt582/rt582_driver/Src/qspi.c:1044:15
	add.w	r3, r11, #84
.Ltmp269:
	cmp	r4, #0
	it	eq
	addeq.w	r3, r8, #80
	.loc	3 1044 27 is_stmt 0             @ ../../../components/platform/soc/rt582/rt582_driver/Src/qspi.c:1044:27
	str	r5, [r3]
	.loc	3 1045 15 is_stmt 1             @ ../../../components/platform/soc/rt582/rt582_driver/Src/qspi.c:1045:15
	add.w	r3, r11, #88
	it	eq
	addeq.w	r3, r8, #84
	.loc	3 1045 26 is_stmt 0             @ ../../../components/platform/soc/rt582/rt582_driver/Src/qspi.c:1045:26
	str	r1, [r3]
.Ltmp270:
	.loc	3 0 0                           @ ../../../components/platform/soc/rt582/rt582_driver/Src/qspi.c:0:0
	add.w	r3, r11, #116
	cmp	r4, #0
	it	eq
	addeq.w	r3, r8, #112
	str	r6, [r3]
.Ltmp271:
.LBB7_9:
	@DEBUG_VALUE: spi_transfer:finish_proc_cb <- $r10
	@DEBUG_VALUE: spi_transfer:qspi_id <- $r4
	.loc	3 1057 9 is_stmt 1              @ ../../../components/platform/soc/rt582/rt582_driver/Src/qspi.c:1057:9
	cbz	r2, .LBB7_11
.Ltmp272:
@ %bb.10:
	@DEBUG_VALUE: spi_transfer:finish_proc_cb <- $r10
	@DEBUG_VALUE: spi_transfer:qspi_id <- $r4
	.loc	3 1059 15                       @ ../../../components/platform/soc/rt582/rt582_driver/Src/qspi.c:1059:15
	add.w	r3, r11, #92
	cmp	r4, #0
	it	eq
	addeq.w	r3, r8, #88
	.loc	3 1059 27 is_stmt 0             @ ../../../components/platform/soc/rt582/rt582_driver/Src/qspi.c:1059:27
	str	r2, [r3]
	.loc	3 1060 15 is_stmt 1             @ ../../../components/platform/soc/rt582/rt582_driver/Src/qspi.c:1060:15
	add.w	r2, r11, #96
	it	eq
	addeq.w	r2, r8, #92
	.loc	3 1060 26 is_stmt 0             @ ../../../components/platform/soc/rt582/rt582_driver/Src/qspi.c:1060:26
	str	r1, [r2]
	.loc	3 1062 15 is_stmt 1             @ ../../../components/platform/soc/rt582/rt582_driver/Src/qspi.c:1062:15
	add.w	r1, r11, #120
	movs	r2, #1
	cmp	r4, #0
	it	eq
	addeq.w	r1, r8, #116
	.loc	3 1062 29 is_stmt 0             @ ../../../components/platform/soc/rt582/rt582_driver/Src/qspi.c:1062:29
	str	r2, [r1]
.Ltmp273:
.LBB7_11:
	@DEBUG_VALUE: spi_transfer:finish_proc_cb <- $r10
	@DEBUG_VALUE: spi_transfer:qspi_id <- $r4
	.loc	3 1065 16 is_stmt 1             @ ../../../components/platform/soc/rt582/rt582_driver/Src/qspi.c:1065:16
	cmp	r4, #0
	it	ne
	movne	r0, r11
	ldr	r0, [r0]
.Ltmp274:
	.loc	3 1065 9 is_stmt 0              @ ../../../components/platform/soc/rt582/rt582_driver/Src/qspi.c:1065:9
	lsls	r0, r0, #26
	bmi	.LBB7_13
.Ltmp275:
@ %bb.12:
	@DEBUG_VALUE: spi_transfer:finish_proc_cb <- $r10
	@DEBUG_VALUE: spi_transfer:qspi_id <- $r4
	.loc	3 1067 15 is_stmt 1             @ ../../../components/platform/soc/rt582/rt582_driver/Src/qspi.c:1067:15
	add.w	r0, r11, #20
	movs	r1, #16
	cmp	r4, #0
	it	eq
	addeq.w	r0, r8, #16
	.loc	3 1067 27 is_stmt 0             @ ../../../components/platform/soc/rt582/rt582_driver/Src/qspi.c:1067:27
	str	r1, [r0]
.Ltmp276:
.LBB7_13:
	@DEBUG_VALUE: spi_transfer:finish_proc_cb <- $r10
	@DEBUG_VALUE: spi_transfer:qspi_id <- $r4
	.loc	3 0 27                          @ ../../../components/platform/soc/rt582/rt582_driver/Src/qspi.c:0:27
	movs	r0, #0
.Ltmp277:
.LBB7_14:
	@DEBUG_VALUE: spi_transfer:finish_proc_cb <- $r10
	@DEBUG_VALUE: spi_transfer:qspi_id <- $r4
	.loc	3 1071 1 is_stmt 1              @ ../../../components/platform/soc/rt582/rt582_driver/Src/qspi.c:1071:1
	add	sp, #4
	pop.w	{r4, r5, r6, r7, r8, r9, r10, r11, pc}
.Ltmp278:
.Lfunc_end7:
	.size	spi_transfer, .Lfunc_end7-spi_transfer
	.cfi_endproc
	.cantunwind
	.fnend
                                        @ -- End function
	.section	.text.spi_transfer_slave_abort,"ax",%progbits
	.hidden	spi_transfer_slave_abort        @ -- Begin function spi_transfer_slave_abort
	.globl	spi_transfer_slave_abort
	.p2align	1
	.type	spi_transfer_slave_abort,%function
	.code	16                              @ @spi_transfer_slave_abort
	.thumb_func
spi_transfer_slave_abort:
.Lfunc_begin8:
	.loc	3 1075 0                        @ ../../../components/platform/soc/rt582/rt582_driver/Src/qspi.c:1075:0
	.fnstart
	.cfi_startproc
@ %bb.0:
	@DEBUG_VALUE: spi_transfer_slave_abort:qspi_id <- $r0
	.save	{r4, lr}
	push	{r4, lr}
	.cfi_def_cfa_offset 8
	.cfi_offset lr, -4
	.cfi_offset r4, -8
	mov	r4, r0
.Ltmp279:
	@DEBUG_VALUE: spi_transfer_slave_abort:qspi_id <- $r4
	@DEBUG_VALUE: spi_transfer_slave_abort:QSPI <- undef
	@DEBUG_VALUE: spi_transfer_slave_abort:qspi_id <- $r4
	.loc	3 1090 5 prologue_end           @ ../../../components/platform/soc/rt582/rt582_driver/Src/qspi.c:1090:5
	bl	enter_critical_section
.Ltmp280:
	.loc	3 1092 27                       @ ../../../components/platform/soc/rt582/rt582_driver/Src/qspi.c:1092:27
	movw	r0, :lower16:qspi_cfg
	movt	r0, :upper16:qspi_cfg
	add.w	r0, r0, r4, lsl #3
	ldrh	r1, [r0, #4]!
.Ltmp281:
	.loc	3 1092 9 is_stmt 0              @ ../../../components/platform/soc/rt582/rt582_driver/Src/qspi.c:1092:9
	cmp	r1, #1
	beq	.LBB8_5
.Ltmp282:
@ %bb.1:
	@DEBUG_VALUE: spi_transfer_slave_abort:qspi_id <- $r4
	.loc	3 0 9                           @ ../../../components/platform/soc/rt582/rt582_driver/Src/qspi.c:0:9
	movw	lr, #12
	movt	lr, #32768
.Ltmp283:
	.loc	3 1100 16 is_stmt 1             @ ../../../components/platform/soc/rt582/rt582_driver/Src/qspi.c:1100:16
	mov	r2, lr
	cmp	r4, #0
	it	eq
	addeq.w	r2, r2, #805306368
	ldr	r2, [r2]
.Ltmp284:
	.loc	3 1100 9 is_stmt 0              @ ../../../components/platform/soc/rt582/rt582_driver/Src/qspi.c:1100:9
	lsls	r2, r2, #26
	bmi	.LBB8_6
.Ltmp285:
@ %bb.2:
	@DEBUG_VALUE: spi_transfer_slave_abort:qspi_id <- $r4
	.loc	3 0 9                           @ ../../../components/platform/soc/rt582/rt582_driver/Src/qspi.c:0:9
	movs	r2, #40
	.loc	3 1108 11 is_stmt 1             @ ../../../components/platform/soc/rt582/rt582_driver/Src/qspi.c:1108:11
	add.w	r3, lr, #120
	movt	r2, #45056
	cmp	r4, #0
	it	eq
	addeq.w	r3, r2, #92
	mov.w	r12, #0
	.loc	3 1108 25 is_stmt 0             @ ../../../components/platform/soc/rt582/rt582_driver/Src/qspi.c:1108:25
	str.w	r12, [r3]
	.loc	3 1109 11 is_stmt 1             @ ../../../components/platform/soc/rt582/rt582_driver/Src/qspi.c:1109:11
	add.w	r3, lr, #116
	cmp	r4, #0
	it	eq
	addeq.w	r3, r2, #88
	.loc	3 1109 25 is_stmt 0             @ ../../../components/platform/soc/rt582/rt582_driver/Src/qspi.c:1109:25
	str.w	r12, [r3]
	.loc	3 1111 11 is_stmt 1             @ ../../../components/platform/soc/rt582/rt582_driver/Src/qspi.c:1111:11
	add.w	r3, lr, #96
	it	eq
	addeq.w	r3, r2, #68
	.loc	3 1111 22 is_stmt 0             @ ../../../components/platform/soc/rt582/rt582_driver/Src/qspi.c:1111:22
	str.w	r12, [r3]
	.loc	3 1112 11 is_stmt 1             @ ../../../components/platform/soc/rt582/rt582_driver/Src/qspi.c:1112:11
	add.w	r3, lr, #88
	cmp	r4, #0
	it	eq
	addeq.w	r3, r2, #60
	.loc	3 1112 22 is_stmt 0             @ ../../../components/platform/soc/rt582/rt582_driver/Src/qspi.c:1112:22
	str.w	r12, [r3]
	.loc	3 1114 11 is_stmt 1             @ ../../../components/platform/soc/rt582/rt582_driver/Src/qspi.c:1114:11
	add.w	r3, lr, #48
	it	eq
	addeq.w	r3, r2, #20
	.loc	3 1114 19 is_stmt 0             @ ../../../components/platform/soc/rt582/rt582_driver/Src/qspi.c:1114:19
	str.w	r12, [r3]
.Ltmp286:
	.p2align	2
.LBB8_3:                                @ =>This Inner Loop Header: Depth=1
	@DEBUG_VALUE: spi_transfer_slave_abort:qspi_id <- $r4
	.loc	3 1117 18 is_stmt 1             @ ../../../components/platform/soc/rt582/rt582_driver/Src/qspi.c:1117:18
	ldr	r1, [r3]
	.loc	3 1117 5 is_stmt 0              @ ../../../components/platform/soc/rt582/rt582_driver/Src/qspi.c:1117:5
	cmp	r1, #0
	bne	.LBB8_3
.Ltmp287:
@ %bb.4:
	@DEBUG_VALUE: spi_transfer_slave_abort:qspi_id <- $r4
	.loc	3 0 5                           @ ../../../components/platform/soc/rt582/rt582_driver/Src/qspi.c:0:5
	movs	r1, #1
	.loc	3 1121 19 is_stmt 1             @ ../../../components/platform/soc/rt582/rt582_driver/Src/qspi.c:1121:19
	str	r1, [r3]
	movs	r3, #255
	.loc	3 1123 11                       @ ../../../components/platform/soc/rt582/rt582_driver/Src/qspi.c:1123:11
	cmp	r4, #0
	it	ne
	addne.w	r2, lr, #28
	.loc	3 1123 24 is_stmt 0             @ ../../../components/platform/soc/rt582/rt582_driver/Src/qspi.c:1123:24
	str	r3, [r2]
	.loc	3 1124 34 is_stmt 1             @ ../../../components/platform/soc/rt582/rt582_driver/Src/qspi.c:1124:34
	strh	r1, [r0]
.Ltmp288:
.LBB8_5:
	@DEBUG_VALUE: spi_transfer_slave_abort:qspi_id <- $r4
	.loc	3 0 34 is_stmt 0                @ ../../../components/platform/soc/rt582/rt582_driver/Src/qspi.c:0:34
	movs	r4, #0
.Ltmp289:
	b	.LBB8_7
.LBB8_6:
.Ltmp290:
	@DEBUG_VALUE: spi_transfer_slave_abort:qspi_id <- $r4
	movs	r4, #2
.Ltmp291:
.LBB8_7:
	bl	leave_critical_section
.Ltmp292:
	.loc	3 1130 1 is_stmt 1              @ ../../../components/platform/soc/rt582/rt582_driver/Src/qspi.c:1130:1
	mov	r0, r4
	pop	{r4, pc}
.Ltmp293:
.Lfunc_end8:
	.size	spi_transfer_slave_abort, .Lfunc_end8-spi_transfer_slave_abort
	.cfi_endproc
	.cantunwind
	.fnend
                                        @ -- End function
	.section	.text.qspi0_handler,"ax",%progbits
	.hidden	qspi0_handler                   @ -- Begin function qspi0_handler
	.globl	qspi0_handler
	.p2align	1
	.type	qspi0_handler,%function
	.code	16                              @ @qspi0_handler
	.thumb_func
qspi0_handler:
.Lfunc_begin9:
	.loc	3 1247 0                        @ ../../../components/platform/soc/rt582/rt582_driver/Src/qspi.c:1247:0
	.fnstart
	.cfi_startproc
@ %bb.0:
	.loc	3 1248 5 prologue_end           @ ../../../components/platform/soc/rt582/rt582_driver/Src/qspi.c:1248:5
	movs	r0, #0
.Ltmp294:
	b	spi_handler
.Ltmp295:
.Lfunc_end9:
	.size	qspi0_handler, .Lfunc_end9-qspi0_handler
	.cfi_endproc
	.cantunwind
	.fnend
                                        @ -- End function
	.section	.text.spi_handler,"ax",%progbits
	.p2align	1                               @ -- Begin function spi_handler
	.type	spi_handler,%function
	.code	16                              @ @spi_handler
	.thumb_func
spi_handler:
.Lfunc_begin10:
	.loc	3 1133 0                        @ ../../../components/platform/soc/rt582/rt582_driver/Src/qspi.c:1133:0
	.fnstart
	.cfi_startproc
@ %bb.0:
	@DEBUG_VALUE: spi_handler:id <- $r0
	.save	{r4, r5, r6, r7, r8, lr}
	push.w	{r4, r5, r6, r7, r8, lr}
	.cfi_def_cfa_offset 24
	.cfi_offset lr, -4
	.cfi_offset r8, -8
	.cfi_offset r7, -12
	.cfi_offset r6, -16
	.cfi_offset r5, -20
	.cfi_offset r4, -24
	movs	r7, #12
	movt	r7, #32768
.Ltmp296:
	@DEBUG_VALUE: spi_handler:QSPI <- undef
	@DEBUG_VALUE: spi_handler:id <- $r4
	movs	r6, #16
.Ltmp297:
	.loc	3 1152 15 prologue_end          @ ../../../components/platform/soc/rt582/rt582_driver/Src/qspi.c:1152:15
	add.w	r5, r7, #112
	mov	r4, r0
.Ltmp298:
	.loc	3 0 15 is_stmt 0                @ ../../../components/platform/soc/rt582/rt582_driver/Src/qspi.c:0:15
	movt	r6, #45056
	.loc	3 1152 15                       @ ../../../components/platform/soc/rt582/rt582_driver/Src/qspi.c:1152:15
	cmp	r0, #0
	it	eq
	addeq.w	r5, r6, #108
	ldr	r0, [r5]
	movw	r8, :lower16:qspi_cfg
.Ltmp299:
	.loc	3 1152 9                        @ ../../../components/platform/soc/rt582/rt582_driver/Src/qspi.c:1152:9
	lsls	r0, r0, #31
	movt	r8, :upper16:qspi_cfg
	beq	.LBB10_2
.Ltmp300:
@ %bb.1:
	.loc	3 0 9                           @ ../../../components/platform/soc/rt582/rt582_driver/Src/qspi.c:0:9
	movs	r0, #3
.Ltmp301:
	.loc	3 1156 30 is_stmt 1             @ ../../../components/platform/soc/rt582/rt582_driver/Src/qspi.c:1156:30
	str	r0, [r5]
	.loc	3 1157 15                       @ ../../../components/platform/soc/rt582/rt582_driver/Src/qspi.c:1157:15
	add.w	r0, r7, #116
	cmp	r4, #0
	it	eq
	addeq.w	r0, r6, #112
	movs	r1, #0
	.loc	3 1157 29 is_stmt 0             @ ../../../components/platform/soc/rt582/rt582_driver/Src/qspi.c:1157:29
	str	r1, [r0]
	.loc	3 1158 15 is_stmt 1             @ ../../../components/platform/soc/rt582/rt582_driver/Src/qspi.c:1158:15
	add.w	r0, r7, #120
	cmp	r4, #0
	it	eq
	addeq.w	r0, r6, #116
	.loc	3 1158 29 is_stmt 0             @ ../../../components/platform/soc/rt582/rt582_driver/Src/qspi.c:1158:29
	str	r1, [r0]
	.loc	3 1160 15 is_stmt 1             @ ../../../components/platform/soc/rt582/rt582_driver/Src/qspi.c:1160:15
	add.w	r0, r7, #28
	it	eq
	addeq.w	r0, r6, #24
	movs	r1, #16
	.loc	3 1160 28 is_stmt 0             @ ../../../components/platform/soc/rt582/rt582_driver/Src/qspi.c:1160:28
	str	r1, [r0]
	.loc	3 1163 32 is_stmt 1             @ ../../../components/platform/soc/rt582/rt582_driver/Src/qspi.c:1163:32
	mov	r0, r6
	cmp	r4, #0
	it	ne
	addne	r0, r7, #4
	ldr	r1, [r0]
	.loc	3 1163 41 is_stmt 0             @ ../../../components/platform/soc/rt582/rt582_driver/Src/qspi.c:1163:41
	bic	r1, r1, #128
	.loc	3 1163 24                       @ ../../../components/platform/soc/rt582/rt582_driver/Src/qspi.c:1163:24
	str	r1, [r0]
	.loc	3 1165 22 is_stmt 1             @ ../../../components/platform/soc/rt582/rt582_driver/Src/qspi.c:1165:22
	add.w	r0, r8, r4, lsl #3
	movs	r1, #1
	.loc	3 1168 22                       @ ../../../components/platform/soc/rt582/rt582_driver/Src/qspi.c:1168:22
	ldr.w	r2, [r8, r4, lsl #3]
	.loc	3 1165 33                       @ ../../../components/platform/soc/rt582/rt582_driver/Src/qspi.c:1165:33
	strh	r1, [r0, #4]
	.loc	3 1168 9                        @ ../../../components/platform/soc/rt582/rt582_driver/Src/qspi.c:1168:9
	mov	r0, r4
	movs	r1, #1
	blx	r2
.Ltmp302:
.LBB10_2:
	.loc	3 1172 15                       @ ../../../components/platform/soc/rt582/rt582_driver/Src/qspi.c:1172:15
	add.w	r0, r7, #24
	cmp	r4, #0
	it	eq
	addeq.w	r0, r6, #20
	ldr	r0, [r0]
.Ltmp303:
	.loc	3 1172 9 is_stmt 0              @ ../../../components/platform/soc/rt582/rt582_driver/Src/qspi.c:1172:9
	lsls	r0, r0, #27
	bmi	.LBB10_4
.LBB10_3:
	.loc	3 1244 1 is_stmt 1              @ ../../../components/platform/soc/rt582/rt582_driver/Src/qspi.c:1244:1
	pop.w	{r4, r5, r6, r7, r8, pc}
.LBB10_4:
.Ltmp304:
	.loc	3 1176 15                       @ ../../../components/platform/soc/rt582/rt582_driver/Src/qspi.c:1176:15
	add.w	r0, r7, #28
	movs	r1, #16
	cmp	r4, #0
	it	eq
	addeq.w	r0, r6, #24
	.loc	3 1176 28 is_stmt 0             @ ../../../components/platform/soc/rt582/rt582_driver/Src/qspi.c:1176:28
	str	r1, [r0]
.Ltmp305:
	.loc	3 1179 26 is_stmt 1             @ ../../../components/platform/soc/rt582/rt582_driver/Src/qspi.c:1179:26
	add.w	r2, r8, r4, lsl #3
	ldrh	r1, [r2, #4]!
.Ltmp306:
	.loc	3 1179 13 is_stmt 0             @ ../../../components/platform/soc/rt582/rt582_driver/Src/qspi.c:1179:13
	cmp	r1, #8
	bne	.LBB10_6
@ %bb.5:
	.loc	3 0 13                          @ ../../../components/platform/soc/rt582/rt582_driver/Src/qspi.c:0:13
	movs	r0, #2
.Ltmp307:
	.loc	3 1183 34 is_stmt 1             @ ../../../components/platform/soc/rt582/rt582_driver/Src/qspi.c:1183:34
	str	r0, [r5]
	.loc	3 1184 19                       @ ../../../components/platform/soc/rt582/rt582_driver/Src/qspi.c:1184:19
	add.w	r0, r7, #120
	cmp	r4, #0
	it	eq
	addeq.w	r0, r6, #116
	mov.w	r1, #0
	.loc	3 1184 33 is_stmt 0             @ ../../../components/platform/soc/rt582/rt582_driver/Src/qspi.c:1184:33
	str	r1, [r0]
	.loc	3 1187 36 is_stmt 1             @ ../../../components/platform/soc/rt582/rt582_driver/Src/qspi.c:1187:36
	mov	r0, r6
	it	ne
	addne	r0, r7, #4
	ldr	r3, [r0]
	.loc	3 1189 19                       @ ../../../components/platform/soc/rt582/rt582_driver/Src/qspi.c:1189:19
	cmp	r4, #0
	.loc	3 1187 45                       @ ../../../components/platform/soc/rt582/rt582_driver/Src/qspi.c:1187:45
	bic	r3, r3, #128
	.loc	3 1187 28 is_stmt 0             @ ../../../components/platform/soc/rt582/rt582_driver/Src/qspi.c:1187:28
	str	r3, [r0]
	.loc	3 1189 19 is_stmt 1             @ ../../../components/platform/soc/rt582/rt582_driver/Src/qspi.c:1189:19
	add.w	r0, r7, #20
	it	eq
	addeq.w	r0, r6, #16
	.loc	3 1189 31 is_stmt 0             @ ../../../components/platform/soc/rt582/rt582_driver/Src/qspi.c:1189:31
	str	r1, [r0]
	.loc	3 1199 26 is_stmt 1             @ ../../../components/platform/soc/rt582/rt582_driver/Src/qspi.c:1199:26
	ldr.w	r3, [r8, r4, lsl #3]
	movs	r7, #1
	.loc	3 1199 13 is_stmt 0             @ ../../../components/platform/soc/rt582/rt582_driver/Src/qspi.c:1199:13
	mov	r0, r4
	movs	r1, #1
	b	.LBB10_12
.Ltmp308:
.LBB10_6:
	.loc	3 1207 24 is_stmt 1             @ ../../../components/platform/soc/rt582/rt582_driver/Src/qspi.c:1207:24
	mov	r1, r7
	cmp	r4, #0
	it	eq
	addeq.w	r1, r1, #805306368
	ldr	r1, [r1]
.Ltmp309:
	.loc	3 1207 17 is_stmt 0             @ ../../../components/platform/soc/rt582/rt582_driver/Src/qspi.c:1207:17
	lsls	r1, r1, #26
	bmi	.LBB10_3
@ %bb.7:
.Ltmp310:
	.loc	3 1210 28 is_stmt 1             @ ../../../components/platform/soc/rt582/rt582_driver/Src/qspi.c:1210:28
	add.w	r1, r7, #116
	cmp	r4, #0
	it	eq
	addeq.w	r1, r6, #112
	ldr	r5, [r1]
	.loc	3 0 0 is_stmt 0                 @ ../../../components/platform/soc/rt582/rt582_driver/Src/qspi.c:0:0
	add.w	r3, r7, #120
	cmp	r4, #0
	it	eq
	addeq.w	r3, r6, #116
	.loc	3 1210 48                       @ ../../../components/platform/soc/rt582/rt582_driver/Src/qspi.c:1210:48
	cbnz	r5, .LBB10_9
@ %bb.8:
	.loc	3 1210 58                       @ ../../../components/platform/soc/rt582/rt582_driver/Src/qspi.c:1210:58
	ldr	r5, [r3]
.Ltmp311:
	.loc	3 1210 21                       @ ../../../components/platform/soc/rt582/rt582_driver/Src/qspi.c:1210:21
	cmp	r5, #0
.Ltmp312:
	.loc	3 1244 1 is_stmt 1              @ ../../../components/platform/soc/rt582/rt582_driver/Src/qspi.c:1244:1
	it	eq
	popeq.w	{r4, r5, r6, r7, r8, pc}
.LBB10_9:
	.loc	3 0 1 is_stmt 0                 @ ../../../components/platform/soc/rt582/rt582_driver/Src/qspi.c:0:1
	movs	r5, #0
.Ltmp313:
	.loc	3 1213 41 is_stmt 1             @ ../../../components/platform/soc/rt582/rt582_driver/Src/qspi.c:1213:41
	str	r5, [r3]
	.loc	3 1214 41                       @ ../../../components/platform/soc/rt582/rt582_driver/Src/qspi.c:1214:41
	str	r5, [r1]
	.loc	3 1216 27                       @ ../../../components/platform/soc/rt582/rt582_driver/Src/qspi.c:1216:27
	add.w	r1, r7, #96
	cmp	r4, #0
	it	eq
	addeq.w	r1, r6, #92
	.loc	3 1216 38 is_stmt 0             @ ../../../components/platform/soc/rt582/rt582_driver/Src/qspi.c:1216:38
	str	r5, [r1]
	.loc	3 1217 27 is_stmt 1             @ ../../../components/platform/soc/rt582/rt582_driver/Src/qspi.c:1217:27
	add.w	r1, r7, #88
	it	eq
	addeq.w	r1, r6, #84
	.loc	3 1217 38 is_stmt 0             @ ../../../components/platform/soc/rt582/rt582_driver/Src/qspi.c:1217:38
	str	r5, [r1]
	movs	r1, #255
	.loc	3 1219 40 is_stmt 1             @ ../../../components/platform/soc/rt582/rt582_driver/Src/qspi.c:1219:40
	str	r1, [r0]
	.loc	3 1221 27                       @ ../../../components/platform/soc/rt582/rt582_driver/Src/qspi.c:1221:27
	add.w	r0, r7, #48
	cmp	r4, #0
	it	eq
	addeq.w	r0, r6, #44
	.loc	3 1221 35 is_stmt 0             @ ../../../components/platform/soc/rt582/rt582_driver/Src/qspi.c:1221:35
	str	r5, [r0]
	.p2align	2
.LBB10_10:                              @ =>This Inner Loop Header: Depth=1
	.loc	3 1224 34 is_stmt 1             @ ../../../components/platform/soc/rt582/rt582_driver/Src/qspi.c:1224:34
	ldr	r1, [r0]
	.loc	3 1224 21 is_stmt 0             @ ../../../components/platform/soc/rt582/rt582_driver/Src/qspi.c:1224:21
	cmp	r1, #0
	bne	.LBB10_10
@ %bb.11:
	.loc	3 0 21                          @ ../../../components/platform/soc/rt582/rt582_driver/Src/qspi.c:0:21
	movs	r7, #1
	.loc	3 1228 35 is_stmt 1             @ ../../../components/platform/soc/rt582/rt582_driver/Src/qspi.c:1228:35
	str	r7, [r0]
	.loc	3 1232 34                       @ ../../../components/platform/soc/rt582/rt582_driver/Src/qspi.c:1232:34
	ldr.w	r3, [r8, r4, lsl #3]
	.loc	3 1232 21 is_stmt 0             @ ../../../components/platform/soc/rt582/rt582_driver/Src/qspi.c:1232:21
	mov	r0, r4
	movs	r1, #2
.Ltmp314:
.LBB10_12:
	.loc	3 0 0                           @ ../../../components/platform/soc/rt582/rt582_driver/Src/qspi.c:0:0
	strh	r7, [r2]
	pop.w	{r4, r5, r6, r7, r8, lr}
.Ltmp315:
	bx	r3
.Ltmp316:
.Lfunc_end10:
	.size	spi_handler, .Lfunc_end10-spi_handler
	.cfi_endproc
	.cantunwind
	.fnend
                                        @ -- End function
	.section	.text.qspi1_handler,"ax",%progbits
	.hidden	qspi1_handler                   @ -- Begin function qspi1_handler
	.globl	qspi1_handler
	.p2align	1
	.type	qspi1_handler,%function
	.code	16                              @ @qspi1_handler
	.thumb_func
qspi1_handler:
.Lfunc_begin11:
	.loc	3 1254 0 is_stmt 1              @ ../../../components/platform/soc/rt582/rt582_driver/Src/qspi.c:1254:0
	.fnstart
	.cfi_startproc
@ %bb.0:
	.loc	3 1255 5 prologue_end           @ ../../../components/platform/soc/rt582/rt582_driver/Src/qspi.c:1255:5
	movs	r0, #1
.Ltmp317:
	b	spi_handler
.Ltmp318:
.Lfunc_end11:
	.size	qspi1_handler, .Lfunc_end11-qspi1_handler
	.cfi_endproc
	.cantunwind
	.fnend
                                        @ -- End function
	.section	.text.get_qspi_state,"ax",%progbits
	.hidden	get_qspi_state                  @ -- Begin function get_qspi_state
	.globl	get_qspi_state
	.p2align	1
	.type	get_qspi_state,%function
	.code	16                              @ @get_qspi_state
	.thumb_func
get_qspi_state:
.Lfunc_begin12:
	.loc	3 1261 0                        @ ../../../components/platform/soc/rt582/rt582_driver/Src/qspi.c:1261:0
	.fnstart
	.cfi_startproc
@ %bb.0:
	@DEBUG_VALUE: get_qspi_state:qspi_id <- $r0
	@DEBUG_VALUE: get_qspi_state:qspi_id <- $r0
	.loc	3 1262 9 prologue_end           @ ../../../components/platform/soc/rt582/rt582_driver/Src/qspi.c:1262:9
	cmp	r0, #2
	itt	hi
	movhi	r0, #0
.Ltmp319:
	@DEBUG_VALUE: get_qspi_state:qspi_id <- [DW_OP_LLVM_entry_value 1] $r0
	.loc	3 1268 1                        @ ../../../components/platform/soc/rt582/rt582_driver/Src/qspi.c:1268:1
	bxhi	lr
.Ltmp320:
.LBB12_1:
	@DEBUG_VALUE: get_qspi_state:qspi_id <- [DW_OP_LLVM_entry_value 1] $r0
	.loc	3 1267 30                       @ ../../../components/platform/soc/rt582/rt582_driver/Src/qspi.c:1267:30
	movw	r1, :lower16:qspi_cfg
	movt	r1, :upper16:qspi_cfg
	add.w	r0, r1, r0, lsl #3
	ldrh	r0, [r0, #4]
	.loc	3 1268 1                        @ ../../../components/platform/soc/rt582/rt582_driver/Src/qspi.c:1268:1
	bx	lr
.Ltmp321:
.Lfunc_end12:
	.size	get_qspi_state, .Lfunc_end12-get_qspi_state
	.cfi_endproc
	.cantunwind
	.fnend
                                        @ -- End function
	.section	.text.qspi_FIFO_clear,"ax",%progbits
	.hidden	qspi_FIFO_clear                 @ -- Begin function qspi_FIFO_clear
	.globl	qspi_FIFO_clear
	.p2align	1
	.type	qspi_FIFO_clear,%function
	.code	16                              @ @qspi_FIFO_clear
	.thumb_func
qspi_FIFO_clear:
.Lfunc_begin13:
	.loc	3 1271 0                        @ ../../../components/platform/soc/rt582/rt582_driver/Src/qspi.c:1271:0
	.fnstart
	.cfi_startproc
@ %bb.0:
	@DEBUG_VALUE: qspi_FIFO_clear:qspi_id <- $r0
	@DEBUG_VALUE: qspi_FIFO_clear:QSPI <- undef
	movs	r1, #60
	movt	r1, #32768
	@DEBUG_VALUE: qspi_FIFO_clear:qspi_id <- $r0
.Ltmp322:
	.loc	3 1282 11 prologue_end          @ ../../../components/platform/soc/rt582/rt582_driver/Src/qspi.c:1282:11
	cmp	r0, #0
	mov.w	r0, #0
.Ltmp323:
	@DEBUG_VALUE: qspi_FIFO_clear:qspi_id <- [DW_OP_LLVM_entry_value 1] $r0
	it	eq
	addeq.w	r1, r1, #805306368
	.loc	3 1282 19 is_stmt 0             @ ../../../components/platform/soc/rt582/rt582_driver/Src/qspi.c:1282:19
	str	r0, [r1]
.Ltmp324:
	.p2align	2
.LBB13_1:                               @ =>This Inner Loop Header: Depth=1
	@DEBUG_VALUE: qspi_FIFO_clear:qspi_id <- [DW_OP_LLVM_entry_value 1] $r0
	.loc	3 1285 18 is_stmt 1             @ ../../../components/platform/soc/rt582/rt582_driver/Src/qspi.c:1285:18
	ldr	r0, [r1]
	.loc	3 1285 5 is_stmt 0              @ ../../../components/platform/soc/rt582/rt582_driver/Src/qspi.c:1285:5
	cmp	r0, #0
	bne	.LBB13_1
.Ltmp325:
@ %bb.2:
	@DEBUG_VALUE: qspi_FIFO_clear:qspi_id <- [DW_OP_LLVM_entry_value 1] $r0
	.loc	3 0 5                           @ ../../../components/platform/soc/rt582/rt582_driver/Src/qspi.c:0:5
	movs	r0, #1
	.loc	3 1288 19 is_stmt 1             @ ../../../components/platform/soc/rt582/rt582_driver/Src/qspi.c:1288:19
	str	r0, [r1]
	.loc	3 1291 1                        @ ../../../components/platform/soc/rt582/rt582_driver/Src/qspi.c:1291:1
	bx	lr
.Ltmp326:
.Lfunc_end13:
	.size	qspi_FIFO_clear, .Lfunc_end13-qspi_FIFO_clear
	.cfi_endproc
	.cantunwind
	.fnend
                                        @ -- End function
	.type	qspi_cfg,%object                @ @qspi_cfg
	.section	.bss.qspi_cfg,"aw",%nobits
	.p2align	2
qspi_cfg:
	.zero	16
	.size	qspi_cfg, 16

	.section	".note.GNU-stack","",%progbits
	.eabi_attribute	30, 3	@ Tag_ABI_optimization_goals
	.ARM_attribute	16, 1	@ Tag_AV_eba