	.text
	.syntax unified
	.eabi_attribute	67, "2.09"	@ Tag_conformance
	.cpu	cortex-m3
	.eabi_attribute	6, 10	@ Tag_CPU_arch
	.eabi_attribute	7, 77	@ Tag_CPU_arch_profile
	.eabi_attribute	8, 0	@ Tag_ARM_ISA_use
	.eabi_attribute	9, 2	@ Tag_THUMB_ISA_use
	.eabi_attribute	34, 1	@ Tag_CPU_unaligned_access
	.eabi_attribute	17, 1	@ Tag_ABI_PCS_GOT_use
	.eabi_attribute	20, 2	@ Tag_ABI_FP_denormal
	.eabi_attribute	21, 0	@ Tag_ABI_FP_exceptions
	.eabi_attribute	23, 1	@ Tag_ABI_FP_number_model
	.eabi_attribute	24, 1	@ Tag_ABI_align_needed
	.eabi_attribute	25, 1	@ Tag_ABI_align_preserved
	.eabi_attribute	38, 1	@ Tag_ABI_FP_16bit_format
	.eabi_attribute	18, 4	@ Tag_ABI_PCS_wchar_t
	.eabi_attribute	26, 2	@ Tag_ABI_enum_size
	.eabi_attribute	14, 0	@ Tag_ABI_PCS_R9_use
	.file	"random_noncrypto_api.cpp"
	.file	1 "C:\\" "Keil_v5\\ARM\\ARMCLANG\\Bin\\..\\include\\stdint.h"
	.file	2 "C:\\" "Keil_v5\\ARM\\ARMCLANG\\Bin\\..\\include\\stdlib.h"
	.file	3 "C:\\" "Keil_v5\\ARM\\ARMCLANG\\Bin\\..\\include\\ctype.h"
	.file	4 "C:\\" "Keil_v5\\ARM\\ARMCLANG\\Bin\\..\\include\\stdio.h"
	.file	5 "C:\\" "Keil_v5\\ARM\\ARMCLANG\\Bin\\..\\include\\stdarg.h"
	.file	6 "C:\\Users\\testo\\Desktop\\rafael-iot-sdk-das -0515\\examples\\das_subg_thread\\keil" "../../../components/network/thread/subg_openthread/src/core/api/random_noncrypto_api.cpp"
	.section	.text.otRandomNonCryptoGetUint32,"ax",%progbits
	.hidden	otRandomNonCryptoGetUint32      @ -- Begin function otRandomNonCryptoGetUint32
	.globl	otRandomNonCryptoGetUint32
	.p2align	1
	.type	otRandomNonCryptoGetUint32,%function
	.code	16                              @ @otRandomNonCryptoGetUint32
	.thumb_func
otRandomNonCryptoGetUint32:
.Lfunc_begin0:
	.loc	6 40 0                          @ ../../../components/network/thread/subg_openthread/src/core/api/random_noncrypto_api.cpp:40:0
	.fnstart
	.cfi_sections .debug_frame
	.cfi_startproc
@ %bb.0:
	.file	7 "C:\\Users\\testo\\Desktop\\rafael-iot-sdk-das -0515\\examples\\das_subg_thread\\keil" "../../../components/network/thread/subg_openthread/src/core\\common/random.hpp"
	.loc	7 113 42 prologue_end           @ ../../../components/network/thread/subg_openthread/src/core\common/random.hpp:113:42
	b	_ZN2ot6Random7Manager18NonCryptoGetUint32Ev
.Ltmp0:
.Lfunc_end0:
	.size	otRandomNonCryptoGetUint32, .Lfunc_end0-otRandomNonCryptoGetUint32
	.cfi_endproc
	.cantunwind
	.fnend
                                        @ -- End function
	.section	.text.otRandomNonCryptoGetUint8,"ax",%progbits
	.hidden	otRandomNonCryptoGetUint8       @ -- Begin function otRandomNonCryptoGetUint8
	.globl	otRandomNonCryptoGetUint8
	.p2align	1
	.type	otRandomNonCryptoGetUint8,%function
	.code	16                              @ @otRandomNonCryptoGetUint8
	.thumb_func
otRandomNonCryptoGetUint8:
.Lfunc_begin1:
	.loc	6 42 0                          @ ../../../components/network/thread/subg_openthread/src/core/api/random_noncrypto_api.cpp:42:0
	.fnstart
	.cfi_startproc
@ %bb.0:
	.save	{r7, lr}
	push	{r7, lr}
	.cfi_def_cfa_offset 8
	.cfi_offset lr, -4
	.cfi_offset r7, -8
.Ltmp1:
	.loc	7 113 42 prologue_end           @ ../../../components/network/thread/subg_openthread/src/core\common/random.hpp:113:42
	bl	_ZN2ot6Random7Manager18NonCryptoGetUint32Ev
.Ltmp2:
	.loc	6 42 43                         @ ../../../components/network/thread/subg_openthread/src/core/api/random_noncrypto_api.cpp:42:43
	uxtb	r0, r0
	pop	{r7, pc}
.Ltmp3:
.Lfunc_end1:
	.size	otRandomNonCryptoGetUint8, .Lfunc_end1-otRandomNonCryptoGetUint8
	.cfi_endproc
	.cantunwind
	.fnend
                                        @ -- End function
	.section	.text.otRandomNonCryptoGetUint16,"ax",%progbits
	.hidden	otRandomNonCryptoGetUint16      @ -- Begin function otRandomNonCryptoGetUint16
	.globl	otRandomNonCryptoGetUint16
	.p2align	1
	.type	otRandomNonCryptoGetUint16,%function
	.code	16                              @ @otRandomNonCryptoGetUint16
	.thumb_func
otRandomNonCryptoGetUint16:
.Lfunc_begin2:
	.loc	6 44 0                          @ ../../../components/network/thread/subg_openthread/src/core/api/random_noncrypto_api.cpp:44:0
	.fnstart
	.cfi_startproc
@ %bb.0:
	.save	{r7, lr}
	push	{r7, lr}
	.cfi_def_cfa_offset 8
	.cfi_offset lr, -4
	.cfi_offset r7, -8
.Ltmp4:
	.loc	7 113 42 prologue_end           @ ../../../components/network/thread/subg_openthread/src/core\common/random.hpp:113:42
	bl	_ZN2ot6Random7Manager18NonCryptoGetUint32Ev
.Ltmp5:
	.loc	6 44 45                         @ ../../../components/network/thread/subg_openthread/src/core/api/random_noncrypto_api.cpp:44:45
	uxth	r0, r0
	pop	{r7, pc}
.Ltmp6:
.Lfunc_end2:
	.size	otRandomNonCryptoGetUint16, .Lfunc_end2-otRandomNonCryptoGetUint16
	.cfi_endproc
	.cantunwind
	.fnend
                                        @ -- End function
	.section	.text.otRandomNonCryptoGetUint8InRange,"ax",%progbits
	.hidden	otRandomNonCryptoGetUint8InRange @ -- Begin function otRandomNonCryptoGetUint8InRange
	.globl	otRandomNonCryptoGetUint8InRange
	.p2align	1
	.type	otRandomNonCryptoGetUint8InRange,%function
	.code	16                              @ @otRandomNonCryptoGetUint8InRange
	.thumb_func
otRandomNonCryptoGetUint8InRange:
.Lfunc_begin3:
	.loc	6 47 0                          @ ../../../components/network/thread/subg_openthread/src/core/api/random_noncrypto_api.cpp:47:0
	.fnstart
	.cfi_startproc
@ %bb.0:
	@DEBUG_VALUE: otRandomNonCryptoGetUint8InRange:aMin <- $r0
	@DEBUG_VALUE: otRandomNonCryptoGetUint8InRange:aMin <- $r0
	@DEBUG_VALUE: otRandomNonCryptoGetUint8InRange:aMin <- $r0
	@DEBUG_VALUE: otRandomNonCryptoGetUint8InRange:aMax <- $r1
	@DEBUG_VALUE: otRandomNonCryptoGetUint8InRange:aMax <- $r1
	@DEBUG_VALUE: otRandomNonCryptoGetUint8InRange:aMax <- $r1
	.loc	6 48 12 prologue_end            @ ../../../components/network/thread/subg_openthread/src/core/api/random_noncrypto_api.cpp:48:12
	b	_ZN2ot6Random9NonCrypto15GetUint8InRangeEhh
.Ltmp7:
.Lfunc_end3:
	.size	otRandomNonCryptoGetUint8InRange, .Lfunc_end3-otRandomNonCryptoGetUint8InRange
	.cfi_endproc
	.cantunwind
	.fnend
                                        @ -- End function
	.section	.text.otRandomNonCryptoGetUint16InRange,"ax",%progbits
	.hidden	otRandomNonCryptoGetUint16InRange @ -- Begin function otRandomNonCryptoGetUint16InRange
	.globl	otRandomNonCryptoGetUint16InRange
	.p2align	1
	.type	otRandomNonCryptoGetUint16InRange,%function
	.code	16                              @ @otRandomNonCryptoGetUint16InRange
	.thumb_func
otRandomNonCryptoGetUint16InRange:
.Lfunc_begin4:
	.loc	6 52 0                          @ ../../../components/network/thread/subg_openthread/src/core/api/random_noncrypto_api.cpp:52:0
	.fnstart
	.cfi_startproc
@ %bb.0:
	@DEBUG_VALUE: otRandomNonCryptoGetUint16InRange:aMin <- $r0
	@DEBUG_VALUE: otRandomNonCryptoGetUint16InRange:aMin <- $r0
	@DEBUG_VALUE: otRandomNonCryptoGetUint16InRange:aMin <- $r0
	@DEBUG_VALUE: otRandomNonCryptoGetUint16InRange:aMax <- $r1
	@DEBUG_VALUE: otRandomNonCryptoGetUint16InRange:aMax <- $r1
	@DEBUG_VALUE: otRandomNonCryptoGetUint16InRange:aMax <- $r1
	.loc	6 53 12 prologue_end            @ ../../../components/network/thread/subg_openthread/src/core/api/random_noncrypto_api.cpp:53:12
	b	_ZN2ot6Random9NonCrypto16GetUint16InRangeEtt
.Ltmp8:
.Lfunc_end4:
	.size	otRandomNonCryptoGetUint16InRange, .Lfunc_end4-otRandomNonCryptoGetUint16InRange
	.cfi_endproc
	.cantunwind
	.fnend
                                        @ -- End function
	.section	.text.otRandomNonCryptoGetUint32InRange,"ax",%progbits
	.hidden	otRandomNonCryptoGetUint32InRange @ -- Begin function otRandomNonCryptoGetUint32InRange
	.globl	otRandomNonCryptoGetUint32InRange
	.p2align	1
	.type	otRandomNonCryptoGetUint32InRange,%function
	.code	16                              @ @otRandomNonCryptoGetUint32InRange
	.thumb_func
otRandomNonCryptoGetUint32InRange:
.Lfunc_begin5:
	.loc	6 57 0                          @ ../../../components/network/thread/subg_openthread/src/core/api/random_noncrypto_api.cpp:57:0
	.fnstart
	.cfi_startproc
@ %bb.0:
	@DEBUG_VALUE: otRandomNonCryptoGetUint32InRange:aMin <- $r0
	@DEBUG_VALUE: otRandomNonCryptoGetUint32InRange:aMin <- $r0
	@DEBUG_VALUE: otRandomNonCryptoGetUint32InRange:aMin <- $r0
	@DEBUG_VALUE: otRandomNonCryptoGetUint32InRange:aMax <- $r1
	@DEBUG_VALUE: otRandomNonCryptoGetUint32InRange:aMax <- $r1
	@DEBUG_VALUE: otRandomNonCryptoGetUint32InRange:aMax <- $r1
	.loc	6 58 12 prologue_end            @ ../../../components/network/thread/subg_openthread/src/core/api/random_noncrypto_api.cpp:58:12
	b	_ZN2ot6Random9NonCrypto16GetUint32InRangeEjj
.Ltmp9:
.Lfunc_end5:
	.size	otRandomNonCryptoGetUint32InRange, .Lfunc_end5-otRandomNonCryptoGetUint32InRange
	.cfi_endproc
	.cantunwind
	.fnend
                                        @ -- End function
	.section	.text.otRandomNonCryptoFillBuffer,"ax",%progbits
	.hidden	otRandomNonCryptoFillBuffer     @ -- Begin function otRandomNonCryptoFillBuffer
	.globl	otRandomNonCryptoFillBuffer
	.p2align	1
	.type	otRandomNonCryptoFillBuffer,%function
	.code	16                              @ @otRandomNonCryptoFillBuffer
	.thumb_func
otRandomNonCryptoFillBuffer:
.Lfunc_begin6:
	.loc	6 61 0                          @ ../../../components/network/thread/subg_openthread/src/core/api/random_noncrypto_api.cpp:61:0
	.fnstart
	.cfi_startproc
@ %bb.0:
	@DEBUG_VALUE: otRandomNonCryptoFillBuffer:aBuffer <- $r0
	@DEBUG_VALUE: otRandomNonCryptoFillBuffer:aBuffer <- $r0
	@DEBUG_VALUE: otRandomNonCryptoFillBuffer:aBuffer <- $r0
	@DEBUG_VALUE: otRandomNonCryptoFillBuffer:aSize <- $r1
	@DEBUG_VALUE: otRandomNonCryptoFillBuffer:aSize <- $r1
	@DEBUG_VALUE: otRandomNonCryptoFillBuffer:aSize <- $r1
	.loc	6 61 70 prologue_end            @ ../../../components/network/thread/subg_openthread/src/core/api/random_noncrypto_api.cpp:61:70
	b	_ZN2ot6Random9NonCrypto10FillBufferEPht
.Ltmp10:
.Lfunc_end6:
	.size	otRandomNonCryptoFillBuffer, .Lfunc_end6-otRandomNonCryptoFillBuffer
	.cfi_endproc
	.cantunwind
	.fnend
                                        @ -- End function
	.section	.text.otRandomNonCryptoAddJitter,"ax",%progbits
	.hidden	otRandomNonCryptoAddJitter      @ -- Begin function otRandomNonCryptoAddJitter
	.globl	otRandomNonCryptoAddJitter
	.p2align	1
	.type	otRandomNonCryptoAddJitter,%function
	.code	16                              @ @otRandomNonCryptoAddJitter
	.thumb_func
otRandomNonCryptoAddJitter:
.Lfunc_begin7:
	.loc	6 64 0                          @ ../../../components/network/thread/subg_openthread/src/core/api/random_noncrypto_api.cpp:64:0
	.fnstart
	.cfi_startproc
@ %bb.0:
	@DEBUG_VALUE: otRandomNonCryptoAddJitter:aValue <- $r0
	@DEBUG_VALUE: otRandomNonCryptoAddJitter:aValue <- $r0
	@DEBUG_VALUE: otRandomNonCryptoAddJitter:aValue <- $r0
	@DEBUG_VALUE: otRandomNonCryptoAddJitter:aJitter <- $r1
	@DEBUG_VALUE: otRandomNonCryptoAddJitter:aJitter <- $r1
	@DEBUG_VALUE: otRandomNonCryptoAddJitter:aJitter <- $r1
	.loc	6 65 12 prologue_end            @ ../../../components/network/thread/subg_openthread/src/core/api/random_noncrypto_api.cpp:65:12
	b	_ZN2ot6Random9NonCrypto9AddJitterEjt
.Ltmp11:
.Lfunc_end7:
	.size	otRandomNonCryptoAddJitter, .Lfunc_end7-otRandomNonCryptoAddJitter
	.cfi_endproc
	.cantunwind
	.fnend
                                        @ -- End function
	.section	".note.GNU-stack","",%progbits
	.eabi_attribute	30, 3	@ Tag_ABI_optimization_goals
	.ARM_attribute	16, 1	@ Tag_AV_eba