	.text
	.syntax unified
	.eabi_attribute	67, "2.09"	@ Tag_conformance
	.cpu	cortex-m3
	.eabi_attribute	6, 10	@ Tag_CPU_arch
	.eabi_attribute	7, 77	@ Tag_CPU_arch_profile
	.eabi_attribute	8, 0	@ Tag_ARM_ISA_use
	.eabi_attribute	9, 2	@ Tag_THUMB_ISA_use
	.eabi_attribute	34, 1	@ Tag_CPU_unaligned_access
	.eabi_attribute	17, 1	@ Tag_ABI_PCS_GOT_use
	.eabi_attribute	20, 2	@ Tag_ABI_FP_denormal
	.eabi_attribute	21, 0	@ Tag_ABI_FP_exceptions
	.eabi_attribute	23, 1	@ Tag_ABI_FP_number_model
	.eabi_attribute	24, 1	@ Tag_ABI_align_needed
	.eabi_attribute	25, 1	@ Tag_ABI_align_preserved
	.eabi_attribute	38, 1	@ Tag_ABI_FP_16bit_format
	.eabi_attribute	18, 4	@ Tag_ABI_PCS_wchar_t
	.eabi_attribute	26, 2	@ Tag_ABI_enum_size
	.eabi_attribute	14, 0	@ Tag_ABI_PCS_R9_use
	.file	"rt_crypto.c"
	.file	1 "C:\\Keil_v5\\ARM\\ARMCLANG\\Bin\\..\\include" "stdint.h"
	.file	2 "D:\\20240115\\rafael-iot-sdk-das\\examples\\das_subg_thread\\keil" "../../../components/platform/soc/rt582/rt582_crypto/rt_crypto.c"
	.file	3 "D:\\20240115\\rafael-iot-sdk-das\\examples\\das_subg_thread\\keil" "../../../components/platform/soc/rt582/rt582_crypto/Inc/rt_ecc.h"
	.file	4 "D:\\20240115\\rafael-iot-sdk-das\\examples\\das_subg_thread\\keil" "../../../components/platform/soc/rt582/rt582_driver/Inc/crypto_reg.h"
	.section	.text.crypto_start,"ax",%progbits
	.hidden	crypto_start                    @ -- Begin function crypto_start
	.globl	crypto_start
	.p2align	1
	.type	crypto_start,%function
	.code	16                              @ @crypto_start
	.thumb_func
crypto_start:
.Lfunc_begin0:
	.loc	2 44 0                          @ ../../../components/platform/soc/rt582/rt582_crypto/rt_crypto.c:44:0
	.fnstart
	.cfi_sections .debug_frame
	.cfi_startproc
@ %bb.0:
	@DEBUG_VALUE: crypto_start:op_num <- $r0
	@DEBUG_VALUE: crypto_start:sb_num <- $r1
	movw	r12, #0
	movt	r12, #41184
	@DEBUG_VALUE: crypto_start:sb_num <- $r1
	@DEBUG_VALUE: crypto_start:op_num <- $r0
.Ltmp0:
	.loc	2 52 12 prologue_end            @ ../../../components/platform/soc/rt582/rt582_crypto/rt_crypto.c:52:12
	ldr.w	r3, [r12]
.Ltmp1:
	@DEBUG_VALUE: crypto_start:reg <- $r3
	.loc	2 0 12 is_stmt 0                @ ../../../components/platform/soc/rt582/rt582_crypto/rt_crypto.c:0:12
	movw	r2, #57344
	movt	r2, #65534
	.loc	2 53 55 is_stmt 1               @ ../../../components/platform/soc/rt582/rt582_crypto/rt_crypto.c:53:55
	and	r1, r1, #31
.Ltmp2:
	@DEBUG_VALUE: crypto_start:sb_num <- [DW_OP_LLVM_entry_value 1] $r1
	.loc	2 53 16 is_stmt 0               @ ../../../components/platform/soc/rt582/rt582_crypto/rt_crypto.c:53:16
	ands	r2, r3
	.loc	2 53 44                         @ ../../../components/platform/soc/rt582/rt582_crypto/rt_crypto.c:53:44
	orr.w	r0, r0, r1, lsl #8
.Ltmp3:
	@DEBUG_VALUE: crypto_start:op_num <- [DW_OP_LLVM_entry_value 1] $r0
	.loc	2 53 84                         @ ../../../components/platform/soc/rt582/rt582_crypto/rt_crypto.c:53:84
	add	r0, r2
	add.w	r0, r0, #65536
.Ltmp4:
	@DEBUG_VALUE: crypto_start:reg <- $r0
	.loc	2 54 5 is_stmt 1                @ ../../../components/platform/soc/rt582/rt582_crypto/rt_crypto.c:54:5
	str.w	r0, [r12]
	.loc	2 56 1                          @ ../../../components/platform/soc/rt582/rt582_crypto/rt_crypto.c:56:1
	bx	lr
.Ltmp5:
.Lfunc_end0:
	.size	crypto_start, .Lfunc_end0-crypto_start
	.cfi_endproc
	.cantunwind
	.fnend
                                        @ -- End function
	.section	.text.crypto_mutex_lock,"ax",%progbits
	.hidden	crypto_mutex_lock               @ -- Begin function crypto_mutex_lock
	.globl	crypto_mutex_lock
	.p2align	1
	.type	crypto_mutex_lock,%function
	.code	16                              @ @crypto_mutex_lock
	.thumb_func
crypto_mutex_lock:
.Lfunc_begin1:
	.loc	2 64 0                          @ ../../../components/platform/soc/rt582/rt582_crypto/rt_crypto.c:64:0
	.fnstart
	.cfi_startproc
@ %bb.0:
	.loc	2 69 5 prologue_end             @ ../../../components/platform/soc/rt582/rt582_crypto/rt_crypto.c:69:5
	bx	lr
.Ltmp6:
.Lfunc_end1:
	.size	crypto_mutex_lock, .Lfunc_end1-crypto_mutex_lock
	.cfi_endproc
	.cantunwind
	.fnend
                                        @ -- End function
	.section	.text.crypto_mutex_unlock,"ax",%progbits
	.hidden	crypto_mutex_unlock             @ -- Begin function crypto_mutex_unlock
	.globl	crypto_mutex_unlock
	.p2align	1
	.type	crypto_mutex_unlock,%function
	.code	16                              @ @crypto_mutex_unlock
	.thumb_func
crypto_mutex_unlock:
.Lfunc_begin2:
	.loc	2 73 0                          @ ../../../components/platform/soc/rt582/rt582_crypto/rt_crypto.c:73:0
	.fnstart
	.cfi_startproc
@ %bb.0:
	.loc	2 79 5 prologue_end             @ ../../../components/platform/soc/rt582/rt582_crypto/rt_crypto.c:79:5
	bx	lr
.Ltmp7:
.Lfunc_end2:
	.size	crypto_mutex_unlock, .Lfunc_end2-crypto_mutex_unlock
	.cfi_endproc
	.cantunwind
	.fnend
                                        @ -- End function
	.section	.text.aes_fw_load,"ax",%progbits
	.hidden	aes_fw_load                     @ -- Begin function aes_fw_load
	.globl	aes_fw_load
	.p2align	1
	.type	aes_fw_load,%function
	.code	16                              @ @aes_fw_load
	.thumb_func
aes_fw_load:
.Lfunc_begin3:
	.loc	2 147 0                         @ ../../../components/platform/soc/rt582/rt582_crypto/rt_crypto.c:147:0
	.fnstart
	.cfi_startproc
@ %bb.0:
	.save	{r4, r5, r7, lr}
	push	{r4, r5, r7, lr}
	.cfi_def_cfa_offset 16
	.cfi_offset lr, -4
	.cfi_offset r7, -8
	.cfi_offset r5, -12
	.cfi_offset r4, -16
.Ltmp8:
	.loc	2 151 5 prologue_end            @ ../../../components/platform/soc/rt582/rt582_crypto/rt_crypto.c:151:5
	movw	r1, :lower16:aes_cipher_bin
	movw	r0, #1088
	movt	r1, :upper16:aes_cipher_bin
	movt	r0, #41184
	movs	r2, #132
	bl	__aeabi_memcpy4
.Ltmp9:
	@DEBUG_VALUE: aes_fw_load:target_addr <- undef
	.loc	2 154 5                         @ ../../../components/platform/soc/rt582/rt582_crypto/rt_crypto.c:154:5
	movw	r1, :lower16:aes_cipher_inv_bin
	movw	r0, #1280
	movt	r1, :upper16:aes_cipher_inv_bin
	movt	r0, #41184
	movs	r2, #184
	bl	__aeabi_memcpy4
.Ltmp10:
	@DEBUG_VALUE: aes_fw_load:target_addr <- undef
	.loc	2 157 5                         @ ../../../components/platform/soc/rt582/rt582_crypto/rt_crypto.c:157:5
	movw	r0, :lower16:aes_enc_boot_bin
	movt	r0, :upper16:aes_enc_boot_bin
	ldrd	r12, r2, [r0]
	ldrd	r3, r0, [r0, #8]
	movw	r1, #1036
	movt	r1, #41184
	str	r0, [r1]
	movw	r0, #1032
	movt	r0, #41184
	str	r3, [r0]
	movw	r0, #1028
	movt	r0, #41184
	str	r2, [r0]
	movw	r0, #1024
	movt	r0, #41184
	str.w	r12, [r0]
	@DEBUG_VALUE: aes_fw_load:target_addr <- undef
	.loc	2 160 5                         @ ../../../components/platform/soc/rt582/rt582_crypto/rt_crypto.c:160:5
	movw	r0, :lower16:aes_cbc_enc_bin
	movt	r0, :upper16:aes_cbc_enc_bin
	ldrd	r2, r4, [r0, #16]
	movw	r5, #1524
	movt	r5, #41184
	str	r4, [r5]
	movw	r4, #1520
	movt	r4, #41184
	ldrd	r3, r1, [r0, #8]
	str	r2, [r4]
	movw	r2, #1516
	movt	r2, #41184
	str	r1, [r2]
	movw	r1, #1512
	movt	r1, #41184
	ldrd	r12, lr, [r0]
	str	r3, [r1]
	movw	r1, #1508
	movt	r1, #41184
	str.w	lr, [r1]
	movw	r1, #1504
	movt	r1, #41184
	str.w	r12, [r1]
	ldrd	r4, r1, [r0, #40]
	movw	r2, #1548
	movt	r2, #41184
	str	r1, [r2]
	movw	r1, #1544
	movt	r1, #41184
	ldrd	r3, r5, [r0, #32]
	str	r4, [r1]
	movw	r1, #1540
	movt	r1, #41184
	str	r5, [r1]
	movw	r1, #1536
	movt	r1, #41184
	ldrd	r12, lr, [r0, #24]
	str	r3, [r1]
	movw	r1, #1532
	movt	r1, #41184
	str.w	lr, [r1]
	movw	r1, #1528
	movt	r1, #41184
	str.w	r12, [r1]
	ldr	r0, [r0, #48]
	movw	r1, #1552
	movt	r1, #41184
	str	r0, [r1]
	@DEBUG_VALUE: aes_fw_load:target_addr <- undef
	.loc	2 163 5                         @ ../../../components/platform/soc/rt582/rt582_crypto/rt_crypto.c:163:5
	movw	r0, :lower16:aes_ctr_bin
	movt	r0, :upper16:aes_ctr_bin
	ldrd	r4, r1, [r0, #16]
	movw	r2, #1684
	movt	r2, #41184
	str	r1, [r2]
	movw	r1, #1680
	movt	r1, #41184
	ldrd	r3, r5, [r0, #8]
	str	r4, [r1]
	movw	r1, #1676
	movt	r1, #41184
	str	r5, [r1]
	movw	r1, #1672
	movt	r1, #41184
	ldrd	r12, lr, [r0]
	str	r3, [r1]
	movw	r1, #1668
	movt	r1, #41184
	str.w	lr, [r1]
	movw	r1, #1664
	movt	r1, #41184
	str.w	r12, [r1]
	ldrd	r4, r1, [r0, #40]
	movw	r2, #1708
	movt	r2, #41184
	str	r1, [r2]
	movw	r1, #1704
	movt	r1, #41184
	ldrd	r3, r5, [r0, #32]
	str	r4, [r1]
	movw	r1, #1700
	movt	r1, #41184
	str	r5, [r1]
	movw	r1, #1696
	movt	r1, #41184
	ldrd	r12, lr, [r0, #24]
	str	r3, [r1]
	movw	r1, #1692
	add.w	r3, r0, #48
	ldr	r0, [r0, #60]
	movw	r5, #1724
	movt	r1, #41184
	movt	r5, #41184
	str.w	lr, [r1]
	movw	r1, #1688
	str	r0, [r5]
	movw	r0, #1720
	movt	r1, #41184
	movt	r0, #41184
	str.w	r12, [r1]
	ldm	r3, {r1, r2, r3}
	str	r3, [r0]
	movw	r0, #1716
	movt	r0, #41184
	str	r2, [r0]
	movw	r0, #1712
	movt	r0, #41184
	str	r1, [r0]
	@DEBUG_VALUE: aes_fw_load:target_addr <- undef
	.loc	2 165 1                         @ ../../../components/platform/soc/rt582/rt582_crypto/rt_crypto.c:165:1
	pop	{r4, r5, r7, pc}
.Ltmp11:
.Lfunc_end3:
	.size	aes_fw_load, .Lfunc_end3-aes_fw_load
	.cfi_endproc
	.cantunwind
	.fnend
                                        @ -- End function
	.section	.text.aes_encryption,"ax",%progbits
	.hidden	aes_encryption                  @ -- Begin function aes_encryption
	.globl	aes_encryption
	.p2align	1
	.type	aes_encryption,%function
	.code	16                              @ @aes_encryption
	.thumb_func
aes_encryption:
.Lfunc_begin4:
	.loc	2 168 0                         @ ../../../components/platform/soc/rt582/rt582_crypto/rt_crypto.c:168:0
	.fnstart
	.cfi_startproc
@ %bb.0:
	@DEBUG_VALUE: aes_encryption:round <- $r0
	@DEBUG_VALUE: aes_encryption:in_buf <- $r1
	@DEBUG_VALUE: aes_encryption:out_buf <- $r2
	.save	{r4, r5, r6, lr}
	push	{r4, r5, r6, lr}
	.cfi_def_cfa_offset 16
	.cfi_offset lr, -4
	.cfi_offset r6, -8
	.cfi_offset r5, -12
	.cfi_offset r4, -16
	movw	r5, #3824
	movt	r5, #41184
.Ltmp12:
	@DEBUG_VALUE: aes_encryption:out_buf <- $r4
	@DEBUG_VALUE: aes_encryption:in_buf <- $r1
	@DEBUG_VALUE: aes_encryption:round <- $r6
	mov	r4, r2
.Ltmp13:
	mov	r6, r0
.Ltmp14:
	.loc	2 170 5 prologue_end            @ ../../../components/platform/soc/rt582/rt582_crypto/rt_crypto.c:170:5
	mov	r0, r5
	@DEBUG_VALUE: aes_encryption:in_buf <- $r1
	movs	r2, #4
	bl	crypto_copy
.Ltmp15:
	@DEBUG_VALUE: aes_encryption:in_buf <- [DW_OP_LLVM_entry_value 1] $r1
	.loc	2 177 5                         @ ../../../components/platform/soc/rt582/rt582_crypto/rt_crypto.c:177:5
	movw	r1, :lower16:aes_enc_boot_bin
	sub.w	r0, r5, #2800
	movt	r1, :upper16:aes_enc_boot_bin
	movs	r2, #4
	bl	crypto_copy
.Ltmp16:
	.loc	2 184 64                        @ ../../../components/platform/soc/rt582/rt582_crypto/rt_crypto.c:184:64
	subs	r0, r6, #1
	movw	r3, #61712
	.loc	2 184 56 is_stmt 0              @ ../../../components/platform/soc/rt582/rt582_crypto/rt_crypto.c:184:56
	str	r0, [r5, #80]
	movt	r3, #65535
.Ltmp17:
	@DEBUG_VALUE: crypto_start:sb_num <- 0
	@DEBUG_VALUE: crypto_start:op_num <- 3
	.loc	2 52 12 is_stmt 1               @ ../../../components/platform/soc/rt582/rt582_crypto/rt_crypto.c:52:12
	ldr	r0, [r5, r3]
.Ltmp18:
	@DEBUG_VALUE: crypto_start:reg <- $r0
	.loc	2 0 12 is_stmt 0                @ ../../../components/platform/soc/rt582/rt582_crypto/rt_crypto.c:0:12
	movw	r1, #57344
	movt	r1, #65534
	.loc	2 53 16 is_stmt 1               @ ../../../components/platform/soc/rt582/rt582_crypto/rt_crypto.c:53:16
	ands	r0, r1
.Ltmp19:
	.loc	2 53 84 is_stmt 0               @ ../../../components/platform/soc/rt582/rt582_crypto/rt_crypto.c:53:84
	orr	r0, r0, #65536
	orr	r0, r0, #3
.Ltmp20:
	@DEBUG_VALUE: crypto_start:reg <- $r0
	.loc	2 54 5 is_stmt 1                @ ../../../components/platform/soc/rt582/rt582_crypto/rt_crypto.c:54:5
	str	r0, [r5, r3]
.Ltmp21:
	.p2align	2
.LBB4_1:                                @ =>This Inner Loop Header: Depth=1
	@DEBUG_VALUE: aes_encryption:in_buf <- [DW_OP_LLVM_entry_value 1] $r1
	.loc	2 197 36                        @ ../../../components/platform/soc/rt582/rt582_crypto/rt_crypto.c:197:36
	ldr	r0, [r5, r3]
	.loc	2 197 5 is_stmt 0               @ ../../../components/platform/soc/rt582/rt582_crypto/rt_crypto.c:197:5
	lsls	r0, r0, #7
	bpl	.LBB4_1
.Ltmp22:
@ %bb.2:
	@DEBUG_VALUE: aes_encryption:in_buf <- [DW_OP_LLVM_entry_value 1] $r1
	.loc	2 200 43 is_stmt 1              @ ../../../components/platform/soc/rt582/rt582_crypto/rt_crypto.c:200:43
	ldr	r0, [r5, r3]
	.loc	2 204 5                         @ ../../../components/platform/soc/rt582/rt582_crypto/rt_crypto.c:204:5
	mov	r1, r5
	.loc	2 200 43                        @ ../../../components/platform/soc/rt582/rt582_crypto/rt_crypto.c:200:43
	orr	r6, r0, #-2147483648
	.loc	2 204 5                         @ ../../../components/platform/soc/rt582/rt582_crypto/rt_crypto.c:204:5
	mov	r0, r4
	movs	r2, #4
	.loc	2 200 43                        @ ../../../components/platform/soc/rt582/rt582_crypto/rt_crypto.c:200:43
	str	r6, [r5, r3]
	.loc	2 204 5                         @ ../../../components/platform/soc/rt582/rt582_crypto/rt_crypto.c:204:5
	pop.w	{r4, r5, r6, lr}
.Ltmp23:
	b	crypto_copy
.Ltmp24:
.Lfunc_end4:
	.size	aes_encryption, .Lfunc_end4-aes_encryption
	.cfi_endproc
	.file	5 "D:\\20240115\\rafael-iot-sdk-das\\examples\\das_subg_thread\\keil" "../../../components/platform/soc/rt582/rt582_crypto/Inc/rt_crypto_util.h"
	.cantunwind
	.fnend
                                        @ -- End function
	.section	.text.aes_decryption,"ax",%progbits
	.hidden	aes_decryption                  @ -- Begin function aes_decryption
	.globl	aes_decryption
	.p2align	1
	.type	aes_decryption,%function
	.code	16                              @ @aes_decryption
	.thumb_func
aes_decryption:
.Lfunc_begin5:
	.loc	2 209 0                         @ ../../../components/platform/soc/rt582/rt582_crypto/rt_crypto.c:209:0
	.fnstart
	.cfi_startproc
@ %bb.0:
	@DEBUG_VALUE: aes_decryption:round <- $r0
	@DEBUG_VALUE: aes_decryption:in_buf <- $r1
	@DEBUG_VALUE: aes_decryption:out_buf <- $r2
	.save	{r4, r5, r6, lr}
	push	{r4, r5, r6, lr}
	.cfi_def_cfa_offset 16
	.cfi_offset lr, -4
	.cfi_offset r6, -8
	.cfi_offset r5, -12
	.cfi_offset r4, -16
	movw	r5, #3824
	movt	r5, #41184
.Ltmp25:
	@DEBUG_VALUE: aes_decryption:out_buf <- $r4
	@DEBUG_VALUE: aes_decryption:in_buf <- $r1
	@DEBUG_VALUE: aes_decryption:round <- $r6
	mov	r4, r2
.Ltmp26:
	mov	r6, r0
.Ltmp27:
	.loc	2 210 5 prologue_end            @ ../../../components/platform/soc/rt582/rt582_crypto/rt_crypto.c:210:5
	mov	r0, r5
	@DEBUG_VALUE: aes_decryption:in_buf <- $r1
	movs	r2, #4
	bl	crypto_copy
.Ltmp28:
	@DEBUG_VALUE: aes_decryption:in_buf <- [DW_OP_LLVM_entry_value 1] $r1
	.loc	2 213 64                        @ ../../../components/platform/soc/rt582/rt582_crypto/rt_crypto.c:213:64
	subs	r0, r6, #1
	.loc	2 213 56 is_stmt 0              @ ../../../components/platform/soc/rt582/rt582_crypto/rt_crypto.c:213:56
	str	r0, [r5, #80]
	mov.w	r0, #260
	movw	r1, #3924
	.loc	2 214 64 is_stmt 1              @ ../../../components/platform/soc/rt582/rt582_crypto/rt_crypto.c:214:64
	add.w	r0, r0, r6, lsl #2
	movt	r1, #41184
	.loc	2 214 56 is_stmt 0              @ ../../../components/platform/soc/rt582/rt582_crypto/rt_crypto.c:214:56
	str	r0, [r1]
	movw	r0, #62736
	movs	r1, #64
	movt	r0, #65535
	movt	r1, #40960
	movw	r3, #61712
	.loc	2 216 52 is_stmt 1              @ ../../../components/platform/soc/rt582/rt582_crypto/rt_crypto.c:216:52
	str	r1, [r5, r0]
	movt	r3, #65535
.Ltmp29:
	@DEBUG_VALUE: crypto_start:sb_num <- 0
	@DEBUG_VALUE: crypto_start:op_num <- 3
	.loc	2 52 12                         @ ../../../components/platform/soc/rt582/rt582_crypto/rt_crypto.c:52:12
	ldr	r0, [r5, r3]
.Ltmp30:
	@DEBUG_VALUE: crypto_start:reg <- $r0
	.loc	2 0 12 is_stmt 0                @ ../../../components/platform/soc/rt582/rt582_crypto/rt_crypto.c:0:12
	movw	r1, #57344
	movt	r1, #65534
	.loc	2 53 16 is_stmt 1               @ ../../../components/platform/soc/rt582/rt582_crypto/rt_crypto.c:53:16
	ands	r0, r1
.Ltmp31:
	.loc	2 53 84 is_stmt 0               @ ../../../components/platform/soc/rt582/rt582_crypto/rt_crypto.c:53:84
	orr	r0, r0, #65536
	orr	r0, r0, #3
.Ltmp32:
	@DEBUG_VALUE: crypto_start:reg <- $r0
	.loc	2 54 5 is_stmt 1                @ ../../../components/platform/soc/rt582/rt582_crypto/rt_crypto.c:54:5
	str	r0, [r5, r3]
.Ltmp33:
	.p2align	2
.LBB5_1:                                @ =>This Inner Loop Header: Depth=1
	@DEBUG_VALUE: aes_decryption:in_buf <- [DW_OP_LLVM_entry_value 1] $r1
	.loc	2 228 36                        @ ../../../components/platform/soc/rt582/rt582_crypto/rt_crypto.c:228:36
	ldr	r0, [r5, r3]
	.loc	2 228 5 is_stmt 0               @ ../../../components/platform/soc/rt582/rt582_crypto/rt_crypto.c:228:5
	lsls	r0, r0, #7
	bpl	.LBB5_1
.Ltmp34:
@ %bb.2:
	@DEBUG_VALUE: aes_decryption:in_buf <- [DW_OP_LLVM_entry_value 1] $r1
	.loc	2 231 43 is_stmt 1              @ ../../../components/platform/soc/rt582/rt582_crypto/rt_crypto.c:231:43
	ldr	r0, [r5, r3]
	.loc	2 235 5                         @ ../../../components/platform/soc/rt582/rt582_crypto/rt_crypto.c:235:5
	mov	r1, r5
	.loc	2 231 43                        @ ../../../components/platform/soc/rt582/rt582_crypto/rt_crypto.c:231:43
	orr	r6, r0, #-2147483648
	.loc	2 235 5                         @ ../../../components/platform/soc/rt582/rt582_crypto/rt_crypto.c:235:5
	mov	r0, r4
	movs	r2, #4
	.loc	2 231 43                        @ ../../../components/platform/soc/rt582/rt582_crypto/rt_crypto.c:231:43
	str	r6, [r5, r3]
	.loc	2 235 5                         @ ../../../components/platform/soc/rt582/rt582_crypto/rt_crypto.c:235:5
	pop.w	{r4, r5, r6, lr}
.Ltmp35:
	b	crypto_copy
.Ltmp36:
.Lfunc_end5:
	.size	aes_decryption, .Lfunc_end5-aes_decryption
	.cfi_endproc
	.cantunwind
	.fnend
                                        @ -- End function
	.section	.text.gfp_point_p256_mult,"ax",%progbits
	.hidden	gfp_point_p256_mult             @ -- Begin function gfp_point_p256_mult
	.globl	gfp_point_p256_mult
	.p2align	1
	.type	gfp_point_p256_mult,%function
	.code	16                              @ @gfp_point_p256_mult
	.thumb_func
gfp_point_p256_mult:
.Lfunc_begin6:
	.loc	2 1225 0                        @ ../../../components/platform/soc/rt582/rt582_crypto/rt_crypto.c:1225:0
	.fnstart
	.cfi_startproc
@ %bb.0:
	@DEBUG_VALUE: gfp_point_p256_mult:p_result_point <- $r0
	@DEBUG_VALUE: gfp_point_p256_mult:p_based_point <- $r1
	@DEBUG_VALUE: gfp_point_p256_mult:p_target_k <- $r2
	.save	{r4, r5, r6, r7, r8, r9, r10, r11, lr}
	push.w	{r4, r5, r6, r7, r8, r9, r10, r11, lr}
	.cfi_def_cfa_offset 36
	.cfi_offset lr, -4
	.cfi_offset r11, -8
	.cfi_offset r10, -12
	.cfi_offset r9, -16
	.cfi_offset r8, -20
	.cfi_offset r7, -24
	.cfi_offset r6, -28
	.cfi_offset r5, -32
	.cfi_offset r4, -36
	.pad	#12
	sub	sp, #12
	.cfi_def_cfa_offset 48
	movw	r7, #3108
	movt	r7, #41184
.Ltmp37:
	.loc	2 1228 5 prologue_end           @ ../../../components/platform/soc/rt582/rt582_crypto/rt_crypto.c:1228:5
	add.w	r10, r7, #252
	mov	r11, r2
.Ltmp38:
	@DEBUG_VALUE: gfp_point_p256_mult:p_target_k <- $r11
	.loc	2 0 5 is_stmt 0                 @ ../../../components/platform/soc/rt582/rt582_crypto/rt_crypto.c:0:5
	str	r0, [sp, #8]                    @ 4-byte Spill
.Ltmp39:
	@DEBUG_VALUE: gfp_point_p256_mult:p_result_point <- [DW_OP_plus_uconst 8] [$sp+0]
	movw	r8, #57344
	movs	r5, #0
	movw	r9, #8
	.loc	2 1228 5                        @ ../../../components/platform/soc/rt582/rt582_crypto/rt_crypto.c:1228:5
	mov	r0, r10
	movs	r2, #8
	mov	r4, r1
	movt	r8, #65534
	movt	r5, #41184
	movt	r9, #1
	@DEBUG_VALUE: gfp_point_p256_mult:p_target_k <- $r11
.Ltmp40:
	@DEBUG_VALUE: gfp_point_p256_mult:p_based_point <- $r4
	@DEBUG_VALUE: gfp_point_p256_mult:p_result_point <- [DW_OP_plus_uconst 8] [$sp+0]
	bl	crypto_parm_copy_p1
.Ltmp41:
	.loc	2 1229 75 is_stmt 1             @ ../../../components/platform/soc/rt582/rt582_crypto/rt_crypto.c:1229:75
	add.w	r6, r4, #32
	.loc	2 1229 5 is_stmt 0              @ ../../../components/platform/soc/rt582/rt582_crypto/rt_crypto.c:1229:5
	add.w	r0, r7, #836
	mov	r1, r6
	movs	r2, #8
	str	r0, [sp, #4]                    @ 4-byte Spill
	bl	crypto_parm_copy_p1
.Ltmp42:
	.loc	2 1231 5 is_stmt 1              @ ../../../components/platform/soc/rt582/rt582_crypto/rt_crypto.c:1231:5
	add.w	r0, r7, #72
	mov	r1, r11
.Ltmp43:
	@DEBUG_VALUE: gfp_point_p256_mult:p_target_k <- $r1
	movs	r2, #8
	bl	crypto_parm_copy_p1
.Ltmp44:
	.loc	2 1233 5                        @ ../../../components/platform/soc/rt582/rt582_crypto/rt_crypto.c:1233:5
	mov	r0, r7
	mov	r1, r4
	movs	r2, #8
	bl	crypto_parm_copy_p1
.Ltmp45:
	.loc	2 1234 5                        @ ../../../components/platform/soc/rt582/rt582_crypto/rt_crypto.c:1234:5
	add.w	r0, r7, #36
	mov	r1, r6
	movs	r2, #8
	bl	crypto_parm_copy_p1
.Ltmp46:
	.loc	2 1237 5                        @ ../../../components/platform/soc/rt582/rt582_crypto/rt_crypto.c:1237:5
	movw	r1, :lower16:gfp_point_mult_p256_bin1
	movw	r0, #1024
	movt	r1, :upper16:gfp_point_mult_p256_bin1
	movt	r0, #41184
	mov.w	r2, #384
	bl	__aeabi_memcpy4
.Ltmp47:
	@DEBUG_VALUE: crypto_start:sb_num <- 0
	@DEBUG_VALUE: crypto_start:op_num <- 8
	.loc	2 52 12                         @ ../../../components/platform/soc/rt582/rt582_crypto/rt_crypto.c:52:12
	ldr	r0, [r5]
.Ltmp48:
	@DEBUG_VALUE: crypto_start:reg <- $r0
	.loc	2 53 16                         @ ../../../components/platform/soc/rt582/rt582_crypto/rt_crypto.c:53:16
	and.w	r0, r0, r8
.Ltmp49:
	.loc	2 53 84 is_stmt 0               @ ../../../components/platform/soc/rt582/rt582_crypto/rt_crypto.c:53:84
	orr.w	r0, r0, r9
.Ltmp50:
	@DEBUG_VALUE: crypto_start:reg <- $r0
	.loc	2 54 5 is_stmt 1                @ ../../../components/platform/soc/rt582/rt582_crypto/rt_crypto.c:54:5
	str	r0, [r5]
.Ltmp51:
	@DEBUG_VALUE: gfp_point_p256_mult:target_addr <- undef
	.p2align	2
.LBB6_1:                                @ =>This Inner Loop Header: Depth=1
	@DEBUG_VALUE: gfp_point_p256_mult:p_based_point <- $r4
	@DEBUG_VALUE: gfp_point_p256_mult:p_result_point <- [DW_OP_plus_uconst 8] [$sp+0]
	.loc	2 1249 36                       @ ../../../components/platform/soc/rt582/rt582_crypto/rt_crypto.c:1249:36
	ldr	r0, [r5]
	.loc	2 1249 5 is_stmt 0              @ ../../../components/platform/soc/rt582/rt582_crypto/rt_crypto.c:1249:5
	lsls	r0, r0, #7
	bpl	.LBB6_1
.Ltmp52:
@ %bb.2:
	@DEBUG_VALUE: gfp_point_p256_mult:p_based_point <- $r4
	@DEBUG_VALUE: gfp_point_p256_mult:p_result_point <- [DW_OP_plus_uconst 8] [$sp+0]
	.loc	2 1252 43 is_stmt 1             @ ../../../components/platform/soc/rt582/rt582_crypto/rt_crypto.c:1252:43
	ldr	r0, [r5]
	orr	r0, r0, #-2147483648
	str	r0, [r5]
.Ltmp53:
	.loc	2 1255 9                        @ ../../../components/platform/soc/rt582/rt582_crypto/rt_crypto.c:1255:9
	ldr.w	r0, [r7, #476]
.Ltmp54:
	.loc	2 1255 9 is_stmt 0              @ ../../../components/platform/soc/rt582/rt582_crypto/rt_crypto.c:1255:9
	cbz	r0, .LBB6_4
.Ltmp55:
.LBB6_3:
	@DEBUG_VALUE: gfp_point_p256_mult:p_based_point <- $r4
	@DEBUG_VALUE: gfp_point_p256_mult:p_result_point <- [DW_OP_plus_uconst 8] [$sp+0]
	.loc	2 0 9                           @ ../../../components/platform/soc/rt582/rt582_crypto/rt_crypto.c:0:9
	movs	r0, #1
	b	.LBB6_10
.Ltmp56:
.LBB6_4:
	@DEBUG_VALUE: gfp_point_p256_mult:p_based_point <- $r4
	@DEBUG_VALUE: gfp_point_p256_mult:p_result_point <- [DW_OP_plus_uconst 8] [$sp+0]
	.loc	2 1167 5 is_stmt 1              @ ../../../components/platform/soc/rt582/rt582_crypto/rt_crypto.c:1167:5
	movw	r1, :lower16:gfp_inv_p256_bin
	movw	r0, #1664
	movt	r1, :upper16:gfp_inv_p256_bin
	movt	r0, #41184
	movs	r2, #220
	bl	__aeabi_memcpy4
.Ltmp57:
	.loc	2 1271 9                        @ ../../../components/platform/soc/rt582/rt582_crypto/rt_crypto.c:1271:9
	ldr.w	r0, [r5, #1024]
.Ltmp58:
	.loc	2 1271 9 is_stmt 0              @ ../../../components/platform/soc/rt582/rt582_crypto/rt_crypto.c:1271:9
	adds	r1, r0, #1
	@DEBUG_VALUE: gfp_inv_p256:target_addr <- undef
.Ltmp59:
	@DEBUG_VALUE: gfp_point_p256_mult:target_addr <- undef
	beq	.LBB6_3
.Ltmp60:
@ %bb.5:
	@DEBUG_VALUE: gfp_point_p256_mult:p_based_point <- $r4
	@DEBUG_VALUE: gfp_point_p256_mult:p_result_point <- [DW_OP_plus_uconst 8] [$sp+0]
	cmp	r0, #1
	beq	.LBB6_9
.Ltmp61:
@ %bb.6:
	@DEBUG_VALUE: gfp_point_p256_mult:p_based_point <- $r4
	@DEBUG_VALUE: gfp_point_p256_mult:p_result_point <- [DW_OP_plus_uconst 8] [$sp+0]
	.loc	2 1284 5 is_stmt 1              @ ../../../components/platform/soc/rt582/rt582_crypto/rt_crypto.c:1284:5
	movw	r1, :lower16:gfp_point_mult_p256_bin2
	movw	r0, #1024
	movt	r1, :upper16:gfp_point_mult_p256_bin2
	movt	r0, #41184
	mov.w	r2, #260
	bl	__aeabi_memcpy4
.Ltmp62:
	@DEBUG_VALUE: crypto_start:sb_num <- 0
	@DEBUG_VALUE: crypto_start:op_num <- 8
	.loc	2 52 12                         @ ../../../components/platform/soc/rt582/rt582_crypto/rt_crypto.c:52:12
	ldr	r0, [r5]
.Ltmp63:
	@DEBUG_VALUE: crypto_start:reg <- $r0
	.loc	2 53 16                         @ ../../../components/platform/soc/rt582/rt582_crypto/rt_crypto.c:53:16
	and.w	r0, r0, r8
.Ltmp64:
	.loc	2 53 84 is_stmt 0               @ ../../../components/platform/soc/rt582/rt582_crypto/rt_crypto.c:53:84
	orr.w	r0, r0, r9
.Ltmp65:
	@DEBUG_VALUE: crypto_start:reg <- $r0
	.loc	2 54 5 is_stmt 1                @ ../../../components/platform/soc/rt582/rt582_crypto/rt_crypto.c:54:5
	str	r0, [r5]
.Ltmp66:
	.p2align	2
.LBB6_7:                                @ =>This Inner Loop Header: Depth=1
	@DEBUG_VALUE: gfp_point_p256_mult:p_based_point <- $r4
	@DEBUG_VALUE: gfp_point_p256_mult:p_result_point <- [DW_OP_plus_uconst 8] [$sp+0]
	.loc	2 1297 36                       @ ../../../components/platform/soc/rt582/rt582_crypto/rt_crypto.c:1297:36
	ldr	r0, [r5]
	.loc	2 1297 5 is_stmt 0              @ ../../../components/platform/soc/rt582/rt582_crypto/rt_crypto.c:1297:5
	lsls	r0, r0, #7
	bpl	.LBB6_7
.Ltmp67:
@ %bb.8:
	@DEBUG_VALUE: gfp_point_p256_mult:p_based_point <- $r4
	@DEBUG_VALUE: gfp_point_p256_mult:p_result_point <- [DW_OP_plus_uconst 8] [$sp+0]
	.loc	2 1300 43 is_stmt 1             @ ../../../components/platform/soc/rt582/rt582_crypto/rt_crypto.c:1300:43
	ldr	r0, [r5]
	orr	r0, r0, #-2147483648
	str	r0, [r5]
.Ltmp68:
.LBB6_9:
	@DEBUG_VALUE: gfp_point_p256_mult:p_based_point <- $r4
	@DEBUG_VALUE: gfp_point_p256_mult:p_result_point <- [DW_OP_plus_uconst 8] [$sp+0]
	.loc	2 0 43 is_stmt 0                @ ../../../components/platform/soc/rt582/rt582_crypto/rt_crypto.c:0:43
	ldr	r4, [sp, #8]                    @ 4-byte Reload
.Ltmp69:
	mov	r1, r10
	mov	r0, r4
	movs	r2, #8
	bl	crypto_copy
.Ltmp70:
	ldr	r1, [sp, #4]                    @ 4-byte Reload
	add.w	r0, r4, #32
	movs	r2, #8
	bl	crypto_copy
.Ltmp71:
	movs	r0, #0
.Ltmp72:
.LBB6_10:
	@DEBUG_VALUE: gfp_point_p256_mult:p_result_point <- [DW_OP_plus_uconst 8] [$sp+0]
	.loc	2 1314 1 is_stmt 1              @ ../../../components/platform/soc/rt582/rt582_crypto/rt_crypto.c:1314:1
	add	sp, #12
	pop.w	{r4, r5, r6, r7, r8, r9, r10, r11, pc}
.Ltmp73:
.Lfunc_end6:
	.size	gfp_point_p256_mult, .Lfunc_end6-gfp_point_p256_mult
	.cfi_endproc
	.cantunwind
	.fnend
                                        @ -- End function
	.section	.text.gfp_ecc_curve_p256_init,"ax",%progbits
	.hidden	gfp_ecc_curve_p256_init         @ -- Begin function gfp_ecc_curve_p256_init
	.globl	gfp_ecc_curve_p256_init
	.p2align	1
	.type	gfp_ecc_curve_p256_init,%function
	.code	16                              @ @gfp_ecc_curve_p256_init
	.thumb_func
gfp_ecc_curve_p256_init:
.Lfunc_begin7:
	.loc	2 1317 0                        @ ../../../components/platform/soc/rt582/rt582_crypto/rt_crypto.c:1317:0
	.fnstart
	.cfi_startproc
@ %bb.0:
	.save	{r4, lr}
	push	{r4, lr}
	.cfi_def_cfa_offset 8
	.cfi_offset lr, -4
	.cfi_offset r4, -8
	movw	r4, #3620
	movt	r4, #41184
.Ltmp74:
	.loc	2 1323 5 prologue_end           @ ../../../components/platform/soc/rt582/rt582_crypto/rt_crypto.c:1323:5
	movw	r1, :lower16:polynomial_p256
	sub.w	r0, r4, #548
	movt	r1, :upper16:polynomial_p256
	movs	r2, #8
	bl	crypto_parm_copy_p1
.Ltmp75:
	.loc	2 1324 5                        @ ../../../components/platform/soc/rt582/rt582_crypto/rt_crypto.c:1324:5
	movw	r1, :lower16:const_0_p256
	add.w	r0, r4, #72
	movt	r1, :upper16:const_0_p256
	movs	r2, #8
	bl	crypto_parm_copy_p1
.Ltmp76:
	.loc	2 1325 5                        @ ../../../components/platform/soc/rt582/rt582_crypto/rt_crypto.c:1325:5
	movw	r1, :lower16:const_1_p256
	add.w	r0, r4, #108
	movt	r1, :upper16:const_1_p256
	movs	r2, #8
	bl	crypto_parm_copy_p1
.Ltmp77:
	.loc	2 1326 5                        @ ../../../components/platform/soc/rt582/rt582_crypto/rt_crypto.c:1326:5
	movw	r1, :lower16:order_sub1_p256
	movt	r1, :upper16:order_sub1_p256
	mov	r0, r4
	movs	r2, #8
	bl	crypto_parm_copy_p1
.Ltmp78:
	.loc	2 1177 5                        @ ../../../components/platform/soc/rt582/rt582_crypto/rt_crypto.c:1177:5
	movw	r1, :lower16:gfp_modMultFast_p256_bin
	movw	r0, #2784
	movt	r1, :upper16:gfp_modMultFast_p256_bin
	movt	r0, #41184
	mov.w	r2, #272
	bl	__aeabi_memcpy4
.Ltmp79:
	.loc	2 1216 5                        @ ../../../components/platform/soc/rt582/rt582_crypto/rt_crypto.c:1216:5
	movw	r1, :lower16:gfp_applyz_p256_bin
	movw	r0, #2644
	movt	r1, :upper16:gfp_applyz_p256_bin
	movt	r0, #41184
	movs	r2, #128
	bl	__aeabi_memcpy4
.Ltmp80:
	.loc	2 1207 5                        @ ../../../components/platform/soc/rt582/rt582_crypto/rt_crypto.c:1207:5
	movw	r1, :lower16:gfp_double_jacobian_p256_bin
	movw	r0, #1884
	movt	r1, :upper16:gfp_double_jacobian_p256_bin
	movt	r0, #41184
	mov.w	r2, #404
	bl	__aeabi_memcpy4
.Ltmp81:
	.loc	2 1187 5                        @ ../../../components/platform/soc/rt582/rt582_crypto/rt_crypto.c:1187:5
	movw	r1, :lower16:gfp_xyczadd_p256_bin
	movw	r0, #2304
	movt	r1, :upper16:gfp_xyczadd_p256_bin
	movt	r0, #41184
	mov.w	r2, #340
	bl	__aeabi_memcpy4
.Ltmp82:
	.loc	2 1197 5                        @ ../../../components/platform/soc/rt582/rt582_crypto/rt_crypto.c:1197:5
	movw	r1, :lower16:gfp_xyczaddc_p256_bin
	movw	r0, #1424
	movt	r1, :upper16:gfp_xyczaddc_p256_bin
	movt	r0, #41184
	mov.w	r2, #456
	bl	__aeabi_memcpy4
.Ltmp83:
	.loc	2 1334 5                        @ ../../../components/platform/soc/rt582/rt582_crypto/rt_crypto.c:1334:5
	movs	r0, #0
	@DEBUG_VALUE: gfp_xyczaddc_p256:target_addr <- undef
	@DEBUG_VALUE: gfp_xyczadd_p256:target_addr <- undef
	@DEBUG_VALUE: gfp_double_jacobian_p256:target_addr <- undef
	@DEBUG_VALUE: gfp_applyz_p256:target_addr <- undef
	@DEBUG_VALUE: gfp_modMultFast_p256:target_addr <- undef
	pop	{r4, pc}
.Ltmp84:
.Lfunc_end7:
	.size	gfp_ecc_curve_p256_init, .Lfunc_end7-gfp_ecc_curve_p256_init
	.cfi_endproc
	.cantunwind
	.fnend
                                        @ -- End function
	.section	.text.gfp_ecdsa_p256_verify_bin,"ax",%progbits
	.hidden	gfp_ecdsa_p256_verify_bin       @ -- Begin function gfp_ecdsa_p256_verify_bin
	.globl	gfp_ecdsa_p256_verify_bin
	.p2align	1
	.type	gfp_ecdsa_p256_verify_bin,%function
	.code	16                              @ @gfp_ecdsa_p256_verify_bin
	.thumb_func
gfp_ecdsa_p256_verify_bin:
.Lfunc_begin8:
	.loc	2 1338 0                        @ ../../../components/platform/soc/rt582/rt582_crypto/rt_crypto.c:1338:0
	.fnstart
	.cfi_startproc
@ %bb.0:
	.save	{r7, lr}
	push	{r7, lr}
	.cfi_def_cfa_offset 8
	.cfi_offset lr, -4
	.cfi_offset r7, -8
.Ltmp85:
	.loc	2 1344 5 prologue_end           @ ../../../components/platform/soc/rt582/rt582_crypto/rt_crypto.c:1344:5
	movw	r1, :lower16:gfp_ecdsa_verify_p256_bin
	movw	r0, #1024
	movt	r1, :upper16:gfp_ecdsa_verify_p256_bin
	movt	r0, #41184
	mov.w	r2, #624
	bl	__aeabi_memcpy4
.Ltmp86:
	@DEBUG_VALUE: gfp_ecdsa_p256_verify_bin:target_addr <- undef
	.loc	2 1346 1                        @ ../../../components/platform/soc/rt582/rt582_crypto/rt_crypto.c:1346:1
	pop	{r7, pc}
.Ltmp87:
.Lfunc_end8:
	.size	gfp_ecdsa_p256_verify_bin, .Lfunc_end8-gfp_ecdsa_p256_verify_bin
	.cfi_endproc
	.cantunwind
	.fnend
                                        @ -- End function
	.section	.text.gfp_ecdsa_p256_verify,"ax",%progbits
	.hidden	gfp_ecdsa_p256_verify           @ -- Begin function gfp_ecdsa_p256_verify
	.globl	gfp_ecdsa_p256_verify
	.p2align	1
	.type	gfp_ecdsa_p256_verify,%function
	.code	16                              @ @gfp_ecdsa_p256_verify
	.thumb_func
gfp_ecdsa_p256_verify:
.Lfunc_begin9:
	.loc	2 1397 0                        @ ../../../components/platform/soc/rt582/rt582_crypto/rt_crypto.c:1397:0
	.fnstart
	.cfi_startproc
@ %bb.0:
	@DEBUG_VALUE: gfp_ecdsa_p256_verify:p_signature <- $r0
	@DEBUG_VALUE: gfp_ecdsa_p256_verify:p_hash <- $r1
	@DEBUG_VALUE: gfp_ecdsa_p256_verify:p_public_key <- $r2
	@DEBUG_VALUE: vli_isZero:p_vli <- $r0
	.save	{r4, r5, r6, r7, r8, r9, r10, lr}
	push.w	{r4, r5, r6, r7, r8, r9, r10, lr}
	.cfi_def_cfa_offset 32
	.cfi_offset lr, -4
	.cfi_offset r10, -8
	.cfi_offset r9, -12
	.cfi_offset r8, -16
	.cfi_offset r7, -20
	.cfi_offset r6, -24
	.cfi_offset r5, -28
	.cfi_offset r4, -32
	mov	r9, r2
.Ltmp88:
	@DEBUG_VALUE: gfp_ecdsa_p256_verify:p_public_key <- $r9
	mov	r10, r1
.Ltmp89:
	@DEBUG_VALUE: gfp_ecdsa_p256_verify:p_hash <- $r10
	mov	r1, r0
	movs	r0, #0
.Ltmp90:
	@DEBUG_VALUE: gfp_ecdsa_p256_verify:p_signature <- [DW_OP_LLVM_entry_value 1] $r0
	@DEBUG_VALUE: vli_isZero:i <- 0
	@DEBUG_VALUE: vli_isZero:p_vli <- $r1
	@DEBUG_VALUE: gfp_ecdsa_p256_verify:p_public_key <- $r9
	@DEBUG_VALUE: gfp_ecdsa_p256_verify:p_hash <- $r10
	@DEBUG_VALUE: gfp_ecdsa_p256_verify:p_signature <- $r1
	.p2align	2
.LBB9_1:                                @ =>This Inner Loop Header: Depth=1
	@DEBUG_VALUE: gfp_ecdsa_p256_verify:p_hash <- $r10
	@DEBUG_VALUE: gfp_ecdsa_p256_verify:p_public_key <- $r9
	@DEBUG_VALUE: gfp_ecdsa_p256_verify:p_signature <- $r1
	@DEBUG_VALUE: vli_isZero:p_vli <- $r1
	@DEBUG_VALUE: vli_isZero:i <- $r0
	.loc	2 1368 13 prologue_end          @ ../../../components/platform/soc/rt582/rt582_crypto/rt_crypto.c:1368:13
	ldr.w	r2, [r1, r0, lsl #2]
.Ltmp91:
	@DEBUG_VALUE: vli_isZero:i <- [DW_OP_plus_uconst 1, DW_OP_stack_value] $r0
	.loc	2 0 13 is_stmt 0                @ ../../../components/platform/soc/rt582/rt582_crypto/rt_crypto.c:0:13
	cbnz	r2, .LBB9_3
.Ltmp92:
@ %bb.2:                                @   in Loop: Header=BB9_1 Depth=1
	@DEBUG_VALUE: gfp_ecdsa_p256_verify:p_hash <- $r10
	@DEBUG_VALUE: gfp_ecdsa_p256_verify:p_public_key <- $r9
	@DEBUG_VALUE: gfp_ecdsa_p256_verify:p_signature <- $r1
	@DEBUG_VALUE: vli_isZero:p_vli <- $r1
	@DEBUG_VALUE: vli_isZero:i <- [DW_OP_plus_uconst 1, DW_OP_stack_value] $r0
	.loc	2 1366 39 is_stmt 1             @ ../../../components/platform/soc/rt582/rt582_crypto/rt_crypto.c:1366:39
	adds	r0, #1
.Ltmp93:
	@DEBUG_VALUE: vli_isZero:i <- [DW_OP_plus_uconst 1, DW_OP_stack_value] $r0
	.loc	2 1366 5 is_stmt 0              @ ../../../components/platform/soc/rt582/rt582_crypto/rt_crypto.c:1366:5
	cmp	r0, #8
	bne	.LBB9_1
	b	.LBB9_6
.Ltmp94:
.LBB9_3:
	@DEBUG_VALUE: gfp_ecdsa_p256_verify:p_hash <- $r10
	@DEBUG_VALUE: gfp_ecdsa_p256_verify:p_public_key <- $r9
	@DEBUG_VALUE: gfp_ecdsa_p256_verify:p_signature <- $r1
	.loc	2 1399 76 is_stmt 1             @ ../../../components/platform/soc/rt582/rt582_crypto/rt_crypto.c:1399:76
	add.w	r6, r1, #32
	movs	r0, #0
	@DEBUG_VALUE: vli_isZero:i <- 0
	@DEBUG_VALUE: vli_isZero:p_vli <- $r6
.Ltmp95:
	.p2align	2
.LBB9_4:                                @ =>This Inner Loop Header: Depth=1
	@DEBUG_VALUE: gfp_ecdsa_p256_verify:p_hash <- $r10
	@DEBUG_VALUE: gfp_ecdsa_p256_verify:p_public_key <- $r9
	@DEBUG_VALUE: vli_isZero:p_vli <- $r6
	@DEBUG_VALUE: gfp_ecdsa_p256_verify:p_signature <- $r1
	@DEBUG_VALUE: vli_isZero:i <- $r0
	.loc	2 1368 13                       @ ../../../components/platform/soc/rt582/rt582_crypto/rt_crypto.c:1368:13
	ldr.w	r2, [r6, r0, lsl #2]
.Ltmp96:
	@DEBUG_VALUE: vli_isZero:i <- [DW_OP_plus_uconst 1, DW_OP_stack_value] $r0
	.loc	2 1368 13 is_stmt 0             @ ../../../components/platform/soc/rt582/rt582_crypto/rt_crypto.c:1368:13
	cbnz	r2, .LBB9_7
.Ltmp97:
@ %bb.5:                                @   in Loop: Header=BB9_4 Depth=1
	@DEBUG_VALUE: gfp_ecdsa_p256_verify:p_hash <- $r10
	@DEBUG_VALUE: gfp_ecdsa_p256_verify:p_public_key <- $r9
	@DEBUG_VALUE: vli_isZero:p_vli <- $r6
	@DEBUG_VALUE: gfp_ecdsa_p256_verify:p_signature <- $r1
	@DEBUG_VALUE: vli_isZero:i <- [DW_OP_plus_uconst 1, DW_OP_stack_value] $r0
	.loc	2 1366 39 is_stmt 1             @ ../../../components/platform/soc/rt582/rt582_crypto/rt_crypto.c:1366:39
	adds	r0, #1
.Ltmp98:
	@DEBUG_VALUE: vli_isZero:i <- [DW_OP_plus_uconst 1, DW_OP_stack_value] $r0
	.loc	2 1366 5 is_stmt 0              @ ../../../components/platform/soc/rt582/rt582_crypto/rt_crypto.c:1366:5
	cmp	r0, #8
	bne	.LBB9_4
.Ltmp99:
.LBB9_6:
	@DEBUG_VALUE: gfp_ecdsa_p256_verify:p_hash <- $r10
	@DEBUG_VALUE: gfp_ecdsa_p256_verify:p_public_key <- $r9
	@DEBUG_VALUE: gfp_ecdsa_p256_verify:p_signature <- $r1
	.loc	2 0 5                           @ ../../../components/platform/soc/rt582/rt582_crypto/rt_crypto.c:0:5
	movs	r0, #5
	.loc	2 1439 1 is_stmt 1              @ ../../../components/platform/soc/rt582/rt582_crypto/rt_crypto.c:1439:1
	pop.w	{r4, r5, r6, r7, r8, r9, r10, pc}
.Ltmp100:
.LBB9_7:
	@DEBUG_VALUE: gfp_ecdsa_p256_verify:p_hash <- $r10
	@DEBUG_VALUE: gfp_ecdsa_p256_verify:p_public_key <- $r9
	@DEBUG_VALUE: vli_isZero:p_vli <- $r6
	@DEBUG_VALUE: gfp_ecdsa_p256_verify:p_signature <- $r1
	@DEBUG_VALUE: vli_isZero:i <- [DW_OP_plus_uconst 1, DW_OP_stack_value] $r0
	.loc	2 0 1 is_stmt 0                 @ ../../../components/platform/soc/rt582/rt582_crypto/rt_crypto.c:0:1
	movw	r2, :lower16:order_p256
	movs	r3, #28
	movt	r2, :upper16:order_p256
	movs	r0, #5
.Ltmp101:
	.p2align	2
.LBB9_8:                                @ =>This Inner Loop Header: Depth=1
	@DEBUG_VALUE: gfp_ecdsa_p256_verify:p_signature <- $r1
	@DEBUG_VALUE: vli_cmp:i <- undef
	.loc	2 1382 13 is_stmt 1             @ ../../../components/platform/soc/rt582/rt582_crypto/rt_crypto.c:1382:13
	ldr	r7, [r2, r3]
	.loc	2 1382 25 is_stmt 0             @ ../../../components/platform/soc/rt582/rt582_crypto/rt_crypto.c:1382:25
	ldr	r4, [r1, r3]
.Ltmp102:
	.loc	2 1382 13                       @ ../../../components/platform/soc/rt582/rt582_crypto/rt_crypto.c:1382:13
	cmp	r7, r4
	bhi	.LBB9_12
.Ltmp103:
@ %bb.9:                                @   in Loop: Header=BB9_8 Depth=1
	@DEBUG_VALUE: gfp_ecdsa_p256_verify:p_signature <- $r1
	@DEBUG_VALUE: vli_cmp:i <- [DW_OP_constu 1, DW_OP_minus, DW_OP_stack_value] undef
	.loc	2 1386 18 is_stmt 1             @ ../../../components/platform/soc/rt582/rt582_crypto/rt_crypto.c:1386:18
	cmp	r3, #0
.Ltmp104:
	.loc	2 1439 1                        @ ../../../components/platform/soc/rt582/rt582_crypto/rt_crypto.c:1439:1
	it	eq
	popeq.w	{r4, r5, r6, r7, r8, r9, r10, pc}
.Ltmp105:
.LBB9_10:                               @   in Loop: Header=BB9_8 Depth=1
	@DEBUG_VALUE: gfp_ecdsa_p256_verify:p_signature <- $r1
	.loc	2 1386 18                       @ ../../../components/platform/soc/rt582/rt582_crypto/rt_crypto.c:1386:18
	cmp	r7, r4
	sub.w	r3, r3, #4
	bhs	.LBB9_8
.Ltmp106:
.LBB9_11:
	@DEBUG_VALUE: gfp_ecdsa_p256_verify:p_signature <- $r1
	.loc	2 1439 1                        @ ../../../components/platform/soc/rt582/rt582_crypto/rt_crypto.c:1439:1
	pop.w	{r4, r5, r6, r7, r8, r9, r10, pc}
.Ltmp107:
.LBB9_12:
	@DEBUG_VALUE: gfp_ecdsa_p256_verify:p_signature <- $r1
	.loc	2 1380 5                        @ ../../../components/platform/soc/rt582/rt582_crypto/rt_crypto.c:1380:5
	add.w	r3, r1, #60
	movs	r7, #0
.Ltmp108:
	.p2align	2
.LBB9_13:                               @ =>This Inner Loop Header: Depth=1
	@DEBUG_VALUE: gfp_ecdsa_p256_verify:p_signature <- $r1
	@DEBUG_VALUE: vli_cmp:i <- [DW_OP_plus_uconst 7, DW_OP_stack_value] $r7
	.loc	2 1382 13                       @ ../../../components/platform/soc/rt582/rt582_crypto/rt_crypto.c:1382:13
	add.w	r0, r2, r7, lsl #2
	ldr	r4, [r0, #28]
	.loc	2 1382 25 is_stmt 0             @ ../../../components/platform/soc/rt582/rt582_crypto/rt_crypto.c:1382:25
	ldr.w	r5, [r3, r7, lsl #2]
.Ltmp109:
	.loc	2 1382 13                       @ ../../../components/platform/soc/rt582/rt582_crypto/rt_crypto.c:1382:13
	cmp	r4, r5
	bhi	.LBB9_16
.Ltmp110:
@ %bb.14:                               @   in Loop: Header=BB9_13 Depth=1
	@DEBUG_VALUE: vli_cmp:i <- [DW_OP_plus_uconst 7, DW_OP_stack_value] $r7
	@DEBUG_VALUE: gfp_ecdsa_p256_verify:p_signature <- $r1
	@DEBUG_VALUE: vli_cmp:i <- [DW_OP_plus_uconst 7, DW_OP_constu 1, DW_OP_minus, DW_OP_stack_value] $r7
	.loc	2 1386 18 is_stmt 1             @ ../../../components/platform/soc/rt582/rt582_crypto/rt_crypto.c:1386:18
	adds	r0, r7, #7
	mov.w	r0, #5
	beq	.LBB9_11
.Ltmp111:
@ %bb.15:                               @   in Loop: Header=BB9_13 Depth=1
	@DEBUG_VALUE: vli_cmp:i <- [DW_OP_plus_uconst 7, DW_OP_constu 1, DW_OP_minus, DW_OP_stack_value] $r7
	@DEBUG_VALUE: gfp_ecdsa_p256_verify:p_signature <- $r1
	cmp	r4, r5
	sub.w	r7, r7, #1
.Ltmp112:
	bhs	.LBB9_13
	b	.LBB9_11
.Ltmp113:
.LBB9_16:
	@DEBUG_VALUE: gfp_ecdsa_p256_verify:p_signature <- $r1
	.loc	2 0 18 is_stmt 0                @ ../../../components/platform/soc/rt582/rt582_crypto/rt_crypto.c:0:18
	movw	r8, #3764
	movt	r8, #41184
	movs	r7, #0
	.loc	2 1411 5 is_stmt 1              @ ../../../components/platform/soc/rt582/rt582_crypto/rt_crypto.c:1411:5
	add.w	r0, r8, #36
	movs	r2, #8
	movt	r7, #41184
	bl	crypto_parm_copy_p1
.Ltmp114:
	.loc	2 1412 5                        @ ../../../components/platform/soc/rt582/rt582_crypto/rt_crypto.c:1412:5
	mov	r0, r8
	mov	r1, r6
	movs	r2, #8
	bl	crypto_parm_copy_p1
.Ltmp115:
	.loc	2 1413 5                        @ ../../../components/platform/soc/rt582/rt582_crypto/rt_crypto.c:1413:5
	add.w	r0, r8, #144
	mov	r1, r10
	movs	r2, #8
	bl	crypto_parm_copy_p1
.Ltmp116:
	.loc	2 1414 5                        @ ../../../components/platform/soc/rt582/rt582_crypto/rt_crypto.c:1414:5
	add.w	r0, r8, #72
	mov	r1, r9
	movs	r2, #8
	bl	crypto_parm_copy_p1
.Ltmp117:
	.loc	2 1415 73                       @ ../../../components/platform/soc/rt582/rt582_crypto/rt_crypto.c:1415:73
	add.w	r1, r9, #32
	.loc	2 1415 5 is_stmt 0              @ ../../../components/platform/soc/rt582/rt582_crypto/rt_crypto.c:1415:5
	add.w	r0, r8, #108
	movs	r2, #8
	bl	crypto_parm_copy_p1
.Ltmp118:
	@DEBUG_VALUE: crypto_start:sb_num <- 0
	@DEBUG_VALUE: crypto_start:op_num <- 8
	.loc	2 52 12 is_stmt 1               @ ../../../components/platform/soc/rt582/rt582_crypto/rt_crypto.c:52:12
	ldr	r0, [r7]
.Ltmp119:
	@DEBUG_VALUE: crypto_start:reg <- $r0
	.loc	2 0 12 is_stmt 0                @ ../../../components/platform/soc/rt582/rt582_crypto/rt_crypto.c:0:12
	movw	r1, #57344
	movt	r1, #65534
	.loc	2 53 16 is_stmt 1               @ ../../../components/platform/soc/rt582/rt582_crypto/rt_crypto.c:53:16
	ands	r0, r1
.Ltmp120:
	.loc	2 53 84 is_stmt 0               @ ../../../components/platform/soc/rt582/rt582_crypto/rt_crypto.c:53:84
	orr	r0, r0, #65536
	orr	r0, r0, #8
.Ltmp121:
	@DEBUG_VALUE: crypto_start:reg <- $r0
	.loc	2 54 5 is_stmt 1                @ ../../../components/platform/soc/rt582/rt582_crypto/rt_crypto.c:54:5
	str	r0, [r7]
.Ltmp122:
	.p2align	2
.LBB9_17:                               @ =>This Inner Loop Header: Depth=1
	.loc	2 1429 36                       @ ../../../components/platform/soc/rt582/rt582_crypto/rt_crypto.c:1429:36
	ldr	r0, [r7]
	.loc	2 1429 5 is_stmt 0              @ ../../../components/platform/soc/rt582/rt582_crypto/rt_crypto.c:1429:5
	lsls	r0, r0, #7
	bpl	.LBB9_17
@ %bb.18:
	.loc	2 1432 43 is_stmt 1             @ ../../../components/platform/soc/rt582/rt582_crypto/rt_crypto.c:1432:43
	ldr	r0, [r7]
	orr	r0, r0, #-2147483648
	str	r0, [r7]
	.loc	2 1437 13                       @ ../../../components/platform/soc/rt582/rt582_crypto/rt_crypto.c:1437:13
	ldr.w	r0, [r7, #3584]
	.loc	2 1437 12 is_stmt 0             @ ../../../components/platform/soc/rt582/rt582_crypto/rt_crypto.c:1437:12
	subs	r0, #1
	it	ne
	movne	r0, #5
	.loc	2 1439 1 is_stmt 1              @ ../../../components/platform/soc/rt582/rt582_crypto/rt_crypto.c:1439:1
	pop.w	{r4, r5, r6, r7, r8, r9, r10, pc}
.Ltmp123:
.Lfunc_end9:
	.size	gfp_ecdsa_p256_verify, .Lfunc_end9-gfp_ecdsa_p256_verify
	.cfi_endproc
	.cantunwind
	.fnend
                                        @ -- End function
	.section	.text.gfp_ecdsa_p256_verify_init,"ax",%progbits
	.hidden	gfp_ecdsa_p256_verify_init      @ -- Begin function gfp_ecdsa_p256_verify_init
	.globl	gfp_ecdsa_p256_verify_init
	.p2align	1
	.type	gfp_ecdsa_p256_verify_init,%function
	.code	16                              @ @gfp_ecdsa_p256_verify_init
	.thumb_func
gfp_ecdsa_p256_verify_init:
.Lfunc_begin10:
	.loc	2 1442 0                        @ ../../../components/platform/soc/rt582/rt582_crypto/rt_crypto.c:1442:0
	.fnstart
	.cfi_startproc
@ %bb.0:
	.save	{r4, r5, r7, lr}
	push	{r4, r5, r7, lr}
	.cfi_def_cfa_offset 16
	.cfi_offset lr, -4
	.cfi_offset r7, -8
	.cfi_offset r5, -12
	.cfi_offset r4, -16
	movw	r4, #3072
.Ltmp124:
	.loc	2 1446 5 prologue_end           @ ../../../components/platform/soc/rt582/rt582_crypto/rt_crypto.c:1446:5
	movw	r1, :lower16:polynomial_p256
	movt	r4, #41184
	movt	r1, :upper16:polynomial_p256
	mov	r0, r4
	movs	r2, #8
	bl	crypto_parm_copy_p1
.Ltmp125:
	.loc	2 1448 5                        @ ../../../components/platform/soc/rt582/rt582_crypto/rt_crypto.c:1448:5
	movw	r1, :lower16:order_p256
	add.w	r0, r4, #584
	movt	r1, :upper16:order_p256
	movs	r2, #8
	bl	crypto_parm_copy_p1
.Ltmp126:
	.loc	2 1449 5                        @ ../../../components/platform/soc/rt582/rt582_crypto/rt_crypto.c:1449:5
	movw	r5, :lower16:Curve_Gx_p256
	movt	r5, :upper16:Curve_Gx_p256
	add.w	r0, r4, #36
	mov	r1, r5
	movs	r2, #8
	bl	crypto_parm_copy_p1
.Ltmp127:
	.loc	2 1450 5                        @ ../../../components/platform/soc/rt582/rt582_crypto/rt_crypto.c:1450:5
	add.w	r0, r4, #72
	add.w	r1, r5, #32
	movs	r2, #8
	bl	crypto_parm_copy_p1
.Ltmp128:
	.loc	2 1177 5                        @ ../../../components/platform/soc/rt582/rt582_crypto/rt_crypto.c:1177:5
	movw	r1, :lower16:gfp_modMultFast_p256_bin
	movw	r0, #2784
	movt	r1, :upper16:gfp_modMultFast_p256_bin
	movt	r0, #41184
	mov.w	r2, #272
	bl	__aeabi_memcpy4
.Ltmp129:
	.loc	2 1216 5                        @ ../../../components/platform/soc/rt582/rt582_crypto/rt_crypto.c:1216:5
	movw	r1, :lower16:gfp_applyz_p256_bin
	movw	r0, #2644
	movt	r1, :upper16:gfp_applyz_p256_bin
	movt	r0, #41184
	movs	r2, #128
	bl	__aeabi_memcpy4
.Ltmp130:
	.loc	2 1207 5                        @ ../../../components/platform/soc/rt582/rt582_crypto/rt_crypto.c:1207:5
	movw	r1, :lower16:gfp_double_jacobian_p256_bin
	movw	r0, #1884
	movt	r1, :upper16:gfp_double_jacobian_p256_bin
	movt	r0, #41184
	mov.w	r2, #404
	bl	__aeabi_memcpy4
.Ltmp131:
	.loc	2 1187 5                        @ ../../../components/platform/soc/rt582/rt582_crypto/rt_crypto.c:1187:5
	movw	r1, :lower16:gfp_xyczadd_p256_bin
	movw	r0, #2304
	movt	r1, :upper16:gfp_xyczadd_p256_bin
	movt	r0, #41184
	mov.w	r2, #340
	bl	__aeabi_memcpy4
.Ltmp132:
	.loc	2 1167 5                        @ ../../../components/platform/soc/rt582/rt582_crypto/rt_crypto.c:1167:5
	movw	r1, :lower16:gfp_inv_p256_bin
	movw	r0, #1664
	movt	r1, :upper16:gfp_inv_p256_bin
	movt	r0, #41184
	movs	r2, #220
	bl	__aeabi_memcpy4
.Ltmp133:
	.loc	2 1344 5                        @ ../../../components/platform/soc/rt582/rt582_crypto/rt_crypto.c:1344:5
	movw	r1, :lower16:gfp_ecdsa_verify_p256_bin
	movw	r0, #1024
	movt	r1, :upper16:gfp_ecdsa_verify_p256_bin
	movt	r0, #41184
	mov.w	r2, #624
	bl	__aeabi_memcpy4
.Ltmp134:
	@DEBUG_VALUE: gfp_ecdsa_p256_verify_bin:target_addr <- undef
	@DEBUG_VALUE: gfp_inv_p256:target_addr <- undef
	@DEBUG_VALUE: gfp_xyczadd_p256:target_addr <- undef
	@DEBUG_VALUE: gfp_double_jacobian_p256:target_addr <- undef
	@DEBUG_VALUE: gfp_applyz_p256:target_addr <- undef
	@DEBUG_VALUE: gfp_modMultFast_p256:target_addr <- undef
	.loc	2 1454 1                        @ ../../../components/platform/soc/rt582/rt582_crypto/rt_crypto.c:1454:1
	pop	{r4, r5, r7, pc}
.Ltmp135:
.Lfunc_end10:
	.size	gfp_ecdsa_p256_verify_init, .Lfunc_end10-gfp_ecdsa_p256_verify_init
	.cfi_endproc
	.cantunwind
	.fnend
                                        @ -- End function
	.section	.text.gfp_ecdsa_p256_signature,"ax",%progbits
	.hidden	gfp_ecdsa_p256_signature        @ -- Begin function gfp_ecdsa_p256_signature
	.globl	gfp_ecdsa_p256_signature
	.p2align	1
	.type	gfp_ecdsa_p256_signature,%function
	.code	16                              @ @gfp_ecdsa_p256_signature
	.thumb_func
gfp_ecdsa_p256_signature:
.Lfunc_begin11:
	.loc	2 1475 0                        @ ../../../components/platform/soc/rt582/rt582_crypto/rt_crypto.c:1475:0
	.fnstart
	.cfi_startproc
@ %bb.0:
	@DEBUG_VALUE: gfp_ecdsa_p256_signature:p_signature <- $r0
	@DEBUG_VALUE: gfp_ecdsa_p256_signature:p_hash_message <- $r1
	@DEBUG_VALUE: gfp_ecdsa_p256_signature:p_private_key <- $r2
	@DEBUG_VALUE: gfp_ecdsa_p256_signature:p_random_k <- $r3
	.save	{r4, r5, r6, r7, r8, r9, lr}
	push.w	{r4, r5, r6, r7, r8, r9, lr}
	.cfi_def_cfa_offset 28
	.cfi_offset lr, -4
	.cfi_offset r9, -8
	.cfi_offset r8, -12
	.cfi_offset r7, -16
	.cfi_offset r6, -20
	.cfi_offset r5, -24
	.cfi_offset r4, -28
	.pad	#68
	sub	sp, #68
	.cfi_def_cfa_offset 96
	mov	r5, r3
.Ltmp136:
	@DEBUG_VALUE: gfp_ecdsa_p256_signature:p_random_k <- $r5
	mov	r7, r2
.Ltmp137:
	@DEBUG_VALUE: gfp_ecdsa_p256_signature:p_private_key <- $r7
	mov	r6, r1
.Ltmp138:
	@DEBUG_VALUE: gfp_ecdsa_p256_signature:p_hash_message <- $r6
	mov	r9, r0
.Ltmp139:
	@DEBUG_VALUE: gfp_ecdsa_p256_signature:p_signature <- $r9
	movs	r0, #0
	@DEBUG_VALUE: vli_isZero:i <- 0
	@DEBUG_VALUE: vli_isZero:p_vli <- undef
	@DEBUG_VALUE: gfp_ecdsa_p256_signature:p_random_k <- $r5
	@DEBUG_VALUE: gfp_ecdsa_p256_signature:p_private_key <- $r7
	@DEBUG_VALUE: gfp_ecdsa_p256_signature:p_hash_message <- $r6
	@DEBUG_VALUE: gfp_ecdsa_p256_signature:p_signature <- $r9
.Ltmp140:
	.p2align	2
.LBB11_1:                               @ =>This Inner Loop Header: Depth=1
	@DEBUG_VALUE: gfp_ecdsa_p256_signature:p_signature <- $r9
	@DEBUG_VALUE: gfp_ecdsa_p256_signature:p_private_key <- $r7
	@DEBUG_VALUE: gfp_ecdsa_p256_signature:p_hash_message <- $r6
	@DEBUG_VALUE: gfp_ecdsa_p256_signature:p_random_k <- $r5
	@DEBUG_VALUE: vli_isZero:i <- $r0
	.loc	2 1368 13 prologue_end          @ ../../../components/platform/soc/rt582/rt582_crypto/rt_crypto.c:1368:13
	ldr.w	r1, [r5, r0, lsl #2]
.Ltmp141:
	@DEBUG_VALUE: vli_isZero:i <- [DW_OP_plus_uconst 1, DW_OP_stack_value] $r0
	.loc	2 0 13 is_stmt 0                @ ../../../components/platform/soc/rt582/rt582_crypto/rt_crypto.c:0:13
	cbnz	r1, .LBB11_3
.Ltmp142:
@ %bb.2:                                @   in Loop: Header=BB11_1 Depth=1
	@DEBUG_VALUE: gfp_ecdsa_p256_signature:p_signature <- $r9
	@DEBUG_VALUE: gfp_ecdsa_p256_signature:p_private_key <- $r7
	@DEBUG_VALUE: gfp_ecdsa_p256_signature:p_hash_message <- $r6
	@DEBUG_VALUE: gfp_ecdsa_p256_signature:p_random_k <- $r5
	@DEBUG_VALUE: vli_isZero:i <- [DW_OP_plus_uconst 1, DW_OP_stack_value] $r0
	.loc	2 1366 39 is_stmt 1             @ ../../../components/platform/soc/rt582/rt582_crypto/rt_crypto.c:1366:39
	adds	r0, #1
.Ltmp143:
	@DEBUG_VALUE: vli_isZero:i <- [DW_OP_plus_uconst 1, DW_OP_stack_value] $r0
	.loc	2 1366 5 is_stmt 0              @ ../../../components/platform/soc/rt582/rt582_crypto/rt_crypto.c:1366:5
	cmp	r0, #8
	bne	.LBB11_1
	b	.LBB11_8
.Ltmp144:
.LBB11_3:
	@DEBUG_VALUE: gfp_ecdsa_p256_signature:p_signature <- $r9
	@DEBUG_VALUE: gfp_ecdsa_p256_signature:p_private_key <- $r7
	@DEBUG_VALUE: gfp_ecdsa_p256_signature:p_hash_message <- $r6
	@DEBUG_VALUE: gfp_ecdsa_p256_signature:p_random_k <- $r5
	@DEBUG_VALUE: vli_isZero:i <- [DW_OP_plus_uconst 1, DW_OP_stack_value] $r0
	.loc	2 0 5                           @ ../../../components/platform/soc/rt582/rt582_crypto/rt_crypto.c:0:5
	movw	r2, :lower16:order_sub1_p256
	movs	r1, #28
	movt	r2, :upper16:order_sub1_p256
	movs	r0, #1
.Ltmp145:
	.p2align	2
.LBB11_4:                               @ =>This Inner Loop Header: Depth=1
	@DEBUG_VALUE: gfp_ecdsa_p256_signature:p_signature <- $r9
	@DEBUG_VALUE: gfp_ecdsa_p256_signature:p_private_key <- $r7
	@DEBUG_VALUE: gfp_ecdsa_p256_signature:p_hash_message <- $r6
	@DEBUG_VALUE: gfp_ecdsa_p256_signature:p_random_k <- $r5
	@DEBUG_VALUE: vli_cmp:i <- undef
	.loc	2 1382 13 is_stmt 1             @ ../../../components/platform/soc/rt582/rt582_crypto/rt_crypto.c:1382:13
	ldr	r3, [r2, r1]
	.loc	2 1382 25 is_stmt 0             @ ../../../components/platform/soc/rt582/rt582_crypto/rt_crypto.c:1382:25
	ldr	r4, [r5, r1]
.Ltmp146:
	.loc	2 1382 13                       @ ../../../components/platform/soc/rt582/rt582_crypto/rt_crypto.c:1382:13
	cmp	r3, r4
	bhi	.LBB11_7
.Ltmp147:
@ %bb.5:                                @   in Loop: Header=BB11_4 Depth=1
	@DEBUG_VALUE: gfp_ecdsa_p256_signature:p_signature <- $r9
	@DEBUG_VALUE: gfp_ecdsa_p256_signature:p_private_key <- $r7
	@DEBUG_VALUE: gfp_ecdsa_p256_signature:p_hash_message <- $r6
	@DEBUG_VALUE: gfp_ecdsa_p256_signature:p_random_k <- $r5
	@DEBUG_VALUE: vli_cmp:i <- [DW_OP_constu 1, DW_OP_minus, DW_OP_stack_value] undef
	.loc	2 1386 18 is_stmt 1             @ ../../../components/platform/soc/rt582/rt582_crypto/rt_crypto.c:1386:18
	cbz	r1, .LBB11_9
.Ltmp148:
@ %bb.6:                                @   in Loop: Header=BB11_4 Depth=1
	@DEBUG_VALUE: gfp_ecdsa_p256_signature:p_signature <- $r9
	@DEBUG_VALUE: gfp_ecdsa_p256_signature:p_private_key <- $r7
	@DEBUG_VALUE: gfp_ecdsa_p256_signature:p_hash_message <- $r6
	@DEBUG_VALUE: gfp_ecdsa_p256_signature:p_random_k <- $r5
	cmp	r3, r4
	sub.w	r1, r1, #4
	bhs	.LBB11_4
	b	.LBB11_9
.Ltmp149:
.LBB11_7:
	@DEBUG_VALUE: gfp_ecdsa_p256_signature:p_signature <- $r9
	@DEBUG_VALUE: gfp_ecdsa_p256_signature:p_private_key <- $r7
	@DEBUG_VALUE: gfp_ecdsa_p256_signature:p_hash_message <- $r6
	@DEBUG_VALUE: gfp_ecdsa_p256_signature:p_random_k <- $r5
	.loc	2 0 18 is_stmt 0                @ ../../../components/platform/soc/rt582/rt582_crypto/rt_crypto.c:0:18
	movw	r8, #3180
	movt	r8, #41184
	.loc	2 1491 5 is_stmt 1              @ ../../../components/platform/soc/rt582/rt582_crypto/rt_crypto.c:1491:5
	movw	r1, :lower16:order_p256
	add.w	r0, r8, #476
	movt	r1, :upper16:order_p256
	movs	r2, #8
	bl	crypto_parm_copy_p1
.Ltmp150:
	.loc	2 1493 14                       @ ../../../components/platform/soc/rt582/rt582_crypto/rt_crypto.c:1493:14
	movw	r1, :lower16:Curve_Gx_p256
	movt	r1, :upper16:Curve_Gx_p256
	add	r0, sp, #4
	mov	r2, r5
	bl	gfp_point_p256_mult
.Ltmp151:
	@DEBUG_VALUE: gfp_ecdsa_p256_signature:status <- $r0
	.loc	2 1496 9                        @ ../../../components/platform/soc/rt582/rt582_crypto/rt_crypto.c:1496:9
	cmp	r0, #1
	bne	.LBB11_10
.Ltmp152:
.LBB11_8:
	@DEBUG_VALUE: gfp_ecdsa_p256_signature:p_signature <- $r9
	@DEBUG_VALUE: gfp_ecdsa_p256_signature:p_private_key <- $r7
	@DEBUG_VALUE: gfp_ecdsa_p256_signature:p_hash_message <- $r6
	@DEBUG_VALUE: gfp_ecdsa_p256_signature:p_random_k <- $r5
	.loc	2 0 9 is_stmt 0                 @ ../../../components/platform/soc/rt582/rt582_crypto/rt_crypto.c:0:9
	movs	r0, #1
.Ltmp153:
.LBB11_9:
	@DEBUG_VALUE: gfp_ecdsa_p256_signature:p_signature <- $r9
	@DEBUG_VALUE: gfp_ecdsa_p256_signature:p_private_key <- $r7
	@DEBUG_VALUE: gfp_ecdsa_p256_signature:p_hash_message <- $r6
	@DEBUG_VALUE: gfp_ecdsa_p256_signature:p_random_k <- $r5
	.loc	2 1534 1 is_stmt 1              @ ../../../components/platform/soc/rt582/rt582_crypto/rt_crypto.c:1534:1
	add	sp, #68
	pop.w	{r4, r5, r6, r7, r8, r9, pc}
.Ltmp154:
.LBB11_10:
	@DEBUG_VALUE: gfp_ecdsa_p256_signature:p_signature <- $r9
	@DEBUG_VALUE: gfp_ecdsa_p256_signature:p_private_key <- $r7
	@DEBUG_VALUE: gfp_ecdsa_p256_signature:p_hash_message <- $r6
	@DEBUG_VALUE: gfp_ecdsa_p256_signature:p_random_k <- $r5
	@DEBUG_VALUE: gfp_ecdsa_p256_signature:status <- $r0
	.loc	2 1503 5                        @ ../../../components/platform/soc/rt582/rt582_crypto/rt_crypto.c:1503:5
	movw	r1, :lower16:gfp_ecdsa_signature_p256_bin
	movw	r0, #1024
.Ltmp155:
	.loc	2 0 5 is_stmt 0                 @ ../../../components/platform/soc/rt582/rt582_crypto/rt_crypto.c:0:5
	movs	r4, #0
	.loc	2 1503 5                        @ ../../../components/platform/soc/rt582/rt582_crypto/rt_crypto.c:1503:5
	movt	r1, :upper16:gfp_ecdsa_signature_p256_bin
	movt	r0, #41184
	movs	r2, #172
	movt	r4, #41184
	bl	__aeabi_memcpy4
.Ltmp156:
	.loc	2 1505 5 is_stmt 1              @ ../../../components/platform/soc/rt582/rt582_crypto/rt_crypto.c:1505:5
	add.w	r0, r8, #836
	mov	r1, r7
	movs	r2, #8
	bl	crypto_parm_copy_p1
.Ltmp157:
	.loc	2 1506 5                        @ ../../../components/platform/soc/rt582/rt582_crypto/rt_crypto.c:1506:5
	add.w	r0, r8, #728
	mov	r1, r6
	movs	r2, #8
	bl	crypto_parm_copy_p1
.Ltmp158:
	.loc	2 1507 5                        @ ../../../components/platform/soc/rt582/rt582_crypto/rt_crypto.c:1507:5
	mov	r0, r8
	mov	r1, r5
	movs	r2, #8
	bl	crypto_parm_copy_p1
.Ltmp159:
	@DEBUG_VALUE: crypto_start:sb_num <- 0
	@DEBUG_VALUE: crypto_start:op_num <- 8
	.loc	2 52 12                         @ ../../../components/platform/soc/rt582/rt582_crypto/rt_crypto.c:52:12
	ldr	r0, [r4]
.Ltmp160:
	@DEBUG_VALUE: crypto_start:reg <- $r0
	.loc	2 0 12 is_stmt 0                @ ../../../components/platform/soc/rt582/rt582_crypto/rt_crypto.c:0:12
	movw	r1, #57344
	movt	r1, #65534
	.loc	2 53 16 is_stmt 1               @ ../../../components/platform/soc/rt582/rt582_crypto/rt_crypto.c:53:16
	ands	r0, r1
.Ltmp161:
	.loc	2 53 84 is_stmt 0               @ ../../../components/platform/soc/rt582/rt582_crypto/rt_crypto.c:53:84
	orr	r0, r0, #65536
	orr	r0, r0, #8
.Ltmp162:
	@DEBUG_VALUE: crypto_start:reg <- $r0
	.loc	2 54 5 is_stmt 1                @ ../../../components/platform/soc/rt582/rt582_crypto/rt_crypto.c:54:5
	str	r0, [r4]
.Ltmp163:
	.p2align	2
.LBB11_11:                              @ =>This Inner Loop Header: Depth=1
	@DEBUG_VALUE: gfp_ecdsa_p256_signature:p_signature <- $r9
	@DEBUG_VALUE: gfp_ecdsa_p256_signature:p_private_key <- $r7
	@DEBUG_VALUE: gfp_ecdsa_p256_signature:p_hash_message <- $r6
	@DEBUG_VALUE: gfp_ecdsa_p256_signature:p_random_k <- $r5
	.loc	2 1520 36                       @ ../../../components/platform/soc/rt582/rt582_crypto/rt_crypto.c:1520:36
	ldr	r0, [r4]
	.loc	2 1520 5 is_stmt 0              @ ../../../components/platform/soc/rt582/rt582_crypto/rt_crypto.c:1520:5
	lsls	r0, r0, #7
	bpl	.LBB11_11
.Ltmp164:
@ %bb.12:
	@DEBUG_VALUE: gfp_ecdsa_p256_signature:p_signature <- $r9
	@DEBUG_VALUE: gfp_ecdsa_p256_signature:p_private_key <- $r7
	@DEBUG_VALUE: gfp_ecdsa_p256_signature:p_hash_message <- $r6
	@DEBUG_VALUE: gfp_ecdsa_p256_signature:p_random_k <- $r5
	.loc	2 1523 43 is_stmt 1             @ ../../../components/platform/soc/rt582/rt582_crypto/rt_crypto.c:1523:43
	ldr	r0, [r4]
	.loc	2 1527 5                        @ ../../../components/platform/soc/rt582/rt582_crypto/rt_crypto.c:1527:5
	add.w	r1, r8, #180
	.loc	2 1523 43                       @ ../../../components/platform/soc/rt582/rt582_crypto/rt_crypto.c:1523:43
	orr	r0, r0, #-2147483648
	str	r0, [r4]
	.loc	2 1527 5                        @ ../../../components/platform/soc/rt582/rt582_crypto/rt_crypto.c:1527:5
	mov	r0, r9
	movs	r2, #8
	bl	crypto_copy
.Ltmp165:
	.loc	2 1528 31                       @ ../../../components/platform/soc/rt582/rt582_crypto/rt_crypto.c:1528:31
	add.w	r0, r9, #32
	.loc	2 1528 5 is_stmt 0              @ ../../../components/platform/soc/rt582/rt582_crypto/rt_crypto.c:1528:5
	add.w	r1, r8, #764
	movs	r2, #8
	bl	crypto_copy
.Ltmp166:
	.loc	2 1532 13 is_stmt 1             @ ../../../components/platform/soc/rt582/rt582_crypto/rt_crypto.c:1532:13
	ldr.w	r0, [r8, #404]
	.loc	2 1532 12 is_stmt 0             @ ../../../components/platform/soc/rt582/rt582_crypto/rt_crypto.c:1532:12
	subs	r0, #1
	it	ne
	movne	r0, #5
	b	.LBB11_9
.Ltmp167:
.Lfunc_end11:
	.size	gfp_ecdsa_p256_signature, .Lfunc_end11-gfp_ecdsa_p256_signature
	.cfi_endproc
	.cantunwind
	.fnend
                                        @ -- End function
	.section	.text.gfp_point_p256_add,"ax",%progbits
	.hidden	gfp_point_p256_add              @ -- Begin function gfp_point_p256_add
	.globl	gfp_point_p256_add
	.p2align	1
	.type	gfp_point_p256_add,%function
	.code	16                              @ @gfp_point_p256_add
	.thumb_func
gfp_point_p256_add:
.Lfunc_begin12:
	.loc	2 1546 0 is_stmt 1              @ ../../../components/platform/soc/rt582/rt582_crypto/rt_crypto.c:1546:0
	.fnstart
	.cfi_startproc
@ %bb.0:
	@DEBUG_VALUE: gfp_point_p256_add:p_point_result <- $r0
	@DEBUG_VALUE: gfp_point_p256_add:p_point_x1 <- $r1
	@DEBUG_VALUE: gfp_point_p256_add:p_point_x2 <- $r2
	.save	{r4, r5, r6, r7, r8, lr}
	push.w	{r4, r5, r6, r7, r8, lr}
	.cfi_def_cfa_offset 24
	.cfi_offset lr, -4
	.cfi_offset r8, -8
	.cfi_offset r7, -12
	.cfi_offset r6, -16
	.cfi_offset r5, -20
	.cfi_offset r4, -24
	movs	r5, #0
	mov	r7, r1
.Ltmp168:
	@DEBUG_VALUE: gfp_point_p256_add:p_point_x1 <- $r7
	movt	r5, #41184
.Ltmp169:
	@DEBUG_VALUE: gfp_point_p256_add:p_point_x2 <- $r6
	@DEBUG_VALUE: gfp_point_p256_add:p_point_x1 <- $r7
	@DEBUG_VALUE: gfp_point_p256_add:p_point_result <- $r8
	.loc	2 1550 5 prologue_end           @ ../../../components/platform/soc/rt582/rt582_crypto/rt_crypto.c:1550:5
	movw	r1, :lower16:polynomial_p256
	mov	r6, r2
.Ltmp170:
	.loc	2 0 5 is_stmt 0                 @ ../../../components/platform/soc/rt582/rt582_crypto/rt_crypto.c:0:5
	mov	r8, r0
.Ltmp171:
	movw	r4, #3396
	.loc	2 1550 5                        @ ../../../components/platform/soc/rt582/rt582_crypto/rt_crypto.c:1550:5
	add.w	r0, r5, #3072
	movt	r1, :upper16:polynomial_p256
	movs	r2, #8
	movt	r4, #41184
	bl	crypto_parm_copy_p1
.Ltmp172:
	.loc	2 1177 5 is_stmt 1              @ ../../../components/platform/soc/rt582/rt582_crypto/rt_crypto.c:1177:5
	movw	r1, :lower16:gfp_modMultFast_p256_bin
	movw	r0, #2784
	movt	r1, :upper16:gfp_modMultFast_p256_bin
	movt	r0, #41184
	mov.w	r2, #272
	bl	__aeabi_memcpy4
.Ltmp173:
	.loc	2 1216 5                        @ ../../../components/platform/soc/rt582/rt582_crypto/rt_crypto.c:1216:5
	movw	r1, :lower16:gfp_applyz_p256_bin
	movw	r0, #2644
	movt	r1, :upper16:gfp_applyz_p256_bin
	movt	r0, #41184
	movs	r2, #128
	bl	__aeabi_memcpy4
.Ltmp174:
	.loc	2 1207 5                        @ ../../../components/platform/soc/rt582/rt582_crypto/rt_crypto.c:1207:5
	movw	r1, :lower16:gfp_double_jacobian_p256_bin
	movw	r0, #1884
	movt	r1, :upper16:gfp_double_jacobian_p256_bin
	movt	r0, #41184
	mov.w	r2, #404
	bl	__aeabi_memcpy4
.Ltmp175:
	.loc	2 1187 5                        @ ../../../components/platform/soc/rt582/rt582_crypto/rt_crypto.c:1187:5
	movw	r1, :lower16:gfp_xyczadd_p256_bin
	movw	r0, #2304
	movt	r1, :upper16:gfp_xyczadd_p256_bin
	movt	r0, #41184
	mov.w	r2, #340
	bl	__aeabi_memcpy4
.Ltmp176:
	.loc	2 1167 5                        @ ../../../components/platform/soc/rt582/rt582_crypto/rt_crypto.c:1167:5
	movw	r1, :lower16:gfp_inv_p256_bin
	movw	r0, #1664
	movt	r1, :upper16:gfp_inv_p256_bin
	movt	r0, #41184
	movs	r2, #220
	bl	__aeabi_memcpy4
.Ltmp177:
	.loc	2 1540 5                        @ ../../../components/platform/soc/rt582/rt582_crypto/rt_crypto.c:1540:5
	movw	r1, :lower16:gfp_point_add_p256_bin
	movw	r0, #1024
	movt	r1, :upper16:gfp_point_add_p256_bin
	movt	r0, #41184
	movs	r2, #252
	bl	__aeabi_memcpy4
.Ltmp178:
	.loc	2 1562 5                        @ ../../../components/platform/soc/rt582/rt582_crypto/rt_crypto.c:1562:5
	add.w	r0, r5, #3360
	mov	r1, r7
	movs	r2, #8
	bl	crypto_parm_copy_p1
.Ltmp179:
	.loc	2 1563 73                       @ ../../../components/platform/soc/rt582/rt582_crypto/rt_crypto.c:1563:73
	add.w	r1, r7, #32
	.loc	2 1563 5 is_stmt 0              @ ../../../components/platform/soc/rt582/rt582_crypto/rt_crypto.c:1563:5
	add.w	r0, r4, #548
	movs	r2, #8
	bl	crypto_parm_copy_p1
.Ltmp180:
	.loc	2 1564 5 is_stmt 1              @ ../../../components/platform/soc/rt582/rt582_crypto/rt_crypto.c:1564:5
	mov	r0, r4
	mov	r1, r6
	movs	r2, #8
	bl	crypto_parm_copy_p1
.Ltmp181:
	.loc	2 1565 73                       @ ../../../components/platform/soc/rt582/rt582_crypto/rt_crypto.c:1565:73
	add.w	r1, r6, #32
	.loc	2 1565 5 is_stmt 0              @ ../../../components/platform/soc/rt582/rt582_crypto/rt_crypto.c:1565:5
	add.w	r0, r4, #584
	movs	r2, #8
	bl	crypto_parm_copy_p1
.Ltmp182:
	@DEBUG_VALUE: crypto_start:sb_num <- 0
	@DEBUG_VALUE: crypto_start:op_num <- 8
	.loc	2 52 12 is_stmt 1               @ ../../../components/platform/soc/rt582/rt582_crypto/rt_crypto.c:52:12
	ldr	r0, [r5]
.Ltmp183:
	@DEBUG_VALUE: crypto_start:reg <- $r0
	.loc	2 0 12 is_stmt 0                @ ../../../components/platform/soc/rt582/rt582_crypto/rt_crypto.c:0:12
	movw	r1, #57344
	movt	r1, #65534
	.loc	2 53 16 is_stmt 1               @ ../../../components/platform/soc/rt582/rt582_crypto/rt_crypto.c:53:16
	ands	r0, r1
.Ltmp184:
	.loc	2 53 84 is_stmt 0               @ ../../../components/platform/soc/rt582/rt582_crypto/rt_crypto.c:53:84
	orr	r0, r0, #65536
	orr	r0, r0, #8
.Ltmp185:
	@DEBUG_VALUE: crypto_start:reg <- $r0
	.loc	2 54 5 is_stmt 1                @ ../../../components/platform/soc/rt582/rt582_crypto/rt_crypto.c:54:5
	str	r0, [r5]
.Ltmp186:
	@DEBUG_VALUE: gfp_inv_p256:target_addr <- undef
	@DEBUG_VALUE: gfp_xyczadd_p256:target_addr <- undef
	@DEBUG_VALUE: gfp_double_jacobian_p256:target_addr <- undef
	@DEBUG_VALUE: gfp_applyz_p256:target_addr <- undef
	@DEBUG_VALUE: gfp_modMultFast_p256:target_addr <- undef
	.p2align	2
.LBB12_1:                               @ =>This Inner Loop Header: Depth=1
	@DEBUG_VALUE: gfp_point_p256_add:p_point_x1 <- $r7
	.loc	2 1578 36                       @ ../../../components/platform/soc/rt582/rt582_crypto/rt_crypto.c:1578:36
	ldr	r0, [r5]
	.loc	2 1578 5 is_stmt 0              @ ../../../components/platform/soc/rt582/rt582_crypto/rt_crypto.c:1578:5
	lsls	r0, r0, #7
	bpl	.LBB12_1
.Ltmp187:
@ %bb.2:
	@DEBUG_VALUE: gfp_point_p256_add:p_point_x1 <- $r7
	.loc	2 1581 43 is_stmt 1             @ ../../../components/platform/soc/rt582/rt582_crypto/rt_crypto.c:1581:43
	ldr	r0, [r5]
	.loc	2 1584 5                        @ ../../../components/platform/soc/rt582/rt582_crypto/rt_crypto.c:1584:5
	add.w	r1, r4, #36
	.loc	2 1581 43                       @ ../../../components/platform/soc/rt582/rt582_crypto/rt_crypto.c:1581:43
	orr	r0, r0, #-2147483648
	str	r0, [r5]
	.loc	2 1584 5                        @ ../../../components/platform/soc/rt582/rt582_crypto/rt_crypto.c:1584:5
	mov	r0, r8
	movs	r2, #8
	bl	crypto_copy
.Ltmp188:
	.loc	2 1585 29                       @ ../../../components/platform/soc/rt582/rt582_crypto/rt_crypto.c:1585:29
	add.w	r0, r8, #32
	.loc	2 1585 5 is_stmt 0              @ ../../../components/platform/soc/rt582/rt582_crypto/rt_crypto.c:1585:5
	add.w	r1, r4, #72
	movs	r2, #8
	bl	crypto_copy
.Ltmp189:
	.loc	2 1589 13 is_stmt 1             @ ../../../components/platform/soc/rt582/rt582_crypto/rt_crypto.c:1589:13
	ldr.w	r0, [r4, #188]
	.loc	2 1589 12 is_stmt 0             @ ../../../components/platform/soc/rt582/rt582_crypto/rt_crypto.c:1589:12
	subs	r0, #1
	it	ne
	movne	r0, #5
	.loc	2 1589 5                        @ ../../../components/platform/soc/rt582/rt582_crypto/rt_crypto.c:1589:5
	pop.w	{r4, r5, r6, r7, r8, pc}
.Ltmp190:
.Lfunc_end12:
	.size	gfp_point_p256_add, .Lfunc_end12-gfp_point_p256_add
	.cfi_endproc
	.cantunwind
	.fnend
                                        @ -- End function
	.section	.text.gfp_valid_point_p256_verify,"ax",%progbits
	.hidden	gfp_valid_point_p256_verify     @ -- Begin function gfp_valid_point_p256_verify
	.globl	gfp_valid_point_p256_verify
	.p2align	1
	.type	gfp_valid_point_p256_verify,%function
	.code	16                              @ @gfp_valid_point_p256_verify
	.thumb_func
gfp_valid_point_p256_verify:
.Lfunc_begin13:
	.loc	2 1593 0 is_stmt 1              @ ../../../components/platform/soc/rt582/rt582_crypto/rt_crypto.c:1593:0
	.fnstart
	.cfi_startproc
@ %bb.0:
	@DEBUG_VALUE: gfp_valid_point_p256_verify:p_point <- $r0
	.save	{r4, r5, r6, lr}
	push	{r4, r5, r6, lr}
	.cfi_def_cfa_offset 16
	.cfi_offset lr, -4
	.cfi_offset r6, -8
	.cfi_offset r5, -12
	.cfi_offset r4, -16
	mov	r6, r0
.Ltmp191:
	@DEBUG_VALUE: gfp_valid_point_p256_verify:p_point <- $r6
	.loc	2 1177 5 prologue_end           @ ../../../components/platform/soc/rt582/rt582_crypto/rt_crypto.c:1177:5
	movw	r1, :lower16:gfp_modMultFast_p256_bin
	movw	r0, #2784
	movw	r4, #3540
	movw	r5, #3360
	movt	r1, :upper16:gfp_modMultFast_p256_bin
	movt	r0, #41184
	mov.w	r2, #272
	movt	r4, #41184
	movt	r5, #41184
	@DEBUG_VALUE: gfp_valid_point_p256_verify:p_point <- $r6
	bl	__aeabi_memcpy4
.Ltmp192:
	.loc	2 1598 5                        @ ../../../components/platform/soc/rt582/rt582_crypto/rt_crypto.c:1598:5
	movw	r1, :lower16:gfp_valid_point_p256_bin
	movw	r0, #1024
	movt	r1, :upper16:gfp_valid_point_p256_bin
	movt	r0, #41184
	movs	r2, #152
	bl	__aeabi_memcpy4
.Ltmp193:
	.loc	2 1601 5                        @ ../../../components/platform/soc/rt582/rt582_crypto/rt_crypto.c:1601:5
	movw	r1, :lower16:polynomial_p256
	sub.w	r0, r5, #288
	movt	r1, :upper16:polynomial_p256
	movs	r2, #8
	bl	crypto_parm_copy_p1
.Ltmp194:
	.loc	2 1602 5                        @ ../../../components/platform/soc/rt582/rt582_crypto/rt_crypto.c:1602:5
	movw	r1, :lower16:param_a_p256
	add.w	r0, r5, #144
	movt	r1, :upper16:param_a_p256
	movs	r2, #8
	bl	crypto_parm_copy_p1
.Ltmp195:
	.loc	2 1603 5                        @ ../../../components/platform/soc/rt582/rt582_crypto/rt_crypto.c:1603:5
	movw	r1, :lower16:param_b_p256
	movt	r1, :upper16:param_b_p256
	mov	r0, r4
	movs	r2, #8
	bl	crypto_parm_copy_p1
.Ltmp196:
	.loc	2 1605 5                        @ ../../../components/platform/soc/rt582/rt582_crypto/rt_crypto.c:1605:5
	mov	r0, r5
	mov	r1, r6
	movs	r2, #8
	bl	crypto_parm_copy_p1
.Ltmp197:
	.loc	2 1606 73                       @ ../../../components/platform/soc/rt582/rt582_crypto/rt_crypto.c:1606:73
	add.w	r1, r6, #32
	.loc	2 1606 5 is_stmt 0              @ ../../../components/platform/soc/rt582/rt582_crypto/rt_crypto.c:1606:5
	add.w	r0, r4, #404
	movs	r2, #8
	bl	crypto_parm_copy_p1
.Ltmp198:
	.loc	2 0 5                           @ ../../../components/platform/soc/rt582/rt582_crypto/rt_crypto.c:0:5
	movw	r0, #62176
	movt	r0, #65535
.Ltmp199:
	@DEBUG_VALUE: crypto_start:sb_num <- 0
	@DEBUG_VALUE: crypto_start:op_num <- 8
	.loc	2 52 12 is_stmt 1               @ ../../../components/platform/soc/rt582/rt582_crypto/rt_crypto.c:52:12
	ldr	r1, [r5, r0]
.Ltmp200:
	@DEBUG_VALUE: crypto_start:reg <- $r1
	.loc	2 0 12 is_stmt 0                @ ../../../components/platform/soc/rt582/rt582_crypto/rt_crypto.c:0:12
	movw	r2, #57344
	movt	r2, #65534
	.loc	2 53 16 is_stmt 1               @ ../../../components/platform/soc/rt582/rt582_crypto/rt_crypto.c:53:16
	ands	r1, r2
.Ltmp201:
	.loc	2 53 84 is_stmt 0               @ ../../../components/platform/soc/rt582/rt582_crypto/rt_crypto.c:53:84
	orr	r1, r1, #65536
	orr	r1, r1, #8
.Ltmp202:
	@DEBUG_VALUE: crypto_start:reg <- $r1
	.loc	2 54 5 is_stmt 1                @ ../../../components/platform/soc/rt582/rt582_crypto/rt_crypto.c:54:5
	str	r1, [r5, r0]
.Ltmp203:
	@DEBUG_VALUE: gfp_modMultFast_p256:target_addr <- undef
	.p2align	2
.LBB13_1:                               @ =>This Inner Loop Header: Depth=1
	@DEBUG_VALUE: gfp_valid_point_p256_verify:p_point <- $r6
	.loc	2 1619 36                       @ ../../../components/platform/soc/rt582/rt582_crypto/rt_crypto.c:1619:36
	ldr	r1, [r5, r0]
	.loc	2 1619 5 is_stmt 0              @ ../../../components/platform/soc/rt582/rt582_crypto/rt_crypto.c:1619:5
	lsls	r1, r1, #7
	bpl	.LBB13_1
.Ltmp204:
@ %bb.2:
	@DEBUG_VALUE: gfp_valid_point_p256_verify:p_point <- $r6
	.loc	2 1622 43 is_stmt 1             @ ../../../components/platform/soc/rt582/rt582_crypto/rt_crypto.c:1622:43
	ldr	r1, [r5, r0]
	orr	r1, r1, #-2147483648
	str	r1, [r5, r0]
	.loc	2 1627 13                       @ ../../../components/platform/soc/rt582/rt582_crypto/rt_crypto.c:1627:13
	ldr	r0, [r4, #44]
	.loc	2 1627 12 is_stmt 0             @ ../../../components/platform/soc/rt582/rt582_crypto/rt_crypto.c:1627:12
	subs	r0, #1
	it	ne
	movne	r0, #5
	.loc	2 1627 5                        @ ../../../components/platform/soc/rt582/rt582_crypto/rt_crypto.c:1627:5
	pop	{r4, r5, r6, pc}
.Ltmp205:
.Lfunc_end13:
	.size	gfp_valid_point_p256_verify, .Lfunc_end13-gfp_valid_point_p256_verify
	.cfi_endproc
	.cantunwind
	.fnend
                                        @ -- End function
	.section	.text.gfp_scalar_vxh_p256,"ax",%progbits
	.hidden	gfp_scalar_vxh_p256             @ -- Begin function gfp_scalar_vxh_p256
	.globl	gfp_scalar_vxh_p256
	.p2align	1
	.type	gfp_scalar_vxh_p256,%function
	.code	16                              @ @gfp_scalar_vxh_p256
	.thumb_func
gfp_scalar_vxh_p256:
.Lfunc_begin14:
	.loc	2 1640 0 is_stmt 1              @ ../../../components/platform/soc/rt582/rt582_crypto/rt_crypto.c:1640:0
	.fnstart
	.cfi_startproc
@ %bb.0:
	@DEBUG_VALUE: gfp_scalar_vxh_p256:p_result <- $r0
	@DEBUG_VALUE: gfp_scalar_vxh_p256:p_x <- $r1
	@DEBUG_VALUE: gfp_scalar_vxh_p256:p_hash <- $r2
	@DEBUG_VALUE: gfp_scalar_vxh_p256:p_v <- $r3
	.save	{r4, r5, r6, r7, r8, r9, lr}
	push.w	{r4, r5, r6, r7, r8, r9, lr}
	.cfi_def_cfa_offset 28
	.cfi_offset lr, -4
	.cfi_offset r9, -8
	.cfi_offset r8, -12
	.cfi_offset r7, -16
	.cfi_offset r6, -20
	.cfi_offset r5, -24
	.cfi_offset r4, -28
	.pad	#4
	sub	sp, #4
	.cfi_def_cfa_offset 32
	mov	r4, r1
.Ltmp206:
	@DEBUG_VALUE: gfp_scalar_vxh_p256:p_x <- $r4
	mov	r8, r0
.Ltmp207:
	@DEBUG_VALUE: gfp_scalar_vxh_p256:p_result <- $r8
	.loc	2 1645 5 prologue_end           @ ../../../components/platform/soc/rt582/rt582_crypto/rt_crypto.c:1645:5
	movw	r1, :lower16:gfp_scalar_vxh_bin
	movw	r0, #1024
	mov	r7, r2
.Ltmp208:
	@DEBUG_VALUE: gfp_scalar_vxh_p256:p_hash <- $r7
	.loc	2 0 5 is_stmt 0                 @ ../../../components/platform/soc/rt582/rt582_crypto/rt_crypto.c:0:5
	movw	r5, #3396
	movs	r6, #0
	.loc	2 1645 5                        @ ../../../components/platform/soc/rt582/rt582_crypto/rt_crypto.c:1645:5
	movt	r1, :upper16:gfp_scalar_vxh_bin
	movt	r0, #41184
	movs	r2, #68
	mov	r9, r3
.Ltmp209:
	@DEBUG_VALUE: gfp_scalar_vxh_p256:p_v <- $r9
	.loc	2 0 5                           @ ../../../components/platform/soc/rt582/rt582_crypto/rt_crypto.c:0:5
	movt	r5, #41184
	movt	r6, #41184
	@DEBUG_VALUE: gfp_scalar_vxh_p256:p_v <- $r9
	@DEBUG_VALUE: gfp_scalar_vxh_p256:p_hash <- $r7
	@DEBUG_VALUE: gfp_scalar_vxh_p256:p_x <- $r4
	@DEBUG_VALUE: gfp_scalar_vxh_p256:p_result <- $r8
	.loc	2 1645 5                        @ ../../../components/platform/soc/rt582/rt582_crypto/rt_crypto.c:1645:5
	bl	__aeabi_memcpy4
.Ltmp210:
	.loc	2 1647 5 is_stmt 1              @ ../../../components/platform/soc/rt582/rt582_crypto/rt_crypto.c:1647:5
	add.w	r0, r6, #3360
	mov	r1, r4
.Ltmp211:
	@DEBUG_VALUE: gfp_scalar_vxh_p256:p_x <- $r1
	movs	r2, #8
	bl	crypto_parm_copy_p1
.Ltmp212:
	.loc	2 1648 5                        @ ../../../components/platform/soc/rt582/rt582_crypto/rt_crypto.c:1648:5
	add.w	r0, r5, #548
	mov	r1, r7
.Ltmp213:
	@DEBUG_VALUE: gfp_scalar_vxh_p256:p_hash <- $r1
	movs	r2, #8
	bl	crypto_parm_copy_p1
.Ltmp214:
	.loc	2 1649 5                        @ ../../../components/platform/soc/rt582/rt582_crypto/rt_crypto.c:1649:5
	movw	r1, :lower16:order_p256
	movt	r1, :upper16:order_p256
	mov	r0, r5
	movs	r2, #8
	bl	crypto_parm_copy_p1
.Ltmp215:
	.loc	2 1650 5                        @ ../../../components/platform/soc/rt582/rt582_crypto/rt_crypto.c:1650:5
	add.w	r0, r5, #584
	mov	r1, r9
.Ltmp216:
	@DEBUG_VALUE: gfp_scalar_vxh_p256:p_v <- $r1
	movs	r2, #8
	bl	crypto_parm_copy_p1
.Ltmp217:
	@DEBUG_VALUE: crypto_start:sb_num <- 0
	@DEBUG_VALUE: crypto_start:op_num <- 8
	.loc	2 52 12                         @ ../../../components/platform/soc/rt582/rt582_crypto/rt_crypto.c:52:12
	ldr	r0, [r6]
.Ltmp218:
	@DEBUG_VALUE: crypto_start:reg <- $r0
	.loc	2 0 12 is_stmt 0                @ ../../../components/platform/soc/rt582/rt582_crypto/rt_crypto.c:0:12
	movw	r1, #57344
	movt	r1, #65534
	.loc	2 53 16 is_stmt 1               @ ../../../components/platform/soc/rt582/rt582_crypto/rt_crypto.c:53:16
	ands	r0, r1
.Ltmp219:
	.loc	2 53 84 is_stmt 0               @ ../../../components/platform/soc/rt582/rt582_crypto/rt_crypto.c:53:84
	orr	r0, r0, #65536
	orr	r0, r0, #8
.Ltmp220:
	@DEBUG_VALUE: crypto_start:reg <- $r0
	.loc	2 54 5 is_stmt 1                @ ../../../components/platform/soc/rt582/rt582_crypto/rt_crypto.c:54:5
	str	r0, [r6]
.Ltmp221:
	.p2align	2
.LBB14_1:                               @ =>This Inner Loop Header: Depth=1
	@DEBUG_VALUE: gfp_scalar_vxh_p256:p_result <- $r8
	.loc	2 1662 36                       @ ../../../components/platform/soc/rt582/rt582_crypto/rt_crypto.c:1662:36
	ldr	r0, [r6]
	.loc	2 1662 5 is_stmt 0              @ ../../../components/platform/soc/rt582/rt582_crypto/rt_crypto.c:1662:5
	lsls	r0, r0, #7
	bpl	.LBB14_1
.Ltmp222:
@ %bb.2:
	@DEBUG_VALUE: gfp_scalar_vxh_p256:p_result <- $r8
	.loc	2 1665 43 is_stmt 1             @ ../../../components/platform/soc/rt582/rt582_crypto/rt_crypto.c:1665:43
	ldr	r0, [r6]
	.loc	2 1668 5                        @ ../../../components/platform/soc/rt582/rt582_crypto/rt_crypto.c:1668:5
	add.w	r1, r5, #36
	.loc	2 1665 43                       @ ../../../components/platform/soc/rt582/rt582_crypto/rt_crypto.c:1665:43
	orr	r3, r0, #-2147483648
	.loc	2 1668 5                        @ ../../../components/platform/soc/rt582/rt582_crypto/rt_crypto.c:1668:5
	mov	r0, r8
	movs	r2, #8
	.loc	2 1665 43                       @ ../../../components/platform/soc/rt582/rt582_crypto/rt_crypto.c:1665:43
	str	r3, [r6]
	.loc	2 1668 5                        @ ../../../components/platform/soc/rt582/rt582_crypto/rt_crypto.c:1668:5
	add	sp, #4
	pop.w	{r4, r5, r6, r7, r8, r9, lr}
.Ltmp223:
	b	crypto_copy
.Ltmp224:
.Lfunc_end14:
	.size	gfp_scalar_vxh_p256, .Lfunc_end14-gfp_scalar_vxh_p256
	.cfi_endproc
	.cantunwind
	.fnend
                                        @ -- End function
	.section	.text.gfp_scalar_modmult_p256,"ax",%progbits
	.hidden	gfp_scalar_modmult_p256         @ -- Begin function gfp_scalar_modmult_p256
	.globl	gfp_scalar_modmult_p256
	.p2align	1
	.type	gfp_scalar_modmult_p256,%function
	.code	16                              @ @gfp_scalar_modmult_p256
	.thumb_func
gfp_scalar_modmult_p256:
.Lfunc_begin15:
	.loc	2 1684 0                        @ ../../../components/platform/soc/rt582/rt582_crypto/rt_crypto.c:1684:0
	.fnstart
	.cfi_startproc
@ %bb.0:
	@DEBUG_VALUE: gfp_scalar_modmult_p256:p_result <- $r0
	@DEBUG_VALUE: gfp_scalar_modmult_p256:p_x <- $r1
	@DEBUG_VALUE: gfp_scalar_modmult_p256:p_y <- $r2
	.save	{r4, r5, r6, r7, r8, r9, lr}
	push.w	{r4, r5, r6, r7, r8, r9, lr}
	.cfi_def_cfa_offset 28
	.cfi_offset lr, -4
	.cfi_offset r9, -8
	.cfi_offset r8, -12
	.cfi_offset r7, -16
	.cfi_offset r6, -20
	.cfi_offset r5, -24
	.cfi_offset r4, -28
	.pad	#4
	sub	sp, #4
	.cfi_def_cfa_offset 32
	movs	r7, #0
	movt	r7, #41184
.Ltmp225:
	@DEBUG_VALUE: gfp_scalar_modmult_p256:p_y <- $r6
	@DEBUG_VALUE: gfp_scalar_modmult_p256:p_x <- $r1
	@DEBUG_VALUE: gfp_scalar_modmult_p256:p_result <- $r8
	mov	r6, r2
.Ltmp226:
	mov	r8, r0
.Ltmp227:
	movw	r9, #3396
.Ltmp228:
	.loc	2 1688 5 prologue_end           @ ../../../components/platform/soc/rt582/rt582_crypto/rt_crypto.c:1688:5
	add.w	r0, r7, #3360
	@DEBUG_VALUE: gfp_scalar_modmult_p256:p_x <- $r1
	movs	r2, #8
	movt	r9, #41184
	bl	crypto_parm_copy_p1
.Ltmp229:
	@DEBUG_VALUE: gfp_scalar_modmult_p256:p_x <- [DW_OP_LLVM_entry_value 1] $r1
	.loc	2 1689 5                        @ ../../../components/platform/soc/rt582/rt582_crypto/rt_crypto.c:1689:5
	add.w	r0, r9, #548
	mov	r1, r6
.Ltmp230:
	@DEBUG_VALUE: gfp_scalar_modmult_p256:p_y <- $r1
	movs	r2, #8
	bl	crypto_parm_copy_p1
.Ltmp231:
	.loc	2 1690 5                        @ ../../../components/platform/soc/rt582/rt582_crypto/rt_crypto.c:1690:5
	movw	r1, :lower16:order_p256
	movt	r1, :upper16:order_p256
	mov	r0, r9
	movs	r2, #8
	bl	crypto_parm_copy_p1
.Ltmp232:
	.loc	2 1693 5                        @ ../../../components/platform/soc/rt582/rt582_crypto/rt_crypto.c:1693:5
	movw	r0, :lower16:gfp_scalar_modmult_bin
	movt	r0, :upper16:gfp_scalar_modmult_bin
	ldrd	r4, r5, [r0, #16]
	movw	r1, #1044
	movt	r1, #41184
	str	r5, [r1]
	movw	r1, #1040
	movt	r1, #41184
	ldrd	r3, r6, [r0, #8]
	str	r4, [r1]
	movw	r1, #1036
	movt	r1, #41184
	str	r6, [r1]
	movw	r1, #1032
	movt	r1, #41184
	ldrd	r12, r2, [r0]
	str	r3, [r1]
	movw	r1, #1028
	movt	r1, #41184
	str	r2, [r1]
	movw	r1, #1024
	movt	r1, #41184
	str.w	r12, [r1]
	ldrd	r5, r4, [r0, #40]
	movw	r1, #1068
	movt	r1, #41184
	str	r4, [r1]
	movw	r1, #1064
	movt	r1, #41184
	ldrd	r3, r6, [r0, #32]
	str	r5, [r1]
	movw	r1, #1060
	movt	r1, #41184
	str	r6, [r1]
	movw	r1, #1056
	movt	r1, #41184
	ldrd	r12, r2, [r0, #24]
	str	r3, [r1]
	movw	r1, #1052
	movt	r1, #41184
	str	r2, [r1]
	movw	r1, #1048
	movt	r1, #41184
	str.w	r12, [r1]
	ldr	r0, [r0, #48]
	movw	r1, #1072
	movt	r1, #41184
	str	r0, [r1]
.Ltmp233:
	@DEBUG_VALUE: crypto_start:sb_num <- 0
	@DEBUG_VALUE: crypto_start:op_num <- 8
	.loc	2 52 12                         @ ../../../components/platform/soc/rt582/rt582_crypto/rt_crypto.c:52:12
	ldr	r0, [r7]
.Ltmp234:
	@DEBUG_VALUE: crypto_start:reg <- $r0
	.loc	2 0 12 is_stmt 0                @ ../../../components/platform/soc/rt582/rt582_crypto/rt_crypto.c:0:12
	movw	r1, #57344
	movt	r1, #65534
	.loc	2 53 16 is_stmt 1               @ ../../../components/platform/soc/rt582/rt582_crypto/rt_crypto.c:53:16
	ands	r0, r1
.Ltmp235:
	.loc	2 53 84 is_stmt 0               @ ../../../components/platform/soc/rt582/rt582_crypto/rt_crypto.c:53:84
	orr	r0, r0, #65536
	orr	r0, r0, #8
.Ltmp236:
	@DEBUG_VALUE: crypto_start:reg <- $r0
	.loc	2 54 5 is_stmt 1                @ ../../../components/platform/soc/rt582/rt582_crypto/rt_crypto.c:54:5
	str	r0, [r7]
.Ltmp237:
	.p2align	2
.LBB15_1:                               @ =>This Inner Loop Header: Depth=1
	@DEBUG_VALUE: gfp_scalar_modmult_p256:p_x <- [DW_OP_LLVM_entry_value 1] $r1
	.loc	2 1705 36                       @ ../../../components/platform/soc/rt582/rt582_crypto/rt_crypto.c:1705:36
	ldr	r0, [r7]
	.loc	2 1705 5 is_stmt 0              @ ../../../components/platform/soc/rt582/rt582_crypto/rt_crypto.c:1705:5
	lsls	r0, r0, #7
	bpl	.LBB15_1
.Ltmp238:
@ %bb.2:
	@DEBUG_VALUE: gfp_scalar_modmult_p256:p_x <- [DW_OP_LLVM_entry_value 1] $r1
	.loc	2 1708 43 is_stmt 1             @ ../../../components/platform/soc/rt582/rt582_crypto/rt_crypto.c:1708:43
	ldr	r0, [r7]
	.loc	2 1711 5                        @ ../../../components/platform/soc/rt582/rt582_crypto/rt_crypto.c:1711:5
	add.w	r1, r9, #36
	.loc	2 1708 43                       @ ../../../components/platform/soc/rt582/rt582_crypto/rt_crypto.c:1708:43
	orr	r3, r0, #-2147483648
	.loc	2 1711 5                        @ ../../../components/platform/soc/rt582/rt582_crypto/rt_crypto.c:1711:5
	mov	r0, r8
	movs	r2, #8
	.loc	2 1708 43                       @ ../../../components/platform/soc/rt582/rt582_crypto/rt_crypto.c:1708:43
	str	r3, [r7]
	.loc	2 1711 5                        @ ../../../components/platform/soc/rt582/rt582_crypto/rt_crypto.c:1711:5
	add	sp, #4
	pop.w	{r4, r5, r6, r7, r8, r9, lr}
.Ltmp239:
	b	crypto_copy
.Ltmp240:
.Lfunc_end15:
	.size	gfp_scalar_modmult_p256, .Lfunc_end15-gfp_scalar_modmult_p256
	.cfi_endproc
	.cantunwind
	.fnend
                                        @ -- End function
	.section	.text.gfp_point_p256_invert,"ax",%progbits
	.hidden	gfp_point_p256_invert           @ -- Begin function gfp_point_p256_invert
	.globl	gfp_point_p256_invert
	.p2align	1
	.type	gfp_point_p256_invert,%function
	.code	16                              @ @gfp_point_p256_invert
	.thumb_func
gfp_point_p256_invert:
.Lfunc_begin16:
	.loc	2 1719 0                        @ ../../../components/platform/soc/rt582/rt582_crypto/rt_crypto.c:1719:0
	.fnstart
	.cfi_startproc
@ %bb.0:
	@DEBUG_VALUE: gfp_point_p256_invert:p_invert <- $r0
	@DEBUG_VALUE: gfp_point_p256_invert:p_point <- $r1
	.save	{r4, r5, r7, lr}
	push	{r4, r5, r7, lr}
	.cfi_def_cfa_offset 16
	.cfi_offset lr, -4
	.cfi_offset r7, -8
	.cfi_offset r5, -12
	.cfi_offset r4, -16
	mov	r4, r1
	mov	r5, r0
.Ltmp241:
	@DEBUG_VALUE: gfp_point_p256_invert:carry <- 0
	@DEBUG_VALUE: gfp_point_p256_invert:p_point <- $r4
	@DEBUG_VALUE: gfp_point_p256_invert:p_invert <- $r5
	.loc	2 1728 9 prologue_end           @ ../../../components/platform/soc/rt582/rt582_crypto/rt_crypto.c:1728:9
	cmp	r1, r0
	beq	.LBB16_2
.Ltmp242:
@ %bb.1:
	@DEBUG_VALUE: gfp_point_p256_invert:p_invert <- $r5
	@DEBUG_VALUE: gfp_point_p256_invert:p_point <- $r4
	@DEBUG_VALUE: gfp_point_p256_invert:carry <- 0
	.loc	2 1731 9                        @ ../../../components/platform/soc/rt582/rt582_crypto/rt_crypto.c:1731:9
	mov	r0, r5
	mov	r1, r4
	movs	r2, #32
	bl	__aeabi_memcpy
.Ltmp243:
.LBB16_2:
	@DEBUG_VALUE: gfp_point_p256_invert:p_invert <- $r5
	@DEBUG_VALUE: gfp_point_p256_invert:p_point <- $r4
	@DEBUG_VALUE: gfp_point_p256_invert:carry <- 0
	@DEBUG_VALUE: gfp_point_p256_invert:carry <- undef
	@DEBUG_VALUE: gfp_point_p256_invert:p_y <- [DW_OP_plus_uconst 32, DW_OP_stack_value] $r4
	@DEBUG_VALUE: gfp_point_p256_invert:p_output <- [DW_OP_plus_uconst 32, DW_OP_stack_value] $r5
	@DEBUG_VALUE: gfp_point_p256_invert:i <- 0
	@DEBUG_VALUE: gfp_point_p256_invert:p_poly <- undef
	.loc	2 0 9 is_stmt 0                 @ ../../../components/platform/soc/rt582/rt582_crypto/rt_crypto.c:0:9
	movw	r12, :lower16:polynomial_p256
.Ltmp244:
	.loc	2 1738 5 is_stmt 1              @ ../../../components/platform/soc/rt582/rt582_crypto/rt_crypto.c:1738:5
	add.w	r0, r5, #32
	add.w	r1, r4, #32
	movs	r5, #0
.Ltmp245:
	@DEBUG_VALUE: gfp_point_p256_invert:p_poly <- undef
	.loc	2 0 5 is_stmt 0                 @ ../../../components/platform/soc/rt582/rt582_crypto/rt_crypto.c:0:5
	movt	r12, :upper16:polynomial_p256
	movs	r3, #0
.Ltmp246:
	.p2align	2
.LBB16_3:                               @ =>This Inner Loop Header: Depth=1
	@DEBUG_VALUE: gfp_point_p256_invert:p_y <- undef
	@DEBUG_VALUE: gfp_point_p256_invert:p_output <- undef
	@DEBUG_VALUE: gfp_point_p256_invert:i <- $r3
	@DEBUG_VALUE: gfp_point_p256_invert:p_poly <- undef
	.loc	2 1742 13 is_stmt 1             @ ../../../components/platform/soc/rt582/rt582_crypto/rt_crypto.c:1742:13
	ldr.w	r4, [r12, r3, lsl #2]
	.loc	2 1742 24 is_stmt 0             @ ../../../components/platform/soc/rt582/rt582_crypto/rt_crypto.c:1742:24
	ldr.w	r2, [r1, r3, lsl #2]
.Ltmp247:
	.loc	2 1742 13                       @ ../../../components/platform/soc/rt582/rt582_crypto/rt_crypto.c:1742:13
	cmp	r4, r2
	.loc	2 1751 29 is_stmt 1             @ ../../../components/platform/soc/rt582/rt582_crypto/rt_crypto.c:1751:29
	add	r4, r5
	.loc	2 1742 13                       @ ../../../components/platform/soc/rt582/rt582_crypto/rt_crypto.c:1742:13
	mov.w	r5, #0
	.loc	2 1751 36                       @ ../../../components/platform/soc/rt582/rt582_crypto/rt_crypto.c:1751:36
	sub.w	r2, r4, r2
	.loc	2 1742 13                       @ ../../../components/platform/soc/rt582/rt582_crypto/rt_crypto.c:1742:13
	it	lo
	movlo.w	r5, #-1
.Ltmp248:
	@DEBUG_VALUE: gfp_point_p256_invert:next_carry <- undef
	.loc	2 1751 19                       @ ../../../components/platform/soc/rt582/rt582_crypto/rt_crypto.c:1751:19
	str.w	r2, [r0, r3, lsl #2]
.Ltmp249:
	@DEBUG_VALUE: gfp_point_p256_invert:p_poly <- [DW_OP_plus_uconst 4, DW_OP_stack_value] undef
	@DEBUG_VALUE: gfp_point_p256_invert:p_output <- [DW_OP_plus_uconst 4, DW_OP_stack_value] undef
	@DEBUG_VALUE: gfp_point_p256_invert:p_y <- [DW_OP_plus_uconst 4, DW_OP_stack_value] undef
	@DEBUG_VALUE: gfp_point_p256_invert:carry <- undef
	.loc	2 1738 40                       @ ../../../components/platform/soc/rt582/rt582_crypto/rt_crypto.c:1738:40
	adds	r3, #1
.Ltmp250:
	@DEBUG_VALUE: gfp_point_p256_invert:i <- $r3
	.loc	2 1738 5 is_stmt 0              @ ../../../components/platform/soc/rt582/rt582_crypto/rt_crypto.c:1738:5
	cmp	r3, #8
	bne	.LBB16_3
.Ltmp251:
@ %bb.4:
	@DEBUG_VALUE: gfp_point_p256_invert:i <- $r3
	.loc	2 1759 5 is_stmt 1              @ ../../../components/platform/soc/rt582/rt582_crypto/rt_crypto.c:1759:5
	movs	r0, #0
	pop	{r4, r5, r7, pc}
.Ltmp252:
.Lfunc_end16:
	.size	gfp_point_p256_invert, .Lfunc_end16-gfp_point_p256_invert
	.cfi_endproc
	.cantunwind
	.fnend
                                        @ -- End function
	.hidden	aes_cipher_bin                  @ @aes_cipher_bin
	.type	aes_cipher_bin,%object
	.section	.rodata.aes_cipher_bin,"a",%progbits
	.globl	aes_cipher_bin
	.p2align	2
aes_cipher_bin:
	.long	855810896                       @ 0x3302a350
	.long	269484352                       @ 0x10100140
	.long	280627537                       @ 0x10ba0951
	.long	806879548                       @ 0x3018013c
	.long	806881536                       @ 0x30180900
	.long	1342701568                      @ 0x50080000
	.long	1347027072                      @ 0x504a0080
	.long	1351352576                      @ 0x508c0100
	.long	1355678080                      @ 0x50ce0180
	.long	1342177300                      @ 0x50000014
	.long	1346371732                      @ 0x50400094
	.long	1350566164                      @ 0x50800114
	.long	1354760596                      @ 0x50c00194
	.long	0                               @ 0x0
	.long	1750073428                      @ 0x68500054
	.long	1755316308                      @ 0x68a00054
	.long	1760559188                      @ 0x68f00054
	.long	1191528160                      @ 0x470546e0
	.long	1342177292                      @ 0x5000000c
	.long	1346371724                      @ 0x5040008c
	.long	1350566156                      @ 0x5080010c
	.long	1354760588                      @ 0x50c0018c
	.long	2415935696                      @ 0x900040d0
	.long	303300612                       @ 0x12140004
	.long	806881600                       @ 0x30180940
	.long	1342701568                      @ 0x50080000
	.long	1347027072                      @ 0x504a0080
	.long	1351352576                      @ 0x508c0100
	.long	1355678080                      @ 0x50ce0180
	.long	1139558113                      @ 0x43ec46e1
	.long	823818240                       @ 0x311a7800
	.long	337291091                       @ 0x141aa753
	.long	2684387334                      @ 0xa0008006
	.size	aes_cipher_bin, 132

	.hidden	aes_cipher_inv_bin              @ @aes_cipher_inv_bin
	.type	aes_cipher_inv_bin,%object
	.section	.rodata.aes_cipher_inv_bin,"a",%progbits
	.globl	aes_cipher_inv_bin
	.p2align	2
aes_cipher_inv_bin:
	.long	282239300                       @ 0x10d2a144
	.long	337029973                       @ 0x1416ab55
	.long	806879548                       @ 0x3018013c
	.long	311951359                       @ 0x1297ffff
	.long	1073759440                      @ 0x400044d0
	.long	311951359                       @ 0x1297ffff
	.long	1073759440                      @ 0x400044d0
	.long	311951359                       @ 0x1297ffff
	.long	1073759440                      @ 0x400044d0
	.long	311951359                       @ 0x1297ffff
	.long	1073759440                      @ 0x400044d0
	.long	806881600                       @ 0x30180940
	.long	1342701568                      @ 0x50080000
	.long	1347027072                      @ 0x504a0080
	.long	1351352576                      @ 0x508c0100
	.long	1355678080                      @ 0x50ce0180
	.long	1342177304                      @ 0x50000018
	.long	1346371736                      @ 0x50400098
	.long	1350566168                      @ 0x50800118
	.long	1354760600                      @ 0x50c00198
	.long	0                               @ 0x0
	.long	1750073470                      @ 0x6850007e
	.long	1755316350                      @ 0x68a0007e
	.long	1760559230                      @ 0x68f0007e
	.long	276989952                       @ 0x10828800
	.long	311951359                       @ 0x1297ffff
	.long	1073759440                      @ 0x400044d0
	.long	311951359                       @ 0x1297ffff
	.long	1073759440                      @ 0x400044d0
	.long	311951359                       @ 0x1297ffff
	.long	1073759440                      @ 0x400044d0
	.long	311951359                       @ 0x1297ffff
	.long	1073759440                      @ 0x400044d0
	.long	806881600                       @ 0x30180940
	.long	1342701568                      @ 0x50080000
	.long	1347027072                      @ 0x504a0080
	.long	1351352576                      @ 0x508c0100
	.long	1355678080                      @ 0x50ce0180
	.long	1191528160                      @ 0x470546e0
	.long	1342177296                      @ 0x50000010
	.long	1346371728                      @ 0x50400090
	.long	1350566160                      @ 0x50800110
	.long	1354760592                      @ 0x50c00190
	.long	1139099361                      @ 0x43e546e1
	.long	823818240                       @ 0x311a7800
	.long	4026531840                      @ 0xf0000000
	.size	aes_cipher_inv_bin, 184

	.hidden	aes_enc_boot_bin                @ @aes_enc_boot_bin
	.type	aes_enc_boot_bin,%object
	.section	.rodata.aes_enc_boot_bin,"a",%progbits
	.globl	aes_enc_boot_bin
	.p2align	2
aes_enc_boot_bin:
	.long	281019904                       @ 0x10c00600
	.long	404399955                       @ 0x181aa753
	.long	2684354576                      @ 0xa0000010
	.long	4026531840                      @ 0xf0000000
	.size	aes_enc_boot_bin, 16

	.hidden	aes_cbc_enc_bin                 @ @aes_cbc_enc_bin
	.type	aes_cbc_enc_bin,%object
	.section	.rodata.aes_cbc_enc_bin,"a",%progbits
	.globl	aes_cbc_enc_bin
	.p2align	2
aes_cbc_enc_bin:
	.long	270705664                       @ 0x1022a400
	.long	336243028                       @ 0x140aa954
	.long	278296900                       @ 0x10967944
	.long	2415935661                      @ 0x900040ad
	.long	281083392                       @ 0x10c0fe00
	.long	404399955                       @ 0x181aa753
	.long	2684354576                      @ 0xa0000010
	.long	280135996                       @ 0x10b2893c
	.long	857377084                       @ 0x331a893c
	.long	2415927488                      @ 0x900020c0
	.long	306186240                       @ 0x12400800
	.long	1140343185                      @ 0x43f84191
	.long	4026531840                      @ 0xf0000000
	.size	aes_cbc_enc_bin, 52

	.hidden	aes_ctr_bin                     @ @aes_ctr_bin
	.type	aes_ctr_bin,%object
	.section	.rodata.aes_ctr_bin,"a",%progbits
	.globl	aes_ctr_bin
	.p2align	2
aes_ctr_bin:
	.long	270705664                       @ 0x1022a400
	.long	336243028                       @ 0x140aa954
	.long	278296900                       @ 0x10967944
	.long	2415935696                      @ 0x900040d0
	.long	281103872                       @ 0x10c14e00
	.long	404399955                       @ 0x181aa753
	.long	2684354576                      @ 0xa0000010
	.long	280135996                       @ 0x10b2893c
	.long	2415927468                      @ 0x900020ac
	.long	306186240                       @ 0x12400800
	.long	276475207                       @ 0x107aad47
	.long	1141049067                      @ 0x440306eb
	.long	276475719                       @ 0x107aaf47
	.long	1073743595                      @ 0x400006eb
	.long	1140146577                      @ 0x43f54191
	.long	4026531840                      @ 0xf0000000
	.size	aes_ctr_bin, 64

	.hidden	Curve_Gx_p256                   @ @Curve_Gx_p256
	.type	Curve_Gx_p256,%object
	.section	.rodata.Curve_Gx_p256,"a",%progbits
	.globl	Curve_Gx_p256
Curve_Gx_p256:
	.ascii	"\226\302\230\330E9\241\364\2403\353-\201}\003w\362@\244c\345\346\274\370GB,\341\362\321\027k"
	.ascii	"\365Q\2777h@\266\313\316^1kW3\316+\026\236\017|J\353\347\216\233\177\032\376\342B\343O"
	.size	Curve_Gx_p256, 64

	.hidden	Curve_Gx_p256_BE                @ @Curve_Gx_p256_BE
	.type	Curve_Gx_p256_BE,%object
	.section	.rodata.Curve_Gx_p256_BE,"a",%progbits
	.globl	Curve_Gx_p256_BE
Curve_Gx_p256_BE:
	.ascii	"k\027\321\362\341,BG\370\274\346\345c\244@\362w\003}\201-\3533\240\364\2419E\330\230\302\226"
	.ascii	"O\343B\342\376\032\177\233\216\347\353J|\017\236\026+\3163Wk1^\316\313\266@h7\277Q\365"
	.size	Curve_Gx_p256_BE, 64

	.hidden	gfp_double_jacobian_p256_bin    @ @gfp_double_jacobian_p256_bin
	.type	gfp_double_jacobian_p256_bin,%object
	.section	.rodata.gfp_double_jacobian_p256_bin,"a",%progbits
	.globl	gfp_double_jacobian_p256_bin
	.p2align	2
gfp_double_jacobian_p256_bin:
	.long	809500672                       @ 0x30400000
	.long	271084607                       @ 0x10286c3f
	.long	275794082                       @ 0x107048a2
	.long	280582077                       @ 0x10b957bd
	.long	859860040                       @ 0x33406c48
	.long	859864922                       @ 0x33407f5a
	.long	859850833                       @ 0x33404851
	.long	0                               @ 0x0
	.long	0                               @ 0x0
	.long	0                               @ 0x0
	.long	2147483824                      @ 0x800000b0
	.long	2801795385                      @ 0xa7000139
	.long	859869247                       @ 0x3340903f
	.long	860009535                       @ 0x3342b43f
	.long	279040000                       @ 0x10a1d000
	.long	404215787                       @ 0x1817d7eb
	.long	2684355000                      @ 0xa00001b8
	.long	859915354                       @ 0x3341445a
	.long	859869238                       @ 0x33409036
	.long	860009634                       @ 0x3342b4a2
	.long	279043072                       @ 0x10a1dc00
	.long	404215787                       @ 0x1817d7eb
	.long	2684355000                      @ 0xa00001b8
	.long	859919962                       @ 0x3341565a
	.long	859869346                       @ 0x334090a2
	.long	860009634                       @ 0x3342b4a2
	.long	279046144                       @ 0x10a1e800
	.long	404215787                       @ 0x1817d7eb
	.long	2684355000                      @ 0xa00001b8
	.long	859915354                       @ 0x3341445a
	.long	859869247                       @ 0x3340903f
	.long	860009508                       @ 0x3342b424
	.long	279049216                       @ 0x10a1f400
	.long	404215787                       @ 0x1817d7eb
	.long	2684355000                      @ 0xa00001b8
	.long	859864666                       @ 0x33407e5a
	.long	859869220                       @ 0x33409024
	.long	860009508                       @ 0x3342b424
	.long	279052288                       @ 0x10a20000
	.long	404215787                       @ 0x1817d7eb
	.long	2684355000                      @ 0xa00001b8
	.long	859850842                       @ 0x3340485a
	.long	280582077                       @ 0x10b957bd
	.long	2147881115                      @ 0x8006109b
	.long	2785018117                      @ 0xa6000105
	.long	859860413                       @ 0x33406dbd
	.long	2147889339                      @ 0x800630bb
	.long	2785018120                      @ 0xa6000108
	.long	859851197                       @ 0x334049bd
	.long	2164666523                      @ 0x8106309b
	.long	2734686475                      @ 0xa300010b
	.long	859851197                       @ 0x334049bd
	.long	859869238                       @ 0x33409036
	.long	860009508                       @ 0x3342b424
	.long	279060480                       @ 0x10a22000
	.long	404215787                       @ 0x1817d7eb
	.long	2684355000                      @ 0xa00001b8
	.long	859860058                       @ 0x33406c5a
	.long	280582077                       @ 0x10b957bd
	.long	2147889305                      @ 0x80063099
	.long	2785018133                      @ 0xa6000115
	.long	859851197                       @ 0x334049bd
	.long	2147881115                      @ 0x8006109b
	.long	2785018136                      @ 0xa6000118
	.long	859860413                       @ 0x33406dbd
	.long	889420290                       @ 0x35037a02
	.long	1191325854                      @ 0x4702309e
	.long	2164326544                      @ 0x81010090
	.long	2248151184                      @ 0x86001090
	.long	0                               @ 0x0
	.long	859869238                       @ 0x33409036
	.long	860009526                       @ 0x3342b436
	.long	279069696                       @ 0x10a24400
	.long	404215787                       @ 0x1817d7eb
	.long	2684355000                      @ 0xa00001b8
	.long	859850842                       @ 0x3340485a
	.long	280582077                       @ 0x10b957bd
	.long	2164666557                      @ 0x810630bd
	.long	2734686503                      @ 0xa3000127
	.long	859851197                       @ 0x334049bd
	.long	2164666557                      @ 0x810630bd
	.long	2734686506                      @ 0xa300012a
	.long	859851197                       @ 0x334049bd
	.long	2164674779                      @ 0x810650db
	.long	2734686509                      @ 0xa300012d
	.long	859920317                       @ 0x334157bd
	.long	859869238                       @ 0x33409036
	.long	860009643                       @ 0x3342b4ab
	.long	279077888                       @ 0x10a26400
	.long	404215787                       @ 0x1817d7eb
	.long	2684355000                      @ 0xa00001b8
	.long	859860058                       @ 0x33406c5a
	.long	268960090                       @ 0x1008015a
	.long	2164662428                      @ 0x8106209c
	.long	2734686519                      @ 0xa3000137
	.long	860009917                       @ 0x3342b5bd
	.long	859869220                       @ 0x33409024
	.long	859873855                       @ 0x3340a23f
	.long	337107436                       @ 0x1417d9ec
	.long	2684387333                      @ 0xa0008005
	.long	0                               @ 0x0
	.size	gfp_double_jacobian_p256_bin, 404

	.hidden	gfp_applyz_p256_bin             @ @gfp_applyz_p256_bin
	.type	gfp_applyz_p256_bin,%object
	.section	.rodata.gfp_applyz_p256_bin,"a",%progbits
	.globl	gfp_applyz_p256_bin
	.p2align	2
gfp_applyz_p256_bin:
	.long	809500672                       @ 0x30400000
	.long	859860040                       @ 0x33406c48
	.long	859864922                       @ 0x33407f5a
	.long	859850833                       @ 0x33404851
	.long	859869220                       @ 0x33409024
	.long	860009508                       @ 0x3342b424
	.long	279133184                       @ 0x10a33c00
	.long	404215787                       @ 0x1817d7eb
	.long	2684355000                      @ 0xa00001b8
	.long	859915354                       @ 0x3341445a
	.long	859869238                       @ 0x33409036
	.long	860009634                       @ 0x3342b4a2
	.long	279136256                       @ 0x10a34800
	.long	404215787                       @ 0x1817d7eb
	.long	2684355000                      @ 0xa00001b8
	.long	859860058                       @ 0x33406c5a
	.long	859869346                       @ 0x334090a2
	.long	860009508                       @ 0x3342b424
	.long	279139328                       @ 0x10a35400
	.long	404215787                       @ 0x1817d7eb
	.long	2684355000                      @ 0xa00001b8
	.long	859915354                       @ 0x3341445a
	.long	859869247                       @ 0x3340903f
	.long	860009634                       @ 0x3342b4a2
	.long	279142400                       @ 0x10a36000
	.long	404215787                       @ 0x1817d7eb
	.long	2684355000                      @ 0xa00001b8
	.long	860009562                       @ 0x3342b45a
	.long	859869238                       @ 0x33409036
	.long	337108975                       @ 0x1417dfef
	.long	2684387333                      @ 0xa0008005
	.long	0                               @ 0x0
	.size	gfp_applyz_p256_bin, 128

	.hidden	gfp_xyczadd_p256_bin            @ @gfp_xyczadd_p256_bin
	.type	gfp_xyczadd_p256_bin,%object
	.section	.rodata.gfp_xyczadd_p256_bin,"a",%progbits
	.globl	gfp_xyczadd_p256_bin
	.p2align	2
gfp_xyczadd_p256_bin:
	.long	280531290                       @ 0x10b8915a
	.long	2147504272                      @ 0x80005090
	.long	2147508384                      @ 0x800060a0
	.long	280535907                       @ 0x10b8a363
	.long	2147504304                      @ 0x800050b0
	.long	2147508416                      @ 0x800060c0
	.long	405522916                       @ 0x182bc9e4
	.long	410242021                       @ 0x1873cbe5
	.long	271084607                       @ 0x10286c3f
	.long	275793965                       @ 0x1070482d
	.long	280577469                       @ 0x10b945bd
	.long	859860040                       @ 0x33406c48
	.long	859864922                       @ 0x33407f5a
	.long	859850833                       @ 0x33404851
	.long	859855715                       @ 0x33405b63
	.long	2164674745                      @ 0x810650b9
	.long	2734686546                      @ 0xa3000152
	.long	859915709                       @ 0x334145bd
	.long	859869346                       @ 0x334090a2
	.long	860009634                       @ 0x3342b4a2
	.long	279096832                       @ 0x10a2ae00
	.long	404215787                       @ 0x1817d7eb
	.long	2684355000                      @ 0xa00001b8
	.long	859915354                       @ 0x3341445a
	.long	859869238                       @ 0x33409036
	.long	860009634                       @ 0x3342b4a2
	.long	279099904                       @ 0x10a2ba00
	.long	404215787                       @ 0x1817d7eb
	.long	2684355000                      @ 0xa00001b8
	.long	859860058                       @ 0x33406c5a
	.long	859869220                       @ 0x33409024
	.long	860009634                       @ 0x3342b4a2
	.long	279102976                       @ 0x10a2c600
	.long	404215787                       @ 0x1817d7eb
	.long	2684355000                      @ 0xa00001b8
	.long	859850842                       @ 0x3340485a
	.long	2164670666                      @ 0x810640ca
	.long	2734686567                      @ 0xa3000167
	.long	859855805                       @ 0x33405bbd
	.long	859869229                       @ 0x3340902d
	.long	860009517                       @ 0x3342b42d
	.long	279107584                       @ 0x10a2d800
	.long	404215787                       @ 0x1817d7eb
	.long	2684355000                      @ 0xa00001b8
	.long	859915354                       @ 0x3341445a
	.long	280577469                       @ 0x10b945bd
	.long	2164674777                      @ 0x810650d9
	.long	2734686577                      @ 0xa3000171
	.long	859915709                       @ 0x334145bd
	.long	2164674779                      @ 0x810650db
	.long	2734686580                      @ 0xa3000174
	.long	859915709                       @ 0x334145bd
	.long	2164666553                      @ 0x810630b9
	.long	2734686583                      @ 0xa3000177
	.long	859851197                       @ 0x334049bd
	.long	859869247                       @ 0x3340903f
	.long	860009508                       @ 0x3342b424
	.long	279115776                       @ 0x10a2f800
	.long	404215787                       @ 0x1817d7eb
	.long	2684355000                      @ 0xa00001b8
	.long	859864666                       @ 0x33407e5a
	.long	280577469                       @ 0x10b945bd
	.long	2164666525                      @ 0x8106309d
	.long	2734686593                      @ 0xa3000181
	.long	859851197                       @ 0x334049bd
	.long	859869229                       @ 0x3340902d
	.long	860009508                       @ 0x3342b424
	.long	279120896                       @ 0x10a30c00
	.long	404215787                       @ 0x1817d7eb
	.long	2684355000                      @ 0xa00001b8
	.long	859855450                       @ 0x33405a5a
	.long	2164670666                      @ 0x810640ca
	.long	2734686602                      @ 0xa300018a
	.long	859855805                       @ 0x33405bbd
	.long	338414052                       @ 0x142bc9e4
	.long	343133157                       @ 0x1473cbe5
	.long	280521791                       @ 0x10b86c3f
	.long	2147487952                      @ 0x800010d0
	.long	2147492064                      @ 0x800020e0
	.long	280577069                       @ 0x10b9442d
	.long	2147496144                      @ 0x800030d0
	.long	2147500256                      @ 0x800040e0
	.long	337107949                       @ 0x1417dbed
	.long	2684387333                      @ 0xa0008005
	.long	0                               @ 0x0
	.size	gfp_xyczadd_p256_bin, 340

	.hidden	gfp_xyczaddc_p256_bin           @ @gfp_xyczaddc_p256_bin
	.type	gfp_xyczaddc_p256_bin,%object
	.section	.rodata.gfp_xyczaddc_p256_bin,"a",%progbits
	.globl	gfp_xyczaddc_p256_bin
	.p2align	2
gfp_xyczaddc_p256_bin:
	.long	280531290                       @ 0x10b8915a
	.long	2147504272                      @ 0x80005090
	.long	2147508384                      @ 0x800060a0
	.long	280535907                       @ 0x10b8a363
	.long	2147504304                      @ 0x800050b0
	.long	2147508416                      @ 0x800060c0
	.long	405522916                       @ 0x182bc9e4
	.long	410242021                       @ 0x1873cbe5
	.long	271084607                       @ 0x10286c3f
	.long	275793965                       @ 0x1070482d
	.long	280577469                       @ 0x10b945bd
	.long	859860040                       @ 0x33406c48
	.long	859864922                       @ 0x33407f5a
	.long	859850833                       @ 0x33404851
	.long	859855715                       @ 0x33405b63
	.long	2164674745                      @ 0x810650b9
	.long	2734686326                      @ 0xa3000076
	.long	859915709                       @ 0x334145bd
	.long	859869346                       @ 0x334090a2
	.long	860009634                       @ 0x3342b4a2
	.long	278984192                       @ 0x10a0f600
	.long	404215787                       @ 0x1817d7eb
	.long	2684355000                      @ 0xa00001b8
	.long	859915354                       @ 0x3341445a
	.long	859869238                       @ 0x33409036
	.long	860009634                       @ 0x3342b4a2
	.long	278987264                       @ 0x10a10200
	.long	404215787                       @ 0x1817d7eb
	.long	2684355000                      @ 0xa00001b8
	.long	859860058                       @ 0x33406c5a
	.long	859869220                       @ 0x33409024
	.long	860009634                       @ 0x3342b4a2
	.long	278990336                       @ 0x10a10e00
	.long	404215787                       @ 0x1817d7eb
	.long	2684355000                      @ 0xa00001b8
	.long	859850842                       @ 0x3340485a
	.long	279004160                       @ 0x10a14400
	.long	2147897546                      @ 0x800650ca
	.long	2785017996                      @ 0xa600008c
	.long	859915709                       @ 0x334145bd
	.long	2164670666                      @ 0x810640ca
	.long	2734686351                      @ 0xa300008f
	.long	859855805                       @ 0x33405bbd
	.long	279008768                       @ 0x10a15600
	.long	2164674745                      @ 0x810650b9
	.long	2734686355                      @ 0xa3000093
	.long	859920317                       @ 0x334157bd
	.long	859869247                       @ 0x3340903f
	.long	860009643                       @ 0x3342b4ab
	.long	278999040                       @ 0x10a13000
	.long	404215787                       @ 0x1817d7eb
	.long	2684355000                      @ 0xa00001b8
	.long	859864666                       @ 0x33407e5a
	.long	279008768                       @ 0x10a15600
	.long	2147897499                      @ 0x8006509b
	.long	2785018013                      @ 0xa600009d
	.long	859920317                       @ 0x334157bd
	.long	859869229                       @ 0x3340902d
	.long	860009517                       @ 0x3342b42d
	.long	279004160                       @ 0x10a14400
	.long	404215787                       @ 0x1817d7eb
	.long	2684355000                      @ 0xa00001b8
	.long	859850842                       @ 0x3340485a
	.long	279008768                       @ 0x10a15600
	.long	2164666557                      @ 0x810630bd
	.long	2734686375                      @ 0xa30000a7
	.long	859851197                       @ 0x334049bd
	.long	279013376                       @ 0x10a16800
	.long	2164674715                      @ 0x8106509b
	.long	2734686379                      @ 0xa30000ab
	.long	859924925                       @ 0x334169bd
	.long	859869229                       @ 0x3340902d
	.long	860009652                       @ 0x3342b4b4
	.long	279011328                       @ 0x10a16000
	.long	404215787                       @ 0x1817d7eb
	.long	2684355000                      @ 0xa00001b8
	.long	859855450                       @ 0x33405a5a
	.long	2164670666                      @ 0x810640ca
	.long	2734686388                      @ 0xa30000b4
	.long	859855805                       @ 0x33405bbd
	.long	859869346                       @ 0x334090a2
	.long	860009634                       @ 0x3342b4a2
	.long	279015936                       @ 0x10a17200
	.long	404215787                       @ 0x1817d7eb
	.long	2684355000                      @ 0xa00001b8
	.long	859924570                       @ 0x3341685a
	.long	275863220                       @ 0x107156b4
	.long	2164670667                      @ 0x810640cb
	.long	2734686398                      @ 0xa30000be
	.long	859924925                       @ 0x334169bd
	.long	2164666569                      @ 0x810630c9
	.long	2734686401                      @ 0xa30000c1
	.long	859920317                       @ 0x334157bd
	.long	859869355                       @ 0x334090ab
	.long	860009634                       @ 0x3342b4a2
	.long	279022592                       @ 0x10a18c00
	.long	404215787                       @ 0x1817d7eb
	.long	2684355000                      @ 0xa00001b8
	.long	859919962                       @ 0x3341565a
	.long	279008768                       @ 0x10a15600
	.long	2164662490                      @ 0x810620da
	.long	2734686411                      @ 0xa30000cb
	.long	859865021                       @ 0x33407fbd
	.long	338414052                       @ 0x142bc9e4
	.long	343133157                       @ 0x1473cbe5
	.long	280586303                       @ 0x10b9683f
	.long	2147487952                      @ 0x800010d0
	.long	2147492064                      @ 0x800020e0
	.long	280512557                       @ 0x10b8482d
	.long	2147496144                      @ 0x800030d0
	.long	2147500256                      @ 0x800040e0
	.long	337108462                       @ 0x1417ddee
	.long	2684387333                      @ 0xa0008005
	.long	0                               @ 0x0
	.size	gfp_xyczaddc_p256_bin, 456

	.hidden	gfp_modMultFast_p256_bin        @ @gfp_modMultFast_p256_bin
	.type	gfp_modMultFast_p256_bin,%object
	.section	.rodata.gfp_modMultFast_p256_bin,"a",%progbits
	.globl	gfp_modMultFast_p256_bin
	.p2align	2
gfp_modMultFast_p256_bin:
	.long	0                               @ 0x0
	.long	405521377                       @ 0x182bc3e1
	.long	410240482                       @ 0x1873c5e2
	.long	897102848                       @ 0x3578b400
	.long	0                               @ 0x0
	.long	271094106                       @ 0x1028915a
	.long	275822013                       @ 0x1070b5bd
	.long	2296393882                      @ 0x88e0309a
	.long	859526746                       @ 0x333b565a
	.long	889415168                       @ 0x35036600
	.long	859531362                       @ 0x333b6862
	.long	889419776                       @ 0x35037800
	.long	889242624                       @ 0x3500c400
	.long	0                               @ 0x0
	.long	271275956                       @ 0x102b57b4
	.long	0                               @ 0x0
	.long	890459648                       @ 0x35135600
	.long	857955767                       @ 0x33235db7
	.long	2181042320                      @ 0x82001090
	.long	2147496121                      @ 0x800030b9
	.long	857431480                       @ 0x331b5db8
	.long	889938944                       @ 0x350b6400
	.long	2181042320                      @ 0x82001090
	.long	2147496121                      @ 0x800030b9
	.long	856905652                       @ 0x331357b4
	.long	890461184                       @ 0x35135c00
	.long	856384442                       @ 0x330b63ba
	.long	889415168                       @ 0x35036600
	.long	2147496121                      @ 0x800030b9
	.long	856905653                       @ 0x331357b5
	.long	856907193                       @ 0x33135db9
	.long	855860153                       @ 0x330363b9
	.long	855860660                       @ 0x330365b4
	.long	2147496121                      @ 0x800030b9
	.long	2147745968                      @ 0x800400b0
	.long	2785018334                      @ 0xa60001de
	.long	859878845                       @ 0x3340b5bd
	.long	2684355034                      @ 0xa00001da
	.long	856905655                       @ 0x331357b7
	.long	890461184                       @ 0x35135c00
	.long	855860148                       @ 0x330363b4
	.long	855860662                       @ 0x330365b6
	.long	2164273337                      @ 0x810030b9
	.long	857429944                       @ 0x331b57b8
	.long	889937408                       @ 0x350b5e00
	.long	855860149                       @ 0x330363b5
	.long	855860663                       @ 0x330365b7
	.long	2164273337                      @ 0x810030b9
	.long	856905657                       @ 0x331357b9
	.long	856907188                       @ 0x33135db4
	.long	889414144                       @ 0x35036200
	.long	855860664                       @ 0x330365b8
	.long	2164273337                      @ 0x810030b9
	.long	856381370                       @ 0x330b57ba
	.long	889412096                       @ 0x35035a00
	.long	856907189                       @ 0x33135db5
	.long	889414144                       @ 0x35036200
	.long	855860665                       @ 0x330365b9
	.long	2164273337                      @ 0x810030b9
	.long	269746274                       @ 0x10140062
	.long	1191379152                      @ 0x470300d0
	.long	2164457648                      @ 0x810300b0
	.long	2785018357                      @ 0xa60001f5
	.long	338412513                       @ 0x142bc3e1
	.long	343131618                       @ 0x1473c5e2
	.long	337106923                       @ 0x1417d7eb
	.long	2684387333                      @ 0xa0008005
	.long	0                               @ 0x0
	.size	gfp_modMultFast_p256_bin, 272

	.hidden	gfp_point_mult_p256_bin1        @ @gfp_point_mult_p256_bin1
	.type	gfp_point_mult_p256_bin1,%object
	.section	.rodata.gfp_point_mult_p256_bin1,"a",%progbits
	.globl	gfp_point_mult_p256_bin1
	.p2align	2
gfp_point_mult_p256_bin1:
	.long	809500672                       @ 0x30400000
	.long	271070985                       @ 0x10283709
	.long	275920676                       @ 0x10723724
	.long	280671232                       @ 0x10bab400
	.long	889323520                       @ 0x35020000
	.long	2164261020                      @ 0x8100009c
	.long	2801795088                      @ 0xa7000010
	.long	2164261019                      @ 0x8100009b
	.long	2801795085                      @ 0xa700000d
	.long	2164261018                      @ 0x8100009a
	.long	2801795087                      @ 0xa700000f
	.long	2734686221                      @ 0xa300000d
	.long	2684354591                      @ 0xa000001f
	.long	889323521                       @ 0x35020001
	.long	2684354654                      @ 0xa000005e
	.long	2164281581                      @ 0x810050ed
	.long	889323522                       @ 0x35020002
	.long	2684354654                      @ 0xa000005e
	.long	0                               @ 0x0
	.long	0                               @ 0x0
	.long	0                               @ 0x0
	.long	0                               @ 0x0
	.long	0                               @ 0x0
	.long	0                               @ 0x0
	.long	0                               @ 0x0
	.long	0                               @ 0x0
	.long	0                               @ 0x0
	.long	0                               @ 0x0
	.long	0                               @ 0x0
	.long	0                               @ 0x0
	.long	0                               @ 0x0
	.long	859929160                       @ 0x33417a48
	.long	859934042                       @ 0x33418d5a
	.long	859938376                       @ 0x33419e48
	.long	859943258                       @ 0x3341b15a
	.long	889210882                       @ 0x35004802
	.long	892881408                       @ 0x35384a00
	.long	859869391                       @ 0x334090cf
	.long	860009688                       @ 0x3342b4d8
	.long	859873828                       @ 0x3340a224
	.long	278943232                       @ 0x10a05600
	.long	404217839                       @ 0x1817dfef
	.long	2684354965                      @ 0xa0000195
	.long	278944768                       @ 0x10a05c00
	.long	404216300                       @ 0x1817d9ec
	.long	2684354775                      @ 0xa00000d7
	.long	859938376                       @ 0x33419e48
	.long	859943258                       @ 0x3341b15a
	.long	859850833                       @ 0x33404851
	.long	859869373                       @ 0x334090bd
	.long	860009670                       @ 0x3342b4c6
	.long	278948864                       @ 0x10a06c00
	.long	404217839                       @ 0x1817dfef
	.long	2684354965                      @ 0xa0000195
	.long	859929160                       @ 0x33417a48
	.long	859934042                       @ 0x33418d5a
	.long	539097600                       @ 0x2021fa00
	.long	269746203                       @ 0x1014001b
	.long	2181058768                      @ 0x820050d0
	.long	2533359824                      @ 0x970000d0
	.long	2818572352                      @ 0xa8000040
	.long	2902458425                      @ 0xad000039
	.long	2181058768                      @ 0x820050d0
	.long	2684354642                      @ 0xa0000052
	.long	269746203                       @ 0x1014001b
	.long	2181058768                      @ 0x820050d0
	.long	2533359824                      @ 0x970000d0
	.long	2818572359                      @ 0xa8000047
	.long	271153862                       @ 0x10297ac6
	.long	275881688                       @ 0x10719ed8
	.long	2684354633                      @ 0xa0000049
	.long	271163096                       @ 0x10299ed8
	.long	275872454                       @ 0x10717ac6
	.long	281057280                       @ 0x10c09800
	.long	404479470                       @ 0x181bddee
	.long	2684354660                      @ 0xa0000064
	.long	288097793                       @ 0x112c0601
	.long	290457602                       @ 0x11500802
	.long	281059840                       @ 0x10c0a200
	.long	404478957                       @ 0x181bdbed
	.long	2684354880                      @ 0xa0000140
	.long	2902458432                      @ 0xad000040
	.long	269746203                       @ 0x1014001b
	.long	2181058768                      @ 0x820050d0
	.long	2533359824                      @ 0x970000d0
	.long	2818572377                      @ 0xa8000059
	.long	271153862                       @ 0x10297ac6
	.long	275881688                       @ 0x10719ed8
	.long	2684354651                      @ 0xa000005b
	.long	271163096                       @ 0x10299ed8
	.long	275872454                       @ 0x10717ac6
	.long	281066496                       @ 0x10c0bc00
	.long	404479470                       @ 0x181bddee
	.long	2684354660                      @ 0xa0000064
	.long	4026531840                      @ 0xf0000000
	.long	0                               @ 0x0
	.size	gfp_point_mult_p256_bin1, 384

	.hidden	gfp_point_mult_p256_bin2        @ @gfp_point_mult_p256_bin2
	.type	gfp_point_mult_p256_bin2,%object
	.section	.rodata.gfp_point_mult_p256_bin2,"a",%progbits
	.globl	gfp_point_mult_p256_bin2
	.p2align	2
gfp_point_mult_p256_bin2:
	.long	809500672                       @ 0x30400000
	.long	271057410                       @ 0x10280202
	.long	271163069                       @ 0x10299ebd
	.long	275789312                       @ 0x10703600
	.long	280586685                       @ 0x10b969bd
	.long	2164674714                      @ 0x8106509a
	.long	2734686216                      @ 0xa3000008
	.long	859924925                       @ 0x334169bd
	.long	859869364                       @ 0x334090b4
	.long	860009670                       @ 0x3342b4c6
	.long	2533359792                      @ 0x970000b0
	.long	2801795085                      @ 0xa700000d
	.long	860009688                       @ 0x3342b4d8
	.long	278929408                       @ 0x10a02000
	.long	404215787                       @ 0x1817d7eb
	.long	2684355000                      @ 0xa00001b8
	.long	859924570                       @ 0x3341685a
	.long	859869364                       @ 0x334090b4
	.long	860009481                       @ 0x3342b409
	.long	278932480                       @ 0x10a02c00
	.long	404215787                       @ 0x1817d7eb
	.long	2684355000                      @ 0xa00001b8
	.long	859924570                       @ 0x3341685a
	.long	859860148                       @ 0x33406cb4
	.long	278935040                       @ 0x10a03600
	.long	404213735                       @ 0x1817cfe7
	.long	2684354720                      @ 0xa00000a0
	.long	859924516                       @ 0x33416824
	.long	859869364                       @ 0x334090b4
	.long	860009490                       @ 0x3342b412
	.long	278938112                       @ 0x10a04200
	.long	404215787                       @ 0x1817d7eb
	.long	2684355000                      @ 0xa00001b8
	.long	859924570                       @ 0x3341685a
	.long	859869364                       @ 0x334090b4
	.long	860009661                       @ 0x3342b4bd
	.long	274740736                       @ 0x10603600
	.long	2533359792                      @ 0x970000b0
	.long	2801795112                      @ 0xa7000028
	.long	860009679                       @ 0x3342b4cf
	.long	278943232                       @ 0x10a05600
	.long	404215787                       @ 0x1817d7eb
	.long	2684355000                      @ 0xa00001b8
	.long	859924570                       @ 0x3341685a
	.long	269746203                       @ 0x1014001b
	.long	2533359824                      @ 0x970000d0
	.long	2818572338                      @ 0xa8000032
	.long	271163096                       @ 0x10299ed8
	.long	275872454                       @ 0x10717ac6
	.long	2684354612                      @ 0xa0000034
	.long	271153862                       @ 0x10297ac6
	.long	275881688                       @ 0x10719ed8
	.long	281046528                       @ 0x10c06e00
	.long	404478957                       @ 0x181bdbed
	.long	2684354880                      @ 0xa0000140
	.long	859869373                       @ 0x334090bd
	.long	860009670                       @ 0x3342b4c6
	.long	859873972                       @ 0x3340a2b4
	.long	278952448                       @ 0x10a07a00
	.long	404217839                       @ 0x1817dfef
	.long	2684354965                      @ 0xa0000195
	.long	859929160                       @ 0x33417a48
	.long	859934042                       @ 0x33418d5a
	.long	4026531840                      @ 0xf0000000
	.long	0                               @ 0x0
	.size	gfp_point_mult_p256_bin2, 260

	.hidden	gfp_inv_p256_bin                @ @gfp_inv_p256_bin
	.type	gfp_inv_p256_bin,%object
	.section	.rodata.gfp_inv_p256_bin,"a",%progbits
	.globl	gfp_inv_p256_bin
	.p2align	2
gfp_inv_p256_bin:
	.long	859864576                       @ 0x33407e00
	.long	809500672                       @ 0x30400000
	.long	889411074                       @ 0x35035602
	.long	889210882                       @ 0x35004802
	.long	892881408                       @ 0x35384a00
	.long	893409792                       @ 0x35405a00
	.long	271084607                       @ 0x10286c3f
	.long	275793965                       @ 0x1070482d
	.long	280713140                       @ 0x10bb57b4
	.long	0                               @ 0x0
	.long	0                               @ 0x0
	.long	0                               @ 0x0
	.long	2164261018                      @ 0x8100009a
	.long	2801795282                      @ 0xa70000d2
	.long	1191719069                      @ 0x4708309d
	.long	1191981229                      @ 0x470c30ad
	.long	2164261018                      @ 0x8100009a
	.long	2734686400                      @ 0xa30000c0
	.long	2684354761                      @ 0xa00000c9
	.long	0                               @ 0x0
	.long	0                               @ 0x0
	.long	0                               @ 0x0
	.long	2248151184                      @ 0x86001090
	.long	1191325885                      @ 0x470230bd
	.long	2164457648                      @ 0x810300b0
	.long	2248159408                      @ 0x860030b0
	.long	2684354732                      @ 0xa00000ac
	.long	2248155296                      @ 0x860020a0
	.long	1191325901                      @ 0x470230cd
	.long	2164523200                      @ 0x810400c0
	.long	2248163520                      @ 0x860040c0
	.long	2684354732                      @ 0xa00000ac
	.long	2164265114                      @ 0x8100109a
	.long	2248151184                      @ 0x86001090
	.long	2164666556                      @ 0x810630bc
	.long	2734686405                      @ 0xa30000c5
	.long	293080067                       @ 0x11780c03
	.long	1191325885                      @ 0x470230bd
	.long	2164457648                      @ 0x810300b0
	.long	2248159408                      @ 0x860030b0
	.long	2684354732                      @ 0xa00000ac
	.long	2164269225                      @ 0x810020a9
	.long	2248155296                      @ 0x860020a0
	.long	2164670667                      @ 0x810640cb
	.long	2734686414                      @ 0xa30000ce
	.long	295177220                       @ 0x11980c04
	.long	1191325901                      @ 0x470230cd
	.long	2164523200                      @ 0x810400c0
	.long	2248163520                      @ 0x860040c0
	.long	2684354732                      @ 0xa00000ac
	.long	278939648                       @ 0x10a04800
	.long	2147504304                      @ 0x800050b0
	.long	337367015                       @ 0x141bcfe7
	.long	2684387334                      @ 0xa0008006
	.long	0                               @ 0x0
	.size	gfp_inv_p256_bin, 220

	.hidden	gfp_ecdsa_verify_p256_bin       @ @gfp_ecdsa_verify_p256_bin
	.type	gfp_ecdsa_verify_p256_bin,%object
	.section	.rodata.gfp_ecdsa_verify_p256_bin,"a",%progbits
	.globl	gfp_ecdsa_verify_p256_bin
	.p2align	2
gfp_ecdsa_verify_p256_bin:
	.long	859968000                       @ 0x33421200
	.long	859832594                       @ 0x33400112
	.long	859860269                       @ 0x33406d2d
	.long	278924288                       @ 0x10a00c00
	.long	404213735                       @ 0x1817cfe7
	.long	2684354720                      @ 0xa00000a0
	.long	860037156                       @ 0x33432024
	.long	859869521                       @ 0x33409151
	.long	860009508                       @ 0x3342b424
	.long	893432832                       @ 0x3540b400
	.long	893437440                       @ 0x3540c600
	.long	271094034                       @ 0x10289112
	.long	282294856                       @ 0x10d37a48
	.long	2164670618                      @ 0x8106409a
	.long	2734686224                      @ 0xa3000010
	.long	859869629                       @ 0x334091bd
	.long	271094106                       @ 0x1028915a
	.long	275821667                       @ 0x1070b463
	.long	2198089882                      @ 0x8304309a
	.long	270629376                       @ 0x10217a00
	.long	2147487920                      @ 0x800010b0
	.long	893432832                       @ 0x3540b400
	.long	893437440                       @ 0x3540c600
	.long	859869220                       @ 0x33409024
	.long	860009782                       @ 0x3342b536
	.long	271094106                       @ 0x1028915a
	.long	275821667                       @ 0x1070b463
	.long	2198089882                      @ 0x8304309a
	.long	270633984                       @ 0x10218c00
	.long	2147487920                      @ 0x800010b0
	.long	859832585                       @ 0x33400109
	.long	809500672                       @ 0x30400000
	.long	271252687                       @ 0x102afccf
	.long	282295184                       @ 0x10d37b90
	.long	860028223                       @ 0x3342fd3f
	.long	860032840                       @ 0x33430f48
	.long	859938313                       @ 0x33419e09
	.long	859942930                       @ 0x3341b012
	.long	2164670618                      @ 0x8106409a
	.long	2734686249                      @ 0xa3000029
	.long	860037565                       @ 0x334321bd
	.long	271163096                       @ 0x10299ed8
	.long	275971463                       @ 0x1072fd87
	.long	281041920                       @ 0x10c05c00
	.long	404478957                       @ 0x181bdbed
	.long	2684354880                      @ 0xa0000140
	.long	859860368                       @ 0x33406d90
	.long	278946816                       @ 0x10a06400
	.long	404213735                       @ 0x1817cfe7
	.long	2684354720                      @ 0xa00000a0
	.long	859869566                       @ 0x3340917e
	.long	860009863                       @ 0x3342b587
	.long	859873828                       @ 0x3340a224
	.long	278949888                       @ 0x10a07000
	.long	404217839                       @ 0x1817dfef
	.long	2684354965                      @ 0xa0000195
	.long	860027976                       @ 0x3342fc48
	.long	860032858                       @ 0x33430f5a
	.long	889233922                       @ 0x3500a202
	.long	892904448                       @ 0x3538a400
	.long	0                               @ 0x0
	.long	0                               @ 0x0
	.long	539098624                       @ 0x2021fe00
	.long	282430653                       @ 0x10d58cbd
	.long	2181058768                      @ 0x820050d0
	.long	2533359824                      @ 0x970000d0
	.long	2818572359                      @ 0xa8000047
	.long	2181062880                      @ 0x820060e0
	.long	2533359840                      @ 0x970000e0
	.long	2818572365                      @ 0xa800004d
	.long	2902458432                      @ 0xad000040
	.long	2181062880                      @ 0x820060e0
	.long	2533359840                      @ 0x970000e0
	.long	2818572368                      @ 0xa8000050
	.long	860018697                       @ 0x3342d809
	.long	860023314                       @ 0x3342ea12
	.long	2684354642                      @ 0xa0000052
	.long	860019007                       @ 0x3342d93f
	.long	860023624                       @ 0x3342eb48
	.long	2684354642                      @ 0xa0000052
	.long	860019070                       @ 0x3342d97e
	.long	860023687                       @ 0x3342eb87
	.long	2902458452                      @ 0xad000054
	.long	2684354693                      @ 0xa0000085
	.long	859869548                       @ 0x3340916c
	.long	860009845                       @ 0x3342b575
	.long	278966784                       @ 0x10a0b200
	.long	404216300                       @ 0x1817d9ec
	.long	2684354775                      @ 0xa00000d7
	.long	860018760                       @ 0x3342d848
	.long	860023642                       @ 0x3342eb5a
	.long	282430653                       @ 0x10d58cbd
	.long	2181058768                      @ 0x820050d0
	.long	2533359824                      @ 0x970000d0
	.long	2818572387                      @ 0xa8000063
	.long	2181062880                      @ 0x820060e0
	.long	2533359840                      @ 0x970000e0
	.long	2818572393                      @ 0xa8000069
	.long	2684354692                      @ 0xa0000084
	.long	2181062880                      @ 0x820060e0
	.long	2533359840                      @ 0x970000e0
	.long	2818572396                      @ 0xa800006c
	.long	859869193                       @ 0x33409009
	.long	860009490                       @ 0x3342b412
	.long	2684354670                      @ 0xa000006e
	.long	859869503                       @ 0x3340913f
	.long	860009800                       @ 0x3342b548
	.long	2684354670                      @ 0xa000006e
	.long	859869566                       @ 0x3340917e
	.long	860009863                       @ 0x3342b587
	.long	278979072                       @ 0x10a0e200
	.long	404217839                       @ 0x1817dfef
	.long	2684354965                      @ 0xa0000195
	.long	860037201                       @ 0x33432051
	.long	271094106                       @ 0x1028915a
	.long	275962229                       @ 0x1072d975
	.long	282557153                       @ 0x10d77ae1
	.long	2164674745                      @ 0x810650b9
	.long	2734686328                      @ 0xa3000078
	.long	859947965                       @ 0x3341c3bd
	.long	0                               @ 0x0
	.long	281081856                       @ 0x10c0f800
	.long	404478957                       @ 0x181bdbed
	.long	2684354880                      @ 0xa0000140
	.long	0                               @ 0x0
	.long	0                               @ 0x0
	.long	859869584                       @ 0x33409190
	.long	860009697                       @ 0x3342b4e1
	.long	278988288                       @ 0x10a10600
	.long	404215787                       @ 0x1817d7eb
	.long	2684355000                      @ 0xa00001b8
	.long	859873882                       @ 0x3340a25a
	.long	2902458452                      @ 0xad000054
	.long	859860049                       @ 0x33406c51
	.long	278991360                       @ 0x10a11200
	.long	404213735                       @ 0x1817cfe7
	.long	2684354720                      @ 0xa00000a0
	.long	859873828                       @ 0x3340a224
	.long	859869548                       @ 0x3340916c
	.long	860009845                       @ 0x3342b575
	.long	278994432                       @ 0x10a11e00
	.long	404217839                       @ 0x1817dfef
	.long	2684354965                      @ 0xa0000195
	.long	809500946                       @ 0x30400112
	.long	271094034                       @ 0x10289112
	.long	282294874                       @ 0x10d37a5a
	.long	2164670618                      @ 0x8106409a
	.long	2734686357                      @ 0xa3000095
	.long	859878845                       @ 0x3340b5bd
	.long	271103286                       @ 0x1028b536
	.long	2164261018                      @ 0x8100009a
	.long	2801795226                      @ 0xa700009a
	.long	889323520                       @ 0x35020000
	.long	2684354715                      @ 0xa000009b
	.long	889323522                       @ 0x35020002
	.long	4026531840                      @ 0xf0000000
	.size	gfp_ecdsa_verify_p256_bin, 624

	.hidden	gfp_point_add_p256_bin          @ @gfp_point_add_p256_bin
	.type	gfp_point_add_p256_bin,%object
	.section	.rodata.gfp_point_add_p256_bin,"a",%progbits
	.globl	gfp_point_add_p256_bin
	.p2align	2
gfp_point_add_p256_bin:
	.long	809500672                       @ 0x30400000
	.long	889323522                       @ 0x35020002
	.long	271094106                       @ 0x1028915a
	.long	275817315                       @ 0x1070a363
	.long	2164261019                      @ 0x8100009b
	.long	2801795079                      @ 0xa7000007
	.long	2684354576                      @ 0xa0000010
	.long	2164261036                      @ 0x810000ac
	.long	2801795115                      @ 0xa700002b
	.long	889323520                       @ 0x35020000
	.long	893432832                       @ 0x3540b400
	.long	893437440                       @ 0x3540c600
	.long	2684354622                      @ 0xa000003e
	.long	0                               @ 0x0
	.long	0                               @ 0x0
	.long	0                               @ 0x0
	.long	271252687                       @ 0x102afccf
	.long	282295184                       @ 0x10d37b90
	.long	860027976                       @ 0x3342fc48
	.long	860032858                       @ 0x33430f5a
	.long	859938385                       @ 0x33419e51
	.long	859943267                       @ 0x3341b163
	.long	2164670618                      @ 0x8106409a
	.long	2734686233                      @ 0xa3000019
	.long	860037565                       @ 0x334321bd
	.long	271163096                       @ 0x10299ed8
	.long	275971463                       @ 0x1072fd87
	.long	281033728                       @ 0x10c03c00
	.long	404478957                       @ 0x181bdbed
	.long	2684354880                      @ 0xa0000140
	.long	859860368                       @ 0x33406d90
	.long	278938624                       @ 0x10a04400
	.long	404213735                       @ 0x1817cfe7
	.long	2684354720                      @ 0xa00000a0
	.long	859869566                       @ 0x3340917e
	.long	860009863                       @ 0x3342b587
	.long	859873828                       @ 0x3340a224
	.long	278941696                       @ 0x10a05000
	.long	404217839                       @ 0x1817dfef
	.long	2684354965                      @ 0xa0000195
	.long	859878472                       @ 0x3340b448
	.long	859883354                       @ 0x3340c75a
	.long	2684354622                      @ 0xa000003e
	.long	889233922                       @ 0x3500a202
	.long	892904448                       @ 0x3538a400
	.long	278945792                       @ 0x10a06000
	.long	404216300                       @ 0x1817d9ec
	.long	2684354775                      @ 0xa00000d7
	.long	860018760                       @ 0x3342d848
	.long	860023642                       @ 0x3342eb5a
	.long	859860049                       @ 0x33406c51
	.long	278948864                       @ 0x10a06c00
	.long	404213735                       @ 0x1817cfe7
	.long	2684354720                      @ 0xa00000a0
	.long	859873828                       @ 0x3340a224
	.long	859869548                       @ 0x3340916c
	.long	860009845                       @ 0x3342b575
	.long	278951936                       @ 0x10a07800
	.long	404217839                       @ 0x1817dfef
	.long	2684354965                      @ 0xa0000195
	.long	859878472                       @ 0x3340b448
	.long	859883354                       @ 0x3340c75a
	.long	4026531840                      @ 0xf0000000
	.size	gfp_point_add_p256_bin, 252

	.hidden	gfp_valid_point_p256_bin        @ @gfp_valid_point_p256_bin
	.type	gfp_valid_point_p256_bin,%object
	.section	.rodata.gfp_valid_point_p256_bin,"a",%progbits
	.globl	gfp_valid_point_p256_bin
	.p2align	2
gfp_valid_point_p256_bin:
	.long	859864648                       @ 0x33407e48
	.long	809500672                       @ 0x30400000
	.long	859869530                       @ 0x3340915a
	.long	278924288                       @ 0x10a00c00
	.long	404215787                       @ 0x1817d7eb
	.long	2684355000                      @ 0xa00001b8
	.long	859915354                       @ 0x3341445a
	.long	859869247                       @ 0x3340903f
	.long	860009535                       @ 0x3342b43f
	.long	278927360                       @ 0x10a01800
	.long	404215787                       @ 0x1817d7eb
	.long	2684355000                      @ 0xa00001b8
	.long	859869274                       @ 0x3340905a
	.long	860009535                       @ 0x3342b43f
	.long	278929920                       @ 0x10a02200
	.long	404215787                       @ 0x1817d7eb
	.long	2684355000                      @ 0xa00001b8
	.long	859919962                       @ 0x3341565a
	.long	859869292                       @ 0x3340906c
	.long	860009535                       @ 0x3342b43f
	.long	278932992                       @ 0x10a02e00
	.long	404215787                       @ 0x1817d7eb
	.long	2684355000                      @ 0xa00001b8
	.long	271144538                       @ 0x1029565a
	.long	276360125                       @ 0x1078ebbd
	.long	2147881114                      @ 0x8006109a
	.long	2785017884                      @ 0xa600001c
	.long	859920317                       @ 0x334157bd
	.long	2147881115                      @ 0x8006109b
	.long	2785017887                      @ 0xa600001f
	.long	859920317                       @ 0x334157bd
	.long	271144610                       @ 0x102956a2
	.long	2164261018                      @ 0x8100009a
	.long	2801795108                      @ 0xa7000024
	.long	889323520                       @ 0x35020000
	.long	2684354597                      @ 0xa0000025
	.long	889323522                       @ 0x35020002
	.long	4026531840                      @ 0xf0000000
	.size	gfp_valid_point_p256_bin, 152

	.type	polynomial_p256,%object         @ @polynomial_p256
	.section	.rodata.polynomial_p256,"a",%progbits
	.p2align	2
polynomial_p256:
	.long	4294967295                      @ 0xffffffff
	.long	4294967295                      @ 0xffffffff
	.long	4294967295                      @ 0xffffffff
	.long	0                               @ 0x0
	.long	0                               @ 0x0
	.long	0                               @ 0x0
	.long	1                               @ 0x1
	.long	4294967295                      @ 0xffffffff
	.size	polynomial_p256, 32

	.type	const_0_p256,%object            @ @const_0_p256
	.section	.rodata.const_0_p256,"a",%progbits
	.p2align	2
const_0_p256:
	.zero	32
	.size	const_0_p256, 32

	.type	const_1_p256,%object            @ @const_1_p256
	.section	.rodata.const_1_p256,"a",%progbits
	.p2align	2
const_1_p256:
	.long	1                               @ 0x1
	.long	0                               @ 0x0
	.long	0                               @ 0x0
	.long	0                               @ 0x0
	.long	0                               @ 0x0
	.long	0                               @ 0x0
	.long	0                               @ 0x0
	.long	0                               @ 0x0
	.size	const_1_p256, 32

	.type	order_sub1_p256,%object         @ @order_sub1_p256
	.section	.rodata.order_sub1_p256,"a",%progbits
	.p2align	2
order_sub1_p256:
	.long	4234356048                      @ 0xfc632550
	.long	4089039554                      @ 0xf3b9cac2
	.long	2803342980                      @ 0xa7179e84
	.long	3169254061                      @ 0xbce6faad
	.long	4294967295                      @ 0xffffffff
	.long	4294967295                      @ 0xffffffff
	.long	0                               @ 0x0
	.long	4294967295                      @ 0xffffffff
	.size	order_sub1_p256, 32

	.type	order_p256,%object              @ @order_p256
	.section	.rodata.order_p256,"a",%progbits
	.p2align	2
order_p256:
	.long	4234356049                      @ 0xfc632551
	.long	4089039554                      @ 0xf3b9cac2
	.long	2803342980                      @ 0xa7179e84
	.long	3169254061                      @ 0xbce6faad
	.long	4294967295                      @ 0xffffffff
	.long	4294967295                      @ 0xffffffff
	.long	0                               @ 0x0
	.long	4294967295                      @ 0xffffffff
	.size	order_p256, 32

	.type	gfp_ecdsa_signature_p256_bin,%object @ @gfp_ecdsa_signature_p256_bin
	.section	.rodata.gfp_ecdsa_signature_p256_bin,"a",%progbits
	.p2align	2
gfp_ecdsa_signature_p256_bin:
	.long	859832594                       @ 0x33400112
	.long	809500946                       @ 0x30400112
	.long	271094034                       @ 0x10289112
	.long	282295076                       @ 0x10d37b24
	.long	276210203                       @ 0x1076a21b
	.long	2164666554                      @ 0x810630ba
	.long	2734686216                      @ 0xa3000008
	.long	860005309                       @ 0x3342a3bd
	.long	2164658330                      @ 0x8106109a
	.long	2734686219                      @ 0xa300000b
	.long	859869629                       @ 0x334091bd
	.long	2147483792                      @ 0x80000090
	.long	2801795112                      @ 0xa7000028
	.long	859859995                       @ 0x33406c1b
	.long	278929920                       @ 0x10a02200
	.long	404213735                       @ 0x1817cfe7
	.long	2684354720                      @ 0xa00000a0
	.long	859938340                       @ 0x33419e24
	.long	859873864                       @ 0x3340a248
	.long	271098732                       @ 0x1028a36c
	.long	275821667                       @ 0x1070b463
	.long	282557265                       @ 0x10d77b51
	.long	893432832                       @ 0x3540b400
	.long	893437440                       @ 0x3540c600
	.long	2198089882                      @ 0x8304309a
	.long	0                               @ 0x0
	.long	271163096                       @ 0x10299ed8
	.long	2147885275                      @ 0x800620db
	.long	2785017886                      @ 0xa600001e
	.long	859943357                       @ 0x3341b1bd
	.long	275821667                       @ 0x1070b463
	.long	282557274                       @ 0x10d77b5a
	.long	893432832                       @ 0x3540b400
	.long	893437440                       @ 0x3540c600
	.long	2198089882                      @ 0x8304309a
	.long	2147504304                      @ 0x800050b0
	.long	2147483856                      @ 0x800000d0
	.long	2801795112                      @ 0xa7000028
	.long	889323522                       @ 0x35020002
	.long	2684354601                      @ 0xa0000029
	.long	889323520                       @ 0x35020000
	.long	4026531840                      @ 0xf0000000
	.long	0                               @ 0x0
	.size	gfp_ecdsa_signature_p256_bin, 172

	.type	param_a_p256,%object            @ @param_a_p256
	.section	.data.param_a_p256,"aw",%progbits
	.p2align	2
param_a_p256:
	.long	4294967292                      @ 0xfffffffc
	.long	4294967295                      @ 0xffffffff
	.long	4294967295                      @ 0xffffffff
	.long	0                               @ 0x0
	.long	0                               @ 0x0
	.long	0                               @ 0x0
	.long	1                               @ 0x1
	.long	4294967295                      @ 0xffffffff
	.size	param_a_p256, 32

	.type	param_b_p256,%object            @ @param_b_p256
	.section	.data.param_b_p256,"aw",%progbits
	.p2align	2
param_b_p256:
	.long	668098635                       @ 0x27d2604b
	.long	1003371582                      @ 0x3bce3c3e
	.long	3428036854                      @ 0xcc53b0f6
	.long	1696401072                      @ 0x651d06b0
	.long	1989707452                      @ 0x769886bc
	.long	3018571093                      @ 0xb3ebbd55
	.long	2855965671                      @ 0xaa3a93e7
	.long	1522939352                      @ 0x5ac635d8
	.size	param_b_p256, 32

	.type	gfp_scalar_vxh_bin,%object      @ @gfp_scalar_vxh_bin
	.section	.rodata.gfp_scalar_vxh_bin,"a",%progbits
	.p2align	2
gfp_scalar_vxh_bin:
	.long	809500753                       @ 0x30400051
	.long	271094106                       @ 0x1028915a
	.long	275821667                       @ 0x1070b463
	.long	893432832                       @ 0x3540b400
	.long	893437440                       @ 0x3540c600
	.long	2147483792                      @ 0x80000090
	.long	2801795084                      @ 0xa700000c
	.long	2147483808                      @ 0x800000a0
	.long	2801795084                      @ 0xa700000c
	.long	280540605                       @ 0x10b8b5bd
	.long	2198089882                      @ 0x8304309a
	.long	2147504304                      @ 0x800050b0
	.long	271238746                       @ 0x102ac65a
	.long	2164662426                      @ 0x8106209a
	.long	2734686224                      @ 0xa3000010
	.long	859878845                       @ 0x3340b5bd
	.long	4026531840                      @ 0xf0000000
	.size	gfp_scalar_vxh_bin, 68

	.type	gfp_scalar_modmult_bin,%object  @ @gfp_scalar_modmult_bin
	.section	.rodata.gfp_scalar_modmult_bin,"a",%progbits
	.p2align	2
gfp_scalar_modmult_bin:
	.long	809500753                       @ 0x30400051
	.long	271094106                       @ 0x1028915a
	.long	275821667                       @ 0x1070b463
	.long	893432832                       @ 0x3540b400
	.long	893437440                       @ 0x3540c600
	.long	2147483792                      @ 0x80000090
	.long	2801795084                      @ 0xa700000c
	.long	2147483808                      @ 0x800000a0
	.long	2801795084                      @ 0xa700000c
	.long	278967296                       @ 0x10a0b400
	.long	2198089882                      @ 0x8304309a
	.long	2147504304                      @ 0x800050b0
	.long	4026531840                      @ 0xf0000000
	.size	gfp_scalar_modmult_bin, 52

	.section	".note.GNU-stack","",%progbits
	.eabi_attribute	30, 3	@ Tag_ABI_optimization_goals
	.ARM_attribute	16, 1	@ Tag_AV_eba