	.text
	.syntax unified
	.eabi_attribute	67, "2.09"	@ Tag_conformance
	.cpu	cortex-m3
	.eabi_attribute	6, 10	@ Tag_CPU_arch
	.eabi_attribute	7, 77	@ Tag_CPU_arch_profile
	.eabi_attribute	8, 0	@ Tag_ARM_ISA_use
	.eabi_attribute	9, 2	@ Tag_THUMB_ISA_use
	.eabi_attribute	34, 1	@ Tag_CPU_unaligned_access
	.eabi_attribute	17, 1	@ Tag_ABI_PCS_GOT_use
	.eabi_attribute	20, 2	@ Tag_ABI_FP_denormal
	.eabi_attribute	21, 0	@ Tag_ABI_FP_exceptions
	.eabi_attribute	23, 1	@ Tag_ABI_FP_number_model
	.eabi_attribute	24, 1	@ Tag_ABI_align_needed
	.eabi_attribute	25, 1	@ Tag_ABI_align_preserved
	.eabi_attribute	38, 1	@ Tag_ABI_FP_16bit_format
	.eabi_attribute	18, 4	@ Tag_ABI_PCS_wchar_t
	.eabi_attribute	26, 2	@ Tag_ABI_enum_size
	.eabi_attribute	14, 0	@ Tag_ABI_PCS_R9_use
	.file	"rt_ecjpake.c"
	.file	1 "C:\\Keil_v5\\ARM\\ARMCLANG\\Bin\\..\\include" "stdint.h"
	.file	2 "D:\\Rafael-IoT-SDK-Internal-main\\examples\\das_subg_thread\\keil" "../../../components/platform/soc/rt582/rt582_crypto/rt_ecjpake.c"
	.file	3 "D:\\Rafael-IoT-SDK-Internal-main\\examples\\das_subg_thread\\keil" "../../../components/platform/soc/rt582/rt582_crypto/Inc/rt_ecc.h"
	.section	.text.ecjpake_generate_zkp,"ax",%progbits
	.hidden	ecjpake_generate_zkp            @ -- Begin function ecjpake_generate_zkp
	.globl	ecjpake_generate_zkp
	.p2align	1
	.type	ecjpake_generate_zkp,%function
	.code	16                              @ @ecjpake_generate_zkp
	.thumb_func
ecjpake_generate_zkp:
.Lfunc_begin0:
	.loc	2 189 0                         @ ../../../components/platform/soc/rt582/rt582_crypto/rt_ecjpake.c:189:0
	.fnstart
	.cfi_sections .debug_frame
	.cfi_startproc
@ %bb.0:
	@DEBUG_VALUE: ecjpake_generate_zkp:ctx <- $r0
	@DEBUG_VALUE: ecjpake_generate_zkp:key <- $r1
	@DEBUG_VALUE: ecjpake_generate_zkp:gen <- $r2
	@DEBUG_VALUE: ecjpake_generate_zkp:private_key <- $r3
	.save	{r4, r5, r6, r7, r8, r9, r10, r11, lr}
	push.w	{r4, r5, r6, r7, r8, r9, r10, r11, lr}
	.cfi_def_cfa_offset 36
	.cfi_offset lr, -4
	.cfi_offset r11, -8
	.cfi_offset r10, -12
	.cfi_offset r9, -16
	.cfi_offset r8, -20
	.cfi_offset r7, -24
	.cfi_offset r6, -28
	.cfi_offset r5, -32
	.cfi_offset r4, -36
	.pad	#452
	sub	sp, #452
	.cfi_def_cfa_offset 488
	add	r5, sp, #356
	mov	r4, r2
.Ltmp0:
	@DEBUG_VALUE: ecjpake_generate_zkp:gen <- $r4
	mov	r9, r1
.Ltmp1:
	@DEBUG_VALUE: ecjpake_generate_zkp:key <- $r9
	mov	r11, r0
.Ltmp2:
	@DEBUG_VALUE: ecjpake_generate_zkp:ctx <- $r11
	@DEBUG_VALUE: ecjpake_generate_zkp:private_key <- $r3
	@DEBUG_VALUE: ecjpake_generate_zkp:gen <- $r4
	@DEBUG_VALUE: ecjpake_generate_zkp:key <- $r9
	@DEBUG_VALUE: ecjpake_generate_zkp:ctx <- $r11
	.loc	2 202 5 prologue_end            @ ../../../components/platform/soc/rt582/rt582_crypto/rt_ecjpake.c:202:5
	mov	r0, r5
	mov	r1, r3
.Ltmp3:
	@DEBUG_VALUE: ecjpake_generate_zkp:private_key <- $r1
	movs	r2, #8
	bl	buffer_endian_exchange
.Ltmp4:
	.loc	2 0 5 is_stmt 0                 @ ../../../components/platform/soc/rt582/rt582_crypto/rt_ecjpake.c:0:5
	add	r6, sp, #196
	.loc	2 207 5 is_stmt 1               @ ../../../components/platform/soc/rt582/rt582_crypto/rt_ecjpake.c:207:5
	mov	r0, r6
	mov	r1, r4
	movs	r2, #8
	bl	buffer_endian_exchange
.Ltmp5:
	.loc	2 208 41                        @ ../../../components/platform/soc/rt582/rt582_crypto/rt_ecjpake.c:208:41
	add.w	r0, r6, #32
	.loc	2 208 72 is_stmt 0              @ ../../../components/platform/soc/rt582/rt582_crypto/rt_ecjpake.c:208:72
	add.w	r1, r4, #32
	.loc	2 208 5                         @ ../../../components/platform/soc/rt582/rt582_crypto/rt_ecjpake.c:208:5
	movs	r2, #8
	str	r4, [sp, #20]                   @ 4-byte Spill
.Ltmp6:
	@DEBUG_VALUE: ecjpake_generate_zkp:gen <- [DW_OP_plus_uconst 20] [$sp+0]
	@DEBUG_VALUE: ecjpake_generate_zkp:gen <- [DW_OP_plus_uconst 20] [$sp+0]
	.loc	2 0 5                           @ ../../../components/platform/soc/rt582/rt582_crypto/rt_ecjpake.c:0:5
	str	r1, [sp, #16]                   @ 4-byte Spill
	.loc	2 208 5                         @ ../../../components/platform/soc/rt582/rt582_crypto/rt_ecjpake.c:208:5
	bl	buffer_endian_exchange
.Ltmp7:
	.loc	2 210 5 is_stmt 1               @ ../../../components/platform/soc/rt582/rt582_crypto/rt_ecjpake.c:210:5
	bl	gfp_ecc_curve_p256_init
.Ltmp8:
	.loc	2 0 5 is_stmt 0                 @ ../../../components/platform/soc/rt582/rt582_crypto/rt_ecjpake.c:0:5
	add	r7, sp, #260
	.loc	2 216 5 is_stmt 1               @ ../../../components/platform/soc/rt582/rt582_crypto/rt_ecjpake.c:216:5
	mov	r0, r7
	mov	r1, r6
	mov	r2, r5
	bl	gfp_point_p256_mult
.Ltmp9:
	.loc	2 221 5                         @ ../../../components/platform/soc/rt582/rt582_crypto/rt_ecjpake.c:221:5
	mov	r0, r9
	mov	r1, r7
	movs	r2, #8
	bl	buffer_endian_exchange
.Ltmp10:
	.loc	2 222 41                        @ ../../../components/platform/soc/rt582/rt582_crypto/rt_ecjpake.c:222:41
	add.w	r0, r9, #32
	.loc	2 222 64 is_stmt 0              @ ../../../components/platform/soc/rt582/rt582_crypto/rt_ecjpake.c:222:64
	add.w	r1, r7, #32
	.loc	2 222 5                         @ ../../../components/platform/soc/rt582/rt582_crypto/rt_ecjpake.c:222:5
	movs	r2, #8
	str	r0, [sp, #24]                   @ 4-byte Spill
	str	r1, [sp, #12]                   @ 4-byte Spill
	bl	buffer_endian_exchange
.Ltmp11:
	@DEBUG_VALUE: self_test_rngX:length <- 32
	@DEBUG_VALUE: self_test_rngX:out <- undef
	.loc	2 99 9 is_stmt 1                @ ../../../components/platform/soc/rt582/rt582_crypto/rt_ecjpake.c:99:9
	movw	r7, :lower16:self_test_rngX.remain_length
	movt	r7, :upper16:self_test_rngX.remain_length
	ldr	r4, [r7]
.Ltmp12:
	.loc	2 99 9 is_stmt 0                @ ../../../components/platform/soc/rt582/rt582_crypto/rt_ecjpake.c:99:9
	cmp	r4, #32
	blo	.LBB0_2
.Ltmp13:
@ %bb.1:
	@DEBUG_VALUE: ecjpake_generate_zkp:ctx <- $r11
	@DEBUG_VALUE: ecjpake_generate_zkp:key <- $r9
	@DEBUG_VALUE: ecjpake_generate_zkp:gen <- [DW_OP_plus_uconst 20] [$sp+0]
	@DEBUG_VALUE: self_test_rngX:length <- 32
	.loc	2 101 21 is_stmt 1              @ ../../../components/platform/soc/rt582/rt582_crypto/rt_ecjpake.c:101:21
	movw	r6, :lower16:self_test_rngX.p_current
	movt	r6, :upper16:self_test_rngX.p_current
	ldr	r5, [r6]
	add	r0, sp, #324
	.loc	2 101 9 is_stmt 0               @ ../../../components/platform/soc/rt582/rt582_crypto/rt_ecjpake.c:101:9
	mov	r1, r5
	movs	r2, #32
	bl	__aeabi_memcpy
.Ltmp14:
	.loc	2 102 19 is_stmt 1              @ ../../../components/platform/soc/rt582/rt582_crypto/rt_ecjpake.c:102:19
	add.w	r0, r5, #32
	str	r0, [r6]
	.loc	2 103 23                        @ ../../../components/platform/soc/rt582/rt582_crypto/rt_ecjpake.c:103:23
	sub.w	r0, r4, #32
	b	.LBB0_5
.Ltmp15:
.LBB0_2:
	@DEBUG_VALUE: ecjpake_generate_zkp:ctx <- $r11
	@DEBUG_VALUE: ecjpake_generate_zkp:key <- $r9
	@DEBUG_VALUE: ecjpake_generate_zkp:gen <- [DW_OP_plus_uconst 20] [$sp+0]
	@DEBUG_VALUE: self_test_rngX:length <- 32
	.loc	2 110 9                         @ ../../../components/platform/soc/rt582/rt582_crypto/rt_ecjpake.c:110:9
	movw	r0, :lower16:self_test_rngX.entropy_input
	movt	r0, :upper16:self_test_rngX.entropy_input
	ldrd	r6, r5, [r0, #20]
	add.w	r7, r0, #8
	ldm	r7, {r2, r3, r7}
	strd	r6, r5, [sp, #408]
	.loc	2 111 9                         @ ../../../components/platform/soc/rt582/rt582_crypto/rt_ecjpake.c:111:9
	movw	r6, :lower16:self_test_rngX.nonce
	.loc	2 110 9                         @ ../../../components/platform/soc/rt582/rt582_crypto/rt_ecjpake.c:110:9
	ldrd	r12, r1, [r0]
	ldr	r4, [r0, #28]
	add	r0, sp, #396
	.loc	2 111 9                         @ ../../../components/platform/soc/rt582/rt582_crypto/rt_ecjpake.c:111:9
	movt	r6, :upper16:self_test_rngX.nonce
	.loc	2 110 9                         @ ../../../components/platform/soc/rt582/rt582_crypto/rt_ecjpake.c:110:9
	stm	r0!, {r2, r3, r7}
	.loc	2 111 9                         @ ../../../components/platform/soc/rt582/rt582_crypto/rt_ecjpake.c:111:9
	ldr	r2, [r6, #12]
	.loc	2 110 9                         @ ../../../components/platform/soc/rt582/rt582_crypto/rt_ecjpake.c:110:9
	strd	r12, r1, [sp, #388]
	.loc	2 111 9                         @ ../../../components/platform/soc/rt582/rt582_crypto/rt_ecjpake.c:111:9
	ldm.w	r6, {r0, r1, r3}
	strd	r11, r9, [sp, #4]               @ 8-byte Folded Spill
	str	r2, [sp, #432]
	add	r2, sp, #420
	add.w	r11, sp, #92
.Ltmp16:
	.loc	2 0 9 is_stmt 0                 @ ../../../components/platform/soc/rt582/rt582_crypto/rt_ecjpake.c:0:9
	add.w	r10, sp, #388
	.loc	2 111 9                         @ ../../../components/platform/soc/rt582/rt582_crypto/rt_ecjpake.c:111:9
	stm	r2!, {r0, r1, r3}
	.loc	2 113 9 is_stmt 1               @ ../../../components/platform/soc/rt582/rt582_crypto/rt_ecjpake.c:113:9
	mov	r0, r11
	mov	r1, r10
	movs	r2, #48
	.loc	2 110 9                         @ ../../../components/platform/soc/rt582/rt582_crypto/rt_ecjpake.c:110:9
	str	r4, [sp, #416]
	.loc	2 113 9                         @ ../../../components/platform/soc/rt582/rt582_crypto/rt_ecjpake.c:113:9
	bl	hmac_drbg_instantiate
.Ltmp17:
	.loc	2 117 9                         @ ../../../components/platform/soc/rt582/rt582_crypto/rt_ecjpake.c:117:9
	movw	r8, :lower16:self_test_rngX.entropy_input_reseed
	movt	r8, :upper16:self_test_rngX.entropy_input_reseed
	ldm.w	r8, {r0, r1, r2, r3, r7}
	.loc	2 118 9                         @ ../../../components/platform/soc/rt582/rt582_crypto/rt_ecjpake.c:118:9
	movw	r9, :lower16:self_test_rngX.additional_input_reseed
.Ltmp18:
	.loc	2 117 9                         @ ../../../components/platform/soc/rt582/rt582_crypto/rt_ecjpake.c:117:9
	ldr.w	r12, [r8, #28]
	add.w	lr, sp, #388
	.loc	2 118 9                         @ ../../../components/platform/soc/rt582/rt582_crypto/rt_ecjpake.c:118:9
	movt	r9, :upper16:self_test_rngX.additional_input_reseed
	.loc	2 117 9                         @ ../../../components/platform/soc/rt582/rt582_crypto/rt_ecjpake.c:117:9
	ldrd	r5, r4, [r8, #20]
	stm.w	lr, {r0, r1, r2, r3, r7}
	.loc	2 118 9                         @ ../../../components/platform/soc/rt582/rt582_crypto/rt_ecjpake.c:118:9
	add.w	r7, r9, #8
	.loc	2 117 9                         @ ../../../components/platform/soc/rt582/rt582_crypto/rt_ecjpake.c:117:9
	str.w	r12, [sp, #416]
	.loc	2 118 9                         @ ../../../components/platform/soc/rt582/rt582_crypto/rt_ecjpake.c:118:9
	ldrd	r12, r1, [r9]
	ldm	r7, {r2, r3, r7}
	ldr.w	r0, [r9, #28]
	.loc	2 117 9                         @ ../../../components/platform/soc/rt582/rt582_crypto/rt_ecjpake.c:117:9
	strd	r5, r4, [sp, #408]
	.loc	2 118 9                         @ ../../../components/platform/soc/rt582/rt582_crypto/rt_ecjpake.c:118:9
	ldrd	r5, r4, [r9, #20]
	add.w	lr, sp, #428
	stm.w	lr, {r2, r3, r7}
	strd	r12, r1, [sp, #420]
	str	r0, [sp, #448]
	.loc	2 121 9                         @ ../../../components/platform/soc/rt582/rt582_crypto/rt_ecjpake.c:121:9
	mov	r0, r11
	mov	r1, r10
	movs	r2, #64
	.loc	2 118 9                         @ ../../../components/platform/soc/rt582/rt582_crypto/rt_ecjpake.c:118:9
	strd	r5, r4, [sp, #440]
	.loc	2 121 9                         @ ../../../components/platform/soc/rt582/rt582_crypto/rt_ecjpake.c:121:9
	bl	hmac_drbg_update
.Ltmp19:
	@DEBUG_VALUE: self_test_rngX:i <- 0
	.loc	2 125 13                        @ ../../../components/platform/soc/rt582/rt582_crypto/rt_ecjpake.c:125:13
	movw	r5, :lower16:self_test_rngX.result
	movw	r10, :lower16:self_test_rngX.additional_input
	movt	r5, :upper16:self_test_rngX.result
	movt	r10, :upper16:self_test_rngX.additional_input
	movs	r4, #32
	mov	r0, r5
	mov	r1, r11
	movs	r2, #128
	mov	r3, r10
	str	r4, [sp]
	bl	hmac_drbg_generate
.Ltmp20:
	add.w	r3, r10, #32
	mov	r0, r5
	mov	r1, r11
	movs	r2, #128
	str	r4, [sp]
	bl	hmac_drbg_generate
.Ltmp21:
	@DEBUG_VALUE: self_test_rngX:i <- undef
	.loc	2 131 48                        @ ../../../components/platform/soc/rt582/rt582_crypto/rt_ecjpake.c:131:48
	movw	r4, :lower16:self_test_rngX.temp_entropy_input_index
	movt	r4, :upper16:self_test_rngX.temp_entropy_input_index
	ldr.w	r11, [r4]
.Ltmp22:
	@DEBUG_VALUE: self_test_rngX:temp_ptr <- undef
	.loc	2 132 21                        @ ../../../components/platform/soc/rt582/rt582_crypto/rt_ecjpake.c:132:21
	bl	get_random_number
.Ltmp23:
	.loc	2 134 34                        @ ../../../components/platform/soc/rt582/rt582_crypto/rt_ecjpake.c:134:34
	ldr	r1, [r4]
	.loc	2 132 19                        @ ../../../components/platform/soc/rt582/rt582_crypto/rt_ecjpake.c:132:19
	movw	r2, :lower16:self_test_rngX.entropy_input
	movt	r2, :upper16:self_test_rngX.entropy_input
	str.w	r0, [r2, r11]
	.loc	2 134 34                        @ ../../../components/platform/soc/rt582/rt582_crypto/rt_ecjpake.c:134:34
	adds	r0, r1, #4
	.loc	2 136 13                        @ ../../../components/platform/soc/rt582/rt582_crypto/rt_ecjpake.c:136:13
	cmp	r0, #31
	it	hi
	movhi	r0, #0
	.loc	2 0 0 is_stmt 0                 @ ../../../components/platform/soc/rt582/rt582_crypto/rt_ecjpake.c:0:0
	str	r0, [r4]
.Ltmp24:
	@DEBUG_VALUE: self_test_rngX:p_result <- undef
	@DEBUG_VALUE: self_test_rngX:pb_ptr <- undef
	.p2align	2
.LBB0_3:                                @ =>This Inner Loop Header: Depth=1
	@DEBUG_VALUE: ecjpake_generate_zkp:gen <- [DW_OP_plus_uconst 20] [$sp+0]
	@DEBUG_VALUE: self_test_rngX:length <- 32
	@DEBUG_VALUE: self_test_rngX:pb_ptr <- $r6
	.loc	2 146 23 is_stmt 1              @ ../../../components/platform/soc/rt582/rt582_crypto/rt_ecjpake.c:146:23
	ldrb	r0, [r6]
	.loc	2 146 31 is_stmt 0              @ ../../../components/platform/soc/rt582/rt582_crypto/rt_ecjpake.c:146:31
	adds	r0, #1
	uxtb	r1, r0
	.loc	2 148 17 is_stmt 1              @ ../../../components/platform/soc/rt582/rt582_crypto/rt_ecjpake.c:148:17
	cmp	r1, r0
	.loc	2 146 21                        @ ../../../components/platform/soc/rt582/rt582_crypto/rt_ecjpake.c:146:21
	strb	r0, [r6], #1
.Ltmp25:
	@DEBUG_VALUE: self_test_rngX:pb_ptr <- $r6
	.loc	2 148 17                        @ ../../../components/platform/soc/rt582/rt582_crypto/rt_ecjpake.c:148:17
	bne	.LBB0_3
.Ltmp26:
@ %bb.4:
	@DEBUG_VALUE: self_test_rngX:pb_ptr <- $r6
	@DEBUG_VALUE: ecjpake_generate_zkp:gen <- [DW_OP_plus_uconst 20] [$sp+0]
	@DEBUG_VALUE: self_test_rngX:length <- 32
	@DEBUG_VALUE: self_test_rngX:temp_ptr <- $r8
	.loc	2 159 19                        @ ../../../components/platform/soc/rt582/rt582_crypto/rt_ecjpake.c:159:19
	ldr.w	r0, [r8]
.Ltmp27:
	@DEBUG_VALUE: self_test_rngX:p_result <- undef
	.loc	2 159 22 is_stmt 0              @ ../../../components/platform/soc/rt582/rt582_crypto/rt_ecjpake.c:159:22
	ldm.w	r5, {r1, r2, r3, r6, lr}
.Ltmp28:
	.loc	2 168 19 is_stmt 1              @ ../../../components/platform/soc/rt582/rt582_crypto/rt_ecjpake.c:168:19
	ldr.w	r4, [r10, #32]
	.loc	2 159 19                        @ ../../../components/platform/soc/rt582/rt582_crypto/rt_ecjpake.c:159:19
	add	r0, r1
	str.w	r0, [r8]
.Ltmp29:
	@DEBUG_VALUE: self_test_rngX:temp_ptr <- $r9
	.loc	2 162 19                        @ ../../../components/platform/soc/rt582/rt582_crypto/rt_ecjpake.c:162:19
	ldr.w	r0, [r9]
	.loc	2 173 9                         @ ../../../components/platform/soc/rt582/rt582_crypto/rt_ecjpake.c:173:9
	ldrd	r7, r12, [r5, #20]
	.loc	2 162 19                        @ ../../../components/platform/soc/rt582/rt582_crypto/rt_ecjpake.c:162:19
	add	r0, r2
	str.w	r0, [r9]
.Ltmp30:
	@DEBUG_VALUE: self_test_rngX:temp_ptr <- $r10
	.loc	2 165 19                        @ ../../../components/platform/soc/rt582/rt582_crypto/rt_ecjpake.c:165:19
	ldr.w	r0, [r10]
.Ltmp31:
	@DEBUG_VALUE: self_test_rngX:p_result <- [DW_OP_plus_uconst 12, DW_OP_plus_uconst 4, DW_OP_stack_value] $r5
	.loc	2 173 9                         @ ../../../components/platform/soc/rt582/rt582_crypto/rt_ecjpake.c:173:9
	ldr.w	r8, [r5, #28]
	.loc	2 165 19                        @ ../../../components/platform/soc/rt582/rt582_crypto/rt_ecjpake.c:165:19
	add	r0, r3
	str.w	r0, [r10]
.Ltmp32:
	@DEBUG_VALUE: self_test_rngX:temp_ptr <- [DW_OP_plus_uconst 32, DW_OP_stack_value] $r10
	.loc	2 168 19                        @ ../../../components/platform/soc/rt582/rt582_crypto/rt_ecjpake.c:168:19
	adds	r0, r4, r6
	str.w	r0, [r10, #32]
	.loc	2 173 9                         @ ../../../components/platform/soc/rt582/rt582_crypto/rt_ecjpake.c:173:9
	add	r0, sp, #324
	stm.w	r0, {r1, r2, r3, r6, lr}
	.loc	2 174 19                        @ ../../../components/platform/soc/rt582/rt582_crypto/rt_ecjpake.c:174:19
	movw	r1, :lower16:self_test_rngX.p_current
	.loc	2 173 9                         @ ../../../components/platform/soc/rt582/rt582_crypto/rt_ecjpake.c:173:9
	strd	r7, r12, [sp, #344]
	.loc	2 174 19                        @ ../../../components/platform/soc/rt582/rt582_crypto/rt_ecjpake.c:174:19
	add.w	r0, r5, #32
	movt	r1, :upper16:self_test_rngX.p_current
	ldrd	r11, r9, [sp, #4]               @ 8-byte Folded Reload
	movw	r7, :lower16:self_test_rngX.remain_length
	str	r0, [r1]
	movs	r0, #96
	movt	r7, :upper16:self_test_rngX.remain_length
	.loc	2 173 9                         @ ../../../components/platform/soc/rt582/rt582_crypto/rt_ecjpake.c:173:9
	str.w	r8, [sp, #352]
.Ltmp33:
.LBB0_5:
	@DEBUG_VALUE: ecjpake_generate_zkp:gen <- [DW_OP_plus_uconst 20] [$sp+0]
	@DEBUG_VALUE: self_test_rngX:length <- 32
	.loc	2 0 9 is_stmt 0                 @ ../../../components/platform/soc/rt582/rt582_crypto/rt_ecjpake.c:0:9
	add.w	r8, sp, #388
	str	r0, [r7]
	add	r1, sp, #324
.Ltmp34:
	.loc	2 229 5 is_stmt 1               @ ../../../components/platform/soc/rt582/rt582_crypto/rt_ecjpake.c:229:5
	mov	r0, r8
	movs	r2, #8
	bl	buffer_endian_exchange
.Ltmp35:
	.loc	2 231 5                         @ ../../../components/platform/soc/rt582/rt582_crypto/rt_ecjpake.c:231:5
	bl	gfp_ecc_curve_p256_init
.Ltmp36:
	.loc	2 0 5 is_stmt 0                 @ ../../../components/platform/soc/rt582/rt582_crypto/rt_ecjpake.c:0:5
	add	r5, sp, #260
	add	r1, sp, #196
	.loc	2 233 5 is_stmt 1               @ ../../../components/platform/soc/rt582/rt582_crypto/rt_ecjpake.c:233:5
	mov	r0, r5
	mov	r2, r8
	bl	gfp_point_p256_mult
.Ltmp37:
	.loc	2 237 46                        @ ../../../components/platform/soc/rt582/rt582_crypto/rt_ecjpake.c:237:46
	add.w	r7, r9, #64
	.loc	2 237 5 is_stmt 0               @ ../../../components/platform/soc/rt582/rt582_crypto/rt_ecjpake.c:237:5
	mov	r0, r7
	mov	r1, r5
	movs	r2, #8
	bl	buffer_endian_exchange
.Ltmp38:
	.loc	2 238 41 is_stmt 1              @ ../../../components/platform/soc/rt582/rt582_crypto/rt_ecjpake.c:238:41
	add.w	r10, r9, #96
	.loc	2 238 5 is_stmt 0               @ ../../../components/platform/soc/rt582/rt582_crypto/rt_ecjpake.c:238:5
	ldr	r1, [sp, #12]                   @ 4-byte Reload
	mov	r0, r10
	movs	r2, #8
	bl	buffer_endian_exchange
.Ltmp39:
	.loc	2 241 5 is_stmt 1               @ ../../../components/platform/soc/rt582/rt582_crypto/rt_ecjpake.c:241:5
	movw	r0, :lower16:sha256_init
	movt	r0, :upper16:sha256_init
	ldr	r1, [r0]
	add	r6, sp, #92
	mov	r0, r6
	blx	r1
.Ltmp40:
	.loc	2 243 5                         @ ../../../components/platform/soc/rt582/rt582_crypto/rt_ecjpake.c:243:5
	movw	r4, :lower16:sha256_update
	movt	r4, :upper16:sha256_update
	movw	r5, :lower16:length_key
	ldr	r3, [r4]
	movt	r5, :upper16:length_key
	mov	r0, r6
	mov	r1, r5
	movs	r2, #5
	blx	r3
.Ltmp41:
	.loc	2 245 5                         @ ../../../components/platform/soc/rt582/rt582_crypto/rt_ecjpake.c:245:5
	ldr	r3, [r4]
	ldr	r1, [sp, #20]                   @ 4-byte Reload
	mov	r0, r6
	movs	r2, #32
	blx	r3
.Ltmp42:
	.loc	2 246 5                         @ ../../../components/platform/soc/rt582/rt582_crypto/rt_ecjpake.c:246:5
	ldr	r3, [r4]
	ldr	r1, [sp, #16]                   @ 4-byte Reload
	mov	r0, r6
	movs	r2, #32
	blx	r3
.Ltmp43:
	.loc	2 249 5                         @ ../../../components/platform/soc/rt582/rt582_crypto/rt_ecjpake.c:249:5
	ldr	r3, [r4]
	mov	r0, r6
	mov	r1, r5
	movs	r2, #5
	blx	r3
.Ltmp44:
	.loc	2 251 5                         @ ../../../components/platform/soc/rt582/rt582_crypto/rt_ecjpake.c:251:5
	ldr	r3, [r4]
	mov	r0, r6
	mov	r1, r7
	movs	r2, #32
	blx	r3
.Ltmp45:
	.loc	2 252 5                         @ ../../../components/platform/soc/rt582/rt582_crypto/rt_ecjpake.c:252:5
	ldr	r3, [r4]
	mov	r0, r6
	mov	r1, r10
	movs	r2, #32
	blx	r3
.Ltmp46:
	.loc	2 254 5                         @ ../../../components/platform/soc/rt582/rt582_crypto/rt_ecjpake.c:254:5
	ldr	r3, [r4]
	mov	r0, r6
	mov	r1, r5
	movs	r2, #5
	blx	r3
.Ltmp47:
	.loc	2 256 5                         @ ../../../components/platform/soc/rt582/rt582_crypto/rt_ecjpake.c:256:5
	ldr	r3, [r4]
	mov	r0, r6
	mov	r1, r9
	movs	r2, #32
	blx	r3
.Ltmp48:
	.loc	2 257 5                         @ ../../../components/platform/soc/rt582/rt582_crypto/rt_ecjpake.c:257:5
	ldr	r3, [r4]
	ldr	r1, [sp, #24]                   @ 4-byte Reload
	mov	r0, r6
	movs	r2, #32
	blx	r3
.Ltmp49:
	.loc	2 259 5                         @ ../../../components/platform/soc/rt582/rt582_crypto/rt_ecjpake.c:259:5
	ldr	r3, [r4]
	movw	r1, :lower16:length_id
	movt	r1, :upper16:length_id
	mov	r0, r6
	movs	r2, #4
	blx	r3
.Ltmp50:
	.loc	2 261 14                        @ ../../../components/platform/soc/rt582/rt582_crypto/rt_ecjpake.c:261:14
	ldr.w	r0, [r11, #384]
.Ltmp51:
	.loc	2 261 9 is_stmt 0               @ ../../../components/platform/soc/rt582/rt582_crypto/rt_ecjpake.c:261:9
	movw	r2, :lower16:server_string
	movw	r1, :lower16:client_string
.Ltmp52:
	.loc	2 0 0                           @ ../../../components/platform/soc/rt582/rt582_crypto/rt_ecjpake.c:0:0
	ldr	r3, [r4]
.Ltmp53:
	.loc	2 261 9                         @ ../../../components/platform/soc/rt582/rt582_crypto/rt_ecjpake.c:261:9
	movt	r2, :upper16:server_string
	movt	r1, :upper16:client_string
	cmp	r0, #1
	it	eq
	moveq	r1, r2
.Ltmp54:
	.loc	2 0 0                           @ ../../../components/platform/soc/rt582/rt582_crypto/rt_ecjpake.c:0:0
	mov	r0, r6
	movs	r2, #6
	blx	r3
.Ltmp55:
	.loc	2 272 5 is_stmt 1               @ ../../../components/platform/soc/rt582/rt582_crypto/rt_ecjpake.c:272:5
	movw	r0, :lower16:sha256_finish
	movt	r0, :upper16:sha256_finish
	ldr	r2, [r0]
	add	r5, sp, #60
	mov	r0, r6
	mov	r1, r5
	blx	r2
.Ltmp56:
	.loc	2 0 5 is_stmt 0                 @ ../../../components/platform/soc/rt582/rt582_crypto/rt_ecjpake.c:0:5
	add	r6, sp, #28
	.loc	2 276 5 is_stmt 1               @ ../../../components/platform/soc/rt582/rt582_crypto/rt_ecjpake.c:276:5
	mov	r0, r6
	mov	r1, r5
	movs	r2, #8
	bl	buffer_endian_exchange
.Ltmp57:
	.loc	2 0 5 is_stmt 0                 @ ../../../components/platform/soc/rt582/rt582_crypto/rt_ecjpake.c:0:5
	add	r4, sp, #324
	add	r1, sp, #356
	.loc	2 284 5 is_stmt 1               @ ../../../components/platform/soc/rt582/rt582_crypto/rt_ecjpake.c:284:5
	mov	r0, r4
	mov	r2, r6
	mov	r3, r8
	bl	gfp_scalar_vxh_p256
.Ltmp58:
	.loc	2 288 41                        @ ../../../components/platform/soc/rt582/rt582_crypto/rt_ecjpake.c:288:41
	add.w	r0, r9, #128
	.loc	2 288 5 is_stmt 0               @ ../../../components/platform/soc/rt582/rt582_crypto/rt_ecjpake.c:288:5
	mov	r1, r4
	movs	r2, #8
	bl	buffer_endian_exchange
.Ltmp59:
	.loc	2 294 1 is_stmt 1               @ ../../../components/platform/soc/rt582/rt582_crypto/rt_ecjpake.c:294:1
	add	sp, #452
	pop.w	{r4, r5, r6, r7, r8, r9, r10, r11, pc}
.Ltmp60:
.Lfunc_end0:
	.size	ecjpake_generate_zkp, .Lfunc_end0-ecjpake_generate_zkp
	.cfi_endproc
	.file	4 "D:\\Rafael-IoT-SDK-Internal-main\\examples\\das_subg_thread\\keil" "../../../components/platform/soc/rt582/rt582_crypto/Inc/rt_hmac_drbg.h"
	.cantunwind
	.fnend
                                        @ -- End function
	.section	.text.ecjpake_verify_zkp,"ax",%progbits
	.hidden	ecjpake_verify_zkp              @ -- Begin function ecjpake_verify_zkp
	.globl	ecjpake_verify_zkp
	.p2align	1
	.type	ecjpake_verify_zkp,%function
	.code	16                              @ @ecjpake_verify_zkp
	.thumb_func
ecjpake_verify_zkp:
.Lfunc_begin1:
	.loc	2 298 0                         @ ../../../components/platform/soc/rt582/rt582_crypto/rt_ecjpake.c:298:0
	.fnstart
	.cfi_startproc
@ %bb.0:
	@DEBUG_VALUE: ecjpake_verify_zkp:ctx <- $r0
	@DEBUG_VALUE: ecjpake_verify_zkp:generator <- $r1
	@DEBUG_VALUE: ecjpake_verify_zkp:key <- $r2
	.save	{r4, r5, r6, r7, r8, r9, r10, r11, lr}
	push.w	{r4, r5, r6, r7, r8, r9, r10, r11, lr}
	.cfi_def_cfa_offset 36
	.cfi_offset lr, -4
	.cfi_offset r11, -8
	.cfi_offset r10, -12
	.cfi_offset r9, -16
	.cfi_offset r8, -20
	.cfi_offset r7, -24
	.cfi_offset r6, -28
	.cfi_offset r5, -32
	.cfi_offset r4, -36
	.pad	#468
	sub	sp, #468
	.cfi_def_cfa_offset 504
	add	r6, sp, #404
	mov	r5, r2
	mov	r4, r1
.Ltmp61:
	@DEBUG_VALUE: ecjpake_verify_zkp:generator <- $r4
	mov	r10, r0
.Ltmp62:
	@DEBUG_VALUE: ecjpake_verify_zkp:ctx <- $r10
	@DEBUG_VALUE: ecjpake_verify_zkp:key <- $r5
	@DEBUG_VALUE: ecjpake_verify_zkp:generator <- $r4
	@DEBUG_VALUE: ecjpake_verify_zkp:ctx <- $r10
	.loc	2 310 5 prologue_end            @ ../../../components/platform/soc/rt582/rt582_crypto/rt_ecjpake.c:310:5
	mov	r0, r6
	mov	r1, r2
	movs	r2, #8
	bl	buffer_endian_exchange
.Ltmp63:
	.loc	2 311 41                        @ ../../../components/platform/soc/rt582/rt582_crypto/rt_ecjpake.c:311:41
	add.w	r8, r6, #32
	.loc	2 311 67 is_stmt 0              @ ../../../components/platform/soc/rt582/rt582_crypto/rt_ecjpake.c:311:67
	add.w	r7, r5, #32
	.loc	2 311 5                         @ ../../../components/platform/soc/rt582/rt582_crypto/rt_ecjpake.c:311:5
	mov	r0, r8
	mov	r1, r7
	movs	r2, #8
	bl	buffer_endian_exchange
.Ltmp64:
	.loc	2 313 15 is_stmt 1              @ ../../../components/platform/soc/rt582/rt582_crypto/rt_ecjpake.c:313:15
	mov	r0, r6
	bl	gfp_valid_point_p256_verify
.Ltmp65:
	@DEBUG_VALUE: ecjpake_verify_zkp:status <- $r0
	.loc	2 315 9                         @ ../../../components/platform/soc/rt582/rt582_crypto/rt_ecjpake.c:315:9
	cbnz	r0, .LBB1_2
.Ltmp66:
@ %bb.1:
	@DEBUG_VALUE: ecjpake_verify_zkp:ctx <- $r10
	@DEBUG_VALUE: ecjpake_verify_zkp:key <- $r5
	@DEBUG_VALUE: ecjpake_verify_zkp:generator <- $r4
	@DEBUG_VALUE: ecjpake_verify_zkp:status <- $r0
	.loc	2 0 9 is_stmt 0                 @ ../../../components/platform/soc/rt582/rt582_crypto/rt_ecjpake.c:0:9
	add	r6, sp, #276
	.loc	2 320 5 is_stmt 1               @ ../../../components/platform/soc/rt582/rt582_crypto/rt_ecjpake.c:320:5
	mov	r0, r6
.Ltmp67:
	mov	r1, r4
	movs	r2, #8
	bl	buffer_endian_exchange
.Ltmp68:
	.loc	2 321 72                        @ ../../../components/platform/soc/rt582/rt582_crypto/rt_ecjpake.c:321:72
	add.w	r9, r4, #32
	.loc	2 321 41 is_stmt 0              @ ../../../components/platform/soc/rt582/rt582_crypto/rt_ecjpake.c:321:41
	add.w	r0, r6, #32
	.loc	2 321 5                         @ ../../../components/platform/soc/rt582/rt582_crypto/rt_ecjpake.c:321:5
	mov	r1, r9
	movs	r2, #8
	bl	buffer_endian_exchange
.Ltmp69:
	.loc	2 323 15 is_stmt 1              @ ../../../components/platform/soc/rt582/rt582_crypto/rt_ecjpake.c:323:15
	mov	r0, r6
	bl	gfp_valid_point_p256_verify
.Ltmp70:
	@DEBUG_VALUE: ecjpake_verify_zkp:status <- $r0
	.loc	2 325 9                         @ ../../../components/platform/soc/rt582/rt582_crypto/rt_ecjpake.c:325:9
	cbz	r0, .LBB1_4
.Ltmp71:
.LBB1_2:
	.loc	2 0 9 is_stmt 0                 @ ../../../components/platform/soc/rt582/rt582_crypto/rt_ecjpake.c:0:9
	movs	r6, #5
.LBB1_3:
	.loc	2 406 1 is_stmt 1               @ ../../../components/platform/soc/rt582/rt582_crypto/rt_ecjpake.c:406:1
	mov	r0, r6
	add	sp, #468
	pop.w	{r4, r5, r6, r7, r8, r9, r10, r11, pc}
.LBB1_4:
.Ltmp72:
	@DEBUG_VALUE: ecjpake_verify_zkp:ctx <- $r10
	@DEBUG_VALUE: ecjpake_verify_zkp:key <- $r5
	@DEBUG_VALUE: ecjpake_verify_zkp:generator <- $r4
	@DEBUG_VALUE: ecjpake_verify_zkp:status <- $r0
	.loc	2 332 5                         @ ../../../components/platform/soc/rt582/rt582_crypto/rt_ecjpake.c:332:5
	movw	r0, :lower16:sha256_init
.Ltmp73:
	movt	r0, :upper16:sha256_init
	ldr	r1, [r0]
	add.w	r11, sp, #108
	mov	r0, r11
	blx	r1
.Ltmp74:
	.loc	2 0 5 is_stmt 0                 @ ../../../components/platform/soc/rt582/rt582_crypto/rt_ecjpake.c:0:5
	str.w	r10, [sp, #8]                   @ 4-byte Spill
.Ltmp75:
	@DEBUG_VALUE: ecjpake_verify_zkp:ctx <- [DW_OP_plus_uconst 8] [$sp+0]
	.loc	2 334 5 is_stmt 1               @ ../../../components/platform/soc/rt582/rt582_crypto/rt_ecjpake.c:334:5
	movw	r10, :lower16:sha256_update
	movt	r10, :upper16:sha256_update
	ldr.w	r3, [r10]
	movw	r1, :lower16:length_key
	movt	r1, :upper16:length_key
	mov	r0, r11
	movs	r2, #5
	movs	r6, #5
	blx	r3
.Ltmp76:
	.loc	2 336 5                         @ ../../../components/platform/soc/rt582/rt582_crypto/rt_ecjpake.c:336:5
	ldr.w	r3, [r10]
	mov	r0, r11
	mov	r1, r4
	movs	r2, #32
	blx	r3
.Ltmp77:
	.loc	2 337 5                         @ ../../../components/platform/soc/rt582/rt582_crypto/rt_ecjpake.c:337:5
	ldr.w	r3, [r10]
	mov	r0, r11
	mov	r1, r9
	movs	r2, #32
	blx	r3
.Ltmp78:
	.loc	2 0 5 is_stmt 0                 @ ../../../components/platform/soc/rt582/rt582_crypto/rt_ecjpake.c:0:5
	movw	r9, :lower16:length_key
	.loc	2 340 5 is_stmt 1               @ ../../../components/platform/soc/rt582/rt582_crypto/rt_ecjpake.c:340:5
	ldr.w	r3, [r10]
	movt	r9, :upper16:length_key
	mov	r0, r11
	mov	r1, r9
	movs	r2, #5
	blx	r3
.Ltmp79:
	.loc	2 342 5                         @ ../../../components/platform/soc/rt582/rt582_crypto/rt_ecjpake.c:342:5
	ldr.w	r3, [r10]
	.loc	2 342 30 is_stmt 0              @ ../../../components/platform/soc/rt582/rt582_crypto/rt_ecjpake.c:342:30
	add.w	r1, r5, #64
	.loc	2 342 5                         @ ../../../components/platform/soc/rt582/rt582_crypto/rt_ecjpake.c:342:5
	mov	r0, r11
	movs	r2, #32
	str	r1, [sp, #4]                    @ 4-byte Spill
	blx	r3
.Ltmp80:
	.loc	2 343 5 is_stmt 1               @ ../../../components/platform/soc/rt582/rt582_crypto/rt_ecjpake.c:343:5
	ldr.w	r3, [r10]
	.loc	2 343 30 is_stmt 0              @ ../../../components/platform/soc/rt582/rt582_crypto/rt_ecjpake.c:343:30
	add.w	r4, r5, #96
.Ltmp81:
	.loc	2 343 5                         @ ../../../components/platform/soc/rt582/rt582_crypto/rt_ecjpake.c:343:5
	mov	r0, r11
	mov	r1, r4
	movs	r2, #32
	blx	r3
.Ltmp82:
	.loc	2 345 5 is_stmt 1               @ ../../../components/platform/soc/rt582/rt582_crypto/rt_ecjpake.c:345:5
	ldr.w	r3, [r10]
	mov	r0, r11
	mov	r1, r9
	movs	r2, #5
	blx	r3
.Ltmp83:
	.loc	2 347 5                         @ ../../../components/platform/soc/rt582/rt582_crypto/rt_ecjpake.c:347:5
	ldr.w	r3, [r10]
	mov	r0, r11
	mov	r1, r5
	movs	r2, #32
	blx	r3
.Ltmp84:
	.loc	2 348 5                         @ ../../../components/platform/soc/rt582/rt582_crypto/rt_ecjpake.c:348:5
	ldr.w	r3, [r10]
	mov	r0, r11
	mov	r1, r7
	movs	r2, #32
	blx	r3
.Ltmp85:
	.loc	2 350 5                         @ ../../../components/platform/soc/rt582/rt582_crypto/rt_ecjpake.c:350:5
	ldr.w	r3, [r10]
	movw	r1, :lower16:length_id
	movt	r1, :upper16:length_id
	mov	r0, r11
	movs	r2, #4
	blx	r3
.Ltmp86:
	.loc	2 352 14                        @ ../../../components/platform/soc/rt582/rt582_crypto/rt_ecjpake.c:352:14
	ldr	r0, [sp, #8]                    @ 4-byte Reload
.Ltmp87:
	@DEBUG_VALUE: ecjpake_verify_zkp:ctx <- $r0
	.loc	2 352 9 is_stmt 0               @ ../../../components/platform/soc/rt582/rt582_crypto/rt_ecjpake.c:352:9
	movw	r2, :lower16:client_string
.Ltmp88:
	.loc	2 352 14                        @ ../../../components/platform/soc/rt582/rt582_crypto/rt_ecjpake.c:352:14
	ldr.w	r0, [r0, #384]
.Ltmp89:
	.loc	2 352 9                         @ ../../../components/platform/soc/rt582/rt582_crypto/rt_ecjpake.c:352:9
	movw	r1, :lower16:server_string
.Ltmp90:
	.loc	2 0 0                           @ ../../../components/platform/soc/rt582/rt582_crypto/rt_ecjpake.c:0:0
	ldr.w	r3, [r10]
.Ltmp91:
	.loc	2 352 9                         @ ../../../components/platform/soc/rt582/rt582_crypto/rt_ecjpake.c:352:9
	movt	r2, :upper16:client_string
	movt	r1, :upper16:server_string
	cmp	r0, #1
	it	eq
	moveq	r1, r2
.Ltmp92:
	.loc	2 0 0                           @ ../../../components/platform/soc/rt582/rt582_crypto/rt_ecjpake.c:0:0
	mov	r0, r11
	movs	r2, #6
	blx	r3
.Ltmp93:
	.loc	2 363 5 is_stmt 1               @ ../../../components/platform/soc/rt582/rt582_crypto/rt_ecjpake.c:363:5
	movw	r0, :lower16:sha256_finish
	movt	r0, :upper16:sha256_finish
	ldr	r2, [r0]
	add	r7, sp, #76
	mov	r0, r11
	mov	r1, r7
	blx	r2
.Ltmp94:
	.loc	2 0 5 is_stmt 0                 @ ../../../components/platform/soc/rt582/rt582_crypto/rt_ecjpake.c:0:5
	add	r0, sp, #44
	.loc	2 366 5 is_stmt 1               @ ../../../components/platform/soc/rt582/rt582_crypto/rt_ecjpake.c:366:5
	mov	r1, r7
	movs	r2, #8
	bl	buffer_endian_exchange
.Ltmp95:
	.loc	2 369 66                        @ ../../../components/platform/soc/rt582/rt582_crypto/rt_ecjpake.c:369:66
	add.w	r1, r5, #128
	add	r5, sp, #12
.Ltmp96:
	.loc	2 369 5 is_stmt 0               @ ../../../components/platform/soc/rt582/rt582_crypto/rt_ecjpake.c:369:5
	mov	r0, r5
	movs	r2, #8
	bl	buffer_endian_exchange
.Ltmp97:
	.loc	2 372 5 is_stmt 1               @ ../../../components/platform/soc/rt582/rt582_crypto/rt_ecjpake.c:372:5
	bl	gfp_ecc_curve_p256_init
.Ltmp98:
	.loc	2 0 5 is_stmt 0                 @ ../../../components/platform/soc/rt582/rt582_crypto/rt_ecjpake.c:0:5
	add	r0, sp, #340
	add	r1, sp, #276
	.loc	2 373 14 is_stmt 1              @ ../../../components/platform/soc/rt582/rt582_crypto/rt_ecjpake.c:373:14
	mov	r2, r5
	bl	gfp_point_p256_mult
.Ltmp99:
	@DEBUG_VALUE: ecjpake_verify_zkp:status <- $r0
	.loc	2 375 9                         @ ../../../components/platform/soc/rt582/rt582_crypto/rt_ecjpake.c:375:9
	cmp	r0, #0
	bne.w	.LBB1_3
.Ltmp100:
@ %bb.5:
	@DEBUG_VALUE: ecjpake_verify_zkp:status <- $r0
	.loc	2 0 9 is_stmt 0                 @ ../../../components/platform/soc/rt582/rt582_crypto/rt_ecjpake.c:0:9
	ldr	r7, [sp, #4]                    @ 4-byte Reload
	.loc	2 380 5 is_stmt 1               @ ../../../components/platform/soc/rt582/rt582_crypto/rt_ecjpake.c:380:5
	bl	gfp_ecc_curve_p256_init
.Ltmp101:
	.loc	2 0 5 is_stmt 0                 @ ../../../components/platform/soc/rt582/rt582_crypto/rt_ecjpake.c:0:5
	add	r5, sp, #212
	add	r1, sp, #404
	add	r2, sp, #44
	.loc	2 381 14 is_stmt 1              @ ../../../components/platform/soc/rt582/rt582_crypto/rt_ecjpake.c:381:14
	mov	r0, r5
	bl	gfp_point_p256_mult
.Ltmp102:
	@DEBUG_VALUE: ecjpake_verify_zkp:status <- $r0
	.loc	2 383 9                         @ ../../../components/platform/soc/rt582/rt582_crypto/rt_ecjpake.c:383:9
	cmp	r0, #0
	bne.w	.LBB1_2
.Ltmp103:
@ %bb.6:
	@DEBUG_VALUE: ecjpake_verify_zkp:status <- $r0
	.loc	2 0 9 is_stmt 0                 @ ../../../components/platform/soc/rt582/rt582_crypto/rt_ecjpake.c:0:9
	add	r6, sp, #404
	add	r1, sp, #340
	.loc	2 389 14 is_stmt 1              @ ../../../components/platform/soc/rt582/rt582_crypto/rt_ecjpake.c:389:14
	mov	r0, r6
.Ltmp104:
	mov	r2, r5
	bl	gfp_point_p256_add
.Ltmp105:
	@DEBUG_VALUE: ecjpake_verify_zkp:status <- undef
	.loc	2 395 5                         @ ../../../components/platform/soc/rt582/rt582_crypto/rt_ecjpake.c:395:5
	mov	r0, r5
	mov	r1, r6
	movs	r2, #8
	bl	buffer_endian_exchange
.Ltmp106:
	.loc	2 396 41                        @ ../../../components/platform/soc/rt582/rt582_crypto/rt_ecjpake.c:396:41
	add.w	r6, r5, #32
	.loc	2 396 5 is_stmt 0               @ ../../../components/platform/soc/rt582/rt582_crypto/rt_ecjpake.c:396:5
	mov	r0, r6
	mov	r1, r8
	movs	r2, #8
	bl	buffer_endian_exchange
.Ltmp107:
	.loc	2 399 10 is_stmt 1              @ ../../../components/platform/soc/rt582/rt582_crypto/rt_ecjpake.c:399:10
	mov	r0, r7
	mov	r1, r5
	movs	r2, #8
	bl	memcmp
.Ltmp108:
	.loc	2 399 67 is_stmt 0              @ ../../../components/platform/soc/rt582/rt582_crypto/rt_ecjpake.c:399:67
	cmp	r0, #0
	bne.w	.LBB1_2
.Ltmp109:
@ %bb.7:
	.loc	2 400 14 is_stmt 1              @ ../../../components/platform/soc/rt582/rt582_crypto/rt_ecjpake.c:400:14
	mov	r0, r4
	mov	r1, r6
	movs	r2, #8
	bl	memcmp
.Ltmp110:
	mov	r6, r0
.Ltmp111:
	.loc	2 399 9                         @ ../../../components/platform/soc/rt582/rt582_crypto/rt_ecjpake.c:399:9
	cmp	r0, #0
	it	ne
	movne	r6, #5
	b	.LBB1_3
.Ltmp112:
.Lfunc_end1:
	.size	ecjpake_verify_zkp, .Lfunc_end1-ecjpake_verify_zkp
	.cfi_endproc
	.cantunwind
	.fnend
                                        @ -- End function
	.section	.text.ecjpake_generate_step2_zkp,"ax",%progbits
	.hidden	ecjpake_generate_step2_zkp      @ -- Begin function ecjpake_generate_step2_zkp
	.globl	ecjpake_generate_step2_zkp
	.p2align	1
	.type	ecjpake_generate_step2_zkp,%function
	.code	16                              @ @ecjpake_generate_step2_zkp
	.thumb_func
ecjpake_generate_step2_zkp:
.Lfunc_begin2:
	.loc	2 410 0                         @ ../../../components/platform/soc/rt582/rt582_crypto/rt_ecjpake.c:410:0
	.fnstart
	.cfi_startproc
@ %bb.0:
	@DEBUG_VALUE: ecjpake_generate_step2_zkp:ctx <- $r0
	@DEBUG_VALUE: ecjpake_generate_step2_zkp:key <- $r1
	.save	{r4, r5, r6, r7, r8, r9, lr}
	push.w	{r4, r5, r6, r7, r8, r9, lr}
	.cfi_def_cfa_offset 28
	.cfi_offset lr, -4
	.cfi_offset r9, -8
	.cfi_offset r8, -12
	.cfi_offset r7, -16
	.cfi_offset r6, -20
	.cfi_offset r5, -24
	.cfi_offset r4, -28
	.pad	#228
	sub	sp, #228
	.cfi_def_cfa_offset 256
	mov	r5, r0
.Ltmp113:
	@DEBUG_VALUE: ecjpake_generate_step2_zkp:ctx <- $r5
	@DEBUG_VALUE: ecjpake_generate_step2_zkp:key <- $r4
	@DEBUG_VALUE: ecjpake_generate_step2_zkp:ctx <- $r5
	mov	r4, r1
.Ltmp114:
	.loc	2 423 5 prologue_end            @ ../../../components/platform/soc/rt582/rt582_crypto/rt_ecjpake.c:423:5
	mov	r0, r1
	mov	r1, r5
	movs	r2, #8
	bl	buffer_endian_exchange
.Ltmp115:
	.loc	2 424 51                        @ ../../../components/platform/soc/rt582/rt582_crypto/rt_ecjpake.c:424:51
	add.w	r7, r4, #32
	.loc	2 424 68 is_stmt 0              @ ../../../components/platform/soc/rt582/rt582_crypto/rt_ecjpake.c:424:68
	add.w	r1, r5, #32
	.loc	2 424 5                         @ ../../../components/platform/soc/rt582/rt582_crypto/rt_ecjpake.c:424:5
	mov	r0, r7
	movs	r2, #8
	bl	buffer_endian_exchange
.Ltmp116:
	.loc	2 428 53 is_stmt 1              @ ../../../components/platform/soc/rt582/rt582_crypto/rt_ecjpake.c:428:53
	add.w	r6, r4, #64
	.loc	2 428 78 is_stmt 0              @ ../../../components/platform/soc/rt582/rt582_crypto/rt_ecjpake.c:428:78
	add.w	r1, r5, #128
	.loc	2 428 5                         @ ../../../components/platform/soc/rt582/rt582_crypto/rt_ecjpake.c:428:5
	mov	r0, r6
	movs	r2, #8
	bl	buffer_endian_exchange
.Ltmp117:
	.loc	2 429 55 is_stmt 1              @ ../../../components/platform/soc/rt582/rt582_crypto/rt_ecjpake.c:429:55
	add.w	r0, r4, #96
	.loc	2 429 72 is_stmt 0              @ ../../../components/platform/soc/rt582/rt582_crypto/rt_ecjpake.c:429:72
	add.w	r1, r5, #160
	.loc	2 429 5                         @ ../../../components/platform/soc/rt582/rt582_crypto/rt_ecjpake.c:429:5
	movs	r2, #8
	bl	buffer_endian_exchange
.Ltmp118:
	.loc	2 0 5                           @ ../../../components/platform/soc/rt582/rt582_crypto/rt_ecjpake.c:0:5
	add.w	r8, sp, #164
	.loc	2 432 5 is_stmt 1               @ ../../../components/platform/soc/rt582/rt582_crypto/rt_ecjpake.c:432:5
	mov	r0, r8
	mov	r1, r4
	mov	r2, r6
	bl	gfp_point_p256_add
.Ltmp119:
	.loc	2 435 74                        @ ../../../components/platform/soc/rt582/rt582_crypto/rt_ecjpake.c:435:74
	add.w	r1, r5, #192
	.loc	2 435 5 is_stmt 0               @ ../../../components/platform/soc/rt582/rt582_crypto/rt_ecjpake.c:435:5
	mov	r0, r4
	movs	r2, #8
	bl	buffer_endian_exchange
.Ltmp120:
	.loc	2 436 68 is_stmt 1              @ ../../../components/platform/soc/rt582/rt582_crypto/rt_ecjpake.c:436:68
	add.w	r1, r5, #224
	.loc	2 436 5 is_stmt 0               @ ../../../components/platform/soc/rt582/rt582_crypto/rt_ecjpake.c:436:5
	mov	r0, r7
	movs	r2, #8
	bl	buffer_endian_exchange
.Ltmp121:
	.loc	2 0 5                           @ ../../../components/platform/soc/rt582/rt582_crypto/rt_ecjpake.c:0:5
	add	r7, sp, #100
	.loc	2 439 5 is_stmt 1               @ ../../../components/platform/soc/rt582/rt582_crypto/rt_ecjpake.c:439:5
	mov	r0, r7
	mov	r1, r8
	mov	r2, r4
	bl	gfp_point_p256_add
.Ltmp122:
	.loc	2 442 15                        @ ../../../components/platform/soc/rt582/rt582_crypto/rt_ecjpake.c:442:15
	mov	r0, r7
	bl	gfp_valid_point_p256_verify
.Ltmp123:
	@DEBUG_VALUE: ecjpake_generate_step2_zkp:status <- $r0
	.loc	2 444 9                         @ ../../../components/platform/soc/rt582/rt582_crypto/rt_ecjpake.c:444:9
	cbz	r0, .LBB2_2
.Ltmp124:
@ %bb.1:
	@DEBUG_VALUE: ecjpake_generate_step2_zkp:ctx <- $r5
	@DEBUG_VALUE: ecjpake_generate_step2_zkp:status <- $r0
	.loc	2 0 9 is_stmt 0                 @ ../../../components/platform/soc/rt582/rt582_crypto/rt_ecjpake.c:0:9
	movs	r0, #5
.Ltmp125:
	b	.LBB2_3
.Ltmp126:
.LBB2_2:
	@DEBUG_VALUE: ecjpake_generate_step2_zkp:ctx <- $r5
	@DEBUG_VALUE: ecjpake_generate_step2_zkp:status <- $r0
	.loc	2 451 5 is_stmt 1               @ ../../../components/platform/soc/rt582/rt582_crypto/rt_ecjpake.c:451:5
	mov	r0, r8
.Ltmp127:
	mov	r1, r7
	movs	r2, #8
	bl	buffer_endian_exchange
.Ltmp128:
	.loc	2 452 55                        @ ../../../components/platform/soc/rt582/rt582_crypto/rt_ecjpake.c:452:55
	add.w	r0, r8, #32
	.loc	2 452 92 is_stmt 0              @ ../../../components/platform/soc/rt582/rt582_crypto/rt_ecjpake.c:452:92
	add.w	r1, r7, #32
	.loc	2 452 5                         @ ../../../components/platform/soc/rt582/rt582_crypto/rt_ecjpake.c:452:5
	movs	r2, #8
	bl	buffer_endian_exchange
.Ltmp129:
	.loc	2 0 5                           @ ../../../components/platform/soc/rt582/rt582_crypto/rt_ecjpake.c:0:5
	add.w	r9, sp, #68
	.loc	2 457 72 is_stmt 1              @ ../../../components/platform/soc/rt582/rt582_crypto/rt_ecjpake.c:457:72
	add.w	r1, r5, #388
	.loc	2 457 5 is_stmt 0               @ ../../../components/platform/soc/rt582/rt582_crypto/rt_ecjpake.c:457:5
	mov	r0, r9
	movs	r2, #8
	bl	buffer_endian_exchange
.Ltmp130:
	.loc	2 0 5                           @ ../../../components/platform/soc/rt582/rt582_crypto/rt_ecjpake.c:0:5
	add	r7, sp, #36
	.loc	2 460 69 is_stmt 1              @ ../../../components/platform/soc/rt582/rt582_crypto/rt_ecjpake.c:460:69
	add.w	r1, r5, #288
	.loc	2 460 5 is_stmt 0               @ ../../../components/platform/soc/rt582/rt582_crypto/rt_ecjpake.c:460:5
	mov	r0, r7
	movs	r2, #8
	bl	buffer_endian_exchange
.Ltmp131:
	.loc	2 0 5                           @ ../../../components/platform/soc/rt582/rt582_crypto/rt_ecjpake.c:0:5
	add	r6, sp, #4
	.loc	2 463 5 is_stmt 1               @ ../../../components/platform/soc/rt582/rt582_crypto/rt_ecjpake.c:463:5
	mov	r0, r6
	mov	r1, r9
	mov	r2, r7
	bl	gfp_scalar_modmult_p256
.Ltmp132:
	.loc	2 466 5                         @ ../../../components/platform/soc/rt582/rt582_crypto/rt_ecjpake.c:466:5
	mov	r0, r7
	mov	r1, r6
	movs	r2, #8
	bl	buffer_endian_exchange
.Ltmp133:
	.loc	2 469 5                         @ ../../../components/platform/soc/rt582/rt582_crypto/rt_ecjpake.c:469:5
	mov	r0, r5
	mov	r1, r4
	mov	r2, r8
	mov	r3, r7
	bl	ecjpake_generate_zkp
.Ltmp134:
	.loc	2 0 5 is_stmt 0                 @ ../../../components/platform/soc/rt582/rt582_crypto/rt_ecjpake.c:0:5
	movs	r0, #0
.Ltmp135:
.LBB2_3:
	@DEBUG_VALUE: ecjpake_generate_step2_zkp:ctx <- $r5
	.loc	2 472 1 is_stmt 1               @ ../../../components/platform/soc/rt582/rt582_crypto/rt_ecjpake.c:472:1
	add	sp, #228
	pop.w	{r4, r5, r6, r7, r8, r9, pc}
.Ltmp136:
.Lfunc_end2:
	.size	ecjpake_generate_step2_zkp, .Lfunc_end2-ecjpake_generate_step2_zkp
	.cfi_endproc
	.cantunwind
	.fnend
                                        @ -- End function
	.section	.text.ecjpake_verify_step2_zkp,"ax",%progbits
	.hidden	ecjpake_verify_step2_zkp        @ -- Begin function ecjpake_verify_step2_zkp
	.globl	ecjpake_verify_step2_zkp
	.p2align	1
	.type	ecjpake_verify_step2_zkp,%function
	.code	16                              @ @ecjpake_verify_step2_zkp
	.thumb_func
ecjpake_verify_step2_zkp:
.Lfunc_begin3:
	.loc	2 476 0                         @ ../../../components/platform/soc/rt582/rt582_crypto/rt_ecjpake.c:476:0
	.fnstart
	.cfi_startproc
@ %bb.0:
	@DEBUG_VALUE: ecjpake_verify_step2_zkp:ctx <- $r0
	@DEBUG_VALUE: ecjpake_verify_step2_zkp:key <- $r1
	.save	{r4, r5, r6, r7, r8, r9, r10, lr}
	push.w	{r4, r5, r6, r7, r8, r9, r10, lr}
	.cfi_def_cfa_offset 32
	.cfi_offset lr, -4
	.cfi_offset r10, -8
	.cfi_offset r9, -12
	.cfi_offset r8, -16
	.cfi_offset r7, -20
	.cfi_offset r6, -24
	.cfi_offset r5, -28
	.cfi_offset r4, -32
	.pad	#192
	sub	sp, #192
	.cfi_def_cfa_offset 224
	mov	r5, r0
.Ltmp137:
	@DEBUG_VALUE: ecjpake_verify_step2_zkp:ctx <- $r5
	@DEBUG_VALUE: ecjpake_verify_step2_zkp:key <- $r8
	@DEBUG_VALUE: ecjpake_verify_step2_zkp:ctx <- $r5
	add	r6, sp, #64
	mov	r8, r1
.Ltmp138:
	.loc	2 484 5 prologue_end            @ ../../../components/platform/soc/rt582/rt582_crypto/rt_ecjpake.c:484:5
	mov	r0, r6
	mov	r1, r5
	movs	r2, #8
	bl	buffer_endian_exchange
.Ltmp139:
	.loc	2 485 56                        @ ../../../components/platform/soc/rt582/rt582_crypto/rt_ecjpake.c:485:56
	add.w	r7, r6, #32
	.loc	2 485 73 is_stmt 0              @ ../../../components/platform/soc/rt582/rt582_crypto/rt_ecjpake.c:485:73
	add.w	r1, r5, #32
	.loc	2 485 5                         @ ../../../components/platform/soc/rt582/rt582_crypto/rt_ecjpake.c:485:5
	mov	r0, r7
	movs	r2, #8
	bl	buffer_endian_exchange
.Ltmp140:
	.loc	2 0 5                           @ ../../../components/platform/soc/rt582/rt582_crypto/rt_ecjpake.c:0:5
	mov	r4, sp
	.loc	2 488 84 is_stmt 1              @ ../../../components/platform/soc/rt582/rt582_crypto/rt_ecjpake.c:488:84
	add.w	r1, r5, #64
	.loc	2 488 5 is_stmt 0               @ ../../../components/platform/soc/rt582/rt582_crypto/rt_ecjpake.c:488:5
	mov	r0, r4
	movs	r2, #8
	bl	buffer_endian_exchange
.Ltmp141:
	.loc	2 489 61 is_stmt 1              @ ../../../components/platform/soc/rt582/rt582_crypto/rt_ecjpake.c:489:61
	add.w	r10, r4, #32
	.loc	2 489 78 is_stmt 0              @ ../../../components/platform/soc/rt582/rt582_crypto/rt_ecjpake.c:489:78
	add.w	r1, r5, #96
	.loc	2 489 5                         @ ../../../components/platform/soc/rt582/rt582_crypto/rt_ecjpake.c:489:5
	mov	r0, r10
	movs	r2, #8
	bl	buffer_endian_exchange
.Ltmp142:
	.loc	2 0 5                           @ ../../../components/platform/soc/rt582/rt582_crypto/rt_ecjpake.c:0:5
	add.w	r9, sp, #128
	.loc	2 492 5 is_stmt 1               @ ../../../components/platform/soc/rt582/rt582_crypto/rt_ecjpake.c:492:5
	mov	r0, r9
	mov	r1, r6
	mov	r2, r4
	bl	gfp_point_p256_add
.Ltmp143:
	.loc	2 495 79                        @ ../../../components/platform/soc/rt582/rt582_crypto/rt_ecjpake.c:495:79
	add.w	r1, r5, #128
	.loc	2 495 5 is_stmt 0               @ ../../../components/platform/soc/rt582/rt582_crypto/rt_ecjpake.c:495:5
	mov	r0, r6
	movs	r2, #8
	bl	buffer_endian_exchange
.Ltmp144:
	.loc	2 496 73 is_stmt 1              @ ../../../components/platform/soc/rt582/rt582_crypto/rt_ecjpake.c:496:73
	add.w	r1, r5, #160
	.loc	2 496 5 is_stmt 0               @ ../../../components/platform/soc/rt582/rt582_crypto/rt_ecjpake.c:496:5
	mov	r0, r7
	movs	r2, #8
	bl	buffer_endian_exchange
.Ltmp145:
	.loc	2 499 5 is_stmt 1               @ ../../../components/platform/soc/rt582/rt582_crypto/rt_ecjpake.c:499:5
	mov	r0, r4
	mov	r1, r9
	mov	r2, r6
	bl	gfp_point_p256_add
.Ltmp146:
	.loc	2 502 15                        @ ../../../components/platform/soc/rt582/rt582_crypto/rt_ecjpake.c:502:15
	mov	r0, r4
	bl	gfp_valid_point_p256_verify
.Ltmp147:
	@DEBUG_VALUE: ecjpake_verify_step2_zkp:status <- $r0
	.loc	2 504 9                         @ ../../../components/platform/soc/rt582/rt582_crypto/rt_ecjpake.c:504:9
	cbz	r0, .LBB3_3
.Ltmp148:
@ %bb.1:
	@DEBUG_VALUE: ecjpake_verify_step2_zkp:ctx <- $r5
	@DEBUG_VALUE: ecjpake_verify_step2_zkp:status <- $r0
	.loc	2 0 9 is_stmt 0                 @ ../../../components/platform/soc/rt582/rt582_crypto/rt_ecjpake.c:0:9
	movs	r0, #5
.Ltmp149:
.LBB3_2:
	@DEBUG_VALUE: ecjpake_verify_step2_zkp:ctx <- $r5
	.loc	2 523 1 is_stmt 1               @ ../../../components/platform/soc/rt582/rt582_crypto/rt_ecjpake.c:523:1
	add	sp, #192
	pop.w	{r4, r5, r6, r7, r8, r9, r10, pc}
.Ltmp150:
.LBB3_3:
	@DEBUG_VALUE: ecjpake_verify_step2_zkp:ctx <- $r5
	@DEBUG_VALUE: ecjpake_verify_step2_zkp:status <- $r0
	.loc	2 0 1 is_stmt 0                 @ ../../../components/platform/soc/rt582/rt582_crypto/rt_ecjpake.c:0:1
	mov	r1, sp
	.loc	2 512 5 is_stmt 1               @ ../../../components/platform/soc/rt582/rt582_crypto/rt_ecjpake.c:512:5
	mov	r0, r9
.Ltmp151:
	movs	r2, #8
	bl	buffer_endian_exchange
.Ltmp152:
	.loc	2 513 55                        @ ../../../components/platform/soc/rt582/rt582_crypto/rt_ecjpake.c:513:55
	add.w	r0, r9, #32
	.loc	2 513 5 is_stmt 0               @ ../../../components/platform/soc/rt582/rt582_crypto/rt_ecjpake.c:513:5
	mov	r1, r10
	movs	r2, #8
	bl	buffer_endian_exchange
.Ltmp153:
	.loc	2 515 14 is_stmt 1              @ ../../../components/platform/soc/rt582/rt582_crypto/rt_ecjpake.c:515:14
	mov	r0, r5
	mov	r1, r9
	mov	r2, r8
	bl	ecjpake_verify_zkp
.Ltmp154:
	@DEBUG_VALUE: ecjpake_verify_step2_zkp:status <- $r0
	.loc	2 517 9                         @ ../../../components/platform/soc/rt582/rt582_crypto/rt_ecjpake.c:517:9
	cbz	r0, .LBB3_5
.Ltmp155:
	.p2align	2
.LBB3_4:                                @ =>This Inner Loop Header: Depth=1
	@DEBUG_VALUE: ecjpake_verify_step2_zkp:ctx <- $r5
	@DEBUG_VALUE: ecjpake_verify_step2_zkp:status <- $r0
	.loc	2 519 9                         @ ../../../components/platform/soc/rt582/rt582_crypto/rt_ecjpake.c:519:9
	b	.LBB3_4
.Ltmp156:
.LBB3_5:
	@DEBUG_VALUE: ecjpake_verify_step2_zkp:ctx <- $r5
	@DEBUG_VALUE: ecjpake_verify_step2_zkp:status <- $r0
	.loc	2 0 9 is_stmt 0                 @ ../../../components/platform/soc/rt582/rt582_crypto/rt_ecjpake.c:0:9
	movs	r0, #0
.Ltmp157:
	b	.LBB3_2
.Lfunc_end3:
	.size	ecjpake_verify_step2_zkp, .Lfunc_end3-ecjpake_verify_step2_zkp
	.cfi_endproc
	.cantunwind
	.fnend
                                        @ -- End function
	.section	.text.ecjpake_compute_key,"ax",%progbits
	.hidden	ecjpake_compute_key             @ -- Begin function ecjpake_compute_key
	.globl	ecjpake_compute_key
	.p2align	1
	.type	ecjpake_compute_key,%function
	.code	16                              @ @ecjpake_compute_key
	.thumb_func
ecjpake_compute_key:
.Lfunc_begin4:
	.loc	2 527 0 is_stmt 1               @ ../../../components/platform/soc/rt582/rt582_crypto/rt_ecjpake.c:527:0
	.fnstart
	.cfi_startproc
@ %bb.0:
	@DEBUG_VALUE: ecjpake_compute_key:ctx <- $r0
	@DEBUG_VALUE: ecjpake_compute_key:key <- $r1
	@DEBUG_VALUE: ecjpake_compute_key:pms <- $r2
	.save	{r4, r5, r6, r7, r8, r9, lr}
	push.w	{r4, r5, r6, r7, r8, r9, lr}
	.cfi_def_cfa_offset 28
	.cfi_offset lr, -4
	.cfi_offset r9, -8
	.cfi_offset r8, -12
	.cfi_offset r7, -16
	.cfi_offset r6, -20
	.cfi_offset r5, -24
	.cfi_offset r4, -28
	.pad	#268
	sub	sp, #268
	.cfi_def_cfa_offset 296
	mov	r7, r0
	@DEBUG_VALUE: ecjpake_compute_key:pms <- $r2
	@DEBUG_VALUE: ecjpake_compute_key:key <- $r1
.Ltmp158:
	@DEBUG_VALUE: ecjpake_compute_key:ctx <- $r7
	.loc	2 538 23 prologue_end           @ ../../../components/platform/soc/rt582/rt582_crypto/rt_ecjpake.c:538:23
	cmp	r0, #0
	mov.w	r0, #5
	beq.w	.LBB4_8
.Ltmp159:
@ %bb.1:
	@DEBUG_VALUE: ecjpake_compute_key:ctx <- $r7
	@DEBUG_VALUE: ecjpake_compute_key:pms <- $r2
	@DEBUG_VALUE: ecjpake_compute_key:key <- $r1
	@DEBUG_VALUE: ecjpake_compute_key:pms <- $r2
	.loc	2 0 23 is_stmt 0                @ ../../../components/platform/soc/rt582/rt582_crypto/rt_ecjpake.c:0:23
	mov	r6, r1
.Ltmp160:
	@DEBUG_VALUE: ecjpake_compute_key:key <- $r6
	.loc	2 538 23                        @ ../../../components/platform/soc/rt582/rt582_crypto/rt_ecjpake.c:538:23
	cmp	r1, #0
	beq	.LBB4_8
.Ltmp161:
@ %bb.2:
	@DEBUG_VALUE: ecjpake_compute_key:ctx <- $r7
	@DEBUG_VALUE: ecjpake_compute_key:key <- $r6
	@DEBUG_VALUE: ecjpake_compute_key:pms <- $r2
	.loc	2 0 23                          @ ../../../components/platform/soc/rt582/rt582_crypto/rt_ecjpake.c:0:23
	mov	r9, r2
.Ltmp162:
	@DEBUG_VALUE: ecjpake_compute_key:pms <- $r9
	.loc	2 538 23                        @ ../../../components/platform/soc/rt582/rt582_crypto/rt_ecjpake.c:538:23
	cmp	r2, #0
	beq	.LBB4_8
.Ltmp163:
@ %bb.3:
	@DEBUG_VALUE: ecjpake_compute_key:pms <- $r9
	@DEBUG_VALUE: ecjpake_compute_key:ctx <- $r7
	@DEBUG_VALUE: ecjpake_compute_key:key <- $r6
	.loc	2 545 53 is_stmt 1              @ ../../../components/platform/soc/rt582/rt582_crypto/rt_ecjpake.c:545:53
	add.w	r5, r6, #64
	.loc	2 545 78 is_stmt 0              @ ../../../components/platform/soc/rt582/rt582_crypto/rt_ecjpake.c:545:78
	add.w	r1, r7, #192
	.loc	2 545 5                         @ ../../../components/platform/soc/rt582/rt582_crypto/rt_ecjpake.c:545:5
	mov	r0, r5
	movs	r2, #8
	bl	buffer_endian_exchange
.Ltmp164:
	.loc	2 546 55 is_stmt 1              @ ../../../components/platform/soc/rt582/rt582_crypto/rt_ecjpake.c:546:55
	add.w	r0, r6, #96
	.loc	2 546 72 is_stmt 0              @ ../../../components/platform/soc/rt582/rt582_crypto/rt_ecjpake.c:546:72
	add.w	r1, r7, #224
	.loc	2 546 5                         @ ../../../components/platform/soc/rt582/rt582_crypto/rt_ecjpake.c:546:5
	movs	r2, #8
	bl	buffer_endian_exchange
.Ltmp165:
	.loc	2 549 66 is_stmt 1              @ ../../../components/platform/soc/rt582/rt582_crypto/rt_ecjpake.c:549:66
	add.w	r8, r7, #288
	add	r4, sp, #108
	.loc	2 549 5 is_stmt 0               @ ../../../components/platform/soc/rt582/rt582_crypto/rt_ecjpake.c:549:5
	mov	r0, r4
	mov	r1, r8
	movs	r2, #8
	bl	buffer_endian_exchange
.Ltmp166:
	.loc	2 552 5 is_stmt 1               @ ../../../components/platform/soc/rt582/rt582_crypto/rt_ecjpake.c:552:5
	bl	gfp_ecc_curve_p256_init
.Ltmp167:
	.loc	2 0 5 is_stmt 0                 @ ../../../components/platform/soc/rt582/rt582_crypto/rt_ecjpake.c:0:5
	add	r0, sp, #204
	.loc	2 553 14 is_stmt 1              @ ../../../components/platform/soc/rt582/rt582_crypto/rt_ecjpake.c:553:14
	mov	r1, r5
	mov	r2, r4
	bl	gfp_point_p256_mult
.Ltmp168:
	@DEBUG_VALUE: ecjpake_compute_key:status <- $r0
	.loc	2 555 9                         @ ../../../components/platform/soc/rt582/rt582_crypto/rt_ecjpake.c:555:9
	cmp	r0, #0
	bne	.LBB4_8
.Ltmp169:
@ %bb.4:
	@DEBUG_VALUE: ecjpake_compute_key:pms <- $r9
	@DEBUG_VALUE: ecjpake_compute_key:ctx <- $r7
	@DEBUG_VALUE: ecjpake_compute_key:key <- $r6
	@DEBUG_VALUE: ecjpake_compute_key:status <- $r0
	.loc	2 0 9 is_stmt 0                 @ ../../../components/platform/soc/rt582/rt582_crypto/rt_ecjpake.c:0:9
	add	r4, sp, #204
	.loc	2 562 5 is_stmt 1               @ ../../../components/platform/soc/rt582/rt582_crypto/rt_ecjpake.c:562:5
	mov	r0, r4
.Ltmp170:
	mov	r1, r4
	bl	gfp_point_p256_invert
.Ltmp171:
	.loc	2 565 66                        @ ../../../components/platform/soc/rt582/rt582_crypto/rt_ecjpake.c:565:66
	add.w	r1, r7, #388
	add	r7, sp, #108
.Ltmp172:
	.loc	2 565 5 is_stmt 0               @ ../../../components/platform/soc/rt582/rt582_crypto/rt_ecjpake.c:565:5
	mov	r0, r7
	movs	r2, #8
	bl	buffer_endian_exchange
.Ltmp173:
	.loc	2 568 5 is_stmt 1               @ ../../../components/platform/soc/rt582/rt582_crypto/rt_ecjpake.c:568:5
	bl	gfp_ecc_curve_p256_init
.Ltmp174:
	.loc	2 569 14                        @ ../../../components/platform/soc/rt582/rt582_crypto/rt_ecjpake.c:569:14
	mov	r0, r5
	mov	r1, r4
	mov	r2, r7
	bl	gfp_point_p256_mult
.Ltmp175:
	@DEBUG_VALUE: ecjpake_compute_key:status <- $r0
	.loc	2 571 9                         @ ../../../components/platform/soc/rt582/rt582_crypto/rt_ecjpake.c:571:9
	cmp	r0, #0
	bne	.LBB4_8
.Ltmp176:
@ %bb.5:
	@DEBUG_VALUE: ecjpake_compute_key:pms <- $r9
	@DEBUG_VALUE: ecjpake_compute_key:key <- $r6
	@DEBUG_VALUE: ecjpake_compute_key:status <- $r0
	.loc	2 578 14                        @ ../../../components/platform/soc/rt582/rt582_crypto/rt_ecjpake.c:578:14
	mov	r0, r5
.Ltmp177:
	bl	gfp_valid_point_p256_verify
.Ltmp178:
	@DEBUG_VALUE: ecjpake_compute_key:status <- $r0
	.loc	2 580 9                         @ ../../../components/platform/soc/rt582/rt582_crypto/rt_ecjpake.c:580:9
	cmp	r0, #0
	bne	.LBB4_8
.Ltmp179:
@ %bb.6:
	@DEBUG_VALUE: ecjpake_compute_key:pms <- $r9
	@DEBUG_VALUE: ecjpake_compute_key:key <- $r6
	@DEBUG_VALUE: ecjpake_compute_key:status <- $r0
	.loc	2 0 9 is_stmt 0                 @ ../../../components/platform/soc/rt582/rt582_crypto/rt_ecjpake.c:0:9
	add	r4, sp, #140
	.loc	2 587 5 is_stmt 1               @ ../../../components/platform/soc/rt582/rt582_crypto/rt_ecjpake.c:587:5
	mov	r0, r4
.Ltmp180:
	mov	r1, r6
	movs	r2, #8
	bl	buffer_endian_exchange
.Ltmp181:
	.loc	2 588 55                        @ ../../../components/platform/soc/rt582/rt582_crypto/rt_ecjpake.c:588:55
	add.w	r0, r4, #32
	.loc	2 588 82 is_stmt 0              @ ../../../components/platform/soc/rt582/rt582_crypto/rt_ecjpake.c:588:82
	add.w	r1, r6, #32
	.loc	2 588 5                         @ ../../../components/platform/soc/rt582/rt582_crypto/rt_ecjpake.c:588:5
	movs	r2, #8
	bl	buffer_endian_exchange
.Ltmp182:
	.loc	2 0 5                           @ ../../../components/platform/soc/rt582/rt582_crypto/rt_ecjpake.c:0:5
	add	r6, sp, #204
.Ltmp183:
	@DEBUG_VALUE: ecjpake_compute_key:key <- [DW_OP_LLVM_entry_value 1] $r1
	.loc	2 590 14 is_stmt 1              @ ../../../components/platform/soc/rt582/rt582_crypto/rt_ecjpake.c:590:14
	mov	r0, r6
	mov	r1, r4
	mov	r2, r5
	bl	gfp_point_p256_add
.Ltmp184:
	@DEBUG_VALUE: ecjpake_compute_key:status <- undef
	.loc	2 0 14 is_stmt 0                @ ../../../components/platform/soc/rt582/rt582_crypto/rt_ecjpake.c:0:14
	add	r4, sp, #108
	.loc	2 594 5 is_stmt 1               @ ../../../components/platform/soc/rt582/rt582_crypto/rt_ecjpake.c:594:5
	mov	r0, r4
	mov	r1, r8
	movs	r2, #8
	bl	buffer_endian_exchange
.Ltmp185:
	.loc	2 597 5                         @ ../../../components/platform/soc/rt582/rt582_crypto/rt_ecjpake.c:597:5
	bl	gfp_ecc_curve_p256_init
.Ltmp186:
	.loc	2 598 14                        @ ../../../components/platform/soc/rt582/rt582_crypto/rt_ecjpake.c:598:14
	mov	r0, r5
	mov	r1, r6
	mov	r2, r4
	bl	gfp_point_p256_mult
.Ltmp187:
	@DEBUG_VALUE: ecjpake_compute_key:status <- $r0
	.loc	2 600 9                         @ ../../../components/platform/soc/rt582/rt582_crypto/rt_ecjpake.c:600:9
	cbnz	r0, .LBB4_8
.Ltmp188:
@ %bb.7:
	@DEBUG_VALUE: ecjpake_compute_key:pms <- $r9
	@DEBUG_VALUE: ecjpake_compute_key:status <- $r0
	@DEBUG_VALUE: ecjpake_compute_key:key <- [DW_OP_LLVM_entry_value 1] $r1
	.loc	2 0 9 is_stmt 0                 @ ../../../components/platform/soc/rt582/rt582_crypto/rt_ecjpake.c:0:9
	add	r4, sp, #108
	.loc	2 608 5 is_stmt 1               @ ../../../components/platform/soc/rt582/rt582_crypto/rt_ecjpake.c:608:5
	mov	r0, r4
.Ltmp189:
	mov	r1, r5
	movs	r2, #8
	bl	buffer_endian_exchange
.Ltmp190:
	.loc	2 611 5                         @ ../../../components/platform/soc/rt582/rt582_crypto/rt_ecjpake.c:611:5
	movw	r0, :lower16:sha256_init
	movt	r0, :upper16:sha256_init
	ldr	r1, [r0]
	add	r5, sp, #4
	mov	r0, r5
	blx	r1
.Ltmp191:
	.loc	2 613 5                         @ ../../../components/platform/soc/rt582/rt582_crypto/rt_ecjpake.c:613:5
	movw	r0, :lower16:sha256_update
	movt	r0, :upper16:sha256_update
	ldr	r3, [r0]
	mov	r0, r5
	mov	r1, r4
	movs	r2, #32
	blx	r3
.Ltmp192:
	.loc	2 615 5                         @ ../../../components/platform/soc/rt582/rt582_crypto/rt_ecjpake.c:615:5
	movw	r0, :lower16:sha256_finish
	movt	r0, :upper16:sha256_finish
	ldr	r2, [r0]
	mov	r0, r5
	mov	r1, r9
	blx	r2
.Ltmp193:
	.loc	2 0 5 is_stmt 0                 @ ../../../components/platform/soc/rt582/rt582_crypto/rt_ecjpake.c:0:5
	movs	r0, #0
.Ltmp194:
.LBB4_8:
	.loc	2 621 1 is_stmt 1               @ ../../../components/platform/soc/rt582/rt582_crypto/rt_ecjpake.c:621:1
	add	sp, #268
	pop.w	{r4, r5, r6, r7, r8, r9, pc}
.Ltmp195:
.Lfunc_end4:
	.size	ecjpake_compute_key, .Lfunc_end4-ecjpake_compute_key
	.cfi_endproc
	.cantunwind
	.fnend
                                        @ -- End function
	.hidden	length_key                      @ @length_key
	.type	length_key,%object
	.section	.rodata.length_key,"a",%progbits
	.globl	length_key
length_key:
	.asciz	"\000\000\000A\004\000\000"
	.size	length_key, 8

	.hidden	length_id                       @ @length_id
	.type	length_id,%object
	.section	.rodata.length_id,"a",%progbits
	.globl	length_id
length_id:
	.ascii	"\000\000\000\006"
	.size	length_id, 4

	.hidden	client_string                   @ @client_string
	.type	client_string,%object
	.section	.rodata.client_string,"a",%progbits
	.globl	client_string
client_string:
	.ascii	"client"
	.size	client_string, 6

	.hidden	server_string                   @ @server_string
	.type	server_string,%object
	.section	.rodata.server_string,"a",%progbits
	.globl	server_string
server_string:
	.ascii	"server"
	.size	server_string, 6

	.type	self_test_rngX.entropy_input,%object @ @self_test_rngX.entropy_input
	.section	.data.self_test_rngX.entropy_input,"aw",%progbits
	.p2align	2
self_test_rngX.entropy_input:
	.ascii	"\005<\237\304\306*\007\343\371\b@\332V\026!\214m\345t=f\270\340\373\3703u\234Y(\265="
	.size	self_test_rngX.entropy_input, 32

	.type	self_test_rngX.nonce,%object    @ @self_test_rngX.nonce
	.section	.data.self_test_rngX.nonce,"aw",%progbits
	.p2align	2
self_test_rngX.nonce:
	.ascii	"+\211\241y\004\222.\330\360\027\2460D2\205E"
	.size	self_test_rngX.nonce, 16

	.type	self_test_rngX.entropy_input_reseed,%object @ @self_test_rngX.entropy_input_reseed
	.section	.data.self_test_rngX.entropy_input_reseed,"aw",%progbits
	.p2align	2
self_test_rngX.entropy_input_reseed:
	.ascii	"'\221\022k\213D\356\037\3319*\n\023\340\b;\355A\202\334d\233s\226\007\254p\354\215\316\317\233"
	.size	self_test_rngX.entropy_input_reseed, 32

	.type	self_test_rngX.additional_input_reseed,%object @ @self_test_rngX.additional_input_reseed
	.section	.data.self_test_rngX.additional_input_reseed,"aw",%progbits
	.p2align	2
self_test_rngX.additional_input_reseed:
	.ascii	"C\272\301;\256qP\222\217~\262\200\242\341\032\226/\257r3\304\024\022\366\2332J5\245\204\345L"
	.size	self_test_rngX.additional_input_reseed, 32

	.type	self_test_rngX.additional_input,%object @ @self_test_rngX.additional_input
	.section	.data.self_test_rngX.additional_input,"aw",%progbits
	.p2align	2
self_test_rngX.additional_input:
	.ascii	"?/\355Kh\325\006\354\357\242\037?[\271\007\276\260\361\035\2740\366\367\273\245\345\206\024\b\305:\036"
	.ascii	"R\2200OPH\020\230_\336\006\215\370+\223^\302=\203\234\264\262iAL\016\336l\377\352[h"
	.size	self_test_rngX.additional_input, 64

	.type	self_test_rngX.result,%object   @ @self_test_rngX.result
	.section	.bss.self_test_rngX.result,"aw",%nobits
	.p2align	2
self_test_rngX.result:
	.zero	128
	.size	self_test_rngX.result, 128

	.type	self_test_rngX.temp_entropy_input_index,%object @ @self_test_rngX.temp_entropy_input_index
	.section	.bss.self_test_rngX.temp_entropy_input_index,"aw",%nobits
	.p2align	2
self_test_rngX.temp_entropy_input_index:
	.long	0                               @ 0x0
	.size	self_test_rngX.temp_entropy_input_index, 4

	.type	self_test_rngX.p_current,%object @ @self_test_rngX.p_current
	.section	.data.self_test_rngX.p_current,"aw",%progbits
	.p2align	2
self_test_rngX.p_current:
	.long	self_test_rngX.result
	.size	self_test_rngX.p_current, 4

	.type	self_test_rngX.remain_length,%object @ @self_test_rngX.remain_length
	.section	.bss.self_test_rngX.remain_length,"aw",%nobits
	.p2align	2
self_test_rngX.remain_length:
	.long	0                               @ 0x0
	.size	self_test_rngX.remain_length, 4

	.file	5 "D:\\Rafael-IoT-SDK-Internal-main\\examples\\das_subg_thread\\keil" "../../../components/platform/soc/rt582/rt582_crypto/Inc/rt_sha256.h"
	.file	6 "D:\\Rafael-IoT-SDK-Internal-main\\examples\\das_subg_thread\\keil" "../../../components/platform/soc/rt582/rt582_crypto/Inc/rt_ecjpake.h"
	.section	".note.GNU-stack","",%progbits
	.eabi_attribute	30, 3	@ Tag_ABI_optimization_goals
	.ARM_attribute	16, 1	@ Tag_AV_eba