	.text
	.syntax unified
	.eabi_attribute	67, "2.09"	@ Tag_conformance
	.cpu	cortex-m3
	.eabi_attribute	6, 10	@ Tag_CPU_arch
	.eabi_attribute	7, 77	@ Tag_CPU_arch_profile
	.eabi_attribute	8, 0	@ Tag_ARM_ISA_use
	.eabi_attribute	9, 2	@ Tag_THUMB_ISA_use
	.eabi_attribute	34, 1	@ Tag_CPU_unaligned_access
	.eabi_attribute	17, 1	@ Tag_ABI_PCS_GOT_use
	.eabi_attribute	20, 2	@ Tag_ABI_FP_denormal
	.eabi_attribute	21, 0	@ Tag_ABI_FP_exceptions
	.eabi_attribute	23, 1	@ Tag_ABI_FP_number_model
	.eabi_attribute	24, 1	@ Tag_ABI_align_needed
	.eabi_attribute	25, 1	@ Tag_ABI_align_preserved
	.eabi_attribute	38, 1	@ Tag_ABI_FP_16bit_format
	.eabi_attribute	18, 4	@ Tag_ABI_PCS_wchar_t
	.eabi_attribute	26, 2	@ Tag_ABI_enum_size
	.eabi_attribute	14, 0	@ Tag_ABI_PCS_R9_use
	.file	"rt_main.c"
	.file	1 "D:\\20240115\\rafael-iot-sdk-das\\examples\\das_subg_thread\\keil" "../../../components/platform/soc/rt582/rt582_dongle/rt_main.c"
	.file	2 "D:\\20240115\\rafael-iot-sdk-das\\examples\\das_subg_thread\\keil" "../../../components/platform/soc/rt582/rt582_freertos/Inc\\FreeRTOS.h"
	.file	3 "C:\\Keil_v5\\ARM\\ARMCLANG\\Bin\\..\\include" "stdint.h"
	.file	4 "D:\\20240115\\rafael-iot-sdk-das\\examples\\das_subg_thread\\keil" "../../../components/platform/soc/rt582/rt582_freertos/portable/GCC/ARM_CM3\\portmacro.h"
	.file	5 "D:\\20240115\\rafael-iot-sdk-das\\examples\\das_subg_thread\\keil" "../../../components/platform/soc/rt582/rt582_freertos/Inc/portable.h"
	.file	6 "C:\\Keil_v5\\ARM\\ARMCLANG\\Bin\\..\\include" "stdio.h"
	.file	7 "D:\\20240115\\rafael-iot-sdk-das\\examples\\das_subg_thread\\keil" "../../../components/platform/soc/rt582/rt582_driver/Inc/cm3_mcu.h"
	.file	8 "D:\\20240115\\rafael-iot-sdk-das\\examples\\das_subg_thread\\keil" "../../../components/utility/EnhancedFlashDataset/Inc\\efd_def.h"
	.file	9 "D:\\20240115\\rafael-iot-sdk-das\\examples\\das_subg_thread\\keil" "../../../components/platform/soc/rt582/rt582_driver/Inc/timer_reg.h"
	.file	10 "C:/Users\\P350\\AppData\\Local\\Arm\\Packs\\ARM\\CMSIS\\5.8.0\\CMSIS\\Core\\Include" "core_cm3.h"
	.section	.text.vApplicationStackOverflowHook,"ax",%progbits
	.hidden	vApplicationStackOverflowHook   @ -- Begin function vApplicationStackOverflowHook
	.weak	vApplicationStackOverflowHook
	.p2align	2
	.type	vApplicationStackOverflowHook,%function
	.code	16                              @ @vApplicationStackOverflowHook
	.thumb_func
vApplicationStackOverflowHook:
.Lfunc_begin0:
	.loc	1 45 0                          @ ../../../components/platform/soc/rt582/rt582_dongle/rt_main.c:45:0
	.fnstart
	.cfi_sections .debug_frame
	.cfi_startproc
@ %bb.0:
	@DEBUG_VALUE: vApplicationStackOverflowHook:xTask <- $r0
	@DEBUG_VALUE: vApplicationStackOverflowHook:pcTaskName <- $r1
	.save	{r4, lr}
	push	{r4, lr}
	.cfi_def_cfa_offset 8
	.cfi_offset lr, -4
	.cfi_offset r4, -8
.Ltmp0:
	.loc	1 46 5 prologue_end             @ ../../../components/platform/soc/rt582/rt582_dongle/rt_main.c:46:5
	adr	r0, .LCPI0_0
.Ltmp1:
	@DEBUG_VALUE: vApplicationStackOverflowHook:xTask <- [DW_OP_LLVM_entry_value 1] $r0
	.loc	1 0 5 is_stmt 0                 @ ../../../components/platform/soc/rt582/rt582_dongle/rt_main.c:0:5
	mov	r4, r1
.Ltmp2:
	@DEBUG_VALUE: vApplicationStackOverflowHook:pcTaskName <- $r4
	@DEBUG_VALUE: vApplicationStackOverflowHook:pcTaskName <- $r4
	.loc	1 46 5                          @ ../../../components/platform/soc/rt582/rt582_dongle/rt_main.c:46:5
	bl	puts
.Ltmp3:
	.loc	1 47 9 is_stmt 1                @ ../../../components/platform/soc/rt582/rt582_dongle/rt_main.c:47:9
	cbz	r4, .LBB0_2
.Ltmp4:
@ %bb.1:
	@DEBUG_VALUE: vApplicationStackOverflowHook:pcTaskName <- $r4
	@DEBUG_VALUE: vApplicationStackOverflowHook:xTask <- [DW_OP_LLVM_entry_value 1] $r0
	.loc	1 49 9                          @ ../../../components/platform/soc/rt582/rt582_dongle/rt_main.c:49:9
	adr	r0, .LCPI0_1
	mov	r1, r4
	bl	__2printf
.Ltmp5:
.LBB0_2:
	@DEBUG_VALUE: vApplicationStackOverflowHook:pcTaskName <- $r4
	@DEBUG_VALUE: vApplicationStackOverflowHook:xTask <- [DW_OP_LLVM_entry_value 1] $r0
	.loc	4 197 5                         @ ../../../components/platform/soc/rt582/rt582_freertos/portable/GCC/ARM_CM3\portmacro.h:197:5
	@APP
	mov.w	r0, #64
	msr	basepri, r0
	isb	sy
	dsb	sy

	@NO_APP
.Ltmp6:
	@DEBUG_VALUE: vPortRaiseBASEPRI:ulNewBASEPRI <- $r0
	.loc	4 0 5 is_stmt 0                 @ ../../../components/platform/soc/rt582/rt582_freertos/portable/GCC/ARM_CM3\portmacro.h:0:5
	movw	r0, #57728
.Ltmp7:
	movt	r0, #57344
	movs	r1, #8
.Ltmp8:
	@DEBUG_VALUE: __NVIC_DisableIRQ:IRQn <- 3
	.loc	10 1550 43 is_stmt 1            @ C:/Users\P350\AppData\Local\Arm\Packs\ARM\CMSIS\5.8.0\CMSIS\Core\Include\core_cm3.h:1550:43
	str	r1, [r0]
	.loc	10 1551 5                       @ C:/Users\P350\AppData\Local\Arm\Packs\ARM\CMSIS\5.8.0\CMSIS\Core\Include\core_cm3.h:1551:5
	dsb	sy
	.loc	10 1552 5                       @ C:/Users\P350\AppData\Local\Arm\Packs\ARM\CMSIS\5.8.0\CMSIS\Core\Include\core_cm3.h:1552:5
	isb	sy
.Ltmp9:
	.p2align	2
.LBB0_3:                                @ =>This Inner Loop Header: Depth=1
	@DEBUG_VALUE: vApplicationStackOverflowHook:pcTaskName <- $r4
	@DEBUG_VALUE: vApplicationStackOverflowHook:xTask <- [DW_OP_LLVM_entry_value 1] $r0
	.loc	1 53 5                          @ ../../../components/platform/soc/rt582/rt582_dongle/rt_main.c:53:5
	b	.LBB0_3
.Ltmp10:
	.p2align	2
@ %bb.4:
	.loc	1 0 5 is_stmt 0                 @ ../../../components/platform/soc/rt582/rt582_dongle/rt_main.c:0:5
.LCPI0_0:
.L.str:
	.asciz	"Stack Overflow checked\r\n\000\000\000"
.LCPI0_1:
.L.str.1:
	.asciz	"Stack name %s\r\n"
.Lfunc_end0:
	.size	vApplicationStackOverflowHook, .Lfunc_end0-vApplicationStackOverflowHook
	.cfi_endproc
	.cantunwind
	.fnend
                                        @ -- End function
	.section	.text.vApplicationMallocFailedHook,"ax",%progbits
	.hidden	vApplicationMallocFailedHook    @ -- Begin function vApplicationMallocFailedHook
	.weak	vApplicationMallocFailedHook
	.p2align	2
	.type	vApplicationMallocFailedHook,%function
	.code	16                              @ @vApplicationMallocFailedHook
	.thumb_func
vApplicationMallocFailedHook:
.Lfunc_begin1:
	.loc	1 60 0 is_stmt 1                @ ../../../components/platform/soc/rt582/rt582_dongle/rt_main.c:60:0
	.fnstart
	.cfi_startproc
@ %bb.0:
	.save	{r7, lr}
	push	{r7, lr}
	.cfi_def_cfa_offset 8
	.cfi_offset lr, -4
	.cfi_offset r7, -8
.Ltmp11:
	.loc	1 62 12 prologue_end            @ ../../../components/platform/soc/rt582/rt582_dongle/rt_main.c:62:12
	bl	xPortGetFreeHeapSize
.Ltmp12:
	mov	r1, r0
	.loc	1 61 5                          @ ../../../components/platform/soc/rt582/rt582_dongle/rt_main.c:61:5
	adr	r0, .LCPI1_0
	bl	__2printf
.Ltmp13:
	.loc	4 197 5                         @ ../../../components/platform/soc/rt582/rt582_freertos/portable/GCC/ARM_CM3\portmacro.h:197:5
	@APP
	mov.w	r0, #64
	msr	basepri, r0
	isb	sy
	dsb	sy

	@NO_APP
.Ltmp14:
	@DEBUG_VALUE: vPortRaiseBASEPRI:ulNewBASEPRI <- $r0
	.loc	4 0 5 is_stmt 0                 @ ../../../components/platform/soc/rt582/rt582_freertos/portable/GCC/ARM_CM3\portmacro.h:0:5
	movw	r0, #57728
.Ltmp15:
	movt	r0, #57344
	movs	r1, #8
.Ltmp16:
	@DEBUG_VALUE: __NVIC_DisableIRQ:IRQn <- 3
	.loc	10 1550 43 is_stmt 1            @ C:/Users\P350\AppData\Local\Arm\Packs\ARM\CMSIS\5.8.0\CMSIS\Core\Include\core_cm3.h:1550:43
	str	r1, [r0]
	.loc	10 1551 5                       @ C:/Users\P350\AppData\Local\Arm\Packs\ARM\CMSIS\5.8.0\CMSIS\Core\Include\core_cm3.h:1551:5
	dsb	sy
	.loc	10 1552 5                       @ C:/Users\P350\AppData\Local\Arm\Packs\ARM\CMSIS\5.8.0\CMSIS\Core\Include\core_cm3.h:1552:5
	isb	sy
.Ltmp17:
	.p2align	2
.LBB1_1:                                @ =>This Inner Loop Header: Depth=1
	.loc	1 66 5                          @ ../../../components/platform/soc/rt582/rt582_dongle/rt_main.c:66:5
	b	.LBB1_1
.Ltmp18:
	.p2align	2
@ %bb.2:
	.loc	1 0 5 is_stmt 0                 @ ../../../components/platform/soc/rt582/rt582_dongle/rt_main.c:0:5
.LCPI1_0:
.L.str.2:
	.asciz	"Memory Allocate Failed. Current left size is %d bytes\r\n"
.Lfunc_end1:
	.size	vApplicationMallocFailedHook, .Lfunc_end1-vApplicationMallocFailedHook
	.cfi_endproc
	.cantunwind
	.fnend
                                        @ -- End function
	.section	.text.vApplicationIdleHook,"ax",%progbits
	.hidden	vApplicationIdleHook            @ -- Begin function vApplicationIdleHook
	.weak	vApplicationIdleHook
	.p2align	1
	.type	vApplicationIdleHook,%function
	.code	16                              @ @vApplicationIdleHook
	.thumb_func
vApplicationIdleHook:
.Lfunc_begin2:
	.loc	1 73 0 is_stmt 1                @ ../../../components/platform/soc/rt582/rt582_dongle/rt_main.c:73:0
	.fnstart
	.cfi_startproc
@ %bb.0:
	.loc	1 74 5 prologue_end             @ ../../../components/platform/soc/rt582/rt582_dongle/rt_main.c:74:5
	wfi
	.loc	1 76 1                          @ ../../../components/platform/soc/rt582/rt582_dongle/rt_main.c:76:1
	bx	lr
.Ltmp19:
.Lfunc_end2:
	.size	vApplicationIdleHook, .Lfunc_end2-vApplicationIdleHook
	.cfi_endproc
	.cantunwind
	.fnend
                                        @ -- End function
	.section	.text.vApplicationSleep,"ax",%progbits
	.hidden	vApplicationSleep               @ -- Begin function vApplicationSleep
	.weak	vApplicationSleep
	.p2align	1
	.type	vApplicationSleep,%function
	.code	16                              @ @vApplicationSleep
	.thumb_func
vApplicationSleep:
.Lfunc_begin3:
	.loc	1 81 0                          @ ../../../components/platform/soc/rt582/rt582_dongle/rt_main.c:81:0
	.fnstart
	.cfi_startproc
@ %bb.0:
	@DEBUG_VALUE: vApplicationSleep:xExpectedIdleTime <- $r0
	.loc	1 83 1 prologue_end             @ ../../../components/platform/soc/rt582/rt582_dongle/rt_main.c:83:1
	bx	lr
.Ltmp20:
.Lfunc_end3:
	.size	vApplicationSleep, .Lfunc_end3-vApplicationSleep
	.cfi_endproc
	.cantunwind
	.fnend
                                        @ -- End function
	.section	.text.vApplicationTickHook,"ax",%progbits
	.hidden	vApplicationTickHook            @ -- Begin function vApplicationTickHook
	.weak	vApplicationTickHook
	.p2align	1
	.type	vApplicationTickHook,%function
	.code	16                              @ @vApplicationTickHook
	.thumb_func
vApplicationTickHook:
.Lfunc_begin4:
	.loc	1 88 0                          @ ../../../components/platform/soc/rt582/rt582_dongle/rt_main.c:88:0
	.fnstart
	.cfi_startproc
@ %bb.0:
	.loc	1 90 1 prologue_end             @ ../../../components/platform/soc/rt582/rt582_dongle/rt_main.c:90:1
	bx	lr
.Ltmp21:
.Lfunc_end4:
	.size	vApplicationTickHook, .Lfunc_end4-vApplicationTickHook
	.cfi_endproc
	.cantunwind
	.fnend
                                        @ -- End function
	.section	.text.vApplicationGetIdleTaskMemory,"ax",%progbits
	.hidden	vApplicationGetIdleTaskMemory   @ -- Begin function vApplicationGetIdleTaskMemory
	.weak	vApplicationGetIdleTaskMemory
	.p2align	1
	.type	vApplicationGetIdleTaskMemory,%function
	.code	16                              @ @vApplicationGetIdleTaskMemory
	.thumb_func
vApplicationGetIdleTaskMemory:
.Lfunc_begin5:
	.loc	1 94 0                          @ ../../../components/platform/soc/rt582/rt582_dongle/rt_main.c:94:0
	.fnstart
	.cfi_startproc
@ %bb.0:
	@DEBUG_VALUE: vApplicationGetIdleTaskMemory:ppxIdleTaskTCBBuffer <- $r0
	@DEBUG_VALUE: vApplicationGetIdleTaskMemory:ppxIdleTaskTCBBuffer <- $r0
	@DEBUG_VALUE: vApplicationGetIdleTaskMemory:ppxIdleTaskStackBuffer <- $r1
	@DEBUG_VALUE: vApplicationGetIdleTaskMemory:ppxIdleTaskStackBuffer <- $r1
	@DEBUG_VALUE: vApplicationGetIdleTaskMemory:pulIdleTaskStackSize <- $r2
	@DEBUG_VALUE: vApplicationGetIdleTaskMemory:pulIdleTaskStackSize <- $r2
	.loc	1 103 27 prologue_end           @ ../../../components/platform/soc/rt582/rt582_dongle/rt_main.c:103:27
	movw	r3, :lower16:vApplicationGetIdleTaskMemory.xIdleTaskTCB
	movt	r3, :upper16:vApplicationGetIdleTaskMemory.xIdleTaskTCB
	str	r3, [r0]
	.loc	1 106 29                        @ ../../../components/platform/soc/rt582/rt582_dongle/rt_main.c:106:29
	movw	r0, :lower16:vApplicationGetIdleTaskMemory.uxIdleTaskStack
.Ltmp22:
	@DEBUG_VALUE: vApplicationGetIdleTaskMemory:ppxIdleTaskTCBBuffer <- [DW_OP_LLVM_entry_value 1] $r0
	movt	r0, :upper16:vApplicationGetIdleTaskMemory.uxIdleTaskStack
	str	r0, [r1]
	mov.w	r0, #256
	.loc	1 111 27                        @ ../../../components/platform/soc/rt582/rt582_dongle/rt_main.c:111:27
	str	r0, [r2]
	.loc	1 112 1                         @ ../../../components/platform/soc/rt582/rt582_dongle/rt_main.c:112:1
	bx	lr
.Ltmp23:
.Lfunc_end5:
	.size	vApplicationGetIdleTaskMemory, .Lfunc_end5-vApplicationGetIdleTaskMemory
	.cfi_endproc
	.cantunwind
	.fnend
                                        @ -- End function
	.section	.text.vApplicationGetTimerTaskMemory,"ax",%progbits
	.hidden	vApplicationGetTimerTaskMemory  @ -- Begin function vApplicationGetTimerTaskMemory
	.weak	vApplicationGetTimerTaskMemory
	.p2align	1
	.type	vApplicationGetTimerTaskMemory,%function
	.code	16                              @ @vApplicationGetTimerTaskMemory
	.thumb_func
vApplicationGetTimerTaskMemory:
.Lfunc_begin6:
	.loc	1 118 0                         @ ../../../components/platform/soc/rt582/rt582_dongle/rt_main.c:118:0
	.fnstart
	.cfi_startproc
@ %bb.0:
	@DEBUG_VALUE: vApplicationGetTimerTaskMemory:ppxTimerTaskTCBBuffer <- $r0
	@DEBUG_VALUE: vApplicationGetTimerTaskMemory:ppxTimerTaskTCBBuffer <- $r0
	@DEBUG_VALUE: vApplicationGetTimerTaskMemory:ppxTimerTaskStackBuffer <- $r1
	@DEBUG_VALUE: vApplicationGetTimerTaskMemory:ppxTimerTaskStackBuffer <- $r1
	@DEBUG_VALUE: vApplicationGetTimerTaskMemory:pulTimerTaskStackSize <- $r2
	@DEBUG_VALUE: vApplicationGetTimerTaskMemory:pulTimerTaskStackSize <- $r2
	.loc	1 127 28 prologue_end           @ ../../../components/platform/soc/rt582/rt582_dongle/rt_main.c:127:28
	movw	r3, :lower16:vApplicationGetTimerTaskMemory.xTimerTaskTCB
	movt	r3, :upper16:vApplicationGetTimerTaskMemory.xTimerTaskTCB
	str	r3, [r0]
	.loc	1 130 30                        @ ../../../components/platform/soc/rt582/rt582_dongle/rt_main.c:130:30
	movw	r0, :lower16:vApplicationGetTimerTaskMemory.uxTimerTaskStack
.Ltmp24:
	@DEBUG_VALUE: vApplicationGetTimerTaskMemory:ppxTimerTaskTCBBuffer <- [DW_OP_LLVM_entry_value 1] $r0
	movt	r0, :upper16:vApplicationGetTimerTaskMemory.uxTimerTaskStack
	str	r0, [r1]
	mov.w	r0, #512
	.loc	1 135 28                        @ ../../../components/platform/soc/rt582/rt582_dongle/rt_main.c:135:28
	str	r0, [r2]
	.loc	1 136 1                         @ ../../../components/platform/soc/rt582/rt582_dongle/rt_main.c:136:1
	bx	lr
.Ltmp25:
.Lfunc_end6:
	.size	vApplicationGetTimerTaskMemory, .Lfunc_end6-vApplicationGetTimerTaskMemory
	.cfi_endproc
	.cantunwind
	.fnend
                                        @ -- End function
	.section	.text.vAssertCalled,"ax",%progbits
	.hidden	vAssertCalled                   @ -- Begin function vAssertCalled
	.weak	vAssertCalled
	.p2align	2
	.type	vAssertCalled,%function
	.code	16                              @ @vAssertCalled
	.thumb_func
vAssertCalled:
.Lfunc_begin7:
	.loc	1 139 0                         @ ../../../components/platform/soc/rt582/rt582_dongle/rt_main.c:139:0
	.fnstart
	.cfi_startproc
@ %bb.0:
	@DEBUG_VALUE: vAssertCalled:pcFileName <- $r0
	@DEBUG_VALUE: vAssertCalled:ulLine <- $r1
	.save	{r4, r5, r7, lr}
	push	{r4, r5, r7, lr}
	.cfi_def_cfa_offset 16
	.cfi_offset lr, -4
	.cfi_offset r7, -8
	.cfi_offset r5, -12
	.cfi_offset r4, -16
	mov	r4, r1
.Ltmp26:
	@DEBUG_VALUE: vAssertCalled:ulLine <- $r4
	mov	r5, r0
.Ltmp27:
	@DEBUG_VALUE: vAssertCalled:pcFileName <- $r5
	@DEBUG_VALUE: vAssertCalled:ulLine <- $r4
	@DEBUG_VALUE: vAssertCalled:pcFileName <- $r5
	.loc	1 140 57 prologue_end           @ ../../../components/platform/soc/rt582/rt582_dongle/rt_main.c:140:57
	bl	xTaskGetCurrentTaskHandle
.Ltmp28:
	.loc	1 140 39 is_stmt 0              @ ../../../components/platform/soc/rt582/rt582_dongle/rt_main.c:140:39
	bl	pcTaskGetName
.Ltmp29:
	mov	r1, r0
.Ltmp30:
	@DEBUG_VALUE: vAssertCalled:current_task_name <- $r1
	.loc	1 141 5 is_stmt 1               @ ../../../components/platform/soc/rt582/rt582_dongle/rt_main.c:141:5
	adr	r0, .LCPI7_0
	mov	r2, r5
.Ltmp31:
	@DEBUG_VALUE: vAssertCalled:pcFileName <- $r2
	mov	r3, r4
.Ltmp32:
	@DEBUG_VALUE: vAssertCalled:ulLine <- $r3
	bl	__2printf
.Ltmp33:
	.loc	4 197 5                         @ ../../../components/platform/soc/rt582/rt582_freertos/portable/GCC/ARM_CM3\portmacro.h:197:5
	@APP
	mov.w	r0, #64
	msr	basepri, r0
	isb	sy
	dsb	sy

	@NO_APP
.Ltmp34:
	@DEBUG_VALUE: vPortRaiseBASEPRI:ulNewBASEPRI <- $r0
	.p2align	2
.LBB7_1:                                @ =>This Inner Loop Header: Depth=1
	.loc	1 143 5                         @ ../../../components/platform/soc/rt582/rt582_dongle/rt_main.c:143:5
	b	.LBB7_1
.Ltmp35:
	.p2align	2
@ %bb.2:
	.loc	1 0 5 is_stmt 0                 @ ../../../components/platform/soc/rt582/rt582_dongle/rt_main.c:0:5
.LCPI7_0:
.L.str.3:
	.asciz	"assert: [%s] %s:%ld\n\000\000\000"
.Lfunc_end7:
	.size	vAssertCalled, .Lfunc_end7-vAssertCalled
	.cfi_endproc
	.cantunwind
	.fnend
                                        @ -- End function
	.section	.text.rt582_utick_set_clear,"ax",%progbits
	.hidden	rt582_utick_set_clear           @ -- Begin function rt582_utick_set_clear
	.globl	rt582_utick_set_clear
	.p2align	1
	.type	rt582_utick_set_clear,%function
	.code	16                              @ @rt582_utick_set_clear
	.thumb_func
rt582_utick_set_clear:
.Lfunc_begin8:
	.loc	1 265 0 is_stmt 1               @ ../../../components/platform/soc/rt582/rt582_dongle/rt_main.c:265:0
	.fnstart
	.cfi_startproc
@ %bb.0:
	movw	r0, #58383
	movt	r0, #57344
	movs	r1, #32
.Ltmp36:
	@DEBUG_VALUE: __NVIC_SetPriority:priority <- 1
	@DEBUG_VALUE: __NVIC_SetPriority:IRQn <- 15
	.loc	10 1642 46 prologue_end         @ C:/Users\P350\AppData\Local\Arm\Packs\ARM\CMSIS\5.8.0\CMSIS\Core\Include\core_cm3.h:1642:46
	strb	r1, [r0]
	movs	r0, #8
	movt	r0, #41204
	mvn	r1, #1
.Ltmp37:
	.loc	1 271 17                        @ ../../../components/platform/soc/rt582/rt582_dongle/rt_main.c:271:17
	str	r1, [r0, #-8]
	movs	r1, #1
	.loc	1 272 18                        @ ../../../components/platform/soc/rt582/rt582_dongle/rt_main.c:272:18
	str	r1, [r0, #4]
	movs	r1, #0
	.loc	1 273 24                        @ ../../../components/platform/soc/rt582/rt582_dongle/rt_main.c:273:24
	str	r1, [r0]
	.loc	1 277 33                        @ ../../../components/platform/soc/rt582/rt582_dongle/rt_main.c:277:33
	ldr	r1, [r0]
	bic	r1, r1, #28
	str	r1, [r0]
	.loc	1 278 29                        @ ../../../components/platform/soc/rt582/rt582_dongle/rt_main.c:278:29
	ldr	r1, [r0]
	orr	r1, r1, #64
	str	r1, [r0]
	.loc	1 279 35                        @ ../../../components/platform/soc/rt582/rt582_dongle/rt_main.c:279:35
	ldr	r1, [r0]
	orr	r1, r1, #32
	str	r1, [r0]
	.loc	1 280 27                        @ ../../../components/platform/soc/rt582/rt582_dongle/rt_main.c:280:27
	ldr	r1, [r0]
	orr	r1, r1, #128
	str	r1, [r0]
.Ltmp38:
	@DEBUG_VALUE: rt582_utick_set_clear:TIMER <- undef
	.loc	1 282 1                         @ ../../../components/platform/soc/rt582/rt582_dongle/rt_main.c:282:1
	bx	lr
.Ltmp39:
.Lfunc_end8:
	.size	rt582_utick_set_clear, .Lfunc_end8-rt582_utick_set_clear
	.cfi_endproc
	.cantunwind
	.fnend
                                        @ -- End function
	.section	.text.main,"ax",%progbits
	.hidden	main                            @ -- Begin function main
	.globl	main
	.p2align	2
	.type	main,%function
	.code	16                              @ @main
	.thumb_func
main:
.Lfunc_begin9:
	.loc	1 285 0                         @ ../../../components/platform/soc/rt582/rt582_dongle/rt_main.c:285:0
	.fnstart
	.cfi_startproc
@ %bb.0:
	.pad	#8
	sub	sp, #8
	.cfi_def_cfa_offset 8
	movs	r4, #0
	@DEBUG_VALUE: pin_mux_init:i <- 0
	.p2align	2
.LBB9_1:                                @ =>This Inner Loop Header: Depth=1
.Ltmp40:
	@DEBUG_VALUE: pin_mux_init:i <- $r4
	.loc	1 152 9 prologue_end            @ ../../../components/platform/soc/rt582/rt582_dongle/rt_main.c:152:9
	mov	r0, r4
	movs	r1, #0
	bl	pin_set_mode
.Ltmp41:
	.loc	1 150 26                        @ ../../../components/platform/soc/rt582/rt582_dongle/rt_main.c:150:26
	adds	r4, #1
.Ltmp42:
	@DEBUG_VALUE: pin_mux_init:i <- $r4
	.loc	1 150 5 is_stmt 0               @ ../../../components/platform/soc/rt582/rt582_dongle/rt_main.c:150:5
	cmp	r4, #32
	bne	.LBB9_1
.Ltmp43:
@ %bb.2:
	.loc	1 288 16 is_stmt 1              @ ../../../components/platform/soc/rt582/rt582_dongle/rt_main.c:288:16
	movw	r4, :lower16:Image$$RW_IRAM2_FREERTOS_HEAP_POOL_START$$RO$$Base
	movw	r0, #16384
	movt	r4, :upper16:Image$$RW_IRAM2_FREERTOS_HEAP_POOL_START$$RO$$Base
	movt	r0, #8194
	subs	r1, r0, r4
	movw	r7, :lower16:_heap_size
	.loc	1 289 34                        @ ../../../components/platform/soc/rt582/rt582_dongle/rt_main.c:289:34
	movw	r0, :lower16:xHeapRegions
	.loc	1 288 16                        @ ../../../components/platform/soc/rt582/rt582_dongle/rt_main.c:288:16
	movt	r7, :upper16:_heap_size
	.loc	1 289 34                        @ ../../../components/platform/soc/rt582/rt582_dongle/rt_main.c:289:34
	movt	r0, :upper16:xHeapRegions
	.loc	1 288 16                        @ ../../../components/platform/soc/rt582/rt582_dongle/rt_main.c:288:16
	str	r1, [r7]
	.loc	1 289 34                        @ ../../../components/platform/soc/rt582/rt582_dongle/rt_main.c:289:34
	str	r1, [r0, #4]
	.loc	1 292 5                         @ ../../../components/platform/soc/rt582/rt582_dongle/rt_main.c:292:5
	bl	vPortDefineHeapRegions
.Ltmp44:
	.loc	1 0 5 is_stmt 0                 @ ../../../components/platform/soc/rt582/rt582_dongle/rt_main.c:0:5
	movw	r0, #58383
	movt	r0, #57344
	movs	r1, #32
.Ltmp45:
	@DEBUG_VALUE: __NVIC_SetPriority:priority <- 1
	@DEBUG_VALUE: __NVIC_SetPriority:IRQn <- 15
	.loc	10 1642 46 is_stmt 1            @ C:/Users\P350\AppData\Local\Arm\Packs\ARM\CMSIS\5.8.0\CMSIS\Core\Include\core_cm3.h:1642:46
	strb	r1, [r0]
	movs	r0, #8
	movt	r0, #41204
	mvn	r1, #1
.Ltmp46:
	.loc	1 271 17                        @ ../../../components/platform/soc/rt582/rt582_dongle/rt_main.c:271:17
	str	r1, [r0, #-8]
	movs	r1, #1
	mov.w	r8, #0
	.loc	1 272 18                        @ ../../../components/platform/soc/rt582/rt582_dongle/rt_main.c:272:18
	str	r1, [r0, #4]
	.loc	1 273 24                        @ ../../../components/platform/soc/rt582/rt582_dongle/rt_main.c:273:24
	str.w	r8, [r0]
	.loc	1 277 33                        @ ../../../components/platform/soc/rt582/rt582_dongle/rt_main.c:277:33
	ldr	r1, [r0]
	bic	r1, r1, #28
	str	r1, [r0]
	.loc	1 278 29                        @ ../../../components/platform/soc/rt582/rt582_dongle/rt_main.c:278:29
	ldr	r1, [r0]
	orr	r1, r1, #64
	str	r1, [r0]
	.loc	1 279 35                        @ ../../../components/platform/soc/rt582/rt582_dongle/rt_main.c:279:35
	ldr	r1, [r0]
	orr	r1, r1, #32
	str	r1, [r0]
	.loc	1 280 27                        @ ../../../components/platform/soc/rt582/rt582_dongle/rt_main.c:280:27
	ldr	r1, [r0]
	orr	r1, r1, #128
	str	r1, [r0]
.Ltmp47:
	.loc	1 296 5                         @ ../../../components/platform/soc/rt582/rt582_dongle/rt_main.c:296:5
	bl	uart_stdio_init
.Ltmp48:
	.loc	1 159 5                         @ ../../../components/platform/soc/rt582/rt582_dongle/rt_main.c:159:5
	movw	r6, :lower16:.L.str.8
	movt	r6, :upper16:.L.str.8
	mov	r0, r6
	bl	puts
.Ltmp49:
	.loc	1 160 5                         @ ../../../components/platform/soc/rt582/rt582_dongle/rt_main.c:160:5
	movw	r5, :lower16:.L.str.9
	movt	r5, :upper16:.L.str.9
	mov	r0, r5
	bl	puts
.Ltmp50:
	.loc	1 161 5                         @ ../../../components/platform/soc/rt582/rt582_dongle/rt_main.c:161:5
	movw	r0, :lower16:.L.str.10
	movt	r0, :upper16:.L.str.10
	bl	puts
.Ltmp51:
	.loc	1 162 5                         @ ../../../components/platform/soc/rt582/rt582_dongle/rt_main.c:162:5
	adr	r0, .LCPI9_0
	bl	puts
.Ltmp52:
	.loc	1 163 5                         @ ../../../components/platform/soc/rt582/rt582_dongle/rt_main.c:163:5
	adr	r0, .LCPI9_1
	bl	puts
.Ltmp53:
	.loc	1 164 5                         @ ../../../components/platform/soc/rt582/rt582_dongle/rt_main.c:164:5
	adr	r0, .LCPI9_2
	bl	puts
.Ltmp54:
	.loc	1 165 5                         @ ../../../components/platform/soc/rt582/rt582_dongle/rt_main.c:165:5
	adr	r0, .LCPI9_3
	bl	puts
.Ltmp55:
	.loc	1 166 5                         @ ../../../components/platform/soc/rt582/rt582_dongle/rt_main.c:166:5
	mov	r0, r6
	bl	puts
.Ltmp56:
	.loc	1 168 5                         @ ../../../components/platform/soc/rt582/rt582_dongle/rt_main.c:168:5
	adr	r0, .LCPI9_4
	bl	puts
.Ltmp57:
	.loc	1 169 5                         @ ../../../components/platform/soc/rt582/rt582_dongle/rt_main.c:169:5
	adr	r0, .LCPI9_5
	bl	puts
.Ltmp58:
	.loc	1 170 5                         @ ../../../components/platform/soc/rt582/rt582_dongle/rt_main.c:170:5
	mov	r0, r6
	bl	puts
.Ltmp59:
	.loc	1 172 5                         @ ../../../components/platform/soc/rt582/rt582_dongle/rt_main.c:172:5
	adr	r0, .LCPI9_6
	bl	puts
.Ltmp60:
	.loc	1 173 5                         @ ../../../components/platform/soc/rt582/rt582_dongle/rt_main.c:173:5
	adr	r0, .LCPI9_7
	bl	puts
.Ltmp61:
	.loc	1 174 5                         @ ../../../components/platform/soc/rt582/rt582_dongle/rt_main.c:174:5
	mov	r0, r6
	bl	puts
.Ltmp62:
	.loc	1 175 5                         @ ../../../components/platform/soc/rt582/rt582_dongle/rt_main.c:175:5
	adr	r0, .LCPI9_8
	bl	puts
.Ltmp63:
	.loc	1 176 5                         @ ../../../components/platform/soc/rt582/rt582_dongle/rt_main.c:176:5
	adr	r0, .LCPI9_9
	bl	puts
.Ltmp64:
	.loc	1 177 5                         @ ../../../components/platform/soc/rt582/rt582_dongle/rt_main.c:177:5
	mov	r0, r6
	bl	puts
.Ltmp65:
	.loc	1 179 44                        @ ../../../components/platform/soc/rt582/rt582_dongle/rt_main.c:179:44
	ldr	r1, [r7]
	.loc	1 179 5 is_stmt 0               @ ../../../components/platform/soc/rt582/rt582_dongle/rt_main.c:179:5
	adr	r0, .LCPI9_10
	mov	r2, r4
	bl	__2printf
.Ltmp66:
	.loc	1 183 5 is_stmt 1               @ ../../../components/platform/soc/rt582/rt582_dongle/rt_main.c:183:5
	mov	r0, r5
	bl	puts
.Ltmp67:
	.loc	1 300 5                         @ ../../../components/platform/soc/rt582/rt582_dongle/rt_main.c:300:5
	bl	dma_init
.Ltmp68:
	.loc	1 301 5                         @ ../../../components/platform/soc/rt582/rt582_dongle/rt_main.c:301:5
	bl	enhanced_flash_dataset_init
.Ltmp69:
	.loc	1 314 5                         @ ../../../components/platform/soc/rt582/rt582_dongle/rt_main.c:314:5
	adr	r0, .LCPI9_11
	bl	puts
.Ltmp70:
	.loc	1 0 5 is_stmt 0                 @ ../../../components/platform/soc/rt582/rt582_dongle/rt_main.c:0:5
	movs	r0, #5
.Ltmp71:
	.loc	1 316 10 is_stmt 1              @ ../../../components/platform/soc/rt582/rt582_dongle/rt_main.c:316:10
	str	r0, [sp]
	movw	r0, :lower16:app_main_entry
	movt	r0, :upper16:app_main_entry
	adr	r1, .LCPI9_12
	mov.w	r2, #8192
	movs	r3, #0
	str.w	r8, [sp, #4]
	bl	xTaskCreate
.Ltmp72:
	.loc	1 316 10 is_stmt 0              @ ../../../components/platform/soc/rt582/rt582_dongle/rt_main.c:316:10
	cmp	r0, #1
	@DEBUG_VALUE: rt582_utick_set_clear:TIMER <- undef
	beq	.LBB9_4
.Ltmp73:
@ %bb.3:
	.loc	1 323 9 is_stmt 1               @ ../../../components/platform/soc/rt582/rt582_dongle/rt_main.c:323:9
	movw	r0, :lower16:.L.str.6
	movt	r0, :upper16:.L.str.6
	bl	puts
.Ltmp74:
.LBB9_4:
	.loc	1 326 5                         @ ../../../components/platform/soc/rt582/rt582_dongle/rt_main.c:326:5
	movw	r0, :lower16:.L.str.7
	movt	r0, :upper16:.L.str.7
	bl	puts
.Ltmp75:
	.loc	1 328 5                         @ ../../../components/platform/soc/rt582/rt582_dongle/rt_main.c:328:5
	bl	vTaskStartScheduler
.Ltmp76:
	.p2align	2
.LBB9_5:                                @ =>This Inner Loop Header: Depth=1
	.loc	1 329 5                         @ ../../../components/platform/soc/rt582/rt582_dongle/rt_main.c:329:5
	b	.LBB9_5
.Ltmp77:
	.p2align	2
@ %bb.6:
	.loc	1 0 5 is_stmt 0                 @ ../../../components/platform/soc/rt582/rt582_dongle/rt_main.c:0:5
.LCPI9_0:
.L.str.11:
	.asciz	"SoC: \000\000"
.LCPI9_1:
.L.str.12:
	.asciz	"RT581\000\000"
.LCPI9_2:
.L.str.13:
	.asciz	" Target Board: "
.LCPI9_3:
.L.str.14:
	.asciz	"dongle\000"
.LCPI9_4:
.L.str.15:
	.asciz	"Build Version: "
.LCPI9_5:
.L.str.16:
	.asciz	"1.0.0\000\000"
.LCPI9_6:
.L.str.17:
	.asciz	"Build Date: \000\000\000"
.LCPI9_7:
.L.str.18:
	.asciz	"Apr  2 2024"
.LCPI9_8:
.L.str.19:
	.asciz	"Build Time: \000\000\000"
.LCPI9_9:
.L.str.20:
	.asciz	"15:13:41\000\000\000"
.LCPI9_10:
.L.str.21:
	.asciz	"Heap %u@%p\r\n\000\000\000"
.LCPI9_11:
.L.str.4:
	.asciz	"Starting RT582 now.... \r\n\000\000"
.LCPI9_12:
.L.str.5:
	.asciz	"main\000\000\000"
.Lfunc_end9:
	.size	main, .Lfunc_end9-main
	.cfi_endproc
	.cantunwind
	.fnend
                                        @ -- End function
	.section	.text.app_main_entry,"ax",%progbits
	.p2align	1                               @ -- Begin function app_main_entry
	.type	app_main_entry,%function
	.code	16                              @ @app_main_entry
	.thumb_func
app_main_entry:
.Lfunc_begin10:
	.loc	1 187 0 is_stmt 1               @ ../../../components/platform/soc/rt582/rt582_dongle/rt_main.c:187:0
	.fnstart
	.cfi_startproc
@ %bb.0:
	@DEBUG_VALUE: app_main_entry:pvParameters <- $r0
	.save	{r7, lr}
	push	{r7, lr}
	.cfi_def_cfa_offset 8
	.cfi_offset lr, -4
	.cfi_offset r7, -8
.Ltmp78:
	.loc	1 189 5 prologue_end            @ ../../../components/platform/soc/rt582/rt582_dongle/rt_main.c:189:5
	bl	app_main
.Ltmp79:
	@DEBUG_VALUE: app_main_entry:pvParameters <- [DW_OP_LLVM_entry_value 1] $r0
	.loc	1 190 5                         @ ../../../components/platform/soc/rt582/rt582_dongle/rt_main.c:190:5
	movs	r0, #0
	pop.w	{r7, lr}
.Ltmp80:
	b	vTaskDelete
.Ltmp81:
.Lfunc_end10:
	.size	app_main_entry, .Lfunc_end10-app_main_entry
	.cfi_endproc
	.file	11 "D:\\20240115\\rafael-iot-sdk-das\\examples\\das_subg_thread\\keil" "../../../components/platform/soc/rt582/rt582_freertos/Inc/task.h"
	.cantunwind
	.fnend
                                        @ -- End function
	.hidden	_heap_size                      @ @_heap_size
	.type	_heap_size,%object
	.section	.bss._heap_size,"aw",%nobits
	.globl	_heap_size
	.p2align	2
_heap_size:
	.long	0                               @ 0x0
	.size	_heap_size, 4

	.type	vApplicationGetIdleTaskMemory.xIdleTaskTCB,%object @ @vApplicationGetIdleTaskMemory.xIdleTaskTCB
	.section	.bss.vApplicationGetIdleTaskMemory.xIdleTaskTCB,"aw",%nobits
	.p2align	2
vApplicationGetIdleTaskMemory.xIdleTaskTCB:
	.zero	96
	.size	vApplicationGetIdleTaskMemory.xIdleTaskTCB, 96

	.type	vApplicationGetIdleTaskMemory.uxIdleTaskStack,%object @ @vApplicationGetIdleTaskMemory.uxIdleTaskStack
	.section	.bss.vApplicationGetIdleTaskMemory.uxIdleTaskStack,"aw",%nobits
	.p2align	2
vApplicationGetIdleTaskMemory.uxIdleTaskStack:
	.zero	1024
	.size	vApplicationGetIdleTaskMemory.uxIdleTaskStack, 1024

	.type	vApplicationGetTimerTaskMemory.xTimerTaskTCB,%object @ @vApplicationGetTimerTaskMemory.xTimerTaskTCB
	.section	.bss.vApplicationGetTimerTaskMemory.xTimerTaskTCB,"aw",%nobits
	.p2align	2
vApplicationGetTimerTaskMemory.xTimerTaskTCB:
	.zero	96
	.size	vApplicationGetTimerTaskMemory.xTimerTaskTCB, 96

	.type	vApplicationGetTimerTaskMemory.uxTimerTaskStack,%object @ @vApplicationGetTimerTaskMemory.uxTimerTaskStack
	.section	.bss.vApplicationGetTimerTaskMemory.uxTimerTaskStack,"aw",%nobits
	.p2align	2
vApplicationGetTimerTaskMemory.uxTimerTaskStack:
	.zero	2048
	.size	vApplicationGetTimerTaskMemory.uxTimerTaskStack, 2048

	.type	xHeapRegions,%object            @ @xHeapRegions
	.section	.data.xHeapRegions,"aw",%progbits
	.p2align	2
xHeapRegions:
	.long	Image$$RW_IRAM2_FREERTOS_HEAP_POOL_START$$RO$$Base
	.long	0                               @ 0x0
	.zero	8
	.zero	8
	.zero	8
	.size	xHeapRegions, 32

	.type	.L.str.6,%object                @ @.str.6
	.section	.rodata.str1.1,"aMS",%progbits,1
.L.str.6:
	.asciz	"Task create fail....\r\n"
	.size	.L.str.6, 23

	.type	.L.str.7,%object                @ @.str.7
.L.str.7:
	.asciz	"[OS] Starting OS Scheduler... \r\n"
	.size	.L.str.7, 33

	.type	.L.str.8,%object                @ @.str.8
.L.str.8:
	.asciz	"\r\n"
	.size	.L.str.8, 3

	.type	.L.str.9,%object                @ @.str.9
.L.str.9:
	.asciz	"------------------------------------------------------------\r\n"
	.size	.L.str.9, 63

	.type	.L.str.10,%object               @ @.str.10
.L.str.10:
	.asciz	"ARM Cortex-M3 "
	.size	.L.str.10, 15

	.type	__ARM_use_no_argv,%object       @ @__ARM_use_no_argv
	.section	.ARM.use_no_argv,"aw",%progbits
	.globl	__ARM_use_no_argv
	.p2align	2
__ARM_use_no_argv:
	.long	1                               @ 0x1
	.size	__ARM_use_no_argv, 4

	.globl	_printf_percent
	.globl	_printf_sizespec
	.globl	_printf_s
	.globl	_printf_p
	.globl	_printf_d
	.globl	_printf_u
	.globl	_printf_int_dec
	.globl	_printf_longlong_hex
	.globl	_printf_str
	.globl	__ARM_use_no_argv
	.hidden	_printf_percent
	.hidden	_printf_sizespec
	.hidden	_printf_s
	.hidden	_printf_p
	.hidden	_printf_d
	.hidden	_printf_u
	.hidden	_printf_int_dec
	.hidden	_printf_longlong_hex
	.hidden	_printf_str
	.section	".note.GNU-stack","",%progbits
	.eabi_attribute	30, 3	@ Tag_ABI_optimization_goals
	.ARM_attribute	16, 1	@ Tag_AV_eba