	.text
	.syntax unified
	.eabi_attribute	67, "2.09"	@ Tag_conformance
	.cpu	cortex-m3
	.eabi_attribute	6, 10	@ Tag_CPU_arch
	.eabi_attribute	7, 77	@ Tag_CPU_arch_profile
	.eabi_attribute	8, 0	@ Tag_ARM_ISA_use
	.eabi_attribute	9, 2	@ Tag_THUMB_ISA_use
	.eabi_attribute	34, 1	@ Tag_CPU_unaligned_access
	.eabi_attribute	17, 1	@ Tag_ABI_PCS_GOT_use
	.eabi_attribute	20, 2	@ Tag_ABI_FP_denormal
	.eabi_attribute	21, 0	@ Tag_ABI_FP_exceptions
	.eabi_attribute	23, 1	@ Tag_ABI_FP_number_model
	.eabi_attribute	24, 1	@ Tag_ABI_align_needed
	.eabi_attribute	25, 1	@ Tag_ABI_align_preserved
	.eabi_attribute	38, 1	@ Tag_ABI_FP_16bit_format
	.eabi_attribute	18, 4	@ Tag_ABI_PCS_wchar_t
	.eabi_attribute	26, 2	@ Tag_ABI_enum_size
	.eabi_attribute	14, 0	@ Tag_ABI_PCS_R9_use
	.file	"sha256.c"
	.file	1 "C:\\Keil_v5\\ARM\\ARMCLANG\\Bin\\..\\include" "stdint.h"
	.file	2 "D:\\20240115\\rafael-iot-sdk-das\\examples\\das_subg_thread\\keil" "../../../components/network/thread/subg_openthread/third_party/mbedtls/repo/library/sha256.c"
	.section	.text.mbedtls_sha256_init,"ax",%progbits
	.hidden	mbedtls_sha256_init             @ -- Begin function mbedtls_sha256_init
	.globl	mbedtls_sha256_init
	.p2align	1
	.type	mbedtls_sha256_init,%function
	.code	16                              @ @mbedtls_sha256_init
	.thumb_func
mbedtls_sha256_init:
.Lfunc_begin0:
	.loc	2 54 0                          @ ../../../components/network/thread/subg_openthread/third_party/mbedtls/repo/library/sha256.c:54:0
	.fnstart
	.cfi_sections .debug_frame
	.cfi_startproc
@ %bb.0:
	@DEBUG_VALUE: mbedtls_sha256_init:ctx <- $r0
	@DEBUG_VALUE: mbedtls_sha256_init:ctx <- $r0
	@DEBUG_VALUE: mbedtls_sha256_init:ctx <- $r0
	.save	{r7, lr}
	push	{r7, lr}
	.cfi_def_cfa_offset 8
	.cfi_offset lr, -4
	.cfi_offset r7, -8
.Ltmp0:
	.loc	2 57 5 prologue_end             @ ../../../components/network/thread/subg_openthread/third_party/mbedtls/repo/library/sha256.c:57:5
	movs	r1, #108
	bl	__aeabi_memclr4
.Ltmp1:
	@DEBUG_VALUE: mbedtls_sha256_init:ctx <- [DW_OP_LLVM_entry_value 1] $r0
	.loc	2 58 1                          @ ../../../components/network/thread/subg_openthread/third_party/mbedtls/repo/library/sha256.c:58:1
	pop	{r7, pc}
.Ltmp2:
.Lfunc_end0:
	.size	mbedtls_sha256_init, .Lfunc_end0-mbedtls_sha256_init
	.cfi_endproc
	.cantunwind
	.fnend
                                        @ -- End function
	.section	.text.mbedtls_sha256_free,"ax",%progbits
	.hidden	mbedtls_sha256_free             @ -- Begin function mbedtls_sha256_free
	.globl	mbedtls_sha256_free
	.p2align	1
	.type	mbedtls_sha256_free,%function
	.code	16                              @ @mbedtls_sha256_free
	.thumb_func
mbedtls_sha256_free:
.Lfunc_begin1:
	.loc	2 61 0                          @ ../../../components/network/thread/subg_openthread/third_party/mbedtls/repo/library/sha256.c:61:0
	.fnstart
	.cfi_startproc
@ %bb.0:
	@DEBUG_VALUE: mbedtls_sha256_free:ctx <- $r0
	@DEBUG_VALUE: mbedtls_sha256_free:ctx <- $r0
	.loc	2 62 9 prologue_end             @ ../../../components/network/thread/subg_openthread/third_party/mbedtls/repo/library/sha256.c:62:9
	cmp	r0, #0
	.loc	2 65 5                          @ ../../../components/network/thread/subg_openthread/third_party/mbedtls/repo/library/sha256.c:65:5
	ite	ne
	movne	r1, #108
	.loc	2 66 1                          @ ../../../components/network/thread/subg_openthread/third_party/mbedtls/repo/library/sha256.c:66:1
	bxeq	lr
.Ltmp3:
	.loc	2 65 5                          @ ../../../components/network/thread/subg_openthread/third_party/mbedtls/repo/library/sha256.c:65:5
	b	mbedtls_platform_zeroize
.Ltmp4:
.Lfunc_end1:
	.size	mbedtls_sha256_free, .Lfunc_end1-mbedtls_sha256_free
	.cfi_endproc
	.file	3 "D:\\20240115\\rafael-iot-sdk-das\\examples\\das_subg_thread\\keil" "../../../components/network/thread/subg_openthread/third_party/mbedtls/repo/include\\mbedtls/platform_util.h"
	.cantunwind
	.fnend
                                        @ -- End function
	.section	.text.mbedtls_sha256_clone,"ax",%progbits
	.hidden	mbedtls_sha256_clone            @ -- Begin function mbedtls_sha256_clone
	.globl	mbedtls_sha256_clone
	.p2align	1
	.type	mbedtls_sha256_clone,%function
	.code	16                              @ @mbedtls_sha256_clone
	.thumb_func
mbedtls_sha256_clone:
.Lfunc_begin2:
	.loc	2 70 0                          @ ../../../components/network/thread/subg_openthread/third_party/mbedtls/repo/library/sha256.c:70:0
	.fnstart
	.cfi_startproc
@ %bb.0:
	@DEBUG_VALUE: mbedtls_sha256_clone:dst <- $r0
	@DEBUG_VALUE: mbedtls_sha256_clone:dst <- $r0
	@DEBUG_VALUE: mbedtls_sha256_clone:src <- $r1
	@DEBUG_VALUE: mbedtls_sha256_clone:src <- $r1
	@DEBUG_VALUE: mbedtls_sha256_clone:src <- $r1
	@DEBUG_VALUE: mbedtls_sha256_clone:dst <- $r0
	.save	{r7, lr}
	push	{r7, lr}
	.cfi_def_cfa_offset 8
	.cfi_offset lr, -4
	.cfi_offset r7, -8
.Ltmp5:
	.loc	2 74 12 prologue_end            @ ../../../components/network/thread/subg_openthread/third_party/mbedtls/repo/library/sha256.c:74:12
	movs	r2, #108
	bl	__aeabi_memcpy4
.Ltmp6:
	@DEBUG_VALUE: mbedtls_sha256_clone:src <- [DW_OP_LLVM_entry_value 1] $r1
	@DEBUG_VALUE: mbedtls_sha256_clone:dst <- [DW_OP_LLVM_entry_value 1] $r0
	.loc	2 75 1                          @ ../../../components/network/thread/subg_openthread/third_party/mbedtls/repo/library/sha256.c:75:1
	pop	{r7, pc}
.Ltmp7:
.Lfunc_end2:
	.size	mbedtls_sha256_clone, .Lfunc_end2-mbedtls_sha256_clone
	.cfi_endproc
	.cantunwind
	.fnend
                                        @ -- End function
	.section	.text.mbedtls_sha256_starts_ret,"ax",%progbits
	.hidden	mbedtls_sha256_starts_ret       @ -- Begin function mbedtls_sha256_starts_ret
	.globl	mbedtls_sha256_starts_ret
	.p2align	1
	.type	mbedtls_sha256_starts_ret,%function
	.code	16                              @ @mbedtls_sha256_starts_ret
	.thumb_func
mbedtls_sha256_starts_ret:
.Lfunc_begin3:
	.loc	2 81 0                          @ ../../../components/network/thread/subg_openthread/third_party/mbedtls/repo/library/sha256.c:81:0
	.fnstart
	.cfi_startproc
@ %bb.0:
	@DEBUG_VALUE: mbedtls_sha256_starts_ret:ctx <- $r0
	@DEBUG_VALUE: mbedtls_sha256_starts_ret:is224 <- $r1
	.save	{r4, r5, r6, r7, lr}
	push	{r4, r5, r6, r7, lr}
	.cfi_def_cfa_offset 20
	.cfi_offset lr, -4
	.cfi_offset r7, -8
	.cfi_offset r6, -12
	.cfi_offset r5, -16
	.cfi_offset r4, -20
	mov	r2, r0
	movs	r0, #0
.Ltmp8:
	@DEBUG_VALUE: mbedtls_sha256_starts_ret:ctx <- [DW_OP_LLVM_entry_value 1] $r0
	@DEBUG_VALUE: mbedtls_sha256_starts_ret:is224 <- $r1
	@DEBUG_VALUE: mbedtls_sha256_starts_ret:ctx <- $r2
	.loc	2 85 19 prologue_end            @ ../../../components/network/thread/subg_openthread/third_party/mbedtls/repo/library/sha256.c:85:19
	str	r0, [r2]
	.loc	2 86 19                         @ ../../../components/network/thread/subg_openthread/third_party/mbedtls/repo/library/sha256.c:86:19
	str	r0, [r2, #4]
	.loc	2 88 9                          @ ../../../components/network/thread/subg_openthread/third_party/mbedtls/repo/library/sha256.c:88:9
	cbz	r1, .LBB3_2
.Ltmp9:
@ %bb.1:
	@DEBUG_VALUE: mbedtls_sha256_starts_ret:ctx <- $r2
	@DEBUG_VALUE: mbedtls_sha256_starts_ret:is224 <- $r1
	.loc	2 0 9 is_stmt 0                 @ ../../../components/network/thread/subg_openthread/third_party/mbedtls/repo/library/sha256.c:0:9
	movw	r12, #20388
	movw	lr, #36775
	movw	r0, #5393
	movw	r3, #2865
	movw	r4, #22841
	movw	r5, #56599
	movw	r6, #54535
	movw	r7, #40664
	movt	r12, #48890
	movt	lr, #25849
	movt	r0, #26712
	movt	r3, #65472
	movt	r4, #63246
	movt	r5, #12400
	movt	r6, #13948
	movt	r7, #49413
	b	.LBB3_3
.Ltmp10:
.LBB3_2:
	@DEBUG_VALUE: mbedtls_sha256_starts_ret:ctx <- $r2
	@DEBUG_VALUE: mbedtls_sha256_starts_ret:is224 <- $r1
	movw	r12, #52505
	movw	lr, #55723
	movw	r0, #26764
	movw	r3, #21119
	movw	r4, #62778
	movw	r5, #62322
	movw	r6, #44677
	movw	r7, #58983
	movt	r12, #23520
	movt	lr, #8067
	movt	r0, #39685
	movt	r3, #20750
	movt	r4, #42319
	movt	r5, #15470
	movt	r6, #47975
	movt	r7, #27145
.Ltmp11:
.LBB3_3:
	@DEBUG_VALUE: mbedtls_sha256_starts_ret:ctx <- $r2
	@DEBUG_VALUE: mbedtls_sha256_starts_ret:is224 <- $r1
	.loc	2 95 23 is_stmt 1               @ ../../../components/network/thread/subg_openthread/third_party/mbedtls/repo/library/sha256.c:95:23
	strd	r3, r0, [r2, #24]
.Ltmp12:
	.loc	2 115 5                         @ ../../../components/network/thread/subg_openthread/third_party/mbedtls/repo/library/sha256.c:115:5
	movs	r0, #0
.Ltmp13:
	.loc	2 91 23                         @ ../../../components/network/thread/subg_openthread/third_party/mbedtls/repo/library/sha256.c:91:23
	strd	r7, r6, [r2, #8]
	.loc	2 93 23                         @ ../../../components/network/thread/subg_openthread/third_party/mbedtls/repo/library/sha256.c:93:23
	strd	r5, r4, [r2, #16]
	.loc	2 97 23                         @ ../../../components/network/thread/subg_openthread/third_party/mbedtls/repo/library/sha256.c:97:23
	strd	lr, r12, [r2, #32]
.Ltmp14:
	.loc	2 113 16                        @ ../../../components/network/thread/subg_openthread/third_party/mbedtls/repo/library/sha256.c:113:16
	str	r1, [r2, #104]
	.loc	2 115 5                         @ ../../../components/network/thread/subg_openthread/third_party/mbedtls/repo/library/sha256.c:115:5
	pop	{r4, r5, r6, r7, pc}
.Ltmp15:
.Lfunc_end3:
	.size	mbedtls_sha256_starts_ret, .Lfunc_end3-mbedtls_sha256_starts_ret
	.cfi_endproc
	.cantunwind
	.fnend
                                        @ -- End function
	.section	.text.mbedtls_sha256_starts,"ax",%progbits
	.hidden	mbedtls_sha256_starts           @ -- Begin function mbedtls_sha256_starts
	.globl	mbedtls_sha256_starts
	.p2align	1
	.type	mbedtls_sha256_starts,%function
	.code	16                              @ @mbedtls_sha256_starts
	.thumb_func
mbedtls_sha256_starts:
.Lfunc_begin4:
	.loc	2 121 0                         @ ../../../components/network/thread/subg_openthread/third_party/mbedtls/repo/library/sha256.c:121:0
	.fnstart
	.cfi_startproc
@ %bb.0:
	@DEBUG_VALUE: mbedtls_sha256_starts:ctx <- $r0
	@DEBUG_VALUE: mbedtls_sha256_starts:is224 <- $r1
	@DEBUG_VALUE: mbedtls_sha256_starts_ret:ctx <- $r0
	@DEBUG_VALUE: mbedtls_sha256_starts_ret:is224 <- $r1
	.save	{r4, r5, r6, r7, lr}
	push	{r4, r5, r6, r7, lr}
	.cfi_def_cfa_offset 20
	.cfi_offset lr, -4
	.cfi_offset r7, -8
	.cfi_offset r6, -12
	.cfi_offset r5, -16
	.cfi_offset r4, -20
	movs	r2, #0
	@DEBUG_VALUE: mbedtls_sha256_starts_ret:is224 <- $r1
	@DEBUG_VALUE: mbedtls_sha256_starts_ret:ctx <- $r0
	@DEBUG_VALUE: mbedtls_sha256_starts:is224 <- $r1
	@DEBUG_VALUE: mbedtls_sha256_starts:ctx <- $r0
.Ltmp16:
	.loc	2 85 19 prologue_end            @ ../../../components/network/thread/subg_openthread/third_party/mbedtls/repo/library/sha256.c:85:19
	str	r2, [r0]
	.loc	2 86 19                         @ ../../../components/network/thread/subg_openthread/third_party/mbedtls/repo/library/sha256.c:86:19
	str	r2, [r0, #4]
	.loc	2 88 9                          @ ../../../components/network/thread/subg_openthread/third_party/mbedtls/repo/library/sha256.c:88:9
	cbz	r1, .LBB4_2
.Ltmp17:
@ %bb.1:
	@DEBUG_VALUE: mbedtls_sha256_starts_ret:is224 <- $r1
	@DEBUG_VALUE: mbedtls_sha256_starts:is224 <- $r1
	@DEBUG_VALUE: mbedtls_sha256_starts_ret:ctx <- $r0
	@DEBUG_VALUE: mbedtls_sha256_starts:ctx <- $r0
	.loc	2 0 9 is_stmt 0                 @ ../../../components/network/thread/subg_openthread/third_party/mbedtls/repo/library/sha256.c:0:9
	movw	r12, #20388
	movw	lr, #36775
	movw	r2, #5393
	movw	r3, #2865
	movw	r4, #22841
	movw	r5, #56599
	movw	r6, #54535
	movw	r7, #40664
	movt	r12, #48890
	movt	lr, #25849
	movt	r2, #26712
	movt	r3, #65472
	movt	r4, #63246
	movt	r5, #12400
	movt	r6, #13948
	movt	r7, #49413
	b	.LBB4_3
.Ltmp18:
.LBB4_2:
	@DEBUG_VALUE: mbedtls_sha256_starts_ret:is224 <- $r1
	@DEBUG_VALUE: mbedtls_sha256_starts:is224 <- $r1
	@DEBUG_VALUE: mbedtls_sha256_starts_ret:ctx <- $r0
	@DEBUG_VALUE: mbedtls_sha256_starts:ctx <- $r0
	movw	r12, #52505
	movw	lr, #55723
	movw	r2, #26764
	movw	r3, #21119
	movw	r4, #62778
	movw	r5, #62322
	movw	r6, #44677
	movw	r7, #58983
	movt	r12, #23520
	movt	lr, #8067
	movt	r2, #39685
	movt	r3, #20750
	movt	r4, #42319
	movt	r5, #15470
	movt	r6, #47975
	movt	r7, #27145
.Ltmp19:
.LBB4_3:
	@DEBUG_VALUE: mbedtls_sha256_starts_ret:is224 <- $r1
	@DEBUG_VALUE: mbedtls_sha256_starts:is224 <- $r1
	@DEBUG_VALUE: mbedtls_sha256_starts_ret:ctx <- $r0
	@DEBUG_VALUE: mbedtls_sha256_starts:ctx <- $r0
	.loc	2 91 23 is_stmt 1               @ ../../../components/network/thread/subg_openthread/third_party/mbedtls/repo/library/sha256.c:91:23
	strd	r7, r6, [r0, #8]
	.loc	2 93 23                         @ ../../../components/network/thread/subg_openthread/third_party/mbedtls/repo/library/sha256.c:93:23
	strd	r5, r4, [r0, #16]
	.loc	2 95 23                         @ ../../../components/network/thread/subg_openthread/third_party/mbedtls/repo/library/sha256.c:95:23
	strd	r3, r2, [r0, #24]
	.loc	2 97 23                         @ ../../../components/network/thread/subg_openthread/third_party/mbedtls/repo/library/sha256.c:97:23
	strd	lr, r12, [r0, #32]
.Ltmp20:
	.loc	2 113 16                        @ ../../../components/network/thread/subg_openthread/third_party/mbedtls/repo/library/sha256.c:113:16
	str	r1, [r0, #104]
.Ltmp21:
	.loc	2 123 1                         @ ../../../components/network/thread/subg_openthread/third_party/mbedtls/repo/library/sha256.c:123:1
	pop	{r4, r5, r6, r7, pc}
.Ltmp22:
.Lfunc_end4:
	.size	mbedtls_sha256_starts, .Lfunc_end4-mbedtls_sha256_starts
	.cfi_endproc
	.file	4 "D:\\20240115\\rafael-iot-sdk-das\\examples\\das_subg_thread\\keil" "../../../components/network/thread/subg_openthread/third_party/mbedtls/repo/include\\mbedtls/sha256.h"
	.cantunwind
	.fnend
                                        @ -- End function
	.section	.text.mbedtls_internal_sha256_process,"ax",%progbits
	.hidden	mbedtls_internal_sha256_process @ -- Begin function mbedtls_internal_sha256_process
	.globl	mbedtls_internal_sha256_process
	.p2align	1
	.type	mbedtls_internal_sha256_process,%function
	.code	16                              @ @mbedtls_internal_sha256_process
	.thumb_func
mbedtls_internal_sha256_process:
.Lfunc_begin5:
	.loc	2 175 0                         @ ../../../components/network/thread/subg_openthread/third_party/mbedtls/repo/library/sha256.c:175:0
	.fnstart
	.cfi_startproc
@ %bb.0:
	@DEBUG_VALUE: mbedtls_internal_sha256_process:ctx <- $r0
	@DEBUG_VALUE: mbedtls_internal_sha256_process:data <- $r1
	.save	{r4, r5, r6, r7, r8, r9, r10, r11, lr}
	push.w	{r4, r5, r6, r7, r8, r9, r10, r11, lr}
	.cfi_def_cfa_offset 36
	.cfi_offset lr, -4
	.cfi_offset r11, -8
	.cfi_offset r10, -12
	.cfi_offset r9, -16
	.cfi_offset r8, -20
	.cfi_offset r7, -24
	.cfi_offset r6, -28
	.cfi_offset r5, -32
	.cfi_offset r4, -36
	.pad	#308
	sub	sp, #308
	.cfi_def_cfa_offset 344
.Ltmp23:
	.loc	2 188 20 prologue_end           @ ../../../components/network/thread/subg_openthread/third_party/mbedtls/repo/library/sha256.c:188:20
	add.w	r6, r0, #8
	ldm	r6, {r2, r3, r6}
	ldrd	r5, r4, [r0, #20]
	ldrd	r12, lr, [r0, #28]
	str	r0, [sp, #4]                    @ 4-byte Spill
.Ltmp24:
	@DEBUG_VALUE: mbedtls_internal_sha256_process:ctx <- [DW_OP_plus_uconst 4] [$sp+0]
	ldr	r7, [r0, #36]
	add	r0, sp, #276
	stm	r0!, {r2, r3, r6}
	add	r0, sp, #12
.Ltmp25:
	.loc	2 191 5                         @ ../../../components/network/thread/subg_openthread/third_party/mbedtls/repo/library/sha256.c:191:5
	add.w	r8, r0, #8
	movs	r2, #0
	mov.w	r11, #0
	str	r1, [sp, #8]                    @ 4-byte Spill
.Ltmp26:
	@DEBUG_VALUE: mbedtls_internal_sha256_process:data <- [DW_OP_plus_uconst 8] [$sp+0]
	@DEBUG_VALUE: mbedtls_internal_sha256_process:i <- 0
	@DEBUG_VALUE: mbedtls_internal_sha256_process:data <- [DW_OP_plus_uconst 8] [$sp+0]
	@DEBUG_VALUE: mbedtls_internal_sha256_process:ctx <- $r0
	.loc	2 188 20                        @ ../../../components/network/thread/subg_openthread/third_party/mbedtls/repo/library/sha256.c:188:20
	strd	r5, r4, [sp, #288]
	strd	r12, lr, [sp, #296]
	str	r7, [sp, #304]
.Ltmp27:
	.p2align	2
.LBB5_1:                                @ =>This Inner Loop Header: Depth=1
	@DEBUG_VALUE: mbedtls_internal_sha256_process:data <- [DW_OP_plus_uconst 8] [$sp+0]
	@DEBUG_VALUE: mbedtls_internal_sha256_process:i <- $r11
	.loc	2 193 13                        @ ../../../components/network/thread/subg_openthread/third_party/mbedtls/repo/library/sha256.c:193:13
	cmp.w	r11, #15
	bhi	.LBB5_3
.Ltmp28:
@ %bb.2:                                @   in Loop: Header=BB5_1 Depth=1
	@DEBUG_VALUE: mbedtls_internal_sha256_process:i <- $r11
	@DEBUG_VALUE: mbedtls_internal_sha256_process:data <- [DW_OP_plus_uconst 8] [$sp+0]
	.loc	2 194 26                        @ ../../../components/network/thread/subg_openthread/third_party/mbedtls/repo/library/sha256.c:194:26
	ldr	r0, [sp, #8]                    @ 4-byte Reload
	ldr	r5, [r0, r2]
	rev.w	r9, r5
	b	.LBB5_4
.Ltmp29:
	.p2align	2
.LBB5_3:                                @   in Loop: Header=BB5_1 Depth=1
	@DEBUG_VALUE: mbedtls_internal_sha256_process:i <- $r11
	@DEBUG_VALUE: mbedtls_internal_sha256_process:data <- [DW_OP_plus_uconst 8] [$sp+0]
	.loc	2 196 13                        @ ../../../components/network/thread/subg_openthread/third_party/mbedtls/repo/library/sha256.c:196:13
	add	r0, sp, #12
	ldr	r5, [r0, r2]
	ror.w	r6, r5, #17
	eor.w	r6, r6, r5, ror #19
	eor.w	r5, r6, r5, lsr #10
	add.w	r6, r8, r2
	ldr	r3, [r6, #-28]
	ldrd	r7, r6, [r6, #-64]
	add	r3, r5
	ror.w	r5, r6, #7
	eor.w	r5, r5, r6, ror #18
	eor.w	r5, r5, r6, lsr #3
	add	r3, r7
	add.w	r9, r3, r5
.Ltmp30:
.LBB5_4:                                @   in Loop: Header=BB5_1 Depth=1
	@DEBUG_VALUE: mbedtls_internal_sha256_process:i <- $r11
	@DEBUG_VALUE: mbedtls_internal_sha256_process:data <- [DW_OP_plus_uconst 8] [$sp+0]
	.loc	2 194 24                        @ ../../../components/network/thread/subg_openthread/third_party/mbedtls/repo/library/sha256.c:194:24
	str.w	r9, [r8, r2]
.Ltmp31:
	.loc	2 198 9                         @ ../../../components/network/thread/subg_openthread/third_party/mbedtls/repo/library/sha256.c:198:9
	ldr	r5, [sp, #292]
	movw	r0, :lower16:K
	ror.w	r7, r5, #6
	ldr	r6, [sp, #304]
	eor.w	r7, r7, r5, ror #11
	ldrd	r10, r3, [sp, #296]
	movt	r0, :upper16:K
	eor.w	r7, r7, r5, ror #25
	ldr	r4, [r0, r2]
	add	r6, r7
	eor.w	r7, r10, r3
	ands	r7, r5
	add	r4, r6
	eors	r7, r3
	add	r4, r9
	adds	r6, r4, r7
	ldrd	r7, r4, [sp, #276]
	ldrd	r9, r12, [sp, #284]
	ror.w	lr, r7, #2
	eor.w	r0, lr, r7, ror #13
	eor.w	lr, r0, r7, ror #22
	orr.w	r0, r4, r7
	and.w	r1, r4, r7
	and.w	r0, r0, r9
	orrs	r0, r1
	add	r0, lr
.Ltmp32:
	.loc	2 191 19                        @ ../../../components/network/thread/subg_openthread/third_party/mbedtls/repo/library/sha256.c:191:19
	adds	r2, #4
.Ltmp33:
	.loc	2 198 9                         @ ../../../components/network/thread/subg_openthread/third_party/mbedtls/repo/library/sha256.c:198:9
	str	r0, [sp, #16]
	add.w	r1, r12, r6
	add	r6, r0
.Ltmp34:
	.loc	2 203 20                        @ ../../../components/network/thread/subg_openthread/third_party/mbedtls/repo/library/sha256.c:203:20
	add	r0, sp, #292
.Ltmp35:
	.loc	2 191 5                         @ ../../../components/network/thread/subg_openthread/third_party/mbedtls/repo/library/sha256.c:191:5
	cmp.w	r2, #256
.Ltmp36:
	.loc	2 191 26 is_stmt 0              @ ../../../components/network/thread/subg_openthread/third_party/mbedtls/repo/library/sha256.c:191:26
	add.w	r11, r11, #1
.Ltmp37:
	@DEBUG_VALUE: mbedtls_internal_sha256_process:i <- $r11
	.loc	2 201 21 is_stmt 1              @ ../../../components/network/thread/subg_openthread/third_party/mbedtls/repo/library/sha256.c:201:21
	str	r6, [sp, #12]
	.loc	2 201 46 is_stmt 0              @ ../../../components/network/thread/subg_openthread/third_party/mbedtls/repo/library/sha256.c:201:46
	str	r3, [sp, #304]
	.loc	2 203 20 is_stmt 1              @ ../../../components/network/thread/subg_openthread/third_party/mbedtls/repo/library/sha256.c:203:20
	stm.w	r0, {r1, r5, r10}
	.loc	2 204 20                        @ ../../../components/network/thread/subg_openthread/third_party/mbedtls/repo/library/sha256.c:204:20
	strd	r4, r9, [sp, #284]
	.loc	2 205 20                        @ ../../../components/network/thread/subg_openthread/third_party/mbedtls/repo/library/sha256.c:205:20
	strd	r6, r7, [sp, #276]
.Ltmp38:
	.loc	2 191 5                         @ ../../../components/network/thread/subg_openthread/third_party/mbedtls/repo/library/sha256.c:191:5
	bne	.LBB5_1
.Ltmp39:
@ %bb.5:
	@DEBUG_VALUE: mbedtls_internal_sha256_process:i <- $r11
	@DEBUG_VALUE: mbedtls_internal_sha256_process:data <- [DW_OP_plus_uconst 8] [$sp+0]
	@DEBUG_VALUE: mbedtls_internal_sha256_process:i <- 0
	.loc	2 0 5 is_stmt 0                 @ ../../../components/network/thread/subg_openthread/third_party/mbedtls/repo/library/sha256.c:0:5
	ldr	r1, [sp, #4]                    @ 4-byte Reload
	movs	r2, #0
.Ltmp40:
	.loc	2 253 23 is_stmt 1              @ ../../../components/network/thread/subg_openthread/third_party/mbedtls/repo/library/sha256.c:253:23
	ldr	r0, [r1, #8]
	add	r0, r6
	str	r0, [r1, #8]
.Ltmp41:
	@DEBUG_VALUE: mbedtls_internal_sha256_process:i <- 1
	.loc	2 252 5                         @ ../../../components/network/thread/subg_openthread/third_party/mbedtls/repo/library/sha256.c:252:5
	add.w	r0, r1, #12
	add	r1, sp, #12
	add.w	r1, r1, #268
.Ltmp42:
	.p2align	2
.LBB5_6:                                @ =>This Inner Loop Header: Depth=1
	@DEBUG_VALUE: mbedtls_internal_sha256_process:data <- [DW_OP_plus_uconst 8] [$sp+0]
	.loc	2 253 26                        @ ../../../components/network/thread/subg_openthread/third_party/mbedtls/repo/library/sha256.c:253:26
	ldr.w	r3, [r1, r2, lsl #2]
.Ltmp43:
	@DEBUG_VALUE: mbedtls_internal_sha256_process:i <- [DW_OP_plus_uconst 1, DW_OP_stack_value] $r2
	.loc	2 253 23 is_stmt 0              @ ../../../components/network/thread/subg_openthread/third_party/mbedtls/repo/library/sha256.c:253:23
	ldr.w	r7, [r0, r2, lsl #2]
	add	r3, r7
	str.w	r3, [r0, r2, lsl #2]
.Ltmp44:
	@DEBUG_VALUE: mbedtls_internal_sha256_process:i <- [DW_OP_plus_uconst 2, DW_OP_stack_value] $r2
	.loc	2 252 19 is_stmt 1              @ ../../../components/network/thread/subg_openthread/third_party/mbedtls/repo/library/sha256.c:252:19
	adds	r2, #1
.Ltmp45:
	.loc	2 252 5 is_stmt 0               @ ../../../components/network/thread/subg_openthread/third_party/mbedtls/repo/library/sha256.c:252:5
	cmp	r2, #7
	bne	.LBB5_6
.Ltmp46:
@ %bb.7:
	@DEBUG_VALUE: mbedtls_internal_sha256_process:data <- [DW_OP_plus_uconst 8] [$sp+0]
	.loc	2 0 5                           @ ../../../components/network/thread/subg_openthread/third_party/mbedtls/repo/library/sha256.c:0:5
	add	r0, sp, #12
	.loc	2 256 5 is_stmt 1               @ ../../../components/network/thread/subg_openthread/third_party/mbedtls/repo/library/sha256.c:256:5
	mov.w	r1, #296
	bl	mbedtls_platform_zeroize
.Ltmp47:
	.loc	2 258 5                         @ ../../../components/network/thread/subg_openthread/third_party/mbedtls/repo/library/sha256.c:258:5
	movs	r0, #0
	add	sp, #308
	pop.w	{r4, r5, r6, r7, r8, r9, r10, r11, pc}
.Ltmp48:
.Lfunc_end5:
	.size	mbedtls_internal_sha256_process, .Lfunc_end5-mbedtls_internal_sha256_process
	.cfi_endproc
	.cantunwind
	.fnend
                                        @ -- End function
	.section	.text.mbedtls_sha256_process,"ax",%progbits
	.hidden	mbedtls_sha256_process          @ -- Begin function mbedtls_sha256_process
	.globl	mbedtls_sha256_process
	.p2align	1
	.type	mbedtls_sha256_process,%function
	.code	16                              @ @mbedtls_sha256_process
	.thumb_func
mbedtls_sha256_process:
.Lfunc_begin6:
	.loc	2 264 0                         @ ../../../components/network/thread/subg_openthread/third_party/mbedtls/repo/library/sha256.c:264:0
	.fnstart
	.cfi_startproc
@ %bb.0:
	@DEBUG_VALUE: mbedtls_sha256_process:ctx <- $r0
	@DEBUG_VALUE: mbedtls_sha256_process:ctx <- $r0
	@DEBUG_VALUE: mbedtls_sha256_process:ctx <- $r0
	@DEBUG_VALUE: mbedtls_sha256_process:data <- $r1
	@DEBUG_VALUE: mbedtls_sha256_process:data <- $r1
	@DEBUG_VALUE: mbedtls_sha256_process:data <- $r1
	.loc	2 265 5 prologue_end            @ ../../../components/network/thread/subg_openthread/third_party/mbedtls/repo/library/sha256.c:265:5
	b	mbedtls_internal_sha256_process
.Ltmp49:
.Lfunc_end6:
	.size	mbedtls_sha256_process, .Lfunc_end6-mbedtls_sha256_process
	.cfi_endproc
	.cantunwind
	.fnend
                                        @ -- End function
	.section	.text.mbedtls_sha256_update_ret,"ax",%progbits
	.hidden	mbedtls_sha256_update_ret       @ -- Begin function mbedtls_sha256_update_ret
	.globl	mbedtls_sha256_update_ret
	.p2align	1
	.type	mbedtls_sha256_update_ret,%function
	.code	16                              @ @mbedtls_sha256_update_ret
	.thumb_func
mbedtls_sha256_update_ret:
.Lfunc_begin7:
	.loc	2 276 0                         @ ../../../components/network/thread/subg_openthread/third_party/mbedtls/repo/library/sha256.c:276:0
	.fnstart
	.cfi_startproc
@ %bb.0:
	@DEBUG_VALUE: mbedtls_sha256_update_ret:ctx <- $r0
	@DEBUG_VALUE: mbedtls_sha256_update_ret:input <- $r1
	@DEBUG_VALUE: mbedtls_sha256_update_ret:ilen <- $r2
	@DEBUG_VALUE: mbedtls_sha256_update_ret:ilen <- $r2
	@DEBUG_VALUE: mbedtls_sha256_update_ret:input <- $r1
	.save	{r4, r5, r6, r7, r8, r9, lr}
	push.w	{r4, r5, r6, r7, r8, r9, lr}
	.cfi_def_cfa_offset 28
	.cfi_offset lr, -4
	.cfi_offset r9, -8
	.cfi_offset r8, -12
	.cfi_offset r7, -16
	.cfi_offset r6, -20
	.cfi_offset r5, -24
	.cfi_offset r4, -28
	.pad	#4
	sub	sp, #4
	.cfi_def_cfa_offset 32
.Ltmp50:
	@DEBUG_VALUE: mbedtls_sha256_update_ret:ret <- -110
	@DEBUG_VALUE: mbedtls_sha256_update_ret:ctx <- $r0
	.loc	2 284 9 prologue_end            @ ../../../components/network/thread/subg_openthread/third_party/mbedtls/repo/library/sha256.c:284:9
	cbz	r2, .LBB7_11
.Ltmp51:
@ %bb.1:
	@DEBUG_VALUE: mbedtls_sha256_update_ret:ilen <- $r2
	@DEBUG_VALUE: mbedtls_sha256_update_ret:input <- $r1
	@DEBUG_VALUE: mbedtls_sha256_update_ret:ctx <- $r0
	@DEBUG_VALUE: mbedtls_sha256_update_ret:ret <- -110
	.loc	2 0 9 is_stmt 0                 @ ../../../components/network/thread/subg_openthread/third_party/mbedtls/repo/library/sha256.c:0:9
	mov	r6, r0
.Ltmp52:
	@DEBUG_VALUE: mbedtls_sha256_update_ret:ctx <- $r6
	.loc	2 287 12 is_stmt 1              @ ../../../components/network/thread/subg_openthread/third_party/mbedtls/repo/library/sha256.c:287:12
	ldr	r0, [r0]
	mov	r4, r2
.Ltmp53:
	@DEBUG_VALUE: mbedtls_sha256_update_ret:ilen <- $r4
	.loc	2 0 12 is_stmt 0                @ ../../../components/network/thread/subg_openthread/third_party/mbedtls/repo/library/sha256.c:0:12
	mov	r5, r1
.Ltmp54:
	@DEBUG_VALUE: mbedtls_sha256_update_ret:input <- $r5
	@DEBUG_VALUE: mbedtls_sha256_update_ret:input <- $r5
	.loc	2 287 26                        @ ../../../components/network/thread/subg_openthread/third_party/mbedtls/repo/library/sha256.c:287:26
	and	r9, r0, #63
.Ltmp55:
	@DEBUG_VALUE: mbedtls_sha256_update_ret:fill <- undef
	@DEBUG_VALUE: mbedtls_sha256_update_ret:left <- $r9
	.loc	2 290 19 is_stmt 1              @ ../../../components/network/thread/subg_openthread/third_party/mbedtls/repo/library/sha256.c:290:19
	adds	r0, r0, r2
	.loc	2 291 19                        @ ../../../components/network/thread/subg_openthread/third_party/mbedtls/repo/library/sha256.c:291:19
	str	r0, [r6]
	.loc	2 293 9                         @ ../../../components/network/thread/subg_openthread/third_party/mbedtls/repo/library/sha256.c:293:9
	blo	.LBB7_3
.Ltmp56:
@ %bb.2:
	@DEBUG_VALUE: mbedtls_sha256_update_ret:left <- $r9
	@DEBUG_VALUE: mbedtls_sha256_update_ret:ctx <- $r6
	@DEBUG_VALUE: mbedtls_sha256_update_ret:input <- $r5
	@DEBUG_VALUE: mbedtls_sha256_update_ret:ilen <- $r4
	@DEBUG_VALUE: mbedtls_sha256_update_ret:ret <- -110
	.loc	2 294 22                        @ ../../../components/network/thread/subg_openthread/third_party/mbedtls/repo/library/sha256.c:294:22
	ldr	r0, [r6, #4]
	adds	r0, #1
	str	r0, [r6, #4]
.Ltmp57:
.LBB7_3:
	@DEBUG_VALUE: mbedtls_sha256_update_ret:left <- $r9
	@DEBUG_VALUE: mbedtls_sha256_update_ret:ctx <- $r6
	@DEBUG_VALUE: mbedtls_sha256_update_ret:input <- $r5
	@DEBUG_VALUE: mbedtls_sha256_update_ret:ilen <- $r4
	@DEBUG_VALUE: mbedtls_sha256_update_ret:ret <- -110
	@DEBUG_VALUE: mbedtls_sha256_update_ret:fill <- undef
	.loc	2 296 14                        @ ../../../components/network/thread/subg_openthread/third_party/mbedtls/repo/library/sha256.c:296:14
	cmp.w	r9, #0
	beq	.LBB7_6
.Ltmp58:
@ %bb.4:
	@DEBUG_VALUE: mbedtls_sha256_update_ret:left <- $r9
	@DEBUG_VALUE: mbedtls_sha256_update_ret:ctx <- $r6
	@DEBUG_VALUE: mbedtls_sha256_update_ret:input <- $r5
	@DEBUG_VALUE: mbedtls_sha256_update_ret:ilen <- $r4
	@DEBUG_VALUE: mbedtls_sha256_update_ret:ret <- -110
	.loc	2 0 14 is_stmt 0                @ ../../../components/network/thread/subg_openthread/third_party/mbedtls/repo/library/sha256.c:0:14
	rsb.w	r7, r9, #64
.Ltmp59:
	@DEBUG_VALUE: mbedtls_sha256_update_ret:fill <- $r7
	.loc	2 296 9                         @ ../../../components/network/thread/subg_openthread/third_party/mbedtls/repo/library/sha256.c:296:9
	cmp	r7, r4
	bhi	.LBB7_7
.Ltmp60:
@ %bb.5:
	@DEBUG_VALUE: mbedtls_sha256_update_ret:left <- $r9
	@DEBUG_VALUE: mbedtls_sha256_update_ret:fill <- $r7
	@DEBUG_VALUE: mbedtls_sha256_update_ret:ctx <- $r6
	@DEBUG_VALUE: mbedtls_sha256_update_ret:input <- $r5
	@DEBUG_VALUE: mbedtls_sha256_update_ret:ilen <- $r4
	@DEBUG_VALUE: mbedtls_sha256_update_ret:ret <- -110
	.loc	2 298 27 is_stmt 1              @ ../../../components/network/thread/subg_openthread/third_party/mbedtls/repo/library/sha256.c:298:27
	add.w	r8, r6, #40
	.loc	2 298 39 is_stmt 0              @ ../../../components/network/thread/subg_openthread/third_party/mbedtls/repo/library/sha256.c:298:39
	add.w	r0, r8, r9
	.loc	2 298 9                         @ ../../../components/network/thread/subg_openthread/third_party/mbedtls/repo/library/sha256.c:298:9
	mov	r1, r5
	mov	r2, r7
	bl	__aeabi_memcpy
.Ltmp61:
	.loc	2 300 21 is_stmt 1              @ ../../../components/network/thread/subg_openthread/third_party/mbedtls/repo/library/sha256.c:300:21
	mov	r0, r6
	mov	r1, r8
	bl	mbedtls_internal_sha256_process
.Ltmp62:
	@DEBUG_VALUE: mbedtls_sha256_update_ret:ret <- 0
	.loc	2 303 15                        @ ../../../components/network/thread/subg_openthread/third_party/mbedtls/repo/library/sha256.c:303:15
	add	r5, r7
.Ltmp63:
	@DEBUG_VALUE: mbedtls_sha256_update_ret:input <- [DW_OP_LLVM_entry_value 1] $r1
	@DEBUG_VALUE: mbedtls_sha256_update_ret:input <- $r5
	.loc	2 304 15                        @ ../../../components/network/thread/subg_openthread/third_party/mbedtls/repo/library/sha256.c:304:15
	subs	r4, r4, r7
.Ltmp64:
	@DEBUG_VALUE: mbedtls_sha256_update_ret:ilen <- [DW_OP_LLVM_entry_value 1] $r2
	@DEBUG_VALUE: mbedtls_sha256_update_ret:ilen <- $r4
.LBB7_6:
	@DEBUG_VALUE: mbedtls_sha256_update_ret:left <- $r9
	@DEBUG_VALUE: mbedtls_sha256_update_ret:ctx <- $r6
	@DEBUG_VALUE: mbedtls_sha256_update_ret:input <- $r5
	@DEBUG_VALUE: mbedtls_sha256_update_ret:ilen <- $r4
	.loc	2 0 15 is_stmt 0                @ ../../../components/network/thread/subg_openthread/third_party/mbedtls/repo/library/sha256.c:0:15
	mov.w	r9, #0
.Ltmp65:
	@DEBUG_VALUE: mbedtls_sha256_update_ret:left <- 0
.LBB7_7:
	@DEBUG_VALUE: mbedtls_sha256_update_ret:ctx <- $r6
	@DEBUG_VALUE: mbedtls_sha256_update_ret:input <- $r5
	@DEBUG_VALUE: mbedtls_sha256_update_ret:ilen <- $r4
	@DEBUG_VALUE: mbedtls_sha256_update_ret:input <- $r5
	@DEBUG_VALUE: mbedtls_sha256_update_ret:ilen <- $r4
	@DEBUG_VALUE: mbedtls_sha256_update_ret:left <- $r9
	.loc	2 308 5 is_stmt 1               @ ../../../components/network/thread/subg_openthread/third_party/mbedtls/repo/library/sha256.c:308:5
	cmp	r4, #64
	blo	.LBB7_9
.Ltmp66:
	.p2align	2
.LBB7_8:                                @ =>This Inner Loop Header: Depth=1
	@DEBUG_VALUE: mbedtls_sha256_update_ret:left <- $r9
	@DEBUG_VALUE: mbedtls_sha256_update_ret:ctx <- $r6
	@DEBUG_VALUE: mbedtls_sha256_update_ret:input <- $r5
	@DEBUG_VALUE: mbedtls_sha256_update_ret:ilen <- $r4
	@DEBUG_VALUE: mbedtls_sha256_update_ret:input <- $r5
	@DEBUG_VALUE: mbedtls_sha256_update_ret:ilen <- $r4
	.loc	2 310 21                        @ ../../../components/network/thread/subg_openthread/third_party/mbedtls/repo/library/sha256.c:310:21
	mov	r0, r6
	mov	r1, r5
	bl	mbedtls_internal_sha256_process
.Ltmp67:
	@DEBUG_VALUE: mbedtls_sha256_update_ret:ret <- 0
	.loc	2 314 15                        @ ../../../components/network/thread/subg_openthread/third_party/mbedtls/repo/library/sha256.c:314:15
	subs	r4, #64
.Ltmp68:
	@DEBUG_VALUE: mbedtls_sha256_update_ret:ilen <- $r4
	.loc	2 308 5                         @ ../../../components/network/thread/subg_openthread/third_party/mbedtls/repo/library/sha256.c:308:5
	cmp	r4, #63
.Ltmp69:
	.loc	2 313 15                        @ ../../../components/network/thread/subg_openthread/third_party/mbedtls/repo/library/sha256.c:313:15
	add.w	r5, r5, #64
.Ltmp70:
	@DEBUG_VALUE: mbedtls_sha256_update_ret:input <- $r5
	.loc	2 308 5                         @ ../../../components/network/thread/subg_openthread/third_party/mbedtls/repo/library/sha256.c:308:5
	bhi	.LBB7_8
.Ltmp71:
.LBB7_9:
	@DEBUG_VALUE: mbedtls_sha256_update_ret:left <- $r9
	@DEBUG_VALUE: mbedtls_sha256_update_ret:ctx <- $r6
	@DEBUG_VALUE: mbedtls_sha256_update_ret:input <- $r5
	@DEBUG_VALUE: mbedtls_sha256_update_ret:ilen <- $r4
	.loc	2 317 9                         @ ../../../components/network/thread/subg_openthread/third_party/mbedtls/repo/library/sha256.c:317:9
	cbz	r4, .LBB7_11
.Ltmp72:
@ %bb.10:
	@DEBUG_VALUE: mbedtls_sha256_update_ret:left <- $r9
	@DEBUG_VALUE: mbedtls_sha256_update_ret:ctx <- $r6
	@DEBUG_VALUE: mbedtls_sha256_update_ret:input <- $r5
	@DEBUG_VALUE: mbedtls_sha256_update_ret:ilen <- $r4
	.loc	2 318 39                        @ ../../../components/network/thread/subg_openthread/third_party/mbedtls/repo/library/sha256.c:318:39
	add.w	r0, r6, r9
	adds	r0, #40
	.loc	2 318 9 is_stmt 0               @ ../../../components/network/thread/subg_openthread/third_party/mbedtls/repo/library/sha256.c:318:9
	mov	r1, r5
	mov	r2, r4
	bl	__aeabi_memcpy
.Ltmp73:
.LBB7_11:
	.loc	2 321 1 is_stmt 1               @ ../../../components/network/thread/subg_openthread/third_party/mbedtls/repo/library/sha256.c:321:1
	movs	r0, #0
	add	sp, #4
	pop.w	{r4, r5, r6, r7, r8, r9, pc}
.Ltmp74:
.Lfunc_end7:
	.size	mbedtls_sha256_update_ret, .Lfunc_end7-mbedtls_sha256_update_ret
	.cfi_endproc
	.cantunwind
	.fnend
                                        @ -- End function
	.section	.text.mbedtls_sha256_update,"ax",%progbits
	.hidden	mbedtls_sha256_update           @ -- Begin function mbedtls_sha256_update
	.globl	mbedtls_sha256_update
	.p2align	1
	.type	mbedtls_sha256_update,%function
	.code	16                              @ @mbedtls_sha256_update
	.thumb_func
mbedtls_sha256_update:
.Lfunc_begin8:
	.loc	2 327 0                         @ ../../../components/network/thread/subg_openthread/third_party/mbedtls/repo/library/sha256.c:327:0
	.fnstart
	.cfi_startproc
@ %bb.0:
	@DEBUG_VALUE: mbedtls_sha256_update:ctx <- $r0
	@DEBUG_VALUE: mbedtls_sha256_update:ctx <- $r0
	@DEBUG_VALUE: mbedtls_sha256_update:ctx <- $r0
	@DEBUG_VALUE: mbedtls_sha256_update:input <- $r1
	@DEBUG_VALUE: mbedtls_sha256_update:input <- $r1
	@DEBUG_VALUE: mbedtls_sha256_update:input <- $r1
	@DEBUG_VALUE: mbedtls_sha256_update:ilen <- $r2
	@DEBUG_VALUE: mbedtls_sha256_update:ilen <- $r2
	@DEBUG_VALUE: mbedtls_sha256_update:ilen <- $r2
	.loc	2 328 5 prologue_end            @ ../../../components/network/thread/subg_openthread/third_party/mbedtls/repo/library/sha256.c:328:5
	b	mbedtls_sha256_update_ret
.Ltmp75:
.Lfunc_end8:
	.size	mbedtls_sha256_update, .Lfunc_end8-mbedtls_sha256_update
	.cfi_endproc
	.cantunwind
	.fnend
                                        @ -- End function
	.section	.text.mbedtls_sha256_finish_ret,"ax",%progbits
	.hidden	mbedtls_sha256_finish_ret       @ -- Begin function mbedtls_sha256_finish_ret
	.globl	mbedtls_sha256_finish_ret
	.p2align	1
	.type	mbedtls_sha256_finish_ret,%function
	.code	16                              @ @mbedtls_sha256_finish_ret
	.thumb_func
mbedtls_sha256_finish_ret:
.Lfunc_begin9:
	.loc	2 337 0                         @ ../../../components/network/thread/subg_openthread/third_party/mbedtls/repo/library/sha256.c:337:0
	.fnstart
	.cfi_startproc
@ %bb.0:
	@DEBUG_VALUE: mbedtls_sha256_finish_ret:ctx <- $r0
	@DEBUG_VALUE: mbedtls_sha256_finish_ret:output <- $r1
	.save	{r4, r5, r6, r7, lr}
	push	{r4, r5, r6, r7, lr}
	.cfi_def_cfa_offset 20
	.cfi_offset lr, -4
	.cfi_offset r7, -8
	.cfi_offset r6, -12
	.cfi_offset r5, -16
	.cfi_offset r4, -20
	.pad	#4
	sub	sp, #4
	.cfi_def_cfa_offset 24
.Ltmp76:
	.loc	2 348 12 prologue_end           @ ../../../components/network/thread/subg_openthread/third_party/mbedtls/repo/library/sha256.c:348:12
	mov	r6, r0
	ldr	r7, [r6], #40
	mov	r5, r1
.Ltmp77:
	@DEBUG_VALUE: mbedtls_sha256_finish_ret:output <- $r5
	@DEBUG_VALUE: mbedtls_sha256_finish_ret:output <- $r5
	.loc	2 348 26 is_stmt 0              @ ../../../components/network/thread/subg_openthread/third_party/mbedtls/repo/library/sha256.c:348:26
	and	r1, r7, #63
.Ltmp78:
	@DEBUG_VALUE: mbedtls_sha256_finish_ret:used <- $r1
	.loc	2 0 26                          @ ../../../components/network/thread/subg_openthread/third_party/mbedtls/repo/library/sha256.c:0:26
	mov	r4, r0
.Ltmp79:
	@DEBUG_VALUE: mbedtls_sha256_finish_ret:ctx <- $r4
	@DEBUG_VALUE: mbedtls_sha256_finish_ret:ret <- -110
	@DEBUG_VALUE: mbedtls_sha256_finish_ret:ctx <- $r4
	.loc	2 350 21 is_stmt 1              @ ../../../components/network/thread/subg_openthread/third_party/mbedtls/repo/library/sha256.c:350:21
	adds	r0, r1, #1
.Ltmp80:
	@DEBUG_VALUE: mbedtls_sha256_finish_ret:used <- $r0
	.loc	2 360 29                        @ ../../../components/network/thread/subg_openthread/third_party/mbedtls/repo/library/sha256.c:360:29
	add	r0, r4
.Ltmp81:
	.loc	2 0 29 is_stmt 0                @ ../../../components/network/thread/subg_openthread/third_party/mbedtls/repo/library/sha256.c:0:29
	movs	r2, #128
.Ltmp82:
	.loc	2 352 9 is_stmt 1               @ ../../../components/network/thread/subg_openthread/third_party/mbedtls/repo/library/sha256.c:352:9
	cmp	r1, #55
.Ltmp83:
	.loc	2 360 29                        @ ../../../components/network/thread/subg_openthread/third_party/mbedtls/repo/library/sha256.c:360:29
	add.w	r0, r0, #40
.Ltmp84:
	.loc	2 350 25                        @ ../../../components/network/thread/subg_openthread/third_party/mbedtls/repo/library/sha256.c:350:25
	strb	r2, [r6, r1]
	.loc	2 352 9                         @ ../../../components/network/thread/subg_openthread/third_party/mbedtls/repo/library/sha256.c:352:9
	bhi	.LBB9_2
.Ltmp85:
@ %bb.1:
	@DEBUG_VALUE: mbedtls_sha256_finish_ret:output <- $r5
	@DEBUG_VALUE: mbedtls_sha256_finish_ret:ctx <- $r4
	@DEBUG_VALUE: mbedtls_sha256_finish_ret:ret <- -110
	.loc	2 355 43                        @ ../../../components/network/thread/subg_openthread/third_party/mbedtls/repo/library/sha256.c:355:43
	rsb.w	r1, r1, #55
	.loc	2 355 9 is_stmt 0               @ ../../../components/network/thread/subg_openthread/third_party/mbedtls/repo/library/sha256.c:355:9
	bl	__aeabi_memclr
.Ltmp86:
	.loc	2 0 9                           @ ../../../components/network/thread/subg_openthread/third_party/mbedtls/repo/library/sha256.c:0:9
	b	.LBB9_3
.Ltmp87:
.LBB9_2:
	@DEBUG_VALUE: mbedtls_sha256_finish_ret:output <- $r5
	@DEBUG_VALUE: mbedtls_sha256_finish_ret:ctx <- $r4
	@DEBUG_VALUE: mbedtls_sha256_finish_ret:ret <- -110
	.loc	2 360 43 is_stmt 1              @ ../../../components/network/thread/subg_openthread/third_party/mbedtls/repo/library/sha256.c:360:43
	eor	r1, r1, #63
	.loc	2 360 9 is_stmt 0               @ ../../../components/network/thread/subg_openthread/third_party/mbedtls/repo/library/sha256.c:360:9
	bl	__aeabi_memclr
.Ltmp88:
	.loc	2 362 21 is_stmt 1              @ ../../../components/network/thread/subg_openthread/third_party/mbedtls/repo/library/sha256.c:362:21
	mov	r0, r4
	mov	r1, r6
	bl	mbedtls_internal_sha256_process
.Ltmp89:
	@DEBUG_VALUE: mbedtls_sha256_finish_ret:ret <- 0
	.loc	2 365 9                         @ ../../../components/network/thread/subg_openthread/third_party/mbedtls/repo/library/sha256.c:365:9
	mov	r0, r6
	movs	r1, #56
	bl	__aeabi_memclr4
.Ltmp90:
	.loc	2 371 14                        @ ../../../components/network/thread/subg_openthread/third_party/mbedtls/repo/library/sha256.c:371:14
	ldr	r7, [r4]
.Ltmp91:
.LBB9_3:
	@DEBUG_VALUE: mbedtls_sha256_finish_ret:output <- $r5
	@DEBUG_VALUE: mbedtls_sha256_finish_ret:ctx <- $r4
	.loc	2 372 14                        @ ../../../components/network/thread/subg_openthread/third_party/mbedtls/repo/library/sha256.c:372:14
	ldr	r0, [r4, #4]
.Ltmp92:
	.loc	2 375 5                         @ ../../../components/network/thread/subg_openthread/third_party/mbedtls/repo/library/sha256.c:375:5
	lsrs	r2, r0, #21
.Ltmp93:
	.loc	2 372 10                        @ ../../../components/network/thread/subg_openthread/third_party/mbedtls/repo/library/sha256.c:372:10
	lsls	r1, r0, #3
.Ltmp94:
	.loc	2 375 5                         @ ../../../components/network/thread/subg_openthread/third_party/mbedtls/repo/library/sha256.c:375:5
	strb.w	r2, [r4, #96]
	lsrs	r2, r0, #13
	lsrs	r0, r0, #5
	strb.w	r0, [r4, #98]
.Ltmp95:
	.loc	2 376 5                         @ ../../../components/network/thread/subg_openthread/third_party/mbedtls/repo/library/sha256.c:376:5
	lsrs	r0, r7, #21
	strb.w	r0, [r4, #100]
	lsrs	r0, r7, #13
	strb.w	r0, [r4, #101]
	lsrs	r0, r7, #5
.Ltmp96:
	.loc	2 372 10                        @ ../../../components/network/thread/subg_openthread/third_party/mbedtls/repo/library/sha256.c:372:10
	orr.w	r1, r1, r7, lsr #29
.Ltmp97:
	@DEBUG_VALUE: mbedtls_sha256_finish_ret:low <- [DW_OP_constu 3, DW_OP_shl, DW_OP_stack_value] $r7
	@DEBUG_VALUE: mbedtls_sha256_finish_ret:high <- $r1
	.loc	2 376 5                         @ ../../../components/network/thread/subg_openthread/third_party/mbedtls/repo/library/sha256.c:376:5
	strb.w	r0, [r4, #102]
	lsls	r0, r7, #3
.Ltmp98:
	.loc	2 375 5                         @ ../../../components/network/thread/subg_openthread/third_party/mbedtls/repo/library/sha256.c:375:5
	strb.w	r1, [r4, #99]
.Ltmp99:
	.loc	2 376 5                         @ ../../../components/network/thread/subg_openthread/third_party/mbedtls/repo/library/sha256.c:376:5
	strb.w	r0, [r4, #103]
.Ltmp100:
	.loc	2 378 17                        @ ../../../components/network/thread/subg_openthread/third_party/mbedtls/repo/library/sha256.c:378:17
	mov	r0, r4
	mov	r1, r6
.Ltmp101:
	.loc	2 375 5                         @ ../../../components/network/thread/subg_openthread/third_party/mbedtls/repo/library/sha256.c:375:5
	strb.w	r2, [r4, #97]
.Ltmp102:
	.loc	2 378 17                        @ ../../../components/network/thread/subg_openthread/third_party/mbedtls/repo/library/sha256.c:378:17
	bl	mbedtls_internal_sha256_process
.Ltmp103:
	@DEBUG_VALUE: mbedtls_sha256_finish_ret:ret <- 0
	.loc	2 384 5                         @ ../../../components/network/thread/subg_openthread/third_party/mbedtls/repo/library/sha256.c:384:5
	ldrb	r0, [r4, #11]
	strb	r0, [r5]
	ldrh	r0, [r4, #10]
	strb	r0, [r5, #1]
	ldr	r0, [r4, #8]
	lsrs	r0, r0, #8
	strb	r0, [r5, #2]
	ldr	r0, [r4, #8]
	strb	r0, [r5, #3]
.Ltmp104:
	.loc	2 385 5                         @ ../../../components/network/thread/subg_openthread/third_party/mbedtls/repo/library/sha256.c:385:5
	ldrb	r0, [r4, #15]
	strb	r0, [r5, #4]
	ldrh	r0, [r4, #14]
	strb	r0, [r5, #5]
	ldr	r0, [r4, #12]
	lsrs	r0, r0, #8
	strb	r0, [r5, #6]
	ldr	r0, [r4, #12]
	strb	r0, [r5, #7]
.Ltmp105:
	.loc	2 386 5                         @ ../../../components/network/thread/subg_openthread/third_party/mbedtls/repo/library/sha256.c:386:5
	ldrb	r0, [r4, #19]
	strb	r0, [r5, #8]
	ldrh	r0, [r4, #18]
	strb	r0, [r5, #9]
	ldr	r0, [r4, #16]
	lsrs	r0, r0, #8
	strb	r0, [r5, #10]
	ldr	r0, [r4, #16]
	strb	r0, [r5, #11]
.Ltmp106:
	.loc	2 387 5                         @ ../../../components/network/thread/subg_openthread/third_party/mbedtls/repo/library/sha256.c:387:5
	ldrb	r0, [r4, #23]
	strb	r0, [r5, #12]
	ldrh	r0, [r4, #22]
	strb	r0, [r5, #13]
	ldr	r0, [r4, #20]
	lsrs	r0, r0, #8
	strb	r0, [r5, #14]
	ldr	r0, [r4, #20]
	strb	r0, [r5, #15]
.Ltmp107:
	.loc	2 388 5                         @ ../../../components/network/thread/subg_openthread/third_party/mbedtls/repo/library/sha256.c:388:5
	ldrb	r0, [r4, #27]
	strb	r0, [r5, #16]
	ldrh	r0, [r4, #26]
	strb	r0, [r5, #17]
	ldr	r0, [r4, #24]
	lsrs	r0, r0, #8
	strb	r0, [r5, #18]
	ldr	r0, [r4, #24]
	strb	r0, [r5, #19]
.Ltmp108:
	.loc	2 389 5                         @ ../../../components/network/thread/subg_openthread/third_party/mbedtls/repo/library/sha256.c:389:5
	ldrb	r0, [r4, #31]
	strb	r0, [r5, #20]
	ldrh	r0, [r4, #30]
	strb	r0, [r5, #21]
	ldr	r0, [r4, #28]
	lsrs	r0, r0, #8
	strb	r0, [r5, #22]
	ldr	r0, [r4, #28]
	strb	r0, [r5, #23]
.Ltmp109:
	.loc	2 390 5                         @ ../../../components/network/thread/subg_openthread/third_party/mbedtls/repo/library/sha256.c:390:5
	ldrb.w	r0, [r4, #35]
	strb	r0, [r5, #24]
	ldrh	r0, [r4, #34]
	strb	r0, [r5, #25]
	ldr	r0, [r4, #32]
	lsrs	r0, r0, #8
	strb	r0, [r5, #26]
	ldr	r0, [r4, #32]
	strb	r0, [r5, #27]
.Ltmp110:
	.loc	2 392 14                        @ ../../../components/network/thread/subg_openthread/third_party/mbedtls/repo/library/sha256.c:392:14
	ldr	r0, [r4, #104]
.Ltmp111:
	.loc	2 392 9 is_stmt 0               @ ../../../components/network/thread/subg_openthread/third_party/mbedtls/repo/library/sha256.c:392:9
	cbnz	r0, .LBB9_5
.Ltmp112:
@ %bb.4:
	@DEBUG_VALUE: mbedtls_sha256_finish_ret:low <- [DW_OP_constu 3, DW_OP_shl, DW_OP_stack_value] $r7
	@DEBUG_VALUE: mbedtls_sha256_finish_ret:output <- $r5
	@DEBUG_VALUE: mbedtls_sha256_finish_ret:ctx <- $r4
	@DEBUG_VALUE: mbedtls_sha256_finish_ret:ret <- 0
	.loc	2 393 9 is_stmt 1               @ ../../../components/network/thread/subg_openthread/third_party/mbedtls/repo/library/sha256.c:393:9
	ldrb.w	r0, [r4, #39]
	strb	r0, [r5, #28]
	ldrh	r0, [r4, #38]
	strb	r0, [r5, #29]
	ldr	r0, [r4, #36]
	lsrs	r0, r0, #8
	strb	r0, [r5, #30]
	ldr	r0, [r4, #36]
	strb	r0, [r5, #31]
.Ltmp113:
.LBB9_5:
	@DEBUG_VALUE: mbedtls_sha256_finish_ret:low <- [DW_OP_constu 3, DW_OP_shl, DW_OP_stack_value] $r7
	@DEBUG_VALUE: mbedtls_sha256_finish_ret:output <- $r5
	@DEBUG_VALUE: mbedtls_sha256_finish_ret:ctx <- $r4
	@DEBUG_VALUE: mbedtls_sha256_finish_ret:ret <- 0
	.loc	2 396 1                         @ ../../../components/network/thread/subg_openthread/third_party/mbedtls/repo/library/sha256.c:396:1
	movs	r0, #0
	add	sp, #4
	pop	{r4, r5, r6, r7, pc}
.Ltmp114:
.Lfunc_end9:
	.size	mbedtls_sha256_finish_ret, .Lfunc_end9-mbedtls_sha256_finish_ret
	.cfi_endproc
	.cantunwind
	.fnend
                                        @ -- End function
	.section	.text.mbedtls_sha256_finish,"ax",%progbits
	.hidden	mbedtls_sha256_finish           @ -- Begin function mbedtls_sha256_finish
	.globl	mbedtls_sha256_finish
	.p2align	1
	.type	mbedtls_sha256_finish,%function
	.code	16                              @ @mbedtls_sha256_finish
	.thumb_func
mbedtls_sha256_finish:
.Lfunc_begin10:
	.loc	2 401 0                         @ ../../../components/network/thread/subg_openthread/third_party/mbedtls/repo/library/sha256.c:401:0
	.fnstart
	.cfi_startproc
@ %bb.0:
	@DEBUG_VALUE: mbedtls_sha256_finish:ctx <- $r0
	@DEBUG_VALUE: mbedtls_sha256_finish:ctx <- $r0
	@DEBUG_VALUE: mbedtls_sha256_finish:ctx <- $r0
	@DEBUG_VALUE: mbedtls_sha256_finish:output <- $r1
	@DEBUG_VALUE: mbedtls_sha256_finish:output <- $r1
	@DEBUG_VALUE: mbedtls_sha256_finish:output <- $r1
	.loc	2 402 5 prologue_end            @ ../../../components/network/thread/subg_openthread/third_party/mbedtls/repo/library/sha256.c:402:5
	b	mbedtls_sha256_finish_ret
.Ltmp115:
.Lfunc_end10:
	.size	mbedtls_sha256_finish, .Lfunc_end10-mbedtls_sha256_finish
	.cfi_endproc
	.cantunwind
	.fnend
                                        @ -- End function
	.section	.text.mbedtls_sha256_ret,"ax",%progbits
	.hidden	mbedtls_sha256_ret              @ -- Begin function mbedtls_sha256_ret
	.globl	mbedtls_sha256_ret
	.p2align	1
	.type	mbedtls_sha256_ret,%function
	.code	16                              @ @mbedtls_sha256_ret
	.thumb_func
mbedtls_sha256_ret:
.Lfunc_begin11:
	.loc	2 415 0                         @ ../../../components/network/thread/subg_openthread/third_party/mbedtls/repo/library/sha256.c:415:0
	.fnstart
	.cfi_startproc
@ %bb.0:
	@DEBUG_VALUE: mbedtls_sha256_ret:input <- $r0
	@DEBUG_VALUE: mbedtls_sha256_ret:ilen <- $r1
	@DEBUG_VALUE: mbedtls_sha256_ret:output <- $r2
	@DEBUG_VALUE: mbedtls_sha256_ret:is224 <- $r3
	.save	{r4, r5, r6, r7, r8, r9, r10, lr}
	push.w	{r4, r5, r6, r7, r8, r9, r10, lr}
	.cfi_def_cfa_offset 32
	.cfi_offset lr, -4
	.cfi_offset r10, -8
	.cfi_offset r9, -12
	.cfi_offset r8, -16
	.cfi_offset r7, -20
	.cfi_offset r6, -24
	.cfi_offset r5, -28
	.cfi_offset r4, -32
	.pad	#112
	sub	sp, #112
	.cfi_def_cfa_offset 144
	mov	r9, r1
.Ltmp116:
	@DEBUG_VALUE: mbedtls_sha256_ret:ilen <- $r9
	mov	r10, r0
.Ltmp117:
	@DEBUG_VALUE: mbedtls_sha256_ret:input <- $r10
	@DEBUG_VALUE: mbedtls_sha256_starts_ret:is224 <- $r7
	@DEBUG_VALUE: mbedtls_sha256_starts_ret:ctx <- [DW_OP_plus_uconst 4, DW_OP_stack_value] $sp
	@DEBUG_VALUE: mbedtls_sha256_ret:ret <- -110
	@DEBUG_VALUE: mbedtls_sha256_ret:is224 <- $r7
	@DEBUG_VALUE: mbedtls_sha256_ret:output <- $r8
	@DEBUG_VALUE: mbedtls_sha256_ret:ilen <- $r9
	@DEBUG_VALUE: mbedtls_sha256_ret:input <- $r10
	add	r0, sp, #4
.Ltmp118:
	.loc	2 85 19 prologue_end            @ ../../../components/network/thread/subg_openthread/third_party/mbedtls/repo/library/sha256.c:85:19
	movs	r1, #104
	mov	r7, r3
.Ltmp119:
	.loc	2 0 19 is_stmt 0                @ ../../../components/network/thread/subg_openthread/third_party/mbedtls/repo/library/sha256.c:0:19
	mov	r8, r2
.Ltmp120:
	.loc	2 85 19                         @ ../../../components/network/thread/subg_openthread/third_party/mbedtls/repo/library/sha256.c:85:19
	bl	__aeabi_memclr4
.Ltmp121:
	.loc	2 88 9 is_stmt 1                @ ../../../components/network/thread/subg_openthread/third_party/mbedtls/repo/library/sha256.c:88:9
	cbz	r7, .LBB11_2
.Ltmp122:
@ %bb.1:
	@DEBUG_VALUE: mbedtls_sha256_ret:input <- $r10
	@DEBUG_VALUE: mbedtls_sha256_ret:ilen <- $r9
	@DEBUG_VALUE: mbedtls_sha256_starts_ret:ctx <- [DW_OP_plus_uconst 4, DW_OP_stack_value] $sp
	@DEBUG_VALUE: mbedtls_sha256_ret:ret <- -110
	.loc	2 0 9 is_stmt 0                 @ ../../../components/network/thread/subg_openthread/third_party/mbedtls/repo/library/sha256.c:0:9
	movw	r12, #20388
	movw	r1, #36775
	movw	r2, #5393
	movw	r3, #2865
	movw	r4, #22841
	movw	r5, #56599
	movw	r6, #54535
	movw	r0, #40664
	movt	r12, #48890
	movt	r1, #25849
	movt	r2, #26712
	movt	r3, #65472
	movt	r4, #63246
	movt	r5, #12400
	movt	r6, #13948
	movt	r0, #49413
	b	.LBB11_3
.Ltmp123:
.LBB11_2:
	@DEBUG_VALUE: mbedtls_sha256_ret:input <- $r10
	@DEBUG_VALUE: mbedtls_sha256_ret:ilen <- $r9
	@DEBUG_VALUE: mbedtls_sha256_starts_ret:ctx <- [DW_OP_plus_uconst 4, DW_OP_stack_value] $sp
	@DEBUG_VALUE: mbedtls_sha256_ret:ret <- -110
	movw	r12, #52505
	movw	r1, #55723
	movw	r2, #26764
	movw	r3, #21119
	movw	r4, #62778
	movw	r5, #62322
	movw	r6, #44677
	movw	r0, #58983
	movt	r12, #23520
	movt	r1, #8067
	movt	r2, #39685
	movt	r3, #20750
	movt	r4, #42319
	movt	r5, #15470
	movt	r6, #47975
	movt	r0, #27145
.Ltmp124:
.LBB11_3:
	@DEBUG_VALUE: mbedtls_sha256_ret:input <- $r10
	@DEBUG_VALUE: mbedtls_sha256_ret:ilen <- $r9
	@DEBUG_VALUE: mbedtls_sha256_starts_ret:ctx <- [DW_OP_plus_uconst 4, DW_OP_stack_value] $sp
	@DEBUG_VALUE: mbedtls_sha256_ret:ret <- -110
	.loc	2 113 16 is_stmt 1              @ ../../../components/network/thread/subg_openthread/third_party/mbedtls/repo/library/sha256.c:113:16
	str	r7, [sp, #108]
.Ltmp125:
	@DEBUG_VALUE: mbedtls_sha256_ret:ret <- 0
	.loc	2 0 16 is_stmt 0                @ ../../../components/network/thread/subg_openthread/third_party/mbedtls/repo/library/sha256.c:0:16
	add	r7, sp, #4
.Ltmp126:
	.loc	2 91 23 is_stmt 1               @ ../../../components/network/thread/subg_openthread/third_party/mbedtls/repo/library/sha256.c:91:23
	strd	r0, r6, [sp, #12]
	.loc	2 95 23                         @ ../../../components/network/thread/subg_openthread/third_party/mbedtls/repo/library/sha256.c:95:23
	strd	r3, r2, [sp, #28]
	.loc	2 97 23                         @ ../../../components/network/thread/subg_openthread/third_party/mbedtls/repo/library/sha256.c:97:23
	strd	r1, r12, [sp, #36]
.Ltmp127:
	.loc	2 428 17                        @ ../../../components/network/thread/subg_openthread/third_party/mbedtls/repo/library/sha256.c:428:17
	mov	r0, r7
	mov	r1, r10
	mov	r2, r9
.Ltmp128:
	.loc	2 93 23                         @ ../../../components/network/thread/subg_openthread/third_party/mbedtls/repo/library/sha256.c:93:23
	strd	r5, r4, [sp, #20]
.Ltmp129:
	.loc	2 428 17                        @ ../../../components/network/thread/subg_openthread/third_party/mbedtls/repo/library/sha256.c:428:17
	bl	mbedtls_sha256_update_ret
.Ltmp130:
	.loc	2 431 17                        @ ../../../components/network/thread/subg_openthread/third_party/mbedtls/repo/library/sha256.c:431:17
	mov	r0, r7
	mov	r1, r8
	bl	mbedtls_sha256_finish_ret
.Ltmp131:
	@DEBUG_LABEL: mbedtls_sha256_ret:exit
	@DEBUG_VALUE: mbedtls_sha256_free:ctx <- [DW_OP_plus_uconst 4, DW_OP_stack_value] $sp
	.loc	2 65 5                          @ ../../../components/network/thread/subg_openthread/third_party/mbedtls/repo/library/sha256.c:65:5
	mov	r0, r7
	movs	r1, #108
	bl	mbedtls_platform_zeroize
.Ltmp132:
	.loc	2 437 5                         @ ../../../components/network/thread/subg_openthread/third_party/mbedtls/repo/library/sha256.c:437:5
	movs	r0, #0
	add	sp, #112
	pop.w	{r4, r5, r6, r7, r8, r9, r10, pc}
.Ltmp133:
.Lfunc_end11:
	.size	mbedtls_sha256_ret, .Lfunc_end11-mbedtls_sha256_ret
	.cfi_endproc
	.cantunwind
	.fnend
                                        @ -- End function
	.section	.text.mbedtls_sha256,"ax",%progbits
	.hidden	mbedtls_sha256                  @ -- Begin function mbedtls_sha256
	.globl	mbedtls_sha256
	.p2align	1
	.type	mbedtls_sha256,%function
	.code	16                              @ @mbedtls_sha256
	.thumb_func
mbedtls_sha256:
.Lfunc_begin12:
	.loc	2 445 0                         @ ../../../components/network/thread/subg_openthread/third_party/mbedtls/repo/library/sha256.c:445:0
	.fnstart
	.cfi_startproc
@ %bb.0:
	@DEBUG_VALUE: mbedtls_sha256:input <- $r0
	@DEBUG_VALUE: mbedtls_sha256:input <- $r0
	@DEBUG_VALUE: mbedtls_sha256:input <- $r0
	@DEBUG_VALUE: mbedtls_sha256:ilen <- $r1
	@DEBUG_VALUE: mbedtls_sha256:ilen <- $r1
	@DEBUG_VALUE: mbedtls_sha256:ilen <- $r1
	@DEBUG_VALUE: mbedtls_sha256:output <- $r2
	@DEBUG_VALUE: mbedtls_sha256:output <- $r2
	@DEBUG_VALUE: mbedtls_sha256:output <- $r2
	@DEBUG_VALUE: mbedtls_sha256:is224 <- $r3
	@DEBUG_VALUE: mbedtls_sha256:is224 <- $r3
	@DEBUG_VALUE: mbedtls_sha256:is224 <- $r3
	.loc	2 446 5 prologue_end            @ ../../../components/network/thread/subg_openthread/third_party/mbedtls/repo/library/sha256.c:446:5
	b	mbedtls_sha256_ret
.Ltmp134:
.Lfunc_end12:
	.size	mbedtls_sha256, .Lfunc_end12-mbedtls_sha256
	.cfi_endproc
	.cantunwind
	.fnend
                                        @ -- End function
	.type	K,%object                       @ @K
	.section	.rodata.K,"a",%progbits
	.p2align	2
K:
	.long	1116352408                      @ 0x428a2f98
	.long	1899447441                      @ 0x71374491
	.long	3049323471                      @ 0xb5c0fbcf
	.long	3921009573                      @ 0xe9b5dba5
	.long	961987163                       @ 0x3956c25b
	.long	1508970993                      @ 0x59f111f1
	.long	2453635748                      @ 0x923f82a4
	.long	2870763221                      @ 0xab1c5ed5
	.long	3624381080                      @ 0xd807aa98
	.long	310598401                       @ 0x12835b01
	.long	607225278                       @ 0x243185be
	.long	1426881987                      @ 0x550c7dc3
	.long	1925078388                      @ 0x72be5d74
	.long	2162078206                      @ 0x80deb1fe
	.long	2614888103                      @ 0x9bdc06a7
	.long	3248222580                      @ 0xc19bf174
	.long	3835390401                      @ 0xe49b69c1
	.long	4022224774                      @ 0xefbe4786
	.long	264347078                       @ 0xfc19dc6
	.long	604807628                       @ 0x240ca1cc
	.long	770255983                       @ 0x2de92c6f
	.long	1249150122                      @ 0x4a7484aa
	.long	1555081692                      @ 0x5cb0a9dc
	.long	1996064986                      @ 0x76f988da
	.long	2554220882                      @ 0x983e5152
	.long	2821834349                      @ 0xa831c66d
	.long	2952996808                      @ 0xb00327c8
	.long	3210313671                      @ 0xbf597fc7
	.long	3336571891                      @ 0xc6e00bf3
	.long	3584528711                      @ 0xd5a79147
	.long	113926993                       @ 0x6ca6351
	.long	338241895                       @ 0x14292967
	.long	666307205                       @ 0x27b70a85
	.long	773529912                       @ 0x2e1b2138
	.long	1294757372                      @ 0x4d2c6dfc
	.long	1396182291                      @ 0x53380d13
	.long	1695183700                      @ 0x650a7354
	.long	1986661051                      @ 0x766a0abb
	.long	2177026350                      @ 0x81c2c92e
	.long	2456956037                      @ 0x92722c85
	.long	2730485921                      @ 0xa2bfe8a1
	.long	2820302411                      @ 0xa81a664b
	.long	3259730800                      @ 0xc24b8b70
	.long	3345764771                      @ 0xc76c51a3
	.long	3516065817                      @ 0xd192e819
	.long	3600352804                      @ 0xd6990624
	.long	4094571909                      @ 0xf40e3585
	.long	275423344                       @ 0x106aa070
	.long	430227734                       @ 0x19a4c116
	.long	506948616                       @ 0x1e376c08
	.long	659060556                       @ 0x2748774c
	.long	883997877                       @ 0x34b0bcb5
	.long	958139571                       @ 0x391c0cb3
	.long	1322822218                      @ 0x4ed8aa4a
	.long	1537002063                      @ 0x5b9cca4f
	.long	1747873779                      @ 0x682e6ff3
	.long	1955562222                      @ 0x748f82ee
	.long	2024104815                      @ 0x78a5636f
	.long	2227730452                      @ 0x84c87814
	.long	2361852424                      @ 0x8cc70208
	.long	2428436474                      @ 0x90befffa
	.long	2756734187                      @ 0xa4506ceb
	.long	3204031479                      @ 0xbef9a3f7
	.long	3329325298                      @ 0xc67178f2
	.size	K, 256

	.file	5 "C:\\Keil_v5\\ARM\\ARMCLANG\\Bin\\..\\include" "stdio.h"
	.section	".note.GNU-stack","",%progbits
	.eabi_attribute	30, 3	@ Tag_ABI_optimization_goals
	.ARM_attribute	16, 1	@ Tag_AV_eba