	.text
	.syntax unified
	.eabi_attribute	67, "2.09"	@ Tag_conformance
	.cpu	cortex-m3
	.eabi_attribute	6, 10	@ Tag_CPU_arch
	.eabi_attribute	7, 77	@ Tag_CPU_arch_profile
	.eabi_attribute	8, 0	@ Tag_ARM_ISA_use
	.eabi_attribute	9, 2	@ Tag_THUMB_ISA_use
	.eabi_attribute	34, 1	@ Tag_CPU_unaligned_access
	.eabi_attribute	17, 1	@ Tag_ABI_PCS_GOT_use
	.eabi_attribute	20, 2	@ Tag_ABI_FP_denormal
	.eabi_attribute	21, 0	@ Tag_ABI_FP_exceptions
	.eabi_attribute	23, 1	@ Tag_ABI_FP_number_model
	.eabi_attribute	24, 1	@ Tag_ABI_align_needed
	.eabi_attribute	25, 1	@ Tag_ABI_align_preserved
	.eabi_attribute	38, 1	@ Tag_ABI_FP_16bit_format
	.eabi_attribute	18, 4	@ Tag_ABI_PCS_wchar_t
	.eabi_attribute	26, 2	@ Tag_ABI_enum_size
	.eabi_attribute	14, 0	@ Tag_ABI_PCS_R9_use
	.file	"shell.c"
	.file	1 "D:\\Rafael-IoT-SDK-Internal-main\\examples\\das_subg_thread\\keil" "../../../components/utility/cli/Inc/shell.h"
	.file	2 "C:\\Keil_v5\\ARM\\ARMCLANG\\Bin\\..\\include" "stdint.h"
	.file	3 "D:\\Rafael-IoT-SDK-Internal-main\\examples\\das_subg_thread\\keil" "../../../components/utility/cli/shell.c"
	.section	.text._sh_cmd_help,"ax",%progbits
	.p2align	2                               @ -- Begin function _sh_cmd_help
	.type	_sh_cmd_help,%function
	.code	16                              @ @_sh_cmd_help
	.thumb_func
_sh_cmd_help:
.Lfunc_begin0:
	.loc	3 570 0                         @ ../../../components/utility/cli/shell.c:570:0
	.fnstart
	.cfi_sections .debug_frame
	.cfi_startproc
@ %bb.0:
	@DEBUG_VALUE: _sh_cmd_help:argc <- $r0
	@DEBUG_VALUE: _sh_cmd_help:argv <- $r1
	@DEBUG_VALUE: _sh_cmd_help:log_out <- $r2
	@DEBUG_VALUE: _sh_cmd_help:pExtra <- $r3
	.save	{r4, r5, r6, r7, r8, r9, lr}
	push.w	{r4, r5, r6, r7, r8, r9, lr}
	.cfi_def_cfa_offset 28
	.cfi_offset lr, -4
	.cfi_offset r9, -8
	.cfi_offset r8, -12
	.cfi_offset r7, -16
	.cfi_offset r6, -20
	.cfi_offset r5, -24
	.cfi_offset r4, -28
	.pad	#4
	sub	sp, #4
	.cfi_def_cfa_offset 32
	mov	r4, r2
.Ltmp0:
	@DEBUG_VALUE: _sh_cmd_help:log_out <- $r4
	@DEBUG_VALUE: _sh_cmd_help:pCur <- undef
	@DEBUG_VALUE: _sh_cmd_help:log_out <- $r4
	@DEBUG_VALUE: _sh_cmd_help:argc <- $r0
	.loc	3 575 9 prologue_end            @ ../../../components/utility/cli/shell.c:575:9
	cmp	r0, #2
	@DEBUG_VALUE: _sh_cmd_help:argv <- $r1
	bne	.LBB0_6
.Ltmp1:
@ %bb.1:
	@DEBUG_VALUE: _sh_cmd_help:log_out <- $r4
	@DEBUG_VALUE: _sh_cmd_help:pExtra <- $r3
	@DEBUG_VALUE: _sh_cmd_help:argv <- $r1
	@DEBUG_VALUE: _sh_cmd_help:argc <- $r0
	.loc	3 0 9 is_stmt 0                 @ ../../../components/utility/cli/shell.c:0:9
	movw	r6, :lower16:Image$$RW_IROM_CLI_CMD_POOL_START$$RO$$Base
	movw	r9, :lower16:Image$$RW_IROM_CLI_CMD_POOL_START$$RO$$Limit
	mov	r5, r1
.Ltmp2:
	@DEBUG_VALUE: _sh_cmd_help:argv <- $r5
	@DEBUG_VALUE: _sh_cmd_help:argv <- $r5
	movt	r6, :upper16:Image$$RW_IROM_CLI_CMD_POOL_START$$RO$$Base
	movt	r9, :upper16:Image$$RW_IROM_CLI_CMD_POOL_START$$RO$$Limit
	adr.w	r8, .LCPI0_0
.Ltmp3:
	.p2align	2
.LBB0_2:                                @ =>This Inner Loop Header: Depth=1
	@DEBUG_VALUE: _sh_cmd_help:argv <- $r5
	@DEBUG_VALUE: _sh_cmd_help:log_out <- $r4
	@DEBUG_VALUE: _sh_cmd_help:pCur <- $r6
	.loc	3 578 9 is_stmt 1               @ ../../../components/utility/cli/shell.c:578:9
	cmp	r6, r9
	bhs	.LBB0_12
.Ltmp4:
@ %bb.3:                                @   in Loop: Header=BB0_2 Depth=1
	@DEBUG_VALUE: _sh_cmd_help:pCur <- $r6
	@DEBUG_VALUE: _sh_cmd_help:argv <- $r5
	@DEBUG_VALUE: _sh_cmd_help:log_out <- $r4
	.loc	3 580 30                        @ ../../../components/utility/cli/shell.c:580:30
	ldr	r7, [r6, #4]
	.loc	3 580 41 is_stmt 0              @ ../../../components/utility/cli/shell.c:580:41
	ldr	r1, [r5, #4]
	.loc	3 580 17                        @ ../../../components/utility/cli/shell.c:580:17
	mov	r0, r7
.Ltmp5:
	@DEBUG_VALUE: _sh_cmd_help:argc <- [DW_OP_LLVM_entry_value 1] $r0
	bl	strcmp
.Ltmp6:
	@DEBUG_VALUE: _sh_cmd_help:pExtra <- [DW_OP_LLVM_entry_value 1] $r3
	.loc	3 580 17                        @ ../../../components/utility/cli/shell.c:580:17
	cbnz	r0, .LBB0_5
.Ltmp7:
@ %bb.4:                                @   in Loop: Header=BB0_2 Depth=1
	@DEBUG_VALUE: _sh_cmd_help:pCur <- $r6
	@DEBUG_VALUE: _sh_cmd_help:argv <- $r5
	@DEBUG_VALUE: _sh_cmd_help:log_out <- $r4
	.loc	3 582 73 is_stmt 1              @ ../../../components/utility/cli/shell.c:582:73
	ldr	r2, [r6, #12]
	.loc	3 582 17 is_stmt 0              @ ../../../components/utility/cli/shell.c:582:17
	mov	r0, r8
	mov	r1, r7
	blx	r4
.Ltmp8:
.LBB0_5:                                @   in Loop: Header=BB0_2 Depth=1
	@DEBUG_VALUE: _sh_cmd_help:pCur <- $r6
	@DEBUG_VALUE: _sh_cmd_help:argv <- $r5
	@DEBUG_VALUE: _sh_cmd_help:log_out <- $r4
	@DEBUG_VALUE: _sh_cmd_help:pCur <- [DW_OP_plus_uconst 24, DW_OP_stack_value] $r6
	.loc	3 585 34 is_stmt 1              @ ../../../components/utility/cli/shell.c:585:34
	ldr	r0, [r6, #28]
	adds	r6, #24
.Ltmp9:
	.loc	3 585 17 is_stmt 0              @ ../../../components/utility/cli/shell.c:585:17
	adds	r0, #1
	bne	.LBB0_2
	b	.LBB0_12
.Ltmp10:
.LBB0_6:
	@DEBUG_VALUE: _sh_cmd_help:log_out <- $r4
	@DEBUG_VALUE: _sh_cmd_help:pExtra <- $r3
	@DEBUG_VALUE: _sh_cmd_help:argv <- $r1
	@DEBUG_VALUE: _sh_cmd_help:argc <- $r0
	.loc	3 0 17                          @ ../../../components/utility/cli/shell.c:0:17
	movw	r7, :lower16:Image$$RW_IROM_CLI_CMD_POOL_START$$RO$$Base
	movw	r6, :lower16:Image$$RW_IROM_CLI_CMD_POOL_START$$RO$$Limit
	movw	r5, :lower16:.L.str.5
	movt	r7, :upper16:Image$$RW_IROM_CLI_CMD_POOL_START$$RO$$Base
	movt	r6, :upper16:Image$$RW_IROM_CLI_CMD_POOL_START$$RO$$Limit
	movt	r5, :upper16:.L.str.5
.Ltmp11:
	.p2align	2
.LBB0_7:                                @ =>This Inner Loop Header: Depth=1
	@DEBUG_VALUE: _sh_cmd_help:log_out <- $r4
	@DEBUG_VALUE: _sh_cmd_help:pCur <- $r7
	.loc	3 594 5 is_stmt 1               @ ../../../components/utility/cli/shell.c:594:5
	cmp	r7, r6
	bhs	.LBB0_9
.Ltmp12:
@ %bb.8:                                @   in Loop: Header=BB0_7 Depth=1
	@DEBUG_VALUE: _sh_cmd_help:pCur <- $r7
	@DEBUG_VALUE: _sh_cmd_help:log_out <- $r4
	.loc	3 596 50                        @ ../../../components/utility/cli/shell.c:596:50
	ldr	r1, [r7, #4]
.Ltmp13:
	@DEBUG_VALUE: _sh_cmd_help:argv <- [DW_OP_LLVM_entry_value 1] $r1
	.loc	3 596 67 is_stmt 0              @ ../../../components/utility/cli/shell.c:596:67
	ldr	r2, [r7, #12]
	.loc	3 596 9                         @ ../../../components/utility/cli/shell.c:596:9
	mov	r0, r5
.Ltmp14:
	@DEBUG_VALUE: _sh_cmd_help:argc <- [DW_OP_LLVM_entry_value 1] $r0
	blx	r4
.Ltmp15:
	@DEBUG_VALUE: _sh_cmd_help:pExtra <- [DW_OP_LLVM_entry_value 1] $r3
	@DEBUG_VALUE: _sh_cmd_help:pCur <- [DW_OP_plus_uconst 24, DW_OP_stack_value] $r7
	.loc	3 598 30 is_stmt 1              @ ../../../components/utility/cli/shell.c:598:30
	ldr	r0, [r7, #28]
	adds	r7, #24
.Ltmp16:
	.loc	3 598 13 is_stmt 0              @ ../../../components/utility/cli/shell.c:598:13
	adds	r0, #1
	bne	.LBB0_7
.Ltmp17:
.LBB0_9:
	@DEBUG_VALUE: _sh_cmd_help:log_out <- $r4
	.loc	3 604 12 is_stmt 1              @ ../../../components/utility/cli/shell.c:604:12
	movw	r0, :lower16:g_pCmd_head
	movt	r0, :upper16:g_pCmd_head
	ldr	r6, [r0]
.Ltmp18:
	@DEBUG_VALUE: _sh_cmd_help:pCur <- $r6
	.loc	3 0 12 is_stmt 0                @ ../../../components/utility/cli/shell.c:0:12
	movw	r5, :lower16:.L.str.5
	movt	r5, :upper16:.L.str.5
.Ltmp19:
	.p2align	2
.LBB0_10:                               @ =>This Inner Loop Header: Depth=1
	@DEBUG_VALUE: _sh_cmd_help:pCur <- $r6
	@DEBUG_VALUE: _sh_cmd_help:log_out <- $r4
	@DEBUG_VALUE: _sh_cmd_help:pCur <- $r6
	cbz	r6, .LBB0_12
.Ltmp20:
@ %bb.11:                               @   in Loop: Header=BB0_10 Depth=1
	@DEBUG_VALUE: _sh_cmd_help:pCur <- $r6
	@DEBUG_VALUE: _sh_cmd_help:log_out <- $r4
	.loc	3 607 50 is_stmt 1              @ ../../../components/utility/cli/shell.c:607:50
	ldr	r1, [r6, #4]
	.loc	3 607 67 is_stmt 0              @ ../../../components/utility/cli/shell.c:607:67
	ldr	r2, [r6, #12]
	.loc	3 607 9                         @ ../../../components/utility/cli/shell.c:607:9
	mov	r0, r5
	blx	r4
.Ltmp21:
	.loc	3 608 22 is_stmt 1              @ ../../../components/utility/cli/shell.c:608:22
	ldr	r6, [r6]
.Ltmp22:
	@DEBUG_VALUE: _sh_cmd_help:pCur <- $r6
	.loc	3 609 30                        @ ../../../components/utility/cli/shell.c:609:30
	ldr	r0, [r6, #4]
.Ltmp23:
	.loc	3 609 13 is_stmt 0              @ ../../../components/utility/cli/shell.c:609:13
	adds	r0, #1
	bne	.LBB0_10
.Ltmp24:
.LBB0_12:
	@DEBUG_VALUE: _sh_cmd_help:log_out <- $r4
	.loc	3 616 1 is_stmt 1               @ ../../../components/utility/cli/shell.c:616:1
	movs	r0, #0
	add	sp, #4
	pop.w	{r4, r5, r6, r7, r8, r9, pc}
.Ltmp25:
	.p2align	2
@ %bb.13:
	.loc	3 0 1 is_stmt 0                 @ ../../../components/utility/cli/shell.c:0:1
.LCPI0_0:
.L.str.4:
	.asciz	"\ncommand: '%s'\n%s\n\000"
.Lfunc_end0:
	.size	_sh_cmd_help, .Lfunc_end0-_sh_cmd_help
	.cfi_endproc
	.cantunwind
	.fnend
                                        @ -- End function
	.section	.text.shell_init,"ax",%progbits
	.hidden	shell_init                      @ -- Begin function shell_init
	.globl	shell_init
	.p2align	1
	.type	shell_init,%function
	.code	16                              @ @shell_init
	.thumb_func
shell_init:
.Lfunc_begin1:
	.loc	3 631 0 is_stmt 1               @ ../../../components/utility/cli/shell.c:631:0
	.fnstart
	.cfi_startproc
@ %bb.0:
	@DEBUG_VALUE: shell_init:pDesc <- $r0
	@DEBUG_VALUE: shell_init:pSet_info <- $r1
	@DEBUG_VALUE: shell_init:pDesc <- $r0
	.save	{r4, r5, r6, r7, lr}
	push	{r4, r5, r6, r7, lr}
	.cfi_def_cfa_offset 20
	.cfi_offset lr, -4
	.cfi_offset r7, -8
	.cfi_offset r6, -12
	.cfi_offset r5, -16
	.cfi_offset r4, -20
	.pad	#4
	sub	sp, #4
	.cfi_def_cfa_offset 24
.Ltmp26:
	@DEBUG_VALUE: shell_init:rval <- 0
	@DEBUG_VALUE: shell_init:pSet_info <- $r1
	.loc	3 636 14 prologue_end           @ ../../../components/utility/cli/shell.c:636:14
	cbz	r0, .LBB1_3
.Ltmp27:
@ %bb.1:
	@DEBUG_VALUE: shell_init:pSet_info <- $r1
	@DEBUG_VALUE: shell_init:pDesc <- $r0
	@DEBUG_VALUE: shell_init:rval <- 0
	.loc	3 643 9                         @ ../../../components/utility/cli/shell.c:643:9
	movw	r7, :lower16:g_sh_dev
	movt	r7, :upper16:g_sh_dev
	mov	r5, r0
.Ltmp28:
	@DEBUG_VALUE: shell_init:pDesc <- $r5
	@DEBUG_VALUE: shell_init:pDesc <- $r5
	.loc	3 0 9 is_stmt 0                 @ ../../../components/utility/cli/shell.c:0:9
	mov	r4, r1
.Ltmp29:
	@DEBUG_VALUE: shell_init:pSet_info <- $r4
	@DEBUG_VALUE: shell_init:pSet_info <- $r4
	.loc	3 643 9                         @ ../../../components/utility/cli/shell.c:643:9
	adds	r0, r7, #4
	movs	r1, #52
	bl	__aeabi_memclr4
.Ltmp30:
	.loc	3 646 44 is_stmt 1              @ ../../../components/utility/cli/shell.c:646:44
	ldrd	r0, r2, [r4]
.Ltmp31:
	.loc	3 652 17                        @ ../../../components/utility/cli/shell.c:652:17
	ldrh	r3, [r4, #22]
.Ltmp32:
	.loc	3 646 31                        @ ../../../components/utility/cli/shell.c:646:31
	strd	r0, r2, [r7, #4]
.Ltmp33:
	.loc	3 652 17                        @ ../../../components/utility/cli/shell.c:652:17
	ldrh	r2, [r4, #20]
.Ltmp34:
	.loc	3 645 31                        @ ../../../components/utility/cli/shell.c:645:31
	str	r5, [r7]
.Ltmp35:
	.loc	3 651 25                        @ ../../../components/utility/cli/shell.c:651:25
	ldrd	r1, r5, [r4, #24]
.Ltmp36:
	@DEBUG_VALUE: shell_init:pDesc <- [DW_OP_LLVM_entry_value 1] $r0
	.loc	3 652 17                        @ ../../../components/utility/cli/shell.c:652:17
	adds	r0, r2, #4
	muls	r0, r3, r0
.Ltmp37:
	.loc	3 651 14                        @ ../../../components/utility/cli/shell.c:651:14
	cmp	r1, r0
	.loc	3 648 31                        @ ../../../components/utility/cli/shell.c:648:31
	str	r5, [r7, #36]
	.loc	3 651 14                        @ ../../../components/utility/cli/shell.c:651:14
	bhs	.LBB1_4
.Ltmp38:
@ %bb.2:
	@DEBUG_VALUE: shell_init:pSet_info <- $r4
	@DEBUG_VALUE: shell_init:pDesc <- [DW_OP_LLVM_entry_value 1] $r0
	@DEBUG_VALUE: shell_init:rval <- 0
	.loc	3 0 14 is_stmt 0                @ ../../../components/utility/cli/shell.c:0:14
	mvn	r0, #2
	b	.LBB1_10
.Ltmp39:
.LBB1_3:
	@DEBUG_VALUE: shell_init:pSet_info <- $r1
	@DEBUG_VALUE: shell_init:pDesc <- $r0
	@DEBUG_VALUE: shell_init:rval <- 0
	mov.w	r0, #-1
.Ltmp40:
	@DEBUG_VALUE: shell_init:pDesc <- [DW_OP_LLVM_entry_value 1] $r0
	b	.LBB1_10
.Ltmp41:
.LBB1_4:
	@DEBUG_VALUE: shell_init:pSet_info <- $r4
	@DEBUG_VALUE: shell_init:pDesc <- [DW_OP_LLVM_entry_value 1] $r0
	@DEBUG_VALUE: shell_init:rval <- 0
	.loc	3 659 44 is_stmt 1              @ ../../../components/utility/cli/shell.c:659:44
	ldr	r0, [r4, #16]
	.loc	3 660 31                        @ ../../../components/utility/cli/shell.c:660:31
	strh	r2, [r7, #44]
	.loc	3 659 31                        @ ../../../components/utility/cli/shell.c:659:31
	str	r0, [r7, #40]
	.loc	3 661 31                        @ ../../../components/utility/cli/shell.c:661:31
	strh	r3, [r7, #46]
	.loc	3 662 31                        @ ../../../components/utility/cli/shell.c:662:31
	str	r0, [r7, #48]
	.loc	3 663 9                         @ ../../../components/utility/cli/shell.c:663:9
	bl	__aeabi_memclr
.Ltmp42:
	@DEBUG_VALUE: i <- 0
	.loc	3 665 38                        @ ../../../components/utility/cli/shell.c:665:38
	ldrh	r0, [r7, #46]
.Ltmp43:
	.loc	3 665 9 is_stmt 0               @ ../../../components/utility/cli/shell.c:665:9
	cbz	r0, .LBB1_7
.Ltmp44:
@ %bb.5:
	@DEBUG_VALUE: shell_init:pSet_info <- $r4
	@DEBUG_VALUE: i <- 0
	@DEBUG_VALUE: shell_init:pDesc <- [DW_OP_LLVM_entry_value 1] $r0
	@DEBUG_VALUE: shell_init:rval <- 0
	.loc	3 0 9                           @ ../../../components/utility/cli/shell.c:0:9
	ldrh	r1, [r7, #44]
	lsls	r2, r0, #2
	movs	r3, #0
.Ltmp45:
	.p2align	2
.LBB1_6:                                @ =>This Inner Loop Header: Depth=1
	@DEBUG_VALUE: shell_init:pSet_info <- $r4
	@DEBUG_VALUE: shell_init:pDesc <- [DW_OP_LLVM_entry_value 1] $r0
	@DEBUG_VALUE: shell_init:rval <- 0
	@DEBUG_VALUE: i <- $r3
	.loc	3 667 70 is_stmt 1              @ ../../../components/utility/cli/shell.c:667:70
	ldr	r5, [r4, #16]
	.loc	3 667 22 is_stmt 0              @ ../../../components/utility/cli/shell.c:667:22
	ldr	r6, [r7, #48]
	.loc	3 667 39                        @ ../../../components/utility/cli/shell.c:667:39
	add	r5, r2
	.loc	3 667 37                        @ ../../../components/utility/cli/shell.c:667:37
	str.w	r5, [r6, r3, lsl #2]
.Ltmp46:
	.loc	3 665 49 is_stmt 1              @ ../../../components/utility/cli/shell.c:665:49
	adds	r3, #1
.Ltmp47:
	@DEBUG_VALUE: i <- $r3
	.loc	3 665 9 is_stmt 0               @ ../../../components/utility/cli/shell.c:665:9
	cmp	r3, r0
	add	r2, r1
	blo	.LBB1_6
.Ltmp48:
.LBB1_7:
	@DEBUG_VALUE: shell_init:pSet_info <- $r4
	@DEBUG_VALUE: shell_init:pDesc <- [DW_OP_LLVM_entry_value 1] $r0
	@DEBUG_VALUE: shell_init:rval <- 0
	.loc	3 672 23 is_stmt 1              @ ../../../components/utility/cli/shell.c:672:23
	ldr	r0, [r7, #4]
.Ltmp49:
	.loc	3 672 14 is_stmt 0              @ ../../../components/utility/cli/shell.c:672:14
	cbz	r0, .LBB1_9
.Ltmp50:
@ %bb.8:
	@DEBUG_VALUE: shell_init:pSet_info <- $r4
	@DEBUG_VALUE: shell_init:pDesc <- [DW_OP_LLVM_entry_value 1] $r0
	@DEBUG_VALUE: shell_init:rval <- 0
	.loc	3 674 54 is_stmt 1              @ ../../../components/utility/cli/shell.c:674:54
	ldr	r1, [r7, #8]
	.loc	3 674 13 is_stmt 0              @ ../../../components/utility/cli/shell.c:674:13
	bl	__aeabi_memclr
.Ltmp51:
.LBB1_9:
	@DEBUG_VALUE: shell_init:pSet_info <- $r4
	@DEBUG_VALUE: shell_init:pDesc <- [DW_OP_LLVM_entry_value 1] $r0
	@DEBUG_VALUE: shell_init:rval <- 0
	.loc	3 0 13                          @ ../../../components/utility/cli/shell.c:0:13
	movs	r0, #0
.Ltmp52:
.LBB1_10:
	@DEBUG_VALUE: shell_init:rval <- 0
	@DEBUG_VALUE: shell_init:rval <- $r0
	.loc	3 684 5 is_stmt 1               @ ../../../components/utility/cli/shell.c:684:5
	add	sp, #4
	pop	{r4, r5, r6, r7, pc}
.Ltmp53:
.Lfunc_end1:
	.size	shell_init, .Lfunc_end1-shell_init
	.cfi_endproc
	.cantunwind
	.fnend
                                        @ -- End function
	.section	.text.shell_deinit,"ax",%progbits
	.hidden	shell_deinit                    @ -- Begin function shell_deinit
	.globl	shell_deinit
	.p2align	1
	.type	shell_deinit,%function
	.code	16                              @ @shell_deinit
	.thumb_func
shell_deinit:
.Lfunc_begin2:
	.loc	3 689 0                         @ ../../../components/utility/cli/shell.c:689:0
	.fnstart
	.cfi_startproc
@ %bb.0:
	@DEBUG_VALUE: shell_deinit:pInfo <- $r0
	@DEBUG_VALUE: shell_deinit:rval <- 0
	.loc	3 693 5 prologue_end            @ ../../../components/utility/cli/shell.c:693:5
	movs	r0, #0
.Ltmp54:
	@DEBUG_VALUE: shell_deinit:pInfo <- [DW_OP_LLVM_entry_value 1] $r0
	bx	lr
.Ltmp55:
.Lfunc_end2:
	.size	shell_deinit, .Lfunc_end2-shell_deinit
	.cfi_endproc
	.cantunwind
	.fnend
                                        @ -- End function
	.section	.text.shell_register_cmd,"ax",%progbits
	.hidden	shell_register_cmd              @ -- Begin function shell_register_cmd
	.globl	shell_register_cmd
	.p2align	1
	.type	shell_register_cmd,%function
	.code	16                              @ @shell_register_cmd
	.thumb_func
shell_register_cmd:
.Lfunc_begin3:
	.loc	3 698 0                         @ ../../../components/utility/cli/shell.c:698:0
	.fnstart
	.cfi_startproc
@ %bb.0:
	@DEBUG_VALUE: shell_register_cmd:pCmd <- $r0
	.loc	3 701 10 prologue_end           @ ../../../components/utility/cli/shell.c:701:10
	movw	r2, :lower16:g_pCmd_head
	movt	r2, :upper16:g_pCmd_head
	ldr	r3, [r2]
	mov	r1, r0
.Ltmp56:
	@DEBUG_VALUE: shell_register_cmd:rval <- 0
	@DEBUG_VALUE: shell_register_cmd:pCmd <- $r1
	.loc	3 701 10 is_stmt 0              @ ../../../components/utility/cli/shell.c:701:10
	cbz	r3, .LBB3_2
.Ltmp57:
	.p2align	2
.LBB3_1:                                @ =>This Inner Loop Header: Depth=1
	@DEBUG_VALUE: shell_register_cmd:pCmd <- $r1
	@DEBUG_VALUE: shell_register_cmd:rval <- 0
	.loc	3 0 0                           @ ../../../components/utility/cli/shell.c:0:0
	mov	r2, r3
.Ltmp58:
	@DEBUG_VALUE: pCur <- $r2
	.loc	3 705 23 is_stmt 1              @ ../../../components/utility/cli/shell.c:705:23
	ldr	r3, [r3]
	.loc	3 705 9 is_stmt 0               @ ../../../components/utility/cli/shell.c:705:9
	cmp	r3, #0
	bne	.LBB3_1
.Ltmp59:
.LBB3_2:
	@DEBUG_VALUE: shell_register_cmd:pCmd <- $r1
	@DEBUG_VALUE: shell_register_cmd:rval <- 0
	.loc	3 716 5 is_stmt 1               @ ../../../components/utility/cli/shell.c:716:5
	movs	r0, #0
.Ltmp60:
	.loc	3 0 0 is_stmt 0                 @ ../../../components/utility/cli/shell.c:0:0
	str	r1, [r2]
.Ltmp61:
	.loc	3 716 5                         @ ../../../components/utility/cli/shell.c:716:5
	bx	lr
.Ltmp62:
.Lfunc_end3:
	.size	shell_register_cmd, .Lfunc_end3-shell_register_cmd
	.cfi_endproc
	.cantunwind
	.fnend
                                        @ -- End function
	.section	.text.shell_proc,"ax",%progbits
	.hidden	shell_proc                      @ -- Begin function shell_proc
	.globl	shell_proc
	.p2align	2
	.type	shell_proc,%function
	.code	16                              @ @shell_proc
	.thumb_func
shell_proc:
.Lfunc_begin4:
	.loc	3 721 0 is_stmt 1               @ ../../../components/utility/cli/shell.c:721:0
	.fnstart
	.cfi_startproc
@ %bb.0:
	@DEBUG_VALUE: shell_proc:pArg <- $r0
	.save	{r4, r5, r6, r7, r8, r9, r10, r11, lr}
	push.w	{r4, r5, r6, r7, r8, r9, r10, r11, lr}
	.cfi_def_cfa_offset 36
	.cfi_offset lr, -4
	.cfi_offset r11, -8
	.cfi_offset r10, -12
	.cfi_offset r9, -16
	.cfi_offset r8, -20
	.cfi_offset r7, -24
	.cfi_offset r6, -28
	.cfi_offset r5, -32
	.cfi_offset r4, -36
	.pad	#116
	sub	sp, #116
	.cfi_def_cfa_offset 152
.Ltmp63:
	.loc	3 722 37 prologue_end           @ ../../../components/utility/cli/shell.c:722:37
	movw	r5, :lower16:g_sh_dev
	mov	r4, r0
.Ltmp64:
	@DEBUG_VALUE: shell_proc:pArg <- $r4
	@DEBUG_VALUE: shell_proc:pArg <- $r4
	movt	r5, :upper16:g_sh_dev
	movw	r0, :lower16:g_esc_code_table
	ldr	r6, [r5]
.Ltmp65:
	@DEBUG_VALUE: shell_proc:pIO <- $r6
	.loc	3 0 37 is_stmt 0                @ ../../../components/utility/cli/shell.c:0:37
	movw	r9, #48879
	movw	r8, :lower16:shell_proc.is_line_head
	movt	r0, :upper16:g_esc_code_table
	movt	r9, #57005
	movt	r8, :upper16:shell_proc.is_line_head
	mov.w	r10, #0
	adds	r0, #8
	str	r0, [sp]                        @ 4-byte Spill
	strd	r4, r6, [sp, #8]                @ 8-byte Folded Spill
.Ltmp66:
	.p2align	2
.LBB4_1:                                @ =>This Loop Header: Depth=1
                                        @     Child Loop BB4_23 Depth 2
                                        @     Child Loop BB4_97 Depth 2
                                        @     Child Loop BB4_90 Depth 2
                                        @     Child Loop BB4_75 Depth 2
                                        @     Child Loop BB4_30 Depth 2
                                        @     Child Loop BB4_17 Depth 2
                                        @     Child Loop BB4_35 Depth 2
                                        @     Child Loop BB4_53 Depth 2
                                        @     Child Loop BB4_57 Depth 2
	@DEBUG_VALUE: rval <- 0
	.loc	3 730 27 is_stmt 1              @ ../../../components/utility/cli/shell.c:730:27
	str.w	r9, [r4, #8]
	.loc	3 732 14                        @ ../../../components/utility/cli/shell.c:732:14
	cbz	r6, .LBB4_10
.Ltmp67:
@ %bb.2:                                @   in Loop: Header=BB4_1 Depth=1
	@DEBUG_VALUE: rval <- 0
	.loc	3 734 18                        @ ../../../components/utility/cli/shell.c:734:18
	ldrb.w	r0, [r8]
.Ltmp68:
	.loc	3 734 18 is_stmt 0              @ ../../../components/utility/cli/shell.c:734:18
	cbnz	r0, .LBB4_6
.Ltmp69:
@ %bb.3:                                @   in Loop: Header=BB4_1 Depth=1
	@DEBUG_VALUE: rval <- 0
	.loc	3 736 27 is_stmt 1              @ ../../../components/utility/cli/shell.c:736:27
	ldr	r3, [r6, #4]
.Ltmp70:
	.loc	3 736 22 is_stmt 0              @ ../../../components/utility/cli/shell.c:736:22
	cbz	r3, .LBB4_5
.Ltmp71:
@ %bb.4:                                @   in Loop: Header=BB4_1 Depth=1
	@DEBUG_VALUE: rval <- 0
	.loc	3 738 91 is_stmt 1              @ ../../../components/utility/cli/shell.c:738:91
	ldr	r2, [r5, #36]
	.loc	3 738 21 is_stmt 0              @ ../../../components/utility/cli/shell.c:738:21
	adr.w	r0, .LCPI4_0
	movs	r1, #4
	blx	r3
.Ltmp72:
.LBB4_5:                                @   in Loop: Header=BB4_1 Depth=1
	@DEBUG_VALUE: rval <- 0
	.loc	3 740 30 is_stmt 1              @ ../../../components/utility/cli/shell.c:740:30
	movs	r0, #1
	strb.w	r0, [r8]
.Ltmp73:
.LBB4_6:                                @   in Loop: Header=BB4_1 Depth=1
	@DEBUG_VALUE: rval <- 0
	@DEBUG_VALUE: _shell_read_line:pIO <- $r6
	@DEBUG_VALUE: _shell_read_line:pIO <- [DW_OP_plus_uconst 12] [$sp+0]
	@DEBUG_VALUE: _shell_read_line:rval <- 0
	@DEBUG_VALUE: c <- 0
	.loc	3 467 20                        @ ../../../components/utility/cli/shell.c:467:20
	ldr	r3, [r6]
.Ltmp74:
	.loc	3 465 17                        @ ../../../components/utility/cli/shell.c:465:17
	strb.w	r10, [sp, #115]
.Ltmp75:
	.loc	3 467 28                        @ ../../../components/utility/cli/shell.c:467:28
	cmp	r3, #0
	beq.w	.LBB4_64
.Ltmp76:
@ %bb.7:                                @   in Loop: Header=BB4_1 Depth=1
	@DEBUG_VALUE: _shell_read_line:pIO <- [DW_OP_plus_uconst 12] [$sp+0]
	@DEBUG_VALUE: c <- 0
	@DEBUG_VALUE: _shell_read_line:rval <- 0
	@DEBUG_VALUE: rval <- 0
	.loc	3 467 37 is_stmt 0              @ ../../../components/utility/cli/shell.c:467:37
	ldr	r0, [sp, #12]                   @ 4-byte Reload
	ldr	r0, [r0, #4]
.Ltmp77:
	.loc	3 467 14                        @ ../../../components/utility/cli/shell.c:467:14
	cmp	r0, #0
	str	r0, [sp, #4]                    @ 4-byte Spill
	beq.w	.LBB4_64
.Ltmp78:
@ %bb.8:                                @   in Loop: Header=BB4_1 Depth=1
	@DEBUG_VALUE: _shell_read_line:pIO <- [DW_OP_plus_uconst 12] [$sp+0]
	@DEBUG_VALUE: c <- 0
	@DEBUG_VALUE: _shell_read_line:rval <- 0
	@DEBUG_VALUE: rval <- 0
	@DEBUG_VALUE: cb_read <- $r3
	@DEBUG_VALUE: cb_write <- [DW_OP_plus_uconst 4] [$sp+0]
	.loc	3 475 46 is_stmt 1              @ ../../../components/utility/cli/shell.c:475:46
	ldr	r0, [r5, #8]
	.loc	3 475 22 is_stmt 0              @ ../../../components/utility/cli/shell.c:475:22
	ldr	r1, [r5, #20]
	.loc	3 475 59                        @ ../../../components/utility/cli/shell.c:475:59
	subs	r0, #1
.Ltmp79:
	.loc	3 475 13                        @ ../../../components/utility/cli/shell.c:475:13
	cmp	r1, r0
	ittt	eq
	moveq	r0, #0
.Ltmp80:
	.loc	3 479 29 is_stmt 1              @ ../../../components/utility/cli/shell.c:479:29
	strdeq	r0, r0, [r5, #12]
	.loc	3 477 33                        @ ../../../components/utility/cli/shell.c:477:33
	streq	r0, [r5, #20]
.Ltmp81:
	.loc	3 482 49                        @ ../../../components/utility/cli/shell.c:482:49
	ldr	r2, [r5, #36]
.Ltmp82:
	@DEBUG_VALUE: c <- [DW_OP_plus_uconst 115, DW_OP_deref] $sp
	.loc	3 482 14 is_stmt 0              @ ../../../components/utility/cli/shell.c:482:14
	add.w	r0, sp, #115
	movs	r1, #1
	blx	r3
.Ltmp83:
	.loc	3 482 14                        @ ../../../components/utility/cli/shell.c:482:14
	cmp	r0, #0
	beq.w	.LBB4_64
.Ltmp84:
@ %bb.9:                                @   in Loop: Header=BB4_1 Depth=1
	@DEBUG_VALUE: c <- [DW_OP_plus_uconst 115, DW_OP_deref] $sp
	@DEBUG_VALUE: cb_write <- [DW_OP_plus_uconst 4] [$sp+0]
	@DEBUG_VALUE: _shell_read_line:pIO <- [DW_OP_plus_uconst 12] [$sp+0]
	@DEBUG_VALUE: _shell_read_line:rval <- 0
	@DEBUG_VALUE: rval <- 0
	@DEBUG_VALUE: pos <- 0
	@DEBUG_VALUE: rd_pos <- undef
	@DEBUG_VALUE: wr_pos <- undef
	@DEBUG_VALUE: esc_code <- 0
	.loc	3 490 47 is_stmt 1              @ ../../../components/utility/cli/shell.c:490:47
	ldr	r4, [r5, #16]
.Ltmp85:
	@DEBUG_VALUE: shell_proc:pArg <- [DW_OP_LLVM_entry_value 1] $r0
	.loc	3 494 43                        @ ../../../components/utility/cli/shell.c:494:43
	ldr	r0, [r5, #8]
	.loc	3 494 27 is_stmt 0              @ ../../../components/utility/cli/shell.c:494:27
	adds	r1, r4, #1
	.loc	3 494 32                        @ ../../../components/utility/cli/shell.c:494:32
	udiv	r2, r1, r0
	.loc	3 491 47 is_stmt 1              @ ../../../components/utility/cli/shell.c:491:47
	ldr	r3, [r5, #12]
	.loc	3 494 32                        @ ../../../components/utility/cli/shell.c:494:32
	mls	r7, r2, r0, r1
.Ltmp86:
	@DEBUG_VALUE: pos <- $r7
	.loc	3 495 18                        @ ../../../components/utility/cli/shell.c:495:18
	cmp	r7, r3
	bne	.LBB4_13
	b	.LBB4_64
.Ltmp87:
.LBB4_10:                               @   in Loop: Header=BB4_1 Depth=1
	.loc	3 836 20                        @ ../../../components/utility/cli/shell.c:836:20
	ldr	r1, [r4, #12]
.Ltmp88:
	.loc	3 836 14 is_stmt 0              @ ../../../components/utility/cli/shell.c:836:14
	cbz	r1, .LBB4_12
@ %bb.11:                               @   in Loop: Header=BB4_1 Depth=1
.Ltmp89:
	.loc	3 838 13 is_stmt 1              @ ../../../components/utility/cli/shell.c:838:13
	mov	r0, r4
	blx	r1
.Ltmp90:
.LBB4_12:                               @   in Loop: Header=BB4_1 Depth=1
	.loc	3 840 21                        @ ../../../components/utility/cli/shell.c:840:21
	ldr	r0, [r4]
.Ltmp91:
	.loc	3 840 5 is_stmt 0               @ ../../../components/utility/cli/shell.c:840:5
	cmp	r0, #0
	bne	.LBB4_1
	b	.LBB4_100
.LBB4_13:                               @   in Loop: Header=BB4_1 Depth=1
.Ltmp92:
	@DEBUG_VALUE: pos <- $r7
	@DEBUG_VALUE: c <- [DW_OP_plus_uconst 115, DW_OP_deref] $sp
	@DEBUG_VALUE: cb_write <- [DW_OP_plus_uconst 4] [$sp+0]
	@DEBUG_VALUE: _shell_read_line:pIO <- [DW_OP_plus_uconst 12] [$sp+0]
	@DEBUG_VALUE: esc_code <- 0
	@DEBUG_VALUE: _shell_read_line:rval <- 0
	@DEBUG_VALUE: rval <- 0
	.loc	3 500 18 is_stmt 1              @ ../../../components/utility/cli/shell.c:500:18
	ldrb.w	r9, [sp, #115]
.Ltmp93:
	@DEBUG_VALUE: c <- $r9
	.loc	3 500 28 is_stmt 0              @ ../../../components/utility/cli/shell.c:500:28
	cmp.w	r9, #13
	beq	.LBB4_15
.Ltmp94:
@ %bb.14:                               @   in Loop: Header=BB4_1 Depth=1
	@DEBUG_VALUE: c <- $r9
	@DEBUG_VALUE: pos <- $r7
	@DEBUG_VALUE: cb_write <- [DW_OP_plus_uconst 4] [$sp+0]
	@DEBUG_VALUE: _shell_read_line:pIO <- [DW_OP_plus_uconst 12] [$sp+0]
	@DEBUG_VALUE: esc_code <- 0
	@DEBUG_VALUE: _shell_read_line:rval <- 0
	@DEBUG_VALUE: rval <- 0
	cmp.w	r9, #10
	bne	.LBB4_19
.Ltmp95:
.LBB4_15:                               @   in Loop: Header=BB4_1 Depth=1
	@DEBUG_VALUE: c <- $r9
	@DEBUG_VALUE: pos <- $r7
	@DEBUG_VALUE: cb_write <- [DW_OP_plus_uconst 4] [$sp+0]
	@DEBUG_VALUE: _shell_read_line:pIO <- [DW_OP_plus_uconst 12] [$sp+0]
	@DEBUG_VALUE: esc_code <- 0
	@DEBUG_VALUE: _shell_read_line:rval <- 0
	@DEBUG_VALUE: rval <- 0
	.loc	3 508 26 is_stmt 1              @ ../../../components/utility/cli/shell.c:508:26
	ldr	r0, [r5, #4]
	mov.w	r10, #0
	.loc	3 508 44 is_stmt 0              @ ../../../components/utility/cli/shell.c:508:44
	strb.w	r10, [r0, r4]
.Ltmp96:
	.loc	3 186 60 is_stmt 1              @ ../../../components/utility/cli/shell.c:186:60
	ldrh	r1, [r5, #46]
	.loc	3 186 39 is_stmt 0              @ ../../../components/utility/cli/shell.c:186:39
	ldr	r2, [r5, #48]
.Ltmp97:
	.loc	3 509 44 is_stmt 1              @ ../../../components/utility/cli/shell.c:509:44
	str	r7, [r5, #16]
.Ltmp98:
	.loc	3 186 69                        @ ../../../components/utility/cli/shell.c:186:69
	subs	r7, r1, #1
.Ltmp99:
	.loc	3 511 49                        @ ../../../components/utility/cli/shell.c:511:49
	ldr	r3, [r5, #4]
.Ltmp100:
	@DEBUG_VALUE: _shell_push_to_history:rval <- 0
	@DEBUG_VALUE: _shell_push_to_history:pLine <- $r3
	.loc	3 186 30                        @ ../../../components/utility/cli/shell.c:186:30
	ldr.w	r0, [r2, r7, lsl #2]
.Ltmp101:
	@DEBUG_VALUE: i <- $r7
	@DEBUG_VALUE: pAct_line <- $r0
	.loc	3 188 9                         @ ../../../components/utility/cli/shell.c:188:9
	cmp	r1, #2
	blo	.LBB4_32
.Ltmp102:
@ %bb.16:                               @   in Loop: Header=BB4_1 Depth=1
	@DEBUG_VALUE: c <- $r9
	@DEBUG_VALUE: i <- $r7
	@DEBUG_VALUE: _shell_push_to_history:pLine <- $r3
	@DEBUG_VALUE: pAct_line <- $r0
	@DEBUG_VALUE: cb_write <- [DW_OP_plus_uconst 4] [$sp+0]
	@DEBUG_VALUE: _shell_read_line:pIO <- [DW_OP_plus_uconst 12] [$sp+0]
	@DEBUG_VALUE: _shell_push_to_history:rval <- 0
	@DEBUG_VALUE: esc_code <- 0
	@DEBUG_VALUE: _shell_read_line:rval <- 0
	@DEBUG_VALUE: rval <- 0
	@DEBUG_VALUE: i <- $r7
	.loc	3 190 39                        @ ../../../components/utility/cli/shell.c:190:39
	add.w	r6, r2, r1, lsl #2
	ldr	r6, [r6, #-8]
	ldr	r4, [sp, #8]                    @ 4-byte Reload
.Ltmp103:
	.loc	3 188 9                         @ ../../../components/utility/cli/shell.c:188:9
	cmp	r1, #2
.Ltmp104:
	.loc	3 190 37                        @ ../../../components/utility/cli/shell.c:190:37
	str.w	r6, [r2, r7, lsl #2]
.Ltmp105:
	@DEBUG_VALUE: i <- undef
	.loc	3 188 9                         @ ../../../components/utility/cli/shell.c:188:9
	beq	.LBB4_18
.Ltmp106:
	.p2align	2
.LBB4_17:                               @   Parent Loop BB4_1 Depth=1
                                        @ =>  This Inner Loop Header: Depth=2
	@DEBUG_VALUE: c <- $r9
	@DEBUG_VALUE: _shell_push_to_history:pLine <- $r3
	@DEBUG_VALUE: pAct_line <- $r0
	@DEBUG_VALUE: cb_write <- [DW_OP_plus_uconst 4] [$sp+0]
	@DEBUG_VALUE: _shell_read_line:pIO <- [DW_OP_plus_uconst 12] [$sp+0]
	@DEBUG_VALUE: _shell_push_to_history:rval <- 0
	@DEBUG_VALUE: esc_code <- 0
	@DEBUG_VALUE: _shell_read_line:rval <- 0
	@DEBUG_VALUE: rval <- 0
	.loc	3 190 48                        @ ../../../components/utility/cli/shell.c:190:48
	ldr	r2, [r5, #48]
.Ltmp107:
	@DEBUG_VALUE: i <- [DW_OP_constu 2, DW_OP_minus, DW_OP_stack_value] $r1
	.loc	3 190 39 is_stmt 0              @ ../../../components/utility/cli/shell.c:190:39
	add.w	r2, r2, r1, lsl #2
	ldr	r7, [r2, #-12]
	.loc	3 190 37                        @ ../../../components/utility/cli/shell.c:190:37
	str	r7, [r2, #-8]
.Ltmp108:
	@DEBUG_VALUE: i <- [DW_OP_constu 3, DW_OP_minus, DW_OP_stack_value] $r1
	.loc	3 188 47 is_stmt 1              @ ../../../components/utility/cli/shell.c:188:47
	subs	r2, r1, #2
	subs	r1, #1
.Ltmp109:
	.loc	3 188 9 is_stmt 0               @ ../../../components/utility/cli/shell.c:188:9
	cmp	r2, #1
	bgt	.LBB4_17
.Ltmp110:
.LBB4_18:                               @   in Loop: Header=BB4_1 Depth=1
	@DEBUG_VALUE: c <- $r9
	@DEBUG_VALUE: _shell_push_to_history:pLine <- $r3
	@DEBUG_VALUE: pAct_line <- $r0
	@DEBUG_VALUE: cb_write <- [DW_OP_plus_uconst 4] [$sp+0]
	@DEBUG_VALUE: _shell_read_line:pIO <- [DW_OP_plus_uconst 12] [$sp+0]
	@DEBUG_VALUE: _shell_push_to_history:rval <- 0
	@DEBUG_VALUE: esc_code <- 0
	@DEBUG_VALUE: _shell_read_line:rval <- 0
	@DEBUG_VALUE: rval <- 0
	.loc	3 193 18 is_stmt 1              @ ../../../components/utility/cli/shell.c:193:18
	ldr	r2, [r5, #48]
	ldr	r6, [sp, #12]                   @ 4-byte Reload
	b	.LBB4_33
.Ltmp111:
.LBB4_19:                               @   in Loop: Header=BB4_1 Depth=1
	@DEBUG_VALUE: c <- $r9
	@DEBUG_VALUE: pos <- $r7
	@DEBUG_VALUE: cb_write <- [DW_OP_plus_uconst 4] [$sp+0]
	@DEBUG_VALUE: _shell_read_line:pIO <- [DW_OP_plus_uconst 12] [$sp+0]
	@DEBUG_VALUE: esc_code <- 0
	@DEBUG_VALUE: _shell_read_line:rval <- 0
	@DEBUG_VALUE: rval <- 0
	@DEBUG_VALUE: _shell_get_esc_code:pEsc_code <- undef
	@DEBUG_VALUE: _shell_get_esc_code:rval <- 0
	.loc	3 271 51                        @ ../../../components/utility/cli/shell.c:271:51
	cmp.w	r9, #27
.Ltmp112:
	@DEBUG_VALUE: pEsc_item_cur <- undef
	@DEBUG_VALUE: _shell_get_esc_code:character <- undef
	beq	.LBB4_21
.Ltmp113:
@ %bb.20:                               @   in Loop: Header=BB4_1 Depth=1
	@DEBUG_VALUE: c <- $r9
	@DEBUG_VALUE: pos <- $r7
	@DEBUG_VALUE: cb_write <- [DW_OP_plus_uconst 4] [$sp+0]
	@DEBUG_VALUE: _shell_read_line:pIO <- [DW_OP_plus_uconst 12] [$sp+0]
	@DEBUG_VALUE: _shell_get_esc_code:rval <- 0
	@DEBUG_VALUE: esc_code <- 0
	@DEBUG_VALUE: _shell_read_line:rval <- 0
	@DEBUG_VALUE: rval <- 0
	.loc	3 0 51 is_stmt 0                @ ../../../components/utility/cli/shell.c:0:51
	ldr	r0, [r5, #32]
	.loc	3 271 51                        @ ../../../components/utility/cli/shell.c:271:51
	cmp	r0, #8
	blo	.LBB4_22
.Ltmp114:
.LBB4_21:                               @   in Loop: Header=BB4_1 Depth=1
	@DEBUG_VALUE: c <- $r9
	@DEBUG_VALUE: pos <- $r7
	@DEBUG_VALUE: cb_write <- [DW_OP_plus_uconst 4] [$sp+0]
	@DEBUG_VALUE: _shell_read_line:pIO <- [DW_OP_plus_uconst 12] [$sp+0]
	@DEBUG_VALUE: _shell_get_esc_code:rval <- 0
	@DEBUG_VALUE: esc_code <- 0
	@DEBUG_VALUE: _shell_read_line:rval <- 0
	@DEBUG_VALUE: rval <- 0
	.loc	3 0 51                          @ ../../../components/utility/cli/shell.c:0:51
	movs	r0, #0
.Ltmp115:
	.loc	3 275 51 is_stmt 1              @ ../../../components/utility/cli/shell.c:275:51
	strd	r0, r0, [r5, #24]
.Ltmp116:
.LBB4_22:                               @   in Loop: Header=BB4_1 Depth=1
	@DEBUG_VALUE: c <- $r9
	@DEBUG_VALUE: pos <- $r7
	@DEBUG_VALUE: cb_write <- [DW_OP_plus_uconst 4] [$sp+0]
	@DEBUG_VALUE: _shell_read_line:pIO <- [DW_OP_plus_uconst 12] [$sp+0]
	@DEBUG_VALUE: _shell_get_esc_code:rval <- 0
	@DEBUG_VALUE: esc_code <- 0
	@DEBUG_VALUE: _shell_read_line:rval <- 0
	@DEBUG_VALUE: rval <- 0
	.loc	3 279 66                        @ ../../../components/utility/cli/shell.c:279:66
	adds	r1, r0, #1
	.loc	3 279 9 is_stmt 0               @ ../../../components/utility/cli/shell.c:279:9
	add	r0, r5
	.loc	3 279 66                        @ ../../../components/utility/cli/shell.c:279:66
	str	r1, [r5, #32]
	.loc	3 279 70                        @ ../../../components/utility/cli/shell.c:279:70
	strb.w	r9, [r0, #24]
	ldr.w	r11, [r5, #32]
	ldr.w	r8, [sp]                        @ 4-byte Reload
	movs	r6, #1
.Ltmp117:
	@DEBUG_VALUE: pEsc_item_cur <- undef
	.p2align	2
.LBB4_23:                               @   Parent Loop BB4_1 Depth=1
                                        @ =>  This Inner Loop Header: Depth=2
	@DEBUG_VALUE: c <- $r9
	@DEBUG_VALUE: pos <- $r7
	@DEBUG_VALUE: cb_write <- [DW_OP_plus_uconst 4] [$sp+0]
	@DEBUG_VALUE: _shell_read_line:pIO <- [DW_OP_plus_uconst 12] [$sp+0]
	@DEBUG_VALUE: _shell_get_esc_code:rval <- 0
	@DEBUG_VALUE: esc_code <- 0
	@DEBUG_VALUE: _shell_read_line:rval <- 0
	@DEBUG_VALUE: rval <- 0
	@DEBUG_VALUE: pEsc_item_cur <- undef
	.loc	3 283 65 is_stmt 1              @ ../../../components/utility/cli/shell.c:283:65
	ldrh	r2, [r8, #-4]
.Ltmp118:
	.loc	3 283 18 is_stmt 0              @ ../../../components/utility/cli/shell.c:283:18
	cmp	r11, r2
	blt	.LBB4_25
.Ltmp119:
@ %bb.24:                               @   in Loop: Header=BB4_23 Depth=2
	@DEBUG_VALUE: c <- $r9
	@DEBUG_VALUE: pos <- $r7
	@DEBUG_VALUE: cb_write <- [DW_OP_plus_uconst 4] [$sp+0]
	@DEBUG_VALUE: _shell_read_line:pIO <- [DW_OP_plus_uconst 12] [$sp+0]
	@DEBUG_VALUE: _shell_get_esc_code:rval <- 0
	@DEBUG_VALUE: esc_code <- 0
	@DEBUG_VALUE: _shell_read_line:rval <- 0
	@DEBUG_VALUE: rval <- 0
	.loc	3 289 19 is_stmt 1              @ ../../../components/utility/cli/shell.c:289:19
	movw	r1, :lower16:g_sh_dev
	.loc	3 289 42 is_stmt 0              @ ../../../components/utility/cli/shell.c:289:42
	ldr.w	r0, [r8]
	.loc	3 289 19                        @ ../../../components/utility/cli/shell.c:289:19
	movt	r1, :upper16:g_sh_dev
	adds	r1, #24
	bl	strncmp
.Ltmp120:
	.loc	3 289 18                        @ ../../../components/utility/cli/shell.c:289:18
	cmp	r0, #0
	beq.w	.LBB4_61
.Ltmp121:
.LBB4_25:                               @   in Loop: Header=BB4_23 Depth=2
	@DEBUG_VALUE: c <- $r9
	@DEBUG_VALUE: pos <- $r7
	@DEBUG_VALUE: cb_write <- [DW_OP_plus_uconst 4] [$sp+0]
	@DEBUG_VALUE: _shell_read_line:pIO <- [DW_OP_plus_uconst 12] [$sp+0]
	@DEBUG_VALUE: _shell_get_esc_code:rval <- 0
	@DEBUG_VALUE: esc_code <- 0
	@DEBUG_VALUE: _shell_read_line:rval <- 0
	@DEBUG_VALUE: rval <- 0
	@DEBUG_VALUE: pEsc_item_cur <- [DW_OP_plus_uconst 12, DW_OP_stack_value] undef
	.loc	3 281 32 is_stmt 1              @ ../../../components/utility/cli/shell.c:281:32
	ldr.w	r6, [r8, #4]
	.loc	3 281 9 is_stmt 0               @ ../../../components/utility/cli/shell.c:281:9
	add.w	r8, r8, #12
	cmp	r6, #14
	bne	.LBB4_23
.Ltmp122:
@ %bb.26:                               @   in Loop: Header=BB4_1 Depth=1
	@DEBUG_VALUE: c <- $r9
	@DEBUG_VALUE: pos <- $r7
	@DEBUG_VALUE: cb_write <- [DW_OP_plus_uconst 4] [$sp+0]
	@DEBUG_VALUE: _shell_read_line:pIO <- [DW_OP_plus_uconst 12] [$sp+0]
	@DEBUG_VALUE: _shell_get_esc_code:rval <- 0
	@DEBUG_VALUE: esc_code <- 0
	@DEBUG_VALUE: _shell_read_line:rval <- 0
	@DEBUG_VALUE: rval <- 0
	.loc	3 304 49 is_stmt 1              @ ../../../components/utility/cli/shell.c:304:49
	cmp.w	r9, #27
	movw	r5, :lower16:g_sh_dev
	movw	r9, #48879
.Ltmp123:
	.loc	3 0 49 is_stmt 0                @ ../../../components/utility/cli/shell.c:0:49
	movw	r8, :lower16:shell_proc.is_line_head
	movt	r5, :upper16:g_sh_dev
	movt	r9, #57005
	movt	r8, :upper16:shell_proc.is_line_head
	.loc	3 304 49                        @ ../../../components/utility/cli/shell.c:304:49
	beq.w	.LBB4_64
.Ltmp124:
@ %bb.27:                               @   in Loop: Header=BB4_1 Depth=1
	@DEBUG_VALUE: pos <- $r7
	@DEBUG_VALUE: cb_write <- [DW_OP_plus_uconst 4] [$sp+0]
	@DEBUG_VALUE: _shell_read_line:pIO <- [DW_OP_plus_uconst 12] [$sp+0]
	@DEBUG_VALUE: _shell_get_esc_code:rval <- 0
	@DEBUG_VALUE: esc_code <- 0
	@DEBUG_VALUE: _shell_read_line:rval <- 0
	@DEBUG_VALUE: rval <- 0
	cmp.w	r11, #1
	bne.w	.LBB4_64
.Ltmp125:
@ %bb.28:                               @   in Loop: Header=BB4_1 Depth=1
	@DEBUG_VALUE: pos <- $r7
	@DEBUG_VALUE: cb_write <- [DW_OP_plus_uconst 4] [$sp+0]
	@DEBUG_VALUE: _shell_read_line:pIO <- [DW_OP_plus_uconst 12] [$sp+0]
	@DEBUG_VALUE: _shell_get_esc_code:rval <- 0
	@DEBUG_VALUE: esc_code <- 0
	@DEBUG_VALUE: _shell_read_line:rval <- 0
	@DEBUG_VALUE: rval <- 0
	.loc	3 525 31 is_stmt 1              @ ../../../components/utility/cli/shell.c:525:31
	ldr	r0, [r5, #20]
	movs	r1, #0
.Ltmp126:
	.loc	3 525 22 is_stmt 0              @ ../../../components/utility/cli/shell.c:525:22
	cmp	r0, r4
.Ltmp127:
	@DEBUG_VALUE: len <- 0
	.loc	3 0 22                          @ ../../../components/utility/cli/shell.c:0:22
	mov	r2, r4
.Ltmp128:
	@DEBUG_VALUE: esc_code <- 14
	@DEBUG_VALUE: pLine_buf <- undef
	.loc	3 309 51 is_stmt 1              @ ../../../components/utility/cli/shell.c:309:51
	str	r1, [r5, #24]
	@DEBUG_VALUE: len <- 0
	.loc	3 310 51                        @ ../../../components/utility/cli/shell.c:310:51
	str	r1, [r5, #28]
	.loc	3 308 43                        @ ../../../components/utility/cli/shell.c:308:43
	str	r1, [r5, #32]
.Ltmp129:
	@DEBUG_VALUE: len <- 0
	.loc	3 525 22                        @ ../../../components/utility/cli/shell.c:525:22
	bhi.w	.LBB4_64
.Ltmp130:
@ %bb.29:                               @   in Loop: Header=BB4_1 Depth=1
	@DEBUG_VALUE: pos <- $r7
	@DEBUG_VALUE: cb_write <- [DW_OP_plus_uconst 4] [$sp+0]
	@DEBUG_VALUE: _shell_read_line:pIO <- [DW_OP_plus_uconst 12] [$sp+0]
	@DEBUG_VALUE: len <- 0
	@DEBUG_VALUE: esc_code <- 14
	@DEBUG_VALUE: _shell_read_line:rval <- 0
	@DEBUG_VALUE: rval <- 0
	.loc	3 0 0 is_stmt 0                 @ ../../../components/utility/cli/shell.c:0:0
	ldr	r6, [r5, #4]
.Ltmp131:
	@DEBUG_VALUE: pLine_buf <- $r6
	.loc	3 531 23 is_stmt 1              @ ../../../components/utility/cli/shell.c:531:23
	mov	r0, r6
	bl	strlen
.Ltmp132:
	@DEBUG_VALUE: len <- $r0
	.loc	3 532 31                        @ ../../../components/utility/cli/shell.c:532:31
	adds	r1, r0, r6
	mov.w	r11, #0
	.loc	3 532 36 is_stmt 0              @ ../../../components/utility/cli/shell.c:532:36
	strb.w	r11, [r1, #1]
.Ltmp133:
	@DEBUG_VALUE: i <- $r0
	.loc	3 534 48 is_stmt 1              @ ../../../components/utility/cli/shell.c:534:48
	ldr	r1, [r5, #20]
.Ltmp134:
	.p2align	2
.LBB4_30:                               @   Parent Loop BB4_1 Depth=1
                                        @ =>  This Inner Loop Header: Depth=2
	@DEBUG_VALUE: pos <- $r7
	@DEBUG_VALUE: pLine_buf <- $r6
	@DEBUG_VALUE: cb_write <- [DW_OP_plus_uconst 4] [$sp+0]
	@DEBUG_VALUE: _shell_read_line:pIO <- [DW_OP_plus_uconst 12] [$sp+0]
	@DEBUG_VALUE: esc_code <- 14
	@DEBUG_VALUE: _shell_read_line:rval <- 0
	@DEBUG_VALUE: rval <- 0
	.loc	3 534 17 is_stmt 0              @ ../../../components/utility/cli/shell.c:534:17
	cmp	r0, r1
	bls.w	.LBB4_67
.Ltmp135:
@ %bb.31:                               @   in Loop: Header=BB4_30 Depth=2
	@DEBUG_VALUE: pos <- $r7
	@DEBUG_VALUE: pLine_buf <- $r6
	@DEBUG_VALUE: cb_write <- [DW_OP_plus_uconst 4] [$sp+0]
	@DEBUG_VALUE: _shell_read_line:pIO <- [DW_OP_plus_uconst 12] [$sp+0]
	@DEBUG_VALUE: esc_code <- 14
	@DEBUG_VALUE: _shell_read_line:rval <- 0
	@DEBUG_VALUE: rval <- 0
	@DEBUG_VALUE: i <- $r0
	.loc	3 536 36 is_stmt 1              @ ../../../components/utility/cli/shell.c:536:36
	adds	r1, r6, r0
	ldrb	r1, [r1, #-1]
	.loc	3 536 34 is_stmt 0              @ ../../../components/utility/cli/shell.c:536:34
	strb	r1, [r6, r0]
.Ltmp136:
	@DEBUG_VALUE: i <- undef
	.loc	3 534 48 is_stmt 1              @ ../../../components/utility/cli/shell.c:534:48
	ldr	r1, [r5, #20]
.Ltmp137:
	.loc	3 536 48                        @ ../../../components/utility/cli/shell.c:536:48
	subs	r0, #1
	b	.LBB4_30
.Ltmp138:
.LBB4_32:                               @   in Loop: Header=BB4_1 Depth=1
	@DEBUG_VALUE: c <- $r9
	@DEBUG_VALUE: i <- $r7
	@DEBUG_VALUE: _shell_push_to_history:pLine <- $r3
	@DEBUG_VALUE: pAct_line <- $r0
	@DEBUG_VALUE: cb_write <- [DW_OP_plus_uconst 4] [$sp+0]
	@DEBUG_VALUE: _shell_read_line:pIO <- [DW_OP_plus_uconst 12] [$sp+0]
	@DEBUG_VALUE: _shell_push_to_history:rval <- 0
	@DEBUG_VALUE: esc_code <- 0
	@DEBUG_VALUE: _shell_read_line:rval <- 0
	@DEBUG_VALUE: rval <- 0
	.loc	3 0 48 is_stmt 0                @ ../../../components/utility/cli/shell.c:0:48
	ldrd	r4, r6, [sp, #8]                @ 8-byte Folded Reload
.Ltmp139:
.LBB4_33:                               @   in Loop: Header=BB4_1 Depth=1
	@DEBUG_VALUE: c <- $r9
	@DEBUG_VALUE: _shell_push_to_history:pLine <- $r3
	@DEBUG_VALUE: pAct_line <- $r0
	@DEBUG_VALUE: cb_write <- [DW_OP_plus_uconst 4] [$sp+0]
	@DEBUG_VALUE: _shell_read_line:pIO <- [DW_OP_plus_uconst 12] [$sp+0]
	@DEBUG_VALUE: _shell_push_to_history:rval <- 0
	@DEBUG_VALUE: esc_code <- 0
	@DEBUG_VALUE: _shell_read_line:rval <- 0
	@DEBUG_VALUE: rval <- 0
	.loc	3 193 33 is_stmt 1              @ ../../../components/utility/cli/shell.c:193:33
	str	r0, [r2]
	.loc	3 195 38                        @ ../../../components/utility/cli/shell.c:195:38
	ldrh	r1, [r5, #44]
	.loc	3 195 9 is_stmt 0               @ ../../../components/utility/cli/shell.c:195:9
	adr.w	r2, .LCPI4_1
	bl	__2snprintf
.Ltmp140:
	.loc	3 0 9                           @ ../../../components/utility/cli/shell.c:0:9
	mov.w	r8, #0
.Ltmp141:
	.loc	3 747 30 is_stmt 1              @ ../../../components/utility/cli/shell.c:747:30
	add	r0, sp, #16
	movs	r1, #96
.Ltmp142:
	.loc	3 199 24                        @ ../../../components/utility/cli/shell.c:199:24
	str.w	r8, [r5, #52]
.Ltmp143:
	@DEBUG_VALUE: arg_cnt <- 0
	@DEBUG_VALUE: _shell_read_line:rval <- 1
	@DEBUG_VALUE: rval <- 1
	.loc	3 747 30                        @ ../../../components/utility/cli/shell.c:747:30
	bl	__aeabi_memclr4
.Ltmp144:
	.loc	3 748 46                        @ ../../../components/utility/cli/shell.c:748:46
	ldr.w	r9, [r5, #4]
.Ltmp145:
	@DEBUG_VALUE: pCur <- $r9
	.loc	3 749 58                        @ ../../../components/utility/cli/shell.c:749:58
	mov	r0, r9
	bl	strlen
.Ltmp146:
	@DEBUG_VALUE: is_arg_head <- 1
	@DEBUG_VALUE: pEnd <- undef
	.loc	3 755 17                        @ ../../../components/utility/cli/shell.c:755:17
	cmp	r0, #1
	blt	.LBB4_48
.Ltmp147:
@ %bb.34:                               @   in Loop: Header=BB4_1 Depth=1
	@DEBUG_VALUE: pCur <- $r9
	@DEBUG_VALUE: cb_write <- [DW_OP_plus_uconst 4] [$sp+0]
	@DEBUG_VALUE: _shell_read_line:pIO <- [DW_OP_plus_uconst 12] [$sp+0]
	@DEBUG_VALUE: is_arg_head <- 1
	@DEBUG_VALUE: rval <- 1
	@DEBUG_VALUE: _shell_read_line:rval <- 1
	@DEBUG_VALUE: arg_cnt <- 0
	@DEBUG_VALUE: _shell_push_to_history:rval <- 0
	@DEBUG_VALUE: esc_code <- 0
	.loc	3 0 17 is_stmt 0                @ ../../../components/utility/cli/shell.c:0:17
	movs	r5, #3
	add	r0, r9
.Ltmp148:
	@DEBUG_VALUE: pEnd <- $r0
	movs	r1, #1
	mov.w	r8, #0
	movs	r7, #1
	movt	r5, #128
.Ltmp149:
	.p2align	2
.LBB4_35:                               @   Parent Loop BB4_1 Depth=1
                                        @ =>  This Inner Loop Header: Depth=2
	@DEBUG_VALUE: pCur <- $r9
	@DEBUG_VALUE: pEnd <- $r0
	@DEBUG_VALUE: rval <- 1
	@DEBUG_VALUE: arg_cnt <- $r8
	@DEBUG_VALUE: pCur <- $r9
	@DEBUG_VALUE: is_arg_head <- $r1
	.loc	3 757 33 is_stmt 1              @ ../../../components/utility/cli/shell.c:757:33
	ldrb.w	r2, [r9]
.Ltmp150:
	@DEBUG_VALUE: c <- undef
	.loc	3 759 35                        @ ../../../components/utility/cli/shell.c:759:35
	sub.w	r3, r2, #9
	cmp	r3, #23
	bhi	.LBB4_40
.Ltmp151:
@ %bb.36:                               @   in Loop: Header=BB4_35 Depth=2
	@DEBUG_VALUE: pCur <- $r9
	@DEBUG_VALUE: arg_cnt <- $r8
	@DEBUG_VALUE: is_arg_head <- $r1
	@DEBUG_VALUE: pEnd <- $r0
	@DEBUG_VALUE: rval <- 1
	.loc	3 0 35 is_stmt 0                @ ../../../components/utility/cli/shell.c:0:35
	lsl.w	r3, r7, r3
	tst	r3, r5
	beq	.LBB4_40
.Ltmp152:
@ %bb.37:                               @   in Loop: Header=BB4_35 Depth=2
	@DEBUG_VALUE: pCur <- $r9
	@DEBUG_VALUE: arg_cnt <- $r8
	@DEBUG_VALUE: is_arg_head <- $r1
	@DEBUG_VALUE: pEnd <- $r0
	@DEBUG_VALUE: rval <- 1
	@DEBUG_VALUE: pCur <- [DW_OP_plus_uconst 1, DW_OP_stack_value] $r9
	.loc	3 761 33 is_stmt 1              @ ../../../components/utility/cli/shell.c:761:33
	strb.w	r10, [r9]
.Ltmp153:
.LBB4_38:                               @   in Loop: Header=BB4_35 Depth=2
	@DEBUG_VALUE: arg_cnt <- $r8
	@DEBUG_VALUE: pEnd <- $r0
	@DEBUG_VALUE: rval <- 1
	.loc	3 0 33 is_stmt 0                @ ../../../components/utility/cli/shell.c:0:33
	movs	r1, #1
.Ltmp154:
.LBB4_39:                               @   in Loop: Header=BB4_35 Depth=2
	@DEBUG_VALUE: arg_cnt <- $r8
	@DEBUG_VALUE: pEnd <- $r0
	@DEBUG_VALUE: rval <- 1
	add.w	r9, r9, #1
.Ltmp155:
	@DEBUG_VALUE: is_arg_head <- $r1
	@DEBUG_VALUE: pCur <- $r9
	@DEBUG_VALUE: arg_cnt <- $r8
	.loc	3 755 17 is_stmt 1              @ ../../../components/utility/cli/shell.c:755:17
	cmp	r9, r0
	blo	.LBB4_35
	b	.LBB4_48
.Ltmp156:
	.p2align	2
.LBB4_40:                               @   in Loop: Header=BB4_35 Depth=2
	@DEBUG_VALUE: pCur <- $r9
	@DEBUG_VALUE: arg_cnt <- $r8
	@DEBUG_VALUE: is_arg_head <- $r1
	@DEBUG_VALUE: pEnd <- $r0
	@DEBUG_VALUE: rval <- 1
	.loc	3 766 38                        @ ../../../components/utility/cli/shell.c:766:38
	cmp	r1, #0
	beq	.LBB4_39
.Ltmp157:
@ %bb.41:                               @   in Loop: Header=BB4_35 Depth=2
	@DEBUG_VALUE: pCur <- $r9
	@DEBUG_VALUE: arg_cnt <- $r8
	@DEBUG_VALUE: is_arg_head <- $r1
	@DEBUG_VALUE: pEnd <- $r0
	@DEBUG_VALUE: rval <- 1
	cmp.w	r8, #23
	bgt	.LBB4_39
.Ltmp158:
@ %bb.42:                               @   in Loop: Header=BB4_35 Depth=2
	@DEBUG_VALUE: pCur <- $r9
	@DEBUG_VALUE: arg_cnt <- $r8
	@DEBUG_VALUE: is_arg_head <- $r1
	@DEBUG_VALUE: pEnd <- $r0
	@DEBUG_VALUE: rval <- 1
	.loc	3 767 40                        @ ../../../components/utility/cli/shell.c:767:40
	and	r1, r2, #223
.Ltmp159:
	subs	r1, #65
	cmp	r1, #26
	blo	.LBB4_47
.Ltmp160:
@ %bb.43:                               @   in Loop: Header=BB4_35 Depth=2
	@DEBUG_VALUE: pCur <- $r9
	@DEBUG_VALUE: arg_cnt <- $r8
	@DEBUG_VALUE: pEnd <- $r0
	@DEBUG_VALUE: rval <- 1
	sub.w	r1, r2, #48
	cmp	r1, #10
	blo	.LBB4_47
.Ltmp161:
@ %bb.44:                               @   in Loop: Header=BB4_35 Depth=2
	@DEBUG_VALUE: pCur <- $r9
	@DEBUG_VALUE: arg_cnt <- $r8
	@DEBUG_VALUE: pEnd <- $r0
	@DEBUG_VALUE: rval <- 1
	.loc	3 768 40                        @ ../../../components/utility/cli/shell.c:768:40
	sub.w	r1, r2, #45
	cmp	r1, #18
	bhi	.LBB4_46
.Ltmp162:
@ %bb.45:                               @   in Loop: Header=BB4_35 Depth=2
	@DEBUG_VALUE: pCur <- $r9
	@DEBUG_VALUE: arg_cnt <- $r8
	@DEBUG_VALUE: pEnd <- $r0
	@DEBUG_VALUE: rval <- 1
	.loc	3 0 40 is_stmt 0                @ ../../../components/utility/cli/shell.c:0:40
	movs	r3, #1
	lsl.w	r1, r7, r1
	movt	r3, #5
	tst	r1, r3
	bne	.LBB4_47
.Ltmp163:
.LBB4_46:                               @   in Loop: Header=BB4_35 Depth=2
	@DEBUG_VALUE: pCur <- $r9
	@DEBUG_VALUE: arg_cnt <- $r8
	@DEBUG_VALUE: pEnd <- $r0
	@DEBUG_VALUE: rval <- 1
	.loc	3 768 40                        @ ../../../components/utility/cli/shell.c:768:40
	cmp	r2, #95
	bne	.LBB4_38
.Ltmp164:
.LBB4_47:                               @   in Loop: Header=BB4_35 Depth=2
	@DEBUG_VALUE: pCur <- $r9
	@DEBUG_VALUE: arg_cnt <- $r8
	@DEBUG_VALUE: pEnd <- $r0
	@DEBUG_VALUE: rval <- 1
	.loc	3 770 46 is_stmt 1              @ ../../../components/utility/cli/shell.c:770:46
	add	r1, sp, #16
	str.w	r9, [r1, r8, lsl #2]
	.loc	3 770 42 is_stmt 0              @ ../../../components/utility/cli/shell.c:770:42
	add.w	r8, r8, #1
.Ltmp165:
	@DEBUG_VALUE: arg_cnt <- $r8
	.loc	3 0 42                          @ ../../../components/utility/cli/shell.c:0:42
	movs	r1, #0
.Ltmp166:
	@DEBUG_VALUE: is_arg_head <- 0
	@DEBUG_VALUE: arg_cnt <- $r8
	b	.LBB4_39
.Ltmp167:
.LBB4_48:                               @   in Loop: Header=BB4_1 Depth=1
	@DEBUG_VALUE: pCur <- $r9
	@DEBUG_VALUE: rval <- 1
	.loc	3 778 27 is_stmt 1              @ ../../../components/utility/cli/shell.c:778:27
	ldr	r3, [r6, #4]
.Ltmp168:
	.loc	3 778 22 is_stmt 0              @ ../../../components/utility/cli/shell.c:778:22
	cbz	r3, .LBB4_50
.Ltmp169:
@ %bb.49:                               @   in Loop: Header=BB4_1 Depth=1
	@DEBUG_VALUE: pCur <- $r9
	@DEBUG_VALUE: rval <- 1
	.loc	3 780 64 is_stmt 1              @ ../../../components/utility/cli/shell.c:780:64
	movw	r0, :lower16:g_sh_dev
	movt	r0, :upper16:g_sh_dev
	ldr	r2, [r0, #36]
	.loc	3 780 21 is_stmt 0              @ ../../../components/utility/cli/shell.c:780:21
	adr	r0, .LCPI4_2
	movs	r1, #1
	blx	r3
.Ltmp170:
.LBB4_50:                               @   in Loop: Header=BB4_1 Depth=1
	@DEBUG_VALUE: pCur <- $r9
	@DEBUG_VALUE: rval <- 1
	.loc	3 0 21                          @ ../../../components/utility/cli/shell.c:0:21
	movw	r9, #48879
.Ltmp171:
	.loc	3 786 22 is_stmt 1              @ ../../../components/utility/cli/shell.c:786:22
	cmp.w	r8, #0
	movt	r9, #57005
	beq	.LBB4_60
.Ltmp172:
@ %bb.51:                               @   in Loop: Header=BB4_1 Depth=1
	@DEBUG_VALUE: rval <- 1
	.loc	3 794 21                        @ ../../../components/utility/cli/shell.c:794:21
	movw	r0, :lower16:Image$$RW_IROM_CLI_CMD_POOL_START$$RO$$Limit
	movw	r1, :lower16:Image$$RW_IROM_CLI_CMD_POOL_START$$RO$$Base
	movt	r0, :upper16:Image$$RW_IROM_CLI_CMD_POOL_START$$RO$$Limit
	movt	r1, :upper16:Image$$RW_IROM_CLI_CMD_POOL_START$$RO$$Base
	cmp	r1, r0
.Ltmp173:
	@DEBUG_VALUE: pCmd_cur <- undef
	bhs	.LBB4_55
.Ltmp174:
@ %bb.52:                               @   in Loop: Header=BB4_1 Depth=1
	@DEBUG_VALUE: rval <- 1
	.loc	3 0 21 is_stmt 0                @ ../../../components/utility/cli/shell.c:0:21
	ldr.w	r11, [sp, #16]
	movw	r5, :lower16:Image$$RW_IROM_CLI_CMD_POOL_START$$RO$$Base
	movt	r5, :upper16:Image$$RW_IROM_CLI_CMD_POOL_START$$RO$$Base
.Ltmp175:
	.p2align	2
.LBB4_53:                               @   Parent Loop BB4_1 Depth=1
                                        @ =>  This Inner Loop Header: Depth=2
	@DEBUG_VALUE: rval <- 1
	@DEBUG_VALUE: pCmd_cur <- $r5
	.loc	3 796 49 is_stmt 1              @ ../../../components/utility/cli/shell.c:796:49
	ldr	r7, [r5, #4]
	.loc	3 797 39                        @ ../../../components/utility/cli/shell.c:797:39
	mov	r0, r7
	bl	strlen
.Ltmp176:
	mov	r2, r0
	.loc	3 796 31                        @ ../../../components/utility/cli/shell.c:796:31
	mov	r0, r7
	mov	r1, r11
	bl	strncmp
.Ltmp177:
	.loc	3 0 31 is_stmt 0                @ ../../../components/utility/cli/shell.c:0:31
	cbz	r0, .LBB4_59
.Ltmp178:
@ %bb.54:                               @   in Loop: Header=BB4_53 Depth=2
	@DEBUG_VALUE: pCmd_cur <- $r5
	@DEBUG_VALUE: rval <- 1
	.loc	3 794 21 is_stmt 1              @ ../../../components/utility/cli/shell.c:794:21
	movw	r0, :lower16:Image$$RW_IROM_CLI_CMD_POOL_START$$RO$$Limit
.Ltmp179:
	.loc	3 802 33                        @ ../../../components/utility/cli/shell.c:802:33
	adds	r5, #24
.Ltmp180:
	@DEBUG_VALUE: pCmd_cur <- $r5
	.loc	3 794 21                        @ ../../../components/utility/cli/shell.c:794:21
	movt	r0, :upper16:Image$$RW_IROM_CLI_CMD_POOL_START$$RO$$Limit
	cmp	r5, r0
	blo	.LBB4_53
.Ltmp181:
.LBB4_55:                               @   in Loop: Header=BB4_1 Depth=1
	@DEBUG_VALUE: rval <- 1
	.loc	3 0 0 is_stmt 0                 @ ../../../components/utility/cli/shell.c:0:0
	movw	r0, :lower16:g_pCmd_head
	movt	r0, :upper16:g_pCmd_head
	ldr	r5, [r0]
.Ltmp182:
	@DEBUG_VALUE: pCmd_cur <- $r5
	.loc	3 808 25 is_stmt 1              @ ../../../components/utility/cli/shell.c:808:25
	cbz	r5, .LBB4_60
.Ltmp183:
@ %bb.56:                               @   in Loop: Header=BB4_1 Depth=1
	@DEBUG_VALUE: pCmd_cur <- $r5
	@DEBUG_VALUE: rval <- 1
	.loc	3 0 25 is_stmt 0                @ ../../../components/utility/cli/shell.c:0:25
	ldr	r7, [sp, #16]
.Ltmp184:
	.p2align	2
.LBB4_57:                               @   Parent Loop BB4_1 Depth=1
                                        @ =>  This Inner Loop Header: Depth=2
	@DEBUG_VALUE: pCmd_cur <- $r5
	@DEBUG_VALUE: rval <- 1
	.loc	3 810 53 is_stmt 1              @ ../../../components/utility/cli/shell.c:810:53
	ldr	r0, [r5, #4]
	.loc	3 810 35 is_stmt 0              @ ../../../components/utility/cli/shell.c:810:35
	mov	r1, r7
	movs	r2, #3
	bl	strncmp
.Ltmp185:
	.loc	3 810 34                        @ ../../../components/utility/cli/shell.c:810:34
	cbz	r0, .LBB4_59
.Ltmp186:
@ %bb.58:                               @   in Loop: Header=BB4_57 Depth=2
	@DEBUG_VALUE: pCmd_cur <- $r5
	@DEBUG_VALUE: rval <- 1
	@DEBUG_VALUE: pCmd_cur <- undef
	.loc	3 0 0                           @ ../../../components/utility/cli/shell.c:0:0
	ldr	r5, [r5]
.Ltmp187:
	@DEBUG_VALUE: pCmd_cur <- $r5
	.loc	3 808 25 is_stmt 1              @ ../../../components/utility/cli/shell.c:808:25
	cmp	r5, #0
	bne	.LBB4_57
	b	.LBB4_60
.Ltmp188:
.LBB4_59:                               @   in Loop: Header=BB4_1 Depth=1
	@DEBUG_VALUE: pCmd_cur <- $r5
	@DEBUG_VALUE: rval <- 1
	@DEBUG_VALUE: pCmd_act <- undef
	.loc	3 822 106                       @ ../../../components/utility/cli/shell.c:822:106
	ldrd	r3, r7, [r5, #16]
	.loc	3 822 45 is_stmt 0              @ ../../../components/utility/cli/shell.c:822:45
	movw	r2, :lower16:_shell_log
	mov	r0, r8
	add	r1, sp, #16
	movt	r2, :upper16:_shell_log
	blx	r7
.Ltmp189:
	.loc	3 822 43                        @ ../../../components/utility/cli/shell.c:822:43
	str	r0, [r4, #8]
.Ltmp190:
.LBB4_60:                               @   in Loop: Header=BB4_1 Depth=1
	@DEBUG_VALUE: rval <- 1
	.loc	3 0 43                          @ ../../../components/utility/cli/shell.c:0:43
	movw	r5, :lower16:g_sh_dev
	movt	r5, :upper16:g_sh_dev
	movw	r8, :lower16:shell_proc.is_line_head
	.loc	3 832 33 is_stmt 1              @ ../../../components/utility/cli/shell.c:832:33
	ldrd	r0, r1, [r5, #4]
	movt	r8, :upper16:shell_proc.is_line_head
	.loc	3 828 30                        @ ../../../components/utility/cli/shell.c:828:30
	strb.w	r10, [r8]
	.loc	3 830 37                        @ ../../../components/utility/cli/shell.c:830:37
	str.w	r10, [r5, #16]
	.loc	3 831 37                        @ ../../../components/utility/cli/shell.c:831:37
	str.w	r10, [r5, #20]
	.loc	3 832 17                        @ ../../../components/utility/cli/shell.c:832:17
	bl	__aeabi_memclr
.Ltmp191:
	.loc	3 0 17 is_stmt 0                @ ../../../components/utility/cli/shell.c:0:17
	b	.LBB4_10
.Ltmp192:
.LBB4_61:                               @   in Loop: Header=BB4_1 Depth=1
	@DEBUG_VALUE: c <- $r9
	@DEBUG_VALUE: pos <- $r7
	@DEBUG_VALUE: cb_write <- [DW_OP_plus_uconst 4] [$sp+0]
	@DEBUG_VALUE: _shell_read_line:pIO <- [DW_OP_plus_uconst 12] [$sp+0]
	@DEBUG_VALUE: _shell_get_esc_code:rval <- 0
	@DEBUG_VALUE: esc_code <- 0
	@DEBUG_VALUE: _shell_read_line:rval <- 0
	@DEBUG_VALUE: rval <- 0
	@DEBUG_VALUE: esc_code <- 14
	movw	r5, :lower16:g_sh_dev
.Ltmp193:
	.loc	3 326 5 is_stmt 1               @ ../../../components/utility/cli/shell.c:326:5
	subs	r0, r6, #1
	movw	r9, #48879
.Ltmp194:
	.loc	3 0 5 is_stmt 0                 @ ../../../components/utility/cli/shell.c:0:5
	movw	r8, :lower16:shell_proc.is_line_head
	movt	r5, :upper16:g_sh_dev
	movs	r1, #0
	.loc	3 326 5                         @ ../../../components/utility/cli/shell.c:326:5
	cmp	r0, #10
.Ltmp195:
	@DEBUG_VALUE: _shell_esc_code_proc:pCursor_pos <- undef
	@DEBUG_VALUE: _shell_esc_code_proc:pWr_pos <- undef
	.loc	3 0 5                           @ ../../../components/utility/cli/shell.c:0:5
	mov.w	r4, #0
	movt	r9, #57005
	movt	r8, :upper16:shell_proc.is_line_head
.Ltmp196:
	@DEBUG_VALUE: _shell_esc_code_proc:esc_code <- 14
	@DEBUG_VALUE: _shell_esc_code_proc:cb_write <- [DW_OP_plus_uconst 4] [$sp+0]
	@DEBUG_VALUE: _shell_esc_code_proc:rval <- 0
	.loc	3 296 55 is_stmt 1              @ ../../../components/utility/cli/shell.c:296:55
	strd	r1, r1, [r5, #24]
	@DEBUG_VALUE: _shell_esc_code_proc:rval <- 0
	@DEBUG_VALUE: _shell_esc_code_proc:cb_write <- [DW_OP_plus_uconst 4] [$sp+0]
	@DEBUG_VALUE: _shell_esc_code_proc:esc_code <- 14
	.loc	3 295 47                        @ ../../../components/utility/cli/shell.c:295:47
	str	r1, [r5, #32]
.Ltmp197:
	.loc	3 326 5                         @ ../../../components/utility/cli/shell.c:326:5
	bhi	.LBB4_64
.Ltmp198:
@ %bb.62:                               @   in Loop: Header=BB4_1 Depth=1
	@DEBUG_VALUE: pos <- $r7
	@DEBUG_VALUE: _shell_esc_code_proc:cb_write <- [DW_OP_plus_uconst 4] [$sp+0]
	@DEBUG_VALUE: cb_write <- [DW_OP_plus_uconst 4] [$sp+0]
	@DEBUG_VALUE: _shell_read_line:pIO <- [DW_OP_plus_uconst 12] [$sp+0]
	@DEBUG_VALUE: _shell_esc_code_proc:rval <- 0
	@DEBUG_VALUE: _shell_esc_code_proc:esc_code <- 14
	@DEBUG_VALUE: esc_code <- 14
	@DEBUG_VALUE: _shell_get_esc_code:rval <- 0
	@DEBUG_VALUE: _shell_read_line:rval <- 0
	@DEBUG_VALUE: rval <- 0
	.loc	3 0 5 is_stmt 0                 @ ../../../components/utility/cli/shell.c:0:5
.LCPI4_3:
	tbb	[pc, r0]
.Ltmp199:
@ %bb.63:
.LJTI4_0:
	.byte	(.LBB4_85-(.LCPI4_3+4))/2
	.byte	(.LBB4_64-(.LCPI4_3+4))/2
	.byte	(.LBB4_72-(.LCPI4_3+4))/2
	.byte	(.LBB4_87-(.LCPI4_3+4))/2
	.byte	(.LBB4_64-(.LCPI4_3+4))/2
	.byte	(.LBB4_64-(.LCPI4_3+4))/2
	.byte	(.LBB4_65-(.LCPI4_3+4))/2
	.byte	(.LBB4_65-(.LCPI4_3+4))/2
	.byte	(.LBB4_77-(.LCPI4_3+4))/2
	.byte	(.LBB4_79-(.LCPI4_3+4))/2
	.byte	(.LBB4_81-(.LCPI4_3+4))/2
	.p2align	1
	.p2align	2
.LBB4_64:                               @   in Loop: Header=BB4_1 Depth=1
.Ltmp200:
	@DEBUG_VALUE: _shell_read_line:pIO <- [DW_OP_plus_uconst 12] [$sp+0]
	@DEBUG_VALUE: _shell_read_line:rval <- 0
	@DEBUG_VALUE: rval <- 0
	@DEBUG_VALUE: rval <- 1
	@DEBUG_VALUE: _shell_read_line:rval <- 1
	ldrd	r4, r6, [sp, #8]                @ 8-byte Folded Reload
	mov.w	r10, #0
	b	.LBB4_10
.Ltmp201:
.LBB4_65:                               @   in Loop: Header=BB4_1 Depth=1
	@DEBUG_VALUE: pos <- $r7
	@DEBUG_VALUE: _shell_esc_code_proc:cb_write <- [DW_OP_plus_uconst 4] [$sp+0]
	@DEBUG_VALUE: cb_write <- [DW_OP_plus_uconst 4] [$sp+0]
	@DEBUG_VALUE: _shell_read_line:pIO <- [DW_OP_plus_uconst 12] [$sp+0]
	@DEBUG_VALUE: _shell_esc_code_proc:rval <- 0
	@DEBUG_VALUE: _shell_esc_code_proc:esc_code <- 14
	@DEBUG_VALUE: esc_code <- 14
	@DEBUG_VALUE: _shell_read_line:rval <- 0
	@DEBUG_VALUE: rval <- 0
	@DEBUG_VALUE: pLine <- 0
	@DEBUG_VALUE: line_len <- 0
	@DEBUG_VALUE: _shell_erase_line:cb_write <- [DW_OP_plus_uconst 4] [$sp+0]
	@DEBUG_VALUE: _shell_erase_line:rval <- 0
	.loc	3 238 30 is_stmt 1              @ ../../../components/utility/cli/shell.c:238:30
	ldrd	r7, r0, [r5, #16]
.Ltmp202:
	.loc	3 237 43                        @ ../../../components/utility/cli/shell.c:237:43
	ldr.w	r8, [r5, #4]
.Ltmp203:
	@DEBUG_VALUE: _shell_erase_line:pCursor_pos <- [DW_OP_plus_uconst 20, DW_OP_stack_value] undef
	@DEBUG_VALUE: cursor_pos <- $r0
	@DEBUG_VALUE: _shell_erase_line:pWr_pos <- [DW_OP_plus_uconst 16, DW_OP_stack_value] undef
	@DEBUG_VALUE: wr_pos <- $r7
	@DEBUG_VALUE: pLine_buf <- $r8
	.loc	3 241 14                        @ ../../../components/utility/cli/shell.c:241:14
	cmp	r7, r0
	bls.w	.LBB4_89
.Ltmp204:
@ %bb.66:                               @   in Loop: Header=BB4_1 Depth=1
	@DEBUG_VALUE: pLine_buf <- $r8
	@DEBUG_VALUE: wr_pos <- $r7
	@DEBUG_VALUE: cursor_pos <- $r0
	@DEBUG_VALUE: _shell_erase_line:cb_write <- [DW_OP_plus_uconst 4] [$sp+0]
	@DEBUG_VALUE: _shell_esc_code_proc:cb_write <- [DW_OP_plus_uconst 4] [$sp+0]
	@DEBUG_VALUE: cb_write <- [DW_OP_plus_uconst 4] [$sp+0]
	@DEBUG_VALUE: _shell_read_line:pIO <- [DW_OP_plus_uconst 12] [$sp+0]
	@DEBUG_VALUE: _shell_erase_line:rval <- 0
	@DEBUG_VALUE: line_len <- 0
	@DEBUG_VALUE: pLine <- 0
	@DEBUG_VALUE: _shell_esc_code_proc:rval <- 0
	@DEBUG_VALUE: _shell_esc_code_proc:esc_code <- 14
	@DEBUG_VALUE: esc_code <- 14
	@DEBUG_VALUE: _shell_read_line:rval <- 0
	@DEBUG_VALUE: rval <- 0
	.loc	3 0 14 is_stmt 0                @ ../../../components/utility/cli/shell.c:0:14
	add.w	r9, sp, #16
.Ltmp205:
	.loc	3 244 13 is_stmt 1              @ ../../../components/utility/cli/shell.c:244:13
	movw	r2, :lower16:.L.str.23
	mov.w	r11, #0
	.loc	3 244 60 is_stmt 0              @ ../../../components/utility/cli/shell.c:244:60
	subs	r3, r7, r0
	.loc	3 244 13                        @ ../../../components/utility/cli/shell.c:244:13
	mov	r0, r9
.Ltmp206:
	movs	r1, #12
	movt	r2, :upper16:.L.str.23
	.loc	3 243 21 is_stmt 1              @ ../../../components/utility/cli/shell.c:243:21
	str.w	r11, [sp, #24]
	strd	r11, r11, [sp, #16]
	.loc	3 244 13                        @ ../../../components/utility/cli/shell.c:244:13
	bl	__2snprintf
.Ltmp207:
	.loc	3 245 42                        @ ../../../components/utility/cli/shell.c:245:42
	mov	r0, r9
	bl	strlen
.Ltmp208:
	.loc	3 245 68 is_stmt 0              @ ../../../components/utility/cli/shell.c:245:68
	ldr	r2, [r5, #36]
	.loc	3 245 42                        @ ../../../components/utility/cli/shell.c:245:42
	mov	r1, r0
	.loc	3 245 13                        @ ../../../components/utility/cli/shell.c:245:13
	mov	r0, r9
	ldr.w	r9, [sp, #4]                    @ 4-byte Reload
	blx	r9
.Ltmp209:
	@DEBUG_VALUE: wr_pos <- [DW_OP_constu 1, DW_OP_minus, DW_OP_stack_value] $r7
	.loc	3 0 13                          @ ../../../components/utility/cli/shell.c:0:13
	movw	r4, :lower16:.L.str.22
	movt	r4, :upper16:.L.str.22
	b	.LBB4_90
.Ltmp210:
.LBB4_67:                               @   in Loop: Header=BB4_1 Depth=1
	@DEBUG_VALUE: pos <- $r7
	@DEBUG_VALUE: pLine_buf <- $r6
	@DEBUG_VALUE: cb_write <- [DW_OP_plus_uconst 4] [$sp+0]
	@DEBUG_VALUE: _shell_read_line:pIO <- [DW_OP_plus_uconst 12] [$sp+0]
	@DEBUG_VALUE: esc_code <- 14
	@DEBUG_VALUE: _shell_read_line:rval <- 0
	@DEBUG_VALUE: rval <- 0
	.loc	3 541 50 is_stmt 1              @ ../../../components/utility/cli/shell.c:541:50
	ldrb.w	r0, [sp, #115]
.Ltmp211:
	@DEBUG_VALUE: c <- $r0
	.loc	3 539 33                        @ ../../../components/utility/cli/shell.c:539:33
	str	r7, [r5, #16]
	.loc	3 541 48                        @ ../../../components/utility/cli/shell.c:541:48
	strb	r0, [r6, r1]
	.loc	3 545 35                        @ ../../../components/utility/cli/shell.c:545:35
	ldrd	r1, r3, [r5, #16]
	.loc	3 546 35                        @ ../../../components/utility/cli/shell.c:546:35
	ldr	r2, [r5, #36]
	.loc	3 544 38                        @ ../../../components/utility/cli/shell.c:544:38
	adds	r0, r6, r3
.Ltmp212:
	.loc	3 0 38 is_stmt 0                @ ../../../components/utility/cli/shell.c:0:38
	ldr	r6, [sp, #4]                    @ 4-byte Reload
.Ltmp213:
	.loc	3 545 42 is_stmt 1              @ ../../../components/utility/cli/shell.c:545:42
	subs	r1, r1, r3
	.loc	3 544 17                        @ ../../../components/utility/cli/shell.c:544:17
	blx	r6
.Ltmp214:
	.loc	3 548 31                        @ ../../../components/utility/cli/shell.c:548:31
	ldr	r0, [r5, #20]
.Ltmp215:
	.loc	3 548 22 is_stmt 0              @ ../../../components/utility/cli/shell.c:548:22
	cmp	r0, r4
	bhs	.LBB4_70
.Ltmp216:
@ %bb.68:                               @   in Loop: Header=BB4_1 Depth=1
	@DEBUG_VALUE: pos <- $r7
	@DEBUG_VALUE: cb_write <- [DW_OP_plus_uconst 4] [$sp+0]
	@DEBUG_VALUE: _shell_read_line:pIO <- [DW_OP_plus_uconst 12] [$sp+0]
	@DEBUG_VALUE: esc_code <- 14
	@DEBUG_VALUE: _shell_read_line:rval <- 0
	@DEBUG_VALUE: rval <- 0
	.loc	3 551 70 is_stmt 1              @ ../../../components/utility/cli/shell.c:551:70
	ldr	r1, [r5, #16]
	.loc	3 551 99 is_stmt 0              @ ../../../components/utility/cli/shell.c:551:99
	mvns	r0, r0
	add	r4, sp, #16
	.loc	3 551 21                        @ ../../../components/utility/cli/shell.c:551:21
	movw	r2, :lower16:.L.str.6
	.loc	3 551 99                        @ ../../../components/utility/cli/shell.c:551:99
	adds	r3, r1, r0
	.loc	3 551 21                        @ ../../../components/utility/cli/shell.c:551:21
	mov	r0, r4
	movs	r1, #12
	movt	r2, :upper16:.L.str.6
	.loc	3 550 33 is_stmt 1              @ ../../../components/utility/cli/shell.c:550:33
	str.w	r11, [sp, #24]
	strd	r11, r11, [sp, #16]
	.loc	3 551 21                        @ ../../../components/utility/cli/shell.c:551:21
	bl	__2snprintf
.Ltmp217:
	.loc	3 552 50                        @ ../../../components/utility/cli/shell.c:552:50
	mov	r0, r4
	bl	strlen
.Ltmp218:
	.loc	3 552 76 is_stmt 0              @ ../../../components/utility/cli/shell.c:552:76
	ldr	r2, [r5, #36]
	.loc	3 552 50                        @ ../../../components/utility/cli/shell.c:552:50
	mov	r1, r0
	.loc	3 552 21                        @ ../../../components/utility/cli/shell.c:552:21
	mov	r0, r4
	blx	r6
.Ltmp219:
.LBB4_69:                               @   in Loop: Header=BB4_1 Depth=1
	@DEBUG_VALUE: pos <- $r7
	@DEBUG_VALUE: cb_write <- [DW_OP_plus_uconst 4] [$sp+0]
	@DEBUG_VALUE: _shell_read_line:pIO <- [DW_OP_plus_uconst 12] [$sp+0]
	@DEBUG_VALUE: esc_code <- 14
	@DEBUG_VALUE: _shell_read_line:rval <- 0
	@DEBUG_VALUE: rval <- 0
	.loc	3 0 0                           @ ../../../components/utility/cli/shell.c:0:0
	ldr	r0, [r5, #20]
.Ltmp220:
.LBB4_70:                               @   in Loop: Header=BB4_1 Depth=1
	@DEBUG_VALUE: pos <- $r7
	@DEBUG_VALUE: cb_write <- [DW_OP_plus_uconst 4] [$sp+0]
	@DEBUG_VALUE: _shell_read_line:pIO <- [DW_OP_plus_uconst 12] [$sp+0]
	@DEBUG_VALUE: esc_code <- 14
	@DEBUG_VALUE: _shell_read_line:rval <- 0
	@DEBUG_VALUE: rval <- 0
	adds	r0, #1
.Ltmp221:
.LBB4_71:                               @   in Loop: Header=BB4_1 Depth=1
	@DEBUG_VALUE: pos <- $r7
	@DEBUG_VALUE: cb_write <- [DW_OP_plus_uconst 4] [$sp+0]
	@DEBUG_VALUE: _shell_read_line:pIO <- [DW_OP_plus_uconst 12] [$sp+0]
	@DEBUG_VALUE: esc_code <- 14
	@DEBUG_VALUE: _shell_read_line:rval <- 0
	@DEBUG_VALUE: rval <- 0
	str	r0, [r5, #20]
	b	.LBB4_64
.Ltmp222:
.LBB4_72:                               @   in Loop: Header=BB4_1 Depth=1
	@DEBUG_VALUE: pos <- $r7
	@DEBUG_VALUE: _shell_esc_code_proc:cb_write <- [DW_OP_plus_uconst 4] [$sp+0]
	@DEBUG_VALUE: cb_write <- [DW_OP_plus_uconst 4] [$sp+0]
	@DEBUG_VALUE: _shell_read_line:pIO <- [DW_OP_plus_uconst 12] [$sp+0]
	@DEBUG_VALUE: _shell_esc_code_proc:rval <- 0
	@DEBUG_VALUE: _shell_esc_code_proc:esc_code <- 14
	@DEBUG_VALUE: esc_code <- 14
	@DEBUG_VALUE: _shell_read_line:rval <- 0
	@DEBUG_VALUE: rval <- 0
	.loc	3 424 29 is_stmt 1              @ ../../../components/utility/cli/shell.c:424:29
	ldrd	r0, r7, [r5, #16]
.Ltmp223:
	.loc	3 424 14 is_stmt 0              @ ../../../components/utility/cli/shell.c:424:14
	cmp	r7, r0
	bhs	.LBB4_64
.Ltmp224:
@ %bb.73:                               @   in Loop: Header=BB4_1 Depth=1
	@DEBUG_VALUE: _shell_esc_code_proc:cb_write <- [DW_OP_plus_uconst 4] [$sp+0]
	@DEBUG_VALUE: cb_write <- [DW_OP_plus_uconst 4] [$sp+0]
	@DEBUG_VALUE: _shell_read_line:pIO <- [DW_OP_plus_uconst 12] [$sp+0]
	@DEBUG_VALUE: _shell_esc_code_proc:rval <- 0
	@DEBUG_VALUE: _shell_esc_code_proc:esc_code <- 14
	@DEBUG_VALUE: esc_code <- 14
	@DEBUG_VALUE: _shell_read_line:rval <- 0
	@DEBUG_VALUE: rval <- 0
	.loc	3 430 68 is_stmt 1              @ ../../../components/utility/cli/shell.c:430:68
	ldr	r2, [r5, #36]
	.loc	3 430 13 is_stmt 0              @ ../../../components/utility/cli/shell.c:430:13
	movw	r0, :lower16:.L.str.11
	ldr	r3, [sp, #4]                    @ 4-byte Reload
	.loc	3 426 47 is_stmt 1              @ ../../../components/utility/cli/shell.c:426:47
	ldr	r6, [r5, #4]
.Ltmp225:
	@DEBUG_VALUE: cursor_pos <- $r7
	@DEBUG_VALUE: len <- 0
	@DEBUG_VALUE: pLine_buf <- $r6
	.loc	3 430 13                        @ ../../../components/utility/cli/shell.c:430:13
	movt	r0, :upper16:.L.str.11
	movs	r1, #3
	blx	r3
.Ltmp226:
	.loc	3 432 19                        @ ../../../components/utility/cli/shell.c:432:19
	mov	r0, r6
	bl	strlen
.Ltmp227:
	@DEBUG_VALUE: i <- $r7
	@DEBUG_VALUE: len <- $r0
	.loc	3 433 13                        @ ../../../components/utility/cli/shell.c:433:13
	cmp	r7, r0
	bhs	.LBB4_76
.Ltmp228:
@ %bb.74:                               @   in Loop: Header=BB4_1 Depth=1
	@DEBUG_VALUE: i <- $r7
	@DEBUG_VALUE: cursor_pos <- $r7
	@DEBUG_VALUE: pLine_buf <- $r6
	@DEBUG_VALUE: len <- $r0
	@DEBUG_VALUE: _shell_esc_code_proc:cb_write <- [DW_OP_plus_uconst 4] [$sp+0]
	@DEBUG_VALUE: cb_write <- [DW_OP_plus_uconst 4] [$sp+0]
	@DEBUG_VALUE: _shell_read_line:pIO <- [DW_OP_plus_uconst 12] [$sp+0]
	@DEBUG_VALUE: _shell_esc_code_proc:rval <- 0
	@DEBUG_VALUE: _shell_esc_code_proc:esc_code <- 14
	@DEBUG_VALUE: esc_code <- 14
	@DEBUG_VALUE: _shell_read_line:rval <- 0
	@DEBUG_VALUE: rval <- 0
	adds	r1, r6, r7
	adds	r1, #1
	subs	r0, r0, r7
.Ltmp229:
	.p2align	2
.LBB4_75:                               @   Parent Loop BB4_1 Depth=1
                                        @ =>  This Inner Loop Header: Depth=2
	@DEBUG_VALUE: cursor_pos <- $r7
	@DEBUG_VALUE: pLine_buf <- $r6
	@DEBUG_VALUE: _shell_esc_code_proc:cb_write <- [DW_OP_plus_uconst 4] [$sp+0]
	@DEBUG_VALUE: cb_write <- [DW_OP_plus_uconst 4] [$sp+0]
	@DEBUG_VALUE: _shell_read_line:pIO <- [DW_OP_plus_uconst 12] [$sp+0]
	@DEBUG_VALUE: _shell_esc_code_proc:rval <- 0
	@DEBUG_VALUE: _shell_esc_code_proc:esc_code <- 14
	@DEBUG_VALUE: esc_code <- 14
	@DEBUG_VALUE: _shell_read_line:rval <- 0
	@DEBUG_VALUE: rval <- 0
	@DEBUG_VALUE: i <- undef
	.loc	3 435 32                        @ ../../../components/utility/cli/shell.c:435:32
	ldrb	r2, [r1], #1
.Ltmp230:
	.loc	3 433 40                        @ ../../../components/utility/cli/shell.c:433:40
	subs	r0, #1
.Ltmp231:
	.loc	3 435 30                        @ ../../../components/utility/cli/shell.c:435:30
	strb	r2, [r1, #-2]
.Ltmp232:
	@DEBUG_VALUE: i <- [DW_OP_plus_uconst 1, DW_OP_stack_value] undef
	.loc	3 433 13                        @ ../../../components/utility/cli/shell.c:433:13
	bne	.LBB4_75
.Ltmp233:
.LBB4_76:                               @   in Loop: Header=BB4_1 Depth=1
	@DEBUG_VALUE: cursor_pos <- $r7
	@DEBUG_VALUE: pLine_buf <- $r6
	@DEBUG_VALUE: _shell_esc_code_proc:cb_write <- [DW_OP_plus_uconst 4] [$sp+0]
	@DEBUG_VALUE: cb_write <- [DW_OP_plus_uconst 4] [$sp+0]
	@DEBUG_VALUE: _shell_read_line:pIO <- [DW_OP_plus_uconst 12] [$sp+0]
	@DEBUG_VALUE: _shell_esc_code_proc:rval <- 0
	@DEBUG_VALUE: _shell_esc_code_proc:esc_code <- 14
	@DEBUG_VALUE: esc_code <- 14
	@DEBUG_VALUE: _shell_read_line:rval <- 0
	@DEBUG_VALUE: rval <- 0
	.loc	3 440 24                        @ ../../../components/utility/cli/shell.c:440:24
	ldr	r0, [r5, #16]
	.loc	3 438 26                        @ ../../../components/utility/cli/shell.c:438:26
	str	r7, [r5, #20]
	b	.LBB4_99
.Ltmp234:
.LBB4_77:                               @   in Loop: Header=BB4_1 Depth=1
	@DEBUG_VALUE: pos <- $r7
	@DEBUG_VALUE: _shell_esc_code_proc:cb_write <- [DW_OP_plus_uconst 4] [$sp+0]
	@DEBUG_VALUE: cb_write <- [DW_OP_plus_uconst 4] [$sp+0]
	@DEBUG_VALUE: _shell_read_line:pIO <- [DW_OP_plus_uconst 12] [$sp+0]
	@DEBUG_VALUE: _shell_esc_code_proc:rval <- 0
	@DEBUG_VALUE: _shell_esc_code_proc:esc_code <- 14
	@DEBUG_VALUE: esc_code <- 14
	@DEBUG_VALUE: _shell_read_line:rval <- 0
	@DEBUG_VALUE: rval <- 0
	.loc	3 405 14                        @ ../../../components/utility/cli/shell.c:405:14
	ldr	r0, [r5, #20]
.Ltmp235:
	.loc	3 405 14 is_stmt 0              @ ../../../components/utility/cli/shell.c:405:14
	cmp	r0, #0
	beq	.LBB4_64
.Ltmp236:
@ %bb.78:                               @   in Loop: Header=BB4_1 Depth=1
	@DEBUG_VALUE: pos <- $r7
	@DEBUG_VALUE: _shell_esc_code_proc:cb_write <- [DW_OP_plus_uconst 4] [$sp+0]
	@DEBUG_VALUE: cb_write <- [DW_OP_plus_uconst 4] [$sp+0]
	@DEBUG_VALUE: _shell_read_line:pIO <- [DW_OP_plus_uconst 12] [$sp+0]
	@DEBUG_VALUE: _shell_esc_code_proc:rval <- 0
	@DEBUG_VALUE: _shell_esc_code_proc:esc_code <- 14
	@DEBUG_VALUE: esc_code <- 14
	@DEBUG_VALUE: _shell_read_line:rval <- 0
	@DEBUG_VALUE: rval <- 0
	.loc	3 407 60 is_stmt 1              @ ../../../components/utility/cli/shell.c:407:60
	ldr	r2, [r5, #36]
	.loc	3 407 13 is_stmt 0              @ ../../../components/utility/cli/shell.c:407:13
	movw	r0, :lower16:.L.str.17
	ldr	r3, [sp, #4]                    @ 4-byte Reload
	movt	r0, :upper16:.L.str.17
	movs	r1, #3
	blx	r3
.Ltmp237:
	.loc	3 408 27 is_stmt 1              @ ../../../components/utility/cli/shell.c:408:27
	ldr	r0, [r5, #20]
	subs	r0, #1
	b	.LBB4_71
.Ltmp238:
.LBB4_79:                               @   in Loop: Header=BB4_1 Depth=1
	@DEBUG_VALUE: pos <- $r7
	@DEBUG_VALUE: _shell_esc_code_proc:cb_write <- [DW_OP_plus_uconst 4] [$sp+0]
	@DEBUG_VALUE: cb_write <- [DW_OP_plus_uconst 4] [$sp+0]
	@DEBUG_VALUE: _shell_read_line:pIO <- [DW_OP_plus_uconst 12] [$sp+0]
	@DEBUG_VALUE: _shell_esc_code_proc:rval <- 0
	@DEBUG_VALUE: _shell_esc_code_proc:esc_code <- 14
	@DEBUG_VALUE: esc_code <- 14
	@DEBUG_VALUE: _shell_read_line:rval <- 0
	@DEBUG_VALUE: rval <- 0
	.loc	3 412 29                        @ ../../../components/utility/cli/shell.c:412:29
	ldrd	r0, r1, [r5, #16]
.Ltmp239:
	.loc	3 412 14 is_stmt 0              @ ../../../components/utility/cli/shell.c:412:14
	cmp	r1, r0
	bhs.w	.LBB4_64
.Ltmp240:
@ %bb.80:                               @   in Loop: Header=BB4_1 Depth=1
	@DEBUG_VALUE: pos <- $r7
	@DEBUG_VALUE: _shell_esc_code_proc:cb_write <- [DW_OP_plus_uconst 4] [$sp+0]
	@DEBUG_VALUE: cb_write <- [DW_OP_plus_uconst 4] [$sp+0]
	@DEBUG_VALUE: _shell_read_line:pIO <- [DW_OP_plus_uconst 12] [$sp+0]
	@DEBUG_VALUE: _shell_esc_code_proc:rval <- 0
	@DEBUG_VALUE: _shell_esc_code_proc:esc_code <- 14
	@DEBUG_VALUE: esc_code <- 14
	@DEBUG_VALUE: _shell_read_line:rval <- 0
	@DEBUG_VALUE: rval <- 0
	.loc	3 414 61 is_stmt 1              @ ../../../components/utility/cli/shell.c:414:61
	ldr	r2, [r5, #36]
	.loc	3 414 13 is_stmt 0              @ ../../../components/utility/cli/shell.c:414:13
	movw	r0, :lower16:.L.str.18
	ldr	r3, [sp, #4]                    @ 4-byte Reload
	movt	r0, :upper16:.L.str.18
	movs	r1, #3
	blx	r3
.Ltmp241:
	.loc	3 0 13                          @ ../../../components/utility/cli/shell.c:0:13
	b	.LBB4_69
.Ltmp242:
.LBB4_81:                               @   in Loop: Header=BB4_1 Depth=1
	@DEBUG_VALUE: pos <- $r7
	@DEBUG_VALUE: _shell_esc_code_proc:cb_write <- [DW_OP_plus_uconst 4] [$sp+0]
	@DEBUG_VALUE: cb_write <- [DW_OP_plus_uconst 4] [$sp+0]
	@DEBUG_VALUE: _shell_read_line:pIO <- [DW_OP_plus_uconst 12] [$sp+0]
	@DEBUG_VALUE: _shell_esc_code_proc:rval <- 0
	@DEBUG_VALUE: _shell_esc_code_proc:esc_code <- 14
	@DEBUG_VALUE: esc_code <- 14
	@DEBUG_VALUE: _shell_read_line:rval <- 0
	@DEBUG_VALUE: rval <- 0
	.loc	3 329 14 is_stmt 1              @ ../../../components/utility/cli/shell.c:329:14
	ldr	r0, [r5, #16]
	.loc	3 329 27 is_stmt 0              @ ../../../components/utility/cli/shell.c:329:27
	cmp	r0, #0
	beq.w	.LBB4_64
.Ltmp243:
@ %bb.82:                               @   in Loop: Header=BB4_1 Depth=1
	@DEBUG_VALUE: pos <- $r7
	@DEBUG_VALUE: _shell_esc_code_proc:cb_write <- [DW_OP_plus_uconst 4] [$sp+0]
	@DEBUG_VALUE: cb_write <- [DW_OP_plus_uconst 4] [$sp+0]
	@DEBUG_VALUE: _shell_read_line:pIO <- [DW_OP_plus_uconst 12] [$sp+0]
	@DEBUG_VALUE: _shell_esc_code_proc:rval <- 0
	@DEBUG_VALUE: _shell_esc_code_proc:esc_code <- 14
	@DEBUG_VALUE: esc_code <- 14
	@DEBUG_VALUE: _shell_read_line:rval <- 0
	@DEBUG_VALUE: rval <- 0
	.loc	3 0 27                          @ ../../../components/utility/cli/shell.c:0:27
	ldr	r7, [r5, #20]
.Ltmp244:
	.loc	3 329 27                        @ ../../../components/utility/cli/shell.c:329:27
	cmp	r7, #0
	beq.w	.LBB4_64
.Ltmp245:
@ %bb.83:                               @   in Loop: Header=BB4_1 Depth=1
	@DEBUG_VALUE: _shell_esc_code_proc:cb_write <- [DW_OP_plus_uconst 4] [$sp+0]
	@DEBUG_VALUE: cb_write <- [DW_OP_plus_uconst 4] [$sp+0]
	@DEBUG_VALUE: _shell_read_line:pIO <- [DW_OP_plus_uconst 12] [$sp+0]
	@DEBUG_VALUE: _shell_esc_code_proc:rval <- 0
	@DEBUG_VALUE: _shell_esc_code_proc:esc_code <- 14
	@DEBUG_VALUE: esc_code <- 14
	@DEBUG_VALUE: _shell_read_line:rval <- 0
	@DEBUG_VALUE: rval <- 0
	.loc	3 335 82 is_stmt 1              @ ../../../components/utility/cli/shell.c:335:82
	ldr	r2, [r5, #36]
	.loc	3 335 13 is_stmt 0              @ ../../../components/utility/cli/shell.c:335:13
	movw	r0, :lower16:.L.str.22
	ldr	r3, [sp, #4]                    @ 4-byte Reload
	.loc	3 331 47 is_stmt 1              @ ../../../components/utility/cli/shell.c:331:47
	ldr	r6, [r5, #4]
.Ltmp246:
	@DEBUG_VALUE: cursor_pos <- undef
	@DEBUG_VALUE: len <- 0
	@DEBUG_VALUE: pLine_buf <- $r6
	.loc	3 335 13                        @ ../../../components/utility/cli/shell.c:335:13
	movt	r0, :upper16:.L.str.22
	movs	r1, #6
	blx	r3
.Ltmp247:
	.loc	3 337 19                        @ ../../../components/utility/cli/shell.c:337:19
	mov	r0, r6
	bl	strlen
.Ltmp248:
	@DEBUG_VALUE: len <- $r0
	.loc	3 338 18                        @ ../../../components/utility/cli/shell.c:338:18
	cmp	r7, r0
	bne.w	.LBB4_95
.Ltmp249:
@ %bb.84:                               @   in Loop: Header=BB4_1 Depth=1
	@DEBUG_VALUE: pLine_buf <- $r6
	@DEBUG_VALUE: len <- $r0
	@DEBUG_VALUE: _shell_esc_code_proc:cb_write <- [DW_OP_plus_uconst 4] [$sp+0]
	@DEBUG_VALUE: cb_write <- [DW_OP_plus_uconst 4] [$sp+0]
	@DEBUG_VALUE: _shell_read_line:pIO <- [DW_OP_plus_uconst 12] [$sp+0]
	@DEBUG_VALUE: _shell_esc_code_proc:rval <- 0
	@DEBUG_VALUE: _shell_esc_code_proc:esc_code <- 14
	@DEBUG_VALUE: esc_code <- 14
	@DEBUG_VALUE: _shell_read_line:rval <- 0
	@DEBUG_VALUE: rval <- 0
	.loc	3 341 31                        @ ../../../components/utility/cli/shell.c:341:31
	adds	r0, r7, r6
.Ltmp250:
	.loc	3 341 36 is_stmt 0              @ ../../../components/utility/cli/shell.c:341:36
	strb	r4, [r0, #-1]
	.loc	3 342 32 is_stmt 1              @ ../../../components/utility/cli/shell.c:342:32
	ldr	r0, [r5, #20]
	.loc	3 342 45 is_stmt 0              @ ../../../components/utility/cli/shell.c:342:45
	subs	r1, r0, #1
	b	.LBB4_98
.Ltmp251:
.LBB4_85:                               @   in Loop: Header=BB4_1 Depth=1
	@DEBUG_VALUE: pos <- $r7
	@DEBUG_VALUE: _shell_esc_code_proc:cb_write <- [DW_OP_plus_uconst 4] [$sp+0]
	@DEBUG_VALUE: cb_write <- [DW_OP_plus_uconst 4] [$sp+0]
	@DEBUG_VALUE: _shell_read_line:pIO <- [DW_OP_plus_uconst 12] [$sp+0]
	@DEBUG_VALUE: _shell_esc_code_proc:rval <- 0
	@DEBUG_VALUE: _shell_esc_code_proc:esc_code <- 14
	@DEBUG_VALUE: esc_code <- 14
	@DEBUG_VALUE: _shell_read_line:rval <- 0
	@DEBUG_VALUE: rval <- 0
	.loc	3 359 14 is_stmt 1              @ ../../../components/utility/cli/shell.c:359:14
	ldr	r3, [r5, #20]
.Ltmp252:
	.loc	3 359 14 is_stmt 0              @ ../../../components/utility/cli/shell.c:359:14
	cmp	r3, #0
	beq.w	.LBB4_64
.Ltmp253:
@ %bb.86:                               @   in Loop: Header=BB4_1 Depth=1
	@DEBUG_VALUE: pos <- $r7
	@DEBUG_VALUE: _shell_esc_code_proc:cb_write <- [DW_OP_plus_uconst 4] [$sp+0]
	@DEBUG_VALUE: cb_write <- [DW_OP_plus_uconst 4] [$sp+0]
	@DEBUG_VALUE: _shell_read_line:pIO <- [DW_OP_plus_uconst 12] [$sp+0]
	@DEBUG_VALUE: _shell_esc_code_proc:rval <- 0
	@DEBUG_VALUE: _shell_esc_code_proc:esc_code <- 14
	@DEBUG_VALUE: esc_code <- 14
	@DEBUG_VALUE: _shell_read_line:rval <- 0
	@DEBUG_VALUE: rval <- 0
	.loc	3 0 14                          @ ../../../components/utility/cli/shell.c:0:14
	add	r6, sp, #16
.Ltmp254:
	.loc	3 362 13 is_stmt 1              @ ../../../components/utility/cli/shell.c:362:13
	movw	r2, :lower16:.L.str.6
	movs	r4, #0
	mov	r0, r6
	movs	r1, #12
	movt	r2, :upper16:.L.str.6
	.loc	3 361 21                        @ ../../../components/utility/cli/shell.c:361:21
	str	r4, [sp, #24]
	strd	r4, r4, [sp, #16]
	.loc	3 362 13                        @ ../../../components/utility/cli/shell.c:362:13
	bl	__2snprintf
.Ltmp255:
	.loc	3 363 42                        @ ../../../components/utility/cli/shell.c:363:42
	mov	r0, r6
	bl	strlen
.Ltmp256:
	.loc	3 363 68 is_stmt 0              @ ../../../components/utility/cli/shell.c:363:68
	ldr	r2, [r5, #36]
	.loc	3 363 13                        @ ../../../components/utility/cli/shell.c:363:13
	ldr	r3, [sp, #4]                    @ 4-byte Reload
	.loc	3 363 42                        @ ../../../components/utility/cli/shell.c:363:42
	mov	r1, r0
	.loc	3 363 13                        @ ../../../components/utility/cli/shell.c:363:13
	mov	r0, r6
	blx	r3
.Ltmp257:
	.loc	3 364 26 is_stmt 1              @ ../../../components/utility/cli/shell.c:364:26
	str	r4, [r5, #20]
	b	.LBB4_64
.Ltmp258:
.LBB4_87:                               @   in Loop: Header=BB4_1 Depth=1
	@DEBUG_VALUE: pos <- $r7
	@DEBUG_VALUE: _shell_esc_code_proc:cb_write <- [DW_OP_plus_uconst 4] [$sp+0]
	@DEBUG_VALUE: cb_write <- [DW_OP_plus_uconst 4] [$sp+0]
	@DEBUG_VALUE: _shell_read_line:pIO <- [DW_OP_plus_uconst 12] [$sp+0]
	@DEBUG_VALUE: _shell_esc_code_proc:rval <- 0
	@DEBUG_VALUE: _shell_esc_code_proc:esc_code <- 14
	@DEBUG_VALUE: esc_code <- 14
	@DEBUG_VALUE: _shell_read_line:rval <- 0
	@DEBUG_VALUE: rval <- 0
	.loc	3 368 29                        @ ../../../components/utility/cli/shell.c:368:29
	ldrd	r0, r1, [r5, #16]
.Ltmp259:
	.loc	3 368 14 is_stmt 0              @ ../../../components/utility/cli/shell.c:368:14
	cmp	r0, r1
	bls.w	.LBB4_64
.Ltmp260:
@ %bb.88:                               @   in Loop: Header=BB4_1 Depth=1
	@DEBUG_VALUE: pos <- $r7
	@DEBUG_VALUE: _shell_esc_code_proc:cb_write <- [DW_OP_plus_uconst 4] [$sp+0]
	@DEBUG_VALUE: cb_write <- [DW_OP_plus_uconst 4] [$sp+0]
	@DEBUG_VALUE: _shell_read_line:pIO <- [DW_OP_plus_uconst 12] [$sp+0]
	@DEBUG_VALUE: _shell_esc_code_proc:rval <- 0
	@DEBUG_VALUE: _shell_esc_code_proc:esc_code <- 14
	@DEBUG_VALUE: esc_code <- 14
	@DEBUG_VALUE: _shell_read_line:rval <- 0
	@DEBUG_VALUE: rval <- 0
	.loc	3 0 14                          @ ../../../components/utility/cli/shell.c:0:14
	movs	r2, #0
.Ltmp261:
	.loc	3 370 21 is_stmt 1              @ ../../../components/utility/cli/shell.c:370:21
	str	r2, [sp, #24]
	strd	r2, r2, [sp, #16]
	add	r4, sp, #16
	.loc	3 371 13                        @ ../../../components/utility/cli/shell.c:371:13
	movw	r2, :lower16:.L.str.23
	.loc	3 371 64 is_stmt 0              @ ../../../components/utility/cli/shell.c:371:64
	subs	r3, r0, r1
	.loc	3 371 13                        @ ../../../components/utility/cli/shell.c:371:13
	mov	r0, r4
	movs	r1, #12
	movt	r2, :upper16:.L.str.23
	bl	__2snprintf
.Ltmp262:
	.loc	3 372 42 is_stmt 1              @ ../../../components/utility/cli/shell.c:372:42
	mov	r0, r4
	bl	strlen
.Ltmp263:
	.loc	3 372 68 is_stmt 0              @ ../../../components/utility/cli/shell.c:372:68
	ldr	r2, [r5, #36]
	.loc	3 372 13                        @ ../../../components/utility/cli/shell.c:372:13
	ldr	r3, [sp, #4]                    @ 4-byte Reload
	.loc	3 372 42                        @ ../../../components/utility/cli/shell.c:372:42
	mov	r1, r0
	.loc	3 372 13                        @ ../../../components/utility/cli/shell.c:372:13
	mov	r0, r4
	blx	r3
.Ltmp264:
	.loc	3 373 28 is_stmt 1              @ ../../../components/utility/cli/shell.c:373:28
	ldr	r0, [r5, #16]
	b	.LBB4_71
.Ltmp265:
.LBB4_89:                               @   in Loop: Header=BB4_1 Depth=1
	@DEBUG_VALUE: pLine_buf <- $r8
	@DEBUG_VALUE: wr_pos <- $r7
	@DEBUG_VALUE: cursor_pos <- $r0
	@DEBUG_VALUE: _shell_erase_line:cb_write <- [DW_OP_plus_uconst 4] [$sp+0]
	@DEBUG_VALUE: _shell_esc_code_proc:cb_write <- [DW_OP_plus_uconst 4] [$sp+0]
	@DEBUG_VALUE: cb_write <- [DW_OP_plus_uconst 4] [$sp+0]
	@DEBUG_VALUE: _shell_read_line:pIO <- [DW_OP_plus_uconst 12] [$sp+0]
	@DEBUG_VALUE: _shell_erase_line:rval <- 0
	@DEBUG_VALUE: line_len <- 0
	@DEBUG_VALUE: pLine <- 0
	@DEBUG_VALUE: _shell_esc_code_proc:rval <- 0
	@DEBUG_VALUE: _shell_esc_code_proc:esc_code <- 14
	@DEBUG_VALUE: esc_code <- 14
	@DEBUG_VALUE: _shell_read_line:rval <- 0
	@DEBUG_VALUE: rval <- 0
	@DEBUG_VALUE: wr_pos <- [DW_OP_constu 1, DW_OP_minus, DW_OP_stack_value] $r7
	.loc	3 0 28 is_stmt 0                @ ../../../components/utility/cli/shell.c:0:28
	movw	r4, :lower16:.L.str.22
	ldr.w	r9, [sp, #4]                    @ 4-byte Reload
	mov.w	r11, #0
	movt	r4, :upper16:.L.str.22
.Ltmp266:
	.loc	3 249 9 is_stmt 1               @ ../../../components/utility/cli/shell.c:249:9
	cbz	r7, .LBB4_91
.Ltmp267:
	.p2align	2
.LBB4_90:                               @   Parent Loop BB4_1 Depth=1
                                        @ =>  This Inner Loop Header: Depth=2
	@DEBUG_VALUE: pLine_buf <- $r8
	@DEBUG_VALUE: wr_pos <- [DW_OP_constu 1, DW_OP_minus, DW_OP_stack_value] $r7
	@DEBUG_VALUE: _shell_erase_line:cb_write <- [DW_OP_plus_uconst 4] [$sp+0]
	@DEBUG_VALUE: _shell_esc_code_proc:cb_write <- [DW_OP_plus_uconst 4] [$sp+0]
	@DEBUG_VALUE: cb_write <- [DW_OP_plus_uconst 4] [$sp+0]
	@DEBUG_VALUE: _shell_read_line:pIO <- [DW_OP_plus_uconst 12] [$sp+0]
	@DEBUG_VALUE: _shell_erase_line:rval <- 0
	@DEBUG_VALUE: line_len <- 0
	@DEBUG_VALUE: pLine <- 0
	@DEBUG_VALUE: _shell_esc_code_proc:rval <- 0
	@DEBUG_VALUE: _shell_esc_code_proc:esc_code <- 14
	@DEBUG_VALUE: esc_code <- 14
	@DEBUG_VALUE: _shell_read_line:rval <- 0
	@DEBUG_VALUE: rval <- 0
	@DEBUG_VALUE: wr_pos <- $r7
	.loc	3 251 82                        @ ../../../components/utility/cli/shell.c:251:82
	ldr	r2, [r5, #36]
	.loc	3 251 13 is_stmt 0              @ ../../../components/utility/cli/shell.c:251:13
	mov	r0, r4
	movs	r1, #6
.Ltmp268:
	.loc	3 249 23 is_stmt 1              @ ../../../components/utility/cli/shell.c:249:23
	subs	r7, #1
.Ltmp269:
	@DEBUG_VALUE: wr_pos <- $r7
	.loc	3 251 13                        @ ../../../components/utility/cli/shell.c:251:13
	blx	r9
.Ltmp270:
	@DEBUG_VALUE: wr_pos <- [DW_OP_constu 1, DW_OP_minus, DW_OP_stack_value] $r7
	.loc	3 249 9                         @ ../../../components/utility/cli/shell.c:249:9
	cmp	r7, #0
	bne	.LBB4_90
.Ltmp271:
.LBB4_91:                               @   in Loop: Header=BB4_1 Depth=1
	@DEBUG_VALUE: pLine_buf <- $r8
	@DEBUG_VALUE: wr_pos <- [DW_OP_constu 1, DW_OP_minus, DW_OP_stack_value] $r7
	@DEBUG_VALUE: _shell_erase_line:cb_write <- [DW_OP_plus_uconst 4] [$sp+0]
	@DEBUG_VALUE: _shell_esc_code_proc:cb_write <- [DW_OP_plus_uconst 4] [$sp+0]
	@DEBUG_VALUE: cb_write <- [DW_OP_plus_uconst 4] [$sp+0]
	@DEBUG_VALUE: _shell_read_line:pIO <- [DW_OP_plus_uconst 12] [$sp+0]
	@DEBUG_VALUE: _shell_erase_line:rval <- 0
	@DEBUG_VALUE: line_len <- 0
	@DEBUG_VALUE: pLine <- 0
	@DEBUG_VALUE: _shell_esc_code_proc:rval <- 0
	@DEBUG_VALUE: _shell_esc_code_proc:esc_code <- 14
	@DEBUG_VALUE: esc_code <- 14
	@DEBUG_VALUE: _shell_read_line:rval <- 0
	@DEBUG_VALUE: rval <- 0
	.loc	3 255 33                        @ ../../../components/utility/cli/shell.c:255:33
	strd	r11, r11, [r5, #16]
	.loc	3 256 22                        @ ../../../components/utility/cli/shell.c:256:22
	strb.w	r11, [r8]
.Ltmp272:
	@DEBUG_VALUE: _shell_pop_history:pRow_index <- [DW_OP_plus_uconst 52, DW_OP_stack_value] undef
	@DEBUG_VALUE: row_index <- undef
	@DEBUG_VALUE: _shell_pop_history:pLine <- 0
	.loc	3 0 0 is_stmt 0                 @ ../../../components/utility/cli/shell.c:0:0
	ldrh	r1, [r5, #46]
.Ltmp273:
	.loc	3 210 29 is_stmt 1              @ ../../../components/utility/cli/shell.c:210:29
	ldr	r2, [r5, #52]
	.loc	3 211 14                        @ ../../../components/utility/cli/shell.c:211:14
	rsbs	r3, r1, #0
	.loc	3 222 26                        @ ../../../components/utility/cli/shell.c:222:26
	ldr	r0, [r5, #48]
	.loc	3 211 14                        @ ../../../components/utility/cli/shell.c:211:14
	cmp	r2, r1
	it	lt
	movlt	r3, #0
	cmp	r2, #0
	it	mi
	movmi	r3, r1
	adds	r7, r2, r3
.Ltmp274:
	@DEBUG_VALUE: row_index <- $r7
	.loc	3 220 21                        @ ../../../components/utility/cli/shell.c:220:21
	str	r7, [r5, #52]
	.loc	3 222 17                        @ ../../../components/utility/cli/shell.c:222:17
	ldr.w	r9, [r0, r7, lsl #2]
.Ltmp275:
	@DEBUG_VALUE: _shell_pop_history:pLine <- $r9
	@DEBUG_VALUE: pLine <- $r9
	.loc	3 385 20                        @ ../../../components/utility/cli/shell.c:385:20
	cmp.w	r9, #0
	beq	.LBB4_94
.Ltmp276:
@ %bb.92:                               @   in Loop: Header=BB4_1 Depth=1
	@DEBUG_VALUE: pLine <- $r9
	@DEBUG_VALUE: _shell_esc_code_proc:cb_write <- [DW_OP_plus_uconst 4] [$sp+0]
	@DEBUG_VALUE: cb_write <- [DW_OP_plus_uconst 4] [$sp+0]
	@DEBUG_VALUE: _shell_read_line:pIO <- [DW_OP_plus_uconst 12] [$sp+0]
	@DEBUG_VALUE: line_len <- 0
	@DEBUG_VALUE: _shell_esc_code_proc:rval <- 0
	@DEBUG_VALUE: _shell_esc_code_proc:esc_code <- 14
	@DEBUG_VALUE: esc_code <- 14
	@DEBUG_VALUE: _shell_read_line:rval <- 0
	@DEBUG_VALUE: rval <- 0
	.loc	3 385 30 is_stmt 0              @ ../../../components/utility/cli/shell.c:385:30
	mov	r0, r9
	bl	strlen
.Ltmp277:
	@DEBUG_VALUE: line_len <- $r0
	.loc	3 387 20 is_stmt 1              @ ../../../components/utility/cli/shell.c:387:20
	cbz	r0, .LBB4_94
.Ltmp278:
@ %bb.93:                               @   in Loop: Header=BB4_1 Depth=1
	@DEBUG_VALUE: pLine <- $r9
	@DEBUG_VALUE: line_len <- $r0
	@DEBUG_VALUE: _shell_esc_code_proc:cb_write <- [DW_OP_plus_uconst 4] [$sp+0]
	@DEBUG_VALUE: cb_write <- [DW_OP_plus_uconst 4] [$sp+0]
	@DEBUG_VALUE: _shell_read_line:pIO <- [DW_OP_plus_uconst 12] [$sp+0]
	@DEBUG_VALUE: _shell_esc_code_proc:rval <- 0
	@DEBUG_VALUE: _shell_esc_code_proc:esc_code <- 14
	@DEBUG_VALUE: esc_code <- 14
	@DEBUG_VALUE: _shell_read_line:rval <- 0
	@DEBUG_VALUE: rval <- 0
	.loc	3 0 0 is_stmt 0                 @ ../../../components/utility/cli/shell.c:0:0
	mov	r8, r0
.Ltmp279:
	@DEBUG_VALUE: line_len <- $r8
	@DEBUG_VALUE: line_len <- $r8
	@DEBUG_VALUE: line_len <- $r8
	.loc	3 389 30 is_stmt 1              @ ../../../components/utility/cli/shell.c:389:30
	ldr	r0, [r5, #4]
	.loc	3 389 13 is_stmt 0              @ ../../../components/utility/cli/shell.c:389:13
	mov	r1, r9
	mov	r2, r8
	bl	strncpy
.Ltmp280:
	.loc	3 390 59 is_stmt 1              @ ../../../components/utility/cli/shell.c:390:59
	ldr	r2, [r5, #36]
	.loc	3 390 13 is_stmt 0              @ ../../../components/utility/cli/shell.c:390:13
	ldr	r3, [sp, #4]                    @ 4-byte Reload
	mov	r0, r9
	mov	r1, r8
	blx	r3
.Ltmp281:
	.loc	3 394 14 is_stmt 1              @ ../../../components/utility/cli/shell.c:394:14
	ldr	r7, [r5, #52]
.Ltmp282:
	.loc	3 391 37                        @ ../../../components/utility/cli/shell.c:391:37
	str.w	r8, [r5, #16]
	.loc	3 391 26 is_stmt 0              @ ../../../components/utility/cli/shell.c:391:26
	str.w	r8, [r5, #20]
.Ltmp283:
.LBB4_94:                               @   in Loop: Header=BB4_1 Depth=1
	@DEBUG_VALUE: pLine <- $r9
	@DEBUG_VALUE: _shell_esc_code_proc:cb_write <- [DW_OP_plus_uconst 4] [$sp+0]
	@DEBUG_VALUE: cb_write <- [DW_OP_plus_uconst 4] [$sp+0]
	@DEBUG_VALUE: _shell_read_line:pIO <- [DW_OP_plus_uconst 12] [$sp+0]
	@DEBUG_VALUE: _shell_esc_code_proc:rval <- 0
	@DEBUG_VALUE: _shell_esc_code_proc:esc_code <- 14
	@DEBUG_VALUE: esc_code <- 14
	@DEBUG_VALUE: _shell_read_line:rval <- 0
	@DEBUG_VALUE: rval <- 0
	.loc	3 394 14 is_stmt 1              @ ../../../components/utility/cli/shell.c:394:14
	mov.w	r0, #-1
	cmp	r6, #7
	it	eq
	moveq	r0, #1
	add	r0, r7
	movw	r9, #48879
.Ltmp284:
	.loc	3 0 14 is_stmt 0                @ ../../../components/utility/cli/shell.c:0:14
	movw	r8, :lower16:shell_proc.is_line_head
.Ltmp285:
	str	r0, [r5, #52]
	movt	r9, #57005
	movt	r8, :upper16:shell_proc.is_line_head
	b	.LBB4_64
.Ltmp286:
.LBB4_95:                               @   in Loop: Header=BB4_1 Depth=1
	@DEBUG_VALUE: pLine_buf <- $r6
	@DEBUG_VALUE: len <- $r0
	@DEBUG_VALUE: _shell_esc_code_proc:cb_write <- [DW_OP_plus_uconst 4] [$sp+0]
	@DEBUG_VALUE: cb_write <- [DW_OP_plus_uconst 4] [$sp+0]
	@DEBUG_VALUE: _shell_read_line:pIO <- [DW_OP_plus_uconst 12] [$sp+0]
	@DEBUG_VALUE: _shell_esc_code_proc:rval <- 0
	@DEBUG_VALUE: _shell_esc_code_proc:esc_code <- 14
	@DEBUG_VALUE: esc_code <- 14
	@DEBUG_VALUE: _shell_read_line:rval <- 0
	@DEBUG_VALUE: rval <- 0
	.loc	3 346 20 is_stmt 1              @ ../../../components/utility/cli/shell.c:346:20
	adds	r2, r0, #1
.Ltmp287:
	@DEBUG_VALUE: len <- $r2
	.loc	3 347 30                        @ ../../../components/utility/cli/shell.c:347:30
	subs	r1, r7, #1
.Ltmp288:
	@DEBUG_VALUE: i <- $r1
	@DEBUG_VALUE: cursor_pos <- $r1
	.loc	3 347 17 is_stmt 0              @ ../../../components/utility/cli/shell.c:347:17
	cmp	r1, r2
	bhs	.LBB4_98
.Ltmp289:
@ %bb.96:                               @   in Loop: Header=BB4_1 Depth=1
	@DEBUG_VALUE: pLine_buf <- $r6
	@DEBUG_VALUE: len <- $r2
	@DEBUG_VALUE: cursor_pos <- $r1
	@DEBUG_VALUE: i <- $r1
	@DEBUG_VALUE: _shell_esc_code_proc:cb_write <- [DW_OP_plus_uconst 4] [$sp+0]
	@DEBUG_VALUE: cb_write <- [DW_OP_plus_uconst 4] [$sp+0]
	@DEBUG_VALUE: _shell_read_line:pIO <- [DW_OP_plus_uconst 12] [$sp+0]
	@DEBUG_VALUE: _shell_esc_code_proc:rval <- 0
	@DEBUG_VALUE: _shell_esc_code_proc:esc_code <- 14
	@DEBUG_VALUE: esc_code <- 14
	@DEBUG_VALUE: _shell_read_line:rval <- 0
	@DEBUG_VALUE: rval <- 0
	adds	r2, r6, r7
.Ltmp290:
	subs	r0, r0, r7
	subs	r2, #1
	adds	r0, #2
.Ltmp291:
	.loc	3 349 36 is_stmt 1              @ ../../../components/utility/cli/shell.c:349:36
	mov	r3, r2
.Ltmp292:
.LBB4_97:                               @   Parent Loop BB4_1 Depth=1
                                        @ =>  This Inner Loop Header: Depth=2
	@DEBUG_VALUE: pLine_buf <- $r6
	@DEBUG_VALUE: cursor_pos <- $r1
	@DEBUG_VALUE: _shell_esc_code_proc:cb_write <- [DW_OP_plus_uconst 4] [$sp+0]
	@DEBUG_VALUE: cb_write <- [DW_OP_plus_uconst 4] [$sp+0]
	@DEBUG_VALUE: _shell_read_line:pIO <- [DW_OP_plus_uconst 12] [$sp+0]
	@DEBUG_VALUE: _shell_esc_code_proc:rval <- 0
	@DEBUG_VALUE: _shell_esc_code_proc:esc_code <- 14
	@DEBUG_VALUE: esc_code <- 14
	@DEBUG_VALUE: _shell_read_line:rval <- 0
	@DEBUG_VALUE: rval <- 0
	@DEBUG_VALUE: i <- undef
	ldrb	r7, [r3, #1]!
.Ltmp293:
	.loc	3 347 46                        @ ../../../components/utility/cli/shell.c:347:46
	subs	r0, #1
.Ltmp294:
	.loc	3 349 34                        @ ../../../components/utility/cli/shell.c:349:34
	strb	r7, [r2]
.Ltmp295:
	@DEBUG_VALUE: i <- [DW_OP_plus_uconst 1, DW_OP_stack_value] undef
	.loc	3 0 34 is_stmt 0                @ ../../../components/utility/cli/shell.c:0:34
	mov	r2, r3
.Ltmp296:
	.loc	3 347 17 is_stmt 1              @ ../../../components/utility/cli/shell.c:347:17
	bne	.LBB4_97
.Ltmp297:
.LBB4_98:                               @   in Loop: Header=BB4_1 Depth=1
	@DEBUG_VALUE: pLine_buf <- $r6
	@DEBUG_VALUE: _shell_esc_code_proc:cb_write <- [DW_OP_plus_uconst 4] [$sp+0]
	@DEBUG_VALUE: cb_write <- [DW_OP_plus_uconst 4] [$sp+0]
	@DEBUG_VALUE: _shell_read_line:pIO <- [DW_OP_plus_uconst 12] [$sp+0]
	@DEBUG_VALUE: _shell_esc_code_proc:rval <- 0
	@DEBUG_VALUE: _shell_esc_code_proc:esc_code <- 14
	@DEBUG_VALUE: esc_code <- 14
	@DEBUG_VALUE: _shell_read_line:rval <- 0
	@DEBUG_VALUE: rval <- 0
	.loc	3 355 24                        @ ../../../components/utility/cli/shell.c:355:24
	ldr	r0, [r5, #16]
.Ltmp298:
	.loc	3 0 0 is_stmt 0                 @ ../../../components/utility/cli/shell.c:0:0
	str	r1, [r5, #20]
.Ltmp299:
.LBB4_99:                               @   in Loop: Header=BB4_1 Depth=1
	@DEBUG_VALUE: _shell_esc_code_proc:cb_write <- [DW_OP_plus_uconst 4] [$sp+0]
	@DEBUG_VALUE: cb_write <- [DW_OP_plus_uconst 4] [$sp+0]
	@DEBUG_VALUE: _shell_read_line:pIO <- [DW_OP_plus_uconst 12] [$sp+0]
	@DEBUG_VALUE: _shell_esc_code_proc:rval <- 0
	@DEBUG_VALUE: _shell_esc_code_proc:esc_code <- 14
	@DEBUG_VALUE: esc_code <- 14
	@DEBUG_VALUE: _shell_read_line:rval <- 0
	@DEBUG_VALUE: rval <- 0
	subs	r0, #1
	str	r0, [r5, #16]
	b	.LBB4_64
.Ltmp300:
.LBB4_100:
	.loc	3 841 5 is_stmt 1               @ ../../../components/utility/cli/shell.c:841:5
	movs	r0, #0
	add	sp, #116
	pop.w	{r4, r5, r6, r7, r8, r9, r10, r11, pc}
.Ltmp301:
	.p2align	2
@ %bb.101:
	.loc	3 0 5 is_stmt 0                 @ ../../../components/utility/cli/shell.c:0:5
.LCPI4_0:
.L.str.2:
	.asciz	"~# "
.LCPI4_1:
.L.str.7:
	.asciz	"%s\000"
.LCPI4_2:
.L.str.3:
	.asciz	"\n\000\000"
.Lfunc_end4:
	.size	shell_proc, .Lfunc_end4-shell_proc
	.cfi_endproc
	.cantunwind
	.fnend
                                        @ -- End function
	.section	.text._shell_log,"ax",%progbits
	.p2align	1                               @ -- Begin function _shell_log
	.type	_shell_log,%function
	.code	16                              @ @_shell_log
	.thumb_func
_shell_log:
.Lfunc_begin5:
	.loc	3 163 0 is_stmt 1               @ ../../../components/utility/cli/shell.c:163:0
	.fnstart
	.cfi_startproc
@ %bb.0:
	@DEBUG_VALUE: _shell_log:fmt <- $r0
	.save	{r4, r5, r6, lr}
	push	{r4, r5, r6, lr}
	.cfi_def_cfa_offset 16
	.cfi_offset lr, -4
	.cfi_offset r6, -8
	.cfi_offset r5, -12
	.cfi_offset r4, -16
.Ltmp302:
	.loc	3 166 37 prologue_end           @ ../../../components/utility/cli/shell.c:166:37
	movw	r5, :lower16:g_sh_dev
	movt	r5, :upper16:g_sh_dev
	ldr	r4, [r5]
.Ltmp303:
	@DEBUG_VALUE: _shell_log:rval <- 0
	@DEBUG_VALUE: _shell_log:pIO <- $r4
	@DEBUG_VALUE: _shell_log:fmt <- $r0
	@DEBUG_VALUE: _shell_log:fmt <- $r0
	.loc	3 168 5                         @ ../../../components/utility/cli/shell.c:168:5
	bl	__2printf
.Ltmp304:
	@DEBUG_VALUE: _shell_log:fmt <- [DW_OP_LLVM_entry_value 1] $r0
	.loc	3 172 13                        @ ../../../components/utility/cli/shell.c:172:13
	cbz	r4, .LBB5_3
.Ltmp305:
@ %bb.1:
	@DEBUG_VALUE: _shell_log:pIO <- $r4
	@DEBUG_VALUE: _shell_log:fmt <- [DW_OP_LLVM_entry_value 1] $r0
	@DEBUG_VALUE: _shell_log:rval <- 0
	.loc	3 172 21 is_stmt 0              @ ../../../components/utility/cli/shell.c:172:21
	ldr	r0, [r4, #4]
.Ltmp306:
	.loc	3 172 9                         @ ../../../components/utility/cli/shell.c:172:9
	cbz	r0, .LBB5_3
.Ltmp307:
@ %bb.2:
	@DEBUG_VALUE: _shell_log:pIO <- $r4
	@DEBUG_VALUE: _shell_log:fmt <- [DW_OP_LLVM_entry_value 1] $r0
	@DEBUG_VALUE: _shell_log:rval <- 0
	.loc	3 174 50 is_stmt 1              @ ../../../components/utility/cli/shell.c:174:50
	movw	r4, :lower16:_shell_log.log_buf
.Ltmp308:
	movt	r4, :upper16:_shell_log.log_buf
	mov	r6, r0
	mov	r0, r4
	bl	strlen
.Ltmp309:
	.loc	3 174 76 is_stmt 0              @ ../../../components/utility/cli/shell.c:174:76
	ldr	r2, [r5, #36]
	.loc	3 174 50                        @ ../../../components/utility/cli/shell.c:174:50
	mov	r1, r0
	.loc	3 174 16                        @ ../../../components/utility/cli/shell.c:174:16
	mov	r0, r4
	mov	r3, r6
	pop.w	{r4, r5, r6, lr}
.Ltmp310:
	bx	r3
.Ltmp311:
.LBB5_3:
	@DEBUG_VALUE: _shell_log:pIO <- $r4
	@DEBUG_VALUE: _shell_log:fmt <- [DW_OP_LLVM_entry_value 1] $r0
	@DEBUG_VALUE: _shell_log:rval <- 0
	@DEBUG_VALUE: _shell_log:rval <- 0
	.loc	3 177 5 is_stmt 1               @ ../../../components/utility/cli/shell.c:177:5
	movs	r0, #0
	pop	{r4, r5, r6, pc}
.Ltmp312:
.Lfunc_end5:
	.size	_shell_log, .Lfunc_end5-_shell_log
	.cfi_endproc
	.cantunwind
	.fnend
                                        @ -- End function
	.type	.L.str,%object                  @ @.str
	.section	.rodata.str1.1,"aMS",%progbits,1
.L.str:
	.asciz	"help"
	.size	.L.str, 5

	.type	.L.str.1,%object                @ @.str.1
.L.str.1:
	.asciz	"list commands"
	.size	.L.str.1, 14

	.hidden	g_sh_cmd_desc_help              @ @g_sh_cmd_desc_help
	.type	g_sh_cmd_desc_help,%object
	.section	cli_cmd_pool,"a",%progbits
	.globl	g_sh_cmd_desc_help
	.p2align	2
g_sh_cmd_desc_help:
__tagsym$$used.0:
	.long	0
	.long	.L.str
	.long	0                               @ 0x0
	.long	.L.str.1
	.long	0
	.long	_sh_cmd_help
	.size	g_sh_cmd_desc_help, 24

	.type	g_sh_dev,%object                @ @g_sh_dev
	.section	.bss.g_sh_dev,"aw",%nobits
	.p2align	2
g_sh_dev:
	.zero	56
	.size	g_sh_dev, 56

	.type	g_pCmd_head,%object             @ @g_pCmd_head
	.section	.bss.g_pCmd_head,"aw",%nobits
	.p2align	2
g_pCmd_head:
	.long	0
	.size	g_pCmd_head, 4

	.type	shell_proc.is_line_head,%object @ @shell_proc.is_line_head
	.section	.bss.shell_proc.is_line_head,"aw",%nobits
	.p2align	2
shell_proc.is_line_head:
	.byte	0                               @ 0x0
	.size	shell_proc.is_line_head, 1

	.type	.L.str.5,%object                @ @.str.5
	.section	.rodata.str1.1,"aMS",%progbits,1
.L.str.5:
	.asciz	"\ncommand: '%s'\n  %s\n"
	.size	.L.str.5, 21

	.type	.L.str.6,%object                @ @.str.6
.L.str.6:
	.asciz	"\033[%dD"
	.size	.L.str.6, 6

	.type	g_esc_code_table,%object        @ @g_esc_code_table
	.section	.rodata.g_esc_code_table,"a",%progbits
	.p2align	2
g_esc_code_table:
	.long	1                               @ 0x1
	.short	4                               @ 0x4
	.zero	2
	.long	.L.str.8
	.long	2                               @ 0x2
	.short	4                               @ 0x4
	.zero	2
	.long	.L.str.9
	.long	3                               @ 0x3
	.short	4                               @ 0x4
	.zero	2
	.long	.L.str.10
	.long	3                               @ 0x3
	.short	3                               @ 0x3
	.zero	2
	.long	.L.str.11
	.long	4                               @ 0x4
	.short	4                               @ 0x4
	.zero	2
	.long	.L.str.12
	.long	5                               @ 0x5
	.short	4                               @ 0x4
	.zero	2
	.long	.L.str.13
	.long	6                               @ 0x6
	.short	4                               @ 0x4
	.zero	2
	.long	.L.str.14
	.long	7                               @ 0x7
	.short	3                               @ 0x3
	.zero	2
	.long	.L.str.15
	.long	8                               @ 0x8
	.short	3                               @ 0x3
	.zero	2
	.long	.L.str.16
	.long	9                               @ 0x9
	.short	3                               @ 0x3
	.zero	2
	.long	.L.str.17
	.long	10                              @ 0xa
	.short	3                               @ 0x3
	.zero	2
	.long	.L.str.18
	.long	11                              @ 0xb
	.short	1                               @ 0x1
	.zero	2
	.long	.L.str.19
	.long	12                              @ 0xc
	.short	1                               @ 0x1
	.zero	2
	.long	.L.str.20
	.long	13                              @ 0xd
	.short	1                               @ 0x1
	.zero	2
	.long	.L.str.21
	.long	14                              @ 0xe
	.short	0                               @ 0x0
	.zero	2
	.long	0
	.size	g_esc_code_table, 180

	.type	.L.str.8,%object                @ @.str.8
	.section	.rodata.str1.1,"aMS",%progbits,1
.L.str.8:
	.asciz	"\033[1~"
	.size	.L.str.8, 5

	.type	.L.str.9,%object                @ @.str.9
.L.str.9:
	.asciz	"\033[2~"
	.size	.L.str.9, 5

	.type	.L.str.10,%object               @ @.str.10
.L.str.10:
	.asciz	"\033[3~"
	.size	.L.str.10, 5

	.type	.L.str.11,%object               @ @.str.11
.L.str.11:
	.asciz	"\033[P"
	.size	.L.str.11, 4

	.type	.L.str.12,%object               @ @.str.12
.L.str.12:
	.asciz	"\033[4~"
	.size	.L.str.12, 5

	.type	.L.str.13,%object               @ @.str.13
.L.str.13:
	.asciz	"\033[5~"
	.size	.L.str.13, 5

	.type	.L.str.14,%object               @ @.str.14
.L.str.14:
	.asciz	"\033[6~"
	.size	.L.str.14, 5

	.type	.L.str.15,%object               @ @.str.15
.L.str.15:
	.asciz	"\033[A"
	.size	.L.str.15, 4

	.type	.L.str.16,%object               @ @.str.16
.L.str.16:
	.asciz	"\033[B"
	.size	.L.str.16, 4

	.type	.L.str.17,%object               @ @.str.17
.L.str.17:
	.asciz	"\033[D"
	.size	.L.str.17, 4

	.type	.L.str.18,%object               @ @.str.18
.L.str.18:
	.asciz	"\033[C"
	.size	.L.str.18, 4

	.type	.L.str.19,%object               @ @.str.19
.L.str.19:
	.asciz	"\b"
	.size	.L.str.19, 2

	.type	.L.str.20,%object               @ @.str.20
.L.str.20:
	.asciz	"\t"
	.size	.L.str.20, 2

	.type	.L.str.21,%object               @ @.str.21
.L.str.21:
	.asciz	"\003"
	.size	.L.str.21, 2

	.type	.L.str.22,%object               @ @.str.22
.L.str.22:
	.asciz	"\033[D\033[P"
	.size	.L.str.22, 7

	.type	.L.str.23,%object               @ @.str.23
.L.str.23:
	.asciz	"\033[%dC"
	.size	.L.str.23, 6

	.type	_shell_log.log_buf,%object      @ @_shell_log.log_buf
	.section	.bss._shell_log.log_buf,"aw",%nobits
_shell_log.log_buf:
	.zero	512
	.size	_shell_log.log_buf, 512

	.globl	g_sh_cmd_desc_help
	.globl	_printf_percent
	.globl	_printf_s
	.globl	_printf_d
	.globl	_printf_int_dec
	.globl	_printf_str
	.hidden	_printf_percent
	.hidden	_printf_s
	.hidden	_printf_d
	.hidden	_printf_int_dec
	.hidden	_printf_str
	.section	".note.GNU-stack","",%progbits
	.eabi_attribute	30, 3	@ Tag_ABI_optimization_goals
	.ARM_attribute	16, 1	@ Tag_AV_eba