	.text
	.syntax unified
	.eabi_attribute	67, "2.09"	@ Tag_conformance
	.cpu	cortex-m3
	.eabi_attribute	6, 10	@ Tag_CPU_arch
	.eabi_attribute	7, 77	@ Tag_CPU_arch_profile
	.eabi_attribute	8, 0	@ Tag_ARM_ISA_use
	.eabi_attribute	9, 2	@ Tag_THUMB_ISA_use
	.eabi_attribute	34, 1	@ Tag_CPU_unaligned_access
	.eabi_attribute	17, 1	@ Tag_ABI_PCS_GOT_use
	.eabi_attribute	20, 2	@ Tag_ABI_FP_denormal
	.eabi_attribute	21, 0	@ Tag_ABI_FP_exceptions
	.eabi_attribute	23, 1	@ Tag_ABI_FP_number_model
	.eabi_attribute	24, 1	@ Tag_ABI_align_needed
	.eabi_attribute	25, 1	@ Tag_ABI_align_preserved
	.eabi_attribute	38, 1	@ Tag_ABI_FP_16bit_format
	.eabi_attribute	18, 4	@ Tag_ABI_PCS_wchar_t
	.eabi_attribute	26, 2	@ Tag_ABI_enum_size
	.eabi_attribute	14, 0	@ Tag_ABI_PCS_R9_use
	.file	"sscanf.c"
	.section	.text.sscanf,"ax",%progbits
	.hidden	sscanf                          @ -- Begin function sscanf
	.globl	sscanf
	.p2align	1
	.type	sscanf,%function
	.code	16                              @ @sscanf
	.thumb_func
sscanf:
.Lfunc_begin0:
	.file	1 "D:\\20240115\\rafael-iot-sdk-das\\examples\\das_subg_thread\\keil" "../../../components/platform/soc/rt582/rt582_dongle/dongle/src/sscanf.c"
	.loc	1 13 0                          @ ../../../components/platform/soc/rt582/rt582_dongle/dongle/src/sscanf.c:13:0
	.fnstart
	.cfi_sections .debug_frame
	.cfi_startproc
@ %bb.0:
	@DEBUG_VALUE: sscanf:str <- $r0
	@DEBUG_VALUE: sscanf:format <- $r1
	.pad	#8
	sub	sp, #8
	.cfi_def_cfa_offset 8
	.save	{r7, lr}
	push	{r7, lr}
	.cfi_def_cfa_offset 16
	.cfi_offset lr, -12
	.cfi_offset r7, -16
	.pad	#8
	sub	sp, #8
	.cfi_def_cfa_offset 24
	strd	r2, r3, [sp, #16]
	add	r2, sp, #16
	@DEBUG_VALUE: sscanf:format <- $r1
	@DEBUG_VALUE: sscanf:str <- $r0
.Ltmp0:
	.loc	1 17 5 prologue_end             @ ../../../components/platform/soc/rt582/rt582_dongle/dongle/src/sscanf.c:17:5
	str	r2, [sp, #4]
	@DEBUG_VALUE: sscanf:format <- $r1
	@DEBUG_VALUE: sscanf:str <- $r0
	.loc	1 18 10                         @ ../../../components/platform/soc/rt582/rt582_dongle/dongle/src/sscanf.c:18:10
	bl	vsscanf
.Ltmp1:
	@DEBUG_VALUE: sscanf:format <- [DW_OP_LLVM_entry_value 1] $r1
	@DEBUG_VALUE: sscanf:str <- [DW_OP_LLVM_entry_value 1] $r0
	@DEBUG_VALUE: sscanf:rv <- $r0
	.loc	1 21 5                          @ ../../../components/platform/soc/rt582/rt582_dongle/dongle/src/sscanf.c:21:5
	add	sp, #8
	pop.w	{r7, lr}
	add	sp, #8
	bx	lr
.Ltmp2:
.Lfunc_end0:
	.size	sscanf, .Lfunc_end0-sscanf
	.cfi_endproc
	.cantunwind
	.fnend
                                        @ -- End function
	.file	2 "D:\\20240115\\rafael-iot-sdk-das\\examples\\das_subg_thread\\keil" "../../../components/platform/soc/rt582/rt582_dongle/dongle/src\\sscanf.c"
	.file	3 "C:\\Keil_v5\\ARM\\ARMCLANG\\Bin\\..\\include" "stdarg.h"
	.section	".note.GNU-stack","",%progbits
	.eabi_attribute	30, 3	@ Tag_ABI_optimization_goals
	.ARM_attribute	16, 1	@ Tag_AV_eba