	.text
	.syntax unified
	.eabi_attribute	67, "2.09"	@ Tag_conformance
	.cpu	cortex-m3
	.eabi_attribute	6, 10	@ Tag_CPU_arch
	.eabi_attribute	7, 77	@ Tag_CPU_arch_profile
	.eabi_attribute	8, 0	@ Tag_ARM_ISA_use
	.eabi_attribute	9, 2	@ Tag_THUMB_ISA_use
	.eabi_attribute	34, 1	@ Tag_CPU_unaligned_access
	.eabi_attribute	17, 1	@ Tag_ABI_PCS_GOT_use
	.eabi_attribute	20, 2	@ Tag_ABI_FP_denormal
	.eabi_attribute	21, 0	@ Tag_ABI_FP_exceptions
	.eabi_attribute	23, 1	@ Tag_ABI_FP_number_model
	.eabi_attribute	24, 1	@ Tag_ABI_align_needed
	.eabi_attribute	25, 1	@ Tag_ABI_align_preserved
	.eabi_attribute	38, 1	@ Tag_ABI_FP_16bit_format
	.eabi_attribute	18, 4	@ Tag_ABI_PCS_wchar_t
	.eabi_attribute	26, 2	@ Tag_ABI_enum_size
	.eabi_attribute	14, 0	@ Tag_ABI_PCS_R9_use
	.file	"ssl_tls.c"
	.file	1 "C:\\Users\\testo\\Desktop\\rafael-iot-sdk-das -0515\\examples\\das_subg_thread\\keil" "../../../components/network/thread/subg_openthread/third_party/mbedtls/repo/library/ssl_tls.c"
	.file	2 "C:\\Users\\testo\\Desktop\\rafael-iot-sdk-das -0515\\examples\\das_subg_thread\\keil" "../../../components/network/thread/subg_openthread/third_party/mbedtls/repo/include\\mbedtls/ecp.h"
	.file	3 "C:\\Users\\testo\\Desktop\\rafael-iot-sdk-das -0515\\examples\\das_subg_thread\\keil" "../../../components/network/thread/subg_openthread/third_party/mbedtls/repo/include\\mbedtls/ssl.h"
	.file	4 "C:\\Users\\testo\\Desktop\\rafael-iot-sdk-das -0515\\examples\\das_subg_thread\\keil" "../../../components/network/thread/subg_openthread/third_party/mbedtls/repo/include\\mbedtls/cipher.h"
	.file	5 "C:\\Users\\testo\\Desktop\\rafael-iot-sdk-das -0515\\examples\\das_subg_thread\\keil" "../../../components/network/thread/subg_openthread/third_party/mbedtls/repo/include\\mbedtls/md.h"
	.file	6 "C:\\Users\\testo\\Desktop\\rafael-iot-sdk-das -0515\\examples\\das_subg_thread\\keil" "../../../components/network/thread/subg_openthread/third_party/mbedtls/repo/include\\mbedtls/ssl_ciphersuites.h"
	.file	7 "C:\\Users\\testo\\Desktop\\rafael-iot-sdk-das -0515\\examples\\das_subg_thread\\keil" "../../../components/network/thread/subg_openthread/third_party/mbedtls/repo/include\\mbedtls/ecdh.h"
	.file	8 "C:\\Users\\testo\\Desktop\\rafael-iot-sdk-das -0515\\examples\\das_subg_thread\\keil" "../../../components/network/thread/subg_openthread/third_party/mbedtls/repo/include\\mbedtls/ecjpake.h"
	.file	9 "C:\\Users\\testo\\Desktop\\rafael-iot-sdk-das -0515\\examples\\das_subg_thread\\keil" "../../../components/network/thread/subg_openthread/third_party/mbedtls/repo/include\\mbedtls/pk.h"
	.file	10 "C:\\" "Keil_v5\\ARM\\ARMCLANG\\Bin\\..\\include\\stdio.h"
	.file	11 "C:\\" "Keil_v5\\ARM\\ARMCLANG\\Bin\\..\\include\\stdint.h"
	.section	.text.mbedtls_ssl_session_copy,"ax",%progbits
	.hidden	mbedtls_ssl_session_copy        @ -- Begin function mbedtls_ssl_session_copy
	.globl	mbedtls_ssl_session_copy
	.p2align	1
	.type	mbedtls_ssl_session_copy,%function
	.code	16                              @ @mbedtls_ssl_session_copy
	.thumb_func
mbedtls_ssl_session_copy:
.Lfunc_begin0:
	.loc	1 187 0                         @ ../../../components/network/thread/subg_openthread/third_party/mbedtls/repo/library/ssl_tls.c:187:0
	.fnstart
	.cfi_sections .debug_frame
	.cfi_startproc
@ %bb.0:
	@DEBUG_VALUE: mbedtls_ssl_session_copy:dst <- $r0
	@DEBUG_VALUE: mbedtls_ssl_session_copy:src <- $r1
	@DEBUG_VALUE: mbedtls_ssl_session_free:session <- $r0
	.save	{r4, r5, r7, lr}
	push	{r4, r5, r7, lr}
	.cfi_def_cfa_offset 16
	.cfi_offset lr, -4
	.cfi_offset r7, -8
	.cfi_offset r5, -12
	.cfi_offset r4, -16
	mov	r4, r0
.Ltmp0:
	@DEBUG_VALUE: mbedtls_ssl_session_free:session <- $r4
	@DEBUG_VALUE: mbedtls_ssl_session_copy:dst <- $r4
	mov	r5, r1
.Ltmp1:
	@DEBUG_VALUE: mbedtls_ssl_session_copy:src <- $r5
	@DEBUG_VALUE: mbedtls_ssl_session_copy:src <- $r5
	.loc	1 6153 9 prologue_end           @ ../../../components/network/thread/subg_openthread/third_party/mbedtls/repo/library/ssl_tls.c:6153:9
	cbz	r0, .LBB0_2
.Ltmp2:
@ %bb.1:
	@DEBUG_VALUE: mbedtls_ssl_session_copy:src <- $r5
	@DEBUG_VALUE: mbedtls_ssl_session_copy:dst <- $r4
	@DEBUG_VALUE: mbedtls_ssl_session_free:session <- $r4
	.loc	1 6164 5                        @ ../../../components/network/thread/subg_openthread/third_party/mbedtls/repo/library/ssl_tls.c:6164:5
	mov	r0, r4
	movs	r1, #100
	bl	mbedtls_platform_zeroize
.Ltmp3:
.LBB0_2:
	@DEBUG_VALUE: mbedtls_ssl_session_copy:src <- $r5
	@DEBUG_VALUE: mbedtls_ssl_session_copy:dst <- $r4
	.loc	1 189 5                         @ ../../../components/network/thread/subg_openthread/third_party/mbedtls/repo/library/ssl_tls.c:189:5
	mov	r0, r4
	mov	r1, r5
	movs	r2, #100
	bl	__aeabi_memcpy4
.Ltmp4:
	.loc	1 244 5                         @ ../../../components/network/thread/subg_openthread/third_party/mbedtls/repo/library/ssl_tls.c:244:5
	movs	r0, #0
	pop	{r4, r5, r7, pc}
.Ltmp5:
.Lfunc_end0:
	.size	mbedtls_ssl_session_copy, .Lfunc_end0-mbedtls_ssl_session_copy
	.cfi_endproc
	.cantunwind
	.fnend
                                        @ -- End function
	.section	.text.mbedtls_ssl_session_free,"ax",%progbits
	.hidden	mbedtls_ssl_session_free        @ -- Begin function mbedtls_ssl_session_free
	.globl	mbedtls_ssl_session_free
	.p2align	1
	.type	mbedtls_ssl_session_free,%function
	.code	16                              @ @mbedtls_ssl_session_free
	.thumb_func
mbedtls_ssl_session_free:
.Lfunc_begin1:
	.loc	1 6152 0                        @ ../../../components/network/thread/subg_openthread/third_party/mbedtls/repo/library/ssl_tls.c:6152:0
	.fnstart
	.cfi_startproc
@ %bb.0:
	@DEBUG_VALUE: mbedtls_ssl_session_free:session <- $r0
	@DEBUG_VALUE: mbedtls_ssl_session_free:session <- $r0
	.loc	1 6153 9 prologue_end           @ ../../../components/network/thread/subg_openthread/third_party/mbedtls/repo/library/ssl_tls.c:6153:9
	cmp	r0, #0
	.loc	1 6164 5                        @ ../../../components/network/thread/subg_openthread/third_party/mbedtls/repo/library/ssl_tls.c:6164:5
	ite	ne
	movne	r1, #100
	.loc	1 6165 1                        @ ../../../components/network/thread/subg_openthread/third_party/mbedtls/repo/library/ssl_tls.c:6165:1
	bxeq	lr
.Ltmp6:
	.loc	1 6164 5                        @ ../../../components/network/thread/subg_openthread/third_party/mbedtls/repo/library/ssl_tls.c:6164:5
	b	mbedtls_platform_zeroize
.Ltmp7:
.Lfunc_end1:
	.size	mbedtls_ssl_session_free, .Lfunc_end1-mbedtls_ssl_session_free
	.cfi_endproc
	.file	12 "C:\\Users\\testo\\Desktop\\rafael-iot-sdk-das -0515\\examples\\das_subg_thread\\keil" "../../../components/network/thread/subg_openthread/third_party/mbedtls/repo/include\\mbedtls/platform_util.h"
	.cantunwind
	.fnend
                                        @ -- End function
	.section	.text.mbedtls_ssl_tls_prf,"ax",%progbits
	.hidden	mbedtls_ssl_tls_prf             @ -- Begin function mbedtls_ssl_tls_prf
	.globl	mbedtls_ssl_tls_prf
	.p2align	1
	.type	mbedtls_ssl_tls_prf,%function
	.code	16                              @ @mbedtls_ssl_tls_prf
	.thumb_func
mbedtls_ssl_tls_prf:
.Lfunc_begin2:
	.loc	1 890 0                         @ ../../../components/network/thread/subg_openthread/third_party/mbedtls/repo/library/ssl_tls.c:890:0
	.fnstart
	.cfi_startproc
@ %bb.0:
	@DEBUG_VALUE: mbedtls_ssl_tls_prf:prf <- $r0
	@DEBUG_VALUE: mbedtls_ssl_tls_prf:prf <- $r0
	@DEBUG_VALUE: mbedtls_ssl_tls_prf:secret <- $r1
	@DEBUG_VALUE: mbedtls_ssl_tls_prf:slen <- $r2
	@DEBUG_VALUE: mbedtls_ssl_tls_prf:slen <- $r2
	@DEBUG_VALUE: mbedtls_ssl_tls_prf:label <- $r3
	@DEBUG_VALUE: mbedtls_ssl_tls_prf:label <- $r3
	@DEBUG_VALUE: mbedtls_ssl_tls_prf:random <- [DW_OP_plus_uconst 24] [$sp+0]
	@DEBUG_VALUE: mbedtls_ssl_tls_prf:rlen <- [DW_OP_plus_uconst 28] [$sp+0]
	@DEBUG_VALUE: mbedtls_ssl_tls_prf:dstbuf <- [DW_OP_plus_uconst 32] [$sp+0]
	@DEBUG_VALUE: mbedtls_ssl_tls_prf:dlen <- [DW_OP_plus_uconst 36] [$sp+0]
	@DEBUG_VALUE: mbedtls_ssl_tls_prf:tls_prf <- 0
	.loc	1 893 5 prologue_end            @ ../../../components/network/thread/subg_openthread/third_party/mbedtls/repo/library/ssl_tls.c:893:5
	cmp	r0, #4
	@DEBUG_VALUE: mbedtls_ssl_tls_prf:secret <- $r1
	ittt	ne
	movwne	r0, #36736
.Ltmp8:
	@DEBUG_VALUE: mbedtls_ssl_tls_prf:prf <- [DW_OP_LLVM_entry_value 1] $r0
	.loc	1 0 5 is_stmt 0                 @ ../../../components/network/thread/subg_openthread/third_party/mbedtls/repo/library/ssl_tls.c:0:5
	movtne	r0, #65535
	.loc	1 923 1 is_stmt 1               @ ../../../components/network/thread/subg_openthread/third_party/mbedtls/repo/library/ssl_tls.c:923:1
	bxne	lr
.Ltmp9:
.LBB2_1:
	@DEBUG_VALUE: mbedtls_ssl_tls_prf:label <- $r3
	@DEBUG_VALUE: mbedtls_ssl_tls_prf:slen <- $r2
	@DEBUG_VALUE: mbedtls_ssl_tls_prf:secret <- $r1
	@DEBUG_VALUE: mbedtls_ssl_tls_prf:dlen <- [DW_OP_plus_uconst 36] [$sp+0]
	@DEBUG_VALUE: mbedtls_ssl_tls_prf:dstbuf <- [DW_OP_plus_uconst 32] [$sp+0]
	@DEBUG_VALUE: mbedtls_ssl_tls_prf:rlen <- [DW_OP_plus_uconst 28] [$sp+0]
	@DEBUG_VALUE: mbedtls_ssl_tls_prf:random <- [DW_OP_plus_uconst 24] [$sp+0]
	@DEBUG_VALUE: mbedtls_ssl_tls_prf:prf <- [DW_OP_LLVM_entry_value 1] $r0
	@DEBUG_VALUE: mbedtls_ssl_tls_prf:tls_prf <- 0
	.save	{r4, lr}
	push	{r4, lr}
	.cfi_def_cfa_offset 8
	.cfi_offset lr, -4
	.cfi_offset r4, -8
	.pad	#16
	sub	sp, #16
	.cfi_def_cfa_offset 24
	ldrd	r0, lr, [sp, #32]
	ldrd	r12, r4, [sp, #24]
	.loc	1 922 13                        @ ../../../components/network/thread/subg_openthread/third_party/mbedtls/repo/library/ssl_tls.c:922:13
	str.w	lr, [sp, #8]
	strd	r4, r0, [sp]
	mov	r0, r1
	mov	r1, r2
.Ltmp10:
	@DEBUG_VALUE: mbedtls_ssl_tls_prf:secret <- [DW_OP_LLVM_entry_value 1] $r1
	mov	r2, r3
.Ltmp11:
	@DEBUG_VALUE: mbedtls_ssl_tls_prf:slen <- [DW_OP_LLVM_entry_value 1] $r2
	mov	r3, r12
.Ltmp12:
	@DEBUG_VALUE: mbedtls_ssl_tls_prf:label <- [DW_OP_LLVM_entry_value 1] $r3
	bl	tls_prf_sha256
.Ltmp13:
	@DEBUG_VALUE: mbedtls_ssl_tls_prf:tls_prf <- undef
	.loc	1 923 1                         @ ../../../components/network/thread/subg_openthread/third_party/mbedtls/repo/library/ssl_tls.c:923:1
	add	sp, #16
	pop	{r4, pc}
.Ltmp14:
.Lfunc_end2:
	.size	mbedtls_ssl_tls_prf, .Lfunc_end2-mbedtls_ssl_tls_prf
	.cfi_endproc
	.cantunwind
	.fnend
                                        @ -- End function
	.section	.text.tls_prf_sha256,"ax",%progbits
	.p2align	1                               @ -- Begin function tls_prf_sha256
	.type	tls_prf_sha256,%function
	.code	16                              @ @tls_prf_sha256
	.thumb_func
tls_prf_sha256:
.Lfunc_begin3:
	.loc	1 777 0                         @ ../../../components/network/thread/subg_openthread/third_party/mbedtls/repo/library/ssl_tls.c:777:0
	.fnstart
	.cfi_startproc
@ %bb.0:
	@DEBUG_VALUE: tls_prf_sha256:secret <- $r0
	@DEBUG_VALUE: tls_prf_sha256:slen <- $r1
	@DEBUG_VALUE: tls_prf_sha256:label <- $r2
	@DEBUG_VALUE: tls_prf_sha256:random <- $r3
	.save	{r4, r5, r6, r7, r8, r9, r10, r11, lr}
	push.w	{r4, r5, r6, r7, r8, r9, r10, r11, lr}
	.cfi_def_cfa_offset 36
	.cfi_offset lr, -4
	.cfi_offset r11, -8
	.cfi_offset r10, -12
	.cfi_offset r9, -16
	.cfi_offset r8, -20
	.cfi_offset r7, -24
	.cfi_offset r6, -28
	.cfi_offset r5, -32
	.cfi_offset r4, -36
	.pad	#60
	sub	sp, #60
	.cfi_def_cfa_offset 96
	mov	r4, r0
.Ltmp15:
	@DEBUG_VALUE: tls_prf_sha256:secret <- $r4
	@DEBUG_VALUE: tls_prf_generic:rlen <- undef
	@DEBUG_VALUE: tls_prf_generic:dstbuf <- undef
	movw	r7, #33024
	add	r0, sp, #16
	mov	r9, r3
.Ltmp16:
	@DEBUG_VALUE: tls_prf_sha256:random <- $r9
	mov	r10, r2
.Ltmp17:
	@DEBUG_VALUE: tls_prf_sha256:label <- $r10
	mov	r8, r1
.Ltmp18:
	@DEBUG_VALUE: tls_prf_sha256:slen <- $r8
	movt	r7, #65535
.Ltmp19:
	@DEBUG_VALUE: tls_prf_generic:ret <- -110
	@DEBUG_VALUE: tls_prf_generic:tmp_len <- 0
	@DEBUG_VALUE: tls_prf_generic:dlen <- undef
	@DEBUG_VALUE: tls_prf_generic:random <- undef
	@DEBUG_VALUE: tls_prf_generic:label <- undef
	@DEBUG_VALUE: tls_prf_generic:slen <- undef
	@DEBUG_VALUE: tls_prf_generic:secret <- undef
	@DEBUG_VALUE: tls_prf_generic:md_type <- 6
	@DEBUG_VALUE: tls_prf_sha256:dlen <- [DW_OP_plus_uconst 104] [$sp+0]
	@DEBUG_VALUE: tls_prf_sha256:dstbuf <- [DW_OP_plus_uconst 100] [$sp+0]
	@DEBUG_VALUE: tls_prf_sha256:rlen <- [DW_OP_plus_uconst 96] [$sp+0]
	@DEBUG_VALUE: tls_prf_sha256:random <- $r9
	@DEBUG_VALUE: tls_prf_sha256:label <- $r10
	@DEBUG_VALUE: tls_prf_sha256:slen <- $r8
	@DEBUG_VALUE: tls_prf_sha256:secret <- $r4
	.loc	1 697 5 prologue_end            @ ../../../components/network/thread/subg_openthread/third_party/mbedtls/repo/library/ssl_tls.c:697:5
	bl	mbedtls_md_init
.Ltmp20:
	.loc	1 699 21                        @ ../../../components/network/thread/subg_openthread/third_party/mbedtls/repo/library/ssl_tls.c:699:21
	movs	r0, #6
	bl	mbedtls_md_info_from_type
.Ltmp21:
	@DEBUG_VALUE: tls_prf_generic:md_info <- $r0
	.loc	1 699 9 is_stmt 0               @ ../../../components/network/thread/subg_openthread/third_party/mbedtls/repo/library/ssl_tls.c:699:9
	cmp	r0, #0
	beq.w	.LBB3_19
.Ltmp22:
@ %bb.1:
	@DEBUG_VALUE: tls_prf_sha256:label <- $r10
	@DEBUG_VALUE: tls_prf_sha256:random <- $r9
	@DEBUG_VALUE: tls_prf_sha256:slen <- $r8
	@DEBUG_VALUE: tls_prf_sha256:secret <- $r4
	@DEBUG_VALUE: tls_prf_generic:md_info <- $r0
	@DEBUG_VALUE: tls_prf_sha256:rlen <- [DW_OP_plus_uconst 96] [$sp+0]
	@DEBUG_VALUE: tls_prf_sha256:dstbuf <- [DW_OP_plus_uconst 100] [$sp+0]
	@DEBUG_VALUE: tls_prf_sha256:dlen <- [DW_OP_plus_uconst 104] [$sp+0]
	@DEBUG_VALUE: tls_prf_generic:md_type <- 6
	@DEBUG_VALUE: tls_prf_generic:tmp_len <- 0
	@DEBUG_VALUE: tls_prf_generic:ret <- -110
	.loc	1 0 9                           @ ../../../components/network/thread/subg_openthread/third_party/mbedtls/repo/library/ssl_tls.c:0:9
	ldr	r5, [sp, #96]
.Ltmp23:
	@DEBUG_VALUE: tls_prf_generic:rlen <- $r5
	mov	r11, r0
.Ltmp24:
	@DEBUG_VALUE: tls_prf_generic:md_info <- $r11
	@DEBUG_VALUE: tls_prf_generic:dstbuf <- undef
	@DEBUG_VALUE: tls_prf_generic:dlen <- undef
	.loc	1 702 14 is_stmt 1              @ ../../../components/network/thread/subg_openthread/third_party/mbedtls/repo/library/ssl_tls.c:702:14
	bl	mbedtls_md_get_size
.Ltmp25:
	mov	r6, r0
.Ltmp26:
	@DEBUG_VALUE: tls_prf_generic:md_len <- $r6
	.loc	1 704 24                        @ ../../../components/network/thread/subg_openthread/third_party/mbedtls/repo/library/ssl_tls.c:704:24
	mov	r0, r10
	bl	strlen
.Ltmp27:
	@DEBUG_VALUE: tls_prf_generic:rlen <- undef
	.loc	1 704 22 is_stmt 0              @ ../../../components/network/thread/subg_openthread/third_party/mbedtls/repo/library/ssl_tls.c:704:22
	adds	r1, r6, r5
	.loc	1 704 40                        @ ../../../components/network/thread/subg_openthread/third_party/mbedtls/repo/library/ssl_tls.c:704:40
	add	r1, r0
.Ltmp28:
	@DEBUG_VALUE: tls_prf_generic:tmp_len <- $r1
	.loc	1 705 11 is_stmt 1              @ ../../../components/network/thread/subg_openthread/third_party/mbedtls/repo/library/ssl_tls.c:705:11
	movs	r0, #1
	str	r1, [sp, #8]                    @ 4-byte Spill
.Ltmp29:
	@DEBUG_VALUE: tls_prf_generic:tmp_len <- [DW_OP_plus_uconst 8] [$sp+0]
	bl	mbedtls_calloc
.Ltmp30:
	@DEBUG_VALUE: tls_prf_generic:tmp <- $r0
	.loc	1 706 9                         @ ../../../components/network/thread/subg_openthread/third_party/mbedtls/repo/library/ssl_tls.c:706:9
	cmp	r0, #0
	str	r0, [sp, #12]                   @ 4-byte Spill
	beq	.LBB3_22
.Ltmp31:
@ %bb.2:
	@DEBUG_VALUE: tls_prf_generic:md_info <- $r11
	@DEBUG_VALUE: tls_prf_sha256:label <- $r10
	@DEBUG_VALUE: tls_prf_sha256:random <- $r9
	@DEBUG_VALUE: tls_prf_sha256:slen <- $r8
	@DEBUG_VALUE: tls_prf_generic:md_len <- $r6
	@DEBUG_VALUE: tls_prf_sha256:secret <- $r4
	@DEBUG_VALUE: tls_prf_generic:tmp <- $r0
	@DEBUG_VALUE: tls_prf_generic:tmp_len <- [DW_OP_plus_uconst 8] [$sp+0]
	@DEBUG_VALUE: tls_prf_sha256:rlen <- [DW_OP_plus_uconst 96] [$sp+0]
	@DEBUG_VALUE: tls_prf_sha256:dstbuf <- [DW_OP_plus_uconst 100] [$sp+0]
	@DEBUG_VALUE: tls_prf_sha256:dlen <- [DW_OP_plus_uconst 104] [$sp+0]
	@DEBUG_VALUE: tls_prf_generic:md_type <- 6
	@DEBUG_VALUE: tls_prf_generic:ret <- -110
	.loc	1 0 0 is_stmt 0                 @ ../../../components/network/thread/subg_openthread/third_party/mbedtls/repo/library/ssl_tls.c:0:0
	mov	r5, r0
.Ltmp32:
	@DEBUG_VALUE: tls_prf_generic:tmp <- $r5
	@DEBUG_VALUE: tls_prf_generic:tmp <- $r5
	@DEBUG_VALUE: tls_prf_generic:dstbuf <- undef
	@DEBUG_VALUE: tls_prf_generic:dlen <- undef
	.loc	1 712 10 is_stmt 1              @ ../../../components/network/thread/subg_openthread/third_party/mbedtls/repo/library/ssl_tls.c:712:10
	mov	r0, r10
	str.w	r8, [sp, #4]                    @ 4-byte Spill
.Ltmp33:
	@DEBUG_VALUE: tls_prf_sha256:slen <- [DW_OP_plus_uconst 4] [$sp+0]
	bl	strlen
.Ltmp34:
	.loc	1 0 10 is_stmt 0                @ ../../../components/network/thread/subg_openthread/third_party/mbedtls/repo/library/ssl_tls.c:0:10
	mov	r7, r9
.Ltmp35:
	@DEBUG_VALUE: tls_prf_sha256:random <- $r7
	.loc	1 712 10                        @ ../../../components/network/thread/subg_openthread/third_party/mbedtls/repo/library/ssl_tls.c:712:10
	mov	r9, r0
.Ltmp36:
	@DEBUG_VALUE: tls_prf_generic:nb <- $r9
	.loc	1 713 17 is_stmt 1              @ ../../../components/network/thread/subg_openthread/third_party/mbedtls/repo/library/ssl_tls.c:713:17
	add.w	r8, r5, r6
	.loc	1 713 5 is_stmt 0               @ ../../../components/network/thread/subg_openthread/third_party/mbedtls/repo/library/ssl_tls.c:713:5
	mov	r0, r8
	mov	r1, r10
	mov	r2, r9
	str	r6, [sp]                        @ 4-byte Spill
.Ltmp37:
	@DEBUG_VALUE: tls_prf_generic:md_len <- [$sp+0]
	bl	__aeabi_memcpy
.Ltmp38:
	.loc	1 0 5                           @ ../../../components/network/thread/subg_openthread/third_party/mbedtls/repo/library/ssl_tls.c:0:5
	ldr	r5, [sp, #96]
.Ltmp39:
	.loc	1 714 26 is_stmt 1              @ ../../../components/network/thread/subg_openthread/third_party/mbedtls/repo/library/ssl_tls.c:714:26
	add.w	r0, r8, r9
	.loc	1 714 5 is_stmt 0               @ ../../../components/network/thread/subg_openthread/third_party/mbedtls/repo/library/ssl_tls.c:714:5
	mov	r1, r7
	mov	r2, r5
	bl	__aeabi_memcpy
.Ltmp40:
	@DEBUG_VALUE: tls_prf_generic:nb <- undef
	.loc	1 0 5                           @ ../../../components/network/thread/subg_openthread/third_party/mbedtls/repo/library/ssl_tls.c:0:5
	add	r0, sp, #16
.Ltmp41:
	.loc	1 720 18 is_stmt 1              @ ../../../components/network/thread/subg_openthread/third_party/mbedtls/repo/library/ssl_tls.c:720:18
	mov	r1, r11
	movs	r2, #1
	bl	mbedtls_md_setup
.Ltmp42:
	mov	r7, r0
.Ltmp43:
	@DEBUG_VALUE: tls_prf_generic:ret <- $r7
	.loc	1 720 10 is_stmt 0              @ ../../../components/network/thread/subg_openthread/third_party/mbedtls/repo/library/ssl_tls.c:720:10
	cmp	r0, #0
	bne	.LBB3_22
.Ltmp44:
@ %bb.3:
	@DEBUG_VALUE: tls_prf_generic:md_len <- [$sp+0]
	@DEBUG_VALUE: tls_prf_sha256:slen <- [DW_OP_plus_uconst 4] [$sp+0]
	@DEBUG_VALUE: tls_prf_generic:md_info <- $r11
	@DEBUG_VALUE: tls_prf_sha256:label <- $r10
	@DEBUG_VALUE: tls_prf_generic:ret <- $r7
	@DEBUG_VALUE: tls_prf_sha256:secret <- $r4
	@DEBUG_VALUE: tls_prf_generic:tmp_len <- [DW_OP_plus_uconst 8] [$sp+0]
	@DEBUG_VALUE: tls_prf_sha256:rlen <- [DW_OP_plus_uconst 96] [$sp+0]
	@DEBUG_VALUE: tls_prf_sha256:dstbuf <- [DW_OP_plus_uconst 100] [$sp+0]
	@DEBUG_VALUE: tls_prf_sha256:dlen <- [DW_OP_plus_uconst 104] [$sp+0]
	@DEBUG_VALUE: tls_prf_generic:md_type <- 6
	@DEBUG_VALUE: tls_prf_generic:dstbuf <- undef
	@DEBUG_VALUE: tls_prf_generic:dlen <- undef
	@DEBUG_VALUE: tls_prf_generic:nb <- undef
	.loc	1 723 11 is_stmt 1              @ ../../../components/network/thread/subg_openthread/third_party/mbedtls/repo/library/ssl_tls.c:723:11
	ldr	r2, [sp, #4]                    @ 4-byte Reload
.Ltmp45:
	@DEBUG_VALUE: tls_prf_sha256:slen <- $r2
	.loc	1 0 11 is_stmt 0                @ ../../../components/network/thread/subg_openthread/third_party/mbedtls/repo/library/ssl_tls.c:0:11
	add	r0, sp, #16
	.loc	1 723 11                        @ ../../../components/network/thread/subg_openthread/third_party/mbedtls/repo/library/ssl_tls.c:723:11
	mov	r1, r4
	bl	mbedtls_md_hmac_starts
.Ltmp46:
	mov	r7, r0
.Ltmp47:
	@DEBUG_VALUE: tls_prf_generic:ret <- $r7
	.loc	1 724 9 is_stmt 1               @ ../../../components/network/thread/subg_openthread/third_party/mbedtls/repo/library/ssl_tls.c:724:9
	cmp	r0, #0
	bne	.LBB3_22
.Ltmp48:
@ %bb.4:
	@DEBUG_VALUE: tls_prf_generic:md_len <- [$sp+0]
	@DEBUG_VALUE: tls_prf_generic:md_info <- $r11
	@DEBUG_VALUE: tls_prf_sha256:label <- $r10
	@DEBUG_VALUE: tls_prf_generic:ret <- $r7
	@DEBUG_VALUE: tls_prf_sha256:secret <- $r4
	@DEBUG_VALUE: tls_prf_generic:tmp_len <- [DW_OP_plus_uconst 8] [$sp+0]
	@DEBUG_VALUE: tls_prf_sha256:rlen <- [DW_OP_plus_uconst 96] [$sp+0]
	@DEBUG_VALUE: tls_prf_sha256:dstbuf <- [DW_OP_plus_uconst 100] [$sp+0]
	@DEBUG_VALUE: tls_prf_sha256:dlen <- [DW_OP_plus_uconst 104] [$sp+0]
	@DEBUG_VALUE: tls_prf_generic:md_type <- 6
	@DEBUG_VALUE: tls_prf_generic:dstbuf <- undef
	@DEBUG_VALUE: tls_prf_generic:dlen <- undef
	.loc	1 0 0 is_stmt 0                 @ ../../../components/network/thread/subg_openthread/third_party/mbedtls/repo/library/ssl_tls.c:0:0
	add	r5, r9
.Ltmp49:
	@DEBUG_VALUE: tls_prf_generic:nb <- $r5
	add	r0, sp, #16
	.loc	1 726 11 is_stmt 1              @ ../../../components/network/thread/subg_openthread/third_party/mbedtls/repo/library/ssl_tls.c:726:11
	mov	r1, r8
	mov	r2, r5
	bl	mbedtls_md_hmac_update
.Ltmp50:
	mov	r7, r0
.Ltmp51:
	@DEBUG_VALUE: tls_prf_generic:ret <- $r7
	.loc	1 727 9                         @ ../../../components/network/thread/subg_openthread/third_party/mbedtls/repo/library/ssl_tls.c:727:9
	cmp	r0, #0
	bne	.LBB3_22
.Ltmp52:
@ %bb.5:
	@DEBUG_VALUE: tls_prf_generic:md_len <- [$sp+0]
	@DEBUG_VALUE: tls_prf_generic:md_info <- $r11
	@DEBUG_VALUE: tls_prf_sha256:label <- $r10
	@DEBUG_VALUE: tls_prf_generic:ret <- $r7
	@DEBUG_VALUE: tls_prf_generic:nb <- $r5
	@DEBUG_VALUE: tls_prf_sha256:secret <- $r4
	@DEBUG_VALUE: tls_prf_generic:tmp_len <- [DW_OP_plus_uconst 8] [$sp+0]
	@DEBUG_VALUE: tls_prf_sha256:rlen <- [DW_OP_plus_uconst 96] [$sp+0]
	@DEBUG_VALUE: tls_prf_sha256:dstbuf <- [DW_OP_plus_uconst 100] [$sp+0]
	@DEBUG_VALUE: tls_prf_sha256:dlen <- [DW_OP_plus_uconst 104] [$sp+0]
	@DEBUG_VALUE: tls_prf_generic:md_type <- 6
	@DEBUG_VALUE: tls_prf_generic:dstbuf <- undef
	@DEBUG_VALUE: tls_prf_generic:dlen <- undef
	.loc	1 729 11                        @ ../../../components/network/thread/subg_openthread/third_party/mbedtls/repo/library/ssl_tls.c:729:11
	ldr	r1, [sp, #12]                   @ 4-byte Reload
	add	r0, sp, #16
	bl	mbedtls_md_hmac_finish
.Ltmp53:
	mov	r7, r0
.Ltmp54:
	@DEBUG_VALUE: tls_prf_generic:ret <- $r7
	.loc	1 730 9                         @ ../../../components/network/thread/subg_openthread/third_party/mbedtls/repo/library/ssl_tls.c:730:9
	cmp	r0, #0
	bne	.LBB3_22
.Ltmp55:
@ %bb.6:
	@DEBUG_VALUE: tls_prf_generic:md_len <- [$sp+0]
	@DEBUG_VALUE: tls_prf_generic:md_info <- $r11
	@DEBUG_VALUE: tls_prf_sha256:label <- $r10
	@DEBUG_VALUE: tls_prf_generic:ret <- $r7
	@DEBUG_VALUE: tls_prf_generic:nb <- $r5
	@DEBUG_VALUE: tls_prf_sha256:secret <- $r4
	@DEBUG_VALUE: tls_prf_generic:tmp_len <- [DW_OP_plus_uconst 8] [$sp+0]
	@DEBUG_VALUE: tls_prf_sha256:rlen <- [DW_OP_plus_uconst 96] [$sp+0]
	@DEBUG_VALUE: tls_prf_sha256:dstbuf <- [DW_OP_plus_uconst 100] [$sp+0]
	@DEBUG_VALUE: tls_prf_sha256:dlen <- [DW_OP_plus_uconst 104] [$sp+0]
	@DEBUG_VALUE: tls_prf_generic:md_type <- 6
	.loc	1 0 9 is_stmt 0                 @ ../../../components/network/thread/subg_openthread/third_party/mbedtls/repo/library/ssl_tls.c:0:9
	ldr	r6, [sp, #104]
.Ltmp56:
	@DEBUG_VALUE: tls_prf_generic:i <- 0
	@DEBUG_VALUE: tls_prf_generic:ret <- 0
	@DEBUG_VALUE: tls_prf_generic:dlen <- $r6
	@DEBUG_VALUE: tls_prf_generic:dstbuf <- undef
	.loc	1 733 5 is_stmt 1               @ ../../../components/network/thread/subg_openthread/third_party/mbedtls/repo/library/ssl_tls.c:733:5
	cmp	r6, #0
	beq	.LBB3_21
.Ltmp57:
@ %bb.7:
	@DEBUG_VALUE: tls_prf_generic:md_len <- [$sp+0]
	@DEBUG_VALUE: tls_prf_generic:md_info <- $r11
	@DEBUG_VALUE: tls_prf_sha256:label <- $r10
	@DEBUG_VALUE: tls_prf_generic:dlen <- $r6
	@DEBUG_VALUE: tls_prf_generic:nb <- $r5
	@DEBUG_VALUE: tls_prf_sha256:secret <- $r4
	@DEBUG_VALUE: tls_prf_generic:tmp_len <- [DW_OP_plus_uconst 8] [$sp+0]
	@DEBUG_VALUE: tls_prf_sha256:rlen <- [DW_OP_plus_uconst 96] [$sp+0]
	@DEBUG_VALUE: tls_prf_sha256:dstbuf <- [DW_OP_plus_uconst 100] [$sp+0]
	@DEBUG_VALUE: tls_prf_sha256:dlen <- [DW_OP_plus_uconst 104] [$sp+0]
	@DEBUG_VALUE: tls_prf_generic:ret <- 0
	@DEBUG_VALUE: tls_prf_generic:i <- 0
	@DEBUG_VALUE: tls_prf_generic:md_type <- 6
	@DEBUG_VALUE: tls_prf_generic:dstbuf <- undef
	.loc	1 0 5 is_stmt 0                 @ ../../../components/network/thread/subg_openthread/third_party/mbedtls/repo/library/ssl_tls.c:0:5
	ldr	r0, [sp]                        @ 4-byte Reload
.Ltmp58:
	@DEBUG_VALUE: tls_prf_generic:md_len <- $r0
	ldr	r4, [sp, #12]                   @ 4-byte Reload
.Ltmp59:
	add.w	r8, r5, r0
	mov.w	r10, #0
.Ltmp60:
	add.w	r9, sp, #16
	add.w	r11, sp, #28
.Ltmp61:
.LBB3_8:                                @ =>This Inner Loop Header: Depth=1
	@DEBUG_VALUE: tls_prf_generic:dlen <- $r6
	@DEBUG_VALUE: tls_prf_generic:tmp_len <- [DW_OP_plus_uconst 8] [$sp+0]
	@DEBUG_VALUE: tls_prf_sha256:rlen <- [DW_OP_plus_uconst 96] [$sp+0]
	@DEBUG_VALUE: tls_prf_sha256:dstbuf <- [DW_OP_plus_uconst 100] [$sp+0]
	@DEBUG_VALUE: tls_prf_sha256:dlen <- [DW_OP_plus_uconst 104] [$sp+0]
	@DEBUG_VALUE: tls_prf_generic:ret <- 0
	@DEBUG_VALUE: tls_prf_generic:md_type <- 6
	@DEBUG_VALUE: tls_prf_generic:i <- $r10
	.loc	1 735 15 is_stmt 1              @ ../../../components/network/thread/subg_openthread/third_party/mbedtls/repo/library/ssl_tls.c:735:15
	mov	r0, r9
	bl	mbedtls_md_hmac_reset
.Ltmp62:
	@DEBUG_VALUE: tls_prf_generic:ret <- $r0
	.loc	1 736 13                        @ ../../../components/network/thread/subg_openthread/third_party/mbedtls/repo/library/ssl_tls.c:736:13
	cbnz	r0, .LBB3_20
.Ltmp63:
@ %bb.9:                                @   in Loop: Header=BB3_8 Depth=1
	@DEBUG_VALUE: tls_prf_generic:i <- $r10
	@DEBUG_VALUE: tls_prf_generic:dlen <- $r6
	@DEBUG_VALUE: tls_prf_generic:ret <- $r0
	@DEBUG_VALUE: tls_prf_generic:tmp_len <- [DW_OP_plus_uconst 8] [$sp+0]
	@DEBUG_VALUE: tls_prf_sha256:rlen <- [DW_OP_plus_uconst 96] [$sp+0]
	@DEBUG_VALUE: tls_prf_sha256:dstbuf <- [DW_OP_plus_uconst 100] [$sp+0]
	@DEBUG_VALUE: tls_prf_sha256:dlen <- [DW_OP_plus_uconst 104] [$sp+0]
	@DEBUG_VALUE: tls_prf_generic:md_type <- 6
	.loc	1 738 15                        @ ../../../components/network/thread/subg_openthread/third_party/mbedtls/repo/library/ssl_tls.c:738:15
	ldr	r1, [sp, #12]                   @ 4-byte Reload
	mov	r0, r9
.Ltmp64:
	mov	r2, r8
	bl	mbedtls_md_hmac_update
.Ltmp65:
	@DEBUG_VALUE: tls_prf_generic:ret <- $r0
	.loc	1 739 13                        @ ../../../components/network/thread/subg_openthread/third_party/mbedtls/repo/library/ssl_tls.c:739:13
	cbnz	r0, .LBB3_20
.Ltmp66:
@ %bb.10:                               @   in Loop: Header=BB3_8 Depth=1
	@DEBUG_VALUE: tls_prf_generic:i <- $r10
	@DEBUG_VALUE: tls_prf_generic:dlen <- $r6
	@DEBUG_VALUE: tls_prf_generic:ret <- $r0
	@DEBUG_VALUE: tls_prf_generic:tmp_len <- [DW_OP_plus_uconst 8] [$sp+0]
	@DEBUG_VALUE: tls_prf_sha256:rlen <- [DW_OP_plus_uconst 96] [$sp+0]
	@DEBUG_VALUE: tls_prf_sha256:dstbuf <- [DW_OP_plus_uconst 100] [$sp+0]
	@DEBUG_VALUE: tls_prf_sha256:dlen <- [DW_OP_plus_uconst 104] [$sp+0]
	@DEBUG_VALUE: tls_prf_generic:md_type <- 6
	.loc	1 741 15                        @ ../../../components/network/thread/subg_openthread/third_party/mbedtls/repo/library/ssl_tls.c:741:15
	mov	r0, r9
.Ltmp67:
	mov	r1, r11
	bl	mbedtls_md_hmac_finish
.Ltmp68:
	@DEBUG_VALUE: tls_prf_generic:ret <- $r0
	.loc	1 742 13                        @ ../../../components/network/thread/subg_openthread/third_party/mbedtls/repo/library/ssl_tls.c:742:13
	cbnz	r0, .LBB3_20
.Ltmp69:
@ %bb.11:                               @   in Loop: Header=BB3_8 Depth=1
	@DEBUG_VALUE: tls_prf_generic:i <- $r10
	@DEBUG_VALUE: tls_prf_generic:dlen <- $r6
	@DEBUG_VALUE: tls_prf_generic:ret <- $r0
	@DEBUG_VALUE: tls_prf_generic:tmp_len <- [DW_OP_plus_uconst 8] [$sp+0]
	@DEBUG_VALUE: tls_prf_sha256:rlen <- [DW_OP_plus_uconst 96] [$sp+0]
	@DEBUG_VALUE: tls_prf_sha256:dstbuf <- [DW_OP_plus_uconst 100] [$sp+0]
	@DEBUG_VALUE: tls_prf_sha256:dlen <- [DW_OP_plus_uconst 104] [$sp+0]
	@DEBUG_VALUE: tls_prf_generic:md_type <- 6
	.loc	1 745 15                        @ ../../../components/network/thread/subg_openthread/third_party/mbedtls/repo/library/ssl_tls.c:745:15
	mov	r0, r9
.Ltmp70:
	bl	mbedtls_md_hmac_reset
.Ltmp71:
	@DEBUG_VALUE: tls_prf_generic:ret <- $r0
	.loc	1 746 13                        @ ../../../components/network/thread/subg_openthread/third_party/mbedtls/repo/library/ssl_tls.c:746:13
	cbnz	r0, .LBB3_20
.Ltmp72:
@ %bb.12:                               @   in Loop: Header=BB3_8 Depth=1
	@DEBUG_VALUE: tls_prf_generic:i <- $r10
	@DEBUG_VALUE: tls_prf_generic:dlen <- $r6
	@DEBUG_VALUE: tls_prf_generic:ret <- $r0
	@DEBUG_VALUE: tls_prf_generic:tmp_len <- [DW_OP_plus_uconst 8] [$sp+0]
	@DEBUG_VALUE: tls_prf_sha256:rlen <- [DW_OP_plus_uconst 96] [$sp+0]
	@DEBUG_VALUE: tls_prf_sha256:dstbuf <- [DW_OP_plus_uconst 100] [$sp+0]
	@DEBUG_VALUE: tls_prf_sha256:dlen <- [DW_OP_plus_uconst 104] [$sp+0]
	@DEBUG_VALUE: tls_prf_generic:md_type <- 6
	.loc	1 748 15                        @ ../../../components/network/thread/subg_openthread/third_party/mbedtls/repo/library/ssl_tls.c:748:15
	ldr	r2, [sp]                        @ 4-byte Reload
	mov	r0, r9
.Ltmp73:
	mov	r1, r4
	bl	mbedtls_md_hmac_update
.Ltmp74:
	@DEBUG_VALUE: tls_prf_generic:ret <- $r0
	.loc	1 749 13                        @ ../../../components/network/thread/subg_openthread/third_party/mbedtls/repo/library/ssl_tls.c:749:13
	cbnz	r0, .LBB3_20
.Ltmp75:
@ %bb.13:                               @   in Loop: Header=BB3_8 Depth=1
	@DEBUG_VALUE: tls_prf_generic:i <- $r10
	@DEBUG_VALUE: tls_prf_generic:dlen <- $r6
	@DEBUG_VALUE: tls_prf_generic:ret <- $r0
	@DEBUG_VALUE: tls_prf_generic:tmp_len <- [DW_OP_plus_uconst 8] [$sp+0]
	@DEBUG_VALUE: tls_prf_sha256:rlen <- [DW_OP_plus_uconst 96] [$sp+0]
	@DEBUG_VALUE: tls_prf_sha256:dstbuf <- [DW_OP_plus_uconst 100] [$sp+0]
	@DEBUG_VALUE: tls_prf_sha256:dlen <- [DW_OP_plus_uconst 104] [$sp+0]
	@DEBUG_VALUE: tls_prf_generic:md_type <- 6
	.loc	1 751 15                        @ ../../../components/network/thread/subg_openthread/third_party/mbedtls/repo/library/ssl_tls.c:751:15
	mov	r0, r9
.Ltmp76:
	mov	r1, r4
	bl	mbedtls_md_hmac_finish
.Ltmp77:
	@DEBUG_VALUE: tls_prf_generic:ret <- $r0
	.loc	1 752 13                        @ ../../../components/network/thread/subg_openthread/third_party/mbedtls/repo/library/ssl_tls.c:752:13
	cbnz	r0, .LBB3_20
.Ltmp78:
@ %bb.14:                               @   in Loop: Header=BB3_8 Depth=1
	@DEBUG_VALUE: tls_prf_generic:i <- $r10
	@DEBUG_VALUE: tls_prf_generic:dlen <- $r6
	@DEBUG_VALUE: tls_prf_generic:ret <- $r0
	@DEBUG_VALUE: tls_prf_generic:tmp_len <- [DW_OP_plus_uconst 8] [$sp+0]
	@DEBUG_VALUE: tls_prf_sha256:rlen <- [DW_OP_plus_uconst 96] [$sp+0]
	@DEBUG_VALUE: tls_prf_sha256:dstbuf <- [DW_OP_plus_uconst 100] [$sp+0]
	@DEBUG_VALUE: tls_prf_sha256:dlen <- [DW_OP_plus_uconst 104] [$sp+0]
	@DEBUG_VALUE: tls_prf_generic:md_type <- 6
	.loc	1 0 13 is_stmt 0                @ ../../../components/network/thread/subg_openthread/third_party/mbedtls/repo/library/ssl_tls.c:0:13
	ldr	r2, [sp]                        @ 4-byte Reload
	.loc	1 755 17 is_stmt 1              @ ../../../components/network/thread/subg_openthread/third_party/mbedtls/repo/library/ssl_tls.c:755:17
	add.w	r5, r10, r2
	.loc	1 755 13 is_stmt 0              @ ../../../components/network/thread/subg_openthread/third_party/mbedtls/repo/library/ssl_tls.c:755:13
	cmp	r5, r6
	bls	.LBB3_16
.Ltmp79:
@ %bb.15:                               @   in Loop: Header=BB3_8 Depth=1
	@DEBUG_VALUE: tls_prf_generic:i <- $r10
	@DEBUG_VALUE: tls_prf_generic:dlen <- $r6
	@DEBUG_VALUE: tls_prf_generic:ret <- $r0
	@DEBUG_VALUE: tls_prf_generic:tmp_len <- [DW_OP_plus_uconst 8] [$sp+0]
	@DEBUG_VALUE: tls_prf_sha256:rlen <- [DW_OP_plus_uconst 96] [$sp+0]
	@DEBUG_VALUE: tls_prf_sha256:dstbuf <- [DW_OP_plus_uconst 100] [$sp+0]
	@DEBUG_VALUE: tls_prf_sha256:dlen <- [DW_OP_plus_uconst 104] [$sp+0]
	@DEBUG_VALUE: tls_prf_generic:md_type <- 6
	.loc	1 0 13                          @ ../../../components/network/thread/subg_openthread/third_party/mbedtls/repo/library/ssl_tls.c:0:13
	ldr	r1, [sp]                        @ 4-byte Reload
	.loc	1 755 42                        @ ../../../components/network/thread/subg_openthread/third_party/mbedtls/repo/library/ssl_tls.c:755:42
	udiv	r0, r6, r1
.Ltmp80:
	mls	r2, r0, r1, r6
.Ltmp81:
.LBB3_16:                               @   in Loop: Header=BB3_8 Depth=1
	@DEBUG_VALUE: tls_prf_generic:i <- $r10
	@DEBUG_VALUE: tls_prf_generic:dlen <- $r6
	@DEBUG_VALUE: tls_prf_generic:tmp_len <- [DW_OP_plus_uconst 8] [$sp+0]
	@DEBUG_VALUE: tls_prf_sha256:rlen <- [DW_OP_plus_uconst 96] [$sp+0]
	@DEBUG_VALUE: tls_prf_sha256:dstbuf <- [DW_OP_plus_uconst 100] [$sp+0]
	@DEBUG_VALUE: tls_prf_sha256:dlen <- [DW_OP_plus_uconst 104] [$sp+0]
	@DEBUG_VALUE: tls_prf_generic:md_type <- 6
	@DEBUG_VALUE: tls_prf_generic:k <- $r2
	@DEBUG_VALUE: tls_prf_generic:j <- 0
	.loc	1 757 9 is_stmt 1               @ ../../../components/network/thread/subg_openthread/third_party/mbedtls/repo/library/ssl_tls.c:757:9
	cbz	r2, .LBB3_18
.Ltmp82:
@ %bb.17:                               @   in Loop: Header=BB3_8 Depth=1
	@DEBUG_VALUE: tls_prf_generic:i <- $r10
	@DEBUG_VALUE: tls_prf_generic:dlen <- $r6
	@DEBUG_VALUE: tls_prf_generic:k <- $r2
	@DEBUG_VALUE: tls_prf_generic:tmp_len <- [DW_OP_plus_uconst 8] [$sp+0]
	@DEBUG_VALUE: tls_prf_sha256:rlen <- [DW_OP_plus_uconst 96] [$sp+0]
	@DEBUG_VALUE: tls_prf_sha256:dstbuf <- [DW_OP_plus_uconst 100] [$sp+0]
	@DEBUG_VALUE: tls_prf_sha256:dlen <- [DW_OP_plus_uconst 104] [$sp+0]
	@DEBUG_VALUE: tls_prf_generic:j <- 0
	@DEBUG_VALUE: tls_prf_generic:md_type <- 6
	.loc	1 0 0 is_stmt 0                 @ ../../../components/network/thread/subg_openthread/third_party/mbedtls/repo/library/ssl_tls.c:0:0
	ldr	r0, [sp, #100]
.Ltmp83:
	.loc	1 758 28 is_stmt 1              @ ../../../components/network/thread/subg_openthread/third_party/mbedtls/repo/library/ssl_tls.c:758:28
	mov	r1, r11
.Ltmp84:
	.loc	1 0 0 is_stmt 0                 @ ../../../components/network/thread/subg_openthread/third_party/mbedtls/repo/library/ssl_tls.c:0:0
	add	r0, r10
.Ltmp85:
	.loc	1 758 28                        @ ../../../components/network/thread/subg_openthread/third_party/mbedtls/repo/library/ssl_tls.c:758:28
	bl	__aeabi_memcpy
.Ltmp86:
	@DEBUG_VALUE: tls_prf_generic:j <- [DW_OP_plus_uconst 1, DW_OP_stack_value] undef
.LBB3_18:                               @   in Loop: Header=BB3_8 Depth=1
	@DEBUG_VALUE: tls_prf_generic:i <- $r10
	@DEBUG_VALUE: tls_prf_generic:dlen <- $r6
	@DEBUG_VALUE: tls_prf_generic:tmp_len <- [DW_OP_plus_uconst 8] [$sp+0]
	@DEBUG_VALUE: tls_prf_sha256:rlen <- [DW_OP_plus_uconst 96] [$sp+0]
	@DEBUG_VALUE: tls_prf_sha256:dstbuf <- [DW_OP_plus_uconst 100] [$sp+0]
	@DEBUG_VALUE: tls_prf_sha256:dlen <- [DW_OP_plus_uconst 104] [$sp+0]
	@DEBUG_VALUE: tls_prf_generic:md_type <- 6
	@DEBUG_VALUE: tls_prf_generic:ret <- 0
	@DEBUG_VALUE: tls_prf_generic:i <- $r5
	.loc	1 0 28                          @ ../../../components/network/thread/subg_openthread/third_party/mbedtls/repo/library/ssl_tls.c:0:28
	movs	r7, #0
	.loc	1 733 5 is_stmt 1               @ ../../../components/network/thread/subg_openthread/third_party/mbedtls/repo/library/ssl_tls.c:733:5
	cmp	r5, r6
	mov	r10, r5
.Ltmp87:
	@DEBUG_VALUE: tls_prf_generic:i <- $r10
	@DEBUG_VALUE: tls_prf_generic:i <- $r10
	.loc	1 0 5 is_stmt 0                 @ ../../../components/network/thread/subg_openthread/third_party/mbedtls/repo/library/ssl_tls.c:0:5
	blo	.LBB3_8
	b	.LBB3_22
.Ltmp88:
.LBB3_19:
	@DEBUG_VALUE: tls_prf_sha256:label <- $r10
	@DEBUG_VALUE: tls_prf_sha256:random <- $r9
	@DEBUG_VALUE: tls_prf_sha256:slen <- $r8
	@DEBUG_VALUE: tls_prf_sha256:secret <- $r4
	@DEBUG_VALUE: tls_prf_generic:md_info <- $r0
	@DEBUG_VALUE: tls_prf_sha256:rlen <- [DW_OP_plus_uconst 96] [$sp+0]
	@DEBUG_VALUE: tls_prf_sha256:dstbuf <- [DW_OP_plus_uconst 100] [$sp+0]
	@DEBUG_VALUE: tls_prf_sha256:dlen <- [DW_OP_plus_uconst 104] [$sp+0]
	@DEBUG_VALUE: tls_prf_generic:md_type <- 6
	@DEBUG_VALUE: tls_prf_generic:tmp_len <- 0
	@DEBUG_VALUE: tls_prf_generic:ret <- -110
	add.w	r7, r7, #4864
	b	.LBB3_23
.Ltmp89:
.LBB3_20:
	@DEBUG_VALUE: tls_prf_generic:i <- $r10
	@DEBUG_VALUE: tls_prf_generic:dlen <- $r6
	@DEBUG_VALUE: tls_prf_generic:ret <- $r0
	@DEBUG_VALUE: tls_prf_generic:tmp_len <- [DW_OP_plus_uconst 8] [$sp+0]
	@DEBUG_VALUE: tls_prf_sha256:rlen <- [DW_OP_plus_uconst 96] [$sp+0]
	@DEBUG_VALUE: tls_prf_sha256:dstbuf <- [DW_OP_plus_uconst 100] [$sp+0]
	@DEBUG_VALUE: tls_prf_sha256:dlen <- [DW_OP_plus_uconst 104] [$sp+0]
	@DEBUG_VALUE: tls_prf_generic:md_type <- 6
	mov	r7, r0
.Ltmp90:
	@DEBUG_VALUE: tls_prf_generic:ret <- $r7
	@DEBUG_VALUE: tls_prf_generic:ret <- $r7
	@DEBUG_VALUE: tls_prf_generic:ret <- $r7
	b	.LBB3_22
.Ltmp91:
.LBB3_21:
	@DEBUG_VALUE: tls_prf_generic:md_len <- [$sp+0]
	@DEBUG_VALUE: tls_prf_generic:md_info <- $r11
	@DEBUG_VALUE: tls_prf_sha256:label <- $r10
	@DEBUG_VALUE: tls_prf_generic:dlen <- $r6
	@DEBUG_VALUE: tls_prf_generic:nb <- $r5
	@DEBUG_VALUE: tls_prf_sha256:secret <- $r4
	@DEBUG_VALUE: tls_prf_generic:tmp_len <- [DW_OP_plus_uconst 8] [$sp+0]
	@DEBUG_VALUE: tls_prf_sha256:rlen <- [DW_OP_plus_uconst 96] [$sp+0]
	@DEBUG_VALUE: tls_prf_sha256:dstbuf <- [DW_OP_plus_uconst 100] [$sp+0]
	@DEBUG_VALUE: tls_prf_sha256:dlen <- [DW_OP_plus_uconst 104] [$sp+0]
	@DEBUG_VALUE: tls_prf_generic:ret <- 0
	@DEBUG_VALUE: tls_prf_generic:i <- 0
	@DEBUG_VALUE: tls_prf_generic:md_type <- 6
	movs	r7, #0
.Ltmp92:
.LBB3_22:
	@DEBUG_VALUE: tls_prf_generic:tmp_len <- [DW_OP_plus_uconst 8] [$sp+0]
	@DEBUG_VALUE: tls_prf_sha256:rlen <- [DW_OP_plus_uconst 96] [$sp+0]
	@DEBUG_VALUE: tls_prf_sha256:dstbuf <- [DW_OP_plus_uconst 100] [$sp+0]
	@DEBUG_VALUE: tls_prf_sha256:dlen <- [DW_OP_plus_uconst 104] [$sp+0]
	@DEBUG_VALUE: tls_prf_generic:md_type <- 6
	@DEBUG_VALUE: tls_prf_generic:ret <- $r7
	@DEBUG_LABEL: tls_prf_generic:exit
	add	r0, sp, #16
	.loc	1 762 5 is_stmt 1               @ ../../../components/network/thread/subg_openthread/third_party/mbedtls/repo/library/ssl_tls.c:762:5
	bl	mbedtls_md_free
.Ltmp93:
	.loc	1 0 5 is_stmt 0                 @ ../../../components/network/thread/subg_openthread/third_party/mbedtls/repo/library/ssl_tls.c:0:5
	ldr	r4, [sp, #12]                   @ 4-byte Reload
	.loc	1 764 5 is_stmt 1               @ ../../../components/network/thread/subg_openthread/third_party/mbedtls/repo/library/ssl_tls.c:764:5
	ldr	r1, [sp, #8]                    @ 4-byte Reload
	mov	r0, r4
	bl	mbedtls_platform_zeroize
.Ltmp94:
	.loc	1 0 5 is_stmt 0                 @ ../../../components/network/thread/subg_openthread/third_party/mbedtls/repo/library/ssl_tls.c:0:5
	add	r0, sp, #28
	.loc	1 765 5 is_stmt 1               @ ../../../components/network/thread/subg_openthread/third_party/mbedtls/repo/library/ssl_tls.c:765:5
	movs	r1, #32
	bl	mbedtls_platform_zeroize
.Ltmp95:
	.loc	1 767 5                         @ ../../../components/network/thread/subg_openthread/third_party/mbedtls/repo/library/ssl_tls.c:767:5
	mov	r0, r4
	bl	mbedtls_free
.Ltmp96:
.LBB3_23:
	@DEBUG_VALUE: tls_prf_sha256:rlen <- [DW_OP_plus_uconst 96] [$sp+0]
	@DEBUG_VALUE: tls_prf_sha256:dstbuf <- [DW_OP_plus_uconst 100] [$sp+0]
	@DEBUG_VALUE: tls_prf_sha256:dlen <- [DW_OP_plus_uconst 104] [$sp+0]
	.loc	1 778 5                         @ ../../../components/network/thread/subg_openthread/third_party/mbedtls/repo/library/ssl_tls.c:778:5
	mov	r0, r7
	add	sp, #60
	pop.w	{r4, r5, r6, r7, r8, r9, r10, r11, pc}
.Ltmp97:
.Lfunc_end3:
	.size	tls_prf_sha256, .Lfunc_end3-tls_prf_sha256
	.cfi_endproc
	.cantunwind
	.fnend
                                        @ -- End function
	.section	.text.mbedtls_ssl_derive_keys,"ax",%progbits
	.hidden	mbedtls_ssl_derive_keys         @ -- Begin function mbedtls_ssl_derive_keys
	.globl	mbedtls_ssl_derive_keys
	.p2align	2
	.type	mbedtls_ssl_derive_keys,%function
	.code	16                              @ @mbedtls_ssl_derive_keys
	.thumb_func
mbedtls_ssl_derive_keys:
.Lfunc_begin4:
	.loc	1 1711 0                        @ ../../../components/network/thread/subg_openthread/third_party/mbedtls/repo/library/ssl_tls.c:1711:0
	.fnstart
	.cfi_startproc
@ %bb.0:
	@DEBUG_VALUE: mbedtls_ssl_derive_keys:ssl <- $r0
	.save	{r4, r5, r6, r7, r8, r9, r10, r11, lr}
	push.w	{r4, r5, r6, r7, r8, r9, r10, r11, lr}
	.cfi_def_cfa_offset 36
	.cfi_offset lr, -4
	.cfi_offset r11, -8
	.cfi_offset r10, -12
	.cfi_offset r9, -16
	.cfi_offset r8, -20
	.cfi_offset r7, -24
	.cfi_offset r6, -28
	.cfi_offset r5, -32
	.cfi_offset r4, -36
	.pad	#292
	sub	sp, #292
	.cfi_def_cfa_offset 328
	movw	r8, #36608
	mov	r11, r0
	movt	r8, #65535
.Ltmp98:
	@DEBUG_VALUE: mbedtls_ssl_derive_keys:ciphersuite_info <- undef
	@DEBUG_VALUE: mbedtls_ssl_derive_keys:ssl <- $r11
	.loc	1 1720 40 prologue_end          @ ../../../components/network/thread/subg_openthread/third_party/mbedtls/repo/library/ssl_tls.c:1720:40
	ldr	r0, [r0, #12]
.Ltmp99:
	@DEBUG_VALUE: ssl_set_handshake_prfs:hash <- undef
	@DEBUG_VALUE: ssl_set_handshake_prfs:handshake <- undef
	@DEBUG_VALUE: mbedtls_ssl_derive_keys:ret <- -110
	.loc	1 0 0 is_stmt 0                 @ ../../../components/network/thread/subg_openthread/third_party/mbedtls/repo/library/ssl_tls.c:0:0
	add.w	r9, r8, #1280
.Ltmp100:
	@DEBUG_VALUE: ssl_set_handshake_prfs:minor_ver <- $r0
	.loc	1 1553 9 is_stmt 1              @ ../../../components/network/thread/subg_openthread/third_party/mbedtls/repo/library/ssl_tls.c:1553:9
	cmp	r0, #3
.Ltmp101:
	.loc	1 0 0 is_stmt 0                 @ ../../../components/network/thread/subg_openthread/third_party/mbedtls/repo/library/ssl_tls.c:0:0
	mov	r5, r9
.Ltmp102:
	.loc	1 1553 9                        @ ../../../components/network/thread/subg_openthread/third_party/mbedtls/repo/library/ssl_tls.c:1553:9
	bne.w	.LBB4_8
.Ltmp103:
@ %bb.1:
	@DEBUG_VALUE: mbedtls_ssl_derive_keys:ssl <- $r11
	@DEBUG_VALUE: ssl_set_handshake_prfs:minor_ver <- $r0
	@DEBUG_VALUE: mbedtls_ssl_derive_keys:ret <- -110
	.loc	1 0 0                           @ ../../../components/network/thread/subg_openthread/third_party/mbedtls/repo/library/ssl_tls.c:0:0
	ldr.w	r0, [r11, #48]
.Ltmp104:
	@DEBUG_VALUE: ssl_set_handshake_prfs:handshake <- $r0
	.loc	1 1556 32 is_stmt 1             @ ../../../components/network/thread/subg_openthread/third_party/mbedtls/repo/library/ssl_tls.c:1556:32
	movw	r1, :lower16:ssl_calc_verify_tls_sha256
	movt	r1, :upper16:ssl_calc_verify_tls_sha256
	str	r1, [r0, #20]
.Ltmp105:
	@DEBUG_VALUE: ssl_compute_master:ssl <- 0
	@DEBUG_VALUE: ssl_compute_master:salt_len <- 64
	@DEBUG_VALUE: ssl_compute_master:salt <- [DW_OP_plus_uconst 856, DW_OP_stack_value] $r0
	@DEBUG_VALUE: ssl_compute_master:master_secret_len <- 48
	@DEBUG_VALUE: ssl_compute_master:ret <- -110
	@DEBUG_VALUE: ssl_compute_master:handshake <- $r0
	.loc	1 1621 20                       @ ../../../components/network/thread/subg_openthread/third_party/mbedtls/repo/library/ssl_tls.c:1621:20
	ldrb	r1, [r0, #2]
.Ltmp106:
	.loc	1 1555 28                       @ ../../../components/network/thread/subg_openthread/third_party/mbedtls/repo/library/ssl_tls.c:1555:28
	movw	r3, :lower16:tls_prf_sha256
	.loc	1 1557 34                       @ ../../../components/network/thread/subg_openthread/third_party/mbedtls/repo/library/ssl_tls.c:1557:34
	movw	r2, :lower16:ssl_calc_finished_tls_sha256
	.loc	1 1555 28                       @ ../../../components/network/thread/subg_openthread/third_party/mbedtls/repo/library/ssl_tls.c:1555:28
	movt	r3, :upper16:tls_prf_sha256
	.loc	1 1557 34                       @ ../../../components/network/thread/subg_openthread/third_party/mbedtls/repo/library/ssl_tls.c:1557:34
	movt	r2, :upper16:ssl_calc_finished_tls_sha256
.Ltmp107:
	@DEBUG_VALUE: ssl_compute_master:master <- [DW_OP_plus_uconst 48, DW_OP_stack_value] undef
	@DEBUG_VALUE: mbedtls_ssl_derive_keys:ret <- undef
	.loc	1 1621 9                        @ ../../../components/network/thread/subg_openthread/third_party/mbedtls/repo/library/ssl_tls.c:1621:9
	cmp	r1, #0
.Ltmp108:
	@DEBUG_VALUE: ssl_compute_master:lbl <- undef
	@DEBUG_VALUE: ssl_compute_master:ssl <- 0
	@DEBUG_VALUE: ssl_compute_master:salt_len <- 64
	@DEBUG_VALUE: ssl_compute_master:salt <- [DW_OP_plus_uconst 856, DW_OP_stack_value] $r0
	@DEBUG_VALUE: ssl_compute_master:master_secret_len <- 48
	@DEBUG_VALUE: ssl_compute_master:ret <- -110
	@DEBUG_VALUE: ssl_compute_master:handshake <- $r0
	.loc	1 1557 34                       @ ../../../components/network/thread/subg_openthread/third_party/mbedtls/repo/library/ssl_tls.c:1557:34
	str	r2, [r0, #24]
	@DEBUG_VALUE: ssl_set_handshake_prfs:handshake <- $r0
	.loc	1 1555 28                       @ ../../../components/network/thread/subg_openthread/third_party/mbedtls/repo/library/ssl_tls.c:1555:28
	str	r3, [r0, #28]
.Ltmp109:
	@DEBUG_VALUE: ssl_set_handshake_prfs:handshake <- $r0
	@DEBUG_VALUE: ssl_compute_master:handshake <- $r0
	@DEBUG_VALUE: ssl_compute_master:ret <- -110
	@DEBUG_VALUE: ssl_compute_master:master_secret_len <- 48
	@DEBUG_VALUE: ssl_compute_master:salt <- [DW_OP_plus_uconst 856, DW_OP_stack_value] $r0
	@DEBUG_VALUE: ssl_compute_master:salt_len <- 64
	@DEBUG_VALUE: ssl_compute_master:ssl <- 0
	.loc	1 1621 9                        @ ../../../components/network/thread/subg_openthread/third_party/mbedtls/repo/library/ssl_tls.c:1621:9
	beq	.LBB4_7
.Ltmp110:
.LBB4_2:
	@DEBUG_VALUE: mbedtls_ssl_derive_keys:ssl <- $r11
	@DEBUG_VALUE: mbedtls_ssl_derive_keys:ret <- undef
	.loc	1 1743 9                        @ ../../../components/network/thread/subg_openthread/third_party/mbedtls/repo/library/ssl_tls.c:1743:9
	add.w	r7, r0, #856
	add.w	lr, r0, #872
	ldm	r7, {r1, r2, r3, r7}
	ldm.w	lr, {r5, r6, r12, lr}
	add	r4, sp, #36
	stm	r4!, {r1, r2, r3, r7}
	strd	r5, r6, [sp, #52]
	ldrd	r6, r5, [r0, #904]
	ldrd	r10, r4, [r0, #912]
	add.w	r7, r0, #888
	str	r4, [sp, #96]
	strd	r5, r10, [sp, #88]
	ldm	r7, {r1, r2, r3, r7}
	strd	r12, lr, [sp, #60]
	.loc	1 1744 9                        @ ../../../components/network/thread/subg_openthread/third_party/mbedtls/repo/library/ssl_tls.c:1744:9
	ldr.w	r12, [sp, #92]
	add.w	lr, r0, #856
	stm.w	lr, {r1, r2, r3, r7}
	strd	r6, r5, [r0, #872]
	strd	r12, r4, [r0, #880]
	.loc	1 1745 22                       @ ../../../components/network/thread/subg_openthread/third_party/mbedtls/repo/library/ssl_tls.c:1745:22
	ldr.w	r0, [r11, #48]
	.loc	1 1743 9                        @ ../../../components/network/thread/subg_openthread/third_party/mbedtls/repo/library/ssl_tls.c:1743:9
	str	r7, [sp, #80]
	add	r7, sp, #36
	str	r2, [sp, #72]
	str	r1, [sp, #68]
	.loc	1 1745 43                       @ ../../../components/network/thread/subg_openthread/third_party/mbedtls/repo/library/ssl_tls.c:1745:43
	add.w	r0, r0, #888
	.loc	1 1745 9 is_stmt 0              @ ../../../components/network/thread/subg_openthread/third_party/mbedtls/repo/library/ssl_tls.c:1745:9
	mov	r1, r7
	movs	r2, #32
	.loc	1 1743 9 is_stmt 1              @ ../../../components/network/thread/subg_openthread/third_party/mbedtls/repo/library/ssl_tls.c:1743:9
	str	r3, [sp, #76]
	str	r6, [sp, #84]
	.loc	1 1745 9                        @ ../../../components/network/thread/subg_openthread/third_party/mbedtls/repo/library/ssl_tls.c:1745:9
	bl	__aeabi_memcpy
.Ltmp111:
	.loc	1 1746 9                        @ ../../../components/network/thread/subg_openthread/third_party/mbedtls/repo/library/ssl_tls.c:1746:9
	mov	r0, r7
	movs	r1, #64
	bl	mbedtls_platform_zeroize
.Ltmp112:
	.loc	1 1767 40                       @ ../../../components/network/thread/subg_openthread/third_party/mbedtls/repo/library/ssl_tls.c:1767:40
	ldr.w	r1, [r11]
	.loc	1 1751 40                       @ ../../../components/network/thread/subg_openthread/third_party/mbedtls/repo/library/ssl_tls.c:1751:40
	ldrd	r10, r4, [r11, #44]
	.loc	1 1750 40                       @ ../../../components/network/thread/subg_openthread/third_party/mbedtls/repo/library/ssl_tls.c:1750:40
	ldr.w	r6, [r11, #64]
	.loc	1 1766 40                       @ ../../../components/network/thread/subg_openthread/third_party/mbedtls/repo/library/ssl_tls.c:1766:40
	ldr.w	r2, [r11, #12]
	.loc	1 1751 59                       @ ../../../components/network/thread/subg_openthread/third_party/mbedtls/repo/library/ssl_tls.c:1751:59
	ldr.w	r0, [r10, #4]
	.loc	1 1764 51                       @ ../../../components/network/thread/subg_openthread/third_party/mbedtls/repo/library/ssl_tls.c:1764:51
	ldr	r3, [r4, #28]
	.loc	1 1767 46                       @ ../../../components/network/thread/subg_openthread/third_party/mbedtls/repo/library/ssl_tls.c:1767:46
	ldrb	r1, [r1, #4]
.Ltmp113:
	@DEBUG_VALUE: ssl_populate_transform:endpoint <- [DW_OP_LLVM_convert 8 7, DW_OP_LLVM_convert 32 7, DW_OP_stack_value] undef
	@DEBUG_VALUE: ssl_populate_transform:randbytes <- undef
	@DEBUG_VALUE: ssl_populate_transform:master <- undef
	str	r3, [sp, #32]                   @ 4-byte Spill
.Ltmp114:
	.loc	1 1005 26                       @ ../../../components/network/thread/subg_openthread/third_party/mbedtls/repo/library/ssl_tls.c:1005:26
	str	r1, [sp, #28]                   @ 4-byte Spill
.Ltmp115:
	@DEBUG_VALUE: ssl_populate_transform:mac_key_len <- 0
	@DEBUG_VALUE: ssl_populate_transform:ret <- 0
	@DEBUG_VALUE: ssl_populate_transform:ssl <- $r11
	@DEBUG_VALUE: ssl_populate_transform:minor_ver <- $r2
	@DEBUG_VALUE: ssl_populate_transform:tls_prf <- [DW_OP_plus_uconst 32] [$sp+0]
	@DEBUG_VALUE: ssl_populate_transform:ciphersuite <- $r0
	@DEBUG_VALUE: ssl_populate_transform:transform <- $r6
	str.w	r2, [r6, #172]
	.loc	1 1014 24                       @ ../../../components/network/thread/subg_openthread/third_party/mbedtls/repo/library/ssl_tls.c:1014:24
	bl	mbedtls_ssl_ciphersuite_from_id
.Ltmp116:
	@DEBUG_VALUE: ssl_populate_transform:ciphersuite_info <- $r0
	.loc	1 1015 9                        @ ../../../components/network/thread/subg_openthread/third_party/mbedtls/repo/library/ssl_tls.c:1015:9
	cbz	r0, .LBB4_6
.Ltmp117:
@ %bb.3:
	@DEBUG_VALUE: ssl_populate_transform:ssl <- $r11
	@DEBUG_VALUE: mbedtls_ssl_derive_keys:ssl <- $r11
	@DEBUG_VALUE: ssl_populate_transform:transform <- $r6
	@DEBUG_VALUE: ssl_populate_transform:ciphersuite_info <- $r0
	@DEBUG_VALUE: ssl_populate_transform:tls_prf <- [DW_OP_plus_uconst 32] [$sp+0]
	@DEBUG_VALUE: ssl_populate_transform:ret <- 0
	@DEBUG_VALUE: ssl_populate_transform:mac_key_len <- 0
	.loc	1 0 0 is_stmt 0                 @ ../../../components/network/thread/subg_openthread/third_party/mbedtls/repo/library/ssl_tls.c:0:0
	mov	r5, r0
.Ltmp118:
	@DEBUG_VALUE: ssl_populate_transform:ciphersuite_info <- $r5
	@DEBUG_VALUE: ssl_populate_transform:master <- undef
	@DEBUG_VALUE: ssl_populate_transform:randbytes <- undef
	.loc	1 1022 68 is_stmt 1             @ ../../../components/network/thread/subg_openthread/third_party/mbedtls/repo/library/ssl_tls.c:1022:68
	ldr	r0, [r0, #8]
	.loc	1 1022 19 is_stmt 0             @ ../../../components/network/thread/subg_openthread/third_party/mbedtls/repo/library/ssl_tls.c:1022:19
	bl	mbedtls_cipher_info_from_type
.Ltmp119:
	@DEBUG_VALUE: ssl_populate_transform:cipher_info <- $r0
	.loc	1 1023 9 is_stmt 1              @ ../../../components/network/thread/subg_openthread/third_party/mbedtls/repo/library/ssl_tls.c:1023:9
	cbz	r0, .LBB4_6
.Ltmp120:
@ %bb.4:
	@DEBUG_VALUE: ssl_populate_transform:ssl <- $r11
	@DEBUG_VALUE: mbedtls_ssl_derive_keys:ssl <- $r11
	@DEBUG_VALUE: ssl_populate_transform:transform <- $r6
	@DEBUG_VALUE: ssl_populate_transform:ciphersuite_info <- $r5
	@DEBUG_VALUE: ssl_populate_transform:cipher_info <- $r0
	@DEBUG_VALUE: ssl_populate_transform:tls_prf <- [DW_OP_plus_uconst 32] [$sp+0]
	@DEBUG_VALUE: ssl_populate_transform:ret <- 0
	@DEBUG_VALUE: ssl_populate_transform:mac_key_len <- 0
	@DEBUG_VALUE: ssl_populate_transform:master <- undef
	@DEBUG_VALUE: ssl_populate_transform:randbytes <- undef
	.loc	1 0 9 is_stmt 0                 @ ../../../components/network/thread/subg_openthread/third_party/mbedtls/repo/library/ssl_tls.c:0:9
	str	r0, [sp, #24]                   @ 4-byte Spill
.Ltmp121:
	@DEBUG_VALUE: ssl_populate_transform:cipher_info <- [DW_OP_plus_uconst 24] [$sp+0]
	.loc	1 1030 60 is_stmt 1             @ ../../../components/network/thread/subg_openthread/third_party/mbedtls/repo/library/ssl_tls.c:1030:60
	ldr	r0, [r5, #12]
	.loc	1 1030 15 is_stmt 0             @ ../../../components/network/thread/subg_openthread/third_party/mbedtls/repo/library/ssl_tls.c:1030:15
	bl	mbedtls_md_info_from_type
.Ltmp122:
	@DEBUG_VALUE: ssl_populate_transform:md_info <- $r0
	.loc	1 1031 9 is_stmt 1              @ ../../../components/network/thread/subg_openthread/third_party/mbedtls/repo/library/ssl_tls.c:1031:9
	cbz	r0, .LBB4_6
.Ltmp123:
@ %bb.5:
	@DEBUG_VALUE: ssl_populate_transform:cipher_info <- [DW_OP_plus_uconst 24] [$sp+0]
	@DEBUG_VALUE: ssl_populate_transform:ssl <- $r11
	@DEBUG_VALUE: mbedtls_ssl_derive_keys:ssl <- $r11
	@DEBUG_VALUE: ssl_populate_transform:transform <- $r6
	@DEBUG_VALUE: ssl_populate_transform:ciphersuite_info <- $r5
	@DEBUG_VALUE: ssl_populate_transform:md_info <- $r0
	@DEBUG_VALUE: ssl_populate_transform:tls_prf <- [DW_OP_plus_uconst 32] [$sp+0]
	@DEBUG_VALUE: ssl_populate_transform:ret <- 0
	@DEBUG_VALUE: ssl_populate_transform:mac_key_len <- 0
	.loc	1 0 0 is_stmt 0                 @ ../../../components/network/thread/subg_openthread/third_party/mbedtls/repo/library/ssl_tls.c:0:0
	add.w	r10, r10, #48
	mov.w	r0, #256
	movs	r1, #64
.Ltmp124:
	.loc	1 1061 11 is_stmt 1             @ ../../../components/network/thread/subg_openthread/third_party/mbedtls/repo/library/ssl_tls.c:1061:11
	str	r7, [sp, #4]
	mov	r7, r6
.Ltmp125:
	@DEBUG_VALUE: ssl_populate_transform:transform <- $r7
	ldr	r6, [sp, #32]                   @ 4-byte Reload
.Ltmp126:
	.loc	1 0 0 is_stmt 0                 @ ../../../components/network/thread/subg_openthread/third_party/mbedtls/repo/library/ssl_tls.c:0:0
	add.w	r3, r4, #856
.Ltmp127:
	@DEBUG_VALUE: ssl_populate_transform:randbytes <- $r3
	@DEBUG_VALUE: ssl_populate_transform:master <- $r10
	.loc	1 1061 11                       @ ../../../components/network/thread/subg_openthread/third_party/mbedtls/repo/library/ssl_tls.c:1061:11
	str	r1, [sp]
	str	r0, [sp, #8]
	adr	r2, .LCPI4_1
	mov	r0, r10
	movs	r1, #48
	str	r3, [sp, #20]                   @ 4-byte Spill
.Ltmp128:
	@DEBUG_VALUE: ssl_populate_transform:randbytes <- [DW_OP_plus_uconst 20] [$sp+0]
	blx	r6
.Ltmp129:
	mov	r8, r0
.Ltmp130:
	@DEBUG_VALUE: ssl_populate_transform:ret <- $r8
	.loc	1 1062 9 is_stmt 1              @ ../../../components/network/thread/subg_openthread/third_party/mbedtls/repo/library/ssl_tls.c:1062:9
	cbz	r0, .LBB4_10
.Ltmp131:
.LBB4_6:
	@DEBUG_VALUE: ssl_populate_transform:ssl <- $r11
	@DEBUG_VALUE: mbedtls_ssl_derive_keys:ssl <- $r11
	@DEBUG_VALUE: ssl_populate_transform:tls_prf <- [DW_OP_plus_uconst 32] [$sp+0]
	@DEBUG_VALUE: ssl_populate_transform:mac_key_len <- 0
	.loc	1 0 0 is_stmt 0                 @ ../../../components/network/thread/subg_openthread/third_party/mbedtls/repo/library/ssl_tls.c:0:0
	mov	r5, r8
	b	.LBB4_8
.Ltmp132:
.LBB4_7:
	@DEBUG_VALUE: mbedtls_ssl_derive_keys:ssl <- $r11
	@DEBUG_VALUE: ssl_compute_master:handshake <- $r0
	@DEBUG_VALUE: ssl_compute_master:salt <- [DW_OP_plus_uconst 856, DW_OP_stack_value] $r0
	@DEBUG_VALUE: ssl_compute_master:ret <- -110
	@DEBUG_VALUE: ssl_compute_master:master_secret_len <- 48
	@DEBUG_VALUE: ssl_compute_master:salt_len <- 64
	@DEBUG_VALUE: ssl_compute_master:ssl <- 0
	.loc	1 1730 36 is_stmt 1             @ ../../../components/network/thread/subg_openthread/third_party/mbedtls/repo/library/ssl_tls.c:1730:36
	ldr.w	r1, [r11, #44]
.Ltmp133:
	@DEBUG_VALUE: ssl_compute_master:master <- [DW_OP_plus_uconst 48, DW_OP_stack_value] $r1
	.loc	1 1610 33                       @ ../../../components/network/thread/subg_openthread/third_party/mbedtls/repo/library/ssl_tls.c:1610:33
	add.w	r3, r0, #856
.Ltmp134:
	@DEBUG_VALUE: ssl_compute_master:salt <- $r3
	.loc	1 1730 31                       @ ../../../components/network/thread/subg_openthread/third_party/mbedtls/repo/library/ssl_tls.c:1730:31
	add.w	r2, r1, #48
.Ltmp135:
	@DEBUG_VALUE: ssl_compute_master:master <- $r2
	.loc	1 1689 68                       @ ../../../components/network/thread/subg_openthread/third_party/mbedtls/repo/library/ssl_tls.c:1689:68
	ldr	r1, [r0, #8]
	.loc	1 1689 35 is_stmt 0             @ ../../../components/network/thread/subg_openthread/third_party/mbedtls/repo/library/ssl_tls.c:1689:35
	add.w	r7, r0, #920
	movs	r0, #64
.Ltmp136:
	.loc	1 0 35                          @ ../../../components/network/thread/subg_openthread/third_party/mbedtls/repo/library/ssl_tls.c:0:35
	movs	r5, #48
	.loc	1 1689 15                       @ ../../../components/network/thread/subg_openthread/third_party/mbedtls/repo/library/ssl_tls.c:1689:15
	strd	r0, r2, [sp]
	adr	r2, .LCPI4_0
.Ltmp137:
	mov	r0, r7
	str	r5, [sp, #8]
	bl	tls_prf_sha256
.Ltmp138:
	mov	r5, r0
.Ltmp139:
	@DEBUG_VALUE: ssl_compute_master:ret <- $r5
	.loc	1 1693 13 is_stmt 1             @ ../../../components/network/thread/subg_openthread/third_party/mbedtls/repo/library/ssl_tls.c:1693:13
	cbz	r0, .LBB4_9
.Ltmp140:
.LBB4_8:
	@DEBUG_VALUE: mbedtls_ssl_derive_keys:ssl <- $r11
	.loc	1 1798 1                        @ ../../../components/network/thread/subg_openthread/third_party/mbedtls/repo/library/ssl_tls.c:1798:1
	mov	r0, r5
	add	sp, #292
	pop.w	{r4, r5, r6, r7, r8, r9, r10, r11, pc}
.Ltmp141:
.LBB4_9:
	@DEBUG_VALUE: mbedtls_ssl_derive_keys:ssl <- $r11
	@DEBUG_VALUE: ssl_compute_master:ret <- $r5
	@DEBUG_VALUE: ssl_compute_master:master_secret_len <- 48
	@DEBUG_VALUE: ssl_compute_master:salt_len <- 64
	@DEBUG_VALUE: ssl_compute_master:ssl <- 0
	.loc	1 1703 9                        @ ../../../components/network/thread/subg_openthread/third_party/mbedtls/repo/library/ssl_tls.c:1703:9
	mov	r0, r7
	movs	r1, #32
	bl	mbedtls_platform_zeroize
.Ltmp142:
	.loc	1 1743 27                       @ ../../../components/network/thread/subg_openthread/third_party/mbedtls/repo/library/ssl_tls.c:1743:27
	ldr.w	r0, [r11, #48]
	b	.LBB4_2
.Ltmp143:
.LBB4_10:
	@DEBUG_VALUE: ssl_populate_transform:cipher_info <- [DW_OP_plus_uconst 24] [$sp+0]
	@DEBUG_VALUE: ssl_populate_transform:ssl <- $r11
	@DEBUG_VALUE: mbedtls_ssl_derive_keys:ssl <- $r11
	@DEBUG_VALUE: ssl_populate_transform:master <- $r10
	@DEBUG_VALUE: ssl_populate_transform:ret <- $r8
	@DEBUG_VALUE: ssl_populate_transform:transform <- $r7
	@DEBUG_VALUE: ssl_populate_transform:ciphersuite_info <- $r5
	@DEBUG_VALUE: ssl_populate_transform:randbytes <- [DW_OP_plus_uconst 20] [$sp+0]
	@DEBUG_VALUE: ssl_populate_transform:tls_prf <- [DW_OP_plus_uconst 32] [$sp+0]
	@DEBUG_VALUE: ssl_populate_transform:mac_key_len <- 0
	.loc	1 1083 22                       @ ../../../components/network/thread/subg_openthread/third_party/mbedtls/repo/library/ssl_tls.c:1083:22
	ldr	r0, [sp, #24]                   @ 4-byte Reload
.Ltmp144:
	@DEBUG_VALUE: ssl_populate_transform:cipher_info <- $r0
	ldr	r1, [r0, #4]
.Ltmp145:
	@DEBUG_VALUE: ssl_populate_transform:keylen <- undef
	.loc	1 1083 47 is_stmt 0             @ ../../../components/network/thread/subg_openthread/third_party/mbedtls/repo/library/ssl_tls.c:1083:47
	cmp	r1, #10
	bhi.w	.LBB4_23
.Ltmp146:
@ %bb.11:
	@DEBUG_VALUE: ssl_populate_transform:ssl <- $r11
	@DEBUG_VALUE: mbedtls_ssl_derive_keys:ssl <- $r11
	@DEBUG_VALUE: ssl_populate_transform:master <- $r10
	@DEBUG_VALUE: ssl_populate_transform:ret <- $r8
	@DEBUG_VALUE: ssl_populate_transform:transform <- $r7
	@DEBUG_VALUE: ssl_populate_transform:ciphersuite_info <- $r5
	@DEBUG_VALUE: ssl_populate_transform:cipher_info <- $r0
	@DEBUG_VALUE: ssl_populate_transform:randbytes <- [DW_OP_plus_uconst 20] [$sp+0]
	@DEBUG_VALUE: ssl_populate_transform:tls_prf <- [DW_OP_plus_uconst 32] [$sp+0]
	@DEBUG_VALUE: ssl_populate_transform:mac_key_len <- 0
	@DEBUG_VALUE: ssl_populate_transform:keylen <- undef
	.loc	1 0 47                          @ ../../../components/network/thread/subg_openthread/third_party/mbedtls/repo/library/ssl_tls.c:0:47
	movs	r0, #1
.Ltmp147:
	lsls	r0, r1
	tst.w	r0, #1344
	mov	r8, r9
.Ltmp148:
	beq	.LBB4_6
.Ltmp149:
@ %bb.12:
	@DEBUG_VALUE: ssl_populate_transform:ssl <- $r11
	@DEBUG_VALUE: mbedtls_ssl_derive_keys:ssl <- $r11
	@DEBUG_VALUE: ssl_populate_transform:master <- $r10
	@DEBUG_VALUE: ssl_populate_transform:transform <- $r7
	@DEBUG_VALUE: ssl_populate_transform:ciphersuite_info <- $r5
	@DEBUG_VALUE: ssl_populate_transform:randbytes <- [DW_OP_plus_uconst 20] [$sp+0]
	@DEBUG_VALUE: ssl_populate_transform:tls_prf <- [DW_OP_plus_uconst 32] [$sp+0]
	@DEBUG_VALUE: ssl_populate_transform:mac_key_len <- 0
	ldr	r0, [sp, #24]                   @ 4-byte Reload
	mov	r6, r7
.Ltmp150:
	@DEBUG_VALUE: ssl_populate_transform:transform <- $r6
	movs	r2, #0
	ldr	r0, [r0, #8]
.Ltmp151:
	@DEBUG_VALUE: ssl_populate_transform:keylen <- undef
	.loc	1 1089 27 is_stmt 1             @ ../../../components/network/thread/subg_openthread/third_party/mbedtls/repo/library/ssl_tls.c:1089:27
	str	r2, [r6, #12]
	@DEBUG_VALUE: ssl_populate_transform:mac_key_len <- 0
	.loc	1 1092 31                       @ ../../../components/network/thread/subg_openthread/third_party/mbedtls/repo/library/ssl_tls.c:1092:31
	ldrb.w	r2, [r5, #36]
	mov	r7, r10
.Ltmp152:
	@DEBUG_VALUE: ssl_populate_transform:master <- $r7
	.loc	1 1092 13 is_stmt 0             @ ../../../components/network/thread/subg_openthread/third_party/mbedtls/repo/library/ssl_tls.c:1092:13
	lsls	r2, r2, #30
	mov.w	r2, #8
	mov.w	r3, #12
	mov.w	r10, #4
	it	pl
	movpl	r2, #16
	.loc	1 1091 27 is_stmt 1             @ ../../../components/network/thread/subg_openthread/third_party/mbedtls/repo/library/ssl_tls.c:1091:27
	str	r2, [r6, #16]
	.loc	1 1102 26                       @ ../../../components/network/thread/subg_openthread/third_party/mbedtls/repo/library/ssl_tls.c:1102:26
	str	r3, [r6, #4]
.Ltmp153:
	.loc	1 1111 17                       @ ../../../components/network/thread/subg_openthread/third_party/mbedtls/repo/library/ssl_tls.c:1111:17
	cmp	r1, #10
	it	eq
	moveq.w	r10, #12
.Ltmp154:
	.loc	1 1119 44                       @ ../../../components/network/thread/subg_openthread/third_party/mbedtls/repo/library/ssl_tls.c:1119:44
	sub.w	r1, r2, r10
	adds	r1, #12
	.loc	1 1119 27 is_stmt 0             @ ../../../components/network/thread/subg_openthread/third_party/mbedtls/repo/library/ssl_tls.c:1119:27
	str	r1, [r6]
.Ltmp155:
	.loc	1 1224 9 is_stmt 1              @ ../../../components/network/thread/subg_openthread/third_party/mbedtls/repo/library/ssl_tls.c:1224:9
	ldr	r1, [sp, #28]                   @ 4-byte Reload
	.loc	1 0 0 is_stmt 0                 @ ../../../components/network/thread/subg_openthread/third_party/mbedtls/repo/library/ssl_tls.c:0:0
	mov	r5, r9
.Ltmp156:
	.loc	1 1224 9                        @ ../../../components/network/thread/subg_openthread/third_party/mbedtls/repo/library/ssl_tls.c:1224:9
	cmp	r1, #0
.Ltmp157:
	.loc	1 1112 40 is_stmt 1             @ ../../../components/network/thread/subg_openthread/third_party/mbedtls/repo/library/ssl_tls.c:1112:40
	str.w	r10, [r6, #8]
.Ltmp158:
	@DEBUG_VALUE: explicit_ivlen <- undef
	.loc	1 1224 9                        @ ../../../components/network/thread/subg_openthread/third_party/mbedtls/repo/library/ssl_tls.c:1224:9
	bne	.LBB4_21
.Ltmp159:
@ %bb.13:
	@DEBUG_VALUE: ssl_populate_transform:ssl <- $r11
	@DEBUG_VALUE: mbedtls_ssl_derive_keys:ssl <- $r11
	@DEBUG_VALUE: ssl_populate_transform:master <- $r7
	@DEBUG_VALUE: ssl_populate_transform:transform <- $r6
	@DEBUG_VALUE: ssl_populate_transform:randbytes <- [DW_OP_plus_uconst 20] [$sp+0]
	@DEBUG_VALUE: ssl_populate_transform:tls_prf <- [DW_OP_plus_uconst 32] [$sp+0]
	@DEBUG_VALUE: ssl_populate_transform:mac_key_len <- 0
	.loc	1 0 9 is_stmt 0                 @ ../../../components/network/thread/subg_openthread/third_party/mbedtls/repo/library/ssl_tls.c:0:9
	lsr.w	r8, r0, #3
.Ltmp160:
	@DEBUG_VALUE: ssl_populate_transform:keylen <- $r8
	.loc	1 1227 41 is_stmt 1             @ ../../../components/network/thread/subg_openthread/third_party/mbedtls/repo/library/ssl_tls.c:1227:41
	add	r0, sp, #36
	add.w	r9, r0, r8
.Ltmp161:
	@DEBUG_VALUE: ssl_populate_transform:iv_copy_len <- $r10
	@DEBUG_VALUE: ssl_populate_transform:mac_enc <- [DW_OP_plus_uconst 36, DW_OP_stack_value] $sp
	@DEBUG_VALUE: ssl_populate_transform:key2 <- $r9
	.loc	1 1237 41                       @ ../../../components/network/thread/subg_openthread/third_party/mbedtls/repo/library/ssl_tls.c:1237:41
	add.w	r5, r9, r8
	.loc	1 1237 9 is_stmt 0              @ ../../../components/network/thread/subg_openthread/third_party/mbedtls/repo/library/ssl_tls.c:1237:9
	add.w	r0, r6, #20
	mov	r1, r5
	mov	r2, r10
	bl	__aeabi_memcpy
.Ltmp162:
	.loc	1 1238 9 is_stmt 1              @ ../../../components/network/thread/subg_openthread/third_party/mbedtls/repo/library/ssl_tls.c:1238:9
	add.w	r0, r6, #36
	.loc	1 1238 50 is_stmt 0             @ ../../../components/network/thread/subg_openthread/third_party/mbedtls/repo/library/ssl_tls.c:1238:50
	add.w	r1, r5, r10
	.loc	1 1238 9                        @ ../../../components/network/thread/subg_openthread/third_party/mbedtls/repo/library/ssl_tls.c:1238:9
	mov	r2, r10
	bl	__aeabi_memcpy
.Ltmp163:
	.loc	1 1336 14 is_stmt 1             @ ../../../components/network/thread/subg_openthread/third_party/mbedtls/repo/library/ssl_tls.c:1336:14
	ldr.w	r0, [r11]
	.loc	1 1336 20 is_stmt 0             @ ../../../components/network/thread/subg_openthread/third_party/mbedtls/repo/library/ssl_tls.c:1336:20
	ldr	r5, [r0, #68]
.Ltmp164:
	@DEBUG_VALUE: ssl_populate_transform:mac_dec <- [DW_OP_plus_uconst 36, DW_OP_stack_value] $sp
	@DEBUG_VALUE: ssl_populate_transform:key1 <- [DW_OP_plus_uconst 36, DW_OP_stack_value] $sp
	.loc	1 1336 9                        @ ../../../components/network/thread/subg_openthread/third_party/mbedtls/repo/library/ssl_tls.c:1336:9
	cbz	r5, .LBB4_15
.Ltmp165:
@ %bb.14:
	@DEBUG_VALUE: ssl_populate_transform:ssl <- $r11
	@DEBUG_VALUE: mbedtls_ssl_derive_keys:ssl <- $r11
	@DEBUG_VALUE: ssl_populate_transform:iv_copy_len <- $r10
	@DEBUG_VALUE: ssl_populate_transform:key2 <- $r9
	@DEBUG_VALUE: ssl_populate_transform:keylen <- $r8
	@DEBUG_VALUE: ssl_populate_transform:master <- $r7
	@DEBUG_VALUE: ssl_populate_transform:transform <- $r6
	@DEBUG_VALUE: ssl_populate_transform:key1 <- [DW_OP_plus_uconst 36, DW_OP_stack_value] $sp
	@DEBUG_VALUE: ssl_populate_transform:mac_dec <- [DW_OP_plus_uconst 36, DW_OP_stack_value] $sp
	@DEBUG_VALUE: ssl_populate_transform:mac_enc <- [DW_OP_plus_uconst 36, DW_OP_stack_value] $sp
	@DEBUG_VALUE: ssl_populate_transform:randbytes <- [DW_OP_plus_uconst 20] [$sp+0]
	@DEBUG_VALUE: ssl_populate_transform:tls_prf <- [DW_OP_plus_uconst 32] [$sp+0]
	@DEBUG_VALUE: ssl_populate_transform:mac_key_len <- 0
	.loc	1 1338 46 is_stmt 1             @ ../../../components/network/thread/subg_openthread/third_party/mbedtls/repo/library/ssl_tls.c:1338:46
	ldr	r0, [r0, #76]
	add	r2, sp, #36
	.loc	1 1338 9 is_stmt 0              @ ../../../components/network/thread/subg_openthread/third_party/mbedtls/repo/library/ssl_tls.c:1338:9
	mov	r1, r7
	movs	r3, #0
	str.w	r8, [sp]
	str.w	r10, [sp, #4]
	blx	r5
.Ltmp166:
	.loc	1 1344 14 is_stmt 1             @ ../../../components/network/thread/subg_openthread/third_party/mbedtls/repo/library/ssl_tls.c:1344:14
	ldr.w	r0, [r11]
.Ltmp167:
.LBB4_15:
	@DEBUG_VALUE: ssl_populate_transform:ssl <- $r11
	@DEBUG_VALUE: mbedtls_ssl_derive_keys:ssl <- $r11
	@DEBUG_VALUE: ssl_populate_transform:iv_copy_len <- $r10
	@DEBUG_VALUE: ssl_populate_transform:key2 <- $r9
	@DEBUG_VALUE: ssl_populate_transform:keylen <- $r8
	@DEBUG_VALUE: ssl_populate_transform:master <- $r7
	@DEBUG_VALUE: ssl_populate_transform:transform <- $r6
	@DEBUG_VALUE: ssl_populate_transform:key1 <- [DW_OP_plus_uconst 36, DW_OP_stack_value] $sp
	@DEBUG_VALUE: ssl_populate_transform:mac_dec <- [DW_OP_plus_uconst 36, DW_OP_stack_value] $sp
	@DEBUG_VALUE: ssl_populate_transform:mac_enc <- [DW_OP_plus_uconst 36, DW_OP_stack_value] $sp
	@DEBUG_VALUE: ssl_populate_transform:randbytes <- [DW_OP_plus_uconst 20] [$sp+0]
	@DEBUG_VALUE: ssl_populate_transform:tls_prf <- [DW_OP_plus_uconst 32] [$sp+0]
	@DEBUG_VALUE: ssl_populate_transform:mac_key_len <- 0
	.loc	1 1344 20 is_stmt 0             @ ../../../components/network/thread/subg_openthread/third_party/mbedtls/repo/library/ssl_tls.c:1344:20
	ldr	r5, [r0, #72]
.Ltmp168:
	.loc	1 1344 9                        @ ../../../components/network/thread/subg_openthread/third_party/mbedtls/repo/library/ssl_tls.c:1344:9
	cbz	r5, .LBB4_17
.Ltmp169:
@ %bb.16:
	@DEBUG_VALUE: ssl_populate_transform:ssl <- $r11
	@DEBUG_VALUE: mbedtls_ssl_derive_keys:ssl <- $r11
	@DEBUG_VALUE: ssl_populate_transform:iv_copy_len <- $r10
	@DEBUG_VALUE: ssl_populate_transform:key2 <- $r9
	@DEBUG_VALUE: ssl_populate_transform:keylen <- $r8
	@DEBUG_VALUE: ssl_populate_transform:master <- $r7
	@DEBUG_VALUE: ssl_populate_transform:transform <- $r6
	@DEBUG_VALUE: ssl_populate_transform:key1 <- [DW_OP_plus_uconst 36, DW_OP_stack_value] $sp
	@DEBUG_VALUE: ssl_populate_transform:mac_dec <- [DW_OP_plus_uconst 36, DW_OP_stack_value] $sp
	@DEBUG_VALUE: ssl_populate_transform:mac_enc <- [DW_OP_plus_uconst 36, DW_OP_stack_value] $sp
	@DEBUG_VALUE: ssl_populate_transform:randbytes <- [DW_OP_plus_uconst 20] [$sp+0]
	@DEBUG_VALUE: ssl_populate_transform:tls_prf <- [DW_OP_plus_uconst 32] [$sp+0]
	@DEBUG_VALUE: ssl_populate_transform:mac_key_len <- 0
	.loc	1 874 17 is_stmt 1              @ ../../../components/network/thread/subg_openthread/third_party/mbedtls/repo/library/ssl_tls.c:874:17
	movw	r2, :lower16:tls_prf_sha256
	ldr	r3, [sp, #32]                   @ 4-byte Reload
.Ltmp170:
	@DEBUG_VALUE: tls_prf_get_type:tls_prf <- $r3
	movt	r2, :upper16:tls_prf_sha256
.Ltmp171:
	.loc	1 1350 49                       @ ../../../components/network/thread/subg_openthread/third_party/mbedtls/repo/library/ssl_tls.c:1350:49
	add.w	r1, r4, #888
.Ltmp172:
	.loc	1 874 17                        @ ../../../components/network/thread/subg_openthread/third_party/mbedtls/repo/library/ssl_tls.c:874:17
	subs	r2, r3, r2
.Ltmp173:
	.loc	1 1346 50                       @ ../../../components/network/thread/subg_openthread/third_party/mbedtls/repo/library/ssl_tls.c:1346:50
	ldr	r0, [r0, #76]
.Ltmp174:
	.loc	1 874 17                        @ ../../../components/network/thread/subg_openthread/third_party/mbedtls/repo/library/ssl_tls.c:874:17
	clz	r2, r2
.Ltmp175:
	.loc	1 1346 9                        @ ../../../components/network/thread/subg_openthread/third_party/mbedtls/repo/library/ssl_tls.c:1346:9
	str	r1, [sp, #8]
	ldr	r1, [sp, #20]                   @ 4-byte Reload
.Ltmp176:
	.loc	1 874 17                        @ ../../../components/network/thread/subg_openthread/third_party/mbedtls/repo/library/ssl_tls.c:874:17
	lsrs	r2, r2, #5
.Ltmp177:
	.loc	1 874 9 is_stmt 0               @ ../../../components/network/thread/subg_openthread/third_party/mbedtls/repo/library/ssl_tls.c:874:9
	lsls	r4, r2, #2
.Ltmp178:
	.loc	1 1346 9 is_stmt 1              @ ../../../components/network/thread/subg_openthread/third_party/mbedtls/repo/library/ssl_tls.c:1346:9
	str	r1, [sp, #12]
	add	r2, sp, #36
	mov	r1, r7
	movs	r3, #0
.Ltmp179:
	strd	r8, r10, [sp]
	str	r4, [sp, #16]
	blx	r5
.Ltmp180:
.LBB4_17:
	@DEBUG_VALUE: ssl_populate_transform:ssl <- $r11
	@DEBUG_VALUE: mbedtls_ssl_derive_keys:ssl <- $r11
	@DEBUG_VALUE: ssl_populate_transform:iv_copy_len <- $r10
	@DEBUG_VALUE: ssl_populate_transform:key2 <- $r9
	@DEBUG_VALUE: ssl_populate_transform:keylen <- $r8
	@DEBUG_VALUE: ssl_populate_transform:master <- $r7
	@DEBUG_VALUE: ssl_populate_transform:transform <- $r6
	@DEBUG_VALUE: ssl_populate_transform:key1 <- [DW_OP_plus_uconst 36, DW_OP_stack_value] $sp
	@DEBUG_VALUE: ssl_populate_transform:mac_dec <- [DW_OP_plus_uconst 36, DW_OP_stack_value] $sp
	@DEBUG_VALUE: ssl_populate_transform:mac_enc <- [DW_OP_plus_uconst 36, DW_OP_stack_value] $sp
	@DEBUG_VALUE: ssl_populate_transform:randbytes <- [DW_OP_plus_uconst 20] [$sp+0]
	@DEBUG_VALUE: ssl_populate_transform:tls_prf <- [DW_OP_plus_uconst 32] [$sp+0]
	@DEBUG_VALUE: ssl_populate_transform:mac_key_len <- 0
	.loc	1 0 9 is_stmt 0                 @ ../../../components/network/thread/subg_openthread/third_party/mbedtls/repo/library/ssl_tls.c:0:9
	ldr	r4, [sp, #24]                   @ 4-byte Reload
.Ltmp181:
	.loc	1 1393 51 is_stmt 1             @ ../../../components/network/thread/subg_openthread/third_party/mbedtls/repo/library/ssl_tls.c:1393:51
	add.w	r7, r6, #52
.Ltmp182:
	.loc	1 1393 17 is_stmt 0             @ ../../../components/network/thread/subg_openthread/third_party/mbedtls/repo/library/ssl_tls.c:1393:17
	mov	r0, r7
	mov	r1, r4
	bl	mbedtls_cipher_setup
.Ltmp183:
	mov	r5, r0
.Ltmp184:
	@DEBUG_VALUE: ssl_populate_transform:ret <- $r5
	.loc	1 1393 9                        @ ../../../components/network/thread/subg_openthread/third_party/mbedtls/repo/library/ssl_tls.c:1393:9
	cbnz	r0, .LBB4_21
.Ltmp185:
@ %bb.18:
	@DEBUG_VALUE: ssl_populate_transform:ssl <- $r11
	@DEBUG_VALUE: mbedtls_ssl_derive_keys:ssl <- $r11
	@DEBUG_VALUE: ssl_populate_transform:iv_copy_len <- $r10
	@DEBUG_VALUE: ssl_populate_transform:key2 <- $r9
	@DEBUG_VALUE: ssl_populate_transform:keylen <- $r8
	@DEBUG_VALUE: ssl_populate_transform:transform <- $r6
	@DEBUG_VALUE: ssl_populate_transform:ret <- $r5
	@DEBUG_VALUE: ssl_populate_transform:key1 <- [DW_OP_plus_uconst 36, DW_OP_stack_value] $sp
	@DEBUG_VALUE: ssl_populate_transform:mac_dec <- [DW_OP_plus_uconst 36, DW_OP_stack_value] $sp
	@DEBUG_VALUE: ssl_populate_transform:mac_enc <- [DW_OP_plus_uconst 36, DW_OP_stack_value] $sp
	@DEBUG_VALUE: ssl_populate_transform:randbytes <- [DW_OP_plus_uconst 20] [$sp+0]
	@DEBUG_VALUE: ssl_populate_transform:tls_prf <- [DW_OP_plus_uconst 32] [$sp+0]
	@DEBUG_VALUE: ssl_populate_transform:mac_key_len <- 0
	.loc	1 1436 51 is_stmt 1             @ ../../../components/network/thread/subg_openthread/third_party/mbedtls/repo/library/ssl_tls.c:1436:51
	add.w	r8, r6, #112
.Ltmp186:
	.loc	1 1436 17 is_stmt 0             @ ../../../components/network/thread/subg_openthread/third_party/mbedtls/repo/library/ssl_tls.c:1436:17
	mov	r0, r8
	mov	r1, r4
	bl	mbedtls_cipher_setup
.Ltmp187:
	.loc	1 0 17                          @ ../../../components/network/thread/subg_openthread/third_party/mbedtls/repo/library/ssl_tls.c:0:17
	ldr	r1, [sp, #24]                   @ 4-byte Reload
	.loc	1 1436 17                       @ ../../../components/network/thread/subg_openthread/third_party/mbedtls/repo/library/ssl_tls.c:1436:17
	mov	r5, r0
.Ltmp188:
	@DEBUG_VALUE: ssl_populate_transform:ret <- $r5
	.loc	1 1436 9                        @ ../../../components/network/thread/subg_openthread/third_party/mbedtls/repo/library/ssl_tls.c:1436:9
	cbnz	r0, .LBB4_21
.Ltmp189:
@ %bb.19:
	@DEBUG_VALUE: ssl_populate_transform:ssl <- $r11
	@DEBUG_VALUE: mbedtls_ssl_derive_keys:ssl <- $r11
	@DEBUG_VALUE: ssl_populate_transform:iv_copy_len <- $r10
	@DEBUG_VALUE: ssl_populate_transform:key2 <- $r9
	@DEBUG_VALUE: ssl_populate_transform:transform <- $r6
	@DEBUG_VALUE: ssl_populate_transform:ret <- $r5
	@DEBUG_VALUE: ssl_populate_transform:key1 <- [DW_OP_plus_uconst 36, DW_OP_stack_value] $sp
	@DEBUG_VALUE: ssl_populate_transform:mac_dec <- [DW_OP_plus_uconst 36, DW_OP_stack_value] $sp
	@DEBUG_VALUE: ssl_populate_transform:mac_enc <- [DW_OP_plus_uconst 36, DW_OP_stack_value] $sp
	@DEBUG_VALUE: ssl_populate_transform:randbytes <- [DW_OP_plus_uconst 20] [$sp+0]
	@DEBUG_VALUE: ssl_populate_transform:tls_prf <- [DW_OP_plus_uconst 32] [$sp+0]
	@DEBUG_VALUE: ssl_populate_transform:mac_key_len <- 0
	.loc	1 1444 45 is_stmt 1             @ ../../../components/network/thread/subg_openthread/third_party/mbedtls/repo/library/ssl_tls.c:1444:45
	ldr	r2, [r1, #8]
	add	r1, sp, #36
	.loc	1 1443 17                       @ ../../../components/network/thread/subg_openthread/third_party/mbedtls/repo/library/ssl_tls.c:1443:17
	mov	r0, r7
	movs	r3, #1
	bl	mbedtls_cipher_setkey
.Ltmp190:
	.loc	1 0 17 is_stmt 0                @ ../../../components/network/thread/subg_openthread/third_party/mbedtls/repo/library/ssl_tls.c:0:17
	ldr	r1, [sp, #24]                   @ 4-byte Reload
	.loc	1 1443 17                       @ ../../../components/network/thread/subg_openthread/third_party/mbedtls/repo/library/ssl_tls.c:1443:17
	mov	r5, r0
.Ltmp191:
	@DEBUG_VALUE: ssl_populate_transform:ret <- $r5
	.loc	1 1443 9                        @ ../../../components/network/thread/subg_openthread/third_party/mbedtls/repo/library/ssl_tls.c:1443:9
	cbnz	r0, .LBB4_21
.Ltmp192:
@ %bb.20:
	@DEBUG_VALUE: ssl_populate_transform:ssl <- $r11
	@DEBUG_VALUE: mbedtls_ssl_derive_keys:ssl <- $r11
	@DEBUG_VALUE: ssl_populate_transform:iv_copy_len <- $r10
	@DEBUG_VALUE: ssl_populate_transform:key2 <- $r9
	@DEBUG_VALUE: ssl_populate_transform:transform <- $r6
	@DEBUG_VALUE: ssl_populate_transform:ret <- $r5
	@DEBUG_VALUE: ssl_populate_transform:key1 <- [DW_OP_plus_uconst 36, DW_OP_stack_value] $sp
	@DEBUG_VALUE: ssl_populate_transform:mac_dec <- [DW_OP_plus_uconst 36, DW_OP_stack_value] $sp
	@DEBUG_VALUE: ssl_populate_transform:mac_enc <- [DW_OP_plus_uconst 36, DW_OP_stack_value] $sp
	@DEBUG_VALUE: ssl_populate_transform:randbytes <- [DW_OP_plus_uconst 20] [$sp+0]
	@DEBUG_VALUE: ssl_populate_transform:tls_prf <- [DW_OP_plus_uconst 32] [$sp+0]
	@DEBUG_VALUE: ssl_populate_transform:mac_key_len <- 0
	.loc	1 1452 45 is_stmt 1             @ ../../../components/network/thread/subg_openthread/third_party/mbedtls/repo/library/ssl_tls.c:1452:45
	ldr	r2, [r1, #8]
	.loc	1 1451 17                       @ ../../../components/network/thread/subg_openthread/third_party/mbedtls/repo/library/ssl_tls.c:1451:17
	mov	r0, r8
	mov	r1, r9
	movs	r3, #0
	bl	mbedtls_cipher_setkey
.Ltmp193:
	mov	r5, r0
.Ltmp194:
	@DEBUG_VALUE: ssl_populate_transform:ret <- $r5
.LBB4_21:
	@DEBUG_VALUE: ssl_populate_transform:ssl <- $r11
	@DEBUG_VALUE: mbedtls_ssl_derive_keys:ssl <- $r11
	@DEBUG_VALUE: ssl_populate_transform:transform <- $r6
	@DEBUG_VALUE: ssl_populate_transform:randbytes <- [DW_OP_plus_uconst 20] [$sp+0]
	@DEBUG_VALUE: ssl_populate_transform:tls_prf <- [DW_OP_plus_uconst 32] [$sp+0]
	@DEBUG_VALUE: ssl_populate_transform:mac_key_len <- 0
	@DEBUG_VALUE: mbedtls_ssl_derive_keys:ret <- $r5
	@DEBUG_VALUE: ssl_populate_transform:ret <- $r5
	@DEBUG_LABEL: ssl_populate_transform:end
	.loc	1 0 17 is_stmt 0                @ ../../../components/network/thread/subg_openthread/third_party/mbedtls/repo/library/ssl_tls.c:0:17
	add	r0, sp, #36
	.loc	1 1500 5 is_stmt 1              @ ../../../components/network/thread/subg_openthread/third_party/mbedtls/repo/library/ssl_tls.c:1500:5
	mov.w	r1, #256
	bl	mbedtls_platform_zeroize
.Ltmp195:
	.loc	1 1769 9                        @ ../../../components/network/thread/subg_openthread/third_party/mbedtls/repo/library/ssl_tls.c:1769:9
	cmp	r5, #0
	bne.w	.LBB4_8
.Ltmp196:
@ %bb.22:
	@DEBUG_VALUE: mbedtls_ssl_derive_keys:ssl <- $r11
	@DEBUG_VALUE: mbedtls_ssl_derive_keys:ret <- $r5
	.loc	1 1776 36                       @ ../../../components/network/thread/subg_openthread/third_party/mbedtls/repo/library/ssl_tls.c:1776:36
	ldr.w	r0, [r11, #48]
	.loc	1 1776 5 is_stmt 0              @ ../../../components/network/thread/subg_openthread/third_party/mbedtls/repo/library/ssl_tls.c:1776:5
	movs	r1, #64
	.loc	1 1776 31                       @ ../../../components/network/thread/subg_openthread/third_party/mbedtls/repo/library/ssl_tls.c:1776:31
	add.w	r0, r0, #856
	.loc	1 1776 5                        @ ../../../components/network/thread/subg_openthread/third_party/mbedtls/repo/library/ssl_tls.c:1776:5
	bl	mbedtls_platform_zeroize
.Ltmp197:
	.loc	1 0 5                           @ ../../../components/network/thread/subg_openthread/third_party/mbedtls/repo/library/ssl_tls.c:0:5
	movs	r5, #0
.Ltmp198:
	b	.LBB4_8
.Ltmp199:
.LBB4_23:
	@DEBUG_VALUE: ssl_populate_transform:ssl <- $r11
	@DEBUG_VALUE: mbedtls_ssl_derive_keys:ssl <- $r11
	@DEBUG_VALUE: ssl_populate_transform:master <- $r10
	@DEBUG_VALUE: ssl_populate_transform:ret <- $r8
	@DEBUG_VALUE: ssl_populate_transform:transform <- $r7
	@DEBUG_VALUE: ssl_populate_transform:ciphersuite_info <- $r5
	@DEBUG_VALUE: ssl_populate_transform:cipher_info <- $r0
	@DEBUG_VALUE: ssl_populate_transform:randbytes <- [DW_OP_plus_uconst 20] [$sp+0]
	@DEBUG_VALUE: ssl_populate_transform:tls_prf <- [DW_OP_plus_uconst 32] [$sp+0]
	@DEBUG_VALUE: ssl_populate_transform:mac_key_len <- 0
	mov	r8, r9
	b	.LBB4_6
.Ltmp200:
	.p2align	2
@ %bb.24:
.LCPI4_0:
.L.str.10:
	.asciz	"master secret\000\000"
.LCPI4_1:
.L.str.11:
	.asciz	"key expansion\000\000"
.Lfunc_end4:
	.size	mbedtls_ssl_derive_keys, .Lfunc_end4-mbedtls_ssl_derive_keys
	.cfi_endproc
	.file	13 "C:\\Users\\testo\\Desktop\\rafael-iot-sdk-das -0515\\examples\\das_subg_thread\\keil" "../../../components/network/thread/subg_openthread/third_party/mbedtls/repo/include\\mbedtls/ssl_internal.h"
	.file	14 "C:\\Users\\testo\\Desktop\\rafael-iot-sdk-das -0515\\examples\\das_subg_thread\\keil" "../../../components/network/thread/subg_openthread/third_party/mbedtls/repo/include\\mbedtls/bignum.h"
	.file	15 "C:\\Users\\testo\\Desktop\\rafael-iot-sdk-das -0515\\examples\\das_subg_thread\\keil" "../../../components/network/thread/subg_openthread/third_party/mbedtls/repo/include\\mbedtls/sha256.h"
	.cantunwind
	.fnend
                                        @ -- End function
	.section	.text.mbedtls_ssl_write_certificate,"ax",%progbits
	.hidden	mbedtls_ssl_write_certificate   @ -- Begin function mbedtls_ssl_write_certificate
	.globl	mbedtls_ssl_write_certificate
	.p2align	1
	.type	mbedtls_ssl_write_certificate,%function
	.code	16                              @ @mbedtls_ssl_write_certificate
	.thumb_func
mbedtls_ssl_write_certificate:
.Lfunc_begin5:
	.loc	1 2170 0 is_stmt 1              @ ../../../components/network/thread/subg_openthread/third_party/mbedtls/repo/library/ssl_tls.c:2170:0
	.fnstart
	.cfi_startproc
@ %bb.0:
	@DEBUG_VALUE: mbedtls_ssl_write_certificate:ssl <- $r0
	mov	r1, r0
.Ltmp201:
	@DEBUG_VALUE: mbedtls_ssl_write_certificate:ssl <- $r1
	.loc	1 2172 14 prologue_end          @ ../../../components/network/thread/subg_openthread/third_party/mbedtls/repo/library/ssl_tls.c:2172:14
	ldr	r0, [r0, #48]
	.loc	1 2172 25 is_stmt 0             @ ../../../components/network/thread/subg_openthread/third_party/mbedtls/repo/library/ssl_tls.c:2172:25
	ldr	r0, [r0, #12]
.Ltmp202:
	@DEBUG_VALUE: mbedtls_ssl_ciphersuite_uses_srv_cert:info <- $r0
	@DEBUG_VALUE: mbedtls_ssl_write_certificate:ciphersuite_info <- $r0
	.loc	6 489 19 is_stmt 1              @ ../../../components/network/thread/subg_openthread/third_party/mbedtls/repo/include\mbedtls/ssl_ciphersuites.h:489:19
	ldr	r0, [r0, #16]
.Ltmp203:
	.loc	6 489 5 is_stmt 0               @ ../../../components/network/thread/subg_openthread/third_party/mbedtls/repo/include\mbedtls/ssl_ciphersuites.h:489:5
	subs	r0, #1
	cmp	r0, #10
	bhs	.LBB5_2
.Ltmp204:
@ %bb.1:
	@DEBUG_VALUE: mbedtls_ssl_write_certificate:ssl <- $r1
	uxth	r0, r0
	movw	r2, #847
	lsr.w	r0, r2, r0
	lsls	r0, r0, #31
	ittt	ne
	movwne	r0, #37888
	movtne	r0, #65535
	bxne	lr
.Ltmp205:
.LBB5_2:
	@DEBUG_VALUE: mbedtls_ssl_write_certificate:ssl <- $r1
	.loc	1 2179 19 is_stmt 1             @ ../../../components/network/thread/subg_openthread/third_party/mbedtls/repo/library/ssl_tls.c:2179:19
	ldr	r0, [r1, #4]
	adds	r2, r0, #1
.Ltmp206:
	.loc	1 2185 1                        @ ../../../components/network/thread/subg_openthread/third_party/mbedtls/repo/library/ssl_tls.c:2185:1
	movs	r0, #0
.Ltmp207:
	.loc	1 2179 19                       @ ../../../components/network/thread/subg_openthread/third_party/mbedtls/repo/library/ssl_tls.c:2179:19
	str	r2, [r1, #4]
.Ltmp208:
	.loc	1 2185 1                        @ ../../../components/network/thread/subg_openthread/third_party/mbedtls/repo/library/ssl_tls.c:2185:1
	bx	lr
.Ltmp209:
.Lfunc_end5:
	.size	mbedtls_ssl_write_certificate, .Lfunc_end5-mbedtls_ssl_write_certificate
	.cfi_endproc
	.cantunwind
	.fnend
                                        @ -- End function
	.section	.text.mbedtls_ssl_parse_certificate,"ax",%progbits
	.hidden	mbedtls_ssl_parse_certificate   @ -- Begin function mbedtls_ssl_parse_certificate
	.globl	mbedtls_ssl_parse_certificate
	.p2align	1
	.type	mbedtls_ssl_parse_certificate,%function
	.code	16                              @ @mbedtls_ssl_parse_certificate
	.thumb_func
mbedtls_ssl_parse_certificate:
.Lfunc_begin6:
	.loc	1 2188 0                        @ ../../../components/network/thread/subg_openthread/third_party/mbedtls/repo/library/ssl_tls.c:2188:0
	.fnstart
	.cfi_startproc
@ %bb.0:
	@DEBUG_VALUE: mbedtls_ssl_parse_certificate:ssl <- $r0
	mov	r1, r0
.Ltmp210:
	@DEBUG_VALUE: mbedtls_ssl_parse_certificate:ssl <- $r1
	.loc	1 2190 14 prologue_end          @ ../../../components/network/thread/subg_openthread/third_party/mbedtls/repo/library/ssl_tls.c:2190:14
	ldr	r0, [r0, #48]
	.loc	1 2190 25 is_stmt 0             @ ../../../components/network/thread/subg_openthread/third_party/mbedtls/repo/library/ssl_tls.c:2190:25
	ldr	r0, [r0, #12]
.Ltmp211:
	@DEBUG_VALUE: mbedtls_ssl_ciphersuite_uses_srv_cert:info <- $r0
	@DEBUG_VALUE: mbedtls_ssl_parse_certificate:ciphersuite_info <- $r0
	.loc	6 489 19 is_stmt 1              @ ../../../components/network/thread/subg_openthread/third_party/mbedtls/repo/include\mbedtls/ssl_ciphersuites.h:489:19
	ldr	r0, [r0, #16]
.Ltmp212:
	.loc	6 489 5 is_stmt 0               @ ../../../components/network/thread/subg_openthread/third_party/mbedtls/repo/include\mbedtls/ssl_ciphersuites.h:489:5
	subs	r0, #1
	cmp	r0, #10
	bhs	.LBB6_2
.Ltmp213:
@ %bb.1:
	@DEBUG_VALUE: mbedtls_ssl_parse_certificate:ssl <- $r1
	uxth	r0, r0
	movw	r2, #847
	lsr.w	r0, r2, r0
	lsls	r0, r0, #31
	ittt	ne
	movwne	r0, #37888
	movtne	r0, #65535
	bxne	lr
.Ltmp214:
.LBB6_2:
	@DEBUG_VALUE: mbedtls_ssl_parse_certificate:ssl <- $r1
	.loc	1 2197 19 is_stmt 1             @ ../../../components/network/thread/subg_openthread/third_party/mbedtls/repo/library/ssl_tls.c:2197:19
	ldr	r0, [r1, #4]
	adds	r2, r0, #1
.Ltmp215:
	.loc	1 2203 1                        @ ../../../components/network/thread/subg_openthread/third_party/mbedtls/repo/library/ssl_tls.c:2203:1
	movs	r0, #0
.Ltmp216:
	.loc	1 2197 19                       @ ../../../components/network/thread/subg_openthread/third_party/mbedtls/repo/library/ssl_tls.c:2197:19
	str	r2, [r1, #4]
.Ltmp217:
	.loc	1 2203 1                        @ ../../../components/network/thread/subg_openthread/third_party/mbedtls/repo/library/ssl_tls.c:2203:1
	bx	lr
.Ltmp218:
.Lfunc_end6:
	.size	mbedtls_ssl_parse_certificate, .Lfunc_end6-mbedtls_ssl_parse_certificate
	.cfi_endproc
	.cantunwind
	.fnend
                                        @ -- End function
	.section	.text.mbedtls_ssl_optimize_checksum,"ax",%progbits
	.hidden	mbedtls_ssl_optimize_checksum   @ -- Begin function mbedtls_ssl_optimize_checksum
	.globl	mbedtls_ssl_optimize_checksum
	.p2align	1
	.type	mbedtls_ssl_optimize_checksum,%function
	.code	16                              @ @mbedtls_ssl_optimize_checksum
	.thumb_func
mbedtls_ssl_optimize_checksum:
.Lfunc_begin7:
	.loc	1 2993 0                        @ ../../../components/network/thread/subg_openthread/third_party/mbedtls/repo/library/ssl_tls.c:2993:0
	.fnstart
	.cfi_startproc
@ %bb.0:
	@DEBUG_VALUE: mbedtls_ssl_optimize_checksum:ssl <- $r0
	@DEBUG_VALUE: mbedtls_ssl_optimize_checksum:ciphersuite_info <- $r1
	@DEBUG_VALUE: mbedtls_ssl_optimize_checksum:ciphersuite_info <- $r1
	.loc	1 3009 27 prologue_end          @ ../../../components/network/thread/subg_openthread/third_party/mbedtls/repo/library/ssl_tls.c:3009:27
	ldr	r1, [r1, #12]
.Ltmp219:
	@DEBUG_VALUE: mbedtls_ssl_optimize_checksum:ciphersuite_info <- [DW_OP_LLVM_entry_value 1] $r1
	.loc	1 3009 9 is_stmt 0              @ ../../../components/network/thread/subg_openthread/third_party/mbedtls/repo/library/ssl_tls.c:3009:9
	cmp	r1, #7
	@DEBUG_VALUE: mbedtls_ssl_optimize_checksum:ssl <- $r0
	.loc	1 3018 1 is_stmt 1              @ ../../../components/network/thread/subg_openthread/third_party/mbedtls/repo/library/ssl_tls.c:3018:1
	it	eq
	bxeq	lr
.Ltmp220:
.LBB7_1:
	@DEBUG_VALUE: mbedtls_ssl_optimize_checksum:ssl <- $r0
	@DEBUG_VALUE: mbedtls_ssl_optimize_checksum:ciphersuite_info <- [DW_OP_LLVM_entry_value 1] $r1
	.loc	1 3010 14                       @ ../../../components/network/thread/subg_openthread/third_party/mbedtls/repo/library/ssl_tls.c:3010:14
	ldr	r0, [r0, #48]
.Ltmp221:
	@DEBUG_VALUE: mbedtls_ssl_optimize_checksum:ssl <- [DW_OP_LLVM_entry_value 1] $r0
	.loc	1 3010 41 is_stmt 0             @ ../../../components/network/thread/subg_openthread/third_party/mbedtls/repo/library/ssl_tls.c:3010:41
	movw	r1, :lower16:ssl_update_checksum_sha256
	movt	r1, :upper16:ssl_update_checksum_sha256
	str	r1, [r0, #16]
.Ltmp222:
	.loc	1 3018 1 is_stmt 1              @ ../../../components/network/thread/subg_openthread/third_party/mbedtls/repo/library/ssl_tls.c:3018:1
	bx	lr
.Ltmp223:
.Lfunc_end7:
	.size	mbedtls_ssl_optimize_checksum, .Lfunc_end7-mbedtls_ssl_optimize_checksum
	.cfi_endproc
	.cantunwind
	.fnend
                                        @ -- End function
	.section	.text.ssl_update_checksum_sha256,"ax",%progbits
	.p2align	1                               @ -- Begin function ssl_update_checksum_sha256
	.type	ssl_update_checksum_sha256,%function
	.code	16                              @ @ssl_update_checksum_sha256
	.thumb_func
ssl_update_checksum_sha256:
.Lfunc_begin8:
	.loc	1 3087 0                        @ ../../../components/network/thread/subg_openthread/third_party/mbedtls/repo/library/ssl_tls.c:3087:0
	.fnstart
	.cfi_startproc
@ %bb.0:
	@DEBUG_VALUE: ssl_update_checksum_sha256:ssl <- $r0
	@DEBUG_VALUE: ssl_update_checksum_sha256:ssl <- $r0
	@DEBUG_VALUE: ssl_update_checksum_sha256:buf <- $r1
	@DEBUG_VALUE: ssl_update_checksum_sha256:len <- $r2
	@DEBUG_VALUE: ssl_update_checksum_sha256:len <- $r2
	.loc	1 3091 38 prologue_end          @ ../../../components/network/thread/subg_openthread/third_party/mbedtls/repo/library/ssl_tls.c:3091:38
	ldr	r0, [r0, #48]
.Ltmp224:
	@DEBUG_VALUE: ssl_update_checksum_sha256:ssl <- [DW_OP_LLVM_entry_value 1] $r0
	@DEBUG_VALUE: ssl_update_checksum_sha256:buf <- $r1
	.loc	1 3091 49 is_stmt 0             @ ../../../components/network/thread/subg_openthread/third_party/mbedtls/repo/library/ssl_tls.c:3091:49
	add.w	r0, r0, #748
	@DEBUG_VALUE: ssl_update_checksum_sha256:len <- $r2
	@DEBUG_VALUE: ssl_update_checksum_sha256:buf <- $r1
.Ltmp225:
	.loc	1 3091 5                        @ ../../../components/network/thread/subg_openthread/third_party/mbedtls/repo/library/ssl_tls.c:3091:5
	b	mbedtls_sha256_update_ret
.Ltmp226:
.Lfunc_end8:
	.size	ssl_update_checksum_sha256, .Lfunc_end8-ssl_update_checksum_sha256
	.cfi_endproc
	.cantunwind
	.fnend
                                        @ -- End function
	.section	.text.mbedtls_ssl_reset_checksum,"ax",%progbits
	.hidden	mbedtls_ssl_reset_checksum      @ -- Begin function mbedtls_ssl_reset_checksum
	.globl	mbedtls_ssl_reset_checksum
	.p2align	1
	.type	mbedtls_ssl_reset_checksum,%function
	.code	16                              @ @mbedtls_ssl_reset_checksum
	.thumb_func
mbedtls_ssl_reset_checksum:
.Lfunc_begin9:
	.loc	1 3021 0 is_stmt 1              @ ../../../components/network/thread/subg_openthread/third_party/mbedtls/repo/library/ssl_tls.c:3021:0
	.fnstart
	.cfi_startproc
@ %bb.0:
	@DEBUG_VALUE: mbedtls_ssl_reset_checksum:ssl <- $r0
	@DEBUG_VALUE: mbedtls_ssl_reset_checksum:ssl <- $r0
	.loc	1 3033 38 prologue_end          @ ../../../components/network/thread/subg_openthread/third_party/mbedtls/repo/library/ssl_tls.c:3033:38
	ldr	r0, [r0, #48]
.Ltmp227:
	@DEBUG_VALUE: mbedtls_ssl_reset_checksum:ssl <- [DW_OP_LLVM_entry_value 1] $r0
	.loc	1 3033 5 is_stmt 0              @ ../../../components/network/thread/subg_openthread/third_party/mbedtls/repo/library/ssl_tls.c:3033:5
	movs	r1, #0
	.loc	1 3033 49                       @ ../../../components/network/thread/subg_openthread/third_party/mbedtls/repo/library/ssl_tls.c:3033:49
	add.w	r0, r0, #748
.Ltmp228:
	.loc	1 3033 5                        @ ../../../components/network/thread/subg_openthread/third_party/mbedtls/repo/library/ssl_tls.c:3033:5
	b	mbedtls_sha256_starts_ret
.Ltmp229:
.Lfunc_end9:
	.size	mbedtls_ssl_reset_checksum, .Lfunc_end9-mbedtls_ssl_reset_checksum
	.cfi_endproc
	.cantunwind
	.fnend
                                        @ -- End function
	.section	.text.mbedtls_ssl_handshake_wrapup_free_hs_transform,"ax",%progbits
	.hidden	mbedtls_ssl_handshake_wrapup_free_hs_transform @ -- Begin function mbedtls_ssl_handshake_wrapup_free_hs_transform
	.globl	mbedtls_ssl_handshake_wrapup_free_hs_transform
	.p2align	1
	.type	mbedtls_ssl_handshake_wrapup_free_hs_transform,%function
	.code	16                              @ @mbedtls_ssl_handshake_wrapup_free_hs_transform
	.thumb_func
mbedtls_ssl_handshake_wrapup_free_hs_transform:
.Lfunc_begin10:
	.loc	1 3420 0 is_stmt 1              @ ../../../components/network/thread/subg_openthread/third_party/mbedtls/repo/library/ssl_tls.c:3420:0
	.fnstart
	.cfi_startproc
@ %bb.0:
	@DEBUG_VALUE: mbedtls_ssl_handshake_wrapup_free_hs_transform:ssl <- $r0
	.save	{r4, r5, r7, lr}
	push	{r4, r5, r7, lr}
	.cfi_def_cfa_offset 16
	.cfi_offset lr, -4
	.cfi_offset r7, -8
	.cfi_offset r5, -12
	.cfi_offset r4, -16
	mov	r4, r0
.Ltmp230:
	@DEBUG_VALUE: mbedtls_ssl_handshake_wrapup_free_hs_transform:ssl <- $r4
	.loc	1 3426 5 prologue_end           @ ../../../components/network/thread/subg_openthread/third_party/mbedtls/repo/library/ssl_tls.c:3426:5
	bl	mbedtls_ssl_handshake_free
.Ltmp231:
	.loc	1 3427 24                       @ ../../../components/network/thread/subg_openthread/third_party/mbedtls/repo/library/ssl_tls.c:3427:24
	ldr	r0, [r4, #48]
	.loc	1 3427 5 is_stmt 0              @ ../../../components/network/thread/subg_openthread/third_party/mbedtls/repo/library/ssl_tls.c:3427:5
	bl	mbedtls_free
.Ltmp232:
	.loc	1 3433 14 is_stmt 1             @ ../../../components/network/thread/subg_openthread/third_party/mbedtls/repo/library/ssl_tls.c:3433:14
	ldr	r0, [r4, #60]
	movs	r5, #0
.Ltmp233:
	.loc	1 3428 20                       @ ../../../components/network/thread/subg_openthread/third_party/mbedtls/repo/library/ssl_tls.c:3428:20
	str	r5, [r4, #48]
	.loc	1 3433 9                        @ ../../../components/network/thread/subg_openthread/third_party/mbedtls/repo/library/ssl_tls.c:3433:9
	cbz	r0, .LBB10_2
.Ltmp234:
@ %bb.1:
	@DEBUG_VALUE: mbedtls_ssl_handshake_wrapup_free_hs_transform:ssl <- $r4
	.loc	1 3435 9                        @ ../../../components/network/thread/subg_openthread/third_party/mbedtls/repo/library/ssl_tls.c:3435:9
	bl	mbedtls_ssl_transform_free
.Ltmp235:
	.loc	1 3436 28                       @ ../../../components/network/thread/subg_openthread/third_party/mbedtls/repo/library/ssl_tls.c:3436:28
	ldr	r0, [r4, #60]
	.loc	1 3436 9 is_stmt 0              @ ../../../components/network/thread/subg_openthread/third_party/mbedtls/repo/library/ssl_tls.c:3436:9
	bl	mbedtls_free
.Ltmp236:
.LBB10_2:
	@DEBUG_VALUE: mbedtls_ssl_handshake_wrapup_free_hs_transform:ssl <- $r4
	.loc	1 3438 27 is_stmt 1             @ ../../../components/network/thread/subg_openthread/third_party/mbedtls/repo/library/ssl_tls.c:3438:27
	ldr	r0, [r4, #64]
	.loc	1 3438 20 is_stmt 0             @ ../../../components/network/thread/subg_openthread/third_party/mbedtls/repo/library/ssl_tls.c:3438:20
	strd	r0, r5, [r4, #60]
	.loc	1 3442 1 is_stmt 1              @ ../../../components/network/thread/subg_openthread/third_party/mbedtls/repo/library/ssl_tls.c:3442:1
	pop	{r4, r5, r7, pc}
.Ltmp237:
.Lfunc_end10:
	.size	mbedtls_ssl_handshake_wrapup_free_hs_transform, .Lfunc_end10-mbedtls_ssl_handshake_wrapup_free_hs_transform
	.cfi_endproc
	.cantunwind
	.fnend
                                        @ -- End function
	.section	.text.mbedtls_ssl_handshake_free,"ax",%progbits
	.hidden	mbedtls_ssl_handshake_free      @ -- Begin function mbedtls_ssl_handshake_free
	.globl	mbedtls_ssl_handshake_free
	.p2align	1
	.type	mbedtls_ssl_handshake_free,%function
	.code	16                              @ @mbedtls_ssl_handshake_free
	.thumb_func
mbedtls_ssl_handshake_free:
.Lfunc_begin11:
	.loc	1 6029 0                        @ ../../../components/network/thread/subg_openthread/third_party/mbedtls/repo/library/ssl_tls.c:6029:0
	.fnstart
	.cfi_startproc
@ %bb.0:
	@DEBUG_VALUE: mbedtls_ssl_handshake_free:ssl <- $r0
	@DEBUG_VALUE: mbedtls_ssl_handshake_free:ssl <- $r0
	.save	{r4, r5, r7, lr}
	push	{r4, r5, r7, lr}
	.cfi_def_cfa_offset 16
	.cfi_offset lr, -4
	.cfi_offset r7, -8
	.cfi_offset r5, -12
	.cfi_offset r4, -16
.Ltmp238:
	.loc	1 6030 52 prologue_end          @ ../../../components/network/thread/subg_openthread/third_party/mbedtls/repo/library/ssl_tls.c:6030:52
	ldr	r4, [r0, #48]
.Ltmp239:
	@DEBUG_VALUE: mbedtls_ssl_handshake_free:handshake <- $r4
	.loc	1 6032 9                        @ ../../../components/network/thread/subg_openthread/third_party/mbedtls/repo/library/ssl_tls.c:6032:9
	cbz	r4, .LBB11_2
.Ltmp240:
@ %bb.1:
	@DEBUG_VALUE: mbedtls_ssl_handshake_free:handshake <- $r4
	@DEBUG_VALUE: mbedtls_ssl_handshake_free:ssl <- $r0
	.loc	1 0 9 is_stmt 0                 @ ../../../components/network/thread/subg_openthread/third_party/mbedtls/repo/library/ssl_tls.c:0:9
	mov	r5, r0
.Ltmp241:
	@DEBUG_VALUE: mbedtls_ssl_handshake_free:ssl <- $r5
	@DEBUG_VALUE: mbedtls_ssl_handshake_free:ssl <- $r5
	.loc	1 6053 40 is_stmt 1             @ ../../../components/network/thread/subg_openthread/third_party/mbedtls/repo/library/ssl_tls.c:6053:40
	add.w	r0, r4, #748
	.loc	1 6053 5 is_stmt 0              @ ../../../components/network/thread/subg_openthread/third_party/mbedtls/repo/library/ssl_tls.c:6053:5
	bl	mbedtls_sha256_free
.Ltmp242:
	.loc	1 6069 36 is_stmt 1             @ ../../../components/network/thread/subg_openthread/third_party/mbedtls/repo/library/ssl_tls.c:6069:36
	add.w	r0, r4, #32
	.loc	1 6069 5 is_stmt 0              @ ../../../components/network/thread/subg_openthread/third_party/mbedtls/repo/library/ssl_tls.c:6069:5
	bl	mbedtls_ecdh_free
.Ltmp243:
	.loc	1 6072 39 is_stmt 1             @ ../../../components/network/thread/subg_openthread/third_party/mbedtls/repo/library/ssl_tls.c:6072:39
	add.w	r0, r4, #264
	.loc	1 6072 5 is_stmt 0              @ ../../../components/network/thread/subg_openthread/third_party/mbedtls/repo/library/ssl_tls.c:6072:5
	bl	mbedtls_ecjpake_free
.Ltmp244:
	.loc	1 6074 30 is_stmt 1             @ ../../../components/network/thread/subg_openthread/third_party/mbedtls/repo/library/ssl_tls.c:6074:30
	ldr.w	r0, [r4, #616]
	.loc	1 6074 5 is_stmt 0              @ ../../../components/network/thread/subg_openthread/third_party/mbedtls/repo/library/ssl_tls.c:6074:5
	bl	mbedtls_free
.Ltmp245:
	.loc	1 6083 39 is_stmt 1             @ ../../../components/network/thread/subg_openthread/third_party/mbedtls/repo/library/ssl_tls.c:6083:39
	ldr.w	r0, [r4, #624]
	movs	r1, #0
	.loc	1 6075 30                       @ ../../../components/network/thread/subg_openthread/third_party/mbedtls/repo/library/ssl_tls.c:6075:30
	str.w	r1, [r4, #616]
	.loc	1 6076 34                       @ ../../../components/network/thread/subg_openthread/third_party/mbedtls/repo/library/ssl_tls.c:6076:34
	str.w	r1, [r4, #620]
	.loc	1 6083 5                        @ ../../../components/network/thread/subg_openthread/third_party/mbedtls/repo/library/ssl_tls.c:6083:5
	bl	mbedtls_free
.Ltmp246:
	.loc	1 6128 30                       @ ../../../components/network/thread/subg_openthread/third_party/mbedtls/repo/library/ssl_tls.c:6128:30
	ldr.w	r0, [r4, #704]
	.loc	1 6128 5 is_stmt 0              @ ../../../components/network/thread/subg_openthread/third_party/mbedtls/repo/library/ssl_tls.c:6128:5
	bl	mbedtls_free
.Ltmp247:
	.loc	1 6129 41 is_stmt 1             @ ../../../components/network/thread/subg_openthread/third_party/mbedtls/repo/library/ssl_tls.c:6129:41
	ldr.w	r0, [r4, #716]
	.loc	1 6129 5 is_stmt 0              @ ../../../components/network/thread/subg_openthread/third_party/mbedtls/repo/library/ssl_tls.c:6129:5
	bl	mbedtls_ssl_flight_free
.Ltmp248:
	.loc	1 6130 5 is_stmt 1              @ ../../../components/network/thread/subg_openthread/third_party/mbedtls/repo/library/ssl_tls.c:6130:5
	mov	r0, r5
	bl	mbedtls_ssl_buffering_free
.Ltmp249:
	.loc	1 6138 5                        @ ../../../components/network/thread/subg_openthread/third_party/mbedtls/repo/library/ssl_tls.c:6138:5
	mov	r0, r4
	mov.w	r1, #952
	pop.w	{r4, r5, r7, lr}
.Ltmp250:
	@DEBUG_VALUE: mbedtls_ssl_handshake_free:ssl <- [DW_OP_LLVM_entry_value 1] $r0
	b	mbedtls_platform_zeroize
.Ltmp251:
.LBB11_2:
	@DEBUG_VALUE: mbedtls_ssl_handshake_free:handshake <- $r4
	@DEBUG_VALUE: mbedtls_ssl_handshake_free:ssl <- $r0
	.loc	1 6149 1                        @ ../../../components/network/thread/subg_openthread/third_party/mbedtls/repo/library/ssl_tls.c:6149:1
	pop	{r4, r5, r7, pc}
.Ltmp252:
.Lfunc_end11:
	.size	mbedtls_ssl_handshake_free, .Lfunc_end11-mbedtls_ssl_handshake_free
	.cfi_endproc
	.cantunwind
	.fnend
                                        @ -- End function
	.section	.text.mbedtls_ssl_handshake_wrapup,"ax",%progbits
	.hidden	mbedtls_ssl_handshake_wrapup    @ -- Begin function mbedtls_ssl_handshake_wrapup
	.globl	mbedtls_ssl_handshake_wrapup
	.p2align	1
	.type	mbedtls_ssl_handshake_wrapup,%function
	.code	16                              @ @mbedtls_ssl_handshake_wrapup
	.thumb_func
mbedtls_ssl_handshake_wrapup:
.Lfunc_begin12:
	.loc	1 3445 0                        @ ../../../components/network/thread/subg_openthread/third_party/mbedtls/repo/library/ssl_tls.c:3445:0
	.fnstart
	.cfi_startproc
@ %bb.0:
	@DEBUG_VALUE: mbedtls_ssl_handshake_wrapup:ssl <- $r0
	.save	{r4, r5, r7, lr}
	push	{r4, r5, r7, lr}
	.cfi_def_cfa_offset 16
	.cfi_offset lr, -4
	.cfi_offset r7, -8
	.cfi_offset r5, -12
	.cfi_offset r4, -16
.Ltmp253:
	.loc	1 3446 23 prologue_end          @ ../../../components/network/thread/subg_openthread/third_party/mbedtls/repo/library/ssl_tls.c:3446:23
	ldr	r1, [r0, #48]
	mov	r4, r0
.Ltmp254:
	@DEBUG_VALUE: mbedtls_ssl_handshake_wrapup:resume <- [DW_OP_LLVM_convert 8 7, DW_OP_LLVM_convert 32 7, DW_OP_stack_value] undef
	@DEBUG_VALUE: mbedtls_ssl_handshake_wrapup:ssl <- $r4
	.loc	1 3461 14                       @ ../../../components/network/thread/subg_openthread/third_party/mbedtls/repo/library/ssl_tls.c:3461:14
	ldr	r0, [r0, #40]
.Ltmp255:
	.loc	1 3446 34                       @ ../../../components/network/thread/subg_openthread/third_party/mbedtls/repo/library/ssl_tls.c:3446:34
	ldrb	r5, [r1, #2]
	.loc	1 3461 9                        @ ../../../components/network/thread/subg_openthread/third_party/mbedtls/repo/library/ssl_tls.c:3461:9
	cbz	r0, .LBB12_2
.Ltmp256:
@ %bb.1:
	@DEBUG_VALUE: mbedtls_ssl_handshake_wrapup:ssl <- $r4
	@DEBUG_VALUE: mbedtls_ssl_session_free:session <- $r0
	.loc	1 6164 5                        @ ../../../components/network/thread/subg_openthread/third_party/mbedtls/repo/library/ssl_tls.c:6164:5
	movs	r1, #100
	bl	mbedtls_platform_zeroize
.Ltmp257:
	.loc	1 3470 28                       @ ../../../components/network/thread/subg_openthread/third_party/mbedtls/repo/library/ssl_tls.c:3470:28
	ldr	r0, [r4, #40]
	.loc	1 3470 9 is_stmt 0              @ ../../../components/network/thread/subg_openthread/third_party/mbedtls/repo/library/ssl_tls.c:3470:9
	bl	mbedtls_free
.Ltmp258:
.LBB12_2:
	@DEBUG_VALUE: mbedtls_ssl_handshake_wrapup:ssl <- $r4
	.loc	1 3478 14 is_stmt 1             @ ../../../components/network/thread/subg_openthread/third_party/mbedtls/repo/library/ssl_tls.c:3478:14
	ldr	r0, [r4]
.Ltmp259:
	.loc	1 3472 25                       @ ../../../components/network/thread/subg_openthread/third_party/mbedtls/repo/library/ssl_tls.c:3472:25
	ldr	r1, [r4, #44]
.Ltmp260:
	.loc	1 3478 20                       @ ../../../components/network/thread/subg_openthread/third_party/mbedtls/repo/library/ssl_tls.c:3478:20
	ldr	r2, [r0, #60]
	movs	r3, #0
.Ltmp261:
	.loc	1 3472 18                       @ ../../../components/network/thread/subg_openthread/third_party/mbedtls/repo/library/ssl_tls.c:3472:18
	strd	r1, r3, [r4, #40]
.Ltmp262:
	.loc	1 3478 40                       @ ../../../components/network/thread/subg_openthread/third_party/mbedtls/repo/library/ssl_tls.c:3478:40
	cbz	r2, .LBB12_6
.Ltmp263:
@ %bb.3:
	@DEBUG_VALUE: mbedtls_ssl_handshake_wrapup:ssl <- $r4
	.loc	1 3479 35                       @ ../../../components/network/thread/subg_openthread/third_party/mbedtls/repo/library/ssl_tls.c:3479:35
	cbnz	r5, .LBB12_6
.Ltmp264:
@ %bb.4:
	@DEBUG_VALUE: mbedtls_ssl_handshake_wrapup:ssl <- $r4
	.loc	1 0 0 is_stmt 0                 @ ../../../components/network/thread/subg_openthread/third_party/mbedtls/repo/library/ssl_tls.c:0:0
	ldr	r3, [r1, #12]
	.loc	1 3479 35                       @ ../../../components/network/thread/subg_openthread/third_party/mbedtls/repo/library/ssl_tls.c:3479:35
	cbz	r3, .LBB12_6
.Ltmp265:
@ %bb.5:
	@DEBUG_VALUE: mbedtls_ssl_handshake_wrapup:ssl <- $r4
	.loc	1 3482 48 is_stmt 1             @ ../../../components/network/thread/subg_openthread/third_party/mbedtls/repo/library/ssl_tls.c:3482:48
	ldr	r0, [r0, #64]
	.loc	1 3482 13 is_stmt 0             @ ../../../components/network/thread/subg_openthread/third_party/mbedtls/repo/library/ssl_tls.c:3482:13
	blx	r2
.Ltmp266:
	.loc	1 3487 14 is_stmt 1             @ ../../../components/network/thread/subg_openthread/third_party/mbedtls/repo/library/ssl_tls.c:3487:14
	ldr	r0, [r4]
.Ltmp267:
.LBB12_6:
	@DEBUG_VALUE: mbedtls_ssl_handshake_wrapup:ssl <- $r4
	.loc	1 3487 20 is_stmt 0             @ ../../../components/network/thread/subg_openthread/third_party/mbedtls/repo/library/ssl_tls.c:3487:20
	ldrb	r0, [r0, #5]
	.loc	1 3487 64                       @ ../../../components/network/thread/subg_openthread/third_party/mbedtls/repo/library/ssl_tls.c:3487:64
	cmp	r0, #1
	bne	.LBB12_9
.Ltmp268:
@ %bb.7:
	@DEBUG_VALUE: mbedtls_ssl_handshake_wrapup:ssl <- $r4
	.loc	1 3488 14 is_stmt 1             @ ../../../components/network/thread/subg_openthread/third_party/mbedtls/repo/library/ssl_tls.c:3488:14
	ldr	r0, [r4, #48]
	.loc	1 3488 25 is_stmt 0             @ ../../../components/network/thread/subg_openthread/third_party/mbedtls/repo/library/ssl_tls.c:3488:25
	ldr.w	r0, [r0, #716]
.Ltmp269:
	.loc	1 3487 9 is_stmt 1              @ ../../../components/network/thread/subg_openthread/third_party/mbedtls/repo/library/ssl_tls.c:3487:9
	cbz	r0, .LBB12_9
.Ltmp270:
@ %bb.8:
	@DEBUG_VALUE: mbedtls_ssl_handshake_wrapup:ssl <- $r4
	.loc	1 3491 9                        @ ../../../components/network/thread/subg_openthread/third_party/mbedtls/repo/library/ssl_tls.c:3491:9
	mov	r0, r4
	movs	r1, #0
	bl	mbedtls_ssl_set_timer
.Ltmp271:
	.loc	1 0 9 is_stmt 0                 @ ../../../components/network/thread/subg_openthread/third_party/mbedtls/repo/library/ssl_tls.c:0:9
	b	.LBB12_10
.Ltmp272:
.LBB12_9:
	@DEBUG_VALUE: mbedtls_ssl_handshake_wrapup:ssl <- $r4
	.loc	1 3499 9 is_stmt 1              @ ../../../components/network/thread/subg_openthread/third_party/mbedtls/repo/library/ssl_tls.c:3499:9
	mov	r0, r4
	bl	mbedtls_ssl_handshake_wrapup_free_hs_transform
.Ltmp273:
.LBB12_10:
	@DEBUG_VALUE: mbedtls_ssl_handshake_wrapup:ssl <- $r4
	.loc	1 3501 15                       @ ../../../components/network/thread/subg_openthread/third_party/mbedtls/repo/library/ssl_tls.c:3501:15
	ldr	r0, [r4, #4]
	adds	r0, #1
	str	r0, [r4, #4]
	.loc	1 3504 1                        @ ../../../components/network/thread/subg_openthread/third_party/mbedtls/repo/library/ssl_tls.c:3504:1
	pop	{r4, r5, r7, pc}
.Ltmp274:
.Lfunc_end12:
	.size	mbedtls_ssl_handshake_wrapup, .Lfunc_end12-mbedtls_ssl_handshake_wrapup
	.cfi_endproc
	.cantunwind
	.fnend
                                        @ -- End function
	.section	.text.mbedtls_ssl_write_finished,"ax",%progbits
	.hidden	mbedtls_ssl_write_finished      @ -- Begin function mbedtls_ssl_write_finished
	.globl	mbedtls_ssl_write_finished
	.p2align	1
	.type	mbedtls_ssl_write_finished,%function
	.code	16                              @ @mbedtls_ssl_write_finished
	.thumb_func
mbedtls_ssl_write_finished:
.Lfunc_begin13:
	.loc	1 3507 0                        @ ../../../components/network/thread/subg_openthread/third_party/mbedtls/repo/library/ssl_tls.c:3507:0
	.fnstart
	.cfi_startproc
@ %bb.0:
	@DEBUG_VALUE: mbedtls_ssl_write_finished:ssl <- $r0
	.save	{r4, r5, r7, lr}
	push	{r4, r5, r7, lr}
	.cfi_def_cfa_offset 16
	.cfi_offset lr, -4
	.cfi_offset r7, -8
	.cfi_offset r5, -12
	.cfi_offset r4, -16
.Ltmp275:
	.loc	1 3512 48 prologue_end          @ ../../../components/network/thread/subg_openthread/third_party/mbedtls/repo/library/ssl_tls.c:3512:48
	ldr	r1, [r0, #64]
	mov	r5, r0
.Ltmp276:
	@DEBUG_VALUE: mbedtls_ssl_write_finished:ssl <- $r5
	.loc	1 3512 5 is_stmt 0              @ ../../../components/network/thread/subg_openthread/third_party/mbedtls/repo/library/ssl_tls.c:3512:5
	bl	mbedtls_ssl_update_out_pointers
.Ltmp277:
	.loc	1 3514 64 is_stmt 1             @ ../../../components/network/thread/subg_openthread/third_party/mbedtls/repo/library/ssl_tls.c:3514:64
	ldr	r0, [r5]
	.loc	1 3514 10 is_stmt 0             @ ../../../components/network/thread/subg_openthread/third_party/mbedtls/repo/library/ssl_tls.c:3514:10
	ldr	r1, [r5, #48]
	.loc	1 3514 46                       @ ../../../components/network/thread/subg_openthread/third_party/mbedtls/repo/library/ssl_tls.c:3514:46
	ldr.w	r3, [r5, #180]
	.loc	1 3514 21                       @ ../../../components/network/thread/subg_openthread/third_party/mbedtls/repo/library/ssl_tls.c:3514:21
	ldr.w	r12, [r1, #24]
	.loc	1 3514 70                       @ ../../../components/network/thread/subg_openthread/third_party/mbedtls/repo/library/ssl_tls.c:3514:70
	ldrb	r2, [r0, #4]
	.loc	1 3514 54                       @ ../../../components/network/thread/subg_openthread/third_party/mbedtls/repo/library/ssl_tls.c:3514:54
	adds	r1, r3, #4
	.loc	1 3514 5                        @ ../../../components/network/thread/subg_openthread/third_party/mbedtls/repo/library/ssl_tls.c:3514:5
	mov	r0, r5
	blx	r12
.Ltmp278:
	.loc	1 3522 23 is_stmt 1             @ ../../../components/network/thread/subg_openthread/third_party/mbedtls/repo/library/ssl_tls.c:3522:23
	ldr	r0, [r5, #12]
	.loc	1 3531 10                       @ ../../../components/network/thread/subg_openthread/third_party/mbedtls/repo/library/ssl_tls.c:3531:10
	ldr.w	r1, [r5, #180]
	movs	r2, #16
.Ltmp279:
	@DEBUG_VALUE: mbedtls_ssl_write_finished:hash_len <- undef
	.loc	1 3529 26                       @ ../../../components/network/thread/subg_openthread/third_party/mbedtls/repo/library/ssl_tls.c:3529:26
	cmp	r0, #0
	mov.w	r0, #22
	it	eq
	moveq	r2, #40
	.loc	1 3530 22                       @ ../../../components/network/thread/subg_openthread/third_party/mbedtls/repo/library/ssl_tls.c:3530:22
	strd	r0, r2, [r5, #184]
	movs	r0, #20
	.loc	1 3531 22                       @ ../../../components/network/thread/subg_openthread/third_party/mbedtls/repo/library/ssl_tls.c:3531:22
	strb	r0, [r1]
.Ltmp280:
	.loc	1 3537 14                       @ ../../../components/network/thread/subg_openthread/third_party/mbedtls/repo/library/ssl_tls.c:3537:14
	ldr	r1, [r5, #48]
	.loc	1 3537 25 is_stmt 0             @ ../../../components/network/thread/subg_openthread/third_party/mbedtls/repo/library/ssl_tls.c:3537:25
	ldrb	r0, [r1, #2]
.Ltmp281:
	.loc	1 3537 9                        @ ../../../components/network/thread/subg_openthread/third_party/mbedtls/repo/library/ssl_tls.c:3537:9
	cbz	r0, .LBB13_3
.Ltmp282:
@ %bb.1:
	@DEBUG_VALUE: mbedtls_ssl_write_finished:ssl <- $r5
	.loc	1 3540 18 is_stmt 1             @ ../../../components/network/thread/subg_openthread/third_party/mbedtls/repo/library/ssl_tls.c:3540:18
	ldr	r0, [r5]
	.loc	1 3540 24 is_stmt 0             @ ../../../components/network/thread/subg_openthread/third_party/mbedtls/repo/library/ssl_tls.c:3540:24
	ldrb	r2, [r0, #4]
.Ltmp283:
	.loc	1 3540 13                       @ ../../../components/network/thread/subg_openthread/third_party/mbedtls/repo/library/ssl_tls.c:3540:13
	cbnz	r2, .LBB13_5
.Ltmp284:
@ %bb.2:
	@DEBUG_VALUE: mbedtls_ssl_write_finished:ssl <- $r5
	.loc	1 0 13                          @ ../../../components/network/thread/subg_openthread/third_party/mbedtls/repo/library/ssl_tls.c:0:13
	movs	r2, #15
	b	.LBB13_4
.Ltmp285:
.LBB13_3:
	@DEBUG_VALUE: mbedtls_ssl_write_finished:ssl <- $r5
	.loc	1 3558 14 is_stmt 1             @ ../../../components/network/thread/subg_openthread/third_party/mbedtls/repo/library/ssl_tls.c:3558:14
	ldrd	r0, r2, [r5]
.Ltmp286:
	.loc	1 3549 19                       @ ../../../components/network/thread/subg_openthread/third_party/mbedtls/repo/library/ssl_tls.c:3549:19
	adds	r2, #1
.Ltmp287:
.LBB13_4:
	@DEBUG_VALUE: mbedtls_ssl_write_finished:ssl <- $r5
	.loc	1 0 0 is_stmt 0                 @ ../../../components/network/thread/subg_openthread/third_party/mbedtls/repo/library/ssl_tls.c:0:0
	str	r2, [r5, #4]
.Ltmp288:
.LBB13_5:
	@DEBUG_VALUE: mbedtls_ssl_write_finished:ssl <- $r5
	.loc	1 3558 20 is_stmt 1             @ ../../../components/network/thread/subg_openthread/third_party/mbedtls/repo/library/ssl_tls.c:3558:20
	ldrb	r2, [r0, #5]
.Ltmp289:
	.loc	1 3558 9 is_stmt 0              @ ../../../components/network/thread/subg_openthread/third_party/mbedtls/repo/library/ssl_tls.c:3558:9
	cmp	r2, #1
	bne	.LBB13_10
.Ltmp290:
@ %bb.6:
	@DEBUG_VALUE: mbedtls_ssl_write_finished:ssl <- $r5
	.loc	1 3563 50 is_stmt 1             @ ../../../components/network/thread/subg_openthread/third_party/mbedtls/repo/library/ssl_tls.c:3563:50
	ldr	r0, [r5, #56]
	.loc	1 3563 43 is_stmt 0             @ ../../../components/network/thread/subg_openthread/third_party/mbedtls/repo/library/ssl_tls.c:3563:43
	str.w	r0, [r1, #732]
	.loc	1 3564 9 is_stmt 1              @ ../../../components/network/thread/subg_openthread/third_party/mbedtls/repo/library/ssl_tls.c:3564:9
	ldrd	r2, r0, [r5, #196]
	strd	r2, r0, [r1, #736]
	movs	r0, #0
	.loc	1 3567 9                        @ ../../../components/network/thread/subg_openthread/third_party/mbedtls/repo/library/ssl_tls.c:3567:9
	strh.w	r0, [r5, #202]
	str.w	r0, [r5, #198]
	movw	r0, #38016
	movs	r1, #2
.Ltmp291:
	@DEBUG_VALUE: i <- 2
	.loc	1 0 9 is_stmt 0                 @ ../../../components/network/thread/subg_openthread/third_party/mbedtls/repo/library/ssl_tls.c:0:9
	movt	r0, #65535
.Ltmp292:
	.p2align	2
.LBB13_7:                               @ =>This Inner Loop Header: Depth=1
	@DEBUG_VALUE: mbedtls_ssl_write_finished:ssl <- $r5
	@DEBUG_VALUE: i <- $r1
	.loc	1 3570 21 is_stmt 1             @ ../../../components/network/thread/subg_openthread/third_party/mbedtls/repo/library/ssl_tls.c:3570:21
	uxtb	r2, r1
.Ltmp293:
	.loc	1 3571 38                       @ ../../../components/network/thread/subg_openthread/third_party/mbedtls/repo/library/ssl_tls.c:3571:38
	add	r2, r5
	.loc	1 3571 17 is_stmt 0             @ ../../../components/network/thread/subg_openthread/third_party/mbedtls/repo/library/ssl_tls.c:3571:17
	ldrb.w	r3, [r2, #195]
	adds	r3, #1
	uxtb	r4, r3
.Ltmp294:
	.loc	1 3571 17                       @ ../../../components/network/thread/subg_openthread/third_party/mbedtls/repo/library/ssl_tls.c:3571:17
	cmp	r4, r3
.Ltmp295:
	.loc	1 3571 17                       @ ../../../components/network/thread/subg_openthread/third_party/mbedtls/repo/library/ssl_tls.c:3571:17
	strb.w	r3, [r2, #195]
.Ltmp296:
	@DEBUG_VALUE: i <- undef
	.loc	1 3571 17                       @ ../../../components/network/thread/subg_openthread/third_party/mbedtls/repo/library/ssl_tls.c:3571:17
	beq	.LBB13_11
.Ltmp297:
@ %bb.8:                                @   in Loop: Header=BB13_7 Depth=1
	@DEBUG_VALUE: mbedtls_ssl_write_finished:ssl <- $r5
	.loc	1 0 0                           @ ../../../components/network/thread/subg_openthread/third_party/mbedtls/repo/library/ssl_tls.c:0:0
	subs	r1, #1
.Ltmp298:
	@DEBUG_VALUE: i <- $r1
	.loc	1 3570 9 is_stmt 1              @ ../../../components/network/thread/subg_openthread/third_party/mbedtls/repo/library/ssl_tls.c:3570:9
	lsls	r2, r1, #24
	bne	.LBB13_7
.Ltmp299:
.LBB13_9:
	@DEBUG_VALUE: mbedtls_ssl_write_finished:ssl <- $r5
	.loc	1 3622 1                        @ ../../../components/network/thread/subg_openthread/third_party/mbedtls/repo/library/ssl_tls.c:3622:1
	pop	{r4, r5, r7, pc}
.Ltmp300:
.LBB13_10:
	@DEBUG_VALUE: mbedtls_ssl_write_finished:ssl <- $r5
	.loc	1 0 1 is_stmt 0                 @ ../../../components/network/thread/subg_openthread/third_party/mbedtls/repo/library/ssl_tls.c:0:1
	movs	r1, #0
.Ltmp301:
	.loc	1 3583 5 is_stmt 1              @ ../../../components/network/thread/subg_openthread/third_party/mbedtls/repo/library/ssl_tls.c:3583:5
	strd	r1, r1, [r5, #196]
	b	.LBB13_12
.Ltmp302:
.LBB13_11:
	@DEBUG_VALUE: mbedtls_ssl_write_finished:ssl <- $r5
	.loc	1 3600 14                       @ ../../../components/network/thread/subg_openthread/third_party/mbedtls/repo/library/ssl_tls.c:3600:14
	ldr	r0, [r5]
.Ltmp303:
.LBB13_12:
	@DEBUG_VALUE: mbedtls_ssl_write_finished:ssl <- $r5
	.loc	1 3600 20 is_stmt 0             @ ../../../components/network/thread/subg_openthread/third_party/mbedtls/repo/library/ssl_tls.c:3600:20
	ldrb	r0, [r0, #5]
.Ltmp304:
	.loc	1 3586 29 is_stmt 1             @ ../../../components/network/thread/subg_openthread/third_party/mbedtls/repo/library/ssl_tls.c:3586:29
	ldr	r1, [r5, #44]
	.loc	1 3585 31                       @ ../../../components/network/thread/subg_openthread/third_party/mbedtls/repo/library/ssl_tls.c:3585:31
	ldr	r2, [r5, #64]
	.loc	1 3600 9                        @ ../../../components/network/thread/subg_openthread/third_party/mbedtls/repo/library/ssl_tls.c:3600:9
	cmp	r0, #1
	.loc	1 3585 24                       @ ../../../components/network/thread/subg_openthread/third_party/mbedtls/repo/library/ssl_tls.c:3585:24
	str	r2, [r5, #56]
	.loc	1 3586 22                       @ ../../../components/network/thread/subg_openthread/third_party/mbedtls/repo/library/ssl_tls.c:3586:22
	str	r1, [r5, #36]
	.loc	1 3600 9                        @ ../../../components/network/thread/subg_openthread/third_party/mbedtls/repo/library/ssl_tls.c:3600:9
	bne	.LBB13_14
.Ltmp305:
@ %bb.13:
	@DEBUG_VALUE: mbedtls_ssl_write_finished:ssl <- $r5
	.loc	1 3601 9                        @ ../../../components/network/thread/subg_openthread/third_party/mbedtls/repo/library/ssl_tls.c:3601:9
	mov	r0, r5
	bl	mbedtls_ssl_send_flight_completed
.Ltmp306:
.LBB13_14:
	@DEBUG_VALUE: mbedtls_ssl_write_finished:ssl <- $r5
	.loc	1 3604 17                       @ ../../../components/network/thread/subg_openthread/third_party/mbedtls/repo/library/ssl_tls.c:3604:17
	mov	r0, r5
	bl	mbedtls_ssl_write_handshake_msg
.Ltmp307:
	@DEBUG_VALUE: mbedtls_ssl_write_finished:ret <- $r0
	.loc	1 3604 9 is_stmt 0              @ ../../../components/network/thread/subg_openthread/third_party/mbedtls/repo/library/ssl_tls.c:3604:9
	cmp	r0, #0
	bne	.LBB13_9
.Ltmp308:
@ %bb.15:
	@DEBUG_VALUE: mbedtls_ssl_write_finished:ssl <- $r5
	@DEBUG_VALUE: mbedtls_ssl_write_finished:ret <- $r0
	.loc	1 3611 14 is_stmt 1             @ ../../../components/network/thread/subg_openthread/third_party/mbedtls/repo/library/ssl_tls.c:3611:14
	ldr	r0, [r5]
.Ltmp309:
	.loc	1 3611 20 is_stmt 0             @ ../../../components/network/thread/subg_openthread/third_party/mbedtls/repo/library/ssl_tls.c:3611:20
	ldrb	r0, [r0, #5]
	.loc	1 3611 64                       @ ../../../components/network/thread/subg_openthread/third_party/mbedtls/repo/library/ssl_tls.c:3611:64
	cmp	r0, #1
	bne	.LBB13_17
.Ltmp310:
@ %bb.16:
	@DEBUG_VALUE: mbedtls_ssl_write_finished:ssl <- $r5
	.loc	1 3612 17 is_stmt 1             @ ../../../components/network/thread/subg_openthread/third_party/mbedtls/repo/library/ssl_tls.c:3612:17
	mov	r0, r5
	bl	mbedtls_ssl_flight_transmit
.Ltmp311:
	@DEBUG_VALUE: mbedtls_ssl_write_finished:ret <- $r0
	.loc	1 3611 9                        @ ../../../components/network/thread/subg_openthread/third_party/mbedtls/repo/library/ssl_tls.c:3611:9
	cmp	r0, #0
	it	eq
	moveq	r0, #0
.Ltmp312:
	.loc	1 3622 1                        @ ../../../components/network/thread/subg_openthread/third_party/mbedtls/repo/library/ssl_tls.c:3622:1
	pop	{r4, r5, r7, pc}
.Ltmp313:
.LBB13_17:
	@DEBUG_VALUE: mbedtls_ssl_write_finished:ssl <- $r5
	.loc	1 0 1 is_stmt 0                 @ ../../../components/network/thread/subg_openthread/third_party/mbedtls/repo/library/ssl_tls.c:0:1
	movs	r0, #0
	.loc	1 3622 1                        @ ../../../components/network/thread/subg_openthread/third_party/mbedtls/repo/library/ssl_tls.c:3622:1
	pop	{r4, r5, r7, pc}
.Ltmp314:
.Lfunc_end13:
	.size	mbedtls_ssl_write_finished, .Lfunc_end13-mbedtls_ssl_write_finished
	.cfi_endproc
	.cantunwind
	.fnend
                                        @ -- End function
	.section	.text.mbedtls_ssl_parse_finished,"ax",%progbits
	.hidden	mbedtls_ssl_parse_finished      @ -- Begin function mbedtls_ssl_parse_finished
	.globl	mbedtls_ssl_parse_finished
	.p2align	1
	.type	mbedtls_ssl_parse_finished,%function
	.code	16                              @ @mbedtls_ssl_parse_finished
	.thumb_func
mbedtls_ssl_parse_finished:
.Lfunc_begin14:
	.loc	1 3631 0 is_stmt 1              @ ../../../components/network/thread/subg_openthread/third_party/mbedtls/repo/library/ssl_tls.c:3631:0
	.fnstart
	.cfi_startproc
@ %bb.0:
	@DEBUG_VALUE: mbedtls_ssl_parse_finished:ssl <- $r0
	.save	{r4, r5, r7, lr}
	push	{r4, r5, r7, lr}
	.cfi_def_cfa_offset 16
	.cfi_offset lr, -4
	.cfi_offset r7, -8
	.cfi_offset r5, -12
	.cfi_offset r4, -16
	.pad	#16
	sub	sp, #16
	.cfi_def_cfa_offset 32
	mov	r4, r0
.Ltmp315:
	@DEBUG_VALUE: mbedtls_ssl_parse_finished:ret <- -110
	@DEBUG_VALUE: mbedtls_ssl_parse_finished:ssl <- $r4
	.loc	1 3646 51 prologue_end          @ ../../../components/network/thread/subg_openthread/third_party/mbedtls/repo/library/ssl_tls.c:3646:51
	ldr	r0, [r0]
.Ltmp316:
	@DEBUG_VALUE: mbedtls_ssl_parse_finished:hash_len <- 12
	.loc	1 3646 10 is_stmt 0             @ ../../../components/network/thread/subg_openthread/third_party/mbedtls/repo/library/ssl_tls.c:3646:10
	ldr	r1, [r4, #48]
	.loc	1 3646 57                       @ ../../../components/network/thread/subg_openthread/third_party/mbedtls/repo/library/ssl_tls.c:3646:57
	ldrb	r0, [r0, #4]
	.loc	1 3646 21                       @ ../../../components/network/thread/subg_openthread/third_party/mbedtls/repo/library/ssl_tls.c:3646:21
	ldr	r3, [r1, #24]
	.loc	1 3646 66                       @ ../../../components/network/thread/subg_openthread/third_party/mbedtls/repo/library/ssl_tls.c:3646:66
	eor	r2, r0, #1
	add	r1, sp, #4
	.loc	1 3646 5                        @ ../../../components/network/thread/subg_openthread/third_party/mbedtls/repo/library/ssl_tls.c:3646:5
	mov	r0, r4
	blx	r3
.Ltmp317:
	.loc	1 3648 17 is_stmt 1             @ ../../../components/network/thread/subg_openthread/third_party/mbedtls/repo/library/ssl_tls.c:3648:17
	mov	r0, r4
	movs	r1, #1
	bl	mbedtls_ssl_read_record
.Ltmp318:
	mov	r5, r0
.Ltmp319:
	@DEBUG_VALUE: mbedtls_ssl_parse_finished:ret <- $r5
	.loc	1 3648 9 is_stmt 0              @ ../../../components/network/thread/subg_openthread/third_party/mbedtls/repo/library/ssl_tls.c:3648:9
	cbnz	r0, .LBB14_9
.Ltmp320:
@ %bb.1:
	@DEBUG_VALUE: mbedtls_ssl_parse_finished:ret <- $r5
	@DEBUG_VALUE: mbedtls_ssl_parse_finished:ssl <- $r4
	@DEBUG_VALUE: mbedtls_ssl_parse_finished:hash_len <- 12
	.loc	1 3654 14 is_stmt 1             @ ../../../components/network/thread/subg_openthread/third_party/mbedtls/repo/library/ssl_tls.c:3654:14
	ldr	r0, [r4, #108]
.Ltmp321:
	.loc	1 3654 9 is_stmt 0              @ ../../../components/network/thread/subg_openthread/third_party/mbedtls/repo/library/ssl_tls.c:3654:9
	cmp	r0, #22
	bne	.LBB14_6
.Ltmp322:
@ %bb.2:
	@DEBUG_VALUE: mbedtls_ssl_parse_finished:ret <- $r5
	@DEBUG_VALUE: mbedtls_ssl_parse_finished:ssl <- $r4
	@DEBUG_VALUE: mbedtls_ssl_parse_finished:hash_len <- 12
	.loc	1 3663 14 is_stmt 1             @ ../../../components/network/thread/subg_openthread/third_party/mbedtls/repo/library/ssl_tls.c:3663:14
	ldr	r0, [r4, #100]
	.loc	1 3663 9 is_stmt 0              @ ../../../components/network/thread/subg_openthread/third_party/mbedtls/repo/library/ssl_tls.c:3663:9
	ldrb	r1, [r0]
	.loc	1 3663 51                       @ ../../../components/network/thread/subg_openthread/third_party/mbedtls/repo/library/ssl_tls.c:3663:51
	cmp	r1, #20
	bne	.LBB14_7
.Ltmp323:
@ %bb.3:
	@DEBUG_VALUE: mbedtls_ssl_parse_finished:ret <- $r5
	@DEBUG_VALUE: mbedtls_ssl_parse_finished:ssl <- $r4
	@DEBUG_VALUE: mbedtls_ssl_parse_finished:hash_len <- 12
	@DEBUG_VALUE: mbedtls_ssl_hs_hdr_len:ssl <- $r4
	.loc	13 1210 14 is_stmt 1            @ ../../../components/network/thread/subg_openthread/third_party/mbedtls/repo/include\mbedtls/ssl_internal.h:1210:14
	ldr	r1, [r4]
.Ltmp324:
	.loc	1 3664 14                       @ ../../../components/network/thread/subg_openthread/third_party/mbedtls/repo/library/ssl_tls.c:3664:14
	ldr.w	r2, [r4, #144]
.Ltmp325:
	.loc	13 1210 20                      @ ../../../components/network/thread/subg_openthread/third_party/mbedtls/repo/include\mbedtls/ssl_internal.h:1210:20
	ldrb	r3, [r1, #5]
	@DEBUG_VALUE: mbedtls_ssl_hs_hdr_len:ssl <- $r4
	movs	r1, #4
.Ltmp326:
	.loc	13 1210 9 is_stmt 0             @ ../../../components/network/thread/subg_openthread/third_party/mbedtls/repo/include\mbedtls/ssl_internal.h:1210:9
	cmp	r3, #1
	it	eq
	moveq	r1, #12
.Ltmp327:
	.loc	1 3664 57 is_stmt 1             @ ../../../components/network/thread/subg_openthread/third_party/mbedtls/repo/library/ssl_tls.c:3664:57
	add.w	r3, r1, #12
.Ltmp328:
	.loc	1 3663 9                        @ ../../../components/network/thread/subg_openthread/third_party/mbedtls/repo/library/ssl_tls.c:3663:9
	cmp	r2, r3
	bne	.LBB14_7
.Ltmp329:
@ %bb.4:
	@DEBUG_VALUE: mbedtls_ssl_parse_finished:ret <- $r5
	@DEBUG_VALUE: mbedtls_ssl_parse_finished:ssl <- $r4
	@DEBUG_VALUE: mbedtls_ssl_parse_finished:hash_len <- 12
	@DEBUG_VALUE: mbedtls_ssl_hs_hdr_len:ssl <- $r4
	.loc	1 3673 40                       @ ../../../components/network/thread/subg_openthread/third_party/mbedtls/repo/library/ssl_tls.c:3673:40
	add	r0, r1
	add	r1, sp, #4
	.loc	1 3673 9 is_stmt 0              @ ../../../components/network/thread/subg_openthread/third_party/mbedtls/repo/library/ssl_tls.c:3673:9
	movs	r2, #12
	bl	mbedtls_ct_memcmp
.Ltmp330:
	.loc	1 3673 9                        @ ../../../components/network/thread/subg_openthread/third_party/mbedtls/repo/library/ssl_tls.c:3673:9
	cbz	r0, .LBB14_10
.Ltmp331:
@ %bb.5:
	@DEBUG_VALUE: mbedtls_ssl_parse_finished:ret <- $r5
	@DEBUG_VALUE: mbedtls_ssl_parse_finished:ssl <- $r4
	@DEBUG_VALUE: mbedtls_ssl_parse_finished:hash_len <- 12
	.loc	1 0 9                           @ ../../../components/network/thread/subg_openthread/third_party/mbedtls/repo/library/ssl_tls.c:0:9
	movw	r5, #33152
.Ltmp332:
	.loc	1 3677 9 is_stmt 1              @ ../../../components/network/thread/subg_openthread/third_party/mbedtls/repo/library/ssl_tls.c:3677:9
	mov	r0, r4
	movs	r1, #2
	movs	r2, #51
	b	.LBB14_8
.Ltmp333:
.LBB14_6:
	@DEBUG_VALUE: mbedtls_ssl_parse_finished:ret <- $r5
	@DEBUG_VALUE: mbedtls_ssl_parse_finished:ssl <- $r4
	@DEBUG_VALUE: mbedtls_ssl_parse_finished:hash_len <- 12
	.loc	1 3657 9                        @ ../../../components/network/thread/subg_openthread/third_party/mbedtls/repo/library/ssl_tls.c:3657:9
	mov	r0, r4
	movs	r1, #2
	movs	r2, #10
	bl	mbedtls_ssl_send_alert_message
.Ltmp334:
	.loc	1 0 9 is_stmt 0                 @ ../../../components/network/thread/subg_openthread/third_party/mbedtls/repo/library/ssl_tls.c:0:9
	movw	r0, #33152
	movt	r0, #65535
.Ltmp335:
	@DEBUG_VALUE: mbedtls_ssl_parse_finished:ret <- -30464
	add.w	r5, r0, #1920
	b	.LBB14_9
.Ltmp336:
.LBB14_7:
	@DEBUG_VALUE: mbedtls_ssl_parse_finished:ret <- $r5
	@DEBUG_VALUE: mbedtls_ssl_parse_finished:ssl <- $r4
	@DEBUG_VALUE: mbedtls_ssl_parse_finished:hash_len <- 12
	movw	r5, #33152
.Ltmp337:
	.loc	1 3667 9 is_stmt 1              @ ../../../components/network/thread/subg_openthread/third_party/mbedtls/repo/library/ssl_tls.c:3667:9
	mov	r0, r4
	movs	r1, #2
	movs	r2, #50
.Ltmp338:
.LBB14_8:
	@DEBUG_VALUE: mbedtls_ssl_parse_finished:ssl <- $r4
	@DEBUG_VALUE: mbedtls_ssl_parse_finished:hash_len <- 12
	.loc	1 0 9 is_stmt 0                 @ ../../../components/network/thread/subg_openthread/third_party/mbedtls/repo/library/ssl_tls.c:0:9
	movt	r5, #65535
	bl	mbedtls_ssl_send_alert_message
.Ltmp339:
	@DEBUG_VALUE: mbedtls_ssl_parse_finished:ret <- -32384
.LBB14_9:
	@DEBUG_VALUE: mbedtls_ssl_parse_finished:ssl <- $r4
	@DEBUG_VALUE: mbedtls_ssl_parse_finished:hash_len <- 12
	@DEBUG_VALUE: mbedtls_ssl_parse_finished:ret <- $r5
	@DEBUG_LABEL: mbedtls_ssl_parse_finished:exit
	add	r0, sp, #4
	.loc	1 3710 5 is_stmt 1              @ ../../../components/network/thread/subg_openthread/third_party/mbedtls/repo/library/ssl_tls.c:3710:5
	movs	r1, #12
	bl	mbedtls_platform_zeroize
.Ltmp340:
	.loc	1 3711 5                        @ ../../../components/network/thread/subg_openthread/third_party/mbedtls/repo/library/ssl_tls.c:3711:5
	mov	r0, r5
	add	sp, #16
	pop	{r4, r5, r7, pc}
.Ltmp341:
.LBB14_10:
	@DEBUG_VALUE: mbedtls_ssl_parse_finished:ret <- $r5
	@DEBUG_VALUE: mbedtls_ssl_parse_finished:ssl <- $r4
	@DEBUG_VALUE: mbedtls_ssl_parse_finished:hash_len <- 12
	.loc	1 3688 14                       @ ../../../components/network/thread/subg_openthread/third_party/mbedtls/repo/library/ssl_tls.c:3688:14
	ldr	r0, [r4, #48]
	.loc	1 3688 25 is_stmt 0             @ ../../../components/network/thread/subg_openthread/third_party/mbedtls/repo/library/ssl_tls.c:3688:25
	ldrb	r0, [r0, #2]
.Ltmp342:
	.loc	1 3688 9                        @ ../../../components/network/thread/subg_openthread/third_party/mbedtls/repo/library/ssl_tls.c:3688:9
	cbz	r0, .LBB14_13
.Ltmp343:
@ %bb.11:
	@DEBUG_VALUE: mbedtls_ssl_parse_finished:ret <- $r5
	@DEBUG_VALUE: mbedtls_ssl_parse_finished:ssl <- $r4
	@DEBUG_VALUE: mbedtls_ssl_parse_finished:hash_len <- 12
	.loc	1 3691 18 is_stmt 1             @ ../../../components/network/thread/subg_openthread/third_party/mbedtls/repo/library/ssl_tls.c:3691:18
	ldr	r0, [r4]
	.loc	1 3691 24 is_stmt 0             @ ../../../components/network/thread/subg_openthread/third_party/mbedtls/repo/library/ssl_tls.c:3691:24
	ldrb	r1, [r0, #4]
.Ltmp344:
	.loc	1 3691 13                       @ ../../../components/network/thread/subg_openthread/third_party/mbedtls/repo/library/ssl_tls.c:3691:13
	cbnz	r1, .LBB14_15
.Ltmp345:
@ %bb.12:
	@DEBUG_VALUE: mbedtls_ssl_parse_finished:ret <- $r5
	@DEBUG_VALUE: mbedtls_ssl_parse_finished:ssl <- $r4
	@DEBUG_VALUE: mbedtls_ssl_parse_finished:hash_len <- 12
	.loc	1 0 13                          @ ../../../components/network/thread/subg_openthread/third_party/mbedtls/repo/library/ssl_tls.c:0:13
	movs	r1, #10
	b	.LBB14_14
.Ltmp346:
.LBB14_13:
	@DEBUG_VALUE: mbedtls_ssl_parse_finished:ret <- $r5
	@DEBUG_VALUE: mbedtls_ssl_parse_finished:ssl <- $r4
	@DEBUG_VALUE: mbedtls_ssl_parse_finished:hash_len <- 12
	.loc	1 3703 14 is_stmt 1             @ ../../../components/network/thread/subg_openthread/third_party/mbedtls/repo/library/ssl_tls.c:3703:14
	ldrd	r0, r1, [r4]
.Ltmp347:
	.loc	1 3700 19                       @ ../../../components/network/thread/subg_openthread/third_party/mbedtls/repo/library/ssl_tls.c:3700:19
	adds	r1, #1
.Ltmp348:
.LBB14_14:
	@DEBUG_VALUE: mbedtls_ssl_parse_finished:ret <- $r5
	@DEBUG_VALUE: mbedtls_ssl_parse_finished:ssl <- $r4
	@DEBUG_VALUE: mbedtls_ssl_parse_finished:hash_len <- 12
	.loc	1 0 0 is_stmt 0                 @ ../../../components/network/thread/subg_openthread/third_party/mbedtls/repo/library/ssl_tls.c:0:0
	str	r1, [r4, #4]
.Ltmp349:
.LBB14_15:
	@DEBUG_VALUE: mbedtls_ssl_parse_finished:ret <- $r5
	@DEBUG_VALUE: mbedtls_ssl_parse_finished:ssl <- $r4
	@DEBUG_VALUE: mbedtls_ssl_parse_finished:hash_len <- 12
	.loc	1 3703 20 is_stmt 1             @ ../../../components/network/thread/subg_openthread/third_party/mbedtls/repo/library/ssl_tls.c:3703:20
	ldrb	r0, [r0, #5]
.Ltmp350:
	.loc	1 3703 9 is_stmt 0              @ ../../../components/network/thread/subg_openthread/third_party/mbedtls/repo/library/ssl_tls.c:3703:9
	cmp	r0, #1
	bne	.LBB14_17
.Ltmp351:
@ %bb.16:
	@DEBUG_VALUE: mbedtls_ssl_parse_finished:ret <- $r5
	@DEBUG_VALUE: mbedtls_ssl_parse_finished:ssl <- $r4
	@DEBUG_VALUE: mbedtls_ssl_parse_finished:hash_len <- 12
	.loc	1 3704 9 is_stmt 1              @ ../../../components/network/thread/subg_openthread/third_party/mbedtls/repo/library/ssl_tls.c:3704:9
	mov	r0, r4
	bl	mbedtls_ssl_recv_flight_completed
.Ltmp352:
.LBB14_17:
	@DEBUG_VALUE: mbedtls_ssl_parse_finished:ret <- $r5
	@DEBUG_VALUE: mbedtls_ssl_parse_finished:ssl <- $r4
	@DEBUG_VALUE: mbedtls_ssl_parse_finished:hash_len <- 12
	.loc	1 0 9 is_stmt 0                 @ ../../../components/network/thread/subg_openthread/third_party/mbedtls/repo/library/ssl_tls.c:0:9
	movs	r5, #0
.Ltmp353:
	b	.LBB14_9
.Lfunc_end14:
	.size	mbedtls_ssl_parse_finished, .Lfunc_end14-mbedtls_ssl_parse_finished
	.cfi_endproc
	.cantunwind
	.fnend
                                        @ -- End function
	.section	.text.mbedtls_ssl_transform_init,"ax",%progbits
	.hidden	mbedtls_ssl_transform_init      @ -- Begin function mbedtls_ssl_transform_init
	.globl	mbedtls_ssl_transform_init
	.p2align	1
	.type	mbedtls_ssl_transform_init,%function
	.code	16                              @ @mbedtls_ssl_transform_init
	.thumb_func
mbedtls_ssl_transform_init:
.Lfunc_begin15:
	.loc	1 3782 0 is_stmt 1              @ ../../../components/network/thread/subg_openthread/third_party/mbedtls/repo/library/ssl_tls.c:3782:0
	.fnstart
	.cfi_startproc
@ %bb.0:
	@DEBUG_VALUE: mbedtls_ssl_transform_init:transform <- $r0
	.save	{r4, lr}
	push	{r4, lr}
	.cfi_def_cfa_offset 8
	.cfi_offset lr, -4
	.cfi_offset r4, -8
.Ltmp354:
	.loc	1 3783 5 prologue_end           @ ../../../components/network/thread/subg_openthread/third_party/mbedtls/repo/library/ssl_tls.c:3783:5
	movs	r1, #176
	mov	r4, r0
.Ltmp355:
	@DEBUG_VALUE: mbedtls_ssl_transform_init:transform <- $r4
	bl	__aeabi_memclr4
.Ltmp356:
	.loc	1 3785 38                       @ ../../../components/network/thread/subg_openthread/third_party/mbedtls/repo/library/ssl_tls.c:3785:38
	add.w	r0, r4, #52
	.loc	1 3785 5 is_stmt 0              @ ../../../components/network/thread/subg_openthread/third_party/mbedtls/repo/library/ssl_tls.c:3785:5
	bl	mbedtls_cipher_init
.Ltmp357:
	.loc	1 3786 38 is_stmt 1             @ ../../../components/network/thread/subg_openthread/third_party/mbedtls/repo/library/ssl_tls.c:3786:38
	add.w	r0, r4, #112
	.loc	1 3786 5 is_stmt 0              @ ../../../components/network/thread/subg_openthread/third_party/mbedtls/repo/library/ssl_tls.c:3786:5
	pop.w	{r4, lr}
.Ltmp358:
	@DEBUG_VALUE: mbedtls_ssl_transform_init:transform <- [DW_OP_LLVM_entry_value 1] $r0
	b	mbedtls_cipher_init
.Ltmp359:
.Lfunc_end15:
	.size	mbedtls_ssl_transform_init, .Lfunc_end15-mbedtls_ssl_transform_init
	.cfi_endproc
	.cantunwind
	.fnend
                                        @ -- End function
	.section	.text.mbedtls_ssl_session_init,"ax",%progbits
	.hidden	mbedtls_ssl_session_init        @ -- Begin function mbedtls_ssl_session_init
	.globl	mbedtls_ssl_session_init
	.p2align	1
	.type	mbedtls_ssl_session_init,%function
	.code	16                              @ @mbedtls_ssl_session_init
	.thumb_func
mbedtls_ssl_session_init:
.Lfunc_begin16:
	.loc	1 3795 0 is_stmt 1              @ ../../../components/network/thread/subg_openthread/third_party/mbedtls/repo/library/ssl_tls.c:3795:0
	.fnstart
	.cfi_startproc
@ %bb.0:
	@DEBUG_VALUE: mbedtls_ssl_session_init:session <- $r0
	@DEBUG_VALUE: mbedtls_ssl_session_init:session <- $r0
	@DEBUG_VALUE: mbedtls_ssl_session_init:session <- $r0
	.save	{r7, lr}
	push	{r7, lr}
	.cfi_def_cfa_offset 8
	.cfi_offset lr, -4
	.cfi_offset r7, -8
.Ltmp360:
	.loc	1 3796 5 prologue_end           @ ../../../components/network/thread/subg_openthread/third_party/mbedtls/repo/library/ssl_tls.c:3796:5
	movs	r1, #100
	bl	__aeabi_memclr4
.Ltmp361:
	@DEBUG_VALUE: mbedtls_ssl_session_init:session <- [DW_OP_LLVM_entry_value 1] $r0
	.loc	1 3797 1                        @ ../../../components/network/thread/subg_openthread/third_party/mbedtls/repo/library/ssl_tls.c:3797:1
	pop	{r7, pc}
.Ltmp362:
.Lfunc_end16:
	.size	mbedtls_ssl_session_init, .Lfunc_end16-mbedtls_ssl_session_init
	.cfi_endproc
	.cantunwind
	.fnend
                                        @ -- End function
	.section	.text.mbedtls_ssl_init,"ax",%progbits
	.hidden	mbedtls_ssl_init                @ -- Begin function mbedtls_ssl_init
	.globl	mbedtls_ssl_init
	.p2align	1
	.type	mbedtls_ssl_init,%function
	.code	16                              @ @mbedtls_ssl_init
	.thumb_func
mbedtls_ssl_init:
.Lfunc_begin17:
	.loc	1 3907 0                        @ ../../../components/network/thread/subg_openthread/third_party/mbedtls/repo/library/ssl_tls.c:3907:0
	.fnstart
	.cfi_startproc
@ %bb.0:
	@DEBUG_VALUE: mbedtls_ssl_init:ssl <- $r0
	@DEBUG_VALUE: mbedtls_ssl_init:ssl <- $r0
	@DEBUG_VALUE: mbedtls_ssl_init:ssl <- $r0
	.save	{r7, lr}
	push	{r7, lr}
	.cfi_def_cfa_offset 8
	.cfi_offset lr, -4
	.cfi_offset r7, -8
.Ltmp363:
	.loc	1 3908 5 prologue_end           @ ../../../components/network/thread/subg_openthread/third_party/mbedtls/repo/library/ssl_tls.c:3908:5
	movs	r1, #216
	bl	__aeabi_memclr8
.Ltmp364:
	@DEBUG_VALUE: mbedtls_ssl_init:ssl <- [DW_OP_LLVM_entry_value 1] $r0
	.loc	1 3909 1                        @ ../../../components/network/thread/subg_openthread/third_party/mbedtls/repo/library/ssl_tls.c:3909:1
	pop	{r7, pc}
.Ltmp365:
.Lfunc_end17:
	.size	mbedtls_ssl_init, .Lfunc_end17-mbedtls_ssl_init
	.cfi_endproc
	.cantunwind
	.fnend
                                        @ -- End function
	.section	.text.mbedtls_ssl_setup,"ax",%progbits
	.hidden	mbedtls_ssl_setup               @ -- Begin function mbedtls_ssl_setup
	.globl	mbedtls_ssl_setup
	.p2align	1
	.type	mbedtls_ssl_setup,%function
	.code	16                              @ @mbedtls_ssl_setup
	.thumb_func
mbedtls_ssl_setup:
.Lfunc_begin18:
	.loc	1 3917 0                        @ ../../../components/network/thread/subg_openthread/third_party/mbedtls/repo/library/ssl_tls.c:3917:0
	.fnstart
	.cfi_startproc
@ %bb.0:
	@DEBUG_VALUE: mbedtls_ssl_setup:ssl <- $r0
	@DEBUG_VALUE: mbedtls_ssl_setup:conf <- $r1
	.save	{r4, r5, r6, r7, r8, lr}
	push.w	{r4, r5, r6, r7, r8, lr}
	.cfi_def_cfa_offset 24
	.cfi_offset lr, -4
	.cfi_offset r8, -8
	.cfi_offset r7, -12
	.cfi_offset r6, -16
	.cfi_offset r5, -20
	.cfi_offset r4, -24
	mov	r6, r0
	movw	r4, #33024
.Ltmp366:
	.loc	1 3922 15 prologue_end          @ ../../../components/network/thread/subg_openthread/third_party/mbedtls/repo/library/ssl_tls.c:3922:15
	str	r1, [r0]
	mov.w	r8, #0
	.loc	1 3929 18                       @ ../../../components/network/thread/subg_openthread/third_party/mbedtls/repo/library/ssl_tls.c:3929:18
	mov	r5, r0
.Ltmp367:
	@DEBUG_VALUE: mbedtls_ssl_setup:ssl <- $r5
	.loc	1 3934 19                       @ ../../../components/network/thread/subg_openthread/third_party/mbedtls/repo/library/ssl_tls.c:3934:19
	movs	r0, #1
	movw	r1, #813
.Ltmp368:
	@DEBUG_VALUE: mbedtls_ssl_setup:conf <- [DW_OP_LLVM_entry_value 1] $r1
	.loc	1 0 19 is_stmt 0                @ ../../../components/network/thread/subg_openthread/third_party/mbedtls/repo/library/ssl_tls.c:0:19
	movt	r4, #65535
.Ltmp369:
	@DEBUG_VALUE: mbedtls_ssl_setup:out_buf_len <- 813
	@DEBUG_VALUE: mbedtls_ssl_setup:in_buf_len <- 813
	@DEBUG_VALUE: mbedtls_ssl_setup:ret <- -110
	@DEBUG_VALUE: mbedtls_ssl_setup:conf <- $r1
	@DEBUG_VALUE: mbedtls_ssl_setup:ssl <- $r6
	.loc	1 3929 18 is_stmt 1             @ ../../../components/network/thread/subg_openthread/third_party/mbedtls/repo/library/ssl_tls.c:3929:18
	str	r8, [r5, #160]!
	.loc	1 3934 19                       @ ../../../components/network/thread/subg_openthread/third_party/mbedtls/repo/library/ssl_tls.c:3934:19
	bl	mbedtls_calloc
.Ltmp370:
	@DEBUG_VALUE: mbedtls_ssl_setup:conf <- [DW_OP_LLVM_entry_value 1] $r1
	.loc	1 3934 17 is_stmt 0             @ ../../../components/network/thread/subg_openthread/third_party/mbedtls/repo/library/ssl_tls.c:3934:17
	mov	r7, r6
	str	r0, [r7, #80]!
	.loc	1 3935 9 is_stmt 1              @ ../../../components/network/thread/subg_openthread/third_party/mbedtls/repo/library/ssl_tls.c:3935:9
	cbz	r0, .LBB18_3
.Ltmp371:
@ %bb.1:
	@DEBUG_VALUE: mbedtls_ssl_setup:ssl <- $r6
	@DEBUG_VALUE: mbedtls_ssl_setup:ret <- -110
	@DEBUG_VALUE: mbedtls_ssl_setup:in_buf_len <- 813
	@DEBUG_VALUE: mbedtls_ssl_setup:out_buf_len <- 813
	@DEBUG_VALUE: mbedtls_ssl_setup:conf <- [DW_OP_LLVM_entry_value 1] $r1
	.loc	1 3945 20                       @ ../../../components/network/thread/subg_openthread/third_party/mbedtls/repo/library/ssl_tls.c:3945:20
	movs	r0, #1
	movw	r1, #813
	bl	mbedtls_calloc
.Ltmp372:
	.loc	1 3945 18 is_stmt 0             @ ../../../components/network/thread/subg_openthread/third_party/mbedtls/repo/library/ssl_tls.c:3945:18
	str	r0, [r5]
	.loc	1 3946 9 is_stmt 1              @ ../../../components/network/thread/subg_openthread/third_party/mbedtls/repo/library/ssl_tls.c:3946:9
	cbz	r0, .LBB18_3
.Ltmp373:
@ %bb.2:
	@DEBUG_VALUE: mbedtls_ssl_setup:ssl <- $r6
	@DEBUG_VALUE: mbedtls_ssl_setup:ret <- -110
	@DEBUG_VALUE: mbedtls_ssl_setup:in_buf_len <- 813
	@DEBUG_VALUE: mbedtls_ssl_setup:out_buf_len <- 813
	@DEBUG_VALUE: mbedtls_ssl_setup:conf <- [DW_OP_LLVM_entry_value 1] $r1
	.loc	1 3953 5                        @ ../../../components/network/thread/subg_openthread/third_party/mbedtls/repo/library/ssl_tls.c:3953:5
	mov	r0, r6
	bl	mbedtls_ssl_reset_in_out_pointers
.Ltmp374:
	.loc	1 3959 17                       @ ../../../components/network/thread/subg_openthread/third_party/mbedtls/repo/library/ssl_tls.c:3959:17
	mov	r0, r6
	bl	ssl_handshake_init
.Ltmp375:
	mov	r4, r0
.Ltmp376:
	@DEBUG_VALUE: mbedtls_ssl_setup:ret <- $r4
	.loc	1 3959 9 is_stmt 0              @ ../../../components/network/thread/subg_openthread/third_party/mbedtls/repo/library/ssl_tls.c:3959:9
	cbz	r0, .LBB18_5
.Ltmp377:
.LBB18_3:
	@DEBUG_VALUE: mbedtls_ssl_setup:ssl <- $r6
	@DEBUG_VALUE: mbedtls_ssl_setup:in_buf_len <- 813
	@DEBUG_VALUE: mbedtls_ssl_setup:out_buf_len <- 813
	@DEBUG_VALUE: mbedtls_ssl_setup:conf <- [DW_OP_LLVM_entry_value 1] $r1
	@DEBUG_VALUE: mbedtls_ssl_setup:ret <- $r4
	@DEBUG_LABEL: mbedtls_ssl_setup:error
	.loc	1 3965 24 is_stmt 1             @ ../../../components/network/thread/subg_openthread/third_party/mbedtls/repo/library/ssl_tls.c:3965:24
	ldr	r0, [r6, #80]
	.loc	1 3965 5 is_stmt 0              @ ../../../components/network/thread/subg_openthread/third_party/mbedtls/repo/library/ssl_tls.c:3965:5
	bl	mbedtls_free
.Ltmp378:
	.loc	1 3966 24 is_stmt 1             @ ../../../components/network/thread/subg_openthread/third_party/mbedtls/repo/library/ssl_tls.c:3966:24
	ldr.w	r0, [r6, #160]
	.loc	1 3966 5 is_stmt 0              @ ../../../components/network/thread/subg_openthread/third_party/mbedtls/repo/library/ssl_tls.c:3966:5
	bl	mbedtls_free
.Ltmp379:
	.loc	1 3974 17 is_stmt 1             @ ../../../components/network/thread/subg_openthread/third_party/mbedtls/repo/library/ssl_tls.c:3974:17
	mov	r0, r7
	movs	r1, #24
	.loc	1 3968 15                       @ ../../../components/network/thread/subg_openthread/third_party/mbedtls/repo/library/ssl_tls.c:3968:15
	str.w	r8, [r6]
	.loc	1 3974 17                       @ ../../../components/network/thread/subg_openthread/third_party/mbedtls/repo/library/ssl_tls.c:3974:17
	bl	__aeabi_memclr8
.Ltmp380:
	.loc	1 3975 18                       @ ../../../components/network/thread/subg_openthread/third_party/mbedtls/repo/library/ssl_tls.c:3975:18
	mov	r0, r5
	movs	r1, #24
	bl	__aeabi_memclr8
.Ltmp381:
.LBB18_4:
	@DEBUG_VALUE: mbedtls_ssl_setup:ssl <- $r6
	@DEBUG_VALUE: mbedtls_ssl_setup:in_buf_len <- 813
	@DEBUG_VALUE: mbedtls_ssl_setup:out_buf_len <- 813
	@DEBUG_VALUE: mbedtls_ssl_setup:conf <- [DW_OP_LLVM_entry_value 1] $r1
	.loc	1 3990 1                        @ ../../../components/network/thread/subg_openthread/third_party/mbedtls/repo/library/ssl_tls.c:3990:1
	mov	r0, r4
	pop.w	{r4, r5, r6, r7, r8, pc}
.Ltmp382:
.LBB18_5:
	@DEBUG_VALUE: mbedtls_ssl_setup:ssl <- $r6
	@DEBUG_VALUE: mbedtls_ssl_setup:ret <- $r4
	@DEBUG_VALUE: mbedtls_ssl_setup:in_buf_len <- 813
	@DEBUG_VALUE: mbedtls_ssl_setup:out_buf_len <- 813
	@DEBUG_VALUE: mbedtls_ssl_setup:conf <- [DW_OP_LLVM_entry_value 1] $r1
	.loc	1 0 1 is_stmt 0                 @ ../../../components/network/thread/subg_openthread/third_party/mbedtls/repo/library/ssl_tls.c:0:1
	movs	r4, #0
.Ltmp383:
	b	.LBB18_4
.Lfunc_end18:
	.size	mbedtls_ssl_setup, .Lfunc_end18-mbedtls_ssl_setup
	.cfi_endproc
	.cantunwind
	.fnend
                                        @ -- End function
	.section	.text.ssl_handshake_init,"ax",%progbits
	.p2align	1                               @ -- Begin function ssl_handshake_init
	.type	ssl_handshake_init,%function
	.code	16                              @ @ssl_handshake_init
	.thumb_func
ssl_handshake_init:
.Lfunc_begin19:
	.loc	1 3800 0 is_stmt 1              @ ../../../components/network/thread/subg_openthread/third_party/mbedtls/repo/library/ssl_tls.c:3800:0
	.fnstart
	.cfi_startproc
@ %bb.0:
	@DEBUG_VALUE: ssl_handshake_init:ssl <- $r0
	.save	{r4, r5, r6, lr}
	push	{r4, r5, r6, lr}
	.cfi_def_cfa_offset 16
	.cfi_offset lr, -4
	.cfi_offset r6, -8
	.cfi_offset r5, -12
	.cfi_offset r4, -16
	mov	r4, r0
.Ltmp384:
	@DEBUG_VALUE: ssl_handshake_init:ssl <- $r4
	.loc	1 3802 14 prologue_end          @ ../../../components/network/thread/subg_openthread/third_party/mbedtls/repo/library/ssl_tls.c:3802:14
	ldr	r0, [r0, #64]
.Ltmp385:
	.loc	1 3802 9 is_stmt 0              @ ../../../components/network/thread/subg_openthread/third_party/mbedtls/repo/library/ssl_tls.c:3802:9
	cbz	r0, .LBB19_2
.Ltmp386:
@ %bb.1:
	@DEBUG_VALUE: ssl_handshake_init:ssl <- $r4
	.loc	1 3803 9 is_stmt 1              @ ../../../components/network/thread/subg_openthread/third_party/mbedtls/repo/library/ssl_tls.c:3803:9
	bl	mbedtls_ssl_transform_free
.Ltmp387:
.LBB19_2:
	@DEBUG_VALUE: ssl_handshake_init:ssl <- $r4
	.loc	1 3804 14                       @ ../../../components/network/thread/subg_openthread/third_party/mbedtls/repo/library/ssl_tls.c:3804:14
	ldr	r0, [r4, #44]
.Ltmp388:
	.loc	1 3804 9 is_stmt 0              @ ../../../components/network/thread/subg_openthread/third_party/mbedtls/repo/library/ssl_tls.c:3804:9
	cbz	r0, .LBB19_4
.Ltmp389:
@ %bb.3:
	@DEBUG_VALUE: ssl_handshake_init:ssl <- $r4
	@DEBUG_VALUE: mbedtls_ssl_session_free:session <- $r0
	.loc	1 6164 5 is_stmt 1              @ ../../../components/network/thread/subg_openthread/third_party/mbedtls/repo/library/ssl_tls.c:6164:5
	movs	r1, #100
	bl	mbedtls_platform_zeroize
.Ltmp390:
.LBB19_4:
	@DEBUG_VALUE: ssl_handshake_init:ssl <- $r4
	.loc	1 3806 14                       @ ../../../components/network/thread/subg_openthread/third_party/mbedtls/repo/library/ssl_tls.c:3806:14
	ldr	r0, [r4, #48]
.Ltmp391:
	.loc	1 3806 9 is_stmt 0              @ ../../../components/network/thread/subg_openthread/third_party/mbedtls/repo/library/ssl_tls.c:3806:9
	cbz	r0, .LBB19_6
.Ltmp392:
@ %bb.5:
	@DEBUG_VALUE: ssl_handshake_init:ssl <- $r4
	.loc	1 3807 9 is_stmt 1              @ ../../../components/network/thread/subg_openthread/third_party/mbedtls/repo/library/ssl_tls.c:3807:9
	mov	r0, r4
	bl	mbedtls_ssl_handshake_free
.Ltmp393:
.LBB19_6:
	@DEBUG_VALUE: ssl_handshake_init:ssl <- $r4
	.loc	1 3813 14                       @ ../../../components/network/thread/subg_openthread/third_party/mbedtls/repo/library/ssl_tls.c:3813:14
	ldr	r0, [r4, #64]
.Ltmp394:
	.loc	1 3813 9 is_stmt 0              @ ../../../components/network/thread/subg_openthread/third_party/mbedtls/repo/library/ssl_tls.c:3813:9
	cbnz	r0, .LBB19_8
.Ltmp395:
@ %bb.7:
	@DEBUG_VALUE: ssl_handshake_init:ssl <- $r4
	.loc	1 3815 36 is_stmt 1             @ ../../../components/network/thread/subg_openthread/third_party/mbedtls/repo/library/ssl_tls.c:3815:36
	movs	r0, #1
	movs	r1, #176
	bl	mbedtls_calloc
.Ltmp396:
	.loc	1 3815 34 is_stmt 0             @ ../../../components/network/thread/subg_openthread/third_party/mbedtls/repo/library/ssl_tls.c:3815:34
	str	r0, [r4, #64]
.Ltmp397:
.LBB19_8:
	@DEBUG_VALUE: ssl_handshake_init:ssl <- $r4
	.loc	1 3818 14 is_stmt 1             @ ../../../components/network/thread/subg_openthread/third_party/mbedtls/repo/library/ssl_tls.c:3818:14
	ldr	r0, [r4, #44]
.Ltmp398:
	.loc	1 3818 9 is_stmt 0              @ ../../../components/network/thread/subg_openthread/third_party/mbedtls/repo/library/ssl_tls.c:3818:9
	cbnz	r0, .LBB19_10
.Ltmp399:
@ %bb.9:
	@DEBUG_VALUE: ssl_handshake_init:ssl <- $r4
	.loc	1 3820 34 is_stmt 1             @ ../../../components/network/thread/subg_openthread/third_party/mbedtls/repo/library/ssl_tls.c:3820:34
	movs	r0, #1
	movs	r1, #100
	bl	mbedtls_calloc
.Ltmp400:
	.loc	1 3820 32 is_stmt 0             @ ../../../components/network/thread/subg_openthread/third_party/mbedtls/repo/library/ssl_tls.c:3820:32
	str	r0, [r4, #44]
.Ltmp401:
.LBB19_10:
	@DEBUG_VALUE: ssl_handshake_init:ssl <- $r4
	.loc	1 3823 14 is_stmt 1             @ ../../../components/network/thread/subg_openthread/third_party/mbedtls/repo/library/ssl_tls.c:3823:14
	ldr	r0, [r4, #48]
.Ltmp402:
	.loc	1 3823 9 is_stmt 0              @ ../../../components/network/thread/subg_openthread/third_party/mbedtls/repo/library/ssl_tls.c:3823:9
	cbnz	r0, .LBB19_12
.Ltmp403:
@ %bb.11:
	@DEBUG_VALUE: ssl_handshake_init:ssl <- $r4
	.loc	1 3825 26 is_stmt 1             @ ../../../components/network/thread/subg_openthread/third_party/mbedtls/repo/library/ssl_tls.c:3825:26
	movs	r0, #1
	mov.w	r1, #952
	bl	mbedtls_calloc
.Ltmp404:
	.loc	1 3835 32                       @ ../../../components/network/thread/subg_openthread/third_party/mbedtls/repo/library/ssl_tls.c:3835:32
	cmp	r0, #0
.Ltmp405:
	.loc	1 3825 24                       @ ../../../components/network/thread/subg_openthread/third_party/mbedtls/repo/library/ssl_tls.c:3825:24
	str	r0, [r4, #48]
.Ltmp406:
	.loc	1 3835 32                       @ ../../../components/network/thread/subg_openthread/third_party/mbedtls/repo/library/ssl_tls.c:3835:32
	beq	.LBB19_16
.Ltmp407:
.LBB19_12:
	@DEBUG_VALUE: ssl_handshake_init:ssl <- $r4
	.loc	1 3836 14                       @ ../../../components/network/thread/subg_openthread/third_party/mbedtls/repo/library/ssl_tls.c:3836:14
	ldr	r1, [r4, #64]
	.loc	1 3836 42 is_stmt 0             @ ../../../components/network/thread/subg_openthread/third_party/mbedtls/repo/library/ssl_tls.c:3836:42
	cmp	r1, #0
	beq	.LBB19_17
.Ltmp408:
@ %bb.13:
	@DEBUG_VALUE: ssl_handshake_init:ssl <- $r4
	.loc	1 3837 14 is_stmt 1             @ ../../../components/network/thread/subg_openthread/third_party/mbedtls/repo/library/ssl_tls.c:3837:14
	ldr	r1, [r4, #44]
.Ltmp409:
	.loc	1 3835 9                        @ ../../../components/network/thread/subg_openthread/third_party/mbedtls/repo/library/ssl_tls.c:3835:9
	cmp	r1, #0
	beq	.LBB19_17
.Ltmp410:
@ %bb.14:
	@DEBUG_VALUE: ssl_handshake_init:ssl <- $r4
	@DEBUG_VALUE: mbedtls_ssl_session_init:session <- $r1
	.loc	1 3796 5                        @ ../../../components/network/thread/subg_openthread/third_party/mbedtls/repo/library/ssl_tls.c:3796:5
	mov	r0, r1
	movs	r1, #100
.Ltmp411:
	bl	__aeabi_memclr4
.Ltmp412:
	.loc	1 3854 38                       @ ../../../components/network/thread/subg_openthread/third_party/mbedtls/repo/library/ssl_tls.c:3854:38
	ldr	r5, [r4, #64]
.Ltmp413:
	@DEBUG_VALUE: mbedtls_ssl_transform_init:transform <- $r5
	.loc	1 3783 5                        @ ../../../components/network/thread/subg_openthread/third_party/mbedtls/repo/library/ssl_tls.c:3783:5
	movs	r1, #176
	mov	r0, r5
	bl	__aeabi_memclr4
.Ltmp414:
	.loc	1 3785 38                       @ ../../../components/network/thread/subg_openthread/third_party/mbedtls/repo/library/ssl_tls.c:3785:38
	add.w	r0, r5, #52
	.loc	1 3785 5 is_stmt 0              @ ../../../components/network/thread/subg_openthread/third_party/mbedtls/repo/library/ssl_tls.c:3785:5
	bl	mbedtls_cipher_init
.Ltmp415:
	.loc	1 3786 38 is_stmt 1             @ ../../../components/network/thread/subg_openthread/third_party/mbedtls/repo/library/ssl_tls.c:3786:38
	add.w	r0, r5, #112
	.loc	1 3786 5 is_stmt 0              @ ../../../components/network/thread/subg_openthread/third_party/mbedtls/repo/library/ssl_tls.c:3786:5
	bl	mbedtls_cipher_init
.Ltmp416:
	.loc	1 3855 37 is_stmt 1             @ ../../../components/network/thread/subg_openthread/third_party/mbedtls/repo/library/ssl_tls.c:3855:37
	ldr	r5, [r4, #48]
.Ltmp417:
	@DEBUG_VALUE: ssl_handshake_params_init:handshake <- $r5
	.loc	1 3716 5                        @ ../../../components/network/thread/subg_openthread/third_party/mbedtls/repo/library/ssl_tls.c:3716:5
	mov.w	r1, #952
	mov	r0, r5
	bl	__aeabi_memclr4
.Ltmp418:
	.loc	1 3731 40                       @ ../../../components/network/thread/subg_openthread/third_party/mbedtls/repo/library/ssl_tls.c:3731:40
	add.w	r6, r5, #748
	.loc	1 3731 5 is_stmt 0              @ ../../../components/network/thread/subg_openthread/third_party/mbedtls/repo/library/ssl_tls.c:3731:5
	mov	r0, r6
	bl	mbedtls_sha256_init
.Ltmp419:
	.loc	1 3732 5 is_stmt 1              @ ../../../components/network/thread/subg_openthread/third_party/mbedtls/repo/library/ssl_tls.c:3732:5
	mov	r0, r6
	movs	r1, #0
	movs	r6, #0
	bl	mbedtls_sha256_starts_ret
.Ltmp420:
	.loc	1 3746 32                       @ ../../../components/network/thread/subg_openthread/third_party/mbedtls/repo/library/ssl_tls.c:3746:32
	movw	r0, :lower16:ssl_update_checksum_start
	movt	r0, :upper16:ssl_update_checksum_start
	str	r0, [r5, #16]
	.loc	1 3757 36                       @ ../../../components/network/thread/subg_openthread/third_party/mbedtls/repo/library/ssl_tls.c:3757:36
	add.w	r0, r5, #32
	.loc	1 3757 5 is_stmt 0              @ ../../../components/network/thread/subg_openthread/third_party/mbedtls/repo/library/ssl_tls.c:3757:5
	bl	mbedtls_ecdh_init
.Ltmp421:
	.loc	1 3760 39 is_stmt 1             @ ../../../components/network/thread/subg_openthread/third_party/mbedtls/repo/library/ssl_tls.c:3760:39
	add.w	r0, r5, #264
	.loc	1 3760 5 is_stmt 0              @ ../../../components/network/thread/subg_openthread/third_party/mbedtls/repo/library/ssl_tls.c:3760:5
	bl	mbedtls_ecjpake_init
.Ltmp422:
	.loc	1 3858 14 is_stmt 1             @ ../../../components/network/thread/subg_openthread/third_party/mbedtls/repo/library/ssl_tls.c:3858:14
	ldr	r0, [r4]
.Ltmp423:
	.loc	1 3762 30                       @ ../../../components/network/thread/subg_openthread/third_party/mbedtls/repo/library/ssl_tls.c:3762:30
	str.w	r6, [r5, #616]
.Ltmp424:
	@DEBUG_VALUE: ssl_handshake_params_init:handshake <- $r5
	.loc	1 3858 20                       @ ../../../components/network/thread/subg_openthread/third_party/mbedtls/repo/library/ssl_tls.c:3858:20
	ldrb	r1, [r0, #5]
.Ltmp425:
	.loc	1 3763 34                       @ ../../../components/network/thread/subg_openthread/third_party/mbedtls/repo/library/ssl_tls.c:3763:34
	str.w	r6, [r5, #620]
.Ltmp426:
	@DEBUG_VALUE: ssl_handshake_params_init:handshake <- $r5
	.loc	1 3858 9                        @ ../../../components/network/thread/subg_openthread/third_party/mbedtls/repo/library/ssl_tls.c:3858:9
	cmp	r1, #1
	bne	.LBB19_18
.Ltmp427:
@ %bb.15:
	@DEBUG_VALUE: ssl_handshake_init:ssl <- $r4
	.loc	1 3860 14                       @ ../../../components/network/thread/subg_openthread/third_party/mbedtls/repo/library/ssl_tls.c:3860:14
	ldr	r1, [r4, #48]
	.loc	1 3860 50 is_stmt 0             @ ../../../components/network/thread/subg_openthread/third_party/mbedtls/repo/library/ssl_tls.c:3860:50
	ldr	r2, [r4, #56]
.Ltmp428:
	.loc	1 3862 24 is_stmt 1             @ ../../../components/network/thread/subg_openthread/third_party/mbedtls/repo/library/ssl_tls.c:3862:24
	ldrb	r0, [r0, #4]
.Ltmp429:
	.loc	1 3860 43                       @ ../../../components/network/thread/subg_openthread/third_party/mbedtls/repo/library/ssl_tls.c:3860:43
	str.w	r2, [r1, #732]
.Ltmp430:
	.loc	1 3862 24                       @ ../../../components/network/thread/subg_openthread/third_party/mbedtls/repo/library/ssl_tls.c:3862:24
	cmp	r0, #0
	it	ne
	movne	r0, #1
.Ltmp431:
	.loc	1 3862 13 is_stmt 0             @ ../../../components/network/thread/subg_openthread/third_party/mbedtls/repo/library/ssl_tls.c:3862:13
	lsls	r0, r0, #1
.Ltmp432:
	.loc	1 3863 46 is_stmt 1             @ ../../../components/network/thread/subg_openthread/third_party/mbedtls/repo/library/ssl_tls.c:3863:46
	strb	r0, [r1, #4]
.Ltmp433:
	.loc	1 3867 9                        @ ../../../components/network/thread/subg_openthread/third_party/mbedtls/repo/library/ssl_tls.c:3867:9
	mov	r0, r4
	movs	r1, #0
	movs	r6, #0
	bl	mbedtls_ssl_set_timer
.Ltmp434:
	.loc	1 0 9 is_stmt 0                 @ ../../../components/network/thread/subg_openthread/third_party/mbedtls/repo/library/ssl_tls.c:0:9
	b	.LBB19_18
.Ltmp435:
.LBB19_16:
	@DEBUG_VALUE: ssl_handshake_init:ssl <- $r4
	movs	r0, #0
.Ltmp436:
.LBB19_17:
	@DEBUG_VALUE: ssl_handshake_init:ssl <- $r4
	.loc	1 3841 9 is_stmt 1              @ ../../../components/network/thread/subg_openthread/third_party/mbedtls/repo/library/ssl_tls.c:3841:9
	bl	mbedtls_free
.Ltmp437:
	.loc	1 3842 28                       @ ../../../components/network/thread/subg_openthread/third_party/mbedtls/repo/library/ssl_tls.c:3842:28
	ldr	r0, [r4, #64]
	.loc	1 3842 9 is_stmt 0              @ ../../../components/network/thread/subg_openthread/third_party/mbedtls/repo/library/ssl_tls.c:3842:9
	bl	mbedtls_free
.Ltmp438:
	.loc	1 3843 28 is_stmt 1             @ ../../../components/network/thread/subg_openthread/third_party/mbedtls/repo/library/ssl_tls.c:3843:28
	ldr	r0, [r4, #44]
	.loc	1 3843 9 is_stmt 0              @ ../../../components/network/thread/subg_openthread/third_party/mbedtls/repo/library/ssl_tls.c:3843:9
	bl	mbedtls_free
.Ltmp439:
	.loc	1 0 9                           @ ../../../components/network/thread/subg_openthread/third_party/mbedtls/repo/library/ssl_tls.c:0:9
	movs	r0, #0
	movw	r6, #33024
	.loc	1 3846 34 is_stmt 1             @ ../../../components/network/thread/subg_openthread/third_party/mbedtls/repo/library/ssl_tls.c:3846:34
	str	r0, [r4, #64]
	.loc	1 3847 32                       @ ../../../components/network/thread/subg_openthread/third_party/mbedtls/repo/library/ssl_tls.c:3847:32
	strd	r0, r0, [r4, #44]
	movt	r6, #65535
.Ltmp440:
.LBB19_18:
	@DEBUG_VALUE: ssl_handshake_init:ssl <- $r4
	.loc	1 3872 1                        @ ../../../components/network/thread/subg_openthread/third_party/mbedtls/repo/library/ssl_tls.c:3872:1
	mov	r0, r6
	pop	{r4, r5, r6, pc}
.Ltmp441:
.Lfunc_end19:
	.size	ssl_handshake_init, .Lfunc_end19-ssl_handshake_init
	.cfi_endproc
	.cantunwind
	.fnend
                                        @ -- End function
	.section	.text.mbedtls_ssl_session_reset_int,"ax",%progbits
	.hidden	mbedtls_ssl_session_reset_int   @ -- Begin function mbedtls_ssl_session_reset_int
	.globl	mbedtls_ssl_session_reset_int
	.p2align	1
	.type	mbedtls_ssl_session_reset_int,%function
	.code	16                              @ @mbedtls_ssl_session_reset_int
	.thumb_func
mbedtls_ssl_session_reset_int:
.Lfunc_begin20:
	.loc	1 4000 0                        @ ../../../components/network/thread/subg_openthread/third_party/mbedtls/repo/library/ssl_tls.c:4000:0
	.fnstart
	.cfi_startproc
@ %bb.0:
	@DEBUG_VALUE: mbedtls_ssl_session_reset_int:ssl <- $r0
	.save	{r4, r5, r7, lr}
	push	{r4, r5, r7, lr}
	.cfi_def_cfa_offset 16
	.cfi_offset lr, -4
	.cfi_offset r7, -8
	.cfi_offset r5, -12
	.cfi_offset r4, -16
	movs	r5, #0
.Ltmp442:
	@DEBUG_VALUE: mbedtls_ssl_session_reset_int:out_buf_len <- 813
	@DEBUG_VALUE: mbedtls_ssl_session_reset_int:in_buf_len <- 813
	@DEBUG_VALUE: mbedtls_ssl_session_reset_int:ret <- -110
	@DEBUG_VALUE: mbedtls_ssl_session_reset_int:ssl <- $r4
	.loc	1 4018 5 prologue_end           @ ../../../components/network/thread/subg_openthread/third_party/mbedtls/repo/library/ssl_tls.c:4018:5
	movs	r1, #0
	mov	r4, r0
.Ltmp443:
	@DEBUG_VALUE: mbedtls_ssl_session_reset_int:partial <- undef
	.loc	1 4015 16                       @ ../../../components/network/thread/subg_openthread/third_party/mbedtls/repo/library/ssl_tls.c:4015:16
	str	r5, [r0, #4]
	.loc	1 4018 5                        @ ../../../components/network/thread/subg_openthread/third_party/mbedtls/repo/library/ssl_tls.c:4018:5
	bl	mbedtls_ssl_set_timer
.Ltmp444:
	.loc	1 4031 5                        @ ../../../components/network/thread/subg_openthread/third_party/mbedtls/repo/library/ssl_tls.c:4031:5
	mov	r0, r4
	.loc	1 4028 31                       @ ../../../components/network/thread/subg_openthread/third_party/mbedtls/repo/library/ssl_tls.c:4028:31
	str.w	r5, [r4, #212]
	.loc	1 4030 18                       @ ../../../components/network/thread/subg_openthread/third_party/mbedtls/repo/library/ssl_tls.c:4030:18
	str	r5, [r4, #104]
	.loc	1 4031 5                        @ ../../../components/network/thread/subg_openthread/third_party/mbedtls/repo/library/ssl_tls.c:4031:5
	bl	mbedtls_ssl_reset_in_out_pointers
.Ltmp445:
	.loc	1 4040 5                        @ ../../../components/network/thread/subg_openthread/third_party/mbedtls/repo/library/ssl_tls.c:4040:5
	mov	r0, r4
	.loc	1 4033 21                       @ ../../../components/network/thread/subg_openthread/third_party/mbedtls/repo/library/ssl_tls.c:4033:21
	strd	r5, r5, [r4, #108]
	.loc	1 4036 29                       @ ../../../components/network/thread/subg_openthread/third_party/mbedtls/repo/library/ssl_tls.c:4036:29
	str	r5, [r4, #124]
	.loc	1 4037 19                       @ ../../../components/network/thread/subg_openthread/third_party/mbedtls/repo/library/ssl_tls.c:4037:19
	strh.w	r5, [r4, #120]
	.loc	1 4040 5                        @ ../../../components/network/thread/subg_openthread/third_party/mbedtls/repo/library/ssl_tls.c:4040:5
	bl	mbedtls_ssl_dtls_replay_reset
.Ltmp446:
	.loc	1 4048 10                       @ ../../../components/network/thread/subg_openthread/third_party/mbedtls/repo/library/ssl_tls.c:4048:10
	add.w	r0, r4, #184
	.loc	1 4048 22 is_stmt 0             @ ../../../components/network/thread/subg_openthread/third_party/mbedtls/repo/library/ssl_tls.c:4048:22
	movs	r1, #20
	.loc	1 4043 19 is_stmt 1             @ ../../../components/network/thread/subg_openthread/third_party/mbedtls/repo/library/ssl_tls.c:4043:19
	strd	r5, r5, [r4, #144]
	.loc	1 4046 31                       @ ../../../components/network/thread/subg_openthread/third_party/mbedtls/repo/library/ssl_tls.c:4046:31
	str.w	r5, [r4, #152]
	.loc	1 4058 23                       @ ../../../components/network/thread/subg_openthread/third_party/mbedtls/repo/library/ssl_tls.c:4058:23
	strd	r5, r5, [r4, #52]
	.loc	1 4061 21                       @ ../../../components/network/thread/subg_openthread/third_party/mbedtls/repo/library/ssl_tls.c:4061:21
	strd	r5, r5, [r4, #32]
	.loc	1 4048 22                       @ ../../../components/network/thread/subg_openthread/third_party/mbedtls/repo/library/ssl_tls.c:4048:22
	bl	__aeabi_memclr8
.Ltmp447:
	.loc	1 4064 18                       @ ../../../components/network/thread/subg_openthread/third_party/mbedtls/repo/library/ssl_tls.c:4064:18
	ldr.w	r0, [r4, #160]
	.loc	1 4064 5 is_stmt 0              @ ../../../components/network/thread/subg_openthread/third_party/mbedtls/repo/library/ssl_tls.c:4064:5
	movw	r1, #813
	bl	__aeabi_memclr
.Ltmp448:
	.loc	1 4071 22 is_stmt 1             @ ../../../components/network/thread/subg_openthread/third_party/mbedtls/repo/library/ssl_tls.c:4071:22
	ldr	r0, [r4, #80]
	.loc	1 4071 9 is_stmt 0              @ ../../../components/network/thread/subg_openthread/third_party/mbedtls/repo/library/ssl_tls.c:4071:9
	movw	r1, #813
	.loc	1 4070 22 is_stmt 1             @ ../../../components/network/thread/subg_openthread/third_party/mbedtls/repo/library/ssl_tls.c:4070:22
	str	r5, [r4, #116]
	.loc	1 4071 9                        @ ../../../components/network/thread/subg_openthread/third_party/mbedtls/repo/library/ssl_tls.c:4071:9
	bl	__aeabi_memclr
.Ltmp449:
	.loc	1 4086 14                       @ ../../../components/network/thread/subg_openthread/third_party/mbedtls/repo/library/ssl_tls.c:4086:14
	ldr	r0, [r4, #60]
.Ltmp450:
	.loc	1 4086 9 is_stmt 0              @ ../../../components/network/thread/subg_openthread/third_party/mbedtls/repo/library/ssl_tls.c:4086:9
	cbz	r0, .LBB20_2
.Ltmp451:
@ %bb.1:
	@DEBUG_VALUE: mbedtls_ssl_session_reset_int:ret <- -110
	@DEBUG_VALUE: mbedtls_ssl_session_reset_int:in_buf_len <- 813
	@DEBUG_VALUE: mbedtls_ssl_session_reset_int:out_buf_len <- 813
	.loc	1 4088 9 is_stmt 1              @ ../../../components/network/thread/subg_openthread/third_party/mbedtls/repo/library/ssl_tls.c:4088:9
	bl	mbedtls_ssl_transform_free
.Ltmp452:
	.loc	1 4089 28                       @ ../../../components/network/thread/subg_openthread/third_party/mbedtls/repo/library/ssl_tls.c:4089:28
	ldr	r0, [r4, #60]
	.loc	1 4089 9 is_stmt 0              @ ../../../components/network/thread/subg_openthread/third_party/mbedtls/repo/library/ssl_tls.c:4089:9
	bl	mbedtls_free
.Ltmp453:
	.loc	1 4090 24 is_stmt 1             @ ../../../components/network/thread/subg_openthread/third_party/mbedtls/repo/library/ssl_tls.c:4090:24
	str	r5, [r4, #60]
.Ltmp454:
.LBB20_2:
	@DEBUG_VALUE: mbedtls_ssl_session_reset_int:ret <- -110
	@DEBUG_VALUE: mbedtls_ssl_session_reset_int:in_buf_len <- 813
	@DEBUG_VALUE: mbedtls_ssl_session_reset_int:out_buf_len <- 813
	.loc	1 4093 14                       @ ../../../components/network/thread/subg_openthread/third_party/mbedtls/repo/library/ssl_tls.c:4093:14
	ldr	r0, [r4, #40]
.Ltmp455:
	.loc	1 4093 9 is_stmt 0              @ ../../../components/network/thread/subg_openthread/third_party/mbedtls/repo/library/ssl_tls.c:4093:9
	cbz	r0, .LBB20_4
.Ltmp456:
@ %bb.3:
	@DEBUG_VALUE: mbedtls_ssl_session_reset_int:ret <- -110
	@DEBUG_VALUE: mbedtls_ssl_session_reset_int:in_buf_len <- 813
	@DEBUG_VALUE: mbedtls_ssl_session_reset_int:out_buf_len <- 813
	@DEBUG_VALUE: mbedtls_ssl_session_free:session <- $r0
	.loc	1 6164 5 is_stmt 1              @ ../../../components/network/thread/subg_openthread/third_party/mbedtls/repo/library/ssl_tls.c:6164:5
	movs	r1, #100
	bl	mbedtls_platform_zeroize
.Ltmp457:
	.loc	1 4096 28                       @ ../../../components/network/thread/subg_openthread/third_party/mbedtls/repo/library/ssl_tls.c:4096:28
	ldr	r0, [r4, #40]
	.loc	1 4096 9 is_stmt 0              @ ../../../components/network/thread/subg_openthread/third_party/mbedtls/repo/library/ssl_tls.c:4096:9
	bl	mbedtls_free
.Ltmp458:
	.loc	1 0 9                           @ ../../../components/network/thread/subg_openthread/third_party/mbedtls/repo/library/ssl_tls.c:0:9
	movs	r0, #0
	.loc	1 4097 22 is_stmt 1             @ ../../../components/network/thread/subg_openthread/third_party/mbedtls/repo/library/ssl_tls.c:4097:22
	str	r0, [r4, #40]
.Ltmp459:
.LBB20_4:
	@DEBUG_VALUE: mbedtls_ssl_session_reset_int:ret <- -110
	@DEBUG_VALUE: mbedtls_ssl_session_reset_int:in_buf_len <- 813
	@DEBUG_VALUE: mbedtls_ssl_session_reset_int:out_buf_len <- 813
	.loc	1 4115 17                       @ ../../../components/network/thread/subg_openthread/third_party/mbedtls/repo/library/ssl_tls.c:4115:17
	mov	r0, r4
	pop.w	{r4, r5, r7, lr}
.Ltmp460:
	b	ssl_handshake_init
.Ltmp461:
.Lfunc_end20:
	.size	mbedtls_ssl_session_reset_int, .Lfunc_end20-mbedtls_ssl_session_reset_int
	.cfi_endproc
	.cantunwind
	.fnend
                                        @ -- End function
	.section	.text.mbedtls_ssl_session_reset,"ax",%progbits
	.hidden	mbedtls_ssl_session_reset       @ -- Begin function mbedtls_ssl_session_reset
	.globl	mbedtls_ssl_session_reset
	.p2align	1
	.type	mbedtls_ssl_session_reset,%function
	.code	16                              @ @mbedtls_ssl_session_reset
	.thumb_func
mbedtls_ssl_session_reset:
.Lfunc_begin21:
	.loc	1 4126 0                        @ ../../../components/network/thread/subg_openthread/third_party/mbedtls/repo/library/ssl_tls.c:4126:0
	.fnstart
	.cfi_startproc
@ %bb.0:
	@DEBUG_VALUE: mbedtls_ssl_session_reset:ssl <- $r0
	@DEBUG_VALUE: mbedtls_ssl_session_reset:ssl <- $r0
	@DEBUG_VALUE: mbedtls_ssl_session_reset:ssl <- $r0
	.loc	1 4127 13 prologue_end          @ ../../../components/network/thread/subg_openthread/third_party/mbedtls/repo/library/ssl_tls.c:4127:13
	b	mbedtls_ssl_session_reset_int
.Ltmp462:
.Lfunc_end21:
	.size	mbedtls_ssl_session_reset, .Lfunc_end21-mbedtls_ssl_session_reset
	.cfi_endproc
	.cantunwind
	.fnend
                                        @ -- End function
	.section	.text.mbedtls_ssl_conf_endpoint,"ax",%progbits
	.hidden	mbedtls_ssl_conf_endpoint       @ -- Begin function mbedtls_ssl_conf_endpoint
	.globl	mbedtls_ssl_conf_endpoint
	.p2align	1
	.type	mbedtls_ssl_conf_endpoint,%function
	.code	16                              @ @mbedtls_ssl_conf_endpoint
	.thumb_func
mbedtls_ssl_conf_endpoint:
.Lfunc_begin22:
	.loc	1 4134 0                        @ ../../../components/network/thread/subg_openthread/third_party/mbedtls/repo/library/ssl_tls.c:4134:0
	.fnstart
	.cfi_startproc
@ %bb.0:
	@DEBUG_VALUE: mbedtls_ssl_conf_endpoint:conf <- $r0
	@DEBUG_VALUE: mbedtls_ssl_conf_endpoint:conf <- $r0
	@DEBUG_VALUE: mbedtls_ssl_conf_endpoint:endpoint <- $r1
	@DEBUG_VALUE: mbedtls_ssl_conf_endpoint:endpoint <- $r1
	.loc	1 4135 22 prologue_end          @ ../../../components/network/thread/subg_openthread/third_party/mbedtls/repo/library/ssl_tls.c:4135:22
	strb	r1, [r0, #4]
	.loc	1 4136 1                        @ ../../../components/network/thread/subg_openthread/third_party/mbedtls/repo/library/ssl_tls.c:4136:1
	bx	lr
.Ltmp463:
.Lfunc_end22:
	.size	mbedtls_ssl_conf_endpoint, .Lfunc_end22-mbedtls_ssl_conf_endpoint
	.cfi_endproc
	.cantunwind
	.fnend
                                        @ -- End function
	.section	.text.mbedtls_ssl_conf_transport,"ax",%progbits
	.hidden	mbedtls_ssl_conf_transport      @ -- Begin function mbedtls_ssl_conf_transport
	.globl	mbedtls_ssl_conf_transport
	.p2align	1
	.type	mbedtls_ssl_conf_transport,%function
	.code	16                              @ @mbedtls_ssl_conf_transport
	.thumb_func
mbedtls_ssl_conf_transport:
.Lfunc_begin23:
	.loc	1 4139 0                        @ ../../../components/network/thread/subg_openthread/third_party/mbedtls/repo/library/ssl_tls.c:4139:0
	.fnstart
	.cfi_startproc
@ %bb.0:
	@DEBUG_VALUE: mbedtls_ssl_conf_transport:conf <- $r0
	@DEBUG_VALUE: mbedtls_ssl_conf_transport:conf <- $r0
	@DEBUG_VALUE: mbedtls_ssl_conf_transport:transport <- $r1
	@DEBUG_VALUE: mbedtls_ssl_conf_transport:transport <- $r1
	.loc	1 4140 21 prologue_end          @ ../../../components/network/thread/subg_openthread/third_party/mbedtls/repo/library/ssl_tls.c:4140:21
	strb	r1, [r0, #5]
	.loc	1 4141 1                        @ ../../../components/network/thread/subg_openthread/third_party/mbedtls/repo/library/ssl_tls.c:4141:1
	bx	lr
.Ltmp464:
.Lfunc_end23:
	.size	mbedtls_ssl_conf_transport, .Lfunc_end23-mbedtls_ssl_conf_transport
	.cfi_endproc
	.cantunwind
	.fnend
                                        @ -- End function
	.section	.text.mbedtls_ssl_conf_dtls_anti_replay,"ax",%progbits
	.hidden	mbedtls_ssl_conf_dtls_anti_replay @ -- Begin function mbedtls_ssl_conf_dtls_anti_replay
	.globl	mbedtls_ssl_conf_dtls_anti_replay
	.p2align	1
	.type	mbedtls_ssl_conf_dtls_anti_replay,%function
	.code	16                              @ @mbedtls_ssl_conf_dtls_anti_replay
	.thumb_func
mbedtls_ssl_conf_dtls_anti_replay:
.Lfunc_begin24:
	.loc	1 4145 0                        @ ../../../components/network/thread/subg_openthread/third_party/mbedtls/repo/library/ssl_tls.c:4145:0
	.fnstart
	.cfi_startproc
@ %bb.0:
	@DEBUG_VALUE: mbedtls_ssl_conf_dtls_anti_replay:conf <- $r0
	@DEBUG_VALUE: mbedtls_ssl_conf_dtls_anti_replay:conf <- $r0
	@DEBUG_VALUE: mbedtls_ssl_conf_dtls_anti_replay:mode <- $r1
	@DEBUG_VALUE: mbedtls_ssl_conf_dtls_anti_replay:mode <- $r1
	.loc	1 4146 23 prologue_end          @ ../../../components/network/thread/subg_openthread/third_party/mbedtls/repo/library/ssl_tls.c:4146:23
	strb	r1, [r0, #9]
	.loc	1 4147 1                        @ ../../../components/network/thread/subg_openthread/third_party/mbedtls/repo/library/ssl_tls.c:4147:1
	bx	lr
.Ltmp465:
.Lfunc_end24:
	.size	mbedtls_ssl_conf_dtls_anti_replay, .Lfunc_end24-mbedtls_ssl_conf_dtls_anti_replay
	.cfi_endproc
	.cantunwind
	.fnend
                                        @ -- End function
	.section	.text.mbedtls_ssl_set_datagram_packing,"ax",%progbits
	.hidden	mbedtls_ssl_set_datagram_packing @ -- Begin function mbedtls_ssl_set_datagram_packing
	.globl	mbedtls_ssl_set_datagram_packing
	.p2align	1
	.type	mbedtls_ssl_set_datagram_packing,%function
	.code	16                              @ @mbedtls_ssl_set_datagram_packing
	.thumb_func
mbedtls_ssl_set_datagram_packing:
.Lfunc_begin25:
	.loc	1 4161 0                        @ ../../../components/network/thread/subg_openthread/third_party/mbedtls/repo/library/ssl_tls.c:4161:0
	.fnstart
	.cfi_startproc
@ %bb.0:
	@DEBUG_VALUE: mbedtls_ssl_set_datagram_packing:ssl <- $r0
	@DEBUG_VALUE: mbedtls_ssl_set_datagram_packing:ssl <- $r0
	@DEBUG_VALUE: mbedtls_ssl_set_datagram_packing:allow_packing <- $r1
	@DEBUG_VALUE: mbedtls_ssl_set_datagram_packing:allow_packing <- $r1
	.loc	1 4162 37 prologue_end          @ ../../../components/network/thread/subg_openthread/third_party/mbedtls/repo/library/ssl_tls.c:4162:37
	clz	r1, r1
.Ltmp466:
	@DEBUG_VALUE: mbedtls_ssl_set_datagram_packing:allow_packing <- [DW_OP_LLVM_entry_value 1] $r1
	lsrs	r1, r1, #5
	.loc	1 4162 35 is_stmt 0             @ ../../../components/network/thread/subg_openthread/third_party/mbedtls/repo/library/ssl_tls.c:4162:35
	strb.w	r1, [r0, #156]
	.loc	1 4163 1 is_stmt 1              @ ../../../components/network/thread/subg_openthread/third_party/mbedtls/repo/library/ssl_tls.c:4163:1
	bx	lr
.Ltmp467:
.Lfunc_end25:
	.size	mbedtls_ssl_set_datagram_packing, .Lfunc_end25-mbedtls_ssl_set_datagram_packing
	.cfi_endproc
	.cantunwind
	.fnend
                                        @ -- End function
	.section	.text.mbedtls_ssl_conf_handshake_timeout,"ax",%progbits
	.hidden	mbedtls_ssl_conf_handshake_timeout @ -- Begin function mbedtls_ssl_conf_handshake_timeout
	.globl	mbedtls_ssl_conf_handshake_timeout
	.p2align	1
	.type	mbedtls_ssl_conf_handshake_timeout,%function
	.code	16                              @ @mbedtls_ssl_conf_handshake_timeout
	.thumb_func
mbedtls_ssl_conf_handshake_timeout:
.Lfunc_begin26:
	.loc	1 4167 0                        @ ../../../components/network/thread/subg_openthread/third_party/mbedtls/repo/library/ssl_tls.c:4167:0
	.fnstart
	.cfi_startproc
@ %bb.0:
	@DEBUG_VALUE: mbedtls_ssl_conf_handshake_timeout:conf <- $r0
	@DEBUG_VALUE: mbedtls_ssl_conf_handshake_timeout:conf <- $r0
	@DEBUG_VALUE: mbedtls_ssl_conf_handshake_timeout:min <- $r1
	@DEBUG_VALUE: mbedtls_ssl_conf_handshake_timeout:min <- $r1
	@DEBUG_VALUE: mbedtls_ssl_conf_handshake_timeout:max <- $r2
	@DEBUG_VALUE: mbedtls_ssl_conf_handshake_timeout:max <- $r2
	.loc	1 4168 26 prologue_end          @ ../../../components/network/thread/subg_openthread/third_party/mbedtls/repo/library/ssl_tls.c:4168:26
	strd	r1, r2, [r0, #16]
	.loc	1 4170 1                        @ ../../../components/network/thread/subg_openthread/third_party/mbedtls/repo/library/ssl_tls.c:4170:1
	bx	lr
.Ltmp468:
.Lfunc_end26:
	.size	mbedtls_ssl_conf_handshake_timeout, .Lfunc_end26-mbedtls_ssl_conf_handshake_timeout
	.cfi_endproc
	.cantunwind
	.fnend
                                        @ -- End function
	.section	.text.mbedtls_ssl_conf_authmode,"ax",%progbits
	.hidden	mbedtls_ssl_conf_authmode       @ -- Begin function mbedtls_ssl_conf_authmode
	.globl	mbedtls_ssl_conf_authmode
	.p2align	1
	.type	mbedtls_ssl_conf_authmode,%function
	.code	16                              @ @mbedtls_ssl_conf_authmode
	.thumb_func
mbedtls_ssl_conf_authmode:
.Lfunc_begin27:
	.loc	1 4174 0                        @ ../../../components/network/thread/subg_openthread/third_party/mbedtls/repo/library/ssl_tls.c:4174:0
	.fnstart
	.cfi_startproc
@ %bb.0:
	@DEBUG_VALUE: mbedtls_ssl_conf_authmode:conf <- $r0
	@DEBUG_VALUE: mbedtls_ssl_conf_authmode:conf <- $r0
	@DEBUG_VALUE: mbedtls_ssl_conf_authmode:authmode <- $r1
	@DEBUG_VALUE: mbedtls_ssl_conf_authmode:authmode <- $r1
	.loc	1 4175 22 prologue_end          @ ../../../components/network/thread/subg_openthread/third_party/mbedtls/repo/library/ssl_tls.c:4175:22
	strb	r1, [r0, #6]
	.loc	1 4176 1                        @ ../../../components/network/thread/subg_openthread/third_party/mbedtls/repo/library/ssl_tls.c:4176:1
	bx	lr
.Ltmp469:
.Lfunc_end27:
	.size	mbedtls_ssl_conf_authmode, .Lfunc_end27-mbedtls_ssl_conf_authmode
	.cfi_endproc
	.cantunwind
	.fnend
                                        @ -- End function
	.section	.text.mbedtls_ssl_conf_rng,"ax",%progbits
	.hidden	mbedtls_ssl_conf_rng            @ -- Begin function mbedtls_ssl_conf_rng
	.globl	mbedtls_ssl_conf_rng
	.p2align	1
	.type	mbedtls_ssl_conf_rng,%function
	.code	16                              @ @mbedtls_ssl_conf_rng
	.thumb_func
mbedtls_ssl_conf_rng:
.Lfunc_begin28:
	.loc	1 4191 0                        @ ../../../components/network/thread/subg_openthread/third_party/mbedtls/repo/library/ssl_tls.c:4191:0
	.fnstart
	.cfi_startproc
@ %bb.0:
	@DEBUG_VALUE: mbedtls_ssl_conf_rng:conf <- $r0
	@DEBUG_VALUE: mbedtls_ssl_conf_rng:conf <- $r0
	@DEBUG_VALUE: mbedtls_ssl_conf_rng:f_rng <- $r1
	@DEBUG_VALUE: mbedtls_ssl_conf_rng:f_rng <- $r1
	@DEBUG_VALUE: mbedtls_ssl_conf_rng:p_rng <- $r2
	@DEBUG_VALUE: mbedtls_ssl_conf_rng:p_rng <- $r2
	.loc	1 4192 22 prologue_end          @ ../../../components/network/thread/subg_openthread/third_party/mbedtls/repo/library/ssl_tls.c:4192:22
	strd	r1, r2, [r0, #48]
	.loc	1 4194 1                        @ ../../../components/network/thread/subg_openthread/third_party/mbedtls/repo/library/ssl_tls.c:4194:1
	bx	lr
.Ltmp470:
.Lfunc_end28:
	.size	mbedtls_ssl_conf_rng, .Lfunc_end28-mbedtls_ssl_conf_rng
	.cfi_endproc
	.cantunwind
	.fnend
                                        @ -- End function
	.section	.text.mbedtls_ssl_conf_dbg,"ax",%progbits
	.hidden	mbedtls_ssl_conf_dbg            @ -- Begin function mbedtls_ssl_conf_dbg
	.globl	mbedtls_ssl_conf_dbg
	.p2align	1
	.type	mbedtls_ssl_conf_dbg,%function
	.code	16                              @ @mbedtls_ssl_conf_dbg
	.thumb_func
mbedtls_ssl_conf_dbg:
.Lfunc_begin29:
	.loc	1 4199 0                        @ ../../../components/network/thread/subg_openthread/third_party/mbedtls/repo/library/ssl_tls.c:4199:0
	.fnstart
	.cfi_startproc
@ %bb.0:
	@DEBUG_VALUE: mbedtls_ssl_conf_dbg:conf <- $r0
	@DEBUG_VALUE: mbedtls_ssl_conf_dbg:conf <- $r0
	@DEBUG_VALUE: mbedtls_ssl_conf_dbg:f_dbg <- $r1
	@DEBUG_VALUE: mbedtls_ssl_conf_dbg:f_dbg <- $r1
	@DEBUG_VALUE: mbedtls_ssl_conf_dbg:p_dbg <- $r2
	@DEBUG_VALUE: mbedtls_ssl_conf_dbg:p_dbg <- $r2
	.loc	1 4200 22 prologue_end          @ ../../../components/network/thread/subg_openthread/third_party/mbedtls/repo/library/ssl_tls.c:4200:22
	strd	r1, r2, [r0, #40]
	.loc	1 4202 1                        @ ../../../components/network/thread/subg_openthread/third_party/mbedtls/repo/library/ssl_tls.c:4202:1
	bx	lr
.Ltmp471:
.Lfunc_end29:
	.size	mbedtls_ssl_conf_dbg, .Lfunc_end29-mbedtls_ssl_conf_dbg
	.cfi_endproc
	.cantunwind
	.fnend
                                        @ -- End function
	.section	.text.mbedtls_ssl_set_bio,"ax",%progbits
	.hidden	mbedtls_ssl_set_bio             @ -- Begin function mbedtls_ssl_set_bio
	.globl	mbedtls_ssl_set_bio
	.p2align	1
	.type	mbedtls_ssl_set_bio,%function
	.code	16                              @ @mbedtls_ssl_set_bio
	.thumb_func
mbedtls_ssl_set_bio:
.Lfunc_begin30:
	.loc	1 4209 0                        @ ../../../components/network/thread/subg_openthread/third_party/mbedtls/repo/library/ssl_tls.c:4209:0
	.fnstart
	.cfi_startproc
@ %bb.0:
	@DEBUG_VALUE: mbedtls_ssl_set_bio:ssl <- $r0
	@DEBUG_VALUE: mbedtls_ssl_set_bio:p_bio <- $r1
	@DEBUG_VALUE: mbedtls_ssl_set_bio:f_send <- $r2
	@DEBUG_VALUE: mbedtls_ssl_set_bio:f_recv <- $r3
	ldr.w	r12, [sp]
.Ltmp472:
	@DEBUG_VALUE: mbedtls_ssl_set_bio:f_recv_timeout <- [$sp+0]
	@DEBUG_VALUE: mbedtls_ssl_set_bio:f_recv <- $r3
	@DEBUG_VALUE: mbedtls_ssl_set_bio:f_send <- $r2
	@DEBUG_VALUE: mbedtls_ssl_set_bio:p_bio <- $r1
	@DEBUG_VALUE: mbedtls_ssl_set_bio:ssl <- $r0
	.loc	1 4211 25 prologue_end          @ ../../../components/network/thread/subg_openthread/third_party/mbedtls/repo/library/ssl_tls.c:4211:25
	str	r2, [r0, #16]
	.loc	1 4212 25                       @ ../../../components/network/thread/subg_openthread/third_party/mbedtls/repo/library/ssl_tls.c:4212:25
	str	r3, [r0, #20]
	.loc	1 4213 25                       @ ../../../components/network/thread/subg_openthread/third_party/mbedtls/repo/library/ssl_tls.c:4213:25
	str.w	r12, [r0, #24]
	.loc	1 4210 25                       @ ../../../components/network/thread/subg_openthread/third_party/mbedtls/repo/library/ssl_tls.c:4210:25
	str	r1, [r0, #28]
	.loc	1 4214 1                        @ ../../../components/network/thread/subg_openthread/third_party/mbedtls/repo/library/ssl_tls.c:4214:1
	bx	lr
.Ltmp473:
.Lfunc_end30:
	.size	mbedtls_ssl_set_bio, .Lfunc_end30-mbedtls_ssl_set_bio
	.cfi_endproc
	.cantunwind
	.fnend
                                        @ -- End function
	.section	.text.mbedtls_ssl_set_mtu,"ax",%progbits
	.hidden	mbedtls_ssl_set_mtu             @ -- Begin function mbedtls_ssl_set_mtu
	.globl	mbedtls_ssl_set_mtu
	.p2align	1
	.type	mbedtls_ssl_set_mtu,%function
	.code	16                              @ @mbedtls_ssl_set_mtu
	.thumb_func
mbedtls_ssl_set_mtu:
.Lfunc_begin31:
	.loc	1 4218 0                        @ ../../../components/network/thread/subg_openthread/third_party/mbedtls/repo/library/ssl_tls.c:4218:0
	.fnstart
	.cfi_startproc
@ %bb.0:
	@DEBUG_VALUE: mbedtls_ssl_set_mtu:ssl <- $r0
	@DEBUG_VALUE: mbedtls_ssl_set_mtu:ssl <- $r0
	@DEBUG_VALUE: mbedtls_ssl_set_mtu:mtu <- $r1
	@DEBUG_VALUE: mbedtls_ssl_set_mtu:mtu <- $r1
	.loc	1 4219 14 prologue_end          @ ../../../components/network/thread/subg_openthread/third_party/mbedtls/repo/library/ssl_tls.c:4219:14
	strh.w	r1, [r0, #204]
	.loc	1 4220 1                        @ ../../../components/network/thread/subg_openthread/third_party/mbedtls/repo/library/ssl_tls.c:4220:1
	bx	lr
.Ltmp474:
.Lfunc_end31:
	.size	mbedtls_ssl_set_mtu, .Lfunc_end31-mbedtls_ssl_set_mtu
	.cfi_endproc
	.cantunwind
	.fnend
                                        @ -- End function
	.section	.text.mbedtls_ssl_conf_read_timeout,"ax",%progbits
	.hidden	mbedtls_ssl_conf_read_timeout   @ -- Begin function mbedtls_ssl_conf_read_timeout
	.globl	mbedtls_ssl_conf_read_timeout
	.p2align	1
	.type	mbedtls_ssl_conf_read_timeout,%function
	.code	16                              @ @mbedtls_ssl_conf_read_timeout
	.thumb_func
mbedtls_ssl_conf_read_timeout:
.Lfunc_begin32:
	.loc	1 4224 0                        @ ../../../components/network/thread/subg_openthread/third_party/mbedtls/repo/library/ssl_tls.c:4224:0
	.fnstart
	.cfi_startproc
@ %bb.0:
	@DEBUG_VALUE: mbedtls_ssl_conf_read_timeout:conf <- $r0
	@DEBUG_VALUE: mbedtls_ssl_conf_read_timeout:conf <- $r0
	@DEBUG_VALUE: mbedtls_ssl_conf_read_timeout:timeout <- $r1
	@DEBUG_VALUE: mbedtls_ssl_conf_read_timeout:timeout <- $r1
	.loc	1 4225 26 prologue_end          @ ../../../components/network/thread/subg_openthread/third_party/mbedtls/repo/library/ssl_tls.c:4225:26
	str	r1, [r0, #12]
	.loc	1 4226 1                        @ ../../../components/network/thread/subg_openthread/third_party/mbedtls/repo/library/ssl_tls.c:4226:1
	bx	lr
.Ltmp475:
.Lfunc_end32:
	.size	mbedtls_ssl_conf_read_timeout, .Lfunc_end32-mbedtls_ssl_conf_read_timeout
	.cfi_endproc
	.cantunwind
	.fnend
                                        @ -- End function
	.section	.text.mbedtls_ssl_set_timer_cb,"ax",%progbits
	.hidden	mbedtls_ssl_set_timer_cb        @ -- Begin function mbedtls_ssl_set_timer_cb
	.globl	mbedtls_ssl_set_timer_cb
	.p2align	1
	.type	mbedtls_ssl_set_timer_cb,%function
	.code	16                              @ @mbedtls_ssl_set_timer_cb
	.thumb_func
mbedtls_ssl_set_timer_cb:
.Lfunc_begin33:
	.loc	1 4232 0                        @ ../../../components/network/thread/subg_openthread/third_party/mbedtls/repo/library/ssl_tls.c:4232:0
	.fnstart
	.cfi_startproc
@ %bb.0:
	@DEBUG_VALUE: mbedtls_ssl_set_timer_cb:ssl <- $r0
	@DEBUG_VALUE: mbedtls_ssl_set_timer_cb:ssl <- $r0
	@DEBUG_VALUE: mbedtls_ssl_set_timer_cb:p_timer <- $r1
	@DEBUG_VALUE: mbedtls_ssl_set_timer_cb:p_timer <- $r1
	@DEBUG_VALUE: mbedtls_ssl_set_timer_cb:f_set_timer <- $r2
	@DEBUG_VALUE: mbedtls_ssl_set_timer_cb:f_set_timer <- $r2
	@DEBUG_VALUE: mbedtls_ssl_set_timer_cb:f_get_timer <- $r3
	@DEBUG_VALUE: mbedtls_ssl_set_timer_cb:f_get_timer <- $r3
	.loc	1 4233 25 prologue_end          @ ../../../components/network/thread/subg_openthread/third_party/mbedtls/repo/library/ssl_tls.c:4233:25
	strd	r1, r2, [r0, #68]
	.loc	1 4238 5                        @ ../../../components/network/thread/subg_openthread/third_party/mbedtls/repo/library/ssl_tls.c:4238:5
	movs	r1, #0
.Ltmp476:
	@DEBUG_VALUE: mbedtls_ssl_set_timer_cb:p_timer <- [DW_OP_LLVM_entry_value 1] $r1
	.loc	1 4235 25                       @ ../../../components/network/thread/subg_openthread/third_party/mbedtls/repo/library/ssl_tls.c:4235:25
	str	r3, [r0, #76]
.Ltmp477:
	.loc	1 4238 5                        @ ../../../components/network/thread/subg_openthread/third_party/mbedtls/repo/library/ssl_tls.c:4238:5
	b	mbedtls_ssl_set_timer
.Ltmp478:
.Lfunc_end33:
	.size	mbedtls_ssl_set_timer_cb, .Lfunc_end33-mbedtls_ssl_set_timer_cb
	.cfi_endproc
	.cantunwind
	.fnend
                                        @ -- End function
	.section	.text.mbedtls_ssl_set_session,"ax",%progbits
	.hidden	mbedtls_ssl_set_session         @ -- Begin function mbedtls_ssl_set_session
	.globl	mbedtls_ssl_set_session
	.p2align	1
	.type	mbedtls_ssl_set_session,%function
	.code	16                              @ @mbedtls_ssl_set_session
	.thumb_func
mbedtls_ssl_set_session:
.Lfunc_begin34:
	.loc	1 4255 0                        @ ../../../components/network/thread/subg_openthread/third_party/mbedtls/repo/library/ssl_tls.c:4255:0
	.fnstart
	.cfi_startproc
@ %bb.0:
	@DEBUG_VALUE: mbedtls_ssl_set_session:ssl <- $r0
	@DEBUG_VALUE: mbedtls_ssl_set_session:session <- $r1
	.save	{r4, r5, r6, lr}
	push	{r4, r5, r6, lr}
	.cfi_def_cfa_offset 16
	.cfi_offset lr, -4
	.cfi_offset r6, -8
	.cfi_offset r5, -12
	.cfi_offset r4, -16
	mov	r4, r0
	@DEBUG_VALUE: mbedtls_ssl_set_session:session <- $r1
.Ltmp479:
	@DEBUG_VALUE: mbedtls_ssl_set_session:ssl <- $r4
	.loc	1 4258 21 prologue_end          @ ../../../components/network/thread/subg_openthread/third_party/mbedtls/repo/library/ssl_tls.c:4258:21
	cmp	r0, #0
	movw	r0, #36608
	movt	r0, #65535
.Ltmp480:
	@DEBUG_VALUE: mbedtls_ssl_set_session:ret <- -110
	beq	.LBB34_4
.Ltmp481:
@ %bb.1:
	@DEBUG_VALUE: mbedtls_ssl_set_session:ssl <- $r4
	@DEBUG_VALUE: mbedtls_ssl_set_session:session <- $r1
	@DEBUG_VALUE: mbedtls_ssl_set_session:ret <- -110
	.loc	1 0 21 is_stmt 0                @ ../../../components/network/thread/subg_openthread/third_party/mbedtls/repo/library/ssl_tls.c:0:21
	mov	r5, r1
.Ltmp482:
	@DEBUG_VALUE: mbedtls_ssl_set_session:session <- $r5
	.loc	1 4258 21                       @ ../../../components/network/thread/subg_openthread/third_party/mbedtls/repo/library/ssl_tls.c:4258:21
	cbz	r1, .LBB34_4
.Ltmp483:
@ %bb.2:
	@DEBUG_VALUE: mbedtls_ssl_set_session:session <- $r5
	@DEBUG_VALUE: mbedtls_ssl_set_session:ssl <- $r4
	@DEBUG_VALUE: mbedtls_ssl_set_session:ret <- -110
	.loc	1 4260 14 is_stmt 1             @ ../../../components/network/thread/subg_openthread/third_party/mbedtls/repo/library/ssl_tls.c:4260:14
	ldr	r6, [r4, #44]
	.loc	1 4260 40 is_stmt 0             @ ../../../components/network/thread/subg_openthread/third_party/mbedtls/repo/library/ssl_tls.c:4260:40
	cbz	r6, .LBB34_4
.Ltmp484:
@ %bb.3:
	@DEBUG_VALUE: mbedtls_ssl_set_session:session <- $r5
	@DEBUG_VALUE: mbedtls_ssl_set_session:ssl <- $r4
	@DEBUG_VALUE: mbedtls_ssl_set_session:ret <- -110
	.loc	1 4261 14 is_stmt 1             @ ../../../components/network/thread/subg_openthread/third_party/mbedtls/repo/library/ssl_tls.c:4261:14
	ldr	r1, [r4]
	.loc	1 4261 20 is_stmt 0             @ ../../../components/network/thread/subg_openthread/third_party/mbedtls/repo/library/ssl_tls.c:4261:20
	ldrb	r1, [r1, #4]
.Ltmp485:
	.loc	1 4258 9 is_stmt 1              @ ../../../components/network/thread/subg_openthread/third_party/mbedtls/repo/library/ssl_tls.c:4258:9
	cbz	r1, .LBB34_5
.Ltmp486:
.LBB34_4:
	@DEBUG_VALUE: mbedtls_ssl_set_session:ssl <- $r4
	@DEBUG_VALUE: mbedtls_ssl_set_session:ret <- -110
	.loc	1 4273 1                        @ ../../../components/network/thread/subg_openthread/third_party/mbedtls/repo/library/ssl_tls.c:4273:1
	pop	{r4, r5, r6, pc}
.Ltmp487:
.LBB34_5:
	@DEBUG_VALUE: mbedtls_ssl_set_session:session <- $r5
	@DEBUG_VALUE: mbedtls_ssl_set_session:ssl <- $r4
	@DEBUG_VALUE: mbedtls_ssl_set_session:ret <- -110
	@DEBUG_VALUE: mbedtls_ssl_session_copy:dst <- $r6
	@DEBUG_VALUE: mbedtls_ssl_session_copy:src <- $r5
	@DEBUG_VALUE: mbedtls_ssl_session_free:session <- $r6
	.loc	1 6164 5                        @ ../../../components/network/thread/subg_openthread/third_party/mbedtls/repo/library/ssl_tls.c:6164:5
	mov	r0, r6
	movs	r1, #100
	bl	mbedtls_platform_zeroize
.Ltmp488:
	.loc	1 189 5                         @ ../../../components/network/thread/subg_openthread/third_party/mbedtls/repo/library/ssl_tls.c:189:5
	mov	r0, r6
	mov	r1, r5
	movs	r2, #100
	bl	__aeabi_memcpy4
.Ltmp489:
	@DEBUG_VALUE: mbedtls_ssl_set_session:ret <- 0
	.loc	1 4270 10                       @ ../../../components/network/thread/subg_openthread/third_party/mbedtls/repo/library/ssl_tls.c:4270:10
	ldr	r0, [r4, #48]
	movs	r1, #1
	.loc	1 4270 28 is_stmt 0             @ ../../../components/network/thread/subg_openthread/third_party/mbedtls/repo/library/ssl_tls.c:4270:28
	strb	r1, [r0, #2]
	movs	r0, #0
	.loc	1 4273 1 is_stmt 1              @ ../../../components/network/thread/subg_openthread/third_party/mbedtls/repo/library/ssl_tls.c:4273:1
	pop	{r4, r5, r6, pc}
.Ltmp490:
.Lfunc_end34:
	.size	mbedtls_ssl_set_session, .Lfunc_end34-mbedtls_ssl_set_session
	.cfi_endproc
	.cantunwind
	.fnend
                                        @ -- End function
	.section	.text.mbedtls_ssl_conf_ciphersuites,"ax",%progbits
	.hidden	mbedtls_ssl_conf_ciphersuites   @ -- Begin function mbedtls_ssl_conf_ciphersuites
	.globl	mbedtls_ssl_conf_ciphersuites
	.p2align	1
	.type	mbedtls_ssl_conf_ciphersuites,%function
	.code	16                              @ @mbedtls_ssl_conf_ciphersuites
	.thumb_func
mbedtls_ssl_conf_ciphersuites:
.Lfunc_begin35:
	.loc	1 4278 0                        @ ../../../components/network/thread/subg_openthread/third_party/mbedtls/repo/library/ssl_tls.c:4278:0
	.fnstart
	.cfi_startproc
@ %bb.0:
	@DEBUG_VALUE: mbedtls_ssl_conf_ciphersuites:conf <- $r0
	@DEBUG_VALUE: mbedtls_ssl_conf_ciphersuites:conf <- $r0
	@DEBUG_VALUE: mbedtls_ssl_conf_ciphersuites:ciphersuites <- $r1
	@DEBUG_VALUE: mbedtls_ssl_conf_ciphersuites:ciphersuites <- $r1
	.loc	1 4279 57 prologue_end          @ ../../../components/network/thread/subg_openthread/third_party/mbedtls/repo/library/ssl_tls.c:4279:57
	strd	r1, r1, [r0, #24]
	.loc	1 4281 57                       @ ../../../components/network/thread/subg_openthread/third_party/mbedtls/repo/library/ssl_tls.c:4281:57
	strd	r1, r1, [r0, #32]
	.loc	1 4283 1                        @ ../../../components/network/thread/subg_openthread/third_party/mbedtls/repo/library/ssl_tls.c:4283:1
	bx	lr
.Ltmp491:
.Lfunc_end35:
	.size	mbedtls_ssl_conf_ciphersuites, .Lfunc_end35-mbedtls_ssl_conf_ciphersuites
	.cfi_endproc
	.cantunwind
	.fnend
                                        @ -- End function
	.section	.text.mbedtls_ssl_conf_ciphersuites_for_version,"ax",%progbits
	.hidden	mbedtls_ssl_conf_ciphersuites_for_version @ -- Begin function mbedtls_ssl_conf_ciphersuites_for_version
	.globl	mbedtls_ssl_conf_ciphersuites_for_version
	.p2align	1
	.type	mbedtls_ssl_conf_ciphersuites_for_version,%function
	.code	16                              @ @mbedtls_ssl_conf_ciphersuites_for_version
	.thumb_func
mbedtls_ssl_conf_ciphersuites_for_version:
.Lfunc_begin36:
	.loc	1 4288 0                        @ ../../../components/network/thread/subg_openthread/third_party/mbedtls/repo/library/ssl_tls.c:4288:0
	.fnstart
	.cfi_startproc
@ %bb.0:
	@DEBUG_VALUE: mbedtls_ssl_conf_ciphersuites_for_version:conf <- $r0
	@DEBUG_VALUE: mbedtls_ssl_conf_ciphersuites_for_version:ciphersuites <- $r1
	@DEBUG_VALUE: mbedtls_ssl_conf_ciphersuites_for_version:ciphersuites <- $r1
	@DEBUG_VALUE: mbedtls_ssl_conf_ciphersuites_for_version:major <- $r2
	@DEBUG_VALUE: mbedtls_ssl_conf_ciphersuites_for_version:major <- $r2
	@DEBUG_VALUE: mbedtls_ssl_conf_ciphersuites_for_version:minor <- $r3
	@DEBUG_VALUE: mbedtls_ssl_conf_ciphersuites_for_version:minor <- $r3
	.loc	1 4289 9 prologue_end           @ ../../../components/network/thread/subg_openthread/third_party/mbedtls/repo/library/ssl_tls.c:4289:9
	cmp	r2, #3
	@DEBUG_VALUE: mbedtls_ssl_conf_ciphersuites_for_version:conf <- $r0
	.loc	1 4296 1                        @ ../../../components/network/thread/subg_openthread/third_party/mbedtls/repo/library/ssl_tls.c:4296:1
	it	ne
	bxne	lr
.Ltmp492:
.LBB36_1:
	@DEBUG_VALUE: mbedtls_ssl_conf_ciphersuites_for_version:minor <- $r3
	@DEBUG_VALUE: mbedtls_ssl_conf_ciphersuites_for_version:major <- $r2
	@DEBUG_VALUE: mbedtls_ssl_conf_ciphersuites_for_version:ciphersuites <- $r1
	@DEBUG_VALUE: mbedtls_ssl_conf_ciphersuites_for_version:conf <- $r0
	.loc	1 4289 9                        @ ../../../components/network/thread/subg_openthread/third_party/mbedtls/repo/library/ssl_tls.c:4289:9
	cmp	r3, #3
	.loc	1 4295 5                        @ ../../../components/network/thread/subg_openthread/third_party/mbedtls/repo/library/ssl_tls.c:4295:5
	itt	ls
	addls.w	r0, r0, r3, lsl #2
.Ltmp493:
	@DEBUG_VALUE: mbedtls_ssl_conf_ciphersuites_for_version:conf <- [DW_OP_LLVM_entry_value 1] $r0
	.loc	1 4295 35 is_stmt 0             @ ../../../components/network/thread/subg_openthread/third_party/mbedtls/repo/library/ssl_tls.c:4295:35
	strls	r1, [r0, #24]
	.loc	1 4296 1 is_stmt 1              @ ../../../components/network/thread/subg_openthread/third_party/mbedtls/repo/library/ssl_tls.c:4296:1
	bx	lr
.Ltmp494:
.Lfunc_end36:
	.size	mbedtls_ssl_conf_ciphersuites_for_version, .Lfunc_end36-mbedtls_ssl_conf_ciphersuites_for_version
	.cfi_endproc
	.cantunwind
	.fnend
                                        @ -- End function
	.section	.text.mbedtls_ssl_set_hs_ecjpake_password,"ax",%progbits
	.hidden	mbedtls_ssl_set_hs_ecjpake_password @ -- Begin function mbedtls_ssl_set_hs_ecjpake_password
	.globl	mbedtls_ssl_set_hs_ecjpake_password
	.p2align	1
	.type	mbedtls_ssl_set_hs_ecjpake_password,%function
	.code	16                              @ @mbedtls_ssl_set_hs_ecjpake_password
	.thumb_func
mbedtls_ssl_set_hs_ecjpake_password:
.Lfunc_begin37:
	.loc	1 4415 0                        @ ../../../components/network/thread/subg_openthread/third_party/mbedtls/repo/library/ssl_tls.c:4415:0
	.fnstart
	.cfi_startproc
@ %bb.0:
	@DEBUG_VALUE: mbedtls_ssl_set_hs_ecjpake_password:ssl <- $r0
	@DEBUG_VALUE: mbedtls_ssl_set_hs_ecjpake_password:ssl <- $r0
	@DEBUG_VALUE: mbedtls_ssl_set_hs_ecjpake_password:pw <- $r1
	@DEBUG_VALUE: mbedtls_ssl_set_hs_ecjpake_password:pw_len <- $r2
	.save	{r7, lr}
	push	{r7, lr}
	.cfi_def_cfa_offset 8
	.cfi_offset lr, -4
	.cfi_offset r7, -8
	.pad	#8
	sub	sp, #8
	.cfi_def_cfa_offset 16
.Ltmp495:
	.loc	1 4418 14 prologue_end          @ ../../../components/network/thread/subg_openthread/third_party/mbedtls/repo/library/ssl_tls.c:4418:14
	ldr	r3, [r0, #48]
	@DEBUG_VALUE: mbedtls_ssl_set_hs_ecjpake_password:pw_len <- $r2
	@DEBUG_VALUE: mbedtls_ssl_set_hs_ecjpake_password:pw <- $r1
	.loc	1 4418 32 is_stmt 0             @ ../../../components/network/thread/subg_openthread/third_party/mbedtls/repo/library/ssl_tls.c:4418:32
	cbz	r3, .LBB37_3
.Ltmp496:
@ %bb.1:
	@DEBUG_VALUE: mbedtls_ssl_set_hs_ecjpake_password:pw_len <- $r2
	@DEBUG_VALUE: mbedtls_ssl_set_hs_ecjpake_password:pw <- $r1
	@DEBUG_VALUE: mbedtls_ssl_set_hs_ecjpake_password:ssl <- $r0
	@DEBUG_VALUE: mbedtls_ssl_set_hs_ecjpake_password:pw_len <- $r2
	.loc	1 4418 40                       @ ../../../components/network/thread/subg_openthread/third_party/mbedtls/repo/library/ssl_tls.c:4418:40
	ldr	r0, [r0]
.Ltmp497:
	@DEBUG_VALUE: mbedtls_ssl_set_hs_ecjpake_password:ssl <- [DW_OP_LLVM_entry_value 1] $r0
	.loc	1 4418 9                        @ ../../../components/network/thread/subg_openthread/third_party/mbedtls/repo/library/ssl_tls.c:4418:9
	cbz	r0, .LBB37_3
.Ltmp498:
@ %bb.2:
	@DEBUG_VALUE: mbedtls_ssl_set_hs_ecjpake_password:pw_len <- $r2
	@DEBUG_VALUE: mbedtls_ssl_set_hs_ecjpake_password:pw <- $r1
	@DEBUG_VALUE: mbedtls_ssl_set_hs_ecjpake_password:ssl <- [DW_OP_LLVM_entry_value 1] $r0
	.loc	1 4421 20 is_stmt 1             @ ../../../components/network/thread/subg_openthread/third_party/mbedtls/repo/library/ssl_tls.c:4421:20
	ldrb	r0, [r0, #4]
	mov	r12, r2
.Ltmp499:
	@DEBUG_VALUE: mbedtls_ssl_set_hs_ecjpake_password:pw_len <- $r12
	.loc	1 4421 29 is_stmt 0             @ ../../../components/network/thread/subg_openthread/third_party/mbedtls/repo/library/ssl_tls.c:4421:29
	subs	r0, #1
	clz	r0, r0
	lsrs	r2, r0, #5
.Ltmp500:
	@DEBUG_VALUE: mbedtls_ssl_set_hs_ecjpake_password:role <- $r2
	.loc	1 4426 53 is_stmt 1             @ ../../../components/network/thread/subg_openthread/third_party/mbedtls/repo/library/ssl_tls.c:4426:53
	add.w	r0, r3, #264
	.loc	1 4426 13 is_stmt 0             @ ../../../components/network/thread/subg_openthread/third_party/mbedtls/repo/library/ssl_tls.c:4426:13
	str	r1, [sp]
	mov	r1, r2
.Ltmp501:
	@DEBUG_VALUE: mbedtls_ssl_set_hs_ecjpake_password:pw <- [DW_OP_LLVM_entry_value 1] $r1
	movs	r2, #6
.Ltmp502:
	movs	r3, #3
	str.w	r12, [sp, #4]
	bl	mbedtls_ecjpake_setup
.Ltmp503:
	.loc	1 0 13                          @ ../../../components/network/thread/subg_openthread/third_party/mbedtls/repo/library/ssl_tls.c:0:13
	b	.LBB37_4
.Ltmp504:
.LBB37_3:
	@DEBUG_VALUE: mbedtls_ssl_set_hs_ecjpake_password:pw_len <- $r2
	@DEBUG_VALUE: mbedtls_ssl_set_hs_ecjpake_password:pw <- $r1
	movw	r0, #36608
	movt	r0, #65535
.Ltmp505:
.LBB37_4:
	.loc	1 4431 1 is_stmt 1              @ ../../../components/network/thread/subg_openthread/third_party/mbedtls/repo/library/ssl_tls.c:4431:1
	add	sp, #8
	pop	{r7, pc}
.Ltmp506:
.Lfunc_end37:
	.size	mbedtls_ssl_set_hs_ecjpake_password, .Lfunc_end37-mbedtls_ssl_set_hs_ecjpake_password
	.cfi_endproc
	.cantunwind
	.fnend
                                        @ -- End function
	.section	.text.mbedtls_ssl_conf_curves,"ax",%progbits
	.hidden	mbedtls_ssl_conf_curves         @ -- Begin function mbedtls_ssl_conf_curves
	.globl	mbedtls_ssl_conf_curves
	.p2align	1
	.type	mbedtls_ssl_conf_curves,%function
	.code	16                              @ @mbedtls_ssl_conf_curves
	.thumb_func
mbedtls_ssl_conf_curves:
.Lfunc_begin38:
	.loc	1 4690 0                        @ ../../../components/network/thread/subg_openthread/third_party/mbedtls/repo/library/ssl_tls.c:4690:0
	.fnstart
	.cfi_startproc
@ %bb.0:
	@DEBUG_VALUE: mbedtls_ssl_conf_curves:conf <- $r0
	@DEBUG_VALUE: mbedtls_ssl_conf_curves:conf <- $r0
	@DEBUG_VALUE: mbedtls_ssl_conf_curves:curve_list <- $r1
	@DEBUG_VALUE: mbedtls_ssl_conf_curves:curve_list <- $r1
	.loc	1 4691 22 prologue_end          @ ../../../components/network/thread/subg_openthread/third_party/mbedtls/repo/library/ssl_tls.c:4691:22
	str	r1, [r0, #80]
	.loc	1 4692 1                        @ ../../../components/network/thread/subg_openthread/third_party/mbedtls/repo/library/ssl_tls.c:4692:1
	bx	lr
.Ltmp507:
.Lfunc_end38:
	.size	mbedtls_ssl_conf_curves, .Lfunc_end38-mbedtls_ssl_conf_curves
	.cfi_endproc
	.cantunwind
	.fnend
                                        @ -- End function
	.section	.text.mbedtls_ssl_conf_max_version,"ax",%progbits
	.hidden	mbedtls_ssl_conf_max_version    @ -- Begin function mbedtls_ssl_conf_max_version
	.globl	mbedtls_ssl_conf_max_version
	.p2align	1
	.type	mbedtls_ssl_conf_max_version,%function
	.code	16                              @ @mbedtls_ssl_conf_max_version
	.thumb_func
mbedtls_ssl_conf_max_version:
.Lfunc_begin39:
	.loc	1 4867 0                        @ ../../../components/network/thread/subg_openthread/third_party/mbedtls/repo/library/ssl_tls.c:4867:0
	.fnstart
	.cfi_startproc
@ %bb.0:
	@DEBUG_VALUE: mbedtls_ssl_conf_max_version:conf <- $r0
	@DEBUG_VALUE: mbedtls_ssl_conf_max_version:conf <- $r0
	@DEBUG_VALUE: mbedtls_ssl_conf_max_version:major <- $r1
	@DEBUG_VALUE: mbedtls_ssl_conf_max_version:major <- $r1
	@DEBUG_VALUE: mbedtls_ssl_conf_max_version:minor <- $r2
	@DEBUG_VALUE: mbedtls_ssl_conf_max_version:minor <- $r2
	.loc	1 4868 25 prologue_end          @ ../../../components/network/thread/subg_openthread/third_party/mbedtls/repo/library/ssl_tls.c:4868:25
	strb	r1, [r0]
	.loc	1 4869 25                       @ ../../../components/network/thread/subg_openthread/third_party/mbedtls/repo/library/ssl_tls.c:4869:25
	strb	r2, [r0, #1]
	.loc	1 4870 1                        @ ../../../components/network/thread/subg_openthread/third_party/mbedtls/repo/library/ssl_tls.c:4870:1
	bx	lr
.Ltmp508:
.Lfunc_end39:
	.size	mbedtls_ssl_conf_max_version, .Lfunc_end39-mbedtls_ssl_conf_max_version
	.cfi_endproc
	.cantunwind
	.fnend
                                        @ -- End function
	.section	.text.mbedtls_ssl_conf_min_version,"ax",%progbits
	.hidden	mbedtls_ssl_conf_min_version    @ -- Begin function mbedtls_ssl_conf_min_version
	.globl	mbedtls_ssl_conf_min_version
	.p2align	1
	.type	mbedtls_ssl_conf_min_version,%function
	.code	16                              @ @mbedtls_ssl_conf_min_version
	.thumb_func
mbedtls_ssl_conf_min_version:
.Lfunc_begin40:
	.loc	1 4873 0                        @ ../../../components/network/thread/subg_openthread/third_party/mbedtls/repo/library/ssl_tls.c:4873:0
	.fnstart
	.cfi_startproc
@ %bb.0:
	@DEBUG_VALUE: mbedtls_ssl_conf_min_version:conf <- $r0
	@DEBUG_VALUE: mbedtls_ssl_conf_min_version:conf <- $r0
	@DEBUG_VALUE: mbedtls_ssl_conf_min_version:major <- $r1
	@DEBUG_VALUE: mbedtls_ssl_conf_min_version:major <- $r1
	@DEBUG_VALUE: mbedtls_ssl_conf_min_version:minor <- $r2
	@DEBUG_VALUE: mbedtls_ssl_conf_min_version:minor <- $r2
	.loc	1 4874 25 prologue_end          @ ../../../components/network/thread/subg_openthread/third_party/mbedtls/repo/library/ssl_tls.c:4874:25
	strb	r1, [r0, #2]
	.loc	1 4875 25                       @ ../../../components/network/thread/subg_openthread/third_party/mbedtls/repo/library/ssl_tls.c:4875:25
	strb	r2, [r0, #3]
	.loc	1 4876 1                        @ ../../../components/network/thread/subg_openthread/third_party/mbedtls/repo/library/ssl_tls.c:4876:1
	bx	lr
.Ltmp509:
.Lfunc_end40:
	.size	mbedtls_ssl_conf_min_version, .Lfunc_end40-mbedtls_ssl_conf_min_version
	.cfi_endproc
	.cantunwind
	.fnend
                                        @ -- End function
	.section	.text.mbedtls_ssl_conf_max_frag_len,"ax",%progbits
	.hidden	mbedtls_ssl_conf_max_frag_len   @ -- Begin function mbedtls_ssl_conf_max_frag_len
	.globl	mbedtls_ssl_conf_max_frag_len
	.p2align	1
	.type	mbedtls_ssl_conf_max_frag_len,%function
	.code	16                              @ @mbedtls_ssl_conf_max_frag_len
	.thumb_func
mbedtls_ssl_conf_max_frag_len:
.Lfunc_begin41:
	.loc	1 4916 0                        @ ../../../components/network/thread/subg_openthread/third_party/mbedtls/repo/library/ssl_tls.c:4916:0
	.fnstart
	.cfi_startproc
@ %bb.0:
	@DEBUG_VALUE: mbedtls_ssl_conf_max_frag_len:conf <- $r0
	@DEBUG_VALUE: mbedtls_ssl_conf_max_frag_len:mfl_code <- $r1
	mov	r2, r0
	@DEBUG_VALUE: mbedtls_ssl_conf_max_frag_len:mfl_code <- $r1
.Ltmp510:
	@DEBUG_VALUE: mbedtls_ssl_conf_max_frag_len:conf <- $r2
	movw	r0, #36608
.Ltmp511:
	.loc	1 4917 54 prologue_end          @ ../../../components/network/thread/subg_openthread/third_party/mbedtls/repo/library/ssl_tls.c:4917:54
	cmp	r1, #4
	movt	r0, #65535
.Ltmp512:
	.loc	1 4926 1                        @ ../../../components/network/thread/subg_openthread/third_party/mbedtls/repo/library/ssl_tls.c:4926:1
	it	hi
	bxhi	lr
.Ltmp513:
.LBB41_1:
	@DEBUG_VALUE: mbedtls_ssl_conf_max_frag_len:conf <- $r2
	@DEBUG_VALUE: mbedtls_ssl_conf_max_frag_len:mfl_code <- $r1
	.loc	1 0 1 is_stmt 0                 @ ../../../components/network/thread/subg_openthread/third_party/mbedtls/repo/library/ssl_tls.c:0:1
	subs	r3, r1, #2
.Ltmp514:
	.loc	1 4917 54 is_stmt 1             @ ../../../components/network/thread/subg_openthread/third_party/mbedtls/repo/library/ssl_tls.c:4917:54
	cmp	r3, #3
.Ltmp515:
	.loc	1 4923 20                       @ ../../../components/network/thread/subg_openthread/third_party/mbedtls/repo/library/ssl_tls.c:4923:20
	itt	hs
	strbhs	r1, [r2, #8]
	movhs	r0, #0
	.loc	1 4926 1                        @ ../../../components/network/thread/subg_openthread/third_party/mbedtls/repo/library/ssl_tls.c:4926:1
	bx	lr
.Ltmp516:
.Lfunc_end41:
	.size	mbedtls_ssl_conf_max_frag_len, .Lfunc_end41-mbedtls_ssl_conf_max_frag_len
	.cfi_endproc
	.cantunwind
	.fnend
                                        @ -- End function
	.section	.text.mbedtls_ssl_conf_legacy_renegotiation,"ax",%progbits
	.hidden	mbedtls_ssl_conf_legacy_renegotiation @ -- Begin function mbedtls_ssl_conf_legacy_renegotiation
	.globl	mbedtls_ssl_conf_legacy_renegotiation
	.p2align	1
	.type	mbedtls_ssl_conf_legacy_renegotiation,%function
	.code	16                              @ @mbedtls_ssl_conf_legacy_renegotiation
	.thumb_func
mbedtls_ssl_conf_legacy_renegotiation:
.Lfunc_begin42:
	.loc	1 4944 0                        @ ../../../components/network/thread/subg_openthread/third_party/mbedtls/repo/library/ssl_tls.c:4944:0
	.fnstart
	.cfi_startproc
@ %bb.0:
	@DEBUG_VALUE: mbedtls_ssl_conf_legacy_renegotiation:conf <- $r0
	@DEBUG_VALUE: mbedtls_ssl_conf_legacy_renegotiation:conf <- $r0
	@DEBUG_VALUE: mbedtls_ssl_conf_legacy_renegotiation:allow_legacy <- $r1
	@DEBUG_VALUE: mbedtls_ssl_conf_legacy_renegotiation:allow_legacy <- $r1
	.loc	1 4945 38 prologue_end          @ ../../../components/network/thread/subg_openthread/third_party/mbedtls/repo/library/ssl_tls.c:4945:38
	strb	r1, [r0, #7]
	.loc	1 4946 1                        @ ../../../components/network/thread/subg_openthread/third_party/mbedtls/repo/library/ssl_tls.c:4946:1
	bx	lr
.Ltmp517:
.Lfunc_end42:
	.size	mbedtls_ssl_conf_legacy_renegotiation, .Lfunc_end42-mbedtls_ssl_conf_legacy_renegotiation
	.cfi_endproc
	.cantunwind
	.fnend
                                        @ -- End function
	.section	.text.mbedtls_ssl_conf_export_keys_cb,"ax",%progbits
	.hidden	mbedtls_ssl_conf_export_keys_cb @ -- Begin function mbedtls_ssl_conf_export_keys_cb
	.globl	mbedtls_ssl_conf_export_keys_cb
	.p2align	1
	.type	mbedtls_ssl_conf_export_keys_cb,%function
	.code	16                              @ @mbedtls_ssl_conf_export_keys_cb
	.thumb_func
mbedtls_ssl_conf_export_keys_cb:
.Lfunc_begin43:
	.loc	1 4991 0                        @ ../../../components/network/thread/subg_openthread/third_party/mbedtls/repo/library/ssl_tls.c:4991:0
	.fnstart
	.cfi_startproc
@ %bb.0:
	@DEBUG_VALUE: mbedtls_ssl_conf_export_keys_cb:conf <- $r0
	@DEBUG_VALUE: mbedtls_ssl_conf_export_keys_cb:conf <- $r0
	@DEBUG_VALUE: mbedtls_ssl_conf_export_keys_cb:f_export_keys <- $r1
	@DEBUG_VALUE: mbedtls_ssl_conf_export_keys_cb:f_export_keys <- $r1
	@DEBUG_VALUE: mbedtls_ssl_conf_export_keys_cb:p_export_keys <- $r2
	@DEBUG_VALUE: mbedtls_ssl_conf_export_keys_cb:p_export_keys <- $r2
	.loc	1 4992 25 prologue_end          @ ../../../components/network/thread/subg_openthread/third_party/mbedtls/repo/library/ssl_tls.c:4992:25
	str	r1, [r0, #68]
	.loc	1 4993 25                       @ ../../../components/network/thread/subg_openthread/third_party/mbedtls/repo/library/ssl_tls.c:4993:25
	str	r2, [r0, #76]
	.loc	1 4994 1                        @ ../../../components/network/thread/subg_openthread/third_party/mbedtls/repo/library/ssl_tls.c:4994:1
	bx	lr
.Ltmp518:
.Lfunc_end43:
	.size	mbedtls_ssl_conf_export_keys_cb, .Lfunc_end43-mbedtls_ssl_conf_export_keys_cb
	.cfi_endproc
	.cantunwind
	.fnend
                                        @ -- End function
	.section	.text.mbedtls_ssl_conf_export_keys_ext_cb,"ax",%progbits
	.hidden	mbedtls_ssl_conf_export_keys_ext_cb @ -- Begin function mbedtls_ssl_conf_export_keys_ext_cb
	.globl	mbedtls_ssl_conf_export_keys_ext_cb
	.p2align	1
	.type	mbedtls_ssl_conf_export_keys_ext_cb,%function
	.code	16                              @ @mbedtls_ssl_conf_export_keys_ext_cb
	.thumb_func
mbedtls_ssl_conf_export_keys_ext_cb:
.Lfunc_begin44:
	.loc	1 4999 0                        @ ../../../components/network/thread/subg_openthread/third_party/mbedtls/repo/library/ssl_tls.c:4999:0
	.fnstart
	.cfi_startproc
@ %bb.0:
	@DEBUG_VALUE: mbedtls_ssl_conf_export_keys_ext_cb:conf <- $r0
	@DEBUG_VALUE: mbedtls_ssl_conf_export_keys_ext_cb:conf <- $r0
	@DEBUG_VALUE: mbedtls_ssl_conf_export_keys_ext_cb:f_export_keys_ext <- $r1
	@DEBUG_VALUE: mbedtls_ssl_conf_export_keys_ext_cb:f_export_keys_ext <- $r1
	@DEBUG_VALUE: mbedtls_ssl_conf_export_keys_ext_cb:p_export_keys <- $r2
	@DEBUG_VALUE: mbedtls_ssl_conf_export_keys_ext_cb:p_export_keys <- $r2
	.loc	1 5000 29 prologue_end          @ ../../../components/network/thread/subg_openthread/third_party/mbedtls/repo/library/ssl_tls.c:5000:29
	strd	r1, r2, [r0, #72]
	.loc	1 5002 1                        @ ../../../components/network/thread/subg_openthread/third_party/mbedtls/repo/library/ssl_tls.c:5002:1
	bx	lr
.Ltmp519:
.Lfunc_end44:
	.size	mbedtls_ssl_conf_export_keys_ext_cb, .Lfunc_end44-mbedtls_ssl_conf_export_keys_ext_cb
	.cfi_endproc
	.cantunwind
	.fnend
                                        @ -- End function
	.section	.text.mbedtls_ssl_get_verify_result,"ax",%progbits
	.hidden	mbedtls_ssl_get_verify_result   @ -- Begin function mbedtls_ssl_get_verify_result
	.globl	mbedtls_ssl_get_verify_result
	.p2align	1
	.type	mbedtls_ssl_get_verify_result,%function
	.code	16                              @ @mbedtls_ssl_get_verify_result
	.thumb_func
mbedtls_ssl_get_verify_result:
.Lfunc_begin45:
	.loc	1 5046 0                        @ ../../../components/network/thread/subg_openthread/third_party/mbedtls/repo/library/ssl_tls.c:5046:0
	.fnstart
	.cfi_startproc
@ %bb.0:
	@DEBUG_VALUE: mbedtls_ssl_get_verify_result:ssl <- $r0
	@DEBUG_VALUE: mbedtls_ssl_get_verify_result:ssl <- $r0
	.loc	1 5047 14 prologue_end          @ ../../../components/network/thread/subg_openthread/third_party/mbedtls/repo/library/ssl_tls.c:5047:14
	ldr	r1, [r0, #40]
.Ltmp520:
	.loc	1 5047 9 is_stmt 0              @ ../../../components/network/thread/subg_openthread/third_party/mbedtls/repo/library/ssl_tls.c:5047:9
	cbnz	r1, .LBB45_2
.Ltmp521:
@ %bb.1:
	@DEBUG_VALUE: mbedtls_ssl_get_verify_result:ssl <- $r0
	.loc	1 5050 14 is_stmt 1             @ ../../../components/network/thread/subg_openthread/third_party/mbedtls/repo/library/ssl_tls.c:5050:14
	ldr	r1, [r0, #44]
.Ltmp522:
	.loc	1 5050 9 is_stmt 0              @ ../../../components/network/thread/subg_openthread/third_party/mbedtls/repo/library/ssl_tls.c:5050:9
	cbz	r1, .LBB45_3
.Ltmp523:
.LBB45_2:
	@DEBUG_VALUE: mbedtls_ssl_get_verify_result:ssl <- $r0
	.loc	1 0 0                           @ ../../../components/network/thread/subg_openthread/third_party/mbedtls/repo/library/ssl_tls.c:0:0
	ldr	r0, [r1, #96]
.Ltmp524:
	@DEBUG_VALUE: mbedtls_ssl_get_verify_result:ssl <- [DW_OP_LLVM_entry_value 1] $r0
	.loc	1 5054 1 is_stmt 1              @ ../../../components/network/thread/subg_openthread/third_party/mbedtls/repo/library/ssl_tls.c:5054:1
	bx	lr
.Ltmp525:
.LBB45_3:
	@DEBUG_VALUE: mbedtls_ssl_get_verify_result:ssl <- $r0
	.loc	1 0 1 is_stmt 0                 @ ../../../components/network/thread/subg_openthread/third_party/mbedtls/repo/library/ssl_tls.c:0:1
	mov.w	r0, #-1
.Ltmp526:
	@DEBUG_VALUE: mbedtls_ssl_get_verify_result:ssl <- [DW_OP_LLVM_entry_value 1] $r0
	.loc	1 5054 1                        @ ../../../components/network/thread/subg_openthread/third_party/mbedtls/repo/library/ssl_tls.c:5054:1
	bx	lr
.Ltmp527:
.Lfunc_end45:
	.size	mbedtls_ssl_get_verify_result, .Lfunc_end45-mbedtls_ssl_get_verify_result
	.cfi_endproc
	.cantunwind
	.fnend
                                        @ -- End function
	.section	.text.mbedtls_ssl_get_ciphersuite,"ax",%progbits
	.hidden	mbedtls_ssl_get_ciphersuite     @ -- Begin function mbedtls_ssl_get_ciphersuite
	.globl	mbedtls_ssl_get_ciphersuite
	.p2align	1
	.type	mbedtls_ssl_get_ciphersuite,%function
	.code	16                              @ @mbedtls_ssl_get_ciphersuite
	.thumb_func
mbedtls_ssl_get_ciphersuite:
.Lfunc_begin46:
	.loc	1 5057 0 is_stmt 1              @ ../../../components/network/thread/subg_openthread/third_party/mbedtls/repo/library/ssl_tls.c:5057:0
	.fnstart
	.cfi_startproc
@ %bb.0:
	@DEBUG_VALUE: mbedtls_ssl_get_ciphersuite:ssl <- $r0
	@DEBUG_VALUE: mbedtls_ssl_get_ciphersuite:ssl <- $r0
	.loc	1 5058 21 prologue_end          @ ../../../components/network/thread/subg_openthread/third_party/mbedtls/repo/library/ssl_tls.c:5058:21
	cbz	r0, .LBB46_3
.Ltmp528:
@ %bb.1:
	@DEBUG_VALUE: mbedtls_ssl_get_ciphersuite:ssl <- $r0
	.loc	1 5058 29 is_stmt 0             @ ../../../components/network/thread/subg_openthread/third_party/mbedtls/repo/library/ssl_tls.c:5058:29
	ldr	r0, [r0, #40]
.Ltmp529:
	@DEBUG_VALUE: mbedtls_ssl_get_ciphersuite:ssl <- [DW_OP_LLVM_entry_value 1] $r0
	.loc	1 5058 9                        @ ../../../components/network/thread/subg_openthread/third_party/mbedtls/repo/library/ssl_tls.c:5058:9
	cbz	r0, .LBB46_3
.Ltmp530:
@ %bb.2:
	@DEBUG_VALUE: mbedtls_ssl_get_ciphersuite:ssl <- [DW_OP_LLVM_entry_value 1] $r0
	.loc	1 5061 60 is_stmt 1             @ ../../../components/network/thread/subg_openthread/third_party/mbedtls/repo/library/ssl_tls.c:5061:60
	ldr	r0, [r0, #4]
.Ltmp531:
	.loc	1 5061 12 is_stmt 0             @ ../../../components/network/thread/subg_openthread/third_party/mbedtls/repo/library/ssl_tls.c:5061:12
	b	mbedtls_ssl_get_ciphersuite_name
.Ltmp532:
.LBB46_3:
	.loc	1 5062 1 is_stmt 1              @ ../../../components/network/thread/subg_openthread/third_party/mbedtls/repo/library/ssl_tls.c:5062:1
	movs	r0, #0
	bx	lr
.Ltmp533:
.Lfunc_end46:
	.size	mbedtls_ssl_get_ciphersuite, .Lfunc_end46-mbedtls_ssl_get_ciphersuite
	.cfi_endproc
	.cantunwind
	.fnend
                                        @ -- End function
	.section	.text.mbedtls_ssl_get_version,"ax",%progbits
	.hidden	mbedtls_ssl_get_version         @ -- Begin function mbedtls_ssl_get_version
	.globl	mbedtls_ssl_get_version
	.p2align	2
	.type	mbedtls_ssl_get_version,%function
	.code	16                              @ @mbedtls_ssl_get_version
	.thumb_func
mbedtls_ssl_get_version:
.Lfunc_begin47:
	.loc	1 5065 0                        @ ../../../components/network/thread/subg_openthread/third_party/mbedtls/repo/library/ssl_tls.c:5065:0
	.fnstart
	.cfi_startproc
@ %bb.0:
	@DEBUG_VALUE: mbedtls_ssl_get_version:ssl <- $r0
	@DEBUG_VALUE: mbedtls_ssl_get_version:ssl <- $r0
	.loc	1 5067 14 prologue_end          @ ../../../components/network/thread/subg_openthread/third_party/mbedtls/repo/library/ssl_tls.c:5067:14
	ldr	r1, [r0]
	.loc	1 5067 20 is_stmt 0             @ ../../../components/network/thread/subg_openthread/third_party/mbedtls/repo/library/ssl_tls.c:5067:20
	ldrb	r2, [r1, #5]
.Ltmp534:
	.loc	1 0 0                           @ ../../../components/network/thread/subg_openthread/third_party/mbedtls/repo/library/ssl_tls.c:0:0
	ldr	r1, [r0, #12]
	.loc	1 5067 9                        @ ../../../components/network/thread/subg_openthread/third_party/mbedtls/repo/library/ssl_tls.c:5067:9
	cmp	r2, #1
	bne	.LBB47_2
.Ltmp535:
@ %bb.1:
	@DEBUG_VALUE: mbedtls_ssl_get_version:ssl <- $r0
	.loc	1 5069 9 is_stmt 1              @ ../../../components/network/thread/subg_openthread/third_party/mbedtls/repo/library/ssl_tls.c:5069:9
	adr	r0, .LCPI47_2
.Ltmp536:
	@DEBUG_VALUE: mbedtls_ssl_get_version:ssl <- [DW_OP_LLVM_entry_value 1] $r0
	adr	r2, .LCPI47_3
	cmp	r1, #3
	it	eq
	moveq	r2, r0
	adr	r0, .LCPI47_4
	cmp	r1, #2
	it	ne
	movne	r0, r2
.Ltmp537:
	.loc	1 0 0 is_stmt 0                 @ ../../../components/network/thread/subg_openthread/third_party/mbedtls/repo/library/ssl_tls.c:0:0
	bx	lr
.Ltmp538:
.LBB47_2:
	@DEBUG_VALUE: mbedtls_ssl_get_version:ssl <- $r0
	.loc	1 5083 5 is_stmt 1              @ ../../../components/network/thread/subg_openthread/third_party/mbedtls/repo/library/ssl_tls.c:5083:5
	cmp	r1, #3
	itee	hi
	adrhi	r0, .LCPI47_0
.Ltmp539:
	@DEBUG_VALUE: mbedtls_ssl_get_version:ssl <- [DW_OP_LLVM_entry_value 1] $r0
	adrls	r0, .LCPI47_1
	ldrls.w	r0, [r0, r1, lsl #2]
	.loc	1 0 0 is_stmt 0                 @ ../../../components/network/thread/subg_openthread/third_party/mbedtls/repo/library/ssl_tls.c:0:0
	bx	lr
.Ltmp540:
	.p2align	2
@ %bb.3:
.LCPI47_0:
.L.str.7:
	.asciz	"unknown"
.LCPI47_1:
.Lswitch.table.mbedtls_ssl_get_version:
	.long	.L.str.3
	.long	.L.str.4
	.long	.L.str.5
	.long	.L.str.6
.LCPI47_2:
.L.str.1:
	.asciz	"DTLSv1.2\000\000\000"
.LCPI47_3:
.L.str.2:
	.asciz	"unknown (DTLS)\000"
.LCPI47_4:
.L.str:
	.asciz	"DTLSv1.0\000\000\000"
.Lfunc_end47:
	.size	mbedtls_ssl_get_version, .Lfunc_end47-mbedtls_ssl_get_version
	.cfi_endproc
	.cantunwind
	.fnend
                                        @ -- End function
	.section	.text.mbedtls_ssl_get_input_max_frag_len,"ax",%progbits
	.hidden	mbedtls_ssl_get_input_max_frag_len @ -- Begin function mbedtls_ssl_get_input_max_frag_len
	.globl	mbedtls_ssl_get_input_max_frag_len
	.p2align	1
	.type	mbedtls_ssl_get_input_max_frag_len,%function
	.code	16                              @ @mbedtls_ssl_get_input_max_frag_len
	.thumb_func
mbedtls_ssl_get_input_max_frag_len:
.Lfunc_begin48:
	.loc	1 5104 0 is_stmt 1              @ ../../../components/network/thread/subg_openthread/third_party/mbedtls/repo/library/ssl_tls.c:5104:0
	.fnstart
	.cfi_startproc
@ %bb.0:
	@DEBUG_VALUE: mbedtls_ssl_get_input_max_frag_len:ssl <- $r0
	mov	r1, r0
.Ltmp541:
	@DEBUG_VALUE: mbedtls_ssl_get_input_max_frag_len:max_len <- 768
	@DEBUG_VALUE: mbedtls_ssl_get_input_max_frag_len:ssl <- $r1
	.loc	1 5109 14 prologue_end          @ ../../../components/network/thread/subg_openthread/third_party/mbedtls/repo/library/ssl_tls.c:5109:14
	ldr	r0, [r0]
	.loc	1 5109 20 is_stmt 0             @ ../../../components/network/thread/subg_openthread/third_party/mbedtls/repo/library/ssl_tls.c:5109:20
	ldrb	r2, [r0, #4]
	.loc	1 5109 54                       @ ../../../components/network/thread/subg_openthread/third_party/mbedtls/repo/library/ssl_tls.c:5109:54
	cbnz	r2, .LBB48_4
.Ltmp542:
@ %bb.1:
	@DEBUG_VALUE: mbedtls_ssl_get_input_max_frag_len:ssl <- $r1
	@DEBUG_VALUE: mbedtls_ssl_get_input_max_frag_len:max_len <- 768
	.loc	1 5110 14 is_stmt 1             @ ../../../components/network/thread/subg_openthread/third_party/mbedtls/repo/library/ssl_tls.c:5110:14
	ldr	r2, [r1, #4]
.Ltmp543:
	.loc	1 5109 9                        @ ../../../components/network/thread/subg_openthread/third_party/mbedtls/repo/library/ssl_tls.c:5109:9
	cmp	r2, #6
	blt	.LBB48_4
.Ltmp544:
@ %bb.2:
	@DEBUG_VALUE: mbedtls_ssl_get_input_max_frag_len:ssl <- $r1
	@DEBUG_VALUE: mbedtls_ssl_get_input_max_frag_len:max_len <- 768
	.loc	1 5112 51                       @ ../../../components/network/thread/subg_openthread/third_party/mbedtls/repo/library/ssl_tls.c:5112:51
	ldrb	r0, [r0, #8]
.Ltmp545:
	@DEBUG_VALUE: ssl_mfl_code_to_length:mfl <- [DW_OP_LLVM_convert 8 5, DW_OP_LLVM_convert 32 5, DW_OP_stack_value] $r0
	.loc	1 167 5                         @ ../../../components/network/thread/subg_openthread/third_party/mbedtls/repo/library/ssl_tls.c:167:5
	subs	r0, #1
.Ltmp546:
	uxtb	r1, r0
.Ltmp547:
	cmp	r1, #4
	itt	hs
	movhs.w	r0, #768
.Ltmp548:
	.loc	1 0 0 is_stmt 0                 @ ../../../components/network/thread/subg_openthread/third_party/mbedtls/repo/library/ssl_tls.c:0:0
	bxhs	lr
.Ltmp549:
.LBB48_3:
	@DEBUG_VALUE: mbedtls_ssl_get_input_max_frag_len:max_len <- 768
	.loc	1 167 5                         @ ../../../components/network/thread/subg_openthread/third_party/mbedtls/repo/library/ssl_tls.c:167:5
	movw	r1, :lower16:.Lswitch.table.mbedtls_ssl_get_output_max_frag_len.14
	sxtb	r0, r0
	movt	r1, :upper16:.Lswitch.table.mbedtls_ssl_get_output_max_frag_len.14
	ldr.w	r0, [r1, r0, lsl #2]
.Ltmp550:
	.loc	1 0 0                           @ ../../../components/network/thread/subg_openthread/third_party/mbedtls/repo/library/ssl_tls.c:0:0
	bx	lr
.Ltmp551:
.LBB48_4:
	@DEBUG_VALUE: mbedtls_ssl_get_input_max_frag_len:ssl <- $r1
	@DEBUG_VALUE: mbedtls_ssl_get_input_max_frag_len:max_len <- 768
	.loc	1 5116 14 is_stmt 1             @ ../../../components/network/thread/subg_openthread/third_party/mbedtls/repo/library/ssl_tls.c:5116:14
	ldr	r2, [r1, #36]
	mov.w	r0, #768
.Ltmp552:
	.loc	1 5116 9 is_stmt 0              @ ../../../components/network/thread/subg_openthread/third_party/mbedtls/repo/library/ssl_tls.c:5116:9
	cbz	r2, .LBB48_6
.Ltmp553:
@ %bb.5:
	@DEBUG_VALUE: mbedtls_ssl_get_input_max_frag_len:ssl <- $r1
	@DEBUG_VALUE: mbedtls_ssl_get_input_max_frag_len:max_len <- 768
	.loc	1 5118 62 is_stmt 1             @ ../../../components/network/thread/subg_openthread/third_party/mbedtls/repo/library/ssl_tls.c:5118:62
	ldrb	r2, [r2]
.Ltmp554:
	@DEBUG_VALUE: ssl_mfl_code_to_length:mfl <- [DW_OP_LLVM_convert 8 7, DW_OP_LLVM_convert 32 7, DW_OP_stack_value] $r2
	.loc	1 167 5                         @ ../../../components/network/thread/subg_openthread/third_party/mbedtls/repo/library/ssl_tls.c:167:5
	cmp	r2, #1
	it	eq
	moveq.w	r0, #512
.Ltmp555:
.LBB48_6:
	@DEBUG_VALUE: mbedtls_ssl_get_input_max_frag_len:ssl <- $r1
	@DEBUG_VALUE: mbedtls_ssl_get_input_max_frag_len:max_len <- 768
	@DEBUG_VALUE: mbedtls_ssl_get_input_max_frag_len:max_len <- $r0
	.loc	1 5126 14                       @ ../../../components/network/thread/subg_openthread/third_party/mbedtls/repo/library/ssl_tls.c:5126:14
	ldr	r1, [r1, #44]
.Ltmp556:
	.loc	1 5126 9 is_stmt 0              @ ../../../components/network/thread/subg_openthread/third_party/mbedtls/repo/library/ssl_tls.c:5126:9
	cmp	r1, #0
	.loc	1 0 0                           @ ../../../components/network/thread/subg_openthread/third_party/mbedtls/repo/library/ssl_tls.c:0:0
	it	eq
	bxeq	lr
.Ltmp557:
.LBB48_7:
	@DEBUG_VALUE: mbedtls_ssl_get_input_max_frag_len:max_len <- $r0
	.loc	1 5128 68 is_stmt 1             @ ../../../components/network/thread/subg_openthread/third_party/mbedtls/repo/library/ssl_tls.c:5128:68
	ldrb	r1, [r1]
.Ltmp558:
	@DEBUG_VALUE: ssl_mfl_code_to_length:mfl <- [DW_OP_LLVM_convert 8 5, DW_OP_LLVM_convert 32 5, DW_OP_stack_value] $r1
	.loc	1 167 5                         @ ../../../components/network/thread/subg_openthread/third_party/mbedtls/repo/library/ssl_tls.c:167:5
	subs	r1, #1
.Ltmp559:
	uxtb	r2, r1
	cmp	r2, #3
	bhi	.LBB48_9
.Ltmp560:
@ %bb.8:
	@DEBUG_VALUE: mbedtls_ssl_get_input_max_frag_len:max_len <- $r0
	movw	r2, :lower16:.Lswitch.table.mbedtls_ssl_get_output_max_frag_len.14
	sxtb	r1, r1
	movt	r2, :upper16:.Lswitch.table.mbedtls_ssl_get_output_max_frag_len.14
	ldr.w	r1, [r2, r1, lsl #2]
	b	.LBB48_10
.Ltmp561:
.LBB48_9:
	@DEBUG_VALUE: mbedtls_ssl_get_input_max_frag_len:max_len <- $r0
	.loc	1 0 5 is_stmt 0                 @ ../../../components/network/thread/subg_openthread/third_party/mbedtls/repo/library/ssl_tls.c:0:5
	mov.w	r1, #768
.Ltmp562:
.LBB48_10:
	@DEBUG_VALUE: mbedtls_ssl_get_input_max_frag_len:max_len <- $r0
	@DEBUG_VALUE: mbedtls_ssl_get_input_max_frag_len:read_mfl <- $r1
	.loc	1 5129 13 is_stmt 1             @ ../../../components/network/thread/subg_openthread/third_party/mbedtls/repo/library/ssl_tls.c:5129:13
	cmp	r1, r0
	it	lo
	movlo	r0, r1
.Ltmp563:
	bx	lr
.Ltmp564:
.Lfunc_end48:
	.size	mbedtls_ssl_get_input_max_frag_len, .Lfunc_end48-mbedtls_ssl_get_input_max_frag_len
	.cfi_endproc
	.cantunwind
	.fnend
                                        @ -- End function
	.section	.text.mbedtls_ssl_get_output_max_frag_len,"ax",%progbits
	.hidden	mbedtls_ssl_get_output_max_frag_len @ -- Begin function mbedtls_ssl_get_output_max_frag_len
	.globl	mbedtls_ssl_get_output_max_frag_len
	.p2align	2
	.type	mbedtls_ssl_get_output_max_frag_len,%function
	.code	16                              @ @mbedtls_ssl_get_output_max_frag_len
	.thumb_func
mbedtls_ssl_get_output_max_frag_len:
.Lfunc_begin49:
	.loc	1 5139 0                        @ ../../../components/network/thread/subg_openthread/third_party/mbedtls/repo/library/ssl_tls.c:5139:0
	.fnstart
	.cfi_startproc
@ %bb.0:
	@DEBUG_VALUE: mbedtls_ssl_get_output_max_frag_len:ssl <- $r0
	mov	r1, r0
.Ltmp565:
	@DEBUG_VALUE: mbedtls_ssl_get_output_max_frag_len:ssl <- $r1
	.loc	1 5145 44 prologue_end          @ ../../../components/network/thread/subg_openthread/third_party/mbedtls/repo/library/ssl_tls.c:5145:44
	ldr	r0, [r0]
	.loc	1 5145 50 is_stmt 0             @ ../../../components/network/thread/subg_openthread/third_party/mbedtls/repo/library/ssl_tls.c:5145:50
	ldrb	r0, [r0, #8]
.Ltmp566:
	@DEBUG_VALUE: ssl_mfl_code_to_length:mfl <- [DW_OP_LLVM_convert 8 5, DW_OP_LLVM_convert 32 5, DW_OP_stack_value] $r0
	.loc	1 167 5 is_stmt 1               @ ../../../components/network/thread/subg_openthread/third_party/mbedtls/repo/library/ssl_tls.c:167:5
	subs	r0, #1
.Ltmp567:
	uxtb	r2, r0
	cmp	r2, #3
	bhi	.LBB49_2
.Ltmp568:
@ %bb.1:
	@DEBUG_VALUE: mbedtls_ssl_get_output_max_frag_len:ssl <- $r1
	movw	r2, :lower16:.Lswitch.table.mbedtls_ssl_get_output_max_frag_len.14
	sxtb	r0, r0
	movt	r2, :upper16:.Lswitch.table.mbedtls_ssl_get_output_max_frag_len.14
	ldr.w	r0, [r2, r0, lsl #2]
	b	.LBB49_3
.Ltmp569:
.LBB49_2:
	@DEBUG_VALUE: mbedtls_ssl_get_output_max_frag_len:ssl <- $r1
	.loc	1 0 5 is_stmt 0                 @ ../../../components/network/thread/subg_openthread/third_party/mbedtls/repo/library/ssl_tls.c:0:5
	mov.w	r0, #768
.Ltmp570:
.LBB49_3:
	@DEBUG_VALUE: mbedtls_ssl_get_output_max_frag_len:ssl <- $r1
	@DEBUG_VALUE: mbedtls_ssl_get_output_max_frag_len:max_len <- $r0
	.loc	1 5148 14 is_stmt 1             @ ../../../components/network/thread/subg_openthread/third_party/mbedtls/repo/library/ssl_tls.c:5148:14
	ldr	r2, [r1, #36]
	.loc	1 5148 34 is_stmt 0             @ ../../../components/network/thread/subg_openthread/third_party/mbedtls/repo/library/ssl_tls.c:5148:34
	cbz	r2, .LBB49_15
.Ltmp571:
@ %bb.4:
	@DEBUG_VALUE: mbedtls_ssl_get_output_max_frag_len:ssl <- $r1
	@DEBUG_VALUE: mbedtls_ssl_get_output_max_frag_len:max_len <- $r0
	.loc	1 5149 51 is_stmt 1             @ ../../../components/network/thread/subg_openthread/third_party/mbedtls/repo/library/ssl_tls.c:5149:51
	ldrb	r2, [r2]
.Ltmp572:
	@DEBUG_VALUE: ssl_mfl_code_to_length:mfl <- [DW_OP_LLVM_convert 8 7, DW_OP_LLVM_convert 32 7, DW_OP_stack_value] undef
	.loc	1 167 5                         @ ../../../components/network/thread/subg_openthread/third_party/mbedtls/repo/library/ssl_tls.c:167:5
	subs	r2, #1
	cmp	r2, #3
	bhi	.LBB49_8
.Ltmp573:
@ %bb.5:
	@DEBUG_VALUE: mbedtls_ssl_get_output_max_frag_len:ssl <- $r1
	@DEBUG_VALUE: mbedtls_ssl_get_output_max_frag_len:max_len <- $r0
	.loc	1 0 5 is_stmt 0                 @ ../../../components/network/thread/subg_openthread/third_party/mbedtls/repo/library/ssl_tls.c:0:5
.LCPI49_0:
	tbb	[pc, r2]
.Ltmp574:
@ %bb.6:
.LJTI49_0:
	.byte	(.LBB49_7-(.LCPI49_0+4))/2
	.byte	(.LBB49_9-(.LCPI49_0+4))/2
	.byte	(.LBB49_10-(.LCPI49_0+4))/2
	.byte	(.LBB49_15-(.LCPI49_0+4))/2
	.p2align	1
.LBB49_7:
.Ltmp575:
	@DEBUG_VALUE: mbedtls_ssl_get_output_max_frag_len:ssl <- $r1
	@DEBUG_VALUE: mbedtls_ssl_get_output_max_frag_len:max_len <- $r0
	mov.w	r3, #512
	b	.LBB49_11
.Ltmp576:
.LBB49_8:
	@DEBUG_VALUE: mbedtls_ssl_get_output_max_frag_len:ssl <- $r1
	@DEBUG_VALUE: mbedtls_ssl_get_output_max_frag_len:max_len <- $r0
	mov.w	r3, #768
	b	.LBB49_11
.Ltmp577:
.LBB49_9:
	@DEBUG_VALUE: mbedtls_ssl_get_output_max_frag_len:ssl <- $r1
	@DEBUG_VALUE: mbedtls_ssl_get_output_max_frag_len:max_len <- $r0
	mov.w	r3, #1024
	b	.LBB49_11
.Ltmp578:
.LBB49_10:
	@DEBUG_VALUE: mbedtls_ssl_get_output_max_frag_len:ssl <- $r1
	@DEBUG_VALUE: mbedtls_ssl_get_output_max_frag_len:max_len <- $r0
	mov.w	r3, #2048
.Ltmp579:
.LBB49_11:
	@DEBUG_VALUE: mbedtls_ssl_get_output_max_frag_len:ssl <- $r1
	@DEBUG_VALUE: mbedtls_ssl_get_output_max_frag_len:max_len <- $r0
	.loc	1 5148 9 is_stmt 1              @ ../../../components/network/thread/subg_openthread/third_party/mbedtls/repo/library/ssl_tls.c:5148:9
	cmp	r3, r0
	bhs	.LBB49_15
.Ltmp580:
@ %bb.12:
	@DEBUG_VALUE: mbedtls_ssl_get_output_max_frag_len:ssl <- $r1
	@DEBUG_VALUE: mbedtls_ssl_get_output_max_frag_len:max_len <- $r0
	@DEBUG_VALUE: ssl_mfl_code_to_length:mfl <- [DW_OP_LLVM_convert 8 7, DW_OP_LLVM_convert 32 7, DW_OP_stack_value] undef
	.loc	1 167 5                         @ ../../../components/network/thread/subg_openthread/third_party/mbedtls/repo/library/ssl_tls.c:167:5
	uxtb	r0, r2
.Ltmp581:
	cmp	r0, #3
	bhi	.LBB49_14
.Ltmp582:
@ %bb.13:
	@DEBUG_VALUE: mbedtls_ssl_get_output_max_frag_len:ssl <- $r1
	sxtb	r0, r2
	movw	r2, :lower16:.Lswitch.table.mbedtls_ssl_get_output_max_frag_len.14
	movt	r2, :upper16:.Lswitch.table.mbedtls_ssl_get_output_max_frag_len.14
	ldr.w	r0, [r2, r0, lsl #2]
	b	.LBB49_15
.Ltmp583:
.LBB49_14:
	@DEBUG_VALUE: mbedtls_ssl_get_output_max_frag_len:ssl <- $r1
	.loc	1 0 5 is_stmt 0                 @ ../../../components/network/thread/subg_openthread/third_party/mbedtls/repo/library/ssl_tls.c:0:5
	mov.w	r0, #768
.Ltmp584:
.LBB49_15:
	@DEBUG_VALUE: mbedtls_ssl_get_output_max_frag_len:ssl <- $r1
	@DEBUG_VALUE: mbedtls_ssl_get_output_max_frag_len:max_len <- $r0
	.loc	1 5155 14 is_stmt 1             @ ../../../components/network/thread/subg_openthread/third_party/mbedtls/repo/library/ssl_tls.c:5155:14
	ldr	r1, [r1, #44]
.Ltmp585:
	.loc	1 5155 40 is_stmt 0             @ ../../../components/network/thread/subg_openthread/third_party/mbedtls/repo/library/ssl_tls.c:5155:40
	cmp	r1, #0
.Ltmp586:
	@DEBUG_VALUE: mbedtls_ssl_get_output_max_frag_len:max_len <- $r0
	.loc	1 0 0                           @ ../../../components/network/thread/subg_openthread/third_party/mbedtls/repo/library/ssl_tls.c:0:0
	it	eq
	bxeq	lr
.Ltmp587:
.LBB49_16:
	@DEBUG_VALUE: mbedtls_ssl_get_output_max_frag_len:max_len <- $r0
	.loc	1 5156 57 is_stmt 1             @ ../../../components/network/thread/subg_openthread/third_party/mbedtls/repo/library/ssl_tls.c:5156:57
	ldrb	r1, [r1]
.Ltmp588:
	@DEBUG_VALUE: ssl_mfl_code_to_length:mfl <- [DW_OP_LLVM_convert 8 7, DW_OP_LLVM_convert 32 7, DW_OP_stack_value] undef
	.loc	1 167 5                         @ ../../../components/network/thread/subg_openthread/third_party/mbedtls/repo/library/ssl_tls.c:167:5
	subs	r1, #1
	cmp	r1, #3
	bhi	.LBB49_20
.Ltmp589:
@ %bb.17:
	@DEBUG_VALUE: mbedtls_ssl_get_output_max_frag_len:max_len <- $r0
	.loc	1 0 5 is_stmt 0                 @ ../../../components/network/thread/subg_openthread/third_party/mbedtls/repo/library/ssl_tls.c:0:5
.LCPI49_1:
	tbb	[pc, r1]
.Ltmp590:
@ %bb.18:
.LJTI49_1:
	.byte	(.LBB49_19-(.LCPI49_1+4))/2
	.byte	(.LBB49_21-(.LCPI49_1+4))/2
	.byte	(.LBB49_22-(.LCPI49_1+4))/2
	.byte	(.LBB49_26-(.LCPI49_1+4))/2
	.p2align	1
.LBB49_19:
.Ltmp591:
	@DEBUG_VALUE: mbedtls_ssl_get_output_max_frag_len:max_len <- $r0
	mov.w	r2, #512
	b	.LBB49_23
.Ltmp592:
.LBB49_20:
	@DEBUG_VALUE: mbedtls_ssl_get_output_max_frag_len:max_len <- $r0
	mov.w	r2, #768
	b	.LBB49_23
.Ltmp593:
.LBB49_21:
	@DEBUG_VALUE: mbedtls_ssl_get_output_max_frag_len:max_len <- $r0
	mov.w	r2, #1024
	b	.LBB49_23
.Ltmp594:
.LBB49_22:
	@DEBUG_VALUE: mbedtls_ssl_get_output_max_frag_len:max_len <- $r0
	mov.w	r2, #2048
.Ltmp595:
.LBB49_23:
	@DEBUG_VALUE: mbedtls_ssl_get_output_max_frag_len:max_len <- $r0
	.loc	1 5155 9 is_stmt 1              @ ../../../components/network/thread/subg_openthread/third_party/mbedtls/repo/library/ssl_tls.c:5155:9
	cmp	r2, r0
	bhs	.LBB49_26
.Ltmp596:
@ %bb.24:
	@DEBUG_VALUE: mbedtls_ssl_get_output_max_frag_len:max_len <- $r0
	@DEBUG_VALUE: ssl_mfl_code_to_length:mfl <- [DW_OP_LLVM_convert 8 7, DW_OP_LLVM_convert 32 7, DW_OP_stack_value] undef
	.loc	1 167 5                         @ ../../../components/network/thread/subg_openthread/third_party/mbedtls/repo/library/ssl_tls.c:167:5
	uxtb	r0, r1
.Ltmp597:
	cmp	r0, #3
	itt	hi
	movhi.w	r0, #768
.Ltmp598:
	@DEBUG_VALUE: mbedtls_ssl_get_output_max_frag_len:max_len <- $r0
	.loc	1 0 0 is_stmt 0                 @ ../../../components/network/thread/subg_openthread/third_party/mbedtls/repo/library/ssl_tls.c:0:0
	bxhi	lr
.Ltmp599:
.LBB49_25:
	@DEBUG_VALUE: mbedtls_ssl_get_output_max_frag_len:max_len <- $r0
	.loc	1 167 5                         @ ../../../components/network/thread/subg_openthread/third_party/mbedtls/repo/library/ssl_tls.c:167:5
	sxtb	r0, r1
.Ltmp600:
	movw	r1, :lower16:.Lswitch.table.mbedtls_ssl_get_output_max_frag_len.14
	movt	r1, :upper16:.Lswitch.table.mbedtls_ssl_get_output_max_frag_len.14
	ldr.w	r0, [r1, r0, lsl #2]
.Ltmp601:
.LBB49_26:
	@DEBUG_VALUE: mbedtls_ssl_get_output_max_frag_len:max_len <- $r0
	.loc	1 0 0                           @ ../../../components/network/thread/subg_openthread/third_party/mbedtls/repo/library/ssl_tls.c:0:0
	bx	lr
.Ltmp602:
.Lfunc_end49:
	.size	mbedtls_ssl_get_output_max_frag_len, .Lfunc_end49-mbedtls_ssl_get_output_max_frag_len
	.cfi_endproc
	.cantunwind
	.fnend
                                        @ -- End function
	.section	.text.mbedtls_ssl_get_max_frag_len,"ax",%progbits
	.hidden	mbedtls_ssl_get_max_frag_len    @ -- Begin function mbedtls_ssl_get_max_frag_len
	.globl	mbedtls_ssl_get_max_frag_len
	.p2align	1
	.type	mbedtls_ssl_get_max_frag_len,%function
	.code	16                              @ @mbedtls_ssl_get_max_frag_len
	.thumb_func
mbedtls_ssl_get_max_frag_len:
.Lfunc_begin50:
	.loc	1 5166 0 is_stmt 1              @ ../../../components/network/thread/subg_openthread/third_party/mbedtls/repo/library/ssl_tls.c:5166:0
	.fnstart
	.cfi_startproc
@ %bb.0:
	@DEBUG_VALUE: mbedtls_ssl_get_max_frag_len:ssl <- $r0
	@DEBUG_VALUE: mbedtls_ssl_get_max_frag_len:ssl <- $r0
	@DEBUG_VALUE: mbedtls_ssl_get_max_frag_len:ssl <- $r0
	.loc	1 5167 12 prologue_end          @ ../../../components/network/thread/subg_openthread/third_party/mbedtls/repo/library/ssl_tls.c:5167:12
	b	mbedtls_ssl_get_output_max_frag_len
.Ltmp603:
.Lfunc_end50:
	.size	mbedtls_ssl_get_max_frag_len, .Lfunc_end50-mbedtls_ssl_get_max_frag_len
	.cfi_endproc
	.cantunwind
	.fnend
                                        @ -- End function
	.section	.text.mbedtls_ssl_get_current_mtu,"ax",%progbits
	.hidden	mbedtls_ssl_get_current_mtu     @ -- Begin function mbedtls_ssl_get_current_mtu
	.globl	mbedtls_ssl_get_current_mtu
	.p2align	1
	.type	mbedtls_ssl_get_current_mtu,%function
	.code	16                              @ @mbedtls_ssl_get_current_mtu
	.thumb_func
mbedtls_ssl_get_current_mtu:
.Lfunc_begin51:
	.loc	1 5174 0                        @ ../../../components/network/thread/subg_openthread/third_party/mbedtls/repo/library/ssl_tls.c:5174:0
	.fnstart
	.cfi_startproc
@ %bb.0:
	@DEBUG_VALUE: mbedtls_ssl_get_current_mtu:ssl <- $r0
	mov	r1, r0
.Ltmp604:
	@DEBUG_VALUE: mbedtls_ssl_get_current_mtu:ssl <- $r1
	.loc	1 5176 14 prologue_end          @ ../../../components/network/thread/subg_openthread/third_party/mbedtls/repo/library/ssl_tls.c:5176:14
	ldr	r0, [r0]
	.loc	1 5176 20 is_stmt 0             @ ../../../components/network/thread/subg_openthread/third_party/mbedtls/repo/library/ssl_tls.c:5176:20
	ldrb	r0, [r0, #4]
	.loc	1 5176 54                       @ ../../../components/network/thread/subg_openthread/third_party/mbedtls/repo/library/ssl_tls.c:5176:54
	cbnz	r0, .LBB51_2
.Ltmp605:
@ %bb.1:
	@DEBUG_VALUE: mbedtls_ssl_get_current_mtu:ssl <- $r1
	.loc	1 5177 16 is_stmt 1             @ ../../../components/network/thread/subg_openthread/third_party/mbedtls/repo/library/ssl_tls.c:5177:16
	ldr	r0, [r1, #4]
	.loc	1 5177 50 is_stmt 0             @ ../../../components/network/thread/subg_openthread/third_party/mbedtls/repo/library/ssl_tls.c:5177:50
	subs	r0, #1
	cmp	r0, #2
	itt	lo
	movlo	r0, #0
.Ltmp606:
	.loc	1 5189 1 is_stmt 1              @ ../../../components/network/thread/subg_openthread/third_party/mbedtls/repo/library/ssl_tls.c:5189:1
	bxlo	lr
.Ltmp607:
.LBB51_2:
	@DEBUG_VALUE: mbedtls_ssl_get_current_mtu:ssl <- $r1
	.loc	1 5181 14                       @ ../../../components/network/thread/subg_openthread/third_party/mbedtls/repo/library/ssl_tls.c:5181:14
	ldr	r0, [r1, #48]
	.loc	1 5181 32 is_stmt 0             @ ../../../components/network/thread/subg_openthread/third_party/mbedtls/repo/library/ssl_tls.c:5181:32
	cbz	r0, .LBB51_6
.Ltmp608:
@ %bb.3:
	@DEBUG_VALUE: mbedtls_ssl_get_current_mtu:ssl <- $r1
	.loc	1 5181 51                       @ ../../../components/network/thread/subg_openthread/third_party/mbedtls/repo/library/ssl_tls.c:5181:51
	ldrh.w	r0, [r0, #744]
.Ltmp609:
	.loc	1 5181 9                        @ ../../../components/network/thread/subg_openthread/third_party/mbedtls/repo/library/ssl_tls.c:5181:9
	cbz	r0, .LBB51_6
.Ltmp610:
@ %bb.4:
	@DEBUG_VALUE: mbedtls_ssl_get_current_mtu:ssl <- $r1
	.loc	1 5184 14 is_stmt 1             @ ../../../components/network/thread/subg_openthread/third_party/mbedtls/repo/library/ssl_tls.c:5184:14
	ldrh.w	r1, [r1, #204]
.Ltmp611:
	.loc	1 5184 9 is_stmt 0              @ ../../../components/network/thread/subg_openthread/third_party/mbedtls/repo/library/ssl_tls.c:5184:9
	cmp	r1, #0
	.loc	1 5189 1 is_stmt 1              @ ../../../components/network/thread/subg_openthread/third_party/mbedtls/repo/library/ssl_tls.c:5189:1
	it	eq
	bxeq	lr
.LBB51_5:
	.loc	1 5187 13                       @ ../../../components/network/thread/subg_openthread/third_party/mbedtls/repo/library/ssl_tls.c:5187:13
	cmp	r1, r0
	it	lo
	movlo	r0, r1
	.loc	1 5189 1                        @ ../../../components/network/thread/subg_openthread/third_party/mbedtls/repo/library/ssl_tls.c:5189:1
	bx	lr
.LBB51_6:
.Ltmp612:
	@DEBUG_VALUE: mbedtls_ssl_get_current_mtu:ssl <- $r1
	.loc	1 5182 22                       @ ../../../components/network/thread/subg_openthread/third_party/mbedtls/repo/library/ssl_tls.c:5182:22
	ldrh.w	r0, [r1, #204]
.Ltmp613:
	.loc	1 5189 1                        @ ../../../components/network/thread/subg_openthread/third_party/mbedtls/repo/library/ssl_tls.c:5189:1
	bx	lr
.Ltmp614:
.Lfunc_end51:
	.size	mbedtls_ssl_get_current_mtu, .Lfunc_end51-mbedtls_ssl_get_current_mtu
	.cfi_endproc
	.cantunwind
	.fnend
                                        @ -- End function
	.section	.text.mbedtls_ssl_get_max_out_record_payload,"ax",%progbits
	.hidden	mbedtls_ssl_get_max_out_record_payload @ -- Begin function mbedtls_ssl_get_max_out_record_payload
	.globl	mbedtls_ssl_get_max_out_record_payload
	.p2align	1
	.type	mbedtls_ssl_get_max_out_record_payload,%function
	.code	16                              @ @mbedtls_ssl_get_max_out_record_payload
	.thumb_func
mbedtls_ssl_get_max_out_record_payload:
.Lfunc_begin52:
	.loc	1 5193 0                        @ ../../../components/network/thread/subg_openthread/third_party/mbedtls/repo/library/ssl_tls.c:5193:0
	.fnstart
	.cfi_startproc
@ %bb.0:
	@DEBUG_VALUE: mbedtls_ssl_get_max_out_record_payload:ssl <- $r0
	.save	{r4, r5, r6, lr}
	push	{r4, r5, r6, lr}
	.cfi_def_cfa_offset 16
	.cfi_offset lr, -4
	.cfi_offset r6, -8
	.cfi_offset r5, -12
	.cfi_offset r4, -16
	mov	r5, r0
.Ltmp615:
	@DEBUG_VALUE: mbedtls_ssl_get_max_out_record_payload:max_len <- 768
	@DEBUG_VALUE: mbedtls_ssl_get_max_out_record_payload:ssl <- $r5
	.loc	1 5202 24 prologue_end          @ ../../../components/network/thread/subg_openthread/third_party/mbedtls/repo/library/ssl_tls.c:5202:24
	bl	mbedtls_ssl_get_output_max_frag_len
.Ltmp616:
	mov	r4, r0
.Ltmp617:
	@DEBUG_VALUE: mbedtls_ssl_get_max_out_record_payload:mfl <- $r4
	.loc	1 5204 9                        @ ../../../components/network/thread/subg_openthread/third_party/mbedtls/repo/library/ssl_tls.c:5204:9
	cmp.w	r0, #768
.Ltmp618:
	.loc	1 5209 9                        @ ../../../components/network/thread/subg_openthread/third_party/mbedtls/repo/library/ssl_tls.c:5209:9
	mov	r0, r5
.Ltmp619:
	.loc	1 5204 9                        @ ../../../components/network/thread/subg_openthread/third_party/mbedtls/repo/library/ssl_tls.c:5204:9
	it	hs
	movhs.w	r4, #768
.Ltmp620:
	@DEBUG_VALUE: mbedtls_ssl_get_max_out_record_payload:max_len <- $r4
	.loc	1 5209 9                        @ ../../../components/network/thread/subg_openthread/third_party/mbedtls/repo/library/ssl_tls.c:5209:9
	bl	mbedtls_ssl_get_current_mtu
.Ltmp621:
	.loc	1 5209 9 is_stmt 0              @ ../../../components/network/thread/subg_openthread/third_party/mbedtls/repo/library/ssl_tls.c:5209:9
	cbz	r0, .LBB52_6
.Ltmp622:
@ %bb.1:
	@DEBUG_VALUE: mbedtls_ssl_get_max_out_record_payload:ssl <- $r5
	@DEBUG_VALUE: mbedtls_ssl_get_max_out_record_payload:max_len <- $r4
	.loc	1 0 0                           @ ../../../components/network/thread/subg_openthread/third_party/mbedtls/repo/library/ssl_tls.c:0:0
	mov	r6, r0
.Ltmp623:
	@DEBUG_VALUE: mtu <- $r6
	.loc	1 5212 25 is_stmt 1             @ ../../../components/network/thread/subg_openthread/third_party/mbedtls/repo/library/ssl_tls.c:5212:25
	mov	r0, r5
	bl	mbedtls_ssl_get_record_expansion
.Ltmp624:
	@DEBUG_VALUE: overhead <- $r0
	@DEBUG_VALUE: ret <- $r0
	.loc	1 5215 13                       @ ../../../components/network/thread/subg_openthread/third_party/mbedtls/repo/library/ssl_tls.c:5215:13
	cmp	r0, #0
	bmi	.LBB52_4
.Ltmp625:
@ %bb.2:
	@DEBUG_VALUE: mtu <- $r6
	@DEBUG_VALUE: mbedtls_ssl_get_max_out_record_payload:ssl <- $r5
	@DEBUG_VALUE: mbedtls_ssl_get_max_out_record_payload:max_len <- $r4
	@DEBUG_VALUE: ret <- $r0
	@DEBUG_VALUE: overhead <- $r0
	.loc	1 5218 13                       @ ../../../components/network/thread/subg_openthread/third_party/mbedtls/repo/library/ssl_tls.c:5218:13
	cmp	r6, r0
	bls	.LBB52_5
.Ltmp626:
@ %bb.3:
	@DEBUG_VALUE: mtu <- $r6
	@DEBUG_VALUE: mbedtls_ssl_get_max_out_record_payload:ssl <- $r5
	@DEBUG_VALUE: mbedtls_ssl_get_max_out_record_payload:max_len <- $r4
	@DEBUG_VALUE: ret <- $r0
	@DEBUG_VALUE: overhead <- $r0
	.loc	1 5224 27                       @ ../../../components/network/thread/subg_openthread/third_party/mbedtls/repo/library/ssl_tls.c:5224:27
	subs	r0, r6, r0
.Ltmp627:
	.loc	1 5224 13 is_stmt 0             @ ../../../components/network/thread/subg_openthread/third_party/mbedtls/repo/library/ssl_tls.c:5224:13
	cmp	r4, r0
	it	hi
	movhi	r4, r0
.Ltmp628:
	@DEBUG_VALUE: mbedtls_ssl_get_max_out_record_payload:max_len <- $r4
	.loc	1 0 13                          @ ../../../components/network/thread/subg_openthread/third_party/mbedtls/repo/library/ssl_tls.c:0:13
	b	.LBB52_6
.Ltmp629:
.LBB52_4:
	@DEBUG_VALUE: mtu <- $r6
	@DEBUG_VALUE: mbedtls_ssl_get_max_out_record_payload:ssl <- $r5
	@DEBUG_VALUE: mbedtls_ssl_get_max_out_record_payload:max_len <- $r4
	@DEBUG_VALUE: ret <- $r0
	@DEBUG_VALUE: overhead <- $r0
	mov	r4, r0
.Ltmp630:
	@DEBUG_VALUE: overhead <- $r4
	b	.LBB52_6
.Ltmp631:
.LBB52_5:
	@DEBUG_VALUE: mtu <- $r6
	@DEBUG_VALUE: mbedtls_ssl_get_max_out_record_payload:ssl <- $r5
	@DEBUG_VALUE: mbedtls_ssl_get_max_out_record_payload:max_len <- $r4
	@DEBUG_VALUE: ret <- $r0
	@DEBUG_VALUE: overhead <- $r0
	movw	r4, #36736
.Ltmp632:
	movt	r4, #65535
.Ltmp633:
.LBB52_6:
	@DEBUG_VALUE: mbedtls_ssl_get_max_out_record_payload:ssl <- $r5
	.loc	1 5235 1 is_stmt 1              @ ../../../components/network/thread/subg_openthread/third_party/mbedtls/repo/library/ssl_tls.c:5235:1
	mov	r0, r4
	pop	{r4, r5, r6, pc}
.Ltmp634:
.Lfunc_end52:
	.size	mbedtls_ssl_get_max_out_record_payload, .Lfunc_end52-mbedtls_ssl_get_max_out_record_payload
	.cfi_endproc
	.cantunwind
	.fnend
                                        @ -- End function
	.section	.text.mbedtls_ssl_get_session,"ax",%progbits
	.hidden	mbedtls_ssl_get_session         @ -- Begin function mbedtls_ssl_get_session
	.globl	mbedtls_ssl_get_session
	.p2align	1
	.type	mbedtls_ssl_get_session,%function
	.code	16                              @ @mbedtls_ssl_get_session
	.thumb_func
mbedtls_ssl_get_session:
.Lfunc_begin53:
	.loc	1 5254 0                        @ ../../../components/network/thread/subg_openthread/third_party/mbedtls/repo/library/ssl_tls.c:5254:0
	.fnstart
	.cfi_startproc
@ %bb.0:
	@DEBUG_VALUE: mbedtls_ssl_get_session:ssl <- $r0
	@DEBUG_VALUE: mbedtls_ssl_get_session:dst <- $r1
	.save	{r4, r5, r7, lr}
	push	{r4, r5, r7, lr}
	.cfi_def_cfa_offset 16
	.cfi_offset lr, -4
	.cfi_offset r7, -8
	.cfi_offset r5, -12
	.cfi_offset r4, -16
	mov	r4, r1
.Ltmp635:
	@DEBUG_VALUE: mbedtls_ssl_get_session:dst <- $r4
	mov	r1, r0
	@DEBUG_VALUE: mbedtls_ssl_get_session:dst <- $r4
.Ltmp636:
	@DEBUG_VALUE: mbedtls_ssl_get_session:ssl <- $r1
	.loc	1 5255 21 prologue_end          @ ../../../components/network/thread/subg_openthread/third_party/mbedtls/repo/library/ssl_tls.c:5255:21
	cmp	r0, #0
	movw	r0, #36608
	movt	r0, #65535
	it	ne
	cmpne	r4, #0
	bne	.LBB53_2
.Ltmp637:
.LBB53_1:
	@DEBUG_VALUE: mbedtls_ssl_get_session:dst <- $r4
	.loc	1 5264 1                        @ ../../../components/network/thread/subg_openthread/third_party/mbedtls/repo/library/ssl_tls.c:5264:1
	pop	{r4, r5, r7, pc}
.Ltmp638:
.LBB53_2:
	@DEBUG_VALUE: mbedtls_ssl_get_session:dst <- $r4
	@DEBUG_VALUE: mbedtls_ssl_get_session:ssl <- $r1
	.loc	1 5257 14                       @ ../../../components/network/thread/subg_openthread/third_party/mbedtls/repo/library/ssl_tls.c:5257:14
	ldr	r5, [r1, #40]
	.loc	1 5257 30 is_stmt 0             @ ../../../components/network/thread/subg_openthread/third_party/mbedtls/repo/library/ssl_tls.c:5257:30
	cmp	r5, #0
	beq	.LBB53_1
.Ltmp639:
@ %bb.3:
	@DEBUG_VALUE: mbedtls_ssl_get_session:dst <- $r4
	@DEBUG_VALUE: mbedtls_ssl_get_session:ssl <- $r1
	.loc	1 5258 14 is_stmt 1             @ ../../../components/network/thread/subg_openthread/third_party/mbedtls/repo/library/ssl_tls.c:5258:14
	ldr	r1, [r1]
.Ltmp640:
	.loc	1 5258 20 is_stmt 0             @ ../../../components/network/thread/subg_openthread/third_party/mbedtls/repo/library/ssl_tls.c:5258:20
	ldrb	r1, [r1, #4]
.Ltmp641:
	.loc	1 5255 9 is_stmt 1              @ ../../../components/network/thread/subg_openthread/third_party/mbedtls/repo/library/ssl_tls.c:5255:9
	cmp	r1, #0
	bne	.LBB53_1
.Ltmp642:
@ %bb.4:
	@DEBUG_VALUE: mbedtls_ssl_get_session:dst <- $r4
	@DEBUG_VALUE: mbedtls_ssl_session_copy:dst <- $r4
	@DEBUG_VALUE: mbedtls_ssl_session_copy:src <- $r5
	@DEBUG_VALUE: mbedtls_ssl_session_free:session <- $r4
	.loc	1 6164 5                        @ ../../../components/network/thread/subg_openthread/third_party/mbedtls/repo/library/ssl_tls.c:6164:5
	mov	r0, r4
	movs	r1, #100
	bl	mbedtls_platform_zeroize
.Ltmp643:
	.loc	1 189 5                         @ ../../../components/network/thread/subg_openthread/third_party/mbedtls/repo/library/ssl_tls.c:189:5
	mov	r0, r4
	mov	r1, r5
	movs	r2, #100
	bl	__aeabi_memcpy4
.Ltmp644:
	.loc	1 0 5 is_stmt 0                 @ ../../../components/network/thread/subg_openthread/third_party/mbedtls/repo/library/ssl_tls.c:0:5
	movs	r0, #0
.Ltmp645:
	.loc	1 5264 1 is_stmt 1              @ ../../../components/network/thread/subg_openthread/third_party/mbedtls/repo/library/ssl_tls.c:5264:1
	pop	{r4, r5, r7, pc}
.Ltmp646:
.Lfunc_end53:
	.size	mbedtls_ssl_get_session, .Lfunc_end53-mbedtls_ssl_get_session
	.cfi_endproc
	.cantunwind
	.fnend
                                        @ -- End function
	.section	.text.mbedtls_ssl_get_session_pointer,"ax",%progbits
	.hidden	mbedtls_ssl_get_session_pointer @ -- Begin function mbedtls_ssl_get_session_pointer
	.globl	mbedtls_ssl_get_session_pointer
	.p2align	1
	.type	mbedtls_ssl_get_session_pointer,%function
	.code	16                              @ @mbedtls_ssl_get_session_pointer
	.thumb_func
mbedtls_ssl_get_session_pointer:
.Lfunc_begin54:
	.loc	1 5268 0                        @ ../../../components/network/thread/subg_openthread/third_party/mbedtls/repo/library/ssl_tls.c:5268:0
	.fnstart
	.cfi_startproc
@ %bb.0:
	@DEBUG_VALUE: mbedtls_ssl_get_session_pointer:ssl <- $r0
	@DEBUG_VALUE: mbedtls_ssl_get_session_pointer:ssl <- $r0
	.loc	1 5269 9 prologue_end           @ ../../../components/network/thread/subg_openthread/third_party/mbedtls/repo/library/ssl_tls.c:5269:9
	cmp	r0, #0
	.loc	1 5272 18                       @ ../../../components/network/thread/subg_openthread/third_party/mbedtls/repo/library/ssl_tls.c:5272:18
	ite	ne
	ldrne	r0, [r0, #40]
.Ltmp647:
	@DEBUG_VALUE: mbedtls_ssl_get_session_pointer:ssl <- [DW_OP_LLVM_entry_value 1] $r0
	.loc	1 0 18 is_stmt 0                @ ../../../components/network/thread/subg_openthread/third_party/mbedtls/repo/library/ssl_tls.c:0:18
	moveq	r0, #0
	.loc	1 5273 1 is_stmt 1              @ ../../../components/network/thread/subg_openthread/third_party/mbedtls/repo/library/ssl_tls.c:5273:1
	bx	lr
.Ltmp648:
.Lfunc_end54:
	.size	mbedtls_ssl_get_session_pointer, .Lfunc_end54-mbedtls_ssl_get_session_pointer
	.cfi_endproc
	.cantunwind
	.fnend
                                        @ -- End function
	.section	.text.mbedtls_ssl_session_save,"ax",%progbits
	.hidden	mbedtls_ssl_session_save        @ -- Begin function mbedtls_ssl_session_save
	.globl	mbedtls_ssl_session_save
	.p2align	1
	.type	mbedtls_ssl_session_save,%function
	.code	16                              @ @mbedtls_ssl_session_save
	.thumb_func
mbedtls_ssl_session_save:
.Lfunc_begin55:
	.loc	1 5576 0                        @ ../../../components/network/thread/subg_openthread/third_party/mbedtls/repo/library/ssl_tls.c:5576:0
	.fnstart
	.cfi_startproc
@ %bb.0:
	@DEBUG_VALUE: mbedtls_ssl_session_save:session <- $r0
	@DEBUG_VALUE: mbedtls_ssl_session_save:buf <- $r1
	@DEBUG_VALUE: mbedtls_ssl_session_save:buf_len <- $r2
	@DEBUG_VALUE: mbedtls_ssl_session_save:olen <- $r3
	@DEBUG_VALUE: ssl_session_save:session <- $r0
