	.text
	.syntax unified
	.eabi_attribute	67, "2.09"	@ Tag_conformance
	.cpu	cortex-m3
	.eabi_attribute	6, 10	@ Tag_CPU_arch
	.eabi_attribute	7, 77	@ Tag_CPU_arch_profile
	.eabi_attribute	8, 0	@ Tag_ARM_ISA_use
	.eabi_attribute	9, 2	@ Tag_THUMB_ISA_use
	.eabi_attribute	34, 1	@ Tag_CPU_unaligned_access
	.eabi_attribute	17, 1	@ Tag_ABI_PCS_GOT_use
	.eabi_attribute	20, 2	@ Tag_ABI_FP_denormal
	.eabi_attribute	21, 0	@ Tag_ABI_FP_exceptions
	.eabi_attribute	23, 1	@ Tag_ABI_FP_number_model
	.eabi_attribute	24, 1	@ Tag_ABI_align_needed
	.eabi_attribute	25, 1	@ Tag_ABI_align_preserved
	.eabi_attribute	38, 1	@ Tag_ABI_FP_16bit_format
	.eabi_attribute	18, 4	@ Tag_ABI_PCS_wchar_t
	.eabi_attribute	26, 2	@ Tag_ABI_enum_size
	.eabi_attribute	14, 0	@ Tag_ABI_PCS_R9_use
	.file	"string.cpp"
	.file	1 "C:\\Users\\testo\\Desktop\\rafael-iot-sdk-das -0515\\examples\\das_subg_thread\\keil" "../../../components/network/thread/subg_openthread/src/core/common/string.hpp"
	.file	2 "C:\\Users\\testo\\Desktop\\rafael-iot-sdk-das -0515\\examples\\das_subg_thread\\keil" "../../../components/network/thread/subg_openthread/src/core/common/string.cpp"
	.file	3 "C:\\" "Keil_v5\\ARM\\ARMCLANG\\Bin\\..\\include\\stdint.h"
	.file	4 "C:\\" "Keil_v5\\ARM\\ARMCLANG\\Bin\\..\\include\\string.h"
	.file	5 "C:\\" "Keil_v5\\ARM\\ARMCLANG\\Bin\\..\\include\\stdarg.h"
	.file	6 "C:\\" "Keil_v5\\ARM\\ARMCLANG\\Bin\\..\\include\\stdio.h"
	.file	7 "C:\\" "Keil_v5\\ARM\\ARMCLANG\\Bin\\..\\include\\ctype.h"
	.file	8 "C:\\" "Keil_v5\\ARM\\ARMCLANG\\Bin\\..\\include\\stdlib.h"
	.section	.text._ZN2ot12StringLengthEPKct,"ax",%progbits
	.hidden	_ZN2ot12StringLengthEPKct       @ -- Begin function _ZN2ot12StringLengthEPKct
	.globl	_ZN2ot12StringLengthEPKct
	.p2align	1
	.type	_ZN2ot12StringLengthEPKct,%function
	.code	16                              @ @_ZN2ot12StringLengthEPKct
	.thumb_func
_ZN2ot12StringLengthEPKct:
.Lfunc_begin0:
	.loc	2 91 0                          @ ../../../components/network/thread/subg_openthread/src/core/common/string.cpp:91:0
	.fnstart
	.cfi_sections .debug_frame
	.cfi_startproc
@ %bb.0:
	@DEBUG_VALUE: StringLength:aString <- $r0
	@DEBUG_VALUE: StringLength:aMaxLength <- $r1
	@DEBUG_VALUE: StringLength:aMaxLength <- $r1
	@DEBUG_VALUE: StringLength:ret <- 0
	@DEBUG_VALUE: StringLength:aString <- $r0
	.loc	2 94 38 prologue_end            @ ../../../components/network/thread/subg_openthread/src/core/common/string.cpp:94:38
	cbz	r1, .LBB0_4
.Ltmp0:
@ %bb.1:
	@DEBUG_VALUE: StringLength:aMaxLength <- $r1
	@DEBUG_VALUE: StringLength:aString <- $r0
	@DEBUG_VALUE: StringLength:ret <- 0
	.loc	2 0 38 is_stmt 0                @ ../../../components/network/thread/subg_openthread/src/core/common/string.cpp:0:38
	movs	r2, #0
.Ltmp1:
	.p2align	2
.LBB0_2:                                @ =>This Inner Loop Header: Depth=1
	@DEBUG_VALUE: StringLength:aMaxLength <- $r1
	@DEBUG_VALUE: StringLength:aString <- $r0
	@DEBUG_VALUE: StringLength:ret <- $r2
	.loc	2 94 42                         @ ../../../components/network/thread/subg_openthread/src/core/common/string.cpp:94:42
	ldrb	r3, [r0, r2]
.Ltmp2:
	.loc	2 94 5                          @ ../../../components/network/thread/subg_openthread/src/core/common/string.cpp:94:5
	cbz	r3, .LBB0_5
.Ltmp3:
@ %bb.3:                                @   in Loop: Header=BB0_2 Depth=1
	@DEBUG_VALUE: StringLength:ret <- $r2
	@DEBUG_VALUE: StringLength:aMaxLength <- $r1
	@DEBUG_VALUE: StringLength:aString <- $r0
	.loc	2 94 73                         @ ../../../components/network/thread/subg_openthread/src/core/common/string.cpp:94:73
	adds	r2, #1
.Ltmp4:
	@DEBUG_VALUE: StringLength:ret <- $r2
	.loc	2 94 38                         @ ../../../components/network/thread/subg_openthread/src/core/common/string.cpp:94:38
	cmp	r1, r2
	bne	.LBB0_2
	b	.LBB0_6
.Ltmp5:
.LBB0_4:
	@DEBUG_VALUE: StringLength:aMaxLength <- $r1
	@DEBUG_VALUE: StringLength:aString <- $r0
	@DEBUG_VALUE: StringLength:ret <- 0
	.loc	2 0 38                          @ ../../../components/network/thread/subg_openthread/src/core/common/string.cpp:0:38
	movs	r1, #0
.Ltmp6:
	@DEBUG_VALUE: StringLength:aMaxLength <- [DW_OP_LLVM_entry_value 1] $r1
	b	.LBB0_6
.Ltmp7:
.LBB0_5:
	@DEBUG_VALUE: StringLength:ret <- $r2
	@DEBUG_VALUE: StringLength:aMaxLength <- $r1
	@DEBUG_VALUE: StringLength:aString <- $r0
	mov	r1, r2
.Ltmp8:
	@DEBUG_VALUE: StringLength:aMaxLength <- [DW_OP_LLVM_entry_value 1] $r1
.LBB0_6:
	@DEBUG_VALUE: StringLength:aString <- $r0
	.loc	2 99 5 is_stmt 1                @ ../../../components/network/thread/subg_openthread/src/core/common/string.cpp:99:5
	uxth	r0, r1
.Ltmp9:
	@DEBUG_VALUE: StringLength:aString <- [DW_OP_LLVM_entry_value 1] $r0
	bx	lr
.Ltmp10:
.Lfunc_end0:
	.size	_ZN2ot12StringLengthEPKct, .Lfunc_end0-_ZN2ot12StringLengthEPKct
	.cfi_endproc
	.cantunwind
	.fnend
                                        @ -- End function
	.section	.text._ZN2ot10StringFindEPKcc,"ax",%progbits
	.hidden	_ZN2ot10StringFindEPKcc         @ -- Begin function _ZN2ot10StringFindEPKcc
	.globl	_ZN2ot10StringFindEPKcc
	.p2align	1
	.type	_ZN2ot10StringFindEPKcc,%function
	.code	16                              @ @_ZN2ot10StringFindEPKcc
	.thumb_func
_ZN2ot10StringFindEPKcc:
.Lfunc_begin1:
	.loc	2 103 0                         @ ../../../components/network/thread/subg_openthread/src/core/common/string.cpp:103:0
	.fnstart
	.cfi_startproc
@ %bb.0:
	@DEBUG_VALUE: StringFind:aString <- $r0
	@DEBUG_VALUE: StringFind:aString <- $r0
	@DEBUG_VALUE: StringFind:aChar <- $r1
	@DEBUG_VALUE: StringFind:aChar <- undef
	@DEBUG_VALUE: StringFind:ret <- 0
	.loc	2 106 12 prologue_end           @ ../../../components/network/thread/subg_openthread/src/core/common/string.cpp:106:12
	ldrb	r2, [r0]
.Ltmp11:
	.p2align	2
.LBB1_1:                                @ =>This Inner Loop Header: Depth=1
	@DEBUG_VALUE: StringFind:aString <- $r0
	@DEBUG_VALUE: StringFind:aChar <- $r1
	.loc	2 106 5 is_stmt 0               @ ../../../components/network/thread/subg_openthread/src/core/common/string.cpp:106:5
	cbz	r2, .LBB1_4
.Ltmp12:
@ %bb.2:                                @   in Loop: Header=BB1_1 Depth=1
	@DEBUG_VALUE: StringFind:aChar <- $r1
	@DEBUG_VALUE: StringFind:aString <- $r0
	@DEBUG_VALUE: StringFind:aString <- $r0
	.loc	2 108 13 is_stmt 1              @ ../../../components/network/thread/subg_openthread/src/core/common/string.cpp:108:13
	cmp	r2, r1
.Ltmp13:
	@DEBUG_VALUE: StringFind:ret <- $r0
	.loc	2 115 5                         @ ../../../components/network/thread/subg_openthread/src/core/common/string.cpp:115:5
	it	eq
	bxeq	lr
.Ltmp14:
.LBB1_3:                                @   in Loop: Header=BB1_1 Depth=1
	@DEBUG_VALUE: StringFind:aChar <- $r1
	@DEBUG_VALUE: StringFind:ret <- $r0
	@DEBUG_VALUE: StringFind:aString <- $r0
	.loc	2 106 12                        @ ../../../components/network/thread/subg_openthread/src/core/common/string.cpp:106:12
	ldrb	r2, [r0, #1]!
.Ltmp15:
	@DEBUG_VALUE: StringFind:aString <- [DW_OP_LLVM_entry_value 1] $r0
	@DEBUG_VALUE: StringFind:aString <- $r0
	.loc	2 0 12 is_stmt 0                @ ../../../components/network/thread/subg_openthread/src/core/common/string.cpp:0:12
	b	.LBB1_1
.Ltmp16:
.LBB1_4:
	@DEBUG_VALUE: StringFind:aChar <- $r1
	@DEBUG_VALUE: StringFind:aString <- $r0
	movs	r0, #0
.Ltmp17:
	@DEBUG_VALUE: StringFind:aString <- [DW_OP_LLVM_entry_value 1] $r0
	@DEBUG_VALUE: StringFind:aString <- [DW_OP_LLVM_entry_value 1] $r0
	@DEBUG_VALUE: StringFind:ret <- $r0
	.loc	2 115 5 is_stmt 1               @ ../../../components/network/thread/subg_openthread/src/core/common/string.cpp:115:5
	bx	lr
.Ltmp18:
.Lfunc_end1:
	.size	_ZN2ot10StringFindEPKcc, .Lfunc_end1-_ZN2ot10StringFindEPKcc
	.cfi_endproc
	.cantunwind
	.fnend
                                        @ -- End function
	.section	.text._ZN2ot10StringFindEPKcS1_NS_15StringMatchModeE,"ax",%progbits
	.hidden	_ZN2ot10StringFindEPKcS1_NS_15StringMatchModeE @ -- Begin function _ZN2ot10StringFindEPKcS1_NS_15StringMatchModeE
	.globl	_ZN2ot10StringFindEPKcS1_NS_15StringMatchModeE
	.p2align	1
	.type	_ZN2ot10StringFindEPKcS1_NS_15StringMatchModeE,%function
	.code	16                              @ @_ZN2ot10StringFindEPKcS1_NS_15StringMatchModeE
	.thumb_func
_ZN2ot10StringFindEPKcS1_NS_15StringMatchModeE:
.Lfunc_begin2:
	.loc	2 119 0                         @ ../../../components/network/thread/subg_openthread/src/core/common/string.cpp:119:0
	.fnstart
	.cfi_startproc
@ %bb.0:
	@DEBUG_VALUE: StringFind:aString <- $r0
	@DEBUG_VALUE: StringFind:aSubString <- $r1
	@DEBUG_VALUE: StringFind:aMode <- $r2
	.save	{r4, r5, r6, r7, r8, r9, lr}
	push.w	{r4, r5, r6, r7, r8, r9, lr}
	.cfi_def_cfa_offset 28
	.cfi_offset lr, -4
	.cfi_offset r9, -8
	.cfi_offset r8, -12
	.cfi_offset r7, -16
	.cfi_offset r6, -20
	.cfi_offset r5, -24
	.cfi_offset r4, -28
	.pad	#4
	sub	sp, #4
	.cfi_def_cfa_offset 32
	mov	r8, r2
.Ltmp19:
	@DEBUG_VALUE: StringFind:aMode <- $r8
	mov	r9, r1
.Ltmp20:
	@DEBUG_VALUE: StringFind:aSubString <- $r9
	mov	r6, r0
.Ltmp21:
	@DEBUG_VALUE: StringFind:ret <- 0
	@DEBUG_VALUE: StringFind:aMode <- $r8
	@DEBUG_VALUE: StringFind:aSubString <- $r9
	@DEBUG_VALUE: StringFind:aString <- $r6
	.loc	2 121 26 prologue_end           @ ../../../components/network/thread/subg_openthread/src/core/common/string.cpp:121:26
	bl	strlen
.Ltmp22:
	mov	r7, r0
.Ltmp23:
	@DEBUG_VALUE: StringFind:len <- $r7
	.loc	2 122 26                        @ ../../../components/network/thread/subg_openthread/src/core/common/string.cpp:122:26
	mov	r0, r9
	bl	strlen
.Ltmp24:
	@DEBUG_VALUE: StringFind:subLen <- $r0
	.loc	2 124 5                         @ ../../../components/network/thread/subg_openthread/src/core/common/string.cpp:124:5
	cmp	r7, r0
	blo	.LBB2_4
.Ltmp25:
@ %bb.1:
	@DEBUG_VALUE: StringFind:aSubString <- $r9
	@DEBUG_VALUE: StringFind:aMode <- $r8
	@DEBUG_VALUE: StringFind:len <- $r7
	@DEBUG_VALUE: StringFind:aString <- $r6
	@DEBUG_VALUE: StringFind:subLen <- $r0
	@DEBUG_VALUE: StringFind:ret <- 0
	@DEBUG_VALUE: StringFind:aMode <- $r8
	@DEBUG_VALUE: index <- 0
	.loc	2 126 61                        @ ../../../components/network/thread/subg_openthread/src/core/common/string.cpp:126:61
	subs	r4, r7, r0
	movs	r5, #0
.Ltmp26:
	.p2align	2
.LBB2_2:                                @ =>This Inner Loop Header: Depth=1
	@DEBUG_VALUE: StringFind:aSubString <- $r9
	@DEBUG_VALUE: StringFind:aMode <- $r8
	@DEBUG_VALUE: StringFind:aString <- $r6
	@DEBUG_VALUE: StringFind:ret <- 0
	@DEBUG_VALUE: index <- $r5
	.loc	2 128 13                        @ ../../../components/network/thread/subg_openthread/src/core/common/string.cpp:128:13
	adds	r7, r6, r5
	mov	r0, r7
	mov	r1, r9
	mov	r2, r8
	bl	_ZN2ot12_GLOBAL__N_15MatchEPKcS2_NS_15StringMatchModeE
.Ltmp27:
	@DEBUG_VALUE: index <- undef
	.loc	2 128 13 is_stmt 0              @ ../../../components/network/thread/subg_openthread/src/core/common/string.cpp:128:13
	cbnz	r0, .LBB2_5
.Ltmp28:
@ %bb.3:                                @   in Loop: Header=BB2_2 Depth=1
	@DEBUG_VALUE: StringFind:aSubString <- $r9
	@DEBUG_VALUE: StringFind:aMode <- $r8
	@DEBUG_VALUE: StringFind:aString <- $r6
	@DEBUG_VALUE: StringFind:ret <- 0
	.loc	2 0 0                           @ ../../../components/network/thread/subg_openthread/src/core/common/string.cpp:0:0
	adds	r5, #1
.Ltmp29:
	@DEBUG_VALUE: index <- $r5
	.loc	2 126 5 is_stmt 1               @ ../../../components/network/thread/subg_openthread/src/core/common/string.cpp:126:5
	cmp	r5, r4
	bls	.LBB2_2
.Ltmp30:
.LBB2_4:
	@DEBUG_VALUE: StringFind:aSubString <- $r9
	@DEBUG_VALUE: StringFind:aMode <- $r8
	@DEBUG_VALUE: StringFind:aString <- $r6
	@DEBUG_VALUE: StringFind:ret <- 0
	.loc	2 0 5 is_stmt 0                 @ ../../../components/network/thread/subg_openthread/src/core/common/string.cpp:0:5
	movs	r7, #0
.Ltmp31:
.LBB2_5:
	@DEBUG_VALUE: StringFind:aSubString <- $r9
	@DEBUG_VALUE: StringFind:aMode <- $r8
	@DEBUG_VALUE: StringFind:aString <- $r6
	@DEBUG_VALUE: StringFind:ret <- 0
	@DEBUG_VALUE: StringFind:ret <- $r7
	@DEBUG_LABEL: StringFind:exit
	.loc	2 136 1 is_stmt 1               @ ../../../components/network/thread/subg_openthread/src/core/common/string.cpp:136:1
	mov	r0, r7
	add	sp, #4
	pop.w	{r4, r5, r6, r7, r8, r9, pc}
.Ltmp32:
.Lfunc_end2:
	.size	_ZN2ot10StringFindEPKcS1_NS_15StringMatchModeE, .Lfunc_end2-_ZN2ot10StringFindEPKcS1_NS_15StringMatchModeE
	.cfi_endproc
	.cantunwind
	.fnend
                                        @ -- End function
	.section	.text._ZN2ot12_GLOBAL__N_15MatchEPKcS2_NS_15StringMatchModeE,"ax",%progbits
	.p2align	1                               @ -- Begin function _ZN2ot12_GLOBAL__N_15MatchEPKcS2_NS_15StringMatchModeE
	.type	_ZN2ot12_GLOBAL__N_15MatchEPKcS2_NS_15StringMatchModeE,%function
	.code	16                              @ @_ZN2ot12_GLOBAL__N_15MatchEPKcS2_NS_15StringMatchModeE
	.thumb_func
_ZN2ot12_GLOBAL__N_15MatchEPKcS2_NS_15StringMatchModeE:
.Lfunc_begin3:
	.loc	2 54 0                          @ ../../../components/network/thread/subg_openthread/src/core/common/string.cpp:54:0
	.fnstart
	.cfi_startproc
@ %bb.0:
	@DEBUG_VALUE: Match:aString <- $r0
	@DEBUG_VALUE: Match:aPrefixString <- $r1
	@DEBUG_VALUE: Match:aPrefixString <- $r1
	@DEBUG_VALUE: Match:aMode <- $r2
	@DEBUG_VALUE: Match:aMode <- $r2
	@DEBUG_VALUE: Match:match <- 0
	@DEBUG_VALUE: Match:aString <- $r0
	.loc	2 65 5 prologue_end             @ ../../../components/network/thread/subg_openthread/src/core/common/string.cpp:65:5
	cbz	r2, .LBB3_6
.Ltmp33:
@ %bb.1:
	@DEBUG_VALUE: Match:aMode <- $r2
	@DEBUG_VALUE: Match:aPrefixString <- $r1
	@DEBUG_VALUE: Match:aString <- $r0
	@DEBUG_VALUE: Match:match <- 0
	cmp	r2, #1
	bne	.LBB3_7
.Ltmp34:
	.p2align	2
.LBB3_2:                                @ =>This Inner Loop Header: Depth=1
	@DEBUG_VALUE: Match:aPrefixString <- $r1
	@DEBUG_VALUE: Match:aString <- $r0
	@DEBUG_VALUE: Match:match <- 0
	@DEBUG_VALUE: Match:aString <- $r0
	@DEBUG_VALUE: Match:aPrefixString <- $r1
	.loc	2 75 16                         @ ../../../components/network/thread/subg_openthread/src/core/common/string.cpp:75:16
	ldrb	r2, [r1]
.Ltmp35:
	@DEBUG_VALUE: Match:aMode <- [DW_OP_LLVM_entry_value 1] $r2
	.loc	2 0 16 is_stmt 0                @ ../../../components/network/thread/subg_openthread/src/core/common/string.cpp:0:16
	cbz	r2, .LBB3_7
.Ltmp36:
@ %bb.3:                                @   in Loop: Header=BB3_2 Depth=1
	@DEBUG_VALUE: Match:aPrefixString <- $r1
	@DEBUG_VALUE: Match:aString <- $r0
	@DEBUG_VALUE: Match:match <- 0
	.loc	2 77 13 is_stmt 1               @ ../../../components/network/thread/subg_openthread/src/core/common/string.cpp:77:13
	ldrb	r12, [r0], #1
.Ltmp37:
	@DEBUG_VALUE: Match:aString <- [DW_OP_LLVM_entry_value 1] $r0
	@DEBUG_VALUE: Match:aString <- [DW_OP_LLVM_entry_value 1] $r0
	@DEBUG_VALUE: ToLowercase:aChar <- $r12
	@DEBUG_VALUE: Match:aString <- $r0
	adds	r1, #1
.Ltmp38:
	@DEBUG_VALUE: Match:aPrefixString <- [DW_OP_LLVM_entry_value 1] $r1
	@DEBUG_VALUE: Match:aPrefixString <- [DW_OP_LLVM_entry_value 1] $r1
	@DEBUG_VALUE: ToLowercase:aChar <- undef
	@DEBUG_VALUE: Match:aPrefixString <- $r1
	.loc	2 181 24                        @ ../../../components/network/thread/subg_openthread/src/core/common/string.cpp:181:24
	sub.w	r3, r12, #65
	uxtb	r3, r3
	cmp	r3, #26
.Ltmp39:
	.loc	2 181 24 is_stmt 0              @ ../../../components/network/thread/subg_openthread/src/core/common/string.cpp:181:24
	sub.w	r3, r2, #65
	uxtb	r3, r3
.Ltmp40:
	.loc	2 181 24                        @ ../../../components/network/thread/subg_openthread/src/core/common/string.cpp:181:24
	it	lo
	addlo.w	r12, r12, #32
.Ltmp41:
	@DEBUG_VALUE: ToLowercase:aChar <- $r12
	.loc	2 181 24                        @ ../../../components/network/thread/subg_openthread/src/core/common/string.cpp:181:24
	cmp	r3, #26
	it	lo
	addlo	r2, #32
.Ltmp42:
	@DEBUG_VALUE: ToLowercase:aChar <- $r2
	.loc	2 181 24                        @ ../../../components/network/thread/subg_openthread/src/core/common/string.cpp:181:24
	uxtb.w	r12, r12
.Ltmp43:
	.loc	2 181 24                        @ ../../../components/network/thread/subg_openthread/src/core/common/string.cpp:181:24
	uxtb	r2, r2
.Ltmp44:
	.loc	2 77 13 is_stmt 1               @ ../../../components/network/thread/subg_openthread/src/core/common/string.cpp:77:13
	cmp	r12, r2
	beq	.LBB3_2
.Ltmp45:
.LBB3_4:
	@DEBUG_VALUE: Match:aPrefixString <- $r1
	@DEBUG_VALUE: Match:aString <- $r0
	@DEBUG_VALUE: Match:match <- 0
	.loc	2 0 13 is_stmt 0                @ ../../../components/network/thread/subg_openthread/src/core/common/string.cpp:0:13
	movs	r0, #0
.Ltmp46:
	@DEBUG_VALUE: Match:aString <- [DW_OP_LLVM_entry_value 1] $r0
	@DEBUG_VALUE: Match:aString <- [DW_OP_LLVM_entry_value 1] $r0
	@DEBUG_VALUE: Match:match <- $r0
	@DEBUG_LABEL: Match:exit
	.loc	2 85 5 is_stmt 1                @ ../../../components/network/thread/subg_openthread/src/core/common/string.cpp:85:5
	bx	lr
.Ltmp47:
	.p2align	2
.LBB3_5:                                @   in Loop: Header=BB3_6 Depth=1
	@DEBUG_VALUE: Match:aPrefixString <- $r1
	@DEBUG_VALUE: Match:aString <- $r0
	@DEBUG_VALUE: Match:match <- 0
	.loc	2 70 13                         @ ../../../components/network/thread/subg_openthread/src/core/common/string.cpp:70:13
	ldrb	r3, [r0], #1
.Ltmp48:
	@DEBUG_VALUE: Match:aString <- [DW_OP_LLVM_entry_value 1] $r0
	@DEBUG_VALUE: Match:aString <- [DW_OP_LLVM_entry_value 1] $r0
	@DEBUG_VALUE: Match:aString <- $r0
	adds	r1, #1
.Ltmp49:
	@DEBUG_VALUE: Match:aPrefixString <- [DW_OP_LLVM_entry_value 1] $r1
	@DEBUG_VALUE: Match:aPrefixString <- [DW_OP_LLVM_entry_value 1] $r1
	@DEBUG_VALUE: Match:aPrefixString <- $r1
	.loc	2 70 13 is_stmt 0               @ ../../../components/network/thread/subg_openthread/src/core/common/string.cpp:70:13
	cmp	r3, r2
	bne	.LBB3_4
.Ltmp50:
.LBB3_6:                                @ =>This Inner Loop Header: Depth=1
	@DEBUG_VALUE: Match:aPrefixString <- $r1
	@DEBUG_VALUE: Match:aString <- $r0
	@DEBUG_VALUE: Match:match <- 0
	@DEBUG_VALUE: Match:aString <- $r0
	@DEBUG_VALUE: Match:aPrefixString <- $r1
	.loc	2 68 16 is_stmt 1               @ ../../../components/network/thread/subg_openthread/src/core/common/string.cpp:68:16
	ldrb	r2, [r1]
.Ltmp51:
	@DEBUG_VALUE: Match:aMode <- [DW_OP_LLVM_entry_value 1] $r2
	.loc	2 68 9 is_stmt 0                @ ../../../components/network/thread/subg_openthread/src/core/common/string.cpp:68:9
	cmp	r2, #0
	bne	.LBB3_5
.Ltmp52:
.LBB3_7:
	@DEBUG_VALUE: Match:aPrefixString <- $r1
	@DEBUG_VALUE: Match:aString <- $r0
	@DEBUG_VALUE: Match:match <- 0
	@DEBUG_VALUE: Match:aString <- $r0
	.loc	2 82 14 is_stmt 1               @ ../../../components/network/thread/subg_openthread/src/core/common/string.cpp:82:14
	ldrb	r1, [r0]
.Ltmp53:
	@DEBUG_VALUE: Match:aPrefixString <- [DW_OP_LLVM_entry_value 1] $r1
	.loc	2 0 14 is_stmt 0                @ ../../../components/network/thread/subg_openthread/src/core/common/string.cpp:0:14
	movs	r0, #1
.Ltmp54:
	@DEBUG_VALUE: Match:aString <- [DW_OP_LLVM_entry_value 1] $r0
	.loc	2 82 13                         @ ../../../components/network/thread/subg_openthread/src/core/common/string.cpp:82:13
	cmp	r1, #0
	it	eq
	moveq	r0, #2
.Ltmp55:
	@DEBUG_VALUE: Match:match <- undef
	@DEBUG_VALUE: Match:match <- $r0
	@DEBUG_LABEL: Match:exit
	.loc	2 85 5 is_stmt 1                @ ../../../components/network/thread/subg_openthread/src/core/common/string.cpp:85:5
	bx	lr
.Ltmp56:
.Lfunc_end3:
	.size	_ZN2ot12_GLOBAL__N_15MatchEPKcS2_NS_15StringMatchModeE, .Lfunc_end3-_ZN2ot12_GLOBAL__N_15MatchEPKcS2_NS_15StringMatchModeE
	.cfi_endproc
	.cantunwind
	.fnend
                                        @ -- End function
	.section	.text._ZN2ot16StringStartsWithEPKcS1_NS_15StringMatchModeE,"ax",%progbits
	.hidden	_ZN2ot16StringStartsWithEPKcS1_NS_15StringMatchModeE @ -- Begin function _ZN2ot16StringStartsWithEPKcS1_NS_15StringMatchModeE
	.globl	_ZN2ot16StringStartsWithEPKcS1_NS_15StringMatchModeE
	.p2align	1
	.type	_ZN2ot16StringStartsWithEPKcS1_NS_15StringMatchModeE,%function
	.code	16                              @ @_ZN2ot16StringStartsWithEPKcS1_NS_15StringMatchModeE
	.thumb_func
_ZN2ot16StringStartsWithEPKcS1_NS_15StringMatchModeE:
.Lfunc_begin4:
	.loc	2 139 0                         @ ../../../components/network/thread/subg_openthread/src/core/common/string.cpp:139:0
	.fnstart
	.cfi_startproc
@ %bb.0:
	@DEBUG_VALUE: StringStartsWith:aString <- $r0
	@DEBUG_VALUE: StringStartsWith:aString <- $r0
	@DEBUG_VALUE: StringStartsWith:aPrefixString <- $r1
	@DEBUG_VALUE: StringStartsWith:aPrefixString <- $r1
	@DEBUG_VALUE: StringStartsWith:aMode <- $r2
	@DEBUG_VALUE: StringStartsWith:aMode <- $r2
	@DEBUG_VALUE: StringStartsWith:aMode <- $r2
	@DEBUG_VALUE: StringStartsWith:aPrefixString <- $r1
	@DEBUG_VALUE: StringStartsWith:aString <- $r0
	.save	{r7, lr}
	push	{r7, lr}
	.cfi_def_cfa_offset 8
	.cfi_offset lr, -4
	.cfi_offset r7, -8
.Ltmp57:
	.loc	2 140 12 prologue_end           @ ../../../components/network/thread/subg_openthread/src/core/common/string.cpp:140:12
	bl	_ZN2ot12_GLOBAL__N_15MatchEPKcS2_NS_15StringMatchModeE
.Ltmp58:
	@DEBUG_VALUE: StringStartsWith:aMode <- [DW_OP_LLVM_entry_value 1] $r2
	@DEBUG_VALUE: StringStartsWith:aPrefixString <- [DW_OP_LLVM_entry_value 1] $r1
	@DEBUG_VALUE: StringStartsWith:aString <- [DW_OP_LLVM_entry_value 1] $r0
	.loc	2 140 49 is_stmt 0              @ ../../../components/network/thread/subg_openthread/src/core/common/string.cpp:140:49
	cmp	r0, #0
	it	ne
	movne	r0, #1
	.loc	2 140 5                         @ ../../../components/network/thread/subg_openthread/src/core/common/string.cpp:140:5
	pop	{r7, pc}
.Ltmp59:
.Lfunc_end4:
	.size	_ZN2ot16StringStartsWithEPKcS1_NS_15StringMatchModeE, .Lfunc_end4-_ZN2ot16StringStartsWithEPKcS1_NS_15StringMatchModeE
	.cfi_endproc
	.cantunwind
	.fnend
                                        @ -- End function
	.section	.text._ZN2ot14StringEndsWithEPKcc,"ax",%progbits
	.hidden	_ZN2ot14StringEndsWithEPKcc     @ -- Begin function _ZN2ot14StringEndsWithEPKcc
	.globl	_ZN2ot14StringEndsWithEPKcc
	.p2align	1
	.type	_ZN2ot14StringEndsWithEPKcc,%function
	.code	16                              @ @_ZN2ot14StringEndsWithEPKcc
	.thumb_func
_ZN2ot14StringEndsWithEPKcc:
.Lfunc_begin5:
	.loc	2 144 0 is_stmt 1               @ ../../../components/network/thread/subg_openthread/src/core/common/string.cpp:144:0
	.fnstart
	.cfi_startproc
@ %bb.0:
	@DEBUG_VALUE: StringEndsWith:aString <- $r0
	@DEBUG_VALUE: StringEndsWith:aChar <- $r1
	.save	{r4, r5, r7, lr}
	push	{r4, r5, r7, lr}
	.cfi_def_cfa_offset 16
	.cfi_offset lr, -4
	.cfi_offset r7, -8
	.cfi_offset r5, -12
	.cfi_offset r4, -16
	mov	r4, r1
.Ltmp60:
	@DEBUG_VALUE: StringEndsWith:aChar <- $r4
	mov	r5, r0
	@DEBUG_VALUE: StringEndsWith:aChar <- $r4
.Ltmp61:
	@DEBUG_VALUE: StringEndsWith:aString <- $r5
	.loc	2 145 18 prologue_end           @ ../../../components/network/thread/subg_openthread/src/core/common/string.cpp:145:18
	bl	strlen
.Ltmp62:
	@DEBUG_VALUE: StringEndsWith:len <- $r0
	.loc	2 147 22                        @ ../../../components/network/thread/subg_openthread/src/core/common/string.cpp:147:22
	cbz	r0, .LBB5_2
.Ltmp63:
@ %bb.1:
	@DEBUG_VALUE: StringEndsWith:aString <- $r5
	@DEBUG_VALUE: StringEndsWith:aChar <- $r4
	@DEBUG_VALUE: StringEndsWith:len <- $r0
	.loc	2 147 38 is_stmt 0              @ ../../../components/network/thread/subg_openthread/src/core/common/string.cpp:147:38
	add	r0, r5
.Ltmp64:
	.loc	2 147 26                        @ ../../../components/network/thread/subg_openthread/src/core/common/string.cpp:147:26
	ldrb	r0, [r0, #-1]
	.loc	2 147 43                        @ ../../../components/network/thread/subg_openthread/src/core/common/string.cpp:147:43
	subs	r0, r0, r4
	clz	r0, r0
	lsrs	r0, r0, #5
	.loc	2 147 5                         @ ../../../components/network/thread/subg_openthread/src/core/common/string.cpp:147:5
	pop	{r4, r5, r7, pc}
.Ltmp65:
.LBB5_2:
	@DEBUG_VALUE: StringEndsWith:aString <- $r5
	@DEBUG_VALUE: StringEndsWith:aChar <- $r4
	@DEBUG_VALUE: StringEndsWith:len <- $r0
	.loc	2 0 5                           @ ../../../components/network/thread/subg_openthread/src/core/common/string.cpp:0:5
	movs	r0, #0
.Ltmp66:
	.loc	2 147 5                         @ ../../../components/network/thread/subg_openthread/src/core/common/string.cpp:147:5
	pop	{r4, r5, r7, pc}
.Ltmp67:
.Lfunc_end5:
	.size	_ZN2ot14StringEndsWithEPKcc, .Lfunc_end5-_ZN2ot14StringEndsWithEPKcc
	.cfi_endproc
	.cantunwind
	.fnend
                                        @ -- End function
	.section	.text._ZN2ot14StringEndsWithEPKcS1_NS_15StringMatchModeE,"ax",%progbits
	.hidden	_ZN2ot14StringEndsWithEPKcS1_NS_15StringMatchModeE @ -- Begin function _ZN2ot14StringEndsWithEPKcS1_NS_15StringMatchModeE
	.globl	_ZN2ot14StringEndsWithEPKcS1_NS_15StringMatchModeE
	.p2align	1
	.type	_ZN2ot14StringEndsWithEPKcS1_NS_15StringMatchModeE,%function
	.code	16                              @ @_ZN2ot14StringEndsWithEPKcS1_NS_15StringMatchModeE
	.thumb_func
_ZN2ot14StringEndsWithEPKcS1_NS_15StringMatchModeE:
.Lfunc_begin6:
	.loc	2 151 0 is_stmt 1               @ ../../../components/network/thread/subg_openthread/src/core/common/string.cpp:151:0
	.fnstart
	.cfi_startproc
@ %bb.0:
	@DEBUG_VALUE: StringEndsWith:aString <- $r0
	@DEBUG_VALUE: StringEndsWith:aSubString <- $r1
	@DEBUG_VALUE: StringEndsWith:aMode <- $r2
	.save	{r4, r5, r6, r7, lr}
	push	{r4, r5, r6, r7, lr}
	.cfi_def_cfa_offset 20
	.cfi_offset lr, -4
	.cfi_offset r7, -8
	.cfi_offset r6, -12
	.cfi_offset r5, -16
	.cfi_offset r4, -20
	.pad	#4
	sub	sp, #4
	.cfi_def_cfa_offset 24
	mov	r4, r2
.Ltmp68:
	@DEBUG_VALUE: StringEndsWith:aMode <- $r4
	mov	r5, r1
.Ltmp69:
	@DEBUG_VALUE: StringEndsWith:aSubString <- $r5
	mov	r6, r0
	@DEBUG_VALUE: StringEndsWith:aMode <- $r4
	@DEBUG_VALUE: StringEndsWith:aSubString <- $r5
.Ltmp70:
	@DEBUG_VALUE: StringEndsWith:aString <- $r6
	.loc	2 152 21 prologue_end           @ ../../../components/network/thread/subg_openthread/src/core/common/string.cpp:152:21
	bl	strlen
.Ltmp71:
	mov	r7, r0
.Ltmp72:
	@DEBUG_VALUE: StringEndsWith:len <- $r7
	.loc	2 153 21                        @ ../../../components/network/thread/subg_openthread/src/core/common/string.cpp:153:21
	mov	r0, r5
	bl	strlen
.Ltmp73:
	@DEBUG_VALUE: StringEndsWith:subLen <- $r0
	.loc	2 155 25                        @ ../../../components/network/thread/subg_openthread/src/core/common/string.cpp:155:25
	subs	r1, r0, #1
	cmp	r1, r7
	bhs	.LBB6_2
.Ltmp74:
@ %bb.1:
	@DEBUG_VALUE: StringEndsWith:len <- $r7
	@DEBUG_VALUE: StringEndsWith:aString <- $r6
	@DEBUG_VALUE: StringEndsWith:aSubString <- $r5
	@DEBUG_VALUE: StringEndsWith:aMode <- $r4
	@DEBUG_VALUE: StringEndsWith:subLen <- $r0
	@DEBUG_VALUE: StringEndsWith:aMode <- $r4
	.loc	2 155 67 is_stmt 0              @ ../../../components/network/thread/subg_openthread/src/core/common/string.cpp:155:67
	subs	r0, r7, r0
.Ltmp75:
	.loc	2 155 55                        @ ../../../components/network/thread/subg_openthread/src/core/common/string.cpp:155:55
	add	r0, r6
	.loc	2 155 48                        @ ../../../components/network/thread/subg_openthread/src/core/common/string.cpp:155:48
	mov	r1, r5
	mov	r2, r4
	bl	_ZN2ot12_GLOBAL__N_15MatchEPKcS2_NS_15StringMatchModeE
.Ltmp76:
	.loc	2 155 97                        @ ../../../components/network/thread/subg_openthread/src/core/common/string.cpp:155:97
	cmp	r0, #0
	it	ne
	movne	r0, #1
	b	.LBB6_3
.Ltmp77:
.LBB6_2:
	@DEBUG_VALUE: StringEndsWith:len <- $r7
	@DEBUG_VALUE: StringEndsWith:aString <- $r6
	@DEBUG_VALUE: StringEndsWith:aSubString <- $r5
	@DEBUG_VALUE: StringEndsWith:aMode <- $r4
	@DEBUG_VALUE: StringEndsWith:subLen <- $r0
	.loc	2 0 97                          @ ../../../components/network/thread/subg_openthread/src/core/common/string.cpp:0:97
	movs	r0, #0
.Ltmp78:
.LBB6_3:
	@DEBUG_VALUE: StringEndsWith:len <- $r7
	@DEBUG_VALUE: StringEndsWith:aString <- $r6
	@DEBUG_VALUE: StringEndsWith:aSubString <- $r5
	@DEBUG_VALUE: StringEndsWith:aMode <- $r4
	.loc	2 155 5                         @ ../../../components/network/thread/subg_openthread/src/core/common/string.cpp:155:5
	add	sp, #4
	pop	{r4, r5, r6, r7, pc}
.Ltmp79:
.Lfunc_end6:
	.size	_ZN2ot14StringEndsWithEPKcS1_NS_15StringMatchModeE, .Lfunc_end6-_ZN2ot14StringEndsWithEPKcS1_NS_15StringMatchModeE
	.cfi_endproc
	.cantunwind
	.fnend
                                        @ -- End function
	.section	.text._ZN2ot11StringMatchEPKcS1_NS_15StringMatchModeE,"ax",%progbits
	.hidden	_ZN2ot11StringMatchEPKcS1_NS_15StringMatchModeE @ -- Begin function _ZN2ot11StringMatchEPKcS1_NS_15StringMatchModeE
	.globl	_ZN2ot11StringMatchEPKcS1_NS_15StringMatchModeE
	.p2align	1
	.type	_ZN2ot11StringMatchEPKcS1_NS_15StringMatchModeE,%function
	.code	16                              @ @_ZN2ot11StringMatchEPKcS1_NS_15StringMatchModeE
	.thumb_func
_ZN2ot11StringMatchEPKcS1_NS_15StringMatchModeE:
.Lfunc_begin7:
	.loc	2 159 0 is_stmt 1               @ ../../../components/network/thread/subg_openthread/src/core/common/string.cpp:159:0
	.fnstart
	.cfi_startproc
@ %bb.0:
	@DEBUG_VALUE: StringMatch:aFirstString <- $r0
	@DEBUG_VALUE: StringMatch:aFirstString <- $r0
	@DEBUG_VALUE: StringMatch:aSecondString <- $r1
	@DEBUG_VALUE: StringMatch:aSecondString <- $r1
	@DEBUG_VALUE: StringMatch:aMode <- $r2
	@DEBUG_VALUE: StringMatch:aMode <- $r2
	@DEBUG_VALUE: StringMatch:aMode <- $r2
	@DEBUG_VALUE: StringMatch:aSecondString <- $r1
	@DEBUG_VALUE: StringMatch:aFirstString <- $r0
	.save	{r7, lr}
	push	{r7, lr}
	.cfi_def_cfa_offset 8
	.cfi_offset lr, -4
	.cfi_offset r7, -8
.Ltmp80:
	.loc	2 160 12 prologue_end           @ ../../../components/network/thread/subg_openthread/src/core/common/string.cpp:160:12
	bl	_ZN2ot12_GLOBAL__N_15MatchEPKcS2_NS_15StringMatchModeE
.Ltmp81:
	@DEBUG_VALUE: StringMatch:aMode <- [DW_OP_LLVM_entry_value 1] $r2
	@DEBUG_VALUE: StringMatch:aSecondString <- [DW_OP_LLVM_entry_value 1] $r1
	@DEBUG_VALUE: StringMatch:aFirstString <- [DW_OP_LLVM_entry_value 1] $r0
	.loc	2 160 54 is_stmt 0              @ ../../../components/network/thread/subg_openthread/src/core/common/string.cpp:160:54
	subs	r0, #2
	clz	r0, r0
	lsrs	r0, r0, #5
	.loc	2 160 5                         @ ../../../components/network/thread/subg_openthread/src/core/common/string.cpp:160:5
	pop	{r7, pc}
.Ltmp82:
.Lfunc_end7:
	.size	_ZN2ot11StringMatchEPKcS1_NS_15StringMatchModeE, .Lfunc_end7-_ZN2ot11StringMatchEPKcS1_NS_15StringMatchModeE
	.cfi_endproc
	.cantunwind
	.fnend
                                        @ -- End function
	.section	.text._ZN2ot24StringConvertToLowercaseEPc,"ax",%progbits
	.hidden	_ZN2ot24StringConvertToLowercaseEPc @ -- Begin function _ZN2ot24StringConvertToLowercaseEPc
	.globl	_ZN2ot24StringConvertToLowercaseEPc
	.p2align	1
	.type	_ZN2ot24StringConvertToLowercaseEPc,%function
	.code	16                              @ @_ZN2ot24StringConvertToLowercaseEPc
	.thumb_func
_ZN2ot24StringConvertToLowercaseEPc:
.Lfunc_begin8:
	.loc	2 164 0 is_stmt 1               @ ../../../components/network/thread/subg_openthread/src/core/common/string.cpp:164:0
	.fnstart
	.cfi_startproc
@ %bb.0:
	@DEBUG_VALUE: StringConvertToLowercase:aString <- $r0
	@DEBUG_VALUE: StringConvertToLowercase:aString <- $r0
	.loc	2 165 12 prologue_end           @ ../../../components/network/thread/subg_openthread/src/core/common/string.cpp:165:12
	ldrb	r1, [r0]
.Ltmp83:
	.loc	2 165 5 is_stmt 0               @ ../../../components/network/thread/subg_openthread/src/core/common/string.cpp:165:5
	cbz	r1, .LBB8_3
.Ltmp84:
@ %bb.1:
	@DEBUG_VALUE: StringConvertToLowercase:aString <- $r0
	adds	r0, #1
.Ltmp85:
	@DEBUG_VALUE: StringConvertToLowercase:aString <- [DW_OP_LLVM_entry_value 1] $r0
	.p2align	2
.LBB8_2:                                @ =>This Inner Loop Header: Depth=1
	@DEBUG_VALUE: StringConvertToLowercase:aString <- [DW_OP_constu 1, DW_OP_minus, DW_OP_stack_value] $r0
	@DEBUG_VALUE: ToLowercase:aChar <- $r1
	.loc	2 181 24 is_stmt 1              @ ../../../components/network/thread/subg_openthread/src/core/common/string.cpp:181:24
	sub.w	r2, r1, #65
	uxtb	r2, r2
	cmp	r2, #26
	it	lo
	addlo	r1, #32
.Ltmp86:
	@DEBUG_VALUE: ToLowercase:aChar <- $r1
	.loc	2 167 18                        @ ../../../components/network/thread/subg_openthread/src/core/common/string.cpp:167:18
	strb	r1, [r0, #-1]
.Ltmp87:
	@DEBUG_VALUE: StringConvertToLowercase:aString <- $r0
	.loc	2 165 12                        @ ../../../components/network/thread/subg_openthread/src/core/common/string.cpp:165:12
	ldrb	r1, [r0], #1
.Ltmp88:
	.loc	2 165 5 is_stmt 0               @ ../../../components/network/thread/subg_openthread/src/core/common/string.cpp:165:5
	cmp	r1, #0
	bne	.LBB8_2
.Ltmp89:
.LBB8_3:
	.loc	2 169 1 is_stmt 1               @ ../../../components/network/thread/subg_openthread/src/core/common/string.cpp:169:1
	bx	lr
.Ltmp90:
.Lfunc_end8:
	.size	_ZN2ot24StringConvertToLowercaseEPc, .Lfunc_end8-_ZN2ot24StringConvertToLowercaseEPc
	.cfi_endproc
	.cantunwind
	.fnend
                                        @ -- End function
	.section	.text._ZN2ot11ToLowercaseEc,"ax",%progbits
	.hidden	_ZN2ot11ToLowercaseEc           @ -- Begin function _ZN2ot11ToLowercaseEc
	.globl	_ZN2ot11ToLowercaseEc
	.p2align	1
	.type	_ZN2ot11ToLowercaseEc,%function
	.code	16                              @ @_ZN2ot11ToLowercaseEc
	.thumb_func
_ZN2ot11ToLowercaseEc:
.Lfunc_begin9:
	.loc	2 180 0                         @ ../../../components/network/thread/subg_openthread/src/core/common/string.cpp:180:0
	.fnstart
	.cfi_startproc
@ %bb.0:
	@DEBUG_VALUE: ToLowercase:aChar <- $r0
	@DEBUG_VALUE: ToLowercase:aChar <- $r0
	.loc	2 181 24 prologue_end           @ ../../../components/network/thread/subg_openthread/src/core/common/string.cpp:181:24
	sub.w	r1, r0, #65
	uxtb	r1, r1
	cmp	r1, #26
	it	lo
	addlo	r0, #32
.Ltmp91:
	@DEBUG_VALUE: ToLowercase:aChar <- [DW_OP_LLVM_entry_value 1] $r0
	@DEBUG_VALUE: ToLowercase:aChar <- $r0
	.loc	2 186 5                         @ ../../../components/network/thread/subg_openthread/src/core/common/string.cpp:186:5
	uxtb	r0, r0
.Ltmp92:
	@DEBUG_VALUE: ToLowercase:aChar <- [DW_OP_LLVM_entry_value 1] $r0
	bx	lr
.Ltmp93:
.Lfunc_end9:
	.size	_ZN2ot11ToLowercaseEc, .Lfunc_end9-_ZN2ot11ToLowercaseEc
	.cfi_endproc
	.cantunwind
	.fnend
                                        @ -- End function
	.section	.text._ZN2ot24StringConvertToUppercaseEPc,"ax",%progbits
	.hidden	_ZN2ot24StringConvertToUppercaseEPc @ -- Begin function _ZN2ot24StringConvertToUppercaseEPc
	.globl	_ZN2ot24StringConvertToUppercaseEPc
	.p2align	1
	.type	_ZN2ot24StringConvertToUppercaseEPc,%function
	.code	16                              @ @_ZN2ot24StringConvertToUppercaseEPc
	.thumb_func
_ZN2ot24StringConvertToUppercaseEPc:
.Lfunc_begin10:
	.loc	2 172 0                         @ ../../../components/network/thread/subg_openthread/src/core/common/string.cpp:172:0
	.fnstart
	.cfi_startproc
@ %bb.0:
	@DEBUG_VALUE: StringConvertToUppercase:aString <- $r0
	@DEBUG_VALUE: StringConvertToUppercase:aString <- $r0
	.loc	2 173 12 prologue_end           @ ../../../components/network/thread/subg_openthread/src/core/common/string.cpp:173:12
	ldrb	r1, [r0]
.Ltmp94:
	.loc	2 173 5 is_stmt 0               @ ../../../components/network/thread/subg_openthread/src/core/common/string.cpp:173:5
	cbz	r1, .LBB10_3
.Ltmp95:
@ %bb.1:
	@DEBUG_VALUE: StringConvertToUppercase:aString <- $r0
	adds	r0, #1
.Ltmp96:
	@DEBUG_VALUE: StringConvertToUppercase:aString <- [DW_OP_LLVM_entry_value 1] $r0
	.p2align	2
.LBB10_2:                               @ =>This Inner Loop Header: Depth=1
	@DEBUG_VALUE: StringConvertToUppercase:aString <- [DW_OP_constu 1, DW_OP_minus, DW_OP_stack_value] $r0
	@DEBUG_VALUE: ToUppercase:aChar <- $r1
	.loc	2 191 24 is_stmt 1              @ ../../../components/network/thread/subg_openthread/src/core/common/string.cpp:191:24
	sub.w	r2, r1, #97
	uxtb	r2, r2
	cmp	r2, #26
	it	lo
	sublo	r1, #32
.Ltmp97:
	@DEBUG_VALUE: ToUppercase:aChar <- $r1
	.loc	2 175 18                        @ ../../../components/network/thread/subg_openthread/src/core/common/string.cpp:175:18
	strb	r1, [r0, #-1]
.Ltmp98:
	@DEBUG_VALUE: StringConvertToUppercase:aString <- $r0
	.loc	2 173 12                        @ ../../../components/network/thread/subg_openthread/src/core/common/string.cpp:173:12
	ldrb	r1, [r0], #1
.Ltmp99:
	.loc	2 173 5 is_stmt 0               @ ../../../components/network/thread/subg_openthread/src/core/common/string.cpp:173:5
	cmp	r1, #0
	bne	.LBB10_2
.Ltmp100:
.LBB10_3:
	.loc	2 177 1 is_stmt 1               @ ../../../components/network/thread/subg_openthread/src/core/common/string.cpp:177:1
	bx	lr
.Ltmp101:
.Lfunc_end10:
	.size	_ZN2ot24StringConvertToUppercaseEPc, .Lfunc_end10-_ZN2ot24StringConvertToUppercaseEPc
	.cfi_endproc
	.cantunwind
	.fnend
                                        @ -- End function
	.section	.text._ZN2ot11ToUppercaseEc,"ax",%progbits
	.hidden	_ZN2ot11ToUppercaseEc           @ -- Begin function _ZN2ot11ToUppercaseEc
	.globl	_ZN2ot11ToUppercaseEc
	.p2align	1
	.type	_ZN2ot11ToUppercaseEc,%function
	.code	16                              @ @_ZN2ot11ToUppercaseEc
	.thumb_func
_ZN2ot11ToUppercaseEc:
.Lfunc_begin11:
	.loc	2 190 0                         @ ../../../components/network/thread/subg_openthread/src/core/common/string.cpp:190:0
	.fnstart
	.cfi_startproc
@ %bb.0:
	@DEBUG_VALUE: ToUppercase:aChar <- $r0
	@DEBUG_VALUE: ToUppercase:aChar <- $r0
	.loc	2 191 24 prologue_end           @ ../../../components/network/thread/subg_openthread/src/core/common/string.cpp:191:24
	sub.w	r1, r0, #97
	uxtb	r1, r1
	cmp	r1, #26
	it	lo
	sublo	r0, #32
.Ltmp102:
	@DEBUG_VALUE: ToUppercase:aChar <- [DW_OP_LLVM_entry_value 1] $r0
	@DEBUG_VALUE: ToUppercase:aChar <- $r0
	.loc	2 196 5                         @ ../../../components/network/thread/subg_openthread/src/core/common/string.cpp:196:5
	uxtb	r0, r0
.Ltmp103:
	@DEBUG_VALUE: ToUppercase:aChar <- [DW_OP_LLVM_entry_value 1] $r0
	bx	lr
.Ltmp104:
.Lfunc_end11:
	.size	_ZN2ot11ToUppercaseEc, .Lfunc_end11-_ZN2ot11ToUppercaseEc
	.cfi_endproc
	.cantunwind
	.fnend
                                        @ -- End function
	.section	.text._ZN2ot7ToYesNoEb,"ax",%progbits
	.hidden	_ZN2ot7ToYesNoEb                @ -- Begin function _ZN2ot7ToYesNoEb
	.globl	_ZN2ot7ToYesNoEb
	.p2align	2
	.type	_ZN2ot7ToYesNoEb,%function
	.code	16                              @ @_ZN2ot7ToYesNoEb
	.thumb_func
_ZN2ot7ToYesNoEb:
.Lfunc_begin12:
	.loc	2 200 0                         @ ../../../components/network/thread/subg_openthread/src/core/common/string.cpp:200:0
	.fnstart
	.cfi_startproc
@ %bb.0:
	@DEBUG_VALUE: ToYesNo:aBool <- [DW_OP_LLVM_convert 1 7, DW_OP_LLVM_convert 8 7, DW_OP_stack_value] $r0
	@DEBUG_VALUE: ToYesNo:aBool <- [DW_OP_LLVM_convert 1 7, DW_OP_LLVM_convert 8 7, DW_OP_stack_value] $r0
	.loc	2 203 12 prologue_end           @ ../../../components/network/thread/subg_openthread/src/core/common/string.cpp:203:12
	adr	r1, .LCPI12_0
	ldr.w	r0, [r1, r0, lsl #2]
.Ltmp105:
	.loc	2 203 5 is_stmt 0               @ ../../../components/network/thread/subg_openthread/src/core/common/string.cpp:203:5
	bx	lr
.Ltmp106:
	.p2align	2
@ %bb.1:
	.loc	2 0 5                           @ ../../../components/network/thread/subg_openthread/src/core/common/string.cpp:0:5
.LCPI12_0:
_ZZN2ot7ToYesNoEbE13kYesNoStrings:
	.long	.L.str
	.long	.L.str.1
.Lfunc_end12:
	.size	_ZN2ot7ToYesNoEb, .Lfunc_end12-_ZN2ot7ToYesNoEb
	.cfi_endproc
	.cantunwind
	.fnend
                                        @ -- End function
	.section	.text._ZN2ot12StringWriterC2EPct,"ax",%progbits
	.hidden	_ZN2ot12StringWriterC2EPct      @ -- Begin function _ZN2ot12StringWriterC2EPct
	.globl	_ZN2ot12StringWriterC2EPct
	.p2align	1
	.type	_ZN2ot12StringWriterC2EPct,%function
	.code	16                              @ @_ZN2ot12StringWriterC2EPct
	.thumb_func
_ZN2ot12StringWriterC2EPct:
.Lfunc_begin13:
	.loc	2 210 0 is_stmt 1               @ ../../../components/network/thread/subg_openthread/src/core/common/string.cpp:210:0
	.fnstart
	.cfi_startproc
@ %bb.0:
	@DEBUG_VALUE: StringWriter:this <- $r0
	@DEBUG_VALUE: StringWriter:this <- $r0
	@DEBUG_VALUE: StringWriter:aBuffer <- $r1
	@DEBUG_VALUE: StringWriter:aBuffer <- $r1
	@DEBUG_VALUE: StringWriter:aSize <- $r2
	@DEBUG_VALUE: StringWriter:aSize <- $r2
	movs	r3, #0
.Ltmp107:
	.loc	2 207 7 prologue_end            @ ../../../components/network/thread/subg_openthread/src/core/common/string.cpp:207:7
	str	r1, [r0]
	.loc	2 208 7                         @ ../../../components/network/thread/subg_openthread/src/core/common/string.cpp:208:7
	strh	r3, [r0, #4]
	.loc	2 209 7                         @ ../../../components/network/thread/subg_openthread/src/core/common/string.cpp:209:7
	strh	r2, [r0, #6]
.Ltmp108:
	.loc	2 211 16                        @ ../../../components/network/thread/subg_openthread/src/core/common/string.cpp:211:16
	strb	r3, [r1]
.Ltmp109:
	.loc	2 212 1                         @ ../../../components/network/thread/subg_openthread/src/core/common/string.cpp:212:1
	bx	lr
.Ltmp110:
.Lfunc_end13:
	.size	_ZN2ot12StringWriterC2EPct, .Lfunc_end13-_ZN2ot12StringWriterC2EPct
	.cfi_endproc
	.cantunwind
	.fnend
                                        @ -- End function
	.section	.text._ZN2ot12StringWriter5ClearEv,"ax",%progbits
	.hidden	_ZN2ot12StringWriter5ClearEv    @ -- Begin function _ZN2ot12StringWriter5ClearEv
	.globl	_ZN2ot12StringWriter5ClearEv
	.p2align	1
	.type	_ZN2ot12StringWriter5ClearEv,%function
	.code	16                              @ @_ZN2ot12StringWriter5ClearEv
	.thumb_func
_ZN2ot12StringWriter5ClearEv:
.Lfunc_begin14:
	.loc	2 215 0                         @ ../../../components/network/thread/subg_openthread/src/core/common/string.cpp:215:0
	.fnstart
	.cfi_startproc
@ %bb.0:
	@DEBUG_VALUE: Clear:this <- $r0
	@DEBUG_VALUE: Clear:this <- $r0
	.loc	2 216 5 prologue_end            @ ../../../components/network/thread/subg_openthread/src/core/common/string.cpp:216:5
	ldr	r1, [r0]
	movs	r2, #0
	.loc	2 216 16 is_stmt 0              @ ../../../components/network/thread/subg_openthread/src/core/common/string.cpp:216:16
	strb	r2, [r1]
	.loc	2 217 16 is_stmt 1              @ ../../../components/network/thread/subg_openthread/src/core/common/string.cpp:217:16
	strh	r2, [r0, #4]
	.loc	2 218 5                         @ ../../../components/network/thread/subg_openthread/src/core/common/string.cpp:218:5
	bx	lr
.Ltmp111:
.Lfunc_end14:
	.size	_ZN2ot12StringWriter5ClearEv, .Lfunc_end14-_ZN2ot12StringWriter5ClearEv
	.cfi_endproc
	.cantunwind
	.fnend
                                        @ -- End function
	.section	.text._ZN2ot12StringWriter6AppendEPKcz,"ax",%progbits
	.hidden	_ZN2ot12StringWriter6AppendEPKcz @ -- Begin function _ZN2ot12StringWriter6AppendEPKcz
	.globl	_ZN2ot12StringWriter6AppendEPKcz
	.p2align	1
	.type	_ZN2ot12StringWriter6AppendEPKcz,%function
	.code	16                              @ @_ZN2ot12StringWriter6AppendEPKcz
	.thumb_func
_ZN2ot12StringWriter6AppendEPKcz:
.Lfunc_begin15:
	.loc	2 222 0                         @ ../../../components/network/thread/subg_openthread/src/core/common/string.cpp:222:0
	.fnstart
	.cfi_startproc
@ %bb.0:
	@DEBUG_VALUE: Append:this <- $r0
	@DEBUG_VALUE: Append:aFormat <- $r1
	.pad	#8
	sub	sp, #8
	.cfi_def_cfa_offset 8
	.save	{r7, lr}
	push	{r7, lr}
	.cfi_def_cfa_offset 16
	.cfi_offset lr, -12
	.cfi_offset r7, -16
	.pad	#8
	sub	sp, #8
	.cfi_def_cfa_offset 24
	strd	r2, r3, [sp, #16]
	add	r2, sp, #16
	@DEBUG_VALUE: Append:aFormat <- $r1
	@DEBUG_VALUE: Append:this <- $r0
.Ltmp112:
	.loc	2 224 5 prologue_end            @ ../../../components/network/thread/subg_openthread/src/core/common/string.cpp:224:5
	str	r2, [sp, #4]
	@DEBUG_VALUE: Append:aFormat <- $r1
	.loc	2 225 5                         @ ../../../components/network/thread/subg_openthread/src/core/common/string.cpp:225:5
	bl	_ZN2ot12StringWriter13AppendVarArgsEPKcSt9__va_list
.Ltmp113:
	@DEBUG_VALUE: Append:aFormat <- [DW_OP_LLVM_entry_value 1] $r1
	.loc	2 228 5                         @ ../../../components/network/thread/subg_openthread/src/core/common/string.cpp:228:5
	add	sp, #8
	pop.w	{r7, lr}
	add	sp, #8
	bx	lr
.Ltmp114:
.Lfunc_end15:
	.size	_ZN2ot12StringWriter6AppendEPKcz, .Lfunc_end15-_ZN2ot12StringWriter6AppendEPKcz
	.cfi_endproc
	.cantunwind
	.fnend
                                        @ -- End function
	.section	.text._ZN2ot12StringWriter13AppendVarArgsEPKcSt9__va_list,"ax",%progbits
	.hidden	_ZN2ot12StringWriter13AppendVarArgsEPKcSt9__va_list @ -- Begin function _ZN2ot12StringWriter13AppendVarArgsEPKcSt9__va_list
	.globl	_ZN2ot12StringWriter13AppendVarArgsEPKcSt9__va_list
	.p2align	1
	.type	_ZN2ot12StringWriter13AppendVarArgsEPKcSt9__va_list,%function
	.code	16                              @ @_ZN2ot12StringWriter13AppendVarArgsEPKcSt9__va_list
	.thumb_func
_ZN2ot12StringWriter13AppendVarArgsEPKcSt9__va_list:
.Lfunc_begin16:
	.loc	2 232 0                         @ ../../../components/network/thread/subg_openthread/src/core/common/string.cpp:232:0
	.fnstart
	.cfi_startproc
@ %bb.0:
	@DEBUG_VALUE: AppendVarArgs:this <- $r0
	@DEBUG_VALUE: AppendVarArgs:aFormat <- $r1
	.save	{r4, lr}
	push	{r4, lr}
	.cfi_def_cfa_offset 8
	.cfi_offset lr, -4
	.cfi_offset r4, -8
	mov	r4, r0
	@DEBUG_VALUE: AppendVarArgs:aArgs <- undef
.Ltmp115:
	@DEBUG_VALUE: AppendVarArgs:aFormat <- $r2
	@DEBUG_VALUE: AppendVarArgs:this <- $r4
	mov	r12, r2
	mov	r2, r1
.Ltmp116:
	.loc	2 235 21 prologue_end           @ ../../../components/network/thread/subg_openthread/src/core/common/string.cpp:235:21
	ldr	r0, [r0]
	.loc	2 235 31 is_stmt 0              @ ../../../components/network/thread/subg_openthread/src/core/common/string.cpp:235:31
	ldrh	r1, [r4, #4]
	.loc	2 235 41                        @ ../../../components/network/thread/subg_openthread/src/core/common/string.cpp:235:41
	ldrh	r3, [r4, #6]
	.loc	2 235 29                        @ ../../../components/network/thread/subg_openthread/src/core/common/string.cpp:235:29
	add	r0, r1
	.loc	2 235 41                        @ ../../../components/network/thread/subg_openthread/src/core/common/string.cpp:235:41
	subs	r1, r3, r1
	.loc	2 235 11                        @ ../../../components/network/thread/subg_openthread/src/core/common/string.cpp:235:11
	mov	r3, r12
	.loc	2 235 41                        @ ../../../components/network/thread/subg_openthread/src/core/common/string.cpp:235:41
	it	ls
	movls	r1, #0
.Ltmp117:
	@DEBUG_VALUE: AppendVarArgs:aFormat <- $r2
	.loc	2 235 11                        @ ../../../components/network/thread/subg_openthread/src/core/common/string.cpp:235:11
	bl	vsnprintf
.Ltmp118:
	@DEBUG_VALUE: AppendVarArgs:len <- $r0
	.loc	2 236 5 is_stmt 1               @ ../../../components/network/thread/subg_openthread/src/core/common/string.cpp:236:5
	cmp.w	r0, #-1
	ble	.LBB16_4
.Ltmp119:
@ %bb.1:
	@DEBUG_VALUE: AppendVarArgs:this <- $r4
	@DEBUG_VALUE: AppendVarArgs:len <- $r0
	.loc	2 238 13                        @ ../../../components/network/thread/subg_openthread/src/core/common/string.cpp:238:13
	ldrh	r1, [r4, #4]
	add	r1, r0
.Ltmp120:
	.loc	1 287 54                        @ ../../../components/network/thread/subg_openthread/src/core/common/string.hpp:287:54
	ldrh	r0, [r4, #6]
.Ltmp121:
	.loc	2 238 13                        @ ../../../components/network/thread/subg_openthread/src/core/common/string.cpp:238:13
	uxth	r2, r1
	.loc	2 240 9                         @ ../../../components/network/thread/subg_openthread/src/core/common/string.cpp:240:9
	cmp	r2, r0
	.loc	2 238 13                        @ ../../../components/network/thread/subg_openthread/src/core/common/string.cpp:238:13
	strh	r1, [r4, #4]
	@DEBUG_VALUE: IsTruncated:this <- $r4
	.loc	2 240 9                         @ ../../../components/network/thread/subg_openthread/src/core/common/string.cpp:240:9
	blo	.LBB16_3
.Ltmp122:
@ %bb.2:
	@DEBUG_VALUE: AppendVarArgs:this <- $r4
	.loc	2 242 9                         @ ../../../components/network/thread/subg_openthread/src/core/common/string.cpp:242:9
	ldr	r1, [r4]
	.loc	2 242 23 is_stmt 0              @ ../../../components/network/thread/subg_openthread/src/core/common/string.cpp:242:23
	add	r0, r1
	movs	r1, #0
	.loc	2 242 28                        @ ../../../components/network/thread/subg_openthread/src/core/common/string.cpp:242:28
	strb	r1, [r0, #-1]
.Ltmp123:
.LBB16_3:
	@DEBUG_VALUE: AppendVarArgs:this <- $r4
	.loc	2 245 5 is_stmt 1               @ ../../../components/network/thread/subg_openthread/src/core/common/string.cpp:245:5
	mov	r0, r4
.Ltmp124:
	@DEBUG_VALUE: AppendVarArgs:this <- $r0
	pop	{r4, pc}
.Ltmp125:
.LBB16_4:
	@DEBUG_VALUE: AppendVarArgs:this <- $r4
	@DEBUG_VALUE: AppendVarArgs:len <- $r0
	.loc	2 236 5                         @ ../../../components/network/thread/subg_openthread/src/core/common/string.cpp:236:5
	movw	r0, :lower16:.L.str.2
.Ltmp126:
	movt	r0, :upper16:.L.str.2
	movs	r1, #236
	bl	otPlatAssertFail
.Ltmp127:
	.p2align	2
.LBB16_5:                               @ =>This Inner Loop Header: Depth=1
	@DEBUG_VALUE: AppendVarArgs:this <- $r4
	b	.LBB16_5
.Ltmp128:
.Lfunc_end16:
	.size	_ZN2ot12StringWriter13AppendVarArgsEPKcSt9__va_list, .Lfunc_end16-_ZN2ot12StringWriter13AppendVarArgsEPKcSt9__va_list
	.cfi_endproc
	.cantunwind
	.fnend
                                        @ -- End function
	.section	.text._ZN2ot12StringWriter14AppendHexBytesEPKht,"ax",%progbits
	.hidden	_ZN2ot12StringWriter14AppendHexBytesEPKht @ -- Begin function _ZN2ot12StringWriter14AppendHexBytesEPKht
	.globl	_ZN2ot12StringWriter14AppendHexBytesEPKht
	.p2align	2
	.type	_ZN2ot12StringWriter14AppendHexBytesEPKht,%function
	.code	16                              @ @_ZN2ot12StringWriter14AppendHexBytesEPKht
	.thumb_func
_ZN2ot12StringWriter14AppendHexBytesEPKht:
.Lfunc_begin17:
	.loc	2 249 0                         @ ../../../components/network/thread/subg_openthread/src/core/common/string.cpp:249:0
	.fnstart
	.cfi_startproc
@ %bb.0:
	@DEBUG_VALUE: AppendHexBytes:this <- $r0
	@DEBUG_VALUE: AppendHexBytes:aBytes <- $r1
	@DEBUG_VALUE: AppendHexBytes:aLength <- [DW_OP_constu 1, DW_OP_minus, DW_OP_stack_value] $r2
	@DEBUG_VALUE: AppendHexBytes:aLength <- [DW_OP_constu 1, DW_OP_minus, DW_OP_stack_value] $r2
	@DEBUG_VALUE: AppendHexBytes:aBytes <- $r1
	.save	{r4, r5, r6, lr}
	push	{r4, r5, r6, lr}
	.cfi_def_cfa_offset 16
	.cfi_offset lr, -4
	.cfi_offset r6, -8
	.cfi_offset r5, -12
	.cfi_offset r4, -16
	@DEBUG_VALUE: AppendHexBytes:this <- $r0
.Ltmp129:
	.loc	2 250 5 prologue_end            @ ../../../components/network/thread/subg_openthread/src/core/common/string.cpp:250:5
	cbz	r2, .LBB17_3
.Ltmp130:
@ %bb.1:
	@DEBUG_VALUE: AppendHexBytes:aLength <- [DW_OP_constu 1, DW_OP_minus, DW_OP_stack_value] $r2
	@DEBUG_VALUE: AppendHexBytes:aBytes <- $r1
	@DEBUG_VALUE: AppendHexBytes:this <- $r0
	.loc	2 0 5 is_stmt 0                 @ ../../../components/network/thread/subg_openthread/src/core/common/string.cpp:0:5
	mov	r4, r2
.Ltmp131:
	@DEBUG_VALUE: AppendHexBytes:aLength <- [DW_OP_constu 1, DW_OP_minus, DW_OP_stack_value] $r4
	@DEBUG_VALUE: AppendHexBytes:aLength <- [DW_OP_constu 1, DW_OP_minus, DW_OP_stack_value] $r4
	mov	r5, r1
.Ltmp132:
	@DEBUG_VALUE: AppendHexBytes:aBytes <- $r5
	@DEBUG_VALUE: AppendHexBytes:aBytes <- $r5
	adr	r6, .LCPI17_0
.Ltmp133:
	.p2align	2
.LBB17_2:                               @ =>This Inner Loop Header: Depth=1
	@DEBUG_VALUE: AppendHexBytes:aBytes <- $r5
	@DEBUG_VALUE: AppendHexBytes:aLength <- [DW_OP_constu 1, DW_OP_minus, DW_OP_stack_value] $r4
	@DEBUG_VALUE: AppendHexBytes:this <- $r0
	@DEBUG_VALUE: AppendHexBytes:aBytes <- $r5
	@DEBUG_VALUE: AppendHexBytes:aLength <- $r4
	.loc	2 252 24 is_stmt 1              @ ../../../components/network/thread/subg_openthread/src/core/common/string.cpp:252:24
	ldrb	r2, [r5], #1
.Ltmp134:
	@DEBUG_VALUE: AppendHexBytes:aBytes <- $r5
	.loc	2 252 9 is_stmt 0               @ ../../../components/network/thread/subg_openthread/src/core/common/string.cpp:252:9
	mov	r1, r6
.Ltmp135:
	.loc	2 250 19 is_stmt 1              @ ../../../components/network/thread/subg_openthread/src/core/common/string.cpp:250:19
	subs	r4, #1
.Ltmp136:
	@DEBUG_VALUE: AppendHexBytes:aLength <- $r4
	.loc	2 252 9                         @ ../../../components/network/thread/subg_openthread/src/core/common/string.cpp:252:9
	bl	_ZN2ot12StringWriter6AppendEPKcz
.Ltmp137:
	@DEBUG_VALUE: AppendHexBytes:aLength <- [DW_OP_constu 1, DW_OP_minus, DW_OP_stack_value] $r4
	.loc	2 250 5                         @ ../../../components/network/thread/subg_openthread/src/core/common/string.cpp:250:5
	lsls	r1, r4, #16
	bne	.LBB17_2
.Ltmp138:
.LBB17_3:
	@DEBUG_VALUE: AppendHexBytes:this <- $r0
	.loc	2 255 5                         @ ../../../components/network/thread/subg_openthread/src/core/common/string.cpp:255:5
	pop	{r4, r5, r6, pc}
.Ltmp139:
	.p2align	2
@ %bb.4:
	.loc	2 0 5 is_stmt 0                 @ ../../../components/network/thread/subg_openthread/src/core/common/string.cpp:0:5
.LCPI17_0:
.L.str.3:
	.asciz	"%02x\000\000\000"
.Lfunc_end17:
	.size	_ZN2ot12StringWriter14AppendHexBytesEPKht, .Lfunc_end17-_ZN2ot12StringWriter14AppendHexBytesEPKht
	.cfi_endproc
	.cantunwind
	.fnend
                                        @ -- End function
	.section	.text._ZN2ot17IsValidUtf8StringEPKc,"ax",%progbits
	.hidden	_ZN2ot17IsValidUtf8StringEPKc   @ -- Begin function _ZN2ot17IsValidUtf8StringEPKc
	.globl	_ZN2ot17IsValidUtf8StringEPKc
	.p2align	1
	.type	_ZN2ot17IsValidUtf8StringEPKc,%function
	.code	16                              @ @_ZN2ot17IsValidUtf8StringEPKc
	.thumb_func
_ZN2ot17IsValidUtf8StringEPKc:
.Lfunc_begin18:
	.loc	2 258 0 is_stmt 1               @ ../../../components/network/thread/subg_openthread/src/core/common/string.cpp:258:0
	.fnstart
	.cfi_startproc
@ %bb.0:
	@DEBUG_VALUE: IsValidUtf8String:aString <- $r0
	.save	{r4, lr}
	push	{r4, lr}
	.cfi_def_cfa_offset 8
	.cfi_offset lr, -4
	.cfi_offset r4, -8
	mov	r4, r0
.Ltmp140:
	@DEBUG_VALUE: IsValidUtf8String:aString <- $r4
	.loc	2 258 81 prologue_end           @ ../../../components/network/thread/subg_openthread/src/core/common/string.cpp:258:81
	bl	strlen
.Ltmp141:
	mov	r1, r0
	.loc	2 258 54 is_stmt 0              @ ../../../components/network/thread/subg_openthread/src/core/common/string.cpp:258:54
	mov	r0, r4
.Ltmp142:
	@DEBUG_VALUE: IsValidUtf8String:aString <- $r0
	pop.w	{r4, lr}
.Ltmp143:
	b	_ZN2ot17IsValidUtf8StringEPKcj
.Ltmp144:
.Lfunc_end18:
	.size	_ZN2ot17IsValidUtf8StringEPKc, .Lfunc_end18-_ZN2ot17IsValidUtf8StringEPKc
	.cfi_endproc
	.cantunwind
	.fnend
                                        @ -- End function
	.section	.text._ZN2ot17IsValidUtf8StringEPKcj,"ax",%progbits
	.hidden	_ZN2ot17IsValidUtf8StringEPKcj  @ -- Begin function _ZN2ot17IsValidUtf8StringEPKcj
	.globl	_ZN2ot17IsValidUtf8StringEPKcj
	.p2align	1
	.type	_ZN2ot17IsValidUtf8StringEPKcj,%function
	.code	16                              @ @_ZN2ot17IsValidUtf8StringEPKcj
	.thumb_func
_ZN2ot17IsValidUtf8StringEPKcj:
.Lfunc_begin19:
	.loc	2 261 0 is_stmt 1               @ ../../../components/network/thread/subg_openthread/src/core/common/string.cpp:261:0
	.fnstart
	.cfi_startproc
@ %bb.0:
	@DEBUG_VALUE: IsValidUtf8String:aString <- $r0
	@DEBUG_VALUE: IsValidUtf8String:aLength <- $r1
	@DEBUG_VALUE: IsValidUtf8String:aLength <- $r1
	.save	{r4, r5, r6, r7, lr}
	push	{r4, r5, r6, r7, lr}
	.cfi_def_cfa_offset 20
	.cfi_offset lr, -4
	.cfi_offset r7, -8
	.cfi_offset r6, -12
	.cfi_offset r5, -16
	.cfi_offset r4, -20
	.pad	#4
	sub	sp, #4
	.cfi_def_cfa_offset 24
.Ltmp145:
	@DEBUG_VALUE: IsValidUtf8String:position <- 0
	@DEBUG_VALUE: IsValidUtf8String:continuationBytes <- 0
	@DEBUG_VALUE: IsValidUtf8String:ret <- 1
	@DEBUG_VALUE: IsValidUtf8String:aString <- $r0
	.loc	2 267 5 prologue_end            @ ../../../components/network/thread/subg_openthread/src/core/common/string.cpp:267:5
	cbz	r1, .LBB19_17
.Ltmp146:
@ %bb.1:
	@DEBUG_VALUE: IsValidUtf8String:aLength <- $r1
	@DEBUG_VALUE: IsValidUtf8String:aString <- $r0
	@DEBUG_VALUE: IsValidUtf8String:ret <- 1
	@DEBUG_VALUE: IsValidUtf8String:continuationBytes <- 0
	@DEBUG_VALUE: IsValidUtf8String:position <- 0
	.loc	2 0 5 is_stmt 0                 @ ../../../components/network/thread/subg_openthread/src/core/common/string.cpp:0:5
	mov	r4, r1
.Ltmp147:
	@DEBUG_VALUE: IsValidUtf8String:aLength <- $r4
	@DEBUG_VALUE: IsValidUtf8String:aLength <- $r4
	mov	r5, r0
.Ltmp148:
	@DEBUG_VALUE: IsValidUtf8String:aString <- $r5
	@DEBUG_VALUE: IsValidUtf8String:aString <- $r5
	movs	r6, #0
.Ltmp149:
.LBB19_2:                               @ =>This Loop Header: Depth=1
                                        @     Child Loop BB19_12 Depth 2
	@DEBUG_VALUE: IsValidUtf8String:aString <- $r5
	@DEBUG_VALUE: IsValidUtf8String:aLength <- $r4
	@DEBUG_VALUE: IsValidUtf8String:ret <- 1
	@DEBUG_VALUE: IsValidUtf8String:position <- $r6
	.loc	2 269 16 is_stmt 1              @ ../../../components/network/thread/subg_openthread/src/core/common/string.cpp:269:16
	ldrb	r7, [r5, r6]
.Ltmp150:
	@DEBUG_VALUE: IsValidUtf8String:byte <- undef
	.loc	2 270 9                         @ ../../../components/network/thread/subg_openthread/src/core/common/string.cpp:270:9
	adds	r6, #1
.Ltmp151:
	@DEBUG_VALUE: IsValidUtf8String:position <- $r6
	.loc	2 272 13                        @ ../../../components/network/thread/subg_openthread/src/core/common/string.cpp:272:13
	lsls	r0, r7, #24
	bmi	.LBB19_4
.Ltmp152:
@ %bb.3:                                @   in Loop: Header=BB19_2 Depth=1
	@DEBUG_VALUE: IsValidUtf8String:position <- $r6
	@DEBUG_VALUE: IsValidUtf8String:aString <- $r5
	@DEBUG_VALUE: IsValidUtf8String:aLength <- $r4
	@DEBUG_VALUE: IsValidUtf8String:ret <- 1
	@DEBUG_VALUE: iscntrl:__c <- $r7
	.loc	7 155 43                        @ Keil_v5\ARM\ARMCLANG\Bin\..\include\ctype.h:155:43
	bl	__rt_ctype_table
.Ltmp153:
	ldr	r0, [r0]
	ldrb	r0, [r0, r7]
.Ltmp154:
	.loc	2 275 13                        @ ../../../components/network/thread/subg_openthread/src/core/common/string.cpp:275:13
	lsls	r0, r0, #25
	bpl	.LBB19_16
	b	.LBB19_18
.Ltmp155:
	.p2align	2
.LBB19_4:                               @   in Loop: Header=BB19_2 Depth=1
	@DEBUG_VALUE: IsValidUtf8String:position <- $r6
	@DEBUG_VALUE: IsValidUtf8String:aString <- $r5
	@DEBUG_VALUE: IsValidUtf8String:aLength <- $r4
	@DEBUG_VALUE: IsValidUtf8String:ret <- 1
	.loc	2 281 13                        @ ../../../components/network/thread/subg_openthread/src/core/common/string.cpp:281:13
	lsls	r0, r7, #25
	bpl	.LBB19_18
.Ltmp156:
@ %bb.5:                                @   in Loop: Header=BB19_2 Depth=1
	@DEBUG_VALUE: IsValidUtf8String:position <- $r6
	@DEBUG_VALUE: IsValidUtf8String:aString <- $r5
	@DEBUG_VALUE: IsValidUtf8String:aLength <- $r4
	@DEBUG_VALUE: IsValidUtf8String:ret <- 1
	.loc	2 286 18                        @ ../../../components/network/thread/subg_openthread/src/core/common/string.cpp:286:18
	lsls	r0, r7, #26
	bmi	.LBB19_7
.Ltmp157:
@ %bb.6:                                @   in Loop: Header=BB19_2 Depth=1
	@DEBUG_VALUE: IsValidUtf8String:position <- $r6
	@DEBUG_VALUE: IsValidUtf8String:aString <- $r5
	@DEBUG_VALUE: IsValidUtf8String:aLength <- $r4
	@DEBUG_VALUE: IsValidUtf8String:ret <- 1
	.loc	2 0 18 is_stmt 0                @ ../../../components/network/thread/subg_openthread/src/core/common/string.cpp:0:18
	movs	r0, #1
	b	.LBB19_11
.Ltmp158:
	.p2align	2
.LBB19_7:                               @   in Loop: Header=BB19_2 Depth=1
	@DEBUG_VALUE: IsValidUtf8String:position <- $r6
	@DEBUG_VALUE: IsValidUtf8String:aString <- $r5
	@DEBUG_VALUE: IsValidUtf8String:aLength <- $r4
	@DEBUG_VALUE: IsValidUtf8String:ret <- 1
	.loc	2 290 18 is_stmt 1              @ ../../../components/network/thread/subg_openthread/src/core/common/string.cpp:290:18
	lsls	r0, r7, #27
	bmi	.LBB19_9
.Ltmp159:
@ %bb.8:                                @   in Loop: Header=BB19_2 Depth=1
	@DEBUG_VALUE: IsValidUtf8String:position <- $r6
	@DEBUG_VALUE: IsValidUtf8String:aString <- $r5
	@DEBUG_VALUE: IsValidUtf8String:aLength <- $r4
	@DEBUG_VALUE: IsValidUtf8String:ret <- 1
	.loc	2 0 18 is_stmt 0                @ ../../../components/network/thread/subg_openthread/src/core/common/string.cpp:0:18
	movs	r0, #2
	b	.LBB19_11
.Ltmp160:
.LBB19_9:                               @   in Loop: Header=BB19_2 Depth=1
	@DEBUG_VALUE: IsValidUtf8String:position <- $r6
	@DEBUG_VALUE: IsValidUtf8String:aString <- $r5
	@DEBUG_VALUE: IsValidUtf8String:aLength <- $r4
	@DEBUG_VALUE: IsValidUtf8String:ret <- 1
	.loc	2 294 18 is_stmt 1              @ ../../../components/network/thread/subg_openthread/src/core/common/string.cpp:294:18
	lsls	r0, r7, #28
	bmi	.LBB19_18
.Ltmp161:
@ %bb.10:                               @   in Loop: Header=BB19_2 Depth=1
	@DEBUG_VALUE: IsValidUtf8String:position <- $r6
	@DEBUG_VALUE: IsValidUtf8String:aString <- $r5
	@DEBUG_VALUE: IsValidUtf8String:aLength <- $r4
	@DEBUG_VALUE: IsValidUtf8String:ret <- 1
	.loc	2 0 18 is_stmt 0                @ ../../../components/network/thread/subg_openthread/src/core/common/string.cpp:0:18
	movs	r0, #3
.Ltmp162:
.LBB19_11:                              @   in Loop: Header=BB19_2 Depth=1
	@DEBUG_VALUE: IsValidUtf8String:position <- $r6
	@DEBUG_VALUE: IsValidUtf8String:aString <- $r5
	@DEBUG_VALUE: IsValidUtf8String:aLength <- $r4
	@DEBUG_VALUE: IsValidUtf8String:ret <- 1
	@DEBUG_VALUE: IsValidUtf8String:continuationBytes <- $r0
	.loc	2 303 9 is_stmt 1               @ ../../../components/network/thread/subg_openthread/src/core/common/string.cpp:303:9
	adds	r1, r6, r0
.Ltmp163:
	.p2align	2
.LBB19_12:                              @   Parent Loop BB19_2 Depth=1
                                        @ =>  This Inner Loop Header: Depth=2
	@DEBUG_VALUE: IsValidUtf8String:position <- $r6
	@DEBUG_VALUE: IsValidUtf8String:aString <- $r5
	@DEBUG_VALUE: IsValidUtf8String:aLength <- $r4
	@DEBUG_VALUE: IsValidUtf8String:continuationBytes <- $r0
	@DEBUG_VALUE: IsValidUtf8String:ret <- 1
	@DEBUG_VALUE: IsValidUtf8String:continuationBytes <- undef
	@DEBUG_VALUE: IsValidUtf8String:position <- $r6
	lsls	r2, r0, #24
	beq	.LBB19_15
.Ltmp164:
@ %bb.13:                               @   in Loop: Header=BB19_12 Depth=2
	@DEBUG_VALUE: IsValidUtf8String:position <- $r6
	@DEBUG_VALUE: IsValidUtf8String:aString <- $r5
	@DEBUG_VALUE: IsValidUtf8String:aLength <- $r4
	@DEBUG_VALUE: IsValidUtf8String:ret <- 1
	@DEBUG_VALUE: IsValidUtf8String:continuationBytes <- undef
	.loc	2 305 13                        @ ../../../components/network/thread/subg_openthread/src/core/common/string.cpp:305:13
	cmp	r6, r4
	bhs	.LBB19_18
.Ltmp165:
@ %bb.14:                               @   in Loop: Header=BB19_12 Depth=2
	@DEBUG_VALUE: IsValidUtf8String:position <- $r6
	@DEBUG_VALUE: IsValidUtf8String:aString <- $r5
	@DEBUG_VALUE: IsValidUtf8String:aLength <- $r4
	@DEBUG_VALUE: IsValidUtf8String:ret <- 1
	.loc	2 307 20                        @ ../../../components/network/thread/subg_openthread/src/core/common/string.cpp:307:20
	ldrb	r2, [r5, r6]
.Ltmp166:
	@DEBUG_VALUE: IsValidUtf8String:byte <- undef
	.loc	2 0 20 is_stmt 0                @ ../../../components/network/thread/subg_openthread/src/core/common/string.cpp:0:20
	subs	r0, #1
.Ltmp167:
	@DEBUG_VALUE: IsValidUtf8String:continuationBytes <- $r0
	.loc	2 311 13 is_stmt 1              @ ../../../components/network/thread/subg_openthread/src/core/common/string.cpp:311:13
	and	r2, r2, #192
.Ltmp168:
	.loc	2 311 13 is_stmt 0              @ ../../../components/network/thread/subg_openthread/src/core/common/string.cpp:311:13
	cmp	r2, #128
.Ltmp169:
	.loc	2 308 13 is_stmt 1              @ ../../../components/network/thread/subg_openthread/src/core/common/string.cpp:308:13
	add.w	r6, r6, #1
.Ltmp170:
	@DEBUG_VALUE: IsValidUtf8String:position <- $r6
	.loc	2 311 13                        @ ../../../components/network/thread/subg_openthread/src/core/common/string.cpp:311:13
	beq	.LBB19_12
	b	.LBB19_18
.Ltmp171:
.LBB19_15:                              @   in Loop: Header=BB19_2 Depth=1
	@DEBUG_VALUE: IsValidUtf8String:position <- $r6
	@DEBUG_VALUE: IsValidUtf8String:aString <- $r5
	@DEBUG_VALUE: IsValidUtf8String:aLength <- $r4
	@DEBUG_VALUE: IsValidUtf8String:ret <- 1
	.loc	2 0 13 is_stmt 0                @ ../../../components/network/thread/subg_openthread/src/core/common/string.cpp:0:13
	mov	r6, r1
.Ltmp172:
.LBB19_16:                              @   in Loop: Header=BB19_2 Depth=1
	@DEBUG_VALUE: IsValidUtf8String:aString <- $r5
	@DEBUG_VALUE: IsValidUtf8String:aLength <- $r4
	@DEBUG_VALUE: IsValidUtf8String:ret <- 1
	@DEBUG_VALUE: IsValidUtf8String:position <- $r6
	.loc	2 267 5 is_stmt 1               @ ../../../components/network/thread/subg_openthread/src/core/common/string.cpp:267:5
	cmp	r6, r4
	blo	.LBB19_2
.Ltmp173:
.LBB19_17:
	@DEBUG_VALUE: IsValidUtf8String:ret <- 1
	.loc	2 0 5 is_stmt 0                 @ ../../../components/network/thread/subg_openthread/src/core/common/string.cpp:0:5
	movs	r0, #1
	b	.LBB19_19
.Ltmp174:
.LBB19_18:
	@DEBUG_VALUE: IsValidUtf8String:position <- $r6
	@DEBUG_VALUE: IsValidUtf8String:aString <- $r5
	@DEBUG_VALUE: IsValidUtf8String:aLength <- $r4
	@DEBUG_VALUE: IsValidUtf8String:ret <- 1
	movs	r0, #0
.Ltmp175:
.LBB19_19:
	@DEBUG_VALUE: IsValidUtf8String:ret <- 1
	@DEBUG_VALUE: IsValidUtf8String:ret <- undef
	@DEBUG_LABEL: IsValidUtf8String:exit
	.loc	2 316 5 is_stmt 1               @ ../../../components/network/thread/subg_openthread/src/core/common/string.cpp:316:5
	add	sp, #4
	pop	{r4, r5, r6, r7, pc}
.Ltmp176:
.Lfunc_end19:
	.size	_ZN2ot17IsValidUtf8StringEPKcj, .Lfunc_end19-_ZN2ot17IsValidUtf8StringEPKcj
	.cfi_endproc
	.cantunwind
	.fnend
                                        @ -- End function
	.type	.L.str,%object                  @ @.str
	.section	.rodata.str1.1,"aMS",%progbits,1
.L.str:
	.asciz	"no"
	.size	.L.str, 3

	.type	.L.str.1,%object                @ @.str.1
.L.str.1:
	.asciz	"yes"
	.size	.L.str.1, 4

	.type	.L.str.2,%object                @ @.str.2
.L.str.2:
	.asciz	"../../../components/network/thread/subg_openthread/src/core/common/string.cpp"
	.size	.L.str.2, 78

	.section	".note.GNU-stack","",%progbits
	.eabi_attribute	30, 3	@ Tag_ABI_optimization_goals
	.ARM_attribute	16, 1	@ Tag_AV_eba