	.text
	.syntax unified
	.eabi_attribute	67, "2.09"	@ Tag_conformance
	.cpu	cortex-m3
	.eabi_attribute	6, 10	@ Tag_CPU_arch
	.eabi_attribute	7, 77	@ Tag_CPU_arch_profile
	.eabi_attribute	8, 0	@ Tag_ARM_ISA_use
	.eabi_attribute	9, 2	@ Tag_THUMB_ISA_use
	.eabi_attribute	34, 1	@ Tag_CPU_unaligned_access
	.eabi_attribute	17, 1	@ Tag_ABI_PCS_GOT_use
	.eabi_attribute	20, 2	@ Tag_ABI_FP_denormal
	.eabi_attribute	21, 0	@ Tag_ABI_FP_exceptions
	.eabi_attribute	23, 1	@ Tag_ABI_FP_number_model
	.eabi_attribute	24, 1	@ Tag_ABI_align_needed
	.eabi_attribute	25, 1	@ Tag_ABI_align_preserved
	.eabi_attribute	38, 1	@ Tag_ABI_FP_16bit_format
	.eabi_attribute	18, 4	@ Tag_ABI_PCS_wchar_t
	.eabi_attribute	26, 2	@ Tag_ABI_enum_size
	.eabi_attribute	14, 0	@ Tag_ABI_PCS_R9_use
	.file	"system_cm3_mcu.c"
	.file	1 "C:\\" "Keil_v5\\ARM\\ARMCLANG\\Bin\\..\\include\\stdint.h"
	.file	2 "C:\\Users\\testo\\Desktop\\rafael-iot-sdk-das - \350\244\207\350\243\275 (2)\\examples\\das_subg_thread\\keil" "../../../components/platform/soc/rt582/rt582_dongle/dongle/src/system_cm3_mcu.c"
	.file	3 "C:\\Users\\testo\\Desktop\\rafael-iot-sdk-das - \350\244\207\350\243\275 (2)\\examples\\das_subg_thread\\keil" "../../../components/platform/soc/rt582/rt582_driver/Inc/sysctrl.h"
	.file	4 "C:\\Users\\testo\\Desktop\\rafael-iot-sdk-das - \350\244\207\350\243\275 (2)\\examples\\das_subg_thread\\keil" "../../../components/platform/soc/rt582/rt582_driver/Inc/system_cm3_mcu.h"
	.file	5 "C:\\Users\\testo\\Desktop\\rafael-iot-sdk-das - \350\244\207\350\243\275 (2)\\examples\\das_subg_thread\\keil" "../../../components/platform/soc/rt582/rt582_driver/Inc/pmu_reg.h"
	.file	6 "C:\\Users\\testo\\Desktop\\rafael-iot-sdk-das - \350\244\207\350\243\275 (2)\\examples\\das_subg_thread\\keil" "../../../components/platform/soc/rt582/rt582_driver/Inc/sysctrl_reg.h"
	.file	7 "C:\\Users\\testo\\Desktop\\rafael-iot-sdk-das - \350\244\207\350\243\275 (2)\\examples\\das_subg_thread\\keil" "../../../components/platform/soc/rt582/rt582_driver/Inc/dma_reg.h"
	.file	8 "C:\\Users\\testo\\Desktop\\rafael-iot-sdk-das - \350\244\207\350\243\275 (2)\\examples\\das_subg_thread\\keil" "../../../components/platform/soc/rt582/rt582_driver/Inc/flashctl_reg.h"
	.section	.text.SystemCoreClockUpdate,"ax",%progbits
	.hidden	SystemCoreClockUpdate           @ -- Begin function SystemCoreClockUpdate
	.globl	SystemCoreClockUpdate
	.p2align	1
	.type	SystemCoreClockUpdate,%function
	.code	16                              @ @SystemCoreClockUpdate
	.thumb_func
SystemCoreClockUpdate:
.Lfunc_begin0:
	.loc	2 111 0                         @ ../../../components/platform/soc/rt582/rt582_dongle/dongle/src/system_cm3_mcu.c:111:0
	.fnstart
	.cfi_sections .debug_frame
	.cfi_startproc
@ %bb.0:
	.loc	2 112 21 prologue_end           @ ../../../components/platform/soc/rt582/rt582_dongle/dongle/src/system_cm3_mcu.c:112:21
	movw	r0, :lower16:SystemCoreClock
	movw	r1, #36864
	movt	r0, :upper16:SystemCoreClock
	movt	r1, #976
	str	r1, [r0]
	.loc	2 113 1                         @ ../../../components/platform/soc/rt582/rt582_dongle/dongle/src/system_cm3_mcu.c:113:1
	bx	lr
.Ltmp0:
.Lfunc_end0:
	.size	SystemCoreClockUpdate, .Lfunc_end0-SystemCoreClockUpdate
	.cfi_endproc
	.cantunwind
	.fnend
                                        @ -- End function
	.section	.text.SystemFrequencyUpdate,"ax",%progbits
	.hidden	SystemFrequencyUpdate           @ -- Begin function SystemFrequencyUpdate
	.globl	SystemFrequencyUpdate
	.p2align	1
	.type	SystemFrequencyUpdate,%function
	.code	16                              @ @SystemFrequencyUpdate
	.thumb_func
SystemFrequencyUpdate:
.Lfunc_begin1:
	.loc	2 116 0                         @ ../../../components/platform/soc/rt582/rt582_dongle/dongle/src/system_cm3_mcu.c:116:0
	.fnstart
	.cfi_startproc
@ %bb.0:
	.save	{r7, lr}
	push	{r7, lr}
	.cfi_def_cfa_offset 8
	.cfi_offset lr, -4
	.cfi_offset r7, -8
.Ltmp1:
	.loc	2 119 20 prologue_end           @ ../../../components/platform/soc/rt582/rt582_dongle/dongle/src/system_cm3_mcu.c:119:20
	bl	Get_Ahb_System_Clk
.Ltmp2:
	@DEBUG_VALUE: SystemFrequencyUpdate:sys_clk_mode <- $r0
	.loc	2 0 20 is_stmt 0                @ ../../../components/platform/soc/rt582/rt582_dongle/dongle/src/system_cm3_mcu.c:0:20
	movw	r1, #15625
	.loc	2 121 9 is_stmt 1               @ ../../../components/platform/soc/rt582/rt582_dongle/dongle/src/system_cm3_mcu.c:121:9
	muls	r1, r0, r1
	movw	r2, #18432
	cmp	r0, #3
.Ltmp3:
	.loc	2 0 0 is_stmt 0                 @ ../../../components/platform/soc/rt582/rt582_dongle/dongle/src/system_cm3_mcu.c:0:0
	movw	r0, :lower16:SystemFrequency
.Ltmp4:
	movt	r2, #488
	movt	r0, :upper16:SystemFrequency
.Ltmp5:
	.loc	2 121 9                         @ ../../../components/platform/soc/rt582/rt582_dongle/dongle/src/system_cm3_mcu.c:121:9
	it	lo
	addlo.w	r2, r2, r1, lsl #10
.Ltmp6:
	.loc	2 0 0                           @ ../../../components/platform/soc/rt582/rt582_dongle/dongle/src/system_cm3_mcu.c:0:0
	str	r2, [r0]
.Ltmp7:
	.loc	2 137 1 is_stmt 1               @ ../../../components/platform/soc/rt582/rt582_dongle/dongle/src/system_cm3_mcu.c:137:1
	pop	{r7, pc}
.Ltmp8:
.Lfunc_end1:
	.size	SystemFrequencyUpdate, .Lfunc_end1-SystemFrequencyUpdate
	.cfi_endproc
	.cantunwind
	.fnend
                                        @ -- End function
	.section	.text.Reg_Bit_Write,"ax",%progbits
	.hidden	Reg_Bit_Write                   @ -- Begin function Reg_Bit_Write
	.globl	Reg_Bit_Write
	.p2align	1
	.type	Reg_Bit_Write,%function
	.code	16                              @ @Reg_Bit_Write
	.thumb_func
Reg_Bit_Write:
.Lfunc_begin2:
	.loc	2 143 0                         @ ../../../components/platform/soc/rt582/rt582_dongle/dongle/src/system_cm3_mcu.c:143:0
	.fnstart
	.cfi_startproc
@ %bb.0:
	@DEBUG_VALUE: Reg_Bit_Write:reg_write_item <- [DW_OP_LLVM_fragment 0 32] $r0
	@DEBUG_VALUE: Reg_Bit_Write:reg_write_item <- [DW_OP_LLVM_convert 32 7, DW_OP_LLVM_convert 8 7, DW_OP_stack_value, DW_OP_LLVM_fragment 32 8] $r1
	@DEBUG_VALUE: Reg_Bit_Write:reg_write_item <- [DW_OP_LLVM_convert 32 7, DW_OP_LLVM_convert 8 7, DW_OP_stack_value, DW_OP_LLVM_fragment 40 8] undef
	@DEBUG_VALUE: Reg_Bit_Write:reg_write_item <- [DW_OP_constu 16, DW_OP_shr, DW_OP_LLVM_convert 32 7, DW_OP_LLVM_convert 16 7, DW_OP_stack_value, DW_OP_LLVM_fragment 48 16] $r1
	@DEBUG_VALUE: Reg_Bit_Write:reg_write_item <- [DW_OP_LLVM_fragment 64 32] $r2
	.save	{r4, lr}
	push	{r4, lr}
	.cfi_def_cfa_offset 8
	.cfi_offset lr, -4
	.cfi_offset r4, -8
.Ltmp9:
	.loc	2 147 28 prologue_end           @ ../../../components/platform/soc/rt582/rt582_dongle/dongle/src/system_cm3_mcu.c:147:28
	ubfx	r12, r1, #8, #8
	mov.w	r3, #-1
	.loc	2 147 52 is_stmt 0              @ ../../../components/platform/soc/rt582/rt582_dongle/dongle/src/system_cm3_mcu.c:147:52
	lsl.w	r4, r3, r12
	mvn.w	r12, r4
.Ltmp10:
	@DEBUG_VALUE: Reg_Bit_Write:bit_max_value <- $r12
	.loc	2 149 21 is_stmt 1              @ ../../../components/platform/soc/rt582/rt582_dongle/dongle/src/system_cm3_mcu.c:149:21
	ldr.w	lr, [r0]
.Ltmp11:
	@DEBUG_VALUE: Reg_Bit_Write:reg_value_buf <- $lr
	.loc	2 150 44                        @ ../../../components/platform/soc/rt582/rt582_dongle/dongle/src/system_cm3_mcu.c:150:44
	uxtb	r1, r1
.Ltmp12:
	.loc	2 150 41 is_stmt 0              @ ../../../components/platform/soc/rt582/rt582_dongle/dongle/src/system_cm3_mcu.c:150:41
	lsl.w	r3, r12, r1
	.loc	2 151 49 is_stmt 1              @ ../../../components/platform/soc/rt582/rt582_dongle/dongle/src/system_cm3_mcu.c:151:49
	bics	r2, r4
.Ltmp13:
	.loc	2 150 21                        @ ../../../components/platform/soc/rt582/rt582_dongle/dongle/src/system_cm3_mcu.c:150:21
	bic.w	r3, lr, r3
.Ltmp14:
	@DEBUG_VALUE: Reg_Bit_Write:reg_value_buf <- $r3
	.loc	2 151 66                        @ ../../../components/platform/soc/rt582/rt582_dongle/dongle/src/system_cm3_mcu.c:151:66
	lsl.w	r1, r2, r1
	.loc	2 151 19 is_stmt 0              @ ../../../components/platform/soc/rt582/rt582_dongle/dongle/src/system_cm3_mcu.c:151:19
	orrs	r1, r3
.Ltmp15:
	@DEBUG_VALUE: Reg_Bit_Write:reg_value_buf <- $r1
	.loc	2 152 46 is_stmt 1              @ ../../../components/platform/soc/rt582/rt582_dongle/dongle/src/system_cm3_mcu.c:152:46
	str	r1, [r0]
	.loc	2 153 1                         @ ../../../components/platform/soc/rt582/rt582_dongle/dongle/src/system_cm3_mcu.c:153:1
	pop	{r4, pc}
.Ltmp16:
.Lfunc_end2:
	.size	Reg_Bit_Write, .Lfunc_end2-Reg_Bit_Write
	.cfi_endproc
	.cantunwind
	.fnend
                                        @ -- End function
	.section	.text.SystemPmuUpdateDig,"ax",%progbits
	.hidden	SystemPmuUpdateDig              @ -- Begin function SystemPmuUpdateDig
	.globl	SystemPmuUpdateDig
	.p2align	1
	.type	SystemPmuUpdateDig,%function
	.code	16                              @ @SystemPmuUpdateDig
	.thumb_func
SystemPmuUpdateDig:
.Lfunc_begin3:
	.loc	2 157 0                         @ ../../../components/platform/soc/rt582/rt582_dongle/dongle/src/system_cm3_mcu.c:157:0
	.fnstart
	.cfi_startproc
@ %bb.0:
	movs	r0, #36
	movt	r0, #16416
.Ltmp17:
	.loc	2 158 44 prologue_end           @ ../../../components/platform/soc/rt582/rt582_dongle/dongle/src/system_cm3_mcu.c:158:44
	ldr	r1, [r0]
	movs	r2, #63
	bfi	r1, r2, #0, #8
	str	r1, [r0]
	.loc	2 159 40                        @ ../../../components/platform/soc/rt582/rt582_dongle/dongle/src/system_cm3_mcu.c:159:40
	ldr	r1, [r0]
	movw	r2, #401
	bfi	r1, r2, #16, #10
	str	r1, [r0]
	movs	r1, #8
	movt	r1, #16512
	.loc	2 160 44                        @ ../../../components/platform/soc/rt582/rt582_dongle/dongle/src/system_cm3_mcu.c:160:44
	ldr	r2, [r1]
	.loc	2 160 93 is_stmt 0              @ ../../../components/platform/soc/rt582/rt582_dongle/dongle/src/system_cm3_mcu.c:160:93
	orr	r2, r2, #128
	.loc	2 160 32                        @ ../../../components/platform/soc/rt582/rt582_dongle/dongle/src/system_cm3_mcu.c:160:32
	str	r2, [r1]
	.loc	2 161 46 is_stmt 1              @ ../../../components/platform/soc/rt582/rt582_dongle/dongle/src/system_cm3_mcu.c:161:46
	ldr	r2, [r0]
	orr	r2, r2, #2048
	str	r2, [r0]
	.loc	2 162 44                        @ ../../../components/platform/soc/rt582/rt582_dongle/dongle/src/system_cm3_mcu.c:162:44
	ldr	r2, [r0, #24]
	orr	r2, r2, #8192
	str	r2, [r0, #24]
	.loc	2 163 44                        @ ../../../components/platform/soc/rt582/rt582_dongle/dongle/src/system_cm3_mcu.c:163:44
	ldr	r2, [r0, #-4]
	orr	r2, r2, #536870912
	str	r2, [r0, #-4]
	.loc	2 165 41                        @ ../../../components/platform/soc/rt582/rt582_dongle/dongle/src/system_cm3_mcu.c:165:41
	ldr	r0, [r1, #52]
	movs	r2, #1
	.loc	2 165 78 is_stmt 0              @ ../../../components/platform/soc/rt582/rt582_dongle/dongle/src/system_cm3_mcu.c:165:78
	bfi	r0, r2, #16, #2
	.loc	2 165 28                        @ ../../../components/platform/soc/rt582/rt582_dongle/dongle/src/system_cm3_mcu.c:165:28
	str	r0, [r1, #52]
	.loc	2 167 1 is_stmt 1               @ ../../../components/platform/soc/rt582/rt582_dongle/dongle/src/system_cm3_mcu.c:167:1
	bx	lr
.Ltmp18:
.Lfunc_end3:
	.size	SystemPmuUpdateDig, .Lfunc_end3-SystemPmuUpdateDig
	.cfi_endproc
	.cantunwind
	.fnend
                                        @ -- End function
	.section	.text.SystemPmuSetMode,"ax",%progbits
	.hidden	SystemPmuSetMode                @ -- Begin function SystemPmuSetMode
	.globl	SystemPmuSetMode
	.p2align	1
	.type	SystemPmuSetMode,%function
	.code	16                              @ @SystemPmuSetMode
	.thumb_func
SystemPmuSetMode:
.Lfunc_begin4:
	.loc	2 171 0                         @ ../../../components/platform/soc/rt582/rt582_dongle/dongle/src/system_cm3_mcu.c:171:0
	.fnstart
	.cfi_startproc
@ %bb.0:
	@DEBUG_VALUE: SystemPmuSetMode:pmu_mode <- $r0
	@DEBUG_VALUE: SystemPmuSetMode:pmu_mode <- $r0
	.loc	2 172 9 prologue_end            @ ../../../components/platform/soc/rt582/rt582_dongle/dongle/src/system_cm3_mcu.c:172:9
	cmp	r0, #1
	beq	.LBB4_3
.Ltmp19:
@ %bb.1:
	@DEBUG_VALUE: SystemPmuSetMode:pmu_mode <- $r0
	cbnz	r0, .LBB4_5
.Ltmp20:
@ %bb.2:
	@DEBUG_VALUE: SystemPmuSetMode:pmu_mode <- $r0
	.loc	2 0 9 is_stmt 0                 @ ../../../components/platform/soc/rt582/rt582_dongle/dongle/src/system_cm3_mcu.c:0:9
	mvn	r0, #1
.Ltmp21:
	@DEBUG_VALUE: SystemPmuSetMode:pmu_mode <- [DW_OP_LLVM_entry_value 1] $r0
	b	.LBB4_4
.Ltmp22:
.LBB4_3:
	@DEBUG_VALUE: SystemPmuSetMode:pmu_mode <- $r0
	mvn	r0, #2
.Ltmp23:
	@DEBUG_VALUE: SystemPmuSetMode:pmu_mode <- [DW_OP_LLVM_entry_value 1] $r0
.LBB4_4:
	@DEBUG_VALUE: SystemPmuSetMode:pmu_mode <- [DW_OP_LLVM_entry_value 1] $r0
	movs	r1, #176
	movt	r1, #16416
.Ltmp24:
	ldr	r2, [r1]
	orr	r2, r2, #2
	str	r2, [r1]
	ldr	r2, [r1]
	orr	r2, r2, #1
	str	r2, [r1]
	ldr	r2, [r1]
	ands	r0, r2
	str	r0, [r1]
.Ltmp25:
.LBB4_5:
	.loc	2 184 1 is_stmt 1               @ ../../../components/platform/soc/rt582/rt582_dongle/dongle/src/system_cm3_mcu.c:184:1
	bx	lr
.Ltmp26:
.Lfunc_end4:
	.size	SystemPmuSetMode, .Lfunc_end4-SystemPmuSetMode
	.cfi_endproc
	.cantunwind
	.fnend
                                        @ -- End function
	.section	.text.SystemPmuUpdateDcdc,"ax",%progbits
	.hidden	SystemPmuUpdateDcdc             @ -- Begin function SystemPmuUpdateDcdc
	.globl	SystemPmuUpdateDcdc
	.p2align	1
	.type	SystemPmuUpdateDcdc,%function
	.code	16                              @ @SystemPmuUpdateDcdc
	.thumb_func
SystemPmuUpdateDcdc:
.Lfunc_begin5:
	.loc	2 238 0                         @ ../../../components/platform/soc/rt582/rt582_dongle/dongle/src/system_cm3_mcu.c:238:0
	.fnstart
	.cfi_startproc
@ %bb.0:
	.save	{r4, r5, r6, lr}
	push	{r4, r5, r6, lr}
	.cfi_def_cfa_offset 16
	.cfi_offset lr, -4
	.cfi_offset r6, -8
	.cfi_offset r5, -12
	.cfi_offset r4, -16
	.pad	#24
	sub	sp, #24
	.cfi_def_cfa_offset 40
	movs	r0, #144
	movs	r4, #52
	movt	r0, #16512
.Ltmp27:
	@DEBUG_VALUE: SystemPmuUpdateDcdc:i <- 0
	@DEBUG_VALUE: SystemPmuUpdateDcdc:reg_num <- 0
	movt	r4, #16416
.Ltmp28:
	.loc	3 465 33 prologue_end           @ ../../../components/platform/soc/rt582/rt582_driver/Inc/sysctrl.h:465:33
	ldr.w	r12, [r0]
.Ltmp29:
	@DEBUG_VALUE: SystemPmuUpdateDcdc:chip_version <- [DW_OP_constu 4, DW_OP_shr, DW_OP_constu 15, DW_OP_and, DW_OP_stack_value] $r12
	.loc	2 249 31                        @ ../../../components/platform/soc/rt582/rt582_dongle/dongle/src/system_cm3_mcu.c:249:31
	ldrb.w	r1, [r4, #120]
	movs	r5, #1
	strb.w	r1, [sp, #20]
	ldrb.w	r2, [r4, #121]
	.loc	2 250 37                        @ ../../../components/platform/soc/rt582/rt582_dongle/dongle/src/system_cm3_mcu.c:250:37
	and	r1, r1, #136
	.loc	2 249 31                        @ ../../../components/platform/soc/rt582/rt582_dongle/dongle/src/system_cm3_mcu.c:249:31
	strb.w	r2, [sp, #19]
	ldrb.w	r3, [r4, #122]
	.loc	2 252 37                        @ ../../../components/platform/soc/rt582/rt582_dongle/dongle/src/system_cm3_mcu.c:252:37
	adds	r1, #82
	.loc	2 249 31                        @ ../../../components/platform/soc/rt582/rt582_dongle/dongle/src/system_cm3_mcu.c:249:31
	strb.w	r3, [sp, #18]
	ldrb.w	r0, [r4, #123]
	strb.w	r0, [sp, #17]
	.loc	2 255 38                        @ ../../../components/platform/soc/rt582/rt582_dongle/dongle/src/system_cm3_mcu.c:255:38
	and	r0, r0, #248
	adds	r0, #6
	strb.w	r0, [sp, #17]
	.loc	2 257 43                        @ ../../../components/platform/soc/rt582/rt582_dongle/dongle/src/system_cm3_mcu.c:257:43
	and	r0, r2, #8
	adds	r0, #50
	strb.w	r0, [sp, #19]
	.loc	2 260 44                        @ ../../../components/platform/soc/rt582/rt582_dongle/dongle/src/system_cm3_mcu.c:260:44
	and	r0, r3, #207
	adds	r0, #32
	.loc	2 252 37                        @ ../../../components/platform/soc/rt582/rt582_dongle/dongle/src/system_cm3_mcu.c:252:37
	strb.w	r1, [sp, #20]
	.loc	2 260 44                        @ ../../../components/platform/soc/rt582/rt582_dongle/dongle/src/system_cm3_mcu.c:260:44
	strb.w	r0, [sp, #18]
	.loc	2 262 27                        @ ../../../components/platform/soc/rt582/rt582_dongle/dongle/src/system_cm3_mcu.c:262:27
	ldrb.w	r0, [sp, #20]
	movs	r1, #177
	strb.w	r0, [r4, #120]
	ldrb.w	r0, [sp, #19]
	movt	r1, #16416
	strb.w	r0, [r4, #121]
	ldrb.w	r0, [sp, #18]
	strb.w	r0, [r4, #122]
	ldrb.w	r0, [sp, #17]
	strb.w	r0, [r4, #123]
	.loc	2 264 28                        @ ../../../components/platform/soc/rt582/rt582_dongle/dongle/src/system_cm3_mcu.c:264:28
	ldrb.w	r0, [r4, #124]
	strb.w	r0, [sp, #16]
	ldrh	r2, [r1]
	.loc	2 266 35                        @ ../../../components/platform/soc/rt582/rt582_dongle/dongle/src/system_cm3_mcu.c:266:35
	and	r0, r0, #239
	.loc	2 264 28                        @ ../../../components/platform/soc/rt582/rt582_dongle/dongle/src/system_cm3_mcu.c:264:28
	strh.w	r2, [sp, #14]
	ldrb.w	r2, [r4, #127]
	strb.w	r2, [sp, #13]
	.loc	2 265 37                        @ ../../../components/platform/soc/rt582/rt582_dongle/dongle/src/system_cm3_mcu.c:265:37
	orr	r2, r2, #8
	strb.w	r2, [sp, #13]
	.loc	2 266 35                        @ ../../../components/platform/soc/rt582/rt582_dongle/dongle/src/system_cm3_mcu.c:266:35
	strb.w	r0, [sp, #16]
	.loc	2 267 24                        @ ../../../components/platform/soc/rt582/rt582_dongle/dongle/src/system_cm3_mcu.c:267:24
	ldrb.w	r0, [sp, #16]
	strb.w	r0, [r4, #124]
	ldrh.w	r0, [sp, #14]
	strh	r0, [r1]
	ldrb.w	r0, [sp, #13]
	strb.w	r0, [r4, #127]
	.loc	2 269 34                        @ ../../../components/platform/soc/rt582/rt582_dongle/dongle/src/system_cm3_mcu.c:269:34
	ldr	r0, [r4, #104]
	bic	r0, r0, #3072
	str	r0, [r4, #104]
.Ltmp30:
	.loc	2 0 0 is_stmt 0                 @ ../../../components/platform/soc/rt582/rt582_dongle/dongle/src/system_cm3_mcu.c:0:0
	ldr.w	r1, [r4, #144]
	.loc	2 271 22 is_stmt 1              @ ../../../components/platform/soc/rt582/rt582_dongle/dongle/src/system_cm3_mcu.c:271:22
	and	r0, r12, #240
.Ltmp31:
	.loc	2 271 9 is_stmt 0               @ ../../../components/platform/soc/rt582/rt582_dongle/dongle/src/system_cm3_mcu.c:271:9
	mov	r2, r1
	bfi	r2, r5, #2, #2
	cmp	r0, #32
	it	ne
	orrne	r2, r1, #12
.Ltmp32:
	.loc	2 0 0                           @ ../../../components/platform/soc/rt582/rt582_dongle/dongle/src/system_cm3_mcu.c:0:0
	str.w	r2, [r4, #144]
.Ltmp33:
	.loc	2 280 9 is_stmt 1               @ ../../../components/platform/soc/rt582/rt582_dongle/dongle/src/system_cm3_mcu.c:280:9
	bl	flash_get_deviceinfo
.Ltmp34:
	.loc	2 0 0 is_stmt 0                 @ ../../../components/platform/soc/rt582/rt582_dongle/dongle/src/system_cm3_mcu.c:0:0
	ldr	r1, [r4, #104]
	movw	r3, #26056
.Ltmp35:
	.loc	2 280 9                         @ ../../../components/platform/soc/rt582/rt582_dongle/dongle/src/system_cm3_mcu.c:280:9
	mov	r2, r1
	bfi	r2, r5, #8, #2
	movt	r3, #20
	cmp	r0, r3
	it	ne
	orrne	r2, r1, #768
.Ltmp36:
	.loc	2 0 0                           @ ../../../components/platform/soc/rt582/rt582_dongle/dongle/src/system_cm3_mcu.c:0:0
	str	r2, [r4, #104]
.Ltmp37:
	.loc	2 290 32 is_stmt 1              @ ../../../components/platform/soc/rt582/rt582_dongle/dongle/src/system_cm3_mcu.c:290:32
	ldr.w	r0, [r4, #144]
	movw	r1, #2047
	orr	r0, r0, #805306368
	str.w	r0, [r4, #144]
	.loc	2 295 32                        @ ../../../components/platform/soc/rt582/rt582_dongle/dongle/src/system_cm3_mcu.c:295:32
	ldr	r0, [r4]
	movs	r2, #250
	bics	r0, r1
	str	r0, [r4]
	.loc	2 297 31                        @ ../../../components/platform/soc/rt582/rt582_dongle/dongle/src/system_cm3_mcu.c:297:31
	ldr	r0, [r4]
	movs	r1, #8
	bic	r0, r0, #117440512
	str	r0, [r4]
	.loc	2 301 32                        @ ../../../components/platform/soc/rt582/rt582_dongle/dongle/src/system_cm3_mcu.c:301:32
	ldr	r0, [r4]
	movw	lr, :lower16:pmu_ap_init_table_dcdc
	bic	r0, r0, #805306368
	str	r0, [r4]
	.loc	2 304 31                        @ ../../../components/platform/soc/rt582/rt582_dongle/dongle/src/system_cm3_mcu.c:304:31
	ldrb.w	r0, [r4, #108]
	movt	lr, :upper16:pmu_ap_init_table_dcdc
	strb.w	r0, [sp, #12]
	ldrb.w	r0, [r4, #109]
	mov.w	r12, #-1
	strb.w	r0, [sp, #11]
	ldrb.w	r0, [r4, #110]
	strb.w	r0, [sp, #10]
	ldrb.w	r0, [r4, #111]
	strb.w	r0, [sp, #9]
	.loc	2 312 46                        @ ../../../components/platform/soc/rt582/rt582_dongle/dongle/src/system_cm3_mcu.c:312:46
	strb.w	r1, [sp, #12]
	movs	r1, #222
	.loc	2 320 42                        @ ../../../components/platform/soc/rt582/rt582_dongle/dongle/src/system_cm3_mcu.c:320:42
	strb.w	r1, [sp, #11]
	movs	r1, #120
	.loc	2 327 44                        @ ../../../components/platform/soc/rt582/rt582_dongle/dongle/src/system_cm3_mcu.c:327:44
	strb.w	r1, [sp, #10]
	movs	r1, #27
	.loc	2 335 42                        @ ../../../components/platform/soc/rt582/rt582_dongle/dongle/src/system_cm3_mcu.c:335:42
	bfi	r0, r1, #1, #31
	.loc	2 339 43                        @ ../../../components/platform/soc/rt582/rt582_dongle/dongle/src/system_cm3_mcu.c:339:43
	strb.w	r0, [sp, #9]
	.loc	2 341 27                        @ ../../../components/platform/soc/rt582/rt582_dongle/dongle/src/system_cm3_mcu.c:341:27
	ldrb.w	r0, [sp, #12]
	strb.w	r0, [r4, #108]
	ldrb.w	r0, [sp, #11]
	strb.w	r0, [r4, #109]
	ldrb.w	r0, [sp, #10]
	strb.w	r0, [r4, #110]
	ldrb.w	r0, [sp, #9]
	strb.w	r0, [r4, #111]
	.loc	2 343 31                        @ ../../../components/platform/soc/rt582/rt582_dongle/dongle/src/system_cm3_mcu.c:343:31
	ldrb.w	r0, [r4, #112]
	strb.w	r0, [sp, #8]
	ldrb.w	r0, [r4, #113]
	strb.w	r0, [sp, #7]
	ldrb.w	r0, [r4, #114]
	strb.w	r0, [sp, #6]
	ldrb.w	r0, [r4, #115]
	strb.w	r0, [sp, #5]
	.loc	2 347 46                        @ ../../../components/platform/soc/rt582/rt582_dongle/dongle/src/system_cm3_mcu.c:347:46
	strb.w	r2, [sp, #8]
	movs	r2, #187
	.loc	2 351 42                        @ ../../../components/platform/soc/rt582/rt582_dongle/dongle/src/system_cm3_mcu.c:351:42
	strb.w	r2, [sp, #7]
	movs	r2, #200
	.loc	2 358 42                        @ ../../../components/platform/soc/rt582/rt582_dongle/dongle/src/system_cm3_mcu.c:358:42
	bfi	r0, r1, #1, #31
	.loc	2 355 44                        @ ../../../components/platform/soc/rt582/rt582_dongle/dongle/src/system_cm3_mcu.c:355:44
	strb.w	r2, [sp, #6]
	.loc	2 359 43                        @ ../../../components/platform/soc/rt582/rt582_dongle/dongle/src/system_cm3_mcu.c:359:43
	strb.w	r0, [sp, #5]
	.loc	2 360 27                        @ ../../../components/platform/soc/rt582/rt582_dongle/dongle/src/system_cm3_mcu.c:360:27
	ldrb.w	r0, [sp, #8]
	strb.w	r0, [r4, #112]
	ldrb.w	r0, [sp, #7]
	strb.w	r0, [r4, #113]
	ldrb.w	r0, [sp, #6]
	strb.w	r0, [r4, #114]
	ldrb.w	r0, [sp, #5]
	strb.w	r0, [r4, #115]
	.loc	2 363 38                        @ ../../../components/platform/soc/rt582/rt582_dongle/dongle/src/system_cm3_mcu.c:363:38
	ldr.w	r0, [r4, #144]
	orr	r0, r0, #256
	str.w	r0, [r4, #144]
	.loc	2 364 38                        @ ../../../components/platform/soc/rt582/rt582_dongle/dongle/src/system_cm3_mcu.c:364:38
	ldr.w	r0, [r4, #144]
	orr	r0, r0, #32768
	str.w	r0, [r4, #144]
.Ltmp38:
	@DEBUG_VALUE: SystemPmuSetMode:pmu_mode <- 1
	.loc	2 174 41                        @ ../../../components/platform/soc/rt582/rt582_dongle/dongle/src/system_cm3_mcu.c:174:41
	ldr	r0, [r4, #124]
	orr	r0, r0, #2
	str	r0, [r4, #124]
	.loc	2 175 41                        @ ../../../components/platform/soc/rt582/rt582_dongle/dongle/src/system_cm3_mcu.c:175:41
	ldr	r0, [r4, #124]
	orr	r0, r0, #1
	str	r0, [r4, #124]
	.loc	2 176 41                        @ ../../../components/platform/soc/rt582/rt582_dongle/dongle/src/system_cm3_mcu.c:176:41
	ldr	r0, [r4, #124]
	bic	r0, r0, #2
	str	r0, [r4, #124]
	movs	r0, #0
.Ltmp39:
	@DEBUG_VALUE: SystemPmuUpdateDcdc:reg_num <- 3
	.p2align	2
.LBB5_1:                                @ =>This Inner Loop Header: Depth=1
	@DEBUG_VALUE: SystemPmuUpdateDcdc:reg_num <- 3
	@DEBUG_VALUE: SystemPmuUpdateDcdc:i <- undef
	.loc	2 374 26                        @ ../../../components/platform/soc/rt582/rt582_dongle/dongle/src/system_cm3_mcu.c:374:26
	add.w	r3, lr, r0
	ldrd	r4, r3, [r3, #4]
	@DEBUG_VALUE: Reg_Bit_Write:reg_write_item <- [DW_OP_LLVM_fragment 0 32] $r5
	ldr.w	r5, [lr, r0]
.Ltmp40:
	@DEBUG_VALUE: Reg_Bit_Write:reg_write_item <- [DW_OP_LLVM_fragment 64 32] undef
	@DEBUG_VALUE: Reg_Bit_Write:reg_write_item <- [DW_OP_constu 16, DW_OP_shr, DW_OP_LLVM_convert 32 7, DW_OP_LLVM_convert 16 7, DW_OP_stack_value, DW_OP_LLVM_fragment 48 16] undef
	@DEBUG_VALUE: Reg_Bit_Write:reg_write_item <- [DW_OP_LLVM_convert 32 7, DW_OP_LLVM_convert 8 7, DW_OP_stack_value, DW_OP_LLVM_fragment 40 8] undef
	@DEBUG_VALUE: Reg_Bit_Write:reg_write_item <- [DW_OP_LLVM_convert 32 7, DW_OP_LLVM_convert 8 7, DW_OP_stack_value, DW_OP_LLVM_fragment 32 8] undef
	@DEBUG_VALUE: SystemPmuUpdateDcdc:reg_write_item <- [DW_OP_LLVM_fragment 64 32] undef
	@DEBUG_VALUE: SystemPmuUpdateDcdc:reg_write_item <- [DW_OP_LLVM_fragment 32 32] undef
	@DEBUG_VALUE: SystemPmuUpdateDcdc:reg_write_item <- [DW_OP_LLVM_fragment 0 32] $r5
	.loc	2 147 28                        @ ../../../components/platform/soc/rt582/rt582_dongle/dongle/src/system_cm3_mcu.c:147:28
	ubfx	r2, r4, #8, #8
	.loc	2 147 52 is_stmt 0              @ ../../../components/platform/soc/rt582/rt582_dongle/dongle/src/system_cm3_mcu.c:147:52
	lsl.w	r2, r12, r2
	mvns	r1, r2
.Ltmp41:
	@DEBUG_VALUE: Reg_Bit_Write:bit_max_value <- $r1
	.loc	2 149 21 is_stmt 1              @ ../../../components/platform/soc/rt582/rt582_dongle/dongle/src/system_cm3_mcu.c:149:21
	ldr	r6, [r5]
.Ltmp42:
	@DEBUG_VALUE: Reg_Bit_Write:reg_value_buf <- $r6
	.loc	2 150 44                        @ ../../../components/platform/soc/rt582/rt582_dongle/dongle/src/system_cm3_mcu.c:150:44
	uxtb	r4, r4
	.loc	2 150 41 is_stmt 0              @ ../../../components/platform/soc/rt582/rt582_dongle/dongle/src/system_cm3_mcu.c:150:41
	lsls	r1, r4
.Ltmp43:
	.loc	2 151 49 is_stmt 1              @ ../../../components/platform/soc/rt582/rt582_dongle/dongle/src/system_cm3_mcu.c:151:49
	bic.w	r2, r3, r2
	.loc	2 150 21                        @ ../../../components/platform/soc/rt582/rt582_dongle/dongle/src/system_cm3_mcu.c:150:21
	bic.w	r1, r6, r1
.Ltmp44:
	@DEBUG_VALUE: Reg_Bit_Write:reg_value_buf <- $r1
	.loc	2 151 66                        @ ../../../components/platform/soc/rt582/rt582_dongle/dongle/src/system_cm3_mcu.c:151:66
	lsls	r2, r4
.Ltmp45:
	.loc	2 372 19                        @ ../../../components/platform/soc/rt582/rt582_dongle/dongle/src/system_cm3_mcu.c:372:19
	adds	r0, #12
.Ltmp46:
	.loc	2 151 19                        @ ../../../components/platform/soc/rt582/rt582_dongle/dongle/src/system_cm3_mcu.c:151:19
	orrs	r1, r2
.Ltmp47:
	@DEBUG_VALUE: Reg_Bit_Write:reg_value_buf <- $r1
	.loc	2 372 5                         @ ../../../components/platform/soc/rt582/rt582_dongle/dongle/src/system_cm3_mcu.c:372:5
	cmp	r0, #36
.Ltmp48:
	.loc	2 152 46                        @ ../../../components/platform/soc/rt582/rt582_dongle/dongle/src/system_cm3_mcu.c:152:46
	str	r1, [r5]
.Ltmp49:
	@DEBUG_VALUE: Reg_Bit_Write:reg_value_buf <- $r1
	@DEBUG_VALUE: Reg_Bit_Write:reg_write_item <- [DW_OP_LLVM_fragment 0 32] $r5
	@DEBUG_VALUE: SystemPmuUpdateDcdc:i <- [DW_OP_plus_uconst 1, DW_OP_stack_value] undef
	.loc	2 372 5                         @ ../../../components/platform/soc/rt582/rt582_dongle/dongle/src/system_cm3_mcu.c:372:5
	bne	.LBB5_1
.Ltmp50:
@ %bb.2:
	@DEBUG_VALUE: SystemPmuUpdateDcdc:reg_write_item <- [DW_OP_LLVM_fragment 0 32] $r5
	@DEBUG_VALUE: Reg_Bit_Write:reg_write_item <- [DW_OP_LLVM_fragment 0 32] $r5
	@DEBUG_VALUE: Reg_Bit_Write:reg_value_buf <- $r1
	@DEBUG_VALUE: SystemPmuUpdateDcdc:reg_num <- 3
	.loc	2 0 5 is_stmt 0                 @ ../../../components/platform/soc/rt582/rt582_dongle/dongle/src/system_cm3_mcu.c:0:5
	movw	lr, :lower16:pmu_mp_init_table_dcdc
	movs	r0, #0
	movt	lr, :upper16:pmu_mp_init_table_dcdc
	mov.w	r12, #-1
.Ltmp51:
	.p2align	2
.LBB5_3:                                @ =>This Inner Loop Header: Depth=1
	@DEBUG_VALUE: SystemPmuUpdateDcdc:reg_num <- 3
	@DEBUG_VALUE: SystemPmuUpdateDcdc:i <- undef
	.loc	2 382 26 is_stmt 1              @ ../../../components/platform/soc/rt582/rt582_dongle/dongle/src/system_cm3_mcu.c:382:26
	add.w	r3, lr, r0
	ldrd	r5, r3, [r3, #4]
	@DEBUG_VALUE: Reg_Bit_Write:reg_write_item <- [DW_OP_LLVM_fragment 0 32] $r6
	ldr.w	r6, [lr, r0]
.Ltmp52:
	@DEBUG_VALUE: Reg_Bit_Write:reg_write_item <- [DW_OP_LLVM_fragment 64 32] undef
	@DEBUG_VALUE: Reg_Bit_Write:reg_write_item <- [DW_OP_constu 16, DW_OP_shr, DW_OP_LLVM_convert 32 7, DW_OP_LLVM_convert 16 7, DW_OP_stack_value, DW_OP_LLVM_fragment 48 16] undef
	@DEBUG_VALUE: Reg_Bit_Write:reg_write_item <- [DW_OP_LLVM_convert 32 7, DW_OP_LLVM_convert 8 7, DW_OP_stack_value, DW_OP_LLVM_fragment 40 8] undef
	@DEBUG_VALUE: Reg_Bit_Write:reg_write_item <- [DW_OP_LLVM_convert 32 7, DW_OP_LLVM_convert 8 7, DW_OP_stack_value, DW_OP_LLVM_fragment 32 8] undef
	@DEBUG_VALUE: SystemPmuUpdateDcdc:reg_write_item <- [DW_OP_LLVM_fragment 64 32] undef
	@DEBUG_VALUE: SystemPmuUpdateDcdc:reg_write_item <- [DW_OP_LLVM_fragment 32 32] undef
	@DEBUG_VALUE: SystemPmuUpdateDcdc:reg_write_item <- [DW_OP_LLVM_fragment 0 32] $r6
	.loc	2 147 28                        @ ../../../components/platform/soc/rt582/rt582_dongle/dongle/src/system_cm3_mcu.c:147:28
	ubfx	r4, r5, #8, #8
	.loc	2 147 52 is_stmt 0              @ ../../../components/platform/soc/rt582/rt582_dongle/dongle/src/system_cm3_mcu.c:147:52
	lsl.w	r4, r12, r4
	mvns	r2, r4
.Ltmp53:
	@DEBUG_VALUE: Reg_Bit_Write:bit_max_value <- $r2
	.loc	2 149 21 is_stmt 1              @ ../../../components/platform/soc/rt582/rt582_dongle/dongle/src/system_cm3_mcu.c:149:21
	ldr	r1, [r6]
.Ltmp54:
	@DEBUG_VALUE: Reg_Bit_Write:reg_value_buf <- $r1
	.loc	2 150 44                        @ ../../../components/platform/soc/rt582/rt582_dongle/dongle/src/system_cm3_mcu.c:150:44
	uxtb	r5, r5
	.loc	2 150 41 is_stmt 0              @ ../../../components/platform/soc/rt582/rt582_dongle/dongle/src/system_cm3_mcu.c:150:41
	lsls	r2, r5
.Ltmp55:
	.loc	2 150 21                        @ ../../../components/platform/soc/rt582/rt582_dongle/dongle/src/system_cm3_mcu.c:150:21
	bics	r1, r2
.Ltmp56:
	@DEBUG_VALUE: Reg_Bit_Write:reg_value_buf <- $r1
	.loc	2 151 49 is_stmt 1              @ ../../../components/platform/soc/rt582/rt582_dongle/dongle/src/system_cm3_mcu.c:151:49
	bic.w	r2, r3, r4
	.loc	2 151 66 is_stmt 0              @ ../../../components/platform/soc/rt582/rt582_dongle/dongle/src/system_cm3_mcu.c:151:66
	lsls	r2, r5
.Ltmp57:
	.loc	2 380 19 is_stmt 1              @ ../../../components/platform/soc/rt582/rt582_dongle/dongle/src/system_cm3_mcu.c:380:19
	adds	r0, #12
.Ltmp58:
	.loc	2 151 19                        @ ../../../components/platform/soc/rt582/rt582_dongle/dongle/src/system_cm3_mcu.c:151:19
	orrs	r1, r2
.Ltmp59:
	@DEBUG_VALUE: Reg_Bit_Write:reg_value_buf <- $r1
	.loc	2 380 5                         @ ../../../components/platform/soc/rt582/rt582_dongle/dongle/src/system_cm3_mcu.c:380:5
	cmp	r0, #180
.Ltmp60:
	.loc	2 152 46                        @ ../../../components/platform/soc/rt582/rt582_dongle/dongle/src/system_cm3_mcu.c:152:46
	str	r1, [r6]
.Ltmp61:
	@DEBUG_VALUE: Reg_Bit_Write:reg_value_buf <- $r1
	@DEBUG_VALUE: Reg_Bit_Write:reg_write_item <- [DW_OP_LLVM_fragment 0 32] $r6
	@DEBUG_VALUE: SystemPmuUpdateDcdc:i <- [DW_OP_plus_uconst 1, DW_OP_stack_value] undef
	.loc	2 380 5                         @ ../../../components/platform/soc/rt582/rt582_dongle/dongle/src/system_cm3_mcu.c:380:5
	bne	.LBB5_3
.Ltmp62:
@ %bb.4:
	@DEBUG_VALUE: SystemPmuUpdateDcdc:reg_write_item <- [DW_OP_LLVM_fragment 0 32] $r6
	@DEBUG_VALUE: SystemPmuUpdateDcdc:reg_num <- 3
	.loc	2 387 1                         @ ../../../components/platform/soc/rt582/rt582_dongle/dongle/src/system_cm3_mcu.c:387:1
	add	sp, #24
	pop	{r4, r5, r6, pc}
.Ltmp63:
.Lfunc_end5:
	.size	SystemPmuUpdateDcdc, .Lfunc_end5-SystemPmuUpdateDcdc
	.cfi_endproc
	.cantunwind
	.fnend
                                        @ -- End function
	.section	.text.Rco40k_Analog_Calibration,"ax",%progbits
	.hidden	Rco40k_Analog_Calibration       @ -- Begin function Rco40k_Analog_Calibration
	.globl	Rco40k_Analog_Calibration
	.p2align	1
	.type	Rco40k_Analog_Calibration,%function
	.code	16                              @ @Rco40k_Analog_Calibration
	.thumb_func
Rco40k_Analog_Calibration:
.Lfunc_begin6:
	.loc	2 395 0                         @ ../../../components/platform/soc/rt582/rt582_dongle/dongle/src/system_cm3_mcu.c:395:0
	.fnstart
	.cfi_startproc
@ %bb.0:
	.save	{r4, r5, r6, r7, r8, lr}
	push.w	{r4, r5, r6, r7, r8, lr}
	.cfi_def_cfa_offset 24
	.cfi_offset lr, -4
	.cfi_offset r8, -8
	.cfi_offset r7, -12
	.cfi_offset r6, -16
	.cfi_offset r5, -20
	.cfi_offset r4, -24
	movs	r4, #52
	movt	r4, #16416
.Ltmp64:
	.loc	2 399 44 prologue_end           @ ../../../components/platform/soc/rt582/rt582_dongle/dongle/src/system_cm3_mcu.c:399:44
	ldr	r0, [r4, #28]
	movw	r1, #2047
	bic	r0, r0, #16777216
	str	r0, [r4, #28]
	.loc	2 400 45                        @ ../../../components/platform/soc/rt582/rt582_dongle/dongle/src/system_cm3_mcu.c:400:45
	ldr	r0, [r4, #32]
	movw	r7, :lower16:Delay_ms
	bic	r0, r0, #134217728
	str	r0, [r4, #32]
	.loc	2 402 32                        @ ../../../components/platform/soc/rt582/rt582_dongle/dongle/src/system_cm3_mcu.c:402:32
	ldr	r0, [r4]
	movw	r6, #37378
	bics	r0, r1
	movs	r5, #0
.Ltmp65:
	@DEBUG_VALUE: Rco40k_Analog_Calibration:rco32k_c <- 0
	.loc	2 0 32 is_stmt 0                @ ../../../components/platform/soc/rt582/rt582_dongle/dongle/src/system_cm3_mcu.c:0:32
	mov.w	r8, #2
	movt	r7, :upper16:Delay_ms
	movt	r6, #1
	.loc	2 402 32                        @ ../../../components/platform/soc/rt582/rt582_dongle/dongle/src/system_cm3_mcu.c:402:32
	str	r0, [r4]
.Ltmp66:
	.p2align	2
.LBB6_1:                                @ =>This Inner Loop Header: Depth=1
	@DEBUG_VALUE: Rco40k_Analog_Calibration:rco32k_c <- undef
	.loc	2 406 35 is_stmt 1              @ ../../../components/platform/soc/rt582/rt582_dongle/dongle/src/system_cm3_mcu.c:406:35
	ldr	r0, [r4]
	bic	r0, r0, #117440512
	orrs	r0, r5
	str	r0, [r4]
	.loc	2 407 47                        @ ../../../components/platform/soc/rt582/rt582_dongle/dongle/src/system_cm3_mcu.c:407:47
	ldr	r0, [r4, #32]
	orr	r0, r0, #33554432
	str	r0, [r4, #32]
	.loc	2 408 51                        @ ../../../components/platform/soc/rt582/rt582_dongle/dongle/src/system_cm3_mcu.c:408:51
	ldr	r0, [r4, #32]
	bic	r0, r0, #805306368
	str	r0, [r4, #32]
	.loc	2 409 51                        @ ../../../components/platform/soc/rt582/rt582_dongle/dongle/src/system_cm3_mcu.c:409:51
	ldr	r0, [r4, #32]
	bfi	r0, r8, #30, #2
	str	r0, [r4, #32]
	.loc	2 410 49                        @ ../../../components/platform/soc/rt582/rt582_dongle/dongle/src/system_cm3_mcu.c:410:49
	ldr	r0, [r4, #32]
	orr	r0, r0, #67108864
	str	r0, [r4, #32]
	.loc	2 411 9                         @ ../../../components/platform/soc/rt582/rt582_dongle/dongle/src/system_cm3_mcu.c:411:9
	ldr	r1, [r7]
	movs	r0, #1
	blx	r1
.Ltmp67:
	.loc	2 412 49                        @ ../../../components/platform/soc/rt582/rt582_dongle/dongle/src/system_cm3_mcu.c:412:49
	ldr	r0, [r4, #32]
	bic	r0, r0, #67108864
	str	r0, [r4, #32]
	.loc	2 413 53                        @ ../../../components/platform/soc/rt582/rt582_dongle/dongle/src/system_cm3_mcu.c:413:53
	ldr	r0, [r4, #36]
	bfc	r0, #18, #14
.Ltmp68:
	@DEBUG_VALUE: Rco40k_Analog_Calibration:rco32k_result <- $r0
	@DEBUG_VALUE: Rco40k_Analog_Calibration:rco32k_c <- [DW_OP_plus_uconst 1, DW_OP_stack_value] undef
	.loc	2 414 13                        @ ../../../components/platform/soc/rt582/rt582_dongle/dongle/src/system_cm3_mcu.c:414:13
	cmp	r0, r6
	bhi	.LBB6_3
.Ltmp69:
@ %bb.2:                                @   in Loop: Header=BB6_1 Depth=1
	@DEBUG_VALUE: Rco40k_Analog_Calibration:rco32k_result <- $r0
	cmp.w	r5, #117440512
	add.w	r5, r5, #16777216
	bne	.LBB6_1
.Ltmp70:
.LBB6_3:
	@DEBUG_VALUE: Rco40k_Analog_Calibration:rco32k_result <- $r0
	.loc	2 420 50                        @ ../../../components/platform/soc/rt582/rt582_dongle/dongle/src/system_cm3_mcu.c:420:50
	ldr	r0, [r4, #32]
.Ltmp71:
	.loc	2 0 50 is_stmt 0                @ ../../../components/platform/soc/rt582/rt582_dongle/dongle/src/system_cm3_mcu.c:0:50
	mov.w	r1, #102400
	.loc	2 420 50                        @ ../../../components/platform/soc/rt582/rt582_dongle/dongle/src/system_cm3_mcu.c:420:50
	orr	r0, r0, #16777216
	str	r0, [r4, #32]
	.loc	2 421 48 is_stmt 1              @ ../../../components/platform/soc/rt582/rt582_dongle/dongle/src/system_cm3_mcu.c:421:48
	ldr	r0, [r4, #28]
	movs	r2, #1
	bfi	r0, r1, #0, #18
	str	r0, [r4, #28]
	.loc	2 422 50                        @ ../../../components/platform/soc/rt582/rt582_dongle/dongle/src/system_cm3_mcu.c:422:50
	ldr	r1, [r4, #32]
	movs	r0, #5
	bfi	r1, r0, #0, #8
	str	r1, [r4, #32]
	.loc	2 423 52                        @ ../../../components/platform/soc/rt582/rt582_dongle/dongle/src/system_cm3_mcu.c:423:52
	ldr	r1, [r4, #32]
	bfi	r1, r2, #8, #2
	str	r1, [r4, #32]
	.loc	2 424 50                        @ ../../../components/platform/soc/rt582/rt582_dongle/dongle/src/system_cm3_mcu.c:424:50
	ldr	r1, [r4, #32]
	movs	r2, #2
	orr	r1, r1, #3072
	str	r1, [r4, #32]
	.loc	2 425 50                        @ ../../../components/platform/soc/rt582/rt582_dongle/dongle/src/system_cm3_mcu.c:425:50
	ldr	r1, [r4, #32]
	orr	r1, r1, #12288
	str	r1, [r4, #32]
	.loc	2 426 45                        @ ../../../components/platform/soc/rt582/rt582_dongle/dongle/src/system_cm3_mcu.c:426:45
	ldr	r1, [r4, #32]
	bfi	r1, r2, #14, #2
	str	r1, [r4, #32]
	.loc	2 427 51                        @ ../../../components/platform/soc/rt582/rt582_dongle/dongle/src/system_cm3_mcu.c:427:51
	ldr	r1, [r4, #32]
	bfi	r1, r0, #16, #3
	str	r1, [r4, #32]
	.loc	2 428 53                        @ ../../../components/platform/soc/rt582/rt582_dongle/dongle/src/system_cm3_mcu.c:428:53
	ldr	r1, [r4, #32]
	orr	r1, r1, #524288
	str	r1, [r4, #32]
	.loc	2 429 51                        @ ../../../components/platform/soc/rt582/rt582_dongle/dongle/src/system_cm3_mcu.c:429:51
	ldr	r1, [r4, #32]
	bfi	r1, r0, #20, #3
	str	r1, [r4, #32]
	.loc	2 430 45                        @ ../../../components/platform/soc/rt582/rt582_dongle/dongle/src/system_cm3_mcu.c:430:45
	ldr	r0, [r4, #32]
	orr	r0, r0, #134217728
	str	r0, [r4, #32]
	.loc	2 431 52                        @ ../../../components/platform/soc/rt582/rt582_dongle/dongle/src/system_cm3_mcu.c:431:52
	ldr	r0, [r4, #32]
	bic	r0, r0, #8388608
	str	r0, [r4, #32]
	.loc	2 432 44                        @ ../../../components/platform/soc/rt582/rt582_dongle/dongle/src/system_cm3_mcu.c:432:44
	ldr	r0, [r4, #28]
	orr	r0, r0, #16777216
	str	r0, [r4, #28]
	.loc	2 433 1                         @ ../../../components/platform/soc/rt582/rt582_dongle/dongle/src/system_cm3_mcu.c:433:1
	pop.w	{r4, r5, r6, r7, r8, pc}
.Ltmp72:
.Lfunc_end6:
	.size	Rco40k_Analog_Calibration, .Lfunc_end6-Rco40k_Analog_Calibration
	.cfi_endproc
	.cantunwind
	.fnend
                                        @ -- End function
	.section	.text.SystemInit,"ax",%progbits
	.hidden	SystemInit                      @ -- Begin function SystemInit
	.globl	SystemInit
	.p2align	1
	.type	SystemInit,%function
	.code	16                              @ @SystemInit
	.thumb_func
SystemInit:
.Lfunc_begin7:
	.loc	2 447 0                         @ ../../../components/platform/soc/rt582/rt582_dongle/dongle/src/system_cm3_mcu.c:447:0
	.fnstart
	.cfi_startproc
@ %bb.0:
	.save	{r7, lr}
	push	{r7, lr}
	.cfi_def_cfa_offset 8
	.cfi_offset lr, -4
	.cfi_offset r7, -8
	movs	r0, #36
	movt	r0, #16416
.Ltmp73:
	.loc	2 457 40 prologue_end           @ ../../../components/platform/soc/rt582/rt582_dongle/dongle/src/system_cm3_mcu.c:457:40
	ldr	r1, [r0]
	movs	r2, #63
	.loc	2 457 54 is_stmt 0              @ ../../../components/platform/soc/rt582/rt582_dongle/dongle/src/system_cm3_mcu.c:457:54
	bfi	r1, r2, #0, #8
	.loc	2 457 23                        @ ../../../components/platform/soc/rt582/rt582_dongle/dongle/src/system_cm3_mcu.c:457:23
	str	r1, [r0]
	.loc	2 461 38 is_stmt 1              @ ../../../components/platform/soc/rt582/rt582_dongle/dongle/src/system_cm3_mcu.c:461:38
	ldr.w	r1, [r0, #160]
	orr	r1, r1, #32768
	str.w	r1, [r0, #160]
	movs	r0, #24
	movt	r0, #41008
	movw	r1, #1007
.Ltmp74:
	.file	9 "C:\\Users\\testo\\Desktop\\rafael-iot-sdk-das - \350\244\207\350\243\275 (2)\\examples\\das_subg_thread\\keil" "../../../components/platform/soc/rt582/rt582_driver/Inc/flashctl.h"
	.loc	9 606 24                        @ ../../../components/platform/soc/rt582/rt582_driver/Inc/flashctl.h:606:24
	str	r1, [r0]
.Ltmp75:
	.loc	2 468 5                         @ ../../../components/platform/soc/rt582/rt582_dongle/dongle/src/system_cm3_mcu.c:468:5
	bl	SystemPmuUpdateDig
.Ltmp76:
	.loc	2 473 5                         @ ../../../components/platform/soc/rt582/rt582_dongle/dongle/src/system_cm3_mcu.c:473:5
	bl	SystemPmuUpdateDcdc
.Ltmp77:
	.loc	2 478 5                         @ ../../../components/platform/soc/rt582/rt582_dongle/dongle/src/system_cm3_mcu.c:478:5
	bl	MpSectorInit
.Ltmp78:
	.loc	2 486 5                         @ ../../../components/platform/soc/rt582/rt582_dongle/dongle/src/system_cm3_mcu.c:486:5
	movs	r0, #2
	bl	Change_Ahb_System_Clk
.Ltmp79:
	.loc	2 112 21                        @ ../../../components/platform/soc/rt582/rt582_dongle/dongle/src/system_cm3_mcu.c:112:21
	movw	r0, :lower16:SystemCoreClock
	movw	r1, #36864
	movt	r0, :upper16:SystemCoreClock
	movt	r1, #976
	str	r1, [r0]
	movs	r0, #36
	movt	r0, #49152
.Ltmp80:
	.loc	2 497 25                        @ ../../../components/platform/soc/rt582/rt582_dongle/dongle/src/system_cm3_mcu.c:497:25
	ldr	r1, [r0]
	orr	r1, r1, #2
	str	r1, [r0]
.Ltmp81:
	@DEBUG_VALUE: DMA <- undef
	.loc	2 499 25                        @ ../../../components/platform/soc/rt582/rt582_dongle/dongle/src/system_cm3_mcu.c:499:25
	ldr.w	r1, [r0, #256]
	orr	r1, r1, #2
	str.w	r1, [r0, #256]
	@DEBUG_VALUE: DMA <- undef
	.loc	2 501 25                        @ ../../../components/platform/soc/rt582/rt582_dongle/dongle/src/system_cm3_mcu.c:501:25
	ldr.w	r1, [r0, #512]
	orr	r1, r1, #2
	str.w	r1, [r0, #512]
	@DEBUG_VALUE: DMA <- undef
	.loc	2 503 25                        @ ../../../components/platform/soc/rt582/rt582_dongle/dongle/src/system_cm3_mcu.c:503:25
	ldr.w	r1, [r0, #768]
	orr	r1, r1, #2
	str.w	r1, [r0, #768]
.Ltmp82:
	@DEBUG_VALUE: DMA <- undef
	.loc	2 508 5                         @ ../../../components/platform/soc/rt582/rt582_dongle/dongle/src/system_cm3_mcu.c:508:5
	pop.w	{r7, lr}
.Ltmp83:
	b	Rco40k_Analog_Calibration
.Ltmp84:
.Lfunc_end7:
	.size	SystemInit, .Lfunc_end7-SystemInit
	.cfi_endproc
	.cantunwind
	.fnend
                                        @ -- End function
	.hidden	SystemFrequency                 @ @SystemFrequency
	.type	SystemFrequency,%object
	.section	.data.SystemFrequency,"aw",%progbits
	.globl	SystemFrequency
	.p2align	2
SystemFrequency:
	.long	64000000                        @ 0x3d09000
	.size	SystemFrequency, 4

	.hidden	SystemCoreClock                 @ @SystemCoreClock
	.type	SystemCoreClock,%object
	.section	.data.SystemCoreClock,"aw",%progbits
	.globl	SystemCoreClock
	.p2align	2
SystemCoreClock:
	.long	64000000                        @ 0x3d09000
	.size	SystemCoreClock, 4

	.hidden	pmu_ap_init_table_dcdc          @ @pmu_ap_init_table_dcdc
	.type	pmu_ap_init_table_dcdc,%object
	.section	.rodata.pmu_ap_init_table_dcdc,"a",%progbits
	.globl	pmu_ap_init_table_dcdc
	.p2align	2
pmu_ap_init_table_dcdc:
	.long	1075839172                      @ 0x402000c4
	.byte	24                              @ 0x18
	.byte	1                               @ 0x1
	.zero	2
	.long	0                               @ 0x0
	.long	1075839172                      @ 0x402000c4
	.byte	25                              @ 0x19
	.byte	1                               @ 0x1
	.zero	2
	.long	0                               @ 0x0
	.long	1075839152                      @ 0x402000b0
	.byte	26                              @ 0x1a
	.byte	1                               @ 0x1
	.zero	2
	.long	1                               @ 0x1
	.size	pmu_ap_init_table_dcdc, 36

	.hidden	pmu_mp_init_table_dcdc          @ @pmu_mp_init_table_dcdc
	.type	pmu_mp_init_table_dcdc,%object
	.section	.rodata.pmu_mp_init_table_dcdc,"a",%progbits
	.globl	pmu_mp_init_table_dcdc
	.p2align	2
pmu_mp_init_table_dcdc:
	.long	1075839120                      @ 0x40200090
	.byte	0                               @ 0x0
	.byte	4                               @ 0x4
	.zero	2
	.long	10                              @ 0xa
	.long	1075839120                      @ 0x40200090
	.byte	4                               @ 0x4
	.byte	4                               @ 0x4
	.zero	2
	.long	10                              @ 0xa
	.long	1075839120                      @ 0x40200090
	.byte	8                               @ 0x8
	.byte	4                               @ 0x4
	.zero	2
	.long	10                              @ 0xa
	.long	1075839120                      @ 0x40200090
	.byte	16                              @ 0x10
	.byte	4                               @ 0x4
	.zero	2
	.long	10                              @ 0xa
	.long	1075839120                      @ 0x40200090
	.byte	20                              @ 0x14
	.byte	4                               @ 0x4
	.zero	2
	.long	10                              @ 0xa
	.long	1075839120                      @ 0x40200090
	.byte	24                              @ 0x18
	.byte	4                               @ 0x4
	.zero	2
	.long	10                              @ 0xa
	.long	1075839124                      @ 0x40200094
	.byte	0                               @ 0x0
	.byte	4                               @ 0x4
	.zero	2
	.long	0                               @ 0x0
	.long	1075839124                      @ 0x40200094
	.byte	4                               @ 0x4
	.byte	4                               @ 0x4
	.zero	2
	.long	0                               @ 0x0
	.long	1075839124                      @ 0x40200094
	.byte	8                               @ 0x8
	.byte	4                               @ 0x4
	.zero	2
	.long	0                               @ 0x0
	.long	1075839128                      @ 0x40200098
	.byte	0                               @ 0x0
	.byte	4                               @ 0x4
	.zero	2
	.long	7                               @ 0x7
	.long	1075839128                      @ 0x40200098
	.byte	4                               @ 0x4
	.byte	4                               @ 0x4
	.zero	2
	.long	7                               @ 0x7
	.long	1075839128                      @ 0x40200098
	.byte	8                               @ 0x8
	.byte	4                               @ 0x4
	.zero	2
	.long	7                               @ 0x7
	.long	1075839128                      @ 0x40200098
	.byte	16                              @ 0x10
	.byte	3                               @ 0x3
	.zero	2
	.long	0                               @ 0x0
	.long	1075839128                      @ 0x40200098
	.byte	20                              @ 0x14
	.byte	3                               @ 0x3
	.zero	2
	.long	0                               @ 0x0
	.long	1075839128                      @ 0x40200098
	.byte	24                              @ 0x18
	.byte	3                               @ 0x3
	.zero	2
	.long	0                               @ 0x0
	.size	pmu_mp_init_table_dcdc, 180

	.section	".note.GNU-stack","",%progbits
	.eabi_attribute	30, 3	@ Tag_ABI_optimization_goals
	.ARM_attribute	16, 1	@ Tag_AV_eba