	.text
	.syntax unified
	.eabi_attribute	67, "2.09"	@ Tag_conformance
	.cpu	cortex-m3
	.eabi_attribute	6, 10	@ Tag_CPU_arch
	.eabi_attribute	7, 77	@ Tag_CPU_arch_profile
	.eabi_attribute	8, 0	@ Tag_ARM_ISA_use
	.eabi_attribute	9, 2	@ Tag_THUMB_ISA_use
	.eabi_attribute	34, 1	@ Tag_CPU_unaligned_access
	.eabi_attribute	17, 1	@ Tag_ABI_PCS_GOT_use
	.eabi_attribute	20, 2	@ Tag_ABI_FP_denormal
	.eabi_attribute	21, 0	@ Tag_ABI_FP_exceptions
	.eabi_attribute	23, 1	@ Tag_ABI_FP_number_model
	.eabi_attribute	24, 1	@ Tag_ABI_align_needed
	.eabi_attribute	25, 1	@ Tag_ABI_align_preserved
	.eabi_attribute	38, 1	@ Tag_ABI_FP_16bit_format
	.eabi_attribute	18, 4	@ Tag_ABI_PCS_wchar_t
	.eabi_attribute	26, 2	@ Tag_ABI_enum_size
	.eabi_attribute	14, 0	@ Tag_ABI_PCS_R9_use
	.file	"timer.c"
	.file	1 "C:\\Keil_v5\\ARM\\ARMCLANG\\Bin\\..\\include" "stdint.h"
	.file	2 "D:\\Rafael-IoT-SDK-Internal-main\\examples\\das_subg_thread\\keil" "../../../components/platform/soc/rt582/rt582_driver/Inc/timer.h"
	.file	3 "D:\\Rafael-IoT-SDK-Internal-main\\examples\\das_subg_thread\\keil" "../../../components/platform/soc/rt582/rt582_driver/Src/timer.c"
	.file	4 "D:\\Rafael-IoT-SDK-Internal-main\\examples\\das_subg_thread\\keil" "../../../components/platform/soc/rt582/rt582_driver/Inc/cm3_mcu.h"
	.file	5 "D:\\Rafael-IoT-SDK-Internal-main\\examples\\das_subg_thread\\keil" "../../../components/platform/soc/rt582/rt582_driver/Inc/timer_reg.h"
	.file	6 "C:/Users\\P350\\AppData\\Local\\Arm\\Packs\\ARM\\CMSIS\\5.8.0\\CMSIS\\Core\\Include" "core_cm3.h"
	.section	.text.Timer_Int_Callback_Register,"ax",%progbits
	.hidden	Timer_Int_Callback_Register     @ -- Begin function Timer_Int_Callback_Register
	.globl	Timer_Int_Callback_Register
	.p2align	1
	.type	Timer_Int_Callback_Register,%function
	.code	16                              @ @Timer_Int_Callback_Register
	.thumb_func
Timer_Int_Callback_Register:
.Lfunc_begin0:
	.loc	3 35 0                          @ ../../../components/platform/soc/rt582/rt582_driver/Src/timer.c:35:0
	.fnstart
	.cfi_sections .debug_frame
	.cfi_startproc
@ %bb.0:
	@DEBUG_VALUE: Timer_Int_Callback_Register:timer_id <- $r0
	@DEBUG_VALUE: Timer_Int_Callback_Register:timer_id <- $r0
	@DEBUG_VALUE: Timer_Int_Callback_Register:timer_handler <- $r1
	@DEBUG_VALUE: Timer_Int_Callback_Register:timer_handler <- $r1
	.loc	3 36 25 prologue_end            @ ../../../components/platform/soc/rt582/rt582_driver/Src/timer.c:36:25
	movw	r2, :lower16:timer_cfg
	movt	r2, :upper16:timer_cfg
	.loc	3 36 39 is_stmt 0               @ ../../../components/platform/soc/rt582/rt582_driver/Src/timer.c:36:39
	str.w	r1, [r2, r0, lsl #3]
	.loc	3 38 5 is_stmt 1                @ ../../../components/platform/soc/rt582/rt582_driver/Src/timer.c:38:5
	bx	lr
.Ltmp0:
.Lfunc_end0:
	.size	Timer_Int_Callback_Register, .Lfunc_end0-Timer_Int_Callback_Register
	.cfi_endproc
	.cantunwind
	.fnend
                                        @ -- End function
	.section	.text.Timer_Int_Priority,"ax",%progbits
	.hidden	Timer_Int_Priority              @ -- Begin function Timer_Int_Priority
	.globl	Timer_Int_Priority
	.p2align	1
	.type	Timer_Int_Priority,%function
	.code	16                              @ @Timer_Int_Priority
	.thumb_func
Timer_Int_Priority:
.Lfunc_begin1:
	.loc	3 43 0                          @ ../../../components/platform/soc/rt582/rt582_driver/Src/timer.c:43:0
	.fnstart
	.cfi_startproc
@ %bb.0:
	@DEBUG_VALUE: Timer_Int_Priority:timer_id <- $r0
	@DEBUG_VALUE: Timer_Int_Priority:timer_id <- $r0
	@DEBUG_VALUE: Timer_Int_Priority:timer_priority <- $r1
	.loc	3 44 9 prologue_end             @ ../../../components/platform/soc/rt582/rt582_driver/Src/timer.c:44:9
	cmp	r0, #5
	@DEBUG_VALUE: Timer_Int_Priority:timer_priority <- $r1
	bls	.LBB1_2
.Ltmp1:
.LBB1_1:
	@DEBUG_VALUE: Timer_Int_Priority:timer_priority <- $r1
	@DEBUG_VALUE: Timer_Int_Priority:timer_id <- $r0
	.loc	3 0 9 is_stmt 0                 @ ../../../components/platform/soc/rt582/rt582_driver/Src/timer.c:0:9
	movs	r0, #1
.Ltmp2:
	@DEBUG_VALUE: Timer_Int_Priority:timer_id <- [DW_OP_LLVM_entry_value 1] $r0
	.loc	3 71 1 is_stmt 1                @ ../../../components/platform/soc/rt582/rt582_driver/Src/timer.c:71:1
	bx	lr
.Ltmp3:
.LBB1_2:
	@DEBUG_VALUE: Timer_Int_Priority:timer_priority <- $r1
	@DEBUG_VALUE: Timer_Int_Priority:timer_id <- $r0
	.loc	3 49 9                          @ ../../../components/platform/soc/rt582/rt582_driver/Src/timer.c:49:9
	cmp	r0, #1
	bhi	.LBB1_4
.Ltmp4:
@ %bb.3:
	@DEBUG_VALUE: Timer_Int_Priority:timer_priority <- $r1
	@DEBUG_VALUE: Timer_Int_Priority:timer_id <- $r0
	.loc	3 0 9 is_stmt 0                 @ ../../../components/platform/soc/rt582/rt582_driver/Src/timer.c:0:9
	movw	r2, #58368
.Ltmp5:
	.loc	3 51 50 is_stmt 1               @ ../../../components/platform/soc/rt582/rt582_driver/Src/timer.c:51:50
	adds	r0, #1
.Ltmp6:
	@DEBUG_VALUE: Timer_Int_Priority:timer_id <- [DW_OP_LLVM_entry_value 1] $r0
	@DEBUG_VALUE: __NVIC_SetPriority:priority <- $r1
	@DEBUG_VALUE: __NVIC_SetPriority:IRQn <- $r0
	.loc	6 1642 48                       @ C:/Users\P350\AppData\Local\Arm\Packs\ARM\CMSIS\5.8.0\CMSIS\Core\Include\core_cm3.h:1642:48
	lsls	r1, r1, #5
.Ltmp7:
	@DEBUG_VALUE: Timer_Int_Priority:timer_priority <- [DW_OP_LLVM_entry_value 1] $r1
	.loc	6 0 48 is_stmt 0                @ C:/Users\P350\AppData\Local\Arm\Packs\ARM\CMSIS\5.8.0\CMSIS\Core\Include\core_cm3.h:0:48
	movt	r2, #57344
	.loc	6 1642 46                       @ C:/Users\P350\AppData\Local\Arm\Packs\ARM\CMSIS\5.8.0\CMSIS\Core\Include\core_cm3.h:1642:46
	strb	r1, [r0, r2]
	b	.LBB1_10
.Ltmp8:
.LBB1_4:
	@DEBUG_VALUE: Timer_Int_Priority:timer_priority <- $r1
	@DEBUG_VALUE: Timer_Int_Priority:timer_id <- $r0
	.loc	3 53 14 is_stmt 1               @ ../../../components/platform/soc/rt582/rt582_driver/Src/timer.c:53:14
	cmp	r0, #4
	beq	.LBB1_8
.Ltmp9:
@ %bb.5:
	@DEBUG_VALUE: Timer_Int_Priority:timer_priority <- $r1
	@DEBUG_VALUE: Timer_Int_Priority:timer_id <- $r0
	cmp	r0, #3
	beq	.LBB1_9
.Ltmp10:
@ %bb.6:
	@DEBUG_VALUE: Timer_Int_Priority:timer_priority <- $r1
	@DEBUG_VALUE: Timer_Int_Priority:timer_id <- $r0
	cmp	r0, #2
	bne	.LBB1_1
.Ltmp11:
@ %bb.7:
	@DEBUG_VALUE: Timer_Int_Priority:timer_priority <- $r1
	@DEBUG_VALUE: Timer_Int_Priority:timer_id <- $r0
	@DEBUG_VALUE: __NVIC_SetPriority:IRQn <- 28
	@DEBUG_VALUE: __NVIC_SetPriority:priority <- $r1
	.loc	6 1642 48                       @ C:/Users\P350\AppData\Local\Arm\Packs\ARM\CMSIS\5.8.0\CMSIS\Core\Include\core_cm3.h:1642:48
	lsls	r0, r1, #5
.Ltmp12:
	@DEBUG_VALUE: Timer_Int_Priority:timer_id <- [DW_OP_LLVM_entry_value 1] $r0
	.loc	6 0 48 is_stmt 0                @ C:/Users\P350\AppData\Local\Arm\Packs\ARM\CMSIS\5.8.0\CMSIS\Core\Include\core_cm3.h:0:48
	movw	r1, #58368
.Ltmp13:
	@DEBUG_VALUE: Timer_Int_Priority:timer_priority <- [DW_OP_LLVM_entry_value 1] $r1
	movt	r1, #57344
	.loc	6 1642 46                       @ C:/Users\P350\AppData\Local\Arm\Packs\ARM\CMSIS\5.8.0\CMSIS\Core\Include\core_cm3.h:1642:46
	strb	r0, [r1, #28]
	b	.LBB1_10
.Ltmp14:
.LBB1_8:
	@DEBUG_VALUE: Timer_Int_Priority:timer_priority <- $r1
	@DEBUG_VALUE: Timer_Int_Priority:timer_id <- $r0
	@DEBUG_VALUE: __NVIC_SetPriority:IRQn <- 16
	@DEBUG_VALUE: __NVIC_SetPriority:priority <- $r1
	.loc	6 1642 48                       @ C:/Users\P350\AppData\Local\Arm\Packs\ARM\CMSIS\5.8.0\CMSIS\Core\Include\core_cm3.h:1642:48
	lsls	r0, r1, #5
.Ltmp15:
	@DEBUG_VALUE: Timer_Int_Priority:timer_id <- [DW_OP_LLVM_entry_value 1] $r0
	.loc	6 0 48                          @ C:/Users\P350\AppData\Local\Arm\Packs\ARM\CMSIS\5.8.0\CMSIS\Core\Include\core_cm3.h:0:48
	movw	r1, #58368
.Ltmp16:
	@DEBUG_VALUE: Timer_Int_Priority:timer_priority <- [DW_OP_LLVM_entry_value 1] $r1
	movt	r1, #57344
	.loc	6 1642 46                       @ C:/Users\P350\AppData\Local\Arm\Packs\ARM\CMSIS\5.8.0\CMSIS\Core\Include\core_cm3.h:1642:46
	strb	r0, [r1, #16]
	b	.LBB1_10
.Ltmp17:
.LBB1_9:
	@DEBUG_VALUE: Timer_Int_Priority:timer_priority <- $r1
	@DEBUG_VALUE: Timer_Int_Priority:timer_id <- $r0
	@DEBUG_VALUE: __NVIC_SetPriority:IRQn <- 15
	@DEBUG_VALUE: __NVIC_SetPriority:priority <- $r1
	.loc	6 1642 48                       @ C:/Users\P350\AppData\Local\Arm\Packs\ARM\CMSIS\5.8.0\CMSIS\Core\Include\core_cm3.h:1642:48
	lsls	r0, r1, #5
.Ltmp18:
	@DEBUG_VALUE: Timer_Int_Priority:timer_id <- [DW_OP_LLVM_entry_value 1] $r0
	.loc	6 0 48                          @ C:/Users\P350\AppData\Local\Arm\Packs\ARM\CMSIS\5.8.0\CMSIS\Core\Include\core_cm3.h:0:48
	movw	r1, #58368
.Ltmp19:
	@DEBUG_VALUE: Timer_Int_Priority:timer_priority <- [DW_OP_LLVM_entry_value 1] $r1
	movt	r1, #57344
	.loc	6 1642 46                       @ C:/Users\P350\AppData\Local\Arm\Packs\ARM\CMSIS\5.8.0\CMSIS\Core\Include\core_cm3.h:1642:46
	strb	r0, [r1, #15]
.Ltmp20:
.LBB1_10:
	@DEBUG_VALUE: Timer_Int_Priority:timer_priority <- [DW_OP_LLVM_entry_value 1] $r1
	@DEBUG_VALUE: Timer_Int_Priority:timer_id <- [DW_OP_LLVM_entry_value 1] $r0
	.loc	6 0 46                          @ C:/Users\P350\AppData\Local\Arm\Packs\ARM\CMSIS\5.8.0\CMSIS\Core\Include\core_cm3.h:0:46
	movs	r0, #0
	.loc	3 71 1 is_stmt 1                @ ../../../components/platform/soc/rt582/rt582_driver/Src/timer.c:71:1
	bx	lr
.Ltmp21:
.Lfunc_end1:
	.size	Timer_Int_Priority, .Lfunc_end1-Timer_Int_Priority
	.cfi_endproc
	.cantunwind
	.fnend
                                        @ -- End function
	.section	.text.Timer_Open,"ax",%progbits
	.hidden	Timer_Open                      @ -- Begin function Timer_Open
	.globl	Timer_Open
	.p2align	1
	.type	Timer_Open,%function
	.code	16                              @ @Timer_Open
	.thumb_func
Timer_Open:
.Lfunc_begin2:
	.loc	3 77 0                          @ ../../../components/platform/soc/rt582/rt582_driver/Src/timer.c:77:0
	.fnstart
	.cfi_startproc
@ %bb.0:
	@DEBUG_VALUE: Timer_Open:timer_id <- $r0
	@DEBUG_VALUE: Timer_Open:timer_id <- $r0
	@DEBUG_VALUE: Timer_Open:timer_handler <- $r2
	@DEBUG_VALUE: Timer_Open:timer_handler <- $r2
	@DEBUG_VALUE: Timer_Open:cfg <- [DW_OP_LLVM_convert 32 7, DW_OP_LLVM_convert 8 7, DW_OP_stack_value] undef
	.save	{r4, r5, r7, lr}
	push	{r4, r5, r7, lr}
	.cfi_def_cfa_offset 16
	.cfi_offset lr, -4
	.cfi_offset r7, -8
	.cfi_offset r5, -12
	.cfi_offset r4, -16
.Ltmp22:
	.loc	3 78 9 prologue_end             @ ../../../components/platform/soc/rt582/rt582_driver/Src/timer.c:78:9
	cmp	r0, #5
	bls	.LBB2_2
.Ltmp23:
.LBB2_1:
	@DEBUG_VALUE: Timer_Open:timer_handler <- $r2
	.loc	3 0 9 is_stmt 0                 @ ../../../components/platform/soc/rt582/rt582_driver/Src/timer.c:0:9
	movs	r0, #1
	.loc	3 127 1 is_stmt 1               @ ../../../components/platform/soc/rt582/rt582_driver/Src/timer.c:127:1
	pop	{r4, r5, r7, pc}
.Ltmp24:
.LBB2_2:
	@DEBUG_VALUE: Timer_Open:timer_handler <- $r2
	@DEBUG_VALUE: Timer_Open:timer_id <- $r0
	.loc	3 83 29                         @ ../../../components/platform/soc/rt582/rt582_driver/Src/timer.c:83:29
	movw	r12, :lower16:timer_cfg
	movt	r12, :upper16:timer_cfg
	add.w	lr, r12, r0, lsl #3
	mov	r3, lr
	ldrb	r4, [r3, #5]!
.Ltmp25:
	.loc	3 83 9 is_stmt 0                @ ../../../components/platform/soc/rt582/rt582_driver/Src/timer.c:83:9
	lsls	r5, r4, #30
	itt	ne
	movne	r0, #2
.Ltmp26:
	@DEBUG_VALUE: Timer_Open:timer_id <- [DW_OP_LLVM_entry_value 1] $r0
	.loc	3 127 1 is_stmt 1               @ ../../../components/platform/soc/rt582/rt582_driver/Src/timer.c:127:1
	popne	{r4, r5, r7, pc}
.Ltmp27:
.LBB2_3:
	@DEBUG_VALUE: Timer_Open:timer_handler <- $r2
	@DEBUG_VALUE: Timer_Open:timer_id <- [DW_OP_LLVM_entry_value 1] $r0
	@DEBUG_VALUE: Timer_Int_Callback_Register:timer_id <- $r0
	@DEBUG_VALUE: Timer_Int_Callback_Register:timer_handler <- $r2
	.loc	3 97 31                         @ ../../../components/platform/soc/rt582/rt582_driver/Src/timer.c:97:31
	strb.w	r1, [lr, #4]
	.loc	3 99 31                         @ ../../../components/platform/soc/rt582/rt582_driver/Src/timer.c:99:31
	and	r1, r4, #252
	adds	r1, #1
.Ltmp28:
	.loc	3 36 39                         @ ../../../components/platform/soc/rt582/rt582_driver/Src/timer.c:36:39
	str.w	r2, [r12, r0, lsl #3]
.Ltmp29:
	.loc	3 99 31                         @ ../../../components/platform/soc/rt582/rt582_driver/Src/timer.c:99:31
	strb	r1, [r3]
	.loc	3 102 9                         @ ../../../components/platform/soc/rt582/rt582_driver/Src/timer.c:102:9
	cbz	r2, .LBB2_12
.Ltmp30:
@ %bb.4:
	@DEBUG_VALUE: Timer_Open:timer_handler <- $r2
	@DEBUG_VALUE: Timer_Open:timer_id <- [DW_OP_LLVM_entry_value 1] $r0
	.loc	3 104 13                        @ ../../../components/platform/soc/rt582/rt582_driver/Src/timer.c:104:13
	cmp	r0, #1
	bhi	.LBB2_6
.Ltmp31:
@ %bb.5:
	@DEBUG_VALUE: Timer_Open:timer_handler <- $r2
	@DEBUG_VALUE: Timer_Open:timer_id <- [DW_OP_LLVM_entry_value 1] $r0
	.loc	3 106 52                        @ ../../../components/platform/soc/rt582/rt582_driver/Src/timer.c:106:52
	adds	r0, #1
.Ltmp32:
	@DEBUG_VALUE: __NVIC_EnableIRQ:IRQn <- $r0
	.loc	3 0 52 is_stmt 0                @ ../../../components/platform/soc/rt582/rt582_driver/Src/timer.c:0:52
	movs	r1, #1
.Ltmp33:
	.loc	6 1513 60 is_stmt 1             @ C:/Users\P350\AppData\Local\Arm\Packs\ARM\CMSIS\5.8.0\CMSIS\Core\Include\core_cm3.h:1513:60
	lsl.w	r0, r1, r0
.Ltmp34:
	.loc	6 0 60 is_stmt 0                @ C:/Users\P350\AppData\Local\Arm\Packs\ARM\CMSIS\5.8.0\CMSIS\Core\Include\core_cm3.h:0:60
	movw	r1, #57600
	movt	r1, #57344
	.loc	6 1512 5 is_stmt 1              @ C:/Users\P350\AppData\Local\Arm\Packs\ARM\CMSIS\5.8.0\CMSIS\Core\Include\core_cm3.h:1512:5
	@APP
	@NO_APP
	.loc	6 1513 43                       @ C:/Users\P350\AppData\Local\Arm\Packs\ARM\CMSIS\5.8.0\CMSIS\Core\Include\core_cm3.h:1513:43
	str	r0, [r1]
	.loc	6 1514 5                        @ C:/Users\P350\AppData\Local\Arm\Packs\ARM\CMSIS\5.8.0\CMSIS\Core\Include\core_cm3.h:1514:5
	@APP
	@NO_APP
	b	.LBB2_12
.Ltmp35:
.LBB2_6:
	@DEBUG_VALUE: Timer_Open:timer_handler <- $r2
	@DEBUG_VALUE: Timer_Open:timer_id <- [DW_OP_LLVM_entry_value 1] $r0
	.loc	3 108 18                        @ ../../../components/platform/soc/rt582/rt582_driver/Src/timer.c:108:18
	cmp	r0, #4
	beq	.LBB2_10
.Ltmp36:
@ %bb.7:
	@DEBUG_VALUE: Timer_Open:timer_handler <- $r2
	@DEBUG_VALUE: Timer_Open:timer_id <- [DW_OP_LLVM_entry_value 1] $r0
	cmp	r0, #3
	beq	.LBB2_11
.Ltmp37:
@ %bb.8:
	@DEBUG_VALUE: Timer_Open:timer_handler <- $r2
	@DEBUG_VALUE: Timer_Open:timer_id <- [DW_OP_LLVM_entry_value 1] $r0
	cmp	r0, #2
	bne	.LBB2_1
.Ltmp38:
@ %bb.9:
	@DEBUG_VALUE: Timer_Open:timer_handler <- $r2
	@DEBUG_VALUE: Timer_Open:timer_id <- [DW_OP_LLVM_entry_value 1] $r0
	@DEBUG_VALUE: __NVIC_EnableIRQ:IRQn <- 28
	.loc	3 0 18 is_stmt 0                @ ../../../components/platform/soc/rt582/rt582_driver/Src/timer.c:0:18
	movw	r0, #57600
	movt	r0, #57344
	mov.w	r1, #268435456
.Ltmp39:
	.loc	6 1512 5 is_stmt 1              @ C:/Users\P350\AppData\Local\Arm\Packs\ARM\CMSIS\5.8.0\CMSIS\Core\Include\core_cm3.h:1512:5
	@APP
	@NO_APP
	.loc	6 1513 43                       @ C:/Users\P350\AppData\Local\Arm\Packs\ARM\CMSIS\5.8.0\CMSIS\Core\Include\core_cm3.h:1513:43
	str	r1, [r0]
	.loc	6 1514 5                        @ C:/Users\P350\AppData\Local\Arm\Packs\ARM\CMSIS\5.8.0\CMSIS\Core\Include\core_cm3.h:1514:5
	@APP
	@NO_APP
	b	.LBB2_12
.Ltmp40:
.LBB2_10:
	@DEBUG_VALUE: Timer_Open:timer_handler <- $r2
	@DEBUG_VALUE: Timer_Open:timer_id <- [DW_OP_LLVM_entry_value 1] $r0
	@DEBUG_VALUE: __NVIC_EnableIRQ:IRQn <- 16
	.loc	6 0 5 is_stmt 0                 @ C:/Users\P350\AppData\Local\Arm\Packs\ARM\CMSIS\5.8.0\CMSIS\Core\Include\core_cm3.h:0:5
	movw	r0, #57600
	movt	r0, #57344
	mov.w	r1, #65536
.Ltmp41:
	.loc	6 1512 5 is_stmt 1              @ C:/Users\P350\AppData\Local\Arm\Packs\ARM\CMSIS\5.8.0\CMSIS\Core\Include\core_cm3.h:1512:5
	@APP
	@NO_APP
	.loc	6 1513 43                       @ C:/Users\P350\AppData\Local\Arm\Packs\ARM\CMSIS\5.8.0\CMSIS\Core\Include\core_cm3.h:1513:43
	str	r1, [r0]
	.loc	6 1514 5                        @ C:/Users\P350\AppData\Local\Arm\Packs\ARM\CMSIS\5.8.0\CMSIS\Core\Include\core_cm3.h:1514:5
	@APP
	@NO_APP
	b	.LBB2_12
.Ltmp42:
.LBB2_11:
	@DEBUG_VALUE: Timer_Open:timer_handler <- $r2
	@DEBUG_VALUE: Timer_Open:timer_id <- [DW_OP_LLVM_entry_value 1] $r0
	@DEBUG_VALUE: __NVIC_EnableIRQ:IRQn <- 15
	.loc	6 0 5 is_stmt 0                 @ C:/Users\P350\AppData\Local\Arm\Packs\ARM\CMSIS\5.8.0\CMSIS\Core\Include\core_cm3.h:0:5
	movw	r0, #57600
	movt	r0, #57344
	mov.w	r1, #32768
.Ltmp43:
	.loc	6 1512 5 is_stmt 1              @ C:/Users\P350\AppData\Local\Arm\Packs\ARM\CMSIS\5.8.0\CMSIS\Core\Include\core_cm3.h:1512:5
	@APP
	@NO_APP
	.loc	6 1513 43                       @ C:/Users\P350\AppData\Local\Arm\Packs\ARM\CMSIS\5.8.0\CMSIS\Core\Include\core_cm3.h:1513:43
	str	r1, [r0]
	.loc	6 1514 5                        @ C:/Users\P350\AppData\Local\Arm\Packs\ARM\CMSIS\5.8.0\CMSIS\Core\Include\core_cm3.h:1514:5
	@APP
	@NO_APP
.Ltmp44:
.LBB2_12:
	@DEBUG_VALUE: Timer_Open:timer_handler <- $r2
	@DEBUG_VALUE: Timer_Open:timer_id <- [DW_OP_LLVM_entry_value 1] $r0
	.loc	6 0 5 is_stmt 0                 @ C:/Users\P350\AppData\Local\Arm\Packs\ARM\CMSIS\5.8.0\CMSIS\Core\Include\core_cm3.h:0:5
	movs	r0, #0
	.loc	3 127 1 is_stmt 1               @ ../../../components/platform/soc/rt582/rt582_driver/Src/timer.c:127:1
	pop	{r4, r5, r7, pc}
.Ltmp45:
.Lfunc_end2:
	.size	Timer_Open, .Lfunc_end2-Timer_Open
	.cfi_endproc
	.cantunwind
	.fnend
                                        @ -- End function
	.section	.text.Timer_Load,"ax",%progbits
	.hidden	Timer_Load                      @ -- Begin function Timer_Load
	.globl	Timer_Load
	.p2align	1
	.type	Timer_Load,%function
	.code	16                              @ @Timer_Load
	.thumb_func
Timer_Load:
.Lfunc_begin3:
	.loc	3 130 0                         @ ../../../components/platform/soc/rt582/rt582_driver/Src/timer.c:130:0
	.fnstart
	.cfi_startproc
@ %bb.0:
	@DEBUG_VALUE: Timer_Load:timer_id <- $r0
	@DEBUG_VALUE: Timer_Load:timer_id <- $r0
	@DEBUG_VALUE: Timer_Load:timeout_ticks <- $r1
	.loc	3 134 9 prologue_end            @ ../../../components/platform/soc/rt582/rt582_driver/Src/timer.c:134:9
	cmp	r0, #5
	@DEBUG_VALUE: Timer_Load:timeout_ticks <- $r1
	itt	hi
	movhi	r0, #1
.Ltmp46:
	@DEBUG_VALUE: Timer_Load:timer_id <- [DW_OP_LLVM_entry_value 1] $r0
	.loc	3 144 1                         @ ../../../components/platform/soc/rt582/rt582_driver/Src/timer.c:144:1
	bxhi	lr
.Ltmp47:
.LBB3_1:
	@DEBUG_VALUE: Timer_Load:timeout_ticks <- $r1
	@DEBUG_VALUE: Timer_Load:timer_id <- [DW_OP_LLVM_entry_value 1] $r0
	.loc	3 139 13                        @ ../../../components/platform/soc/rt582/rt582_driver/Src/timer.c:139:13
	movw	r2, :lower16:.L__const.Timer_Current_Get.base
	movt	r2, :upper16:.L__const.Timer_Current_Get.base
	ldr.w	r0, [r2, r0, lsl #2]
.Ltmp48:
	@DEBUG_VALUE: Timer_Load:timer <- $r0
	.loc	3 141 34                        @ ../../../components/platform/soc/rt582/rt582_driver/Src/timer.c:141:34
	subs	r1, #1
.Ltmp49:
	@DEBUG_VALUE: Timer_Load:timeout_ticks <- [DW_OP_LLVM_entry_value 1] $r1
	.loc	3 141 17 is_stmt 0              @ ../../../components/platform/soc/rt582/rt582_driver/Src/timer.c:141:17
	str	r1, [r0]
	movs	r0, #0
.Ltmp50:
	.loc	3 144 1 is_stmt 1               @ ../../../components/platform/soc/rt582/rt582_driver/Src/timer.c:144:1
	bx	lr
.Ltmp51:
.Lfunc_end3:
	.size	Timer_Load, .Lfunc_end3-Timer_Load
	.cfi_endproc
	.cantunwind
	.fnend
                                        @ -- End function
	.section	.text.Timer_Start,"ax",%progbits
	.hidden	Timer_Start                     @ -- Begin function Timer_Start
	.globl	Timer_Start
	.p2align	1
	.type	Timer_Start,%function
	.code	16                              @ @Timer_Start
	.thumb_func
Timer_Start:
.Lfunc_begin4:
	.loc	3 147 0                         @ ../../../components/platform/soc/rt582/rt582_driver/Src/timer.c:147:0
	.fnstart
	.cfi_startproc
@ %bb.0:
	@DEBUG_VALUE: Timer_Start:timer_id <- $r0
	@DEBUG_VALUE: Timer_Start:timer_id <- $r0
	@DEBUG_VALUE: Timer_Start:timeout_ticks <- $r1
	.save	{r4, lr}
	push	{r4, lr}
	.cfi_def_cfa_offset 8
	.cfi_offset lr, -4
	.cfi_offset r4, -8
.Ltmp52:
	.loc	3 151 9 prologue_end            @ ../../../components/platform/soc/rt582/rt582_driver/Src/timer.c:151:9
	cmp	r0, #5
	@DEBUG_VALUE: Timer_Start:timeout_ticks <- $r1
	itt	hi
	movhi	r0, #1
.Ltmp53:
	@DEBUG_VALUE: Timer_Start:timer_id <- [DW_OP_LLVM_entry_value 1] $r0
	.loc	3 181 1                         @ ../../../components/platform/soc/rt582/rt582_driver/Src/timer.c:181:1
	pophi	{r4, pc}
.Ltmp54:
.LBB4_1:
	@DEBUG_VALUE: Timer_Start:timeout_ticks <- $r1
	@DEBUG_VALUE: Timer_Start:timer_id <- [DW_OP_LLVM_entry_value 1] $r0
	.loc	3 156 29                        @ ../../../components/platform/soc/rt582/rt582_driver/Src/timer.c:156:29
	movw	r2, :lower16:timer_cfg
	movt	r2, :upper16:timer_cfg
	add.w	r2, r2, r0, lsl #3
	ldrb	r3, [r2, #5]
	and	r3, r3, #3
.Ltmp55:
	.loc	3 156 9 is_stmt 0               @ ../../../components/platform/soc/rt582/rt582_driver/Src/timer.c:156:9
	cmp	r3, #1
	itt	ne
	movne	r0, #4
	.loc	3 181 1 is_stmt 1               @ ../../../components/platform/soc/rt582/rt582_driver/Src/timer.c:181:1
	popne	{r4, pc}
.Ltmp56:
.LBB4_2:
	@DEBUG_VALUE: Timer_Start:timeout_ticks <- $r1
	@DEBUG_VALUE: Timer_Start:timer_id <- [DW_OP_LLVM_entry_value 1] $r0
	.loc	3 161 13                        @ ../../../components/platform/soc/rt582/rt582_driver/Src/timer.c:161:13
	movw	r3, :lower16:.L__const.Timer_Current_Get.base
	movt	r3, :upper16:.L__const.Timer_Current_Get.base
	ldr.w	r4, [r3, r0, lsl #2]
.Ltmp57:
	@DEBUG_VALUE: Timer_Load:timer <- $r4
	@DEBUG_VALUE: Timer_Load:base <- undef
	@DEBUG_VALUE: Timer_Load:timeout_ticks <- $r1
	@DEBUG_VALUE: Timer_Load:timer_id <- undef
	@DEBUG_VALUE: Timer_Start:timer <- $r4
	.loc	3 141 34                        @ ../../../components/platform/soc/rt582/rt582_driver/Src/timer.c:141:34
	subs	r0, r1, #1
	.loc	3 141 17 is_stmt 0              @ ../../../components/platform/soc/rt582/rt582_driver/Src/timer.c:141:17
	str	r0, [r4]
.Ltmp58:
	.loc	3 165 61 is_stmt 1              @ ../../../components/platform/soc/rt582/rt582_driver/Src/timer.c:165:61
	ldrb	r0, [r2, #4]
	.loc	3 165 35 is_stmt 0              @ ../../../components/platform/soc/rt582/rt582_driver/Src/timer.c:165:35
	ldr	r1, [r4, #8]
.Ltmp59:
	@DEBUG_VALUE: Timer_Start:timeout_ticks <- [DW_OP_LLVM_entry_value 1] $r1
	and	r2, r0, #16
	bic	r1, r1, #32
	orr.w	r1, r1, r2, lsl #1
	str	r1, [r4, #8]
.Ltmp60:
	.loc	3 0 0                           @ ../../../components/platform/soc/rt582/rt582_driver/Src/timer.c:0:0
	ldr	r1, [r4, #8]
.Ltmp61:
	.loc	3 167 9 is_stmt 1               @ ../../../components/platform/soc/rt582/rt582_driver/Src/timer.c:167:9
	and	r2, r0, #1
	bic	r1, r1, #64
	orr.w	r1, r1, r2, lsl #6
.Ltmp62:
	.loc	3 0 0 is_stmt 0                 @ ../../../components/platform/soc/rt582/rt582_driver/Src/timer.c:0:0
	str	r1, [r4, #8]
.Ltmp63:
	.loc	3 176 33 is_stmt 1              @ ../../../components/platform/soc/rt582/rt582_driver/Src/timer.c:176:33
	ldr	r1, [r4, #8]
	and	r0, r0, #14
	bic	r1, r1, #28
	orr.w	r0, r1, r0, lsl #1
	str	r0, [r4, #8]
	.loc	3 177 5                         @ ../../../components/platform/soc/rt582/rt582_driver/Src/timer.c:177:5
	movw	r0, :lower16:Delay_ms
	movt	r0, :upper16:Delay_ms
	ldr	r1, [r0]
	movs	r0, #1
	blx	r1
.Ltmp64:
	.loc	3 178 27                        @ ../../../components/platform/soc/rt582/rt582_driver/Src/timer.c:178:27
	ldr	r0, [r4, #8]
	orr	r0, r0, #128
	str	r0, [r4, #8]
	movs	r0, #0
	.loc	3 181 1                         @ ../../../components/platform/soc/rt582/rt582_driver/Src/timer.c:181:1
	pop	{r4, pc}
.Ltmp65:
.Lfunc_end4:
	.size	Timer_Start, .Lfunc_end4-Timer_Start
	.cfi_endproc
	.cantunwind
	.fnend
                                        @ -- End function
	.section	.text.Timer_Stop,"ax",%progbits
	.hidden	Timer_Stop                      @ -- Begin function Timer_Stop
	.globl	Timer_Stop
	.p2align	1
	.type	Timer_Stop,%function
	.code	16                              @ @Timer_Stop
	.thumb_func
Timer_Stop:
.Lfunc_begin5:
	.loc	3 184 0                         @ ../../../components/platform/soc/rt582/rt582_driver/Src/timer.c:184:0
	.fnstart
	.cfi_startproc
@ %bb.0:
	@DEBUG_VALUE: Timer_Stop:timer_id <- $r0
	@DEBUG_VALUE: Timer_Stop:timer_id <- $r0
	.loc	3 188 9 prologue_end            @ ../../../components/platform/soc/rt582/rt582_driver/Src/timer.c:188:9
	cmp	r0, #5
	itt	hi
	movhi	r0, #1
.Ltmp66:
	@DEBUG_VALUE: Timer_Stop:timer_id <- [DW_OP_LLVM_entry_value 1] $r0
	.loc	3 202 1                         @ ../../../components/platform/soc/rt582/rt582_driver/Src/timer.c:202:1
	bxhi	lr
.Ltmp67:
.LBB5_1:
	@DEBUG_VALUE: Timer_Stop:timer_id <- [DW_OP_LLVM_entry_value 1] $r0
	.loc	3 193 29                        @ ../../../components/platform/soc/rt582/rt582_driver/Src/timer.c:193:29
	movw	r1, :lower16:timer_cfg
	movt	r1, :upper16:timer_cfg
	add.w	r1, r1, r0, lsl #3
	ldrb	r1, [r1, #5]
	and	r1, r1, #3
.Ltmp68:
	.loc	3 193 9 is_stmt 0               @ ../../../components/platform/soc/rt582/rt582_driver/Src/timer.c:193:9
	cmp	r1, #1
	itt	ne
	movne	r0, #4
	.loc	3 202 1 is_stmt 1               @ ../../../components/platform/soc/rt582/rt582_driver/Src/timer.c:202:1
	bxne	lr
.Ltmp69:
.LBB5_2:
	@DEBUG_VALUE: Timer_Stop:timer_id <- [DW_OP_LLVM_entry_value 1] $r0
	.loc	3 198 13                        @ ../../../components/platform/soc/rt582/rt582_driver/Src/timer.c:198:13
	movw	r1, :lower16:.L__const.Timer_Current_Get.base
	movt	r1, :upper16:.L__const.Timer_Current_Get.base
	ldr.w	r1, [r1, r0, lsl #2]
.Ltmp70:
	@DEBUG_VALUE: Timer_Stop:timer <- $r1
	.loc	3 0 13 is_stmt 0                @ ../../../components/platform/soc/rt582/rt582_driver/Src/timer.c:0:13
	movs	r0, #0
	.loc	3 199 24 is_stmt 1              @ ../../../components/platform/soc/rt582/rt582_driver/Src/timer.c:199:24
	str	r0, [r1, #8]
	.loc	3 202 1                         @ ../../../components/platform/soc/rt582/rt582_driver/Src/timer.c:202:1
	bx	lr
.Ltmp71:
.Lfunc_end5:
	.size	Timer_Stop, .Lfunc_end5-Timer_Stop
	.cfi_endproc
	.cantunwind
	.fnend
                                        @ -- End function
	.section	.text.Timer_Close,"ax",%progbits
	.hidden	Timer_Close                     @ -- Begin function Timer_Close
	.globl	Timer_Close
	.p2align	2
	.type	Timer_Close,%function
	.code	16                              @ @Timer_Close
	.thumb_func
Timer_Close:
.Lfunc_begin6:
	.loc	3 205 0                         @ ../../../components/platform/soc/rt582/rt582_driver/Src/timer.c:205:0
	.fnstart
	.cfi_startproc
@ %bb.0:
	@DEBUG_VALUE: Timer_Close:timer_id <- $r0
	@DEBUG_VALUE: Timer_Close:timer_id <- $r0
	.loc	3 209 9 prologue_end            @ ../../../components/platform/soc/rt582/rt582_driver/Src/timer.c:209:9
	cmp	r0, #5
	bls	.LBB6_2
.Ltmp72:
@ %bb.1:
	@DEBUG_VALUE: Timer_Close:timer_id <- $r0
	.loc	3 0 9 is_stmt 0                 @ ../../../components/platform/soc/rt582/rt582_driver/Src/timer.c:0:9
	movs	r1, #1
	b	.LBB6_8
.Ltmp73:
.LBB6_2:
	@DEBUG_VALUE: Timer_Close:timer_id <- $r0
	.loc	3 214 13 is_stmt 1              @ ../../../components/platform/soc/rt582/rt582_driver/Src/timer.c:214:13
	movw	r1, :lower16:.L__const.Timer_Current_Get.base
	movt	r1, :upper16:.L__const.Timer_Current_Get.base
	ldr.w	r1, [r1, r0, lsl #2]
.Ltmp74:
	@DEBUG_VALUE: Timer_Close:timer <- $r1
	.loc	3 0 13 is_stmt 0                @ ../../../components/platform/soc/rt582/rt582_driver/Src/timer.c:0:13
	movs	r2, #0
	.loc	3 218 9 is_stmt 1               @ ../../../components/platform/soc/rt582/rt582_driver/Src/timer.c:218:9
	cmp	r0, #1
	.loc	3 215 24                        @ ../../../components/platform/soc/rt582/rt582_driver/Src/timer.c:215:24
	str	r2, [r1, #8]
	.loc	3 218 9                         @ ../../../components/platform/soc/rt582/rt582_driver/Src/timer.c:218:9
	bhi	.LBB6_4
.Ltmp75:
@ %bb.3:
	@DEBUG_VALUE: Timer_Close:timer <- $r1
	@DEBUG_VALUE: Timer_Close:timer_id <- $r0
	.loc	3 220 49                        @ ../../../components/platform/soc/rt582/rt582_driver/Src/timer.c:220:49
	adds	r1, r0, #1
.Ltmp76:
	.loc	3 0 49 is_stmt 0                @ ../../../components/platform/soc/rt582/rt582_driver/Src/timer.c:0:49
	movs	r2, #1
.Ltmp77:
	@DEBUG_VALUE: __NVIC_DisableIRQ:IRQn <- $r1
	.loc	6 1550 60 is_stmt 1             @ C:/Users\P350\AppData\Local\Arm\Packs\ARM\CMSIS\5.8.0\CMSIS\Core\Include\core_cm3.h:1550:60
	lsl.w	r1, r2, r1
.Ltmp78:
	.loc	6 0 60 is_stmt 0                @ C:/Users\P350\AppData\Local\Arm\Packs\ARM\CMSIS\5.8.0\CMSIS\Core\Include\core_cm3.h:0:60
	b	.LBB6_6
.Ltmp79:
.LBB6_4:
	@DEBUG_VALUE: Timer_Close:timer <- $r1
	@DEBUG_VALUE: Timer_Close:timer_id <- $r0
	.loc	3 222 14 is_stmt 1              @ ../../../components/platform/soc/rt582/rt582_driver/Src/timer.c:222:14
	subs	r1, r0, #2
.Ltmp80:
	cmp	r1, #2
	bhi	.LBB6_7
.Ltmp81:
@ %bb.5:
	@DEBUG_VALUE: Timer_Close:timer_id <- $r0
	adr	r2, .LCPI6_0
	ldr.w	r1, [r2, r1, lsl #2]
.Ltmp82:
.LBB6_6:
	@DEBUG_VALUE: Timer_Close:timer_id <- $r0
	.loc	3 0 14 is_stmt 0                @ ../../../components/platform/soc/rt582/rt582_driver/Src/timer.c:0:14
	movw	r2, #57728
	movt	r2, #57344
	str	r1, [r2]
	dsb	sy
	isb	sy
.Ltmp83:
.LBB6_7:
	@DEBUG_VALUE: Timer_Close:timer_id <- $r0
	.loc	3 235 25 is_stmt 1              @ ../../../components/platform/soc/rt582/rt582_driver/Src/timer.c:235:25
	movw	r12, :lower16:timer_cfg
	movt	r12, :upper16:timer_cfg
	add.w	r3, r12, r0, lsl #3
	.loc	3 237 31                        @ ../../../components/platform/soc/rt582/rt582_driver/Src/timer.c:237:31
	ldrb	r2, [r3, #5]
	movs	r1, #0
	.loc	3 235 39                        @ ../../../components/platform/soc/rt582/rt582_driver/Src/timer.c:235:39
	str.w	r1, [r12, r0, lsl #3]
	.loc	3 237 31                        @ ../../../components/platform/soc/rt582/rt582_driver/Src/timer.c:237:31
	and	r0, r2, #252
.Ltmp84:
	@DEBUG_VALUE: Timer_Close:timer_id <- [DW_OP_LLVM_entry_value 1] $r0
	strb	r0, [r3, #5]
.Ltmp85:
.LBB6_8:
	.loc	3 240 1                         @ ../../../components/platform/soc/rt582/rt582_driver/Src/timer.c:240:1
	mov	r0, r1
	bx	lr
.Ltmp86:
	.p2align	2
@ %bb.9:
	.loc	3 0 1 is_stmt 0                 @ ../../../components/platform/soc/rt582/rt582_driver/Src/timer.c:0:1
.LCPI6_0:
.Lswitch.table.Timer_Close:
	.long	268435456                       @ 0x10000000
	.long	32768                           @ 0x8000
	.long	65536                           @ 0x10000
.Lfunc_end6:
	.size	Timer_Close, .Lfunc_end6-Timer_Close
	.cfi_endproc
	.cantunwind
	.fnend
                                        @ -- End function
	.section	.text.Timer_Status_Get,"ax",%progbits
	.hidden	Timer_Status_Get                @ -- Begin function Timer_Status_Get
	.globl	Timer_Status_Get
	.p2align	1
	.type	Timer_Status_Get,%function
	.code	16                              @ @Timer_Status_Get
	.thumb_func
Timer_Status_Get:
.Lfunc_begin7:
	.loc	3 243 0 is_stmt 1               @ ../../../components/platform/soc/rt582/rt582_driver/Src/timer.c:243:0
	.fnstart
	.cfi_startproc
@ %bb.0:
	@DEBUG_VALUE: Timer_Status_Get:timer_id <- $r0
	@DEBUG_VALUE: Timer_Status_Get:timer_id <- $r0
	.loc	3 247 9 prologue_end            @ ../../../components/platform/soc/rt582/rt582_driver/Src/timer.c:247:9
	cmp	r0, #5
	itt	hi
	movhi	r0, #1
.Ltmp87:
	@DEBUG_VALUE: Timer_Status_Get:timer_id <- [DW_OP_LLVM_entry_value 1] $r0
	.loc	3 254 1                         @ ../../../components/platform/soc/rt582/rt582_driver/Src/timer.c:254:1
	bxhi	lr
.Ltmp88:
.LBB7_1:
	@DEBUG_VALUE: Timer_Status_Get:timer_id <- [DW_OP_LLVM_entry_value 1] $r0
	.loc	3 252 13                        @ ../../../components/platform/soc/rt582/rt582_driver/Src/timer.c:252:13
	movw	r1, :lower16:.L__const.Timer_Current_Get.base
	movt	r1, :upper16:.L__const.Timer_Current_Get.base
	ldr.w	r0, [r1, r0, lsl #2]
.Ltmp89:
	@DEBUG_VALUE: Timer_Status_Get:timer <- $r0
	.loc	3 253 32                        @ ../../../components/platform/soc/rt582/rt582_driver/Src/timer.c:253:32
	ldr	r0, [r0, #8]
.Ltmp90:
	ubfx	r0, r0, #8, #1
	.loc	3 254 1                         @ ../../../components/platform/soc/rt582/rt582_driver/Src/timer.c:254:1
	bx	lr
.Ltmp91:
.Lfunc_end7:
	.size	Timer_Status_Get, .Lfunc_end7-Timer_Status_Get
	.cfi_endproc
	.cantunwind
	.fnend
                                        @ -- End function
	.section	.text.Timer_Current_Get,"ax",%progbits
	.hidden	Timer_Current_Get               @ -- Begin function Timer_Current_Get
	.globl	Timer_Current_Get
	.p2align	1
	.type	Timer_Current_Get,%function
	.code	16                              @ @Timer_Current_Get
	.thumb_func
Timer_Current_Get:
.Lfunc_begin8:
	.loc	3 257 0                         @ ../../../components/platform/soc/rt582/rt582_driver/Src/timer.c:257:0
	.fnstart
	.cfi_startproc
@ %bb.0:
	@DEBUG_VALUE: Timer_Current_Get:timer_id <- $r0
	@DEBUG_VALUE: Timer_Current_Get:timer_id <- $r0
	.loc	3 261 9 prologue_end            @ ../../../components/platform/soc/rt582/rt582_driver/Src/timer.c:261:9
	cmp	r0, #5
	itt	hi
	movhi	r0, #1
.Ltmp92:
	@DEBUG_VALUE: Timer_Current_Get:timer_id <- [DW_OP_LLVM_entry_value 1] $r0
	.loc	3 269 1                         @ ../../../components/platform/soc/rt582/rt582_driver/Src/timer.c:269:1
	bxhi	lr
.Ltmp93:
.LBB8_1:
	@DEBUG_VALUE: Timer_Current_Get:timer_id <- [DW_OP_LLVM_entry_value 1] $r0
	.loc	3 266 13                        @ ../../../components/platform/soc/rt582/rt582_driver/Src/timer.c:266:13
	movw	r1, :lower16:.L__const.Timer_Current_Get.base
	movt	r1, :upper16:.L__const.Timer_Current_Get.base
	ldr.w	r0, [r1, r0, lsl #2]
.Ltmp94:
	@DEBUG_VALUE: Timer_Current_Get:timer <- $r0
	.loc	3 268 20                        @ ../../../components/platform/soc/rt582/rt582_driver/Src/timer.c:268:20
	ldr	r0, [r0, #4]
.Ltmp95:
	.loc	3 269 1                         @ ../../../components/platform/soc/rt582/rt582_driver/Src/timer.c:269:1
	bx	lr
.Ltmp96:
.Lfunc_end8:
	.size	Timer_Current_Get, .Lfunc_end8-Timer_Current_Get
	.cfi_endproc
	.cantunwind
	.fnend
                                        @ -- End function
	.section	.text.Timer0_Handler,"ax",%progbits
	.hidden	Timer0_Handler                  @ -- Begin function Timer0_Handler
	.globl	Timer0_Handler
	.p2align	1
	.type	Timer0_Handler,%function
	.code	16                              @ @Timer0_Handler
	.thumb_func
Timer0_Handler:
.Lfunc_begin9:
	.loc	3 273 0                         @ ../../../components/platform/soc/rt582/rt582_driver/Src/timer.c:273:0
	.fnstart
	.cfi_startproc
@ %bb.0:
	movs	r0, #12
	movt	r0, #41072
	movs	r1, #1
.Ltmp97:
	.loc	3 282 19 prologue_end           @ ../../../components/platform/soc/rt582/rt582_driver/Src/timer.c:282:19
	str	r1, [r0]
.Ltmp98:
	.loc	3 284 22                        @ ../../../components/platform/soc/rt582/rt582_driver/Src/timer.c:284:22
	movw	r0, :lower16:timer_cfg
	movt	r0, :upper16:timer_cfg
	ldr	r1, [r0]
.Ltmp99:
	.loc	3 284 9 is_stmt 0               @ ../../../components/platform/soc/rt582/rt582_driver/Src/timer.c:284:9
	cbz	r1, .LBB9_2
@ %bb.1:
.Ltmp100:
	.loc	3 286 9 is_stmt 1               @ ../../../components/platform/soc/rt582/rt582_driver/Src/timer.c:286:9
	movs	r0, #0
.Ltmp101:
	bx	r1
.Ltmp102:
.LBB9_2:
	.loc	3 288 5                         @ ../../../components/platform/soc/rt582/rt582_driver/Src/timer.c:288:5
	bx	lr
.Ltmp103:
.Lfunc_end9:
	.size	Timer0_Handler, .Lfunc_end9-Timer0_Handler
	.cfi_endproc
	.cantunwind
	.fnend
                                        @ -- End function
	.section	.text.Timer1_Handler,"ax",%progbits
	.hidden	Timer1_Handler                  @ -- Begin function Timer1_Handler
	.globl	Timer1_Handler
	.p2align	1
	.type	Timer1_Handler,%function
	.code	16                              @ @Timer1_Handler
	.thumb_func
Timer1_Handler:
.Lfunc_begin10:
	.loc	3 293 0                         @ ../../../components/platform/soc/rt582/rt582_driver/Src/timer.c:293:0
	.fnstart
	.cfi_startproc
@ %bb.0:
	movs	r0, #12
	movt	r0, #41088
	movs	r1, #1
.Ltmp104:
	.loc	3 294 19 prologue_end           @ ../../../components/platform/soc/rt582/rt582_driver/Src/timer.c:294:19
	str	r1, [r0]
.Ltmp105:
	.loc	3 296 22                        @ ../../../components/platform/soc/rt582/rt582_driver/Src/timer.c:296:22
	movw	r0, :lower16:timer_cfg
	movt	r0, :upper16:timer_cfg
	ldr	r1, [r0, #8]
.Ltmp106:
	.loc	3 296 9 is_stmt 0               @ ../../../components/platform/soc/rt582/rt582_driver/Src/timer.c:296:9
	cbz	r1, .LBB10_2
@ %bb.1:
.Ltmp107:
	.loc	3 298 9 is_stmt 1               @ ../../../components/platform/soc/rt582/rt582_driver/Src/timer.c:298:9
	movs	r0, #1
.Ltmp108:
	bx	r1
.Ltmp109:
.LBB10_2:
	.loc	3 300 5                         @ ../../../components/platform/soc/rt582/rt582_driver/Src/timer.c:300:5
	bx	lr
.Ltmp110:
.Lfunc_end10:
	.size	Timer1_Handler, .Lfunc_end10-Timer1_Handler
	.cfi_endproc
	.cantunwind
	.fnend
                                        @ -- End function
	.section	.text.Timer2_Handler,"ax",%progbits
	.hidden	Timer2_Handler                  @ -- Begin function Timer2_Handler
	.globl	Timer2_Handler
	.p2align	1
	.type	Timer2_Handler,%function
	.code	16                              @ @Timer2_Handler
	.thumb_func
Timer2_Handler:
.Lfunc_begin11:
	.loc	3 305 0                         @ ../../../components/platform/soc/rt582/rt582_driver/Src/timer.c:305:0
	.fnstart
	.cfi_startproc
@ %bb.0:
	movs	r0, #12
	movt	r0, #41200
	movs	r1, #1
.Ltmp111:
	.loc	3 306 19 prologue_end           @ ../../../components/platform/soc/rt582/rt582_driver/Src/timer.c:306:19
	str	r1, [r0]
.Ltmp112:
	.loc	3 308 22                        @ ../../../components/platform/soc/rt582/rt582_driver/Src/timer.c:308:22
	movw	r0, :lower16:timer_cfg
	movt	r0, :upper16:timer_cfg
	ldr	r1, [r0, #16]
.Ltmp113:
	.loc	3 308 9 is_stmt 0               @ ../../../components/platform/soc/rt582/rt582_driver/Src/timer.c:308:9
	cbz	r1, .LBB11_2
@ %bb.1:
.Ltmp114:
	.loc	3 310 9 is_stmt 1               @ ../../../components/platform/soc/rt582/rt582_driver/Src/timer.c:310:9
	movs	r0, #2
.Ltmp115:
	bx	r1
.Ltmp116:
.LBB11_2:
	.loc	3 312 5                         @ ../../../components/platform/soc/rt582/rt582_driver/Src/timer.c:312:5
	bx	lr
.Ltmp117:
.Lfunc_end11:
	.size	Timer2_Handler, .Lfunc_end11-Timer2_Handler
	.cfi_endproc
	.cantunwind
	.fnend
                                        @ -- End function
	.section	.text.Timer3_Handler,"ax",%progbits
	.hidden	Timer3_Handler                  @ -- Begin function Timer3_Handler
	.globl	Timer3_Handler
	.p2align	1
	.type	Timer3_Handler,%function
	.code	16                              @ @Timer3_Handler
	.thumb_func
Timer3_Handler:
.Lfunc_begin12:
	.loc	3 319 0                         @ ../../../components/platform/soc/rt582/rt582_driver/Src/timer.c:319:0
	.fnstart
	.cfi_startproc
@ %bb.0:
	movs	r0, #12
	movt	r0, #41204
	movs	r1, #1
.Ltmp118:
	.loc	3 320 19 prologue_end           @ ../../../components/platform/soc/rt582/rt582_driver/Src/timer.c:320:19
	str	r1, [r0]
.Ltmp119:
	.loc	3 322 22                        @ ../../../components/platform/soc/rt582/rt582_driver/Src/timer.c:322:22
	movw	r0, :lower16:timer_cfg
	movt	r0, :upper16:timer_cfg
	ldr	r1, [r0, #24]
.Ltmp120:
	.loc	3 322 9 is_stmt 0               @ ../../../components/platform/soc/rt582/rt582_driver/Src/timer.c:322:9
	cbz	r1, .LBB12_2
@ %bb.1:
.Ltmp121:
	.loc	3 324 9 is_stmt 1               @ ../../../components/platform/soc/rt582/rt582_driver/Src/timer.c:324:9
	movs	r0, #3
.Ltmp122:
	bx	r1
.Ltmp123:
.LBB12_2:
	.loc	3 326 5                         @ ../../../components/platform/soc/rt582/rt582_driver/Src/timer.c:326:5
	bx	lr
.Ltmp124:
.Lfunc_end12:
	.size	Timer3_Handler, .Lfunc_end12-Timer3_Handler
	.cfi_endproc
	.cantunwind
	.fnend
                                        @ -- End function
	.section	.text.Timer4_Handler,"ax",%progbits
	.hidden	Timer4_Handler                  @ -- Begin function Timer4_Handler
	.globl	Timer4_Handler
	.p2align	1
	.type	Timer4_Handler,%function
	.code	16                              @ @Timer4_Handler
	.thumb_func
Timer4_Handler:
.Lfunc_begin13:
	.loc	3 331 0                         @ ../../../components/platform/soc/rt582/rt582_driver/Src/timer.c:331:0
	.fnstart
	.cfi_startproc
@ %bb.0:
	movs	r0, #12
	movt	r0, #41208
	movs	r1, #1
.Ltmp125:
	.loc	3 332 19 prologue_end           @ ../../../components/platform/soc/rt582/rt582_driver/Src/timer.c:332:19
	str	r1, [r0]
.Ltmp126:
	.loc	3 334 22                        @ ../../../components/platform/soc/rt582/rt582_driver/Src/timer.c:334:22
	movw	r0, :lower16:timer_cfg
	movt	r0, :upper16:timer_cfg
	ldr	r1, [r0, #32]
.Ltmp127:
	.loc	3 334 9 is_stmt 0               @ ../../../components/platform/soc/rt582/rt582_driver/Src/timer.c:334:9
	cbz	r1, .LBB13_2
@ %bb.1:
.Ltmp128:
	.loc	3 336 9 is_stmt 1               @ ../../../components/platform/soc/rt582/rt582_driver/Src/timer.c:336:9
	movs	r0, #4
.Ltmp129:
	bx	r1
.Ltmp130:
.LBB13_2:
	.loc	3 338 5                         @ ../../../components/platform/soc/rt582/rt582_driver/Src/timer.c:338:5
	bx	lr
.Ltmp131:
.Lfunc_end13:
	.size	Timer4_Handler, .Lfunc_end13-Timer4_Handler
	.cfi_endproc
	.cantunwind
	.fnend
                                        @ -- End function
	.type	timer_cfg,%object               @ @timer_cfg
	.section	.bss.timer_cfg,"aw",%nobits
	.p2align	2
timer_cfg:
	.zero	40
	.size	timer_cfg, 40

	.type	.L__const.Timer_Current_Get.base,%object @ @__const.Timer_Current_Get.base
	.section	.rodata..L__const.Timer_Current_Get.base,"a",%progbits
	.p2align	2
.L__const.Timer_Current_Get.base:
	.long	2691694592
	.long	2692743168
	.long	2700083200
	.long	2700345344
	.long	2700607488
	.size	.L__const.Timer_Current_Get.base, 20

	.section	".note.GNU-stack","",%progbits
	.eabi_attribute	30, 3	@ Tag_ABI_optimization_goals
	.ARM_attribute	16, 1	@ Tag_AV_eba