	.text
	.syntax unified
	.eabi_attribute	67, "2.09"	@ Tag_conformance
	.cpu	cortex-m3
	.eabi_attribute	6, 10	@ Tag_CPU_arch
	.eabi_attribute	7, 77	@ Tag_CPU_arch_profile
	.eabi_attribute	8, 0	@ Tag_ARM_ISA_use
	.eabi_attribute	9, 2	@ Tag_THUMB_ISA_use
	.eabi_attribute	34, 1	@ Tag_CPU_unaligned_access
	.eabi_attribute	17, 1	@ Tag_ABI_PCS_GOT_use
	.eabi_attribute	20, 2	@ Tag_ABI_FP_denormal
	.eabi_attribute	21, 0	@ Tag_ABI_FP_exceptions
	.eabi_attribute	23, 1	@ Tag_ABI_FP_number_model
	.eabi_attribute	24, 1	@ Tag_ABI_align_needed
	.eabi_attribute	25, 1	@ Tag_ABI_align_preserved
	.eabi_attribute	38, 1	@ Tag_ABI_FP_16bit_format
	.eabi_attribute	18, 4	@ Tag_ABI_PCS_wchar_t
	.eabi_attribute	26, 2	@ Tag_ABI_enum_size
	.eabi_attribute	14, 0	@ Tag_ABI_PCS_R9_use
	.file	"tlvs.cpp"
	.file	1 "C:\\Users\\testo\\Desktop\\rafael-iot-sdk-das -0515\\examples\\das_subg_thread\\keil" "../../../components/network/thread/subg_openthread/include\\openthread/error.h"
	.file	2 "C:\\Users\\testo\\Desktop\\rafael-iot-sdk-das -0515\\examples\\das_subg_thread\\keil" "../../../components/network/thread/subg_openthread/src/core\\common/error.hpp"
	.file	3 "C:\\Users\\testo\\Desktop\\rafael-iot-sdk-das -0515\\examples\\das_subg_thread\\keil" "../../../components/network/thread/subg_openthread/src/core\\common/message.hpp"
	.file	4 "C:\\Users\\testo\\Desktop\\rafael-iot-sdk-das -0515\\examples\\das_subg_thread\\keil" "../../../components/network/thread/subg_openthread/include\\openthread/message.h"
	.file	5 "C:\\Users\\testo\\Desktop\\rafael-iot-sdk-das -0515\\examples\\das_subg_thread\\keil" "../../../components/network/thread/subg_openthread/include\\openthread/platform/messagepool.h"
	.file	6 "C:\\Users\\testo\\Desktop\\rafael-iot-sdk-das -0515\\examples\\das_subg_thread\\keil" "../../../components/network/thread/subg_openthread/src/core\\common/linked_list.hpp"
	.file	7 "C:\\" "Keil_v5\\ARM\\ARMCLANG\\Bin\\..\\include\\stdint.h"
	.file	8 "C:\\Users\\testo\\Desktop\\rafael-iot-sdk-das -0515\\examples\\das_subg_thread\\keil" "../../../components/network/thread/subg_openthread/src/core\\common/locator.hpp"
	.file	9 "C:\\Users\\testo\\Desktop\\rafael-iot-sdk-das -0515\\examples\\das_subg_thread\\keil" "../../../components/network/thread/subg_openthread/src/core\\common/non_copyable.hpp"
	.file	10 "C:\\Users\\testo\\Desktop\\rafael-iot-sdk-das -0515\\examples\\das_subg_thread\\keil" "../../../components/network/thread/subg_openthread/src/core\\common/pool.hpp"
	.file	11 "C:\\Users\\testo\\Desktop\\rafael-iot-sdk-das -0515\\examples\\das_subg_thread\\keil" "../../../components/network/thread/subg_openthread/src/core\\common/equatable.hpp"
	.file	12 "C:\\Users\\testo\\Desktop\\rafael-iot-sdk-das -0515\\examples\\das_subg_thread\\keil" "../../../components/network/thread/subg_openthread/src/core\\common/time.hpp"
	.file	13 "C:\\Users\\testo\\Desktop\\rafael-iot-sdk-das -0515\\examples\\das_subg_thread\\keil" "../../../components/network/thread/subg_openthread/src/core\\common/clearable.hpp"
	.file	14 "C:\\Users\\testo\\Desktop\\rafael-iot-sdk-das -0515\\examples\\das_subg_thread\\keil" "../../../components/network/thread/subg_openthread/src/core\\thread/link_quality.hpp"
	.file	15 "C:\\Users\\testo\\Desktop\\rafael-iot-sdk-das -0515\\examples\\das_subg_thread\\keil" "../../../components/network/thread/subg_openthread/src/core\\common/bit_vector.hpp"
	.file	16 "C:\\Users\\testo\\Desktop\\rafael-iot-sdk-das -0515\\examples\\das_subg_thread\\keil" "../../../components/network/thread/subg_openthread/src/core\\thread/child_mask.hpp"
	.file	17 "C:\\Users\\testo\\Desktop\\rafael-iot-sdk-das -0515\\examples\\das_subg_thread\\keil" "../../../components/network/thread/subg_openthread/src/core\\common/data.hpp"
	.file	18 "C:\\Users\\testo\\Desktop\\rafael-iot-sdk-das -0515\\examples\\das_subg_thread\\keil" "../../../components/network/thread/subg_openthread/src/core\\common/iterator_utils.hpp"
	.file	19 "C:\\Users\\testo\\Desktop\\rafael-iot-sdk-das -0515\\examples\\das_subg_thread\\keil" "../../../components/network/thread/subg_openthread/src/core\\common/type_traits.hpp"
	.file	20 "C:\\Users\\testo\\Desktop\\rafael-iot-sdk-das -0515\\examples\\das_subg_thread\\keil" "../../../components/network/thread/subg_openthread/src/core/common/tlvs.hpp"
	.file	21 "C:\\" "Keil_v5\\ARM\\ARMCLANG\\Bin\\..\\include\\stdlib.h"
	.file	22 "C:\\" "Keil_v5\\ARM\\ARMCLANG\\Bin\\..\\include\\stdarg.h"
	.file	23 "C:\\" "Keil_v5\\ARM\\ARMCLANG\\Bin\\..\\include\\ctype.h"
	.file	24 "C:\\" "Keil_v5\\ARM\\ARMCLANG\\Bin\\..\\include\\stdio.h"
	.file	25 "C:\\" "Keil_v5\\ARM\\ARMCLANG\\Bin\\..\\include\\string.h"
	.file	26 "C:\\" "Keil_v5\\ARM\\ARMCLANG\\Bin\\..\\include\\stddef.h"
	.file	27 "C:\\" "Keil_v5\\ARM\\ARMCLANG\\Bin\\..\\include\\libcxx\\__nullptr"
	.file	28 "C:\\" "Keil_v5\\ARM\\ARMCLANG\\Bin\\..\\include\\libcxx\\stddef.h"
	.file	29 "C:\\Users\\testo\\Desktop\\rafael-iot-sdk-das -0515\\examples\\das_subg_thread\\keil" "../../../components/network/thread/subg_openthread/src/core\\net/ip6_address.hpp"
	.section	.text._ZN2ot3Tlv11ReadUintTlvIhEE7otErrorRKNS_7MessageEtRT_,"axG",%progbits,_ZN2ot3Tlv11ReadUintTlvIhEE7otErrorRKNS_7MessageEtRT_,comdat
	.hidden	_ZN2ot3Tlv11ReadUintTlvIhEE7otErrorRKNS_7MessageEtRT_ @ -- Begin function _ZN2ot3Tlv11ReadUintTlvIhEE7otErrorRKNS_7MessageEtRT_
	.weak	_ZN2ot3Tlv11ReadUintTlvIhEE7otErrorRKNS_7MessageEtRT_
	.p2align	1
	.type	_ZN2ot3Tlv11ReadUintTlvIhEE7otErrorRKNS_7MessageEtRT_,%function
	.code	16                              @ @_ZN2ot3Tlv11ReadUintTlvIhEE7otErrorRKNS_7MessageEtRT_
	.thumb_func
_ZN2ot3Tlv11ReadUintTlvIhEE7otErrorRKNS_7MessageEtRT_:
.Lfunc_begin0:
	.file	30 "C:\\Users\\testo\\Desktop\\rafael-iot-sdk-das -0515\\examples\\das_subg_thread\\keil" "../../../components/network/thread/subg_openthread/src/core/common/tlvs.cpp"
	.loc	30 203 0                        @ ../../../components/network/thread/subg_openthread/src/core/common/tlvs.cpp:203:0
	.fnstart
	.cfi_sections .debug_frame
	.cfi_startproc
@ %bb.0:
	@DEBUG_VALUE: ReadUintTlv<unsigned char>:aMessage <- $r0
	@DEBUG_VALUE: ReadUintTlv<unsigned char>:aMessage <- $r0
	@DEBUG_VALUE: ReadUintTlv<unsigned char>:aMessage <- $r0
	@DEBUG_VALUE: ReadUintTlv<unsigned char>:aOffset <- $r1
	@DEBUG_VALUE: ReadUintTlv<unsigned char>:aOffset <- $r1
	@DEBUG_VALUE: ReadUintTlv<unsigned char>:aOffset <- $r1
	@DEBUG_VALUE: ReadUintTlv<unsigned char>:aValue <- $r2
	@DEBUG_VALUE: ReadUintTlv<unsigned char>:aValue <- $r2
	@DEBUG_VALUE: ReadUintTlv<unsigned char>:aValue <- $r2
	.loc	30 206 5 prologue_end           @ ../../../components/network/thread/subg_openthread/src/core/common/tlvs.cpp:206:5
	movs	r3, #1
.Ltmp0:
	b	_ZN2ot3Tlv12ReadTlvValueERKNS_7MessageEtPvh
.Ltmp1:
.Lfunc_end0:
	.size	_ZN2ot3Tlv11ReadUintTlvIhEE7otErrorRKNS_7MessageEtRT_, .Lfunc_end0-_ZN2ot3Tlv11ReadUintTlvIhEE7otErrorRKNS_7MessageEtRT_
	.cfi_endproc
	.cantunwind
	.fnend
                                        @ -- End function
	.section	.text._ZN2ot3Tlv12ReadTlvValueERKNS_7MessageEtPvh,"ax",%progbits
	.hidden	_ZN2ot3Tlv12ReadTlvValueERKNS_7MessageEtPvh @ -- Begin function _ZN2ot3Tlv12ReadTlvValueERKNS_7MessageEtPvh
	.globl	_ZN2ot3Tlv12ReadTlvValueERKNS_7MessageEtPvh
	.p2align	1
	.type	_ZN2ot3Tlv12ReadTlvValueERKNS_7MessageEtPvh,%function
	.code	16                              @ @_ZN2ot3Tlv12ReadTlvValueERKNS_7MessageEtPvh
	.thumb_func
_ZN2ot3Tlv12ReadTlvValueERKNS_7MessageEtPvh:
.Lfunc_begin1:
	.loc	30 219 0                        @ ../../../components/network/thread/subg_openthread/src/core/common/tlvs.cpp:219:0
	.fnstart
	.cfi_startproc
@ %bb.0:
	@DEBUG_VALUE: ReadTlvValue:aMessage <- $r0
	@DEBUG_VALUE: ReadTlvValue:aOffset <- $r1
	@DEBUG_VALUE: ReadTlvValue:aValue <- $r2
	@DEBUG_VALUE: ReadTlvValue:aMinLength <- $r3
	.save	{r4, r5, r6, lr}
	push	{r4, r5, r6, lr}
	.cfi_def_cfa_offset 16
	.cfi_offset lr, -4
	.cfi_offset r6, -8
	.cfi_offset r5, -12
	.cfi_offset r4, -16
	.pad	#16
	sub	sp, #16
	.cfi_def_cfa_offset 32
	mov	r6, r0
.Ltmp2:
	@DEBUG_VALUE: ReadTlvValue:aMessage <- $r6
	@DEBUG_VALUE: ReadTlvValue:aMinLength <- $r4
	@DEBUG_VALUE: ReadTlvValue:aValue <- $r5
	@DEBUG_VALUE: ReadTlvValue:aOffset <- $r2
	@DEBUG_VALUE: ReadTlvValue:aMessage <- $r6
	mov	r5, r2
.Ltmp3:
	@DEBUG_VALUE: ReadTlvValue:aOffset <- $r5
	mov	r2, r1
	add	r0, sp, #4
.Ltmp4:
	.loc	30 223 5 prologue_end           @ ../../../components/network/thread/subg_openthread/src/core/common/tlvs.cpp:223:5
	mov	r1, r6
.Ltmp5:
	@DEBUG_VALUE: ReadTlvValue:aOffset <- $r2
	.loc	30 0 5 is_stmt 0                @ ../../../components/network/thread/subg_openthread/src/core/common/tlvs.cpp:0:5
	mov	r4, r3
.Ltmp6:
	.loc	30 223 5                        @ ../../../components/network/thread/subg_openthread/src/core/common/tlvs.cpp:223:5
	bl	_ZN2ot3Tlv10ParsedInfo9ParseFromERKNS_7MessageEt
.Ltmp7:
	@DEBUG_VALUE: ReadTlvValue:error <- $r0
	.loc	30 223 5                        @ ../../../components/network/thread/subg_openthread/src/core/common/tlvs.cpp:223:5
	cbnz	r0, .LBB1_4
.Ltmp8:
@ %bb.1:
	@DEBUG_VALUE: ReadTlvValue:aMessage <- $r6
	@DEBUG_VALUE: ReadTlvValue:error <- $r0
	@DEBUG_VALUE: ReadTlvValue:aMinLength <- $r4
	.loc	30 225 5 is_stmt 1              @ ../../../components/network/thread/subg_openthread/src/core/common/tlvs.cpp:225:5
	ldrh.w	r0, [sp, #6]
.Ltmp9:
	.loc	30 225 5 is_stmt 0              @ ../../../components/network/thread/subg_openthread/src/core/common/tlvs.cpp:225:5
	cmp	r0, r4
	bhs	.LBB1_3
.Ltmp10:
@ %bb.2:
	@DEBUG_VALUE: ReadTlvValue:aMessage <- $r6
	@DEBUG_VALUE: ReadTlvValue:aMinLength <- $r4
	.loc	30 0 5                          @ ../../../components/network/thread/subg_openthread/src/core/common/tlvs.cpp:0:5
	movs	r0, #6
	b	.LBB1_4
.Ltmp11:
.LBB1_3:
	@DEBUG_VALUE: ReadTlvValue:aMessage <- $r6
	@DEBUG_VALUE: ReadTlvValue:aMinLength <- $r4
	@DEBUG_VALUE: ReadTlvValue:aMinLength <- $r4
	.loc	30 227 29 is_stmt 1             @ ../../../components/network/thread/subg_openthread/src/core/common/tlvs.cpp:227:29
	ldrh.w	r1, [sp, #10]
	.loc	30 227 14 is_stmt 0             @ ../../../components/network/thread/subg_openthread/src/core/common/tlvs.cpp:227:14
	mov	r0, r6
	mov	r2, r5
	mov	r3, r4
	bl	_ZNK2ot7Message9ReadBytesEtPvt
.Ltmp12:
	.loc	30 0 14                         @ ../../../components/network/thread/subg_openthread/src/core/common/tlvs.cpp:0:14
	movs	r0, #0
.Ltmp13:
.LBB1_4:
	@DEBUG_VALUE: ReadTlvValue:aMessage <- $r6
	@DEBUG_VALUE: ReadTlvValue:error <- $r0
	@DEBUG_LABEL: ReadTlvValue:exit
	.loc	30 230 5 is_stmt 1              @ ../../../components/network/thread/subg_openthread/src/core/common/tlvs.cpp:230:5
	add	sp, #16
	pop	{r4, r5, r6, pc}
.Ltmp14:
.Lfunc_end1:
	.size	_ZN2ot3Tlv12ReadTlvValueERKNS_7MessageEtPvh, .Lfunc_end1-_ZN2ot3Tlv12ReadTlvValueERKNS_7MessageEtPvh
	.cfi_endproc
	.cantunwind
	.fnend
                                        @ -- End function
	.section	.text._ZN2ot3Tlv11ReadUintTlvItEE7otErrorRKNS_7MessageEtRT_,"axG",%progbits,_ZN2ot3Tlv11ReadUintTlvItEE7otErrorRKNS_7MessageEtRT_,comdat
	.hidden	_ZN2ot3Tlv11ReadUintTlvItEE7otErrorRKNS_7MessageEtRT_ @ -- Begin function _ZN2ot3Tlv11ReadUintTlvItEE7otErrorRKNS_7MessageEtRT_
	.weak	_ZN2ot3Tlv11ReadUintTlvItEE7otErrorRKNS_7MessageEtRT_
	.p2align	1
	.type	_ZN2ot3Tlv11ReadUintTlvItEE7otErrorRKNS_7MessageEtRT_,%function
	.code	16                              @ @_ZN2ot3Tlv11ReadUintTlvItEE7otErrorRKNS_7MessageEtRT_
	.thumb_func
_ZN2ot3Tlv11ReadUintTlvItEE7otErrorRKNS_7MessageEtRT_:
.Lfunc_begin2:
	.loc	30 203 0                        @ ../../../components/network/thread/subg_openthread/src/core/common/tlvs.cpp:203:0
	.fnstart
	.cfi_startproc
@ %bb.0:
	@DEBUG_VALUE: ReadUintTlv<unsigned short>:aMessage <- $r0
	@DEBUG_VALUE: ReadUintTlv<unsigned short>:aOffset <- $r1
	@DEBUG_VALUE: ReadUintTlv<unsigned short>:aValue <- $r2
	.save	{r4, lr}
	push	{r4, lr}
	.cfi_def_cfa_offset 8
	.cfi_offset lr, -4
	.cfi_offset r4, -8
.Ltmp15:
	.loc	30 206 5 prologue_end           @ ../../../components/network/thread/subg_openthread/src/core/common/tlvs.cpp:206:5
	movs	r3, #2
	mov	r4, r2
.Ltmp16:
	@DEBUG_VALUE: ReadUintTlv<unsigned short>:aValue <- $r4
	@DEBUG_VALUE: ReadUintTlv<unsigned short>:aOffset <- $r1
	@DEBUG_VALUE: ReadUintTlv<unsigned short>:aMessage <- $r0
	@DEBUG_VALUE: ReadUintTlv<unsigned short>:aOffset <- $r1
	@DEBUG_VALUE: ReadUintTlv<unsigned short>:aMessage <- $r0
	bl	_ZN2ot3Tlv12ReadTlvValueERKNS_7MessageEtPvh
.Ltmp17:
	@DEBUG_VALUE: ReadUintTlv<unsigned short>:aOffset <- [DW_OP_LLVM_entry_value 1] $r1
	@DEBUG_VALUE: ReadUintTlv<unsigned short>:aMessage <- [DW_OP_LLVM_entry_value 1] $r0
	@DEBUG_VALUE: ReadUintTlv<unsigned short>:error <- $r0
	.loc	30 206 5 is_stmt 0              @ ../../../components/network/thread/subg_openthread/src/core/common/tlvs.cpp:206:5
	cbz	r0, .LBB2_2
.Ltmp18:
@ %bb.1:
	@DEBUG_VALUE: ReadUintTlv<unsigned short>:aValue <- $r4
	@DEBUG_VALUE: ReadUintTlv<unsigned short>:error <- $r0
	@DEBUG_VALUE: ReadUintTlv<unsigned short>:aOffset <- [DW_OP_LLVM_entry_value 1] $r1
	@DEBUG_VALUE: ReadUintTlv<unsigned short>:aMessage <- [DW_OP_LLVM_entry_value 1] $r0
	@DEBUG_LABEL: ReadUintTlv<unsigned short>:exit
	.loc	30 210 5 is_stmt 1              @ ../../../components/network/thread/subg_openthread/src/core/common/tlvs.cpp:210:5
	pop	{r4, pc}
.Ltmp19:
.LBB2_2:
	@DEBUG_VALUE: ReadUintTlv<unsigned short>:aValue <- $r4
	@DEBUG_VALUE: ReadUintTlv<unsigned short>:error <- $r0
	@DEBUG_VALUE: ReadUintTlv<unsigned short>:aOffset <- [DW_OP_LLVM_entry_value 1] $r1
	@DEBUG_VALUE: ReadUintTlv<unsigned short>:aMessage <- [DW_OP_LLVM_entry_value 1] $r0
	.loc	30 207 54                       @ ../../../components/network/thread/subg_openthread/src/core/common/tlvs.cpp:207:54
	ldrh	r1, [r4]
	rev	r1, r1
	lsrs	r1, r1, #16
	.loc	30 207 12 is_stmt 0             @ ../../../components/network/thread/subg_openthread/src/core/common/tlvs.cpp:207:12
	strh	r1, [r4]
.Ltmp20:
	@DEBUG_LABEL: ReadUintTlv<unsigned short>:exit
	.loc	30 210 5 is_stmt 1              @ ../../../components/network/thread/subg_openthread/src/core/common/tlvs.cpp:210:5
	pop	{r4, pc}
.Ltmp21:
.Lfunc_end2:
	.size	_ZN2ot3Tlv11ReadUintTlvItEE7otErrorRKNS_7MessageEtRT_, .Lfunc_end2-_ZN2ot3Tlv11ReadUintTlvItEE7otErrorRKNS_7MessageEtRT_
	.cfi_endproc
	.cantunwind
	.fnend
                                        @ -- End function
	.section	.text._ZN2ot3Tlv11ReadUintTlvIjEE7otErrorRKNS_7MessageEtRT_,"axG",%progbits,_ZN2ot3Tlv11ReadUintTlvIjEE7otErrorRKNS_7MessageEtRT_,comdat
	.hidden	_ZN2ot3Tlv11ReadUintTlvIjEE7otErrorRKNS_7MessageEtRT_ @ -- Begin function _ZN2ot3Tlv11ReadUintTlvIjEE7otErrorRKNS_7MessageEtRT_
	.weak	_ZN2ot3Tlv11ReadUintTlvIjEE7otErrorRKNS_7MessageEtRT_
	.p2align	1
	.type	_ZN2ot3Tlv11ReadUintTlvIjEE7otErrorRKNS_7MessageEtRT_,%function
	.code	16                              @ @_ZN2ot3Tlv11ReadUintTlvIjEE7otErrorRKNS_7MessageEtRT_
	.thumb_func
_ZN2ot3Tlv11ReadUintTlvIjEE7otErrorRKNS_7MessageEtRT_:
.Lfunc_begin3:
	.loc	30 203 0                        @ ../../../components/network/thread/subg_openthread/src/core/common/tlvs.cpp:203:0
	.fnstart
	.cfi_startproc
@ %bb.0:
	@DEBUG_VALUE: ReadUintTlv<unsigned int>:aMessage <- $r0
	@DEBUG_VALUE: ReadUintTlv<unsigned int>:aOffset <- $r1
	@DEBUG_VALUE: ReadUintTlv<unsigned int>:aValue <- $r2
	.save	{r4, lr}
	push	{r4, lr}
	.cfi_def_cfa_offset 8
	.cfi_offset lr, -4
	.cfi_offset r4, -8
.Ltmp22:
	.loc	30 206 5 prologue_end           @ ../../../components/network/thread/subg_openthread/src/core/common/tlvs.cpp:206:5
	movs	r3, #4
	mov	r4, r2
.Ltmp23:
	@DEBUG_VALUE: ReadUintTlv<unsigned int>:aValue <- $r4
	@DEBUG_VALUE: ReadUintTlv<unsigned int>:aOffset <- $r1
	@DEBUG_VALUE: ReadUintTlv<unsigned int>:aMessage <- $r0
	@DEBUG_VALUE: ReadUintTlv<unsigned int>:aOffset <- $r1
	@DEBUG_VALUE: ReadUintTlv<unsigned int>:aMessage <- $r0
	bl	_ZN2ot3Tlv12ReadTlvValueERKNS_7MessageEtPvh
.Ltmp24:
	@DEBUG_VALUE: ReadUintTlv<unsigned int>:aOffset <- [DW_OP_LLVM_entry_value 1] $r1
	@DEBUG_VALUE: ReadUintTlv<unsigned int>:aMessage <- [DW_OP_LLVM_entry_value 1] $r0
	@DEBUG_VALUE: ReadUintTlv<unsigned int>:error <- $r0
	.loc	30 206 5 is_stmt 0              @ ../../../components/network/thread/subg_openthread/src/core/common/tlvs.cpp:206:5
	cbz	r0, .LBB3_2
.Ltmp25:
@ %bb.1:
	@DEBUG_VALUE: ReadUintTlv<unsigned int>:aValue <- $r4
	@DEBUG_VALUE: ReadUintTlv<unsigned int>:error <- $r0
	@DEBUG_VALUE: ReadUintTlv<unsigned int>:aOffset <- [DW_OP_LLVM_entry_value 1] $r1
	@DEBUG_VALUE: ReadUintTlv<unsigned int>:aMessage <- [DW_OP_LLVM_entry_value 1] $r0
	@DEBUG_LABEL: ReadUintTlv<unsigned int>:exit
	.loc	30 210 5 is_stmt 1              @ ../../../components/network/thread/subg_openthread/src/core/common/tlvs.cpp:210:5
	pop	{r4, pc}
.Ltmp26:
.LBB3_2:
	@DEBUG_VALUE: ReadUintTlv<unsigned int>:aValue <- $r4
	@DEBUG_VALUE: ReadUintTlv<unsigned int>:error <- $r0
	@DEBUG_VALUE: ReadUintTlv<unsigned int>:aOffset <- [DW_OP_LLVM_entry_value 1] $r1
	@DEBUG_VALUE: ReadUintTlv<unsigned int>:aMessage <- [DW_OP_LLVM_entry_value 1] $r0
	.loc	30 207 54                       @ ../../../components/network/thread/subg_openthread/src/core/common/tlvs.cpp:207:54
	ldr	r1, [r4]
.Ltmp27:
	@DEBUG_VALUE: Swap32:v <- $r1
	@DEBUG_VALUE: HostSwap32:v <- $r1
	@DEBUG_VALUE: HostSwap<unsigned int>:aValue <- $r1
	.file	31 "C:\\Users\\testo\\Desktop\\rafael-iot-sdk-das -0515\\examples\\das_subg_thread\\keil" "../../../components/network/thread/subg_openthread/src/core\\common/encoding.hpp"
	.loc	31 59 61                        @ ../../../components/network/thread/subg_openthread/src/core\common/encoding.hpp:59:61
	rev	r1, r1
.Ltmp28:
	.loc	30 207 12                       @ ../../../components/network/thread/subg_openthread/src/core/common/tlvs.cpp:207:12
	str	r1, [r4]
.Ltmp29:
	@DEBUG_LABEL: ReadUintTlv<unsigned int>:exit
	.loc	30 210 5                        @ ../../../components/network/thread/subg_openthread/src/core/common/tlvs.cpp:210:5
	pop	{r4, pc}
.Ltmp30:
.Lfunc_end3:
	.size	_ZN2ot3Tlv11ReadUintTlvIjEE7otErrorRKNS_7MessageEtRT_, .Lfunc_end3-_ZN2ot3Tlv11ReadUintTlvIjEE7otErrorRKNS_7MessageEtRT_
	.cfi_endproc
	.cantunwind
	.fnend
                                        @ -- End function
	.section	.text._ZN2ot3Tlv11FindUintTlvIhEE7otErrorRKNS_7MessageEhRT_,"axG",%progbits,_ZN2ot3Tlv11FindUintTlvIhEE7otErrorRKNS_7MessageEhRT_,comdat
	.hidden	_ZN2ot3Tlv11FindUintTlvIhEE7otErrorRKNS_7MessageEhRT_ @ -- Begin function _ZN2ot3Tlv11FindUintTlvIhEE7otErrorRKNS_7MessageEhRT_
	.weak	_ZN2ot3Tlv11FindUintTlvIhEE7otErrorRKNS_7MessageEhRT_
	.p2align	1
	.type	_ZN2ot3Tlv11FindUintTlvIhEE7otErrorRKNS_7MessageEhRT_,%function
	.code	16                              @ @_ZN2ot3Tlv11FindUintTlvIhEE7otErrorRKNS_7MessageEhRT_
	.thumb_func
_ZN2ot3Tlv11FindUintTlvIhEE7otErrorRKNS_7MessageEhRT_:
.Lfunc_begin4:
	.loc	30 246 0                        @ ../../../components/network/thread/subg_openthread/src/core/common/tlvs.cpp:246:0
	.fnstart
	.cfi_startproc
@ %bb.0:
	@DEBUG_VALUE: FindUintTlv<unsigned char>:aMessage <- $r0
	@DEBUG_VALUE: FindUintTlv<unsigned char>:aType <- $r1
	@DEBUG_VALUE: FindUintTlv<unsigned char>:aValue <- $r2
	.save	{r4, r5, r7, lr}
	push	{r4, r5, r7, lr}
	.cfi_def_cfa_offset 16
	.cfi_offset lr, -4
	.cfi_offset r7, -8
	.cfi_offset r5, -12
	.cfi_offset r4, -16
	.pad	#16
	sub	sp, #16
	.cfi_def_cfa_offset 32
	mov	r5, r0
.Ltmp31:
	@DEBUG_VALUE: FindUintTlv<unsigned char>:aMessage <- $r5
	@DEBUG_VALUE: FindTlvOffset:aOffset <- undef
	@DEBUG_VALUE: FindTlvOffset:aType <- undef
	@DEBUG_VALUE: FindTlvOffset:aMessage <- $r5
	@DEBUG_VALUE: FindUintTlv<unsigned char>:error <- 0
	@DEBUG_VALUE: FindUintTlv<unsigned char>:aValue <- $r4
	@DEBUG_VALUE: FindUintTlv<unsigned char>:aType <- $r2
	@DEBUG_VALUE: FindUintTlv<unsigned char>:aMessage <- $r5
	mov	r4, r2
.Ltmp32:
	@DEBUG_VALUE: FindUintTlv<unsigned char>:aType <- $r4
	mov	r2, r1
	add	r0, sp, #4
.Ltmp33:
	.loc	30 82 5 prologue_end            @ ../../../components/network/thread/subg_openthread/src/core/common/tlvs.cpp:82:5
	mov	r1, r5
.Ltmp34:
	@DEBUG_VALUE: FindUintTlv<unsigned char>:aType <- $r2
	bl	_ZN2ot3Tlv10ParsedInfo6FindInERKNS_7MessageEh
.Ltmp35:
	@DEBUG_VALUE: FindTlvOffset:error <- $r0
	.loc	30 82 5 is_stmt 0               @ ../../../components/network/thread/subg_openthread/src/core/common/tlvs.cpp:82:5
	cbz	r0, .LBB4_2
.Ltmp36:
@ %bb.1:
	@DEBUG_VALUE: FindUintTlv<unsigned char>:aMessage <- $r5
	@DEBUG_VALUE: FindUintTlv<unsigned char>:error <- 0
	@DEBUG_VALUE: FindUintTlv<unsigned char>:error <- $r0
	@DEBUG_LABEL: FindTlvOffset:exit
	@DEBUG_LABEL: FindUintTlv<unsigned char>:exit
	.loc	30 254 5 is_stmt 1              @ ../../../components/network/thread/subg_openthread/src/core/common/tlvs.cpp:254:5
	add	sp, #16
	pop	{r4, r5, r7, pc}
.Ltmp37:
.LBB4_2:
	@DEBUG_VALUE: FindTlvOffset:aMessage <- $r5
	@DEBUG_VALUE: FindUintTlv<unsigned char>:aMessage <- $r5
	@DEBUG_VALUE: FindTlvOffset:error <- $r0
	@DEBUG_VALUE: FindUintTlv<unsigned char>:error <- 0
	.loc	30 83 20                        @ ../../../components/network/thread/subg_openthread/src/core/common/tlvs.cpp:83:20
	ldrh.w	r1, [sp, #8]
.Ltmp38:
	@DEBUG_LABEL: FindTlvOffset:exit
	@DEBUG_VALUE: ReadUintTlv<unsigned char>:aValue <- $r4
	@DEBUG_VALUE: ReadUintTlv<unsigned char>:aOffset <- undef
	@DEBUG_VALUE: ReadUintTlv<unsigned char>:aMessage <- $r5
	@DEBUG_VALUE: FindUintTlv<unsigned char>:offset <- undef
	@DEBUG_VALUE: FindUintTlv<unsigned char>:error <- undef
	.loc	30 206 5                        @ ../../../components/network/thread/subg_openthread/src/core/common/tlvs.cpp:206:5
	mov	r0, r5
.Ltmp39:
	mov	r2, r4
	movs	r3, #1
	add	sp, #16
	pop.w	{r4, r5, r7, lr}
.Ltmp40:
	b	_ZN2ot3Tlv12ReadTlvValueERKNS_7MessageEtPvh
.Ltmp41:
.Lfunc_end4:
	.size	_ZN2ot3Tlv11FindUintTlvIhEE7otErrorRKNS_7MessageEhRT_, .Lfunc_end4-_ZN2ot3Tlv11FindUintTlvIhEE7otErrorRKNS_7MessageEhRT_
	.cfi_endproc
	.cantunwind
	.fnend
                                        @ -- End function
	.section	.text._ZN2ot3Tlv13FindTlvOffsetERKNS_7MessageEhRt,"ax",%progbits
	.hidden	_ZN2ot3Tlv13FindTlvOffsetERKNS_7MessageEhRt @ -- Begin function _ZN2ot3Tlv13FindTlvOffsetERKNS_7MessageEhRt
	.globl	_ZN2ot3Tlv13FindTlvOffsetERKNS_7MessageEhRt
	.p2align	1
	.type	_ZN2ot3Tlv13FindTlvOffsetERKNS_7MessageEhRt,%function
	.code	16                              @ @_ZN2ot3Tlv13FindTlvOffsetERKNS_7MessageEhRt
	.thumb_func
_ZN2ot3Tlv13FindTlvOffsetERKNS_7MessageEhRt:
.Lfunc_begin5:
	.loc	30 78 0                         @ ../../../components/network/thread/subg_openthread/src/core/common/tlvs.cpp:78:0
	.fnstart
	.cfi_startproc
@ %bb.0:
	@DEBUG_VALUE: FindTlvOffset:aMessage <- $r0
	@DEBUG_VALUE: FindTlvOffset:aType <- $r1
	@DEBUG_VALUE: FindTlvOffset:aOffset <- $r2
	.save	{r4, lr}
	push	{r4, lr}
	.cfi_def_cfa_offset 8
	.cfi_offset lr, -4
	.cfi_offset r4, -8
	.pad	#16
	sub	sp, #16
	.cfi_def_cfa_offset 24
	mov	r4, r2
.Ltmp42:
	@DEBUG_VALUE: FindTlvOffset:aOffset <- $r4
	mov	r2, r1
	mov	r1, r0
.Ltmp43:
	@DEBUG_VALUE: FindTlvOffset:aType <- [DW_OP_LLVM_entry_value 1] $r1
	@DEBUG_VALUE: FindTlvOffset:aOffset <- $r4
	@DEBUG_VALUE: FindTlvOffset:aType <- $r2
	@DEBUG_VALUE: FindTlvOffset:aMessage <- $r1
	add	r0, sp, #4
	@DEBUG_VALUE: FindTlvOffset:aType <- $r2
	@DEBUG_VALUE: FindTlvOffset:aMessage <- $r1
.Ltmp44:
	.loc	30 82 5 prologue_end            @ ../../../components/network/thread/subg_openthread/src/core/common/tlvs.cpp:82:5
	bl	_ZN2ot3Tlv10ParsedInfo6FindInERKNS_7MessageEh
.Ltmp45:
	@DEBUG_VALUE: FindTlvOffset:error <- $r0
	.loc	30 82 5 is_stmt 0               @ ../../../components/network/thread/subg_openthread/src/core/common/tlvs.cpp:82:5
	cbnz	r0, .LBB5_2
.Ltmp46:
@ %bb.1:
	@DEBUG_VALUE: FindTlvOffset:aOffset <- $r4
	@DEBUG_VALUE: FindTlvOffset:error <- $r0
	.loc	30 83 20 is_stmt 1              @ ../../../components/network/thread/subg_openthread/src/core/common/tlvs.cpp:83:20
	ldrh.w	r1, [sp, #8]
	.loc	30 83 13 is_stmt 0              @ ../../../components/network/thread/subg_openthread/src/core/common/tlvs.cpp:83:13
	strh	r1, [r4]
.Ltmp47:
.LBB5_2:
	@DEBUG_VALUE: FindTlvOffset:aOffset <- $r4
	@DEBUG_VALUE: FindTlvOffset:error <- $r0
	@DEBUG_LABEL: FindTlvOffset:exit
	.loc	30 86 5 is_stmt 1               @ ../../../components/network/thread/subg_openthread/src/core/common/tlvs.cpp:86:5
	add	sp, #16
	pop	{r4, pc}
.Ltmp48:
.Lfunc_end5:
	.size	_ZN2ot3Tlv13FindTlvOffsetERKNS_7MessageEhRt, .Lfunc_end5-_ZN2ot3Tlv13FindTlvOffsetERKNS_7MessageEhRt
	.cfi_endproc
	.cantunwind
	.fnend
                                        @ -- End function
	.section	.text._ZN2ot3Tlv11FindUintTlvItEE7otErrorRKNS_7MessageEhRT_,"axG",%progbits,_ZN2ot3Tlv11FindUintTlvItEE7otErrorRKNS_7MessageEhRT_,comdat
	.hidden	_ZN2ot3Tlv11FindUintTlvItEE7otErrorRKNS_7MessageEhRT_ @ -- Begin function _ZN2ot3Tlv11FindUintTlvItEE7otErrorRKNS_7MessageEhRT_
	.weak	_ZN2ot3Tlv11FindUintTlvItEE7otErrorRKNS_7MessageEhRT_
	.p2align	1
	.type	_ZN2ot3Tlv11FindUintTlvItEE7otErrorRKNS_7MessageEhRT_,%function
	.code	16                              @ @_ZN2ot3Tlv11FindUintTlvItEE7otErrorRKNS_7MessageEhRT_
	.thumb_func
_ZN2ot3Tlv11FindUintTlvItEE7otErrorRKNS_7MessageEhRT_:
.Lfunc_begin6:
	.loc	30 246 0                        @ ../../../components/network/thread/subg_openthread/src/core/common/tlvs.cpp:246:0
	.fnstart
	.cfi_startproc
@ %bb.0:
	@DEBUG_VALUE: FindUintTlv<unsigned short>:aMessage <- $r0
	@DEBUG_VALUE: FindUintTlv<unsigned short>:aType <- $r1
	@DEBUG_VALUE: FindUintTlv<unsigned short>:aValue <- $r2
	.save	{r4, r5, r7, lr}
	push	{r4, r5, r7, lr}
	.cfi_def_cfa_offset 16
	.cfi_offset lr, -4
	.cfi_offset r7, -8
	.cfi_offset r5, -12
	.cfi_offset r4, -16
	.pad	#16
	sub	sp, #16
	.cfi_def_cfa_offset 32
	mov	r5, r0
.Ltmp49:
	@DEBUG_VALUE: FindUintTlv<unsigned short>:aMessage <- $r5
	@DEBUG_VALUE: FindTlvOffset:aOffset <- undef
	@DEBUG_VALUE: FindTlvOffset:aType <- undef
	@DEBUG_VALUE: FindTlvOffset:aMessage <- $r5
	@DEBUG_VALUE: FindUintTlv<unsigned short>:error <- 0
	@DEBUG_VALUE: FindUintTlv<unsigned short>:aValue <- $r4
	@DEBUG_VALUE: FindUintTlv<unsigned short>:aType <- $r2
	@DEBUG_VALUE: FindUintTlv<unsigned short>:aMessage <- $r5
	mov	r4, r2
.Ltmp50:
	@DEBUG_VALUE: FindUintTlv<unsigned short>:aType <- $r4
	mov	r2, r1
	add	r0, sp, #4
.Ltmp51:
	.loc	30 82 5 prologue_end            @ ../../../components/network/thread/subg_openthread/src/core/common/tlvs.cpp:82:5
	mov	r1, r5
.Ltmp52:
	@DEBUG_VALUE: FindUintTlv<unsigned short>:aType <- $r2
	bl	_ZN2ot3Tlv10ParsedInfo6FindInERKNS_7MessageEh
.Ltmp53:
	@DEBUG_VALUE: FindTlvOffset:error <- $r0
	.loc	30 82 5 is_stmt 0               @ ../../../components/network/thread/subg_openthread/src/core/common/tlvs.cpp:82:5
	cbnz	r0, .LBB6_3
.Ltmp54:
@ %bb.1:
	@DEBUG_VALUE: FindTlvOffset:aMessage <- $r5
	@DEBUG_VALUE: FindUintTlv<unsigned short>:aMessage <- $r5
	@DEBUG_VALUE: FindTlvOffset:error <- $r0
	@DEBUG_VALUE: FindUintTlv<unsigned short>:error <- 0
	.loc	30 83 20 is_stmt 1              @ ../../../components/network/thread/subg_openthread/src/core/common/tlvs.cpp:83:20
	ldrh.w	r1, [sp, #8]
.Ltmp55:
	@DEBUG_LABEL: FindTlvOffset:exit
	@DEBUG_VALUE: ReadUintTlv<unsigned short>:aValue <- $r4
	@DEBUG_VALUE: ReadUintTlv<unsigned short>:aOffset <- undef
	@DEBUG_VALUE: ReadUintTlv<unsigned short>:aMessage <- $r5
	@DEBUG_VALUE: FindUintTlv<unsigned short>:offset <- undef
	@DEBUG_VALUE: FindUintTlv<unsigned short>:error <- undef
	.loc	30 206 5                        @ ../../../components/network/thread/subg_openthread/src/core/common/tlvs.cpp:206:5
	mov	r0, r5
.Ltmp56:
	mov	r2, r4
	movs	r3, #2
	bl	_ZN2ot3Tlv12ReadTlvValueERKNS_7MessageEtPvh
.Ltmp57:
	@DEBUG_VALUE: ReadUintTlv<unsigned short>:error <- $r0
	.loc	30 206 5 is_stmt 0              @ ../../../components/network/thread/subg_openthread/src/core/common/tlvs.cpp:206:5
	cbnz	r0, .LBB6_3
.Ltmp58:
@ %bb.2:
	@DEBUG_VALUE: ReadUintTlv<unsigned short>:aMessage <- $r5
	@DEBUG_VALUE: FindUintTlv<unsigned short>:aMessage <- $r5
	@DEBUG_VALUE: ReadUintTlv<unsigned short>:aValue <- $r4
	@DEBUG_VALUE: ReadUintTlv<unsigned short>:error <- $r0
	.loc	30 207 54 is_stmt 1             @ ../../../components/network/thread/subg_openthread/src/core/common/tlvs.cpp:207:54
	ldrh	r0, [r4]
.Ltmp59:
	.loc	30 0 54 is_stmt 0               @ ../../../components/network/thread/subg_openthread/src/core/common/tlvs.cpp:0:54
	rev	r0, r0
	lsrs	r0, r0, #16
	.loc	30 207 12                       @ ../../../components/network/thread/subg_openthread/src/core/common/tlvs.cpp:207:12
	strh	r0, [r4]
	movs	r0, #0
.Ltmp60:
.LBB6_3:
	@DEBUG_VALUE: FindUintTlv<unsigned short>:aMessage <- $r5
	@DEBUG_VALUE: FindUintTlv<unsigned short>:error <- $r0
	@DEBUG_LABEL: FindUintTlv<unsigned short>:exit
	.loc	30 254 5 is_stmt 1              @ ../../../components/network/thread/subg_openthread/src/core/common/tlvs.cpp:254:5
	add	sp, #16
	pop	{r4, r5, r7, pc}
.Ltmp61:
.Lfunc_end6:
	.size	_ZN2ot3Tlv11FindUintTlvItEE7otErrorRKNS_7MessageEhRT_, .Lfunc_end6-_ZN2ot3Tlv11FindUintTlvItEE7otErrorRKNS_7MessageEhRT_
	.cfi_endproc
	.cantunwind
	.fnend
                                        @ -- End function
	.section	.text._ZN2ot3Tlv11FindUintTlvIjEE7otErrorRKNS_7MessageEhRT_,"axG",%progbits,_ZN2ot3Tlv11FindUintTlvIjEE7otErrorRKNS_7MessageEhRT_,comdat
	.hidden	_ZN2ot3Tlv11FindUintTlvIjEE7otErrorRKNS_7MessageEhRT_ @ -- Begin function _ZN2ot3Tlv11FindUintTlvIjEE7otErrorRKNS_7MessageEhRT_
	.weak	_ZN2ot3Tlv11FindUintTlvIjEE7otErrorRKNS_7MessageEhRT_
	.p2align	1
	.type	_ZN2ot3Tlv11FindUintTlvIjEE7otErrorRKNS_7MessageEhRT_,%function
	.code	16                              @ @_ZN2ot3Tlv11FindUintTlvIjEE7otErrorRKNS_7MessageEhRT_
	.thumb_func
_ZN2ot3Tlv11FindUintTlvIjEE7otErrorRKNS_7MessageEhRT_:
.Lfunc_begin7:
	.loc	30 246 0                        @ ../../../components/network/thread/subg_openthread/src/core/common/tlvs.cpp:246:0
	.fnstart
	.cfi_startproc
@ %bb.0:
	@DEBUG_VALUE: FindUintTlv<unsigned int>:aMessage <- $r0
	@DEBUG_VALUE: FindUintTlv<unsigned int>:aType <- $r1
	@DEBUG_VALUE: FindUintTlv<unsigned int>:aValue <- $r2
	.save	{r4, r5, r7, lr}
	push	{r4, r5, r7, lr}
	.cfi_def_cfa_offset 16
	.cfi_offset lr, -4
	.cfi_offset r7, -8
	.cfi_offset r5, -12
	.cfi_offset r4, -16
	.pad	#16
	sub	sp, #16
	.cfi_def_cfa_offset 32
	mov	r5, r0
.Ltmp62:
	@DEBUG_VALUE: FindUintTlv<unsigned int>:aMessage <- $r5
	@DEBUG_VALUE: FindTlvOffset:aOffset <- undef
	@DEBUG_VALUE: FindTlvOffset:aType <- undef
	@DEBUG_VALUE: FindTlvOffset:aMessage <- $r5
	@DEBUG_VALUE: FindUintTlv<unsigned int>:error <- 0
	@DEBUG_VALUE: FindUintTlv<unsigned int>:aValue <- $r4
	@DEBUG_VALUE: FindUintTlv<unsigned int>:aType <- $r2
	@DEBUG_VALUE: FindUintTlv<unsigned int>:aMessage <- $r5
	mov	r4, r2
.Ltmp63:
	@DEBUG_VALUE: FindUintTlv<unsigned int>:aType <- $r4
	mov	r2, r1
	add	r0, sp, #4
.Ltmp64:
	.loc	30 82 5 prologue_end            @ ../../../components/network/thread/subg_openthread/src/core/common/tlvs.cpp:82:5
	mov	r1, r5
.Ltmp65:
	@DEBUG_VALUE: FindUintTlv<unsigned int>:aType <- $r2
	bl	_ZN2ot3Tlv10ParsedInfo6FindInERKNS_7MessageEh
.Ltmp66:
	@DEBUG_VALUE: FindTlvOffset:error <- $r0
	.loc	30 82 5 is_stmt 0               @ ../../../components/network/thread/subg_openthread/src/core/common/tlvs.cpp:82:5
	cbnz	r0, .LBB7_3
.Ltmp67:
@ %bb.1:
	@DEBUG_VALUE: FindTlvOffset:aMessage <- $r5
	@DEBUG_VALUE: FindUintTlv<unsigned int>:aMessage <- $r5
	@DEBUG_VALUE: FindTlvOffset:error <- $r0
	@DEBUG_VALUE: FindUintTlv<unsigned int>:error <- 0
	.loc	30 83 20 is_stmt 1              @ ../../../components/network/thread/subg_openthread/src/core/common/tlvs.cpp:83:20
	ldrh.w	r1, [sp, #8]
.Ltmp68:
	@DEBUG_LABEL: FindTlvOffset:exit
	@DEBUG_VALUE: ReadUintTlv<unsigned int>:aValue <- $r4
	@DEBUG_VALUE: ReadUintTlv<unsigned int>:aOffset <- undef
	@DEBUG_VALUE: ReadUintTlv<unsigned int>:aMessage <- $r5
	@DEBUG_VALUE: FindUintTlv<unsigned int>:offset <- undef
	@DEBUG_VALUE: FindUintTlv<unsigned int>:error <- undef
	.loc	30 206 5                        @ ../../../components/network/thread/subg_openthread/src/core/common/tlvs.cpp:206:5
	mov	r0, r5
.Ltmp69:
	mov	r2, r4
	movs	r3, #4
	bl	_ZN2ot3Tlv12ReadTlvValueERKNS_7MessageEtPvh
.Ltmp70:
	@DEBUG_VALUE: ReadUintTlv<unsigned int>:error <- $r0
	.loc	30 206 5 is_stmt 0              @ ../../../components/network/thread/subg_openthread/src/core/common/tlvs.cpp:206:5
	cbnz	r0, .LBB7_3
.Ltmp71:
@ %bb.2:
	@DEBUG_VALUE: ReadUintTlv<unsigned int>:aMessage <- $r5
	@DEBUG_VALUE: FindUintTlv<unsigned int>:aMessage <- $r5
	@DEBUG_VALUE: ReadUintTlv<unsigned int>:aValue <- $r4
	@DEBUG_VALUE: ReadUintTlv<unsigned int>:error <- $r0
	.loc	30 207 54 is_stmt 1             @ ../../../components/network/thread/subg_openthread/src/core/common/tlvs.cpp:207:54
	ldr	r0, [r4]
.Ltmp72:
	@DEBUG_VALUE: Swap32:v <- $r0
	@DEBUG_VALUE: HostSwap32:v <- $r0
	@DEBUG_VALUE: HostSwap<unsigned int>:aValue <- $r0
	.loc	31 59 61                        @ ../../../components/network/thread/subg_openthread/src/core\common/encoding.hpp:59:61
	rev	r0, r0
.Ltmp73:
	.loc	30 207 12                       @ ../../../components/network/thread/subg_openthread/src/core/common/tlvs.cpp:207:12
	str	r0, [r4]
	movs	r0, #0
.Ltmp74:
.LBB7_3:
	@DEBUG_VALUE: FindUintTlv<unsigned int>:aMessage <- $r5
	@DEBUG_VALUE: FindUintTlv<unsigned int>:error <- $r0
	@DEBUG_LABEL: FindUintTlv<unsigned int>:exit
	.loc	30 254 5                        @ ../../../components/network/thread/subg_openthread/src/core/common/tlvs.cpp:254:5
	add	sp, #16
	pop	{r4, r5, r7, pc}
.Ltmp75:
.Lfunc_end7:
	.size	_ZN2ot3Tlv11FindUintTlvIjEE7otErrorRKNS_7MessageEhRT_, .Lfunc_end7-_ZN2ot3Tlv11FindUintTlvIjEE7otErrorRKNS_7MessageEhRT_
	.cfi_endproc
	.cantunwind
	.fnend
                                        @ -- End function
	.section	.text._ZN2ot3Tlv13AppendUintTlvIhEE7otErrorRNS_7MessageEhT_,"axG",%progbits,_ZN2ot3Tlv13AppendUintTlvIhEE7otErrorRNS_7MessageEhT_,comdat
	.hidden	_ZN2ot3Tlv13AppendUintTlvIhEE7otErrorRNS_7MessageEhT_ @ -- Begin function _ZN2ot3Tlv13AppendUintTlvIhEE7otErrorRNS_7MessageEhT_
	.weak	_ZN2ot3Tlv13AppendUintTlvIhEE7otErrorRNS_7MessageEhT_
	.p2align	1
	.type	_ZN2ot3Tlv13AppendUintTlvIhEE7otErrorRNS_7MessageEhT_,%function
	.code	16                              @ @_ZN2ot3Tlv13AppendUintTlvIhEE7otErrorRNS_7MessageEhT_
	.thumb_func
_ZN2ot3Tlv13AppendUintTlvIhEE7otErrorRNS_7MessageEhT_:
.Lfunc_begin8:
	.loc	30 284 0                        @ ../../../components/network/thread/subg_openthread/src/core/common/tlvs.cpp:284:0
	.fnstart
	.cfi_startproc
@ %bb.0:
	@DEBUG_VALUE: AppendUintTlv<unsigned char>:aMessage <- $r0
	@DEBUG_VALUE: AppendUintTlv<unsigned char>:aMessage <- $r0
	@DEBUG_VALUE: AppendUintTlv<unsigned char>:aType <- $r1
	@DEBUG_VALUE: AppendUintTlv<unsigned char>:aType <- $r1
	@DEBUG_VALUE: AppendUintTlv<unsigned char>:aValue <- $r2
	@DEBUG_VALUE: AppendUintTlv<unsigned char>:aValue <- $r2
	.save	{r7, lr}
	push	{r7, lr}
	.cfi_def_cfa_offset 8
	.cfi_offset lr, -4
	.cfi_offset r7, -8
	.pad	#8
	sub	sp, #8
	.cfi_def_cfa_offset 16
.Ltmp76:
	@DEBUG_VALUE: AppendUintTlv<unsigned char>:value <- undef
	.loc	30 285 14 prologue_end          @ ../../../components/network/thread/subg_openthread/src/core/common/tlvs.cpp:285:14
	strb.w	r2, [sp, #7]
.Ltmp77:
	@DEBUG_VALUE: AppendUintTlv<unsigned char>:value <- [DW_OP_plus_uconst 7, DW_OP_deref] $sp
	.loc	30 0 14 is_stmt 0               @ ../../../components/network/thread/subg_openthread/src/core/common/tlvs.cpp:0:14
	add.w	r2, sp, #7
.Ltmp78:
	@DEBUG_VALUE: AppendUintTlv<unsigned char>:aValue <- [DW_OP_LLVM_entry_value 1] $r2
	@DEBUG_VALUE: AppendUintTlv<unsigned char>:aType <- $r1
	@DEBUG_VALUE: AppendUintTlv<unsigned char>:aMessage <- $r0
	.loc	30 287 12 is_stmt 1             @ ../../../components/network/thread/subg_openthread/src/core/common/tlvs.cpp:287:12
	movs	r3, #1
	bl	_ZN2ot3Tlv9AppendTlvERNS_7MessageEhPKvh
.Ltmp79:
	@DEBUG_VALUE: AppendUintTlv<unsigned char>:aType <- [DW_OP_LLVM_entry_value 1] $r1
	@DEBUG_VALUE: AppendUintTlv<unsigned char>:aMessage <- [DW_OP_LLVM_entry_value 1] $r0
	.loc	30 287 5 is_stmt 0              @ ../../../components/network/thread/subg_openthread/src/core/common/tlvs.cpp:287:5
	add	sp, #8
	pop	{r7, pc}
.Ltmp80:
.Lfunc_end8:
	.size	_ZN2ot3Tlv13AppendUintTlvIhEE7otErrorRNS_7MessageEhT_, .Lfunc_end8-_ZN2ot3Tlv13AppendUintTlvIhEE7otErrorRNS_7MessageEhT_
	.cfi_endproc
	.cantunwind
	.fnend
                                        @ -- End function
	.section	.text._ZN2ot3Tlv9AppendTlvERNS_7MessageEhPKvh,"ax",%progbits
	.hidden	_ZN2ot3Tlv9AppendTlvERNS_7MessageEhPKvh @ -- Begin function _ZN2ot3Tlv9AppendTlvERNS_7MessageEhPKvh
	.globl	_ZN2ot3Tlv9AppendTlvERNS_7MessageEhPKvh
	.p2align	1
	.type	_ZN2ot3Tlv9AppendTlvERNS_7MessageEhPKvh,%function
	.code	16                              @ @_ZN2ot3Tlv9AppendTlvERNS_7MessageEhPKvh
	.thumb_func
_ZN2ot3Tlv9AppendTlvERNS_7MessageEhPKvh:
.Lfunc_begin9:
	.loc	30 296 0 is_stmt 1              @ ../../../components/network/thread/subg_openthread/src/core/common/tlvs.cpp:296:0
	.fnstart
	.cfi_startproc
@ %bb.0:
	@DEBUG_VALUE: AppendTlv:aMessage <- $r0
	@DEBUG_VALUE: AppendTlv:aType <- $r1
	@DEBUG_VALUE: AppendTlv:aValue <- $r2
	@DEBUG_VALUE: AppendTlv:aLength <- $r3
	@DEBUG_VALUE: AppendTlv:aLength <- $r3
	@DEBUG_VALUE: AppendTlv:aValue <- $r2
	@DEBUG_VALUE: AppendTlv:aType <- $r1
	.save	{r4, r5, r6, lr}
	push	{r4, r5, r6, lr}
	.cfi_def_cfa_offset 16
	.cfi_offset lr, -4
	.cfi_offset r6, -8
	.cfi_offset r5, -12
	.cfi_offset r4, -16
	.pad	#8
	sub	sp, #8
	.cfi_def_cfa_offset 24
.Ltmp81:
	.loc	30 300 5 prologue_end           @ ../../../components/network/thread/subg_openthread/src/core/common/tlvs.cpp:300:5
	cmp	r3, #255
.Ltmp82:
	@DEBUG_VALUE: AppendTlv:error <- 0
	@DEBUG_VALUE: AppendTlv:aMessage <- $r0
	beq	.LBB9_4
.Ltmp83:
@ %bb.1:
	@DEBUG_VALUE: AppendTlv:aLength <- $r3
	@DEBUG_VALUE: AppendTlv:aValue <- $r2
	@DEBUG_VALUE: AppendTlv:aType <- $r1
	@DEBUG_VALUE: AppendTlv:aMessage <- $r0
	@DEBUG_VALUE: AppendTlv:error <- 0
	.loc	30 0 5 is_stmt 0                @ ../../../components/network/thread/subg_openthread/src/core/common/tlvs.cpp:0:5
	mov	r5, r2
.Ltmp84:
	@DEBUG_VALUE: AppendTlv:aValue <- $r5
	@DEBUG_VALUE: AppendTlv:aValue <- $r5
	.loc	20 80 41 is_stmt 1              @ ../../../components/network/thread/subg_openthread/src/core/common/tlvs.hpp:80:41
	strb.w	r1, [sp, #4]
	@DEBUG_VALUE: SetLength:aLength <- $r4
.Ltmp85:
	@DEBUG_VALUE: SetLength:this <- [DW_OP_plus_uconst 4, DW_OP_stack_value] $sp
	.loc	20 0 41 is_stmt 0               @ ../../../components/network/thread/subg_openthread/src/core/common/tlvs.hpp:0:41
	add	r1, sp, #4
.Ltmp86:
	@DEBUG_VALUE: AppendTlv:aType <- [DW_OP_LLVM_entry_value 1] $r1
	.loc	3 700 16 is_stmt 1              @ ../../../components/network/thread/subg_openthread/src/core\common/message.hpp:700:16
	movs	r2, #2
	mov	r4, r3
.Ltmp87:
	@DEBUG_VALUE: AppendTlv:aLength <- $r4
	.loc	3 0 16 is_stmt 0                @ ../../../components/network/thread/subg_openthread/src/core\common/message.hpp:0:16
	mov	r6, r0
.Ltmp88:
	@DEBUG_VALUE: AppendTlv:aMessage <- $r6
	@DEBUG_VALUE: AppendTlv:aType <- $r1
	@DEBUG_VALUE: SetType:this <- [DW_OP_plus_uconst 4, DW_OP_stack_value] $sp
	@DEBUG_VALUE: SetType:aType <- $r1
	.loc	20 109 47 is_stmt 1             @ ../../../components/network/thread/subg_openthread/src/core/common/tlvs.hpp:109:47
	strb.w	r3, [sp, #5]
.Ltmp89:
	@DEBUG_VALUE: Append<ot::Tlv>:aObject <- [DW_OP_plus_uconst 4, DW_OP_stack_value] $sp
	@DEBUG_VALUE: Append<ot::Tlv>:this <- $r6
	.loc	3 700 16                        @ ../../../components/network/thread/subg_openthread/src/core\common/message.hpp:700:16
	bl	_ZN2ot7Message11AppendBytesEPKvt
.Ltmp90:
	@DEBUG_VALUE: AppendTlv:aType <- [DW_OP_LLVM_entry_value 1] $r1
	@DEBUG_VALUE: AppendTlv:error <- $r0
	.loc	30 304 5                        @ ../../../components/network/thread/subg_openthread/src/core/common/tlvs.cpp:304:5
	cbnz	r0, .LBB9_7
.Ltmp91:
@ %bb.2:
	@DEBUG_VALUE: AppendTlv:aMessage <- $r6
	@DEBUG_VALUE: AppendTlv:aValue <- $r5
	@DEBUG_VALUE: AppendTlv:aLength <- $r4
	@DEBUG_VALUE: AppendTlv:error <- $r0
	@DEBUG_VALUE: AppendTlv:aType <- [DW_OP_LLVM_entry_value 1] $r1
	.loc	30 306 5                        @ ../../../components/network/thread/subg_openthread/src/core/common/tlvs.cpp:306:5
	cbz	r4, .LBB9_6
.Ltmp92:
@ %bb.3:
	@DEBUG_VALUE: AppendTlv:aMessage <- $r6
	@DEBUG_VALUE: AppendTlv:aValue <- $r5
	@DEBUG_VALUE: AppendTlv:aLength <- $r4
	@DEBUG_VALUE: AppendTlv:error <- $r0
	@DEBUG_VALUE: AppendTlv:aType <- [DW_OP_LLVM_entry_value 1] $r1
	.loc	30 307 22                       @ ../../../components/network/thread/subg_openthread/src/core/common/tlvs.cpp:307:22
	mov	r0, r6
.Ltmp93:
	mov	r1, r5
	mov	r2, r4
	bl	_ZN2ot7Message11AppendBytesEPKvt
.Ltmp94:
	@DEBUG_VALUE: AppendTlv:error <- $r0
	.loc	30 0 22 is_stmt 0               @ ../../../components/network/thread/subg_openthread/src/core/common/tlvs.cpp:0:22
	b	.LBB9_7
.Ltmp95:
.LBB9_4:
	@DEBUG_VALUE: AppendTlv:aLength <- $r3
	@DEBUG_VALUE: AppendTlv:aValue <- $r2
	@DEBUG_VALUE: AppendTlv:aType <- $r1
	@DEBUG_VALUE: AppendTlv:aMessage <- $r0
	@DEBUG_VALUE: AppendTlv:error <- 0
	.loc	30 300 5 is_stmt 1              @ ../../../components/network/thread/subg_openthread/src/core/common/tlvs.cpp:300:5
	movw	r0, :lower16:.L.str
.Ltmp96:
	@DEBUG_VALUE: AppendTlv:aMessage <- [DW_OP_LLVM_entry_value 1] $r0
	movt	r0, :upper16:.L.str
	mov.w	r1, #300
.Ltmp97:
	@DEBUG_VALUE: AppendTlv:aType <- [DW_OP_LLVM_entry_value 1] $r1
	bl	otPlatAssertFail
.Ltmp98:
	@DEBUG_VALUE: AppendTlv:aLength <- [DW_OP_LLVM_entry_value 1] $r3
	@DEBUG_VALUE: AppendTlv:aValue <- [DW_OP_LLVM_entry_value 1] $r2
	.p2align	2
.LBB9_5:                                @ =>This Inner Loop Header: Depth=1
	@DEBUG_VALUE: AppendTlv:aLength <- [DW_OP_LLVM_entry_value 1] $r3
	@DEBUG_VALUE: AppendTlv:aValue <- [DW_OP_LLVM_entry_value 1] $r2
	@DEBUG_VALUE: AppendTlv:aMessage <- [DW_OP_LLVM_entry_value 1] $r0
	@DEBUG_VALUE: AppendTlv:aType <- [DW_OP_LLVM_entry_value 1] $r1
	@DEBUG_VALUE: AppendTlv:error <- 0
	b	.LBB9_5
.Ltmp99:
.LBB9_6:
	@DEBUG_VALUE: AppendTlv:aMessage <- $r6
	@DEBUG_VALUE: AppendTlv:aValue <- $r5
	@DEBUG_VALUE: AppendTlv:aLength <- $r4
	@DEBUG_VALUE: AppendTlv:error <- $r0
	@DEBUG_VALUE: AppendTlv:aType <- [DW_OP_LLVM_entry_value 1] $r1
	.loc	30 0 5 is_stmt 0                @ ../../../components/network/thread/subg_openthread/src/core/common/tlvs.cpp:0:5
	movs	r0, #0
.Ltmp100:
.LBB9_7:
	@DEBUG_VALUE: AppendTlv:aMessage <- $r6
	@DEBUG_VALUE: AppendTlv:aValue <- $r5
	@DEBUG_VALUE: AppendTlv:aLength <- $r4
	@DEBUG_VALUE: AppendTlv:aType <- [DW_OP_LLVM_entry_value 1] $r1
	@DEBUG_VALUE: AppendTlv:error <- $r0
	@DEBUG_LABEL: AppendTlv:exit
	.loc	30 310 5 is_stmt 1              @ ../../../components/network/thread/subg_openthread/src/core/common/tlvs.cpp:310:5
	add	sp, #8
	pop	{r4, r5, r6, pc}
.Ltmp101:
.Lfunc_end9:
	.size	_ZN2ot3Tlv9AppendTlvERNS_7MessageEhPKvh, .Lfunc_end9-_ZN2ot3Tlv9AppendTlvERNS_7MessageEhPKvh
	.cfi_endproc
	.cantunwind
	.fnend
                                        @ -- End function
	.section	.text._ZN2ot3Tlv13AppendUintTlvItEE7otErrorRNS_7MessageEhT_,"axG",%progbits,_ZN2ot3Tlv13AppendUintTlvItEE7otErrorRNS_7MessageEhT_,comdat
	.hidden	_ZN2ot3Tlv13AppendUintTlvItEE7otErrorRNS_7MessageEhT_ @ -- Begin function _ZN2ot3Tlv13AppendUintTlvItEE7otErrorRNS_7MessageEhT_
	.weak	_ZN2ot3Tlv13AppendUintTlvItEE7otErrorRNS_7MessageEhT_
	.p2align	1
	.type	_ZN2ot3Tlv13AppendUintTlvItEE7otErrorRNS_7MessageEhT_,%function
	.code	16                              @ @_ZN2ot3Tlv13AppendUintTlvItEE7otErrorRNS_7MessageEhT_
	.thumb_func
_ZN2ot3Tlv13AppendUintTlvItEE7otErrorRNS_7MessageEhT_:
.Lfunc_begin10:
	.loc	30 284 0                        @ ../../../components/network/thread/subg_openthread/src/core/common/tlvs.cpp:284:0
	.fnstart
	.cfi_startproc
@ %bb.0:
	@DEBUG_VALUE: AppendUintTlv<unsigned short>:aMessage <- $r0
	@DEBUG_VALUE: AppendUintTlv<unsigned short>:aType <- $r1
	@DEBUG_VALUE: AppendUintTlv<unsigned short>:aValue <- $r2
	@DEBUG_VALUE: AppendUintTlv<unsigned short>:aValue <- $r2
	.save	{r7, lr}
	push	{r7, lr}
	.cfi_def_cfa_offset 8
	.cfi_offset lr, -4
	.cfi_offset r7, -8
	.pad	#8
	sub	sp, #8
	.cfi_def_cfa_offset 16
	rev16	r2, r2
.Ltmp102:
	@DEBUG_VALUE: AppendUintTlv<unsigned short>:aValue <- [DW_OP_LLVM_entry_value 1] $r2
	@DEBUG_VALUE: AppendUintTlv<unsigned short>:value <- $r2
	@DEBUG_VALUE: AppendUintTlv<unsigned short>:aType <- $r1
	@DEBUG_VALUE: AppendUintTlv<unsigned short>:aMessage <- $r0
	.loc	30 285 14 prologue_end          @ ../../../components/network/thread/subg_openthread/src/core/common/tlvs.cpp:285:14
	strh.w	r2, [sp, #6]
.Ltmp103:
	@DEBUG_VALUE: AppendUintTlv<unsigned short>:value <- [DW_OP_plus_uconst 6, DW_OP_deref] $sp
	.loc	30 0 14 is_stmt 0               @ ../../../components/network/thread/subg_openthread/src/core/common/tlvs.cpp:0:14
	add.w	r2, sp, #6
	@DEBUG_VALUE: AppendUintTlv<unsigned short>:aType <- $r1
	@DEBUG_VALUE: AppendUintTlv<unsigned short>:aMessage <- $r0
	.loc	30 287 12 is_stmt 1             @ ../../../components/network/thread/subg_openthread/src/core/common/tlvs.cpp:287:12
	movs	r3, #2
	bl	_ZN2ot3Tlv9AppendTlvERNS_7MessageEhPKvh
.Ltmp104:
	@DEBUG_VALUE: AppendUintTlv<unsigned short>:aType <- [DW_OP_LLVM_entry_value 1] $r1
	@DEBUG_VALUE: AppendUintTlv<unsigned short>:aMessage <- [DW_OP_LLVM_entry_value 1] $r0
	.loc	30 287 5 is_stmt 0              @ ../../../components/network/thread/subg_openthread/src/core/common/tlvs.cpp:287:5
	add	sp, #8
	pop	{r7, pc}
.Ltmp105:
.Lfunc_end10:
	.size	_ZN2ot3Tlv13AppendUintTlvItEE7otErrorRNS_7MessageEhT_, .Lfunc_end10-_ZN2ot3Tlv13AppendUintTlvItEE7otErrorRNS_7MessageEhT_
	.cfi_endproc
	.cantunwind
	.fnend
                                        @ -- End function
	.section	.text._ZN2ot3Tlv13AppendUintTlvIjEE7otErrorRNS_7MessageEhT_,"axG",%progbits,_ZN2ot3Tlv13AppendUintTlvIjEE7otErrorRNS_7MessageEhT_,comdat
	.hidden	_ZN2ot3Tlv13AppendUintTlvIjEE7otErrorRNS_7MessageEhT_ @ -- Begin function _ZN2ot3Tlv13AppendUintTlvIjEE7otErrorRNS_7MessageEhT_
	.weak	_ZN2ot3Tlv13AppendUintTlvIjEE7otErrorRNS_7MessageEhT_
	.p2align	1
	.type	_ZN2ot3Tlv13AppendUintTlvIjEE7otErrorRNS_7MessageEhT_,%function
	.code	16                              @ @_ZN2ot3Tlv13AppendUintTlvIjEE7otErrorRNS_7MessageEhT_
	.thumb_func
_ZN2ot3Tlv13AppendUintTlvIjEE7otErrorRNS_7MessageEhT_:
.Lfunc_begin11:
	.loc	30 284 0 is_stmt 1              @ ../../../components/network/thread/subg_openthread/src/core/common/tlvs.cpp:284:0
	.fnstart
	.cfi_startproc
@ %bb.0:
	@DEBUG_VALUE: AppendUintTlv<unsigned int>:aMessage <- $r0
	@DEBUG_VALUE: AppendUintTlv<unsigned int>:aMessage <- $r0
	@DEBUG_VALUE: AppendUintTlv<unsigned int>:aType <- $r1
	@DEBUG_VALUE: AppendUintTlv<unsigned int>:aType <- $r1
	@DEBUG_VALUE: AppendUintTlv<unsigned int>:aValue <- $r2
	@DEBUG_VALUE: AppendUintTlv<unsigned int>:aValue <- $r2
	@DEBUG_VALUE: HostSwap<unsigned int>:aValue <- $r2
	@DEBUG_VALUE: HostSwap32:v <- $r2
	@DEBUG_VALUE: Swap32:v <- $r2
	.save	{r7, lr}
	push	{r7, lr}
	.cfi_def_cfa_offset 8
	.cfi_offset lr, -4
	.cfi_offset r7, -8
	.pad	#8
	sub	sp, #8
	.cfi_def_cfa_offset 16
.Ltmp106:
	.loc	31 59 61 prologue_end           @ ../../../components/network/thread/subg_openthread/src/core\common/encoding.hpp:59:61
	rev	r2, r2
.Ltmp107:
	@DEBUG_VALUE: AppendUintTlv<unsigned int>:aValue <- [DW_OP_LLVM_entry_value 1] $r2
	@DEBUG_VALUE: AppendUintTlv<unsigned int>:value <- $r2
	.loc	30 285 14                       @ ../../../components/network/thread/subg_openthread/src/core/common/tlvs.cpp:285:14
	str	r2, [sp, #4]
.Ltmp108:
	@DEBUG_VALUE: AppendUintTlv<unsigned int>:value <- [DW_OP_plus_uconst 4, DW_OP_deref] $sp
	.loc	30 0 14 is_stmt 0               @ ../../../components/network/thread/subg_openthread/src/core/common/tlvs.cpp:0:14
	add	r2, sp, #4
	@DEBUG_VALUE: AppendUintTlv<unsigned int>:aType <- $r1
	@DEBUG_VALUE: AppendUintTlv<unsigned int>:aMessage <- $r0
	.loc	30 287 12 is_stmt 1             @ ../../../components/network/thread/subg_openthread/src/core/common/tlvs.cpp:287:12
	movs	r3, #4
	bl	_ZN2ot3Tlv9AppendTlvERNS_7MessageEhPKvh
.Ltmp109:
	@DEBUG_VALUE: AppendUintTlv<unsigned int>:aType <- [DW_OP_LLVM_entry_value 1] $r1
	@DEBUG_VALUE: AppendUintTlv<unsigned int>:aMessage <- [DW_OP_LLVM_entry_value 1] $r0
	.loc	30 287 5 is_stmt 0              @ ../../../components/network/thread/subg_openthread/src/core/common/tlvs.cpp:287:5
	add	sp, #8
	pop	{r7, pc}
.Ltmp110:
.Lfunc_end11:
	.size	_ZN2ot3Tlv13AppendUintTlvIjEE7otErrorRNS_7MessageEhT_, .Lfunc_end11-_ZN2ot3Tlv13AppendUintTlvIjEE7otErrorRNS_7MessageEhT_
	.cfi_endproc
	.cantunwind
	.fnend
                                        @ -- End function
	.section	.text._ZNK2ot3Tlv7GetSizeEv,"ax",%progbits
	.hidden	_ZNK2ot3Tlv7GetSizeEv           @ -- Begin function _ZNK2ot3Tlv7GetSizeEv
	.globl	_ZNK2ot3Tlv7GetSizeEv
	.p2align	1
	.type	_ZNK2ot3Tlv7GetSizeEv,%function
	.code	16                              @ @_ZNK2ot3Tlv7GetSizeEv
	.thumb_func
_ZNK2ot3Tlv7GetSizeEv:
.Lfunc_begin12:
	.loc	30 43 0 is_stmt 1               @ ../../../components/network/thread/subg_openthread/src/core/common/tlvs.cpp:43:0
	.fnstart
	.cfi_startproc
@ %bb.0:
	@DEBUG_VALUE: GetSize:this <- $r0
	@DEBUG_VALUE: GetSize:this <- $r0
	@DEBUG_VALUE: IsExtended:this <- $r0
	@DEBUG_VALUE: IsExtended:this <- $r0
	.loc	20 89 43 prologue_end           @ ../../../components/network/thread/subg_openthread/src/core/common/tlvs.hpp:89:43
	ldrb	r1, [r0, #1]
.Ltmp111:
	.loc	30 44 12                        @ ../../../components/network/thread/subg_openthread/src/core/common/tlvs.cpp:44:12
	cmp	r1, #255
	.loc	30 44 98 is_stmt 0              @ ../../../components/network/thread/subg_openthread/src/core/common/tlvs.cpp:44:98
	itt	ne
	addne	r0, r1, #2
.Ltmp112:
	@DEBUG_VALUE: GetSize:this <- [DW_OP_LLVM_entry_value 1] $r0
	.loc	30 44 5                         @ ../../../components/network/thread/subg_openthread/src/core/common/tlvs.cpp:44:5
	bxne	lr
.Ltmp113:
.LBB12_1:
	@DEBUG_VALUE: GetSize:this <- [DW_OP_LLVM_entry_value 1] $r0
	@DEBUG_VALUE: GetLength:this <- $r0
	.loc	20 537 56 is_stmt 1             @ ../../../components/network/thread/subg_openthread/src/core/common/tlvs.hpp:537:56
	ldrh	r0, [r0, #2]
.Ltmp114:
	.loc	20 0 56 is_stmt 0               @ ../../../components/network/thread/subg_openthread/src/core/common/tlvs.hpp:0:56
	movs	r1, #4
	rev	r0, r0
.Ltmp115:
	.loc	30 44 47 is_stmt 1              @ ../../../components/network/thread/subg_openthread/src/core/common/tlvs.cpp:44:47
	add.w	r0, r1, r0, lsr #16
	.loc	30 44 5 is_stmt 0               @ ../../../components/network/thread/subg_openthread/src/core/common/tlvs.cpp:44:5
	bx	lr
.Ltmp116:
.Lfunc_end12:
	.size	_ZNK2ot3Tlv7GetSizeEv, .Lfunc_end12-_ZNK2ot3Tlv7GetSizeEv
	.cfi_endproc
	.cantunwind
	.fnend
                                        @ -- End function
	.section	.text._ZN2ot3Tlv8GetValueEv,"ax",%progbits
	.hidden	_ZN2ot3Tlv8GetValueEv           @ -- Begin function _ZN2ot3Tlv8GetValueEv
	.globl	_ZN2ot3Tlv8GetValueEv
	.p2align	1
	.type	_ZN2ot3Tlv8GetValueEv,%function
	.code	16                              @ @_ZN2ot3Tlv8GetValueEv
	.thumb_func
_ZN2ot3Tlv8GetValueEv:
.Lfunc_begin13:
	.loc	30 48 0 is_stmt 1               @ ../../../components/network/thread/subg_openthread/src/core/common/tlvs.cpp:48:0
	.fnstart
	.cfi_startproc
@ %bb.0:
	@DEBUG_VALUE: GetValue:this <- $r0
	@DEBUG_VALUE: GetValue:this <- $r0
	@DEBUG_VALUE: IsExtended:this <- $r0
	.loc	20 89 43 prologue_end           @ ../../../components/network/thread/subg_openthread/src/core/common/tlvs.hpp:89:43
	ldrb	r1, [r0, #1]
	movs	r2, #2
.Ltmp117:
	.loc	30 49 49                        @ ../../../components/network/thread/subg_openthread/src/core/common/tlvs.cpp:49:49
	cmp	r1, #255
	it	eq
	moveq	r2, #4
	.loc	30 49 46 is_stmt 0              @ ../../../components/network/thread/subg_openthread/src/core/common/tlvs.cpp:49:46
	add	r0, r2
.Ltmp118:
	@DEBUG_VALUE: GetValue:this <- [DW_OP_LLVM_entry_value 1] $r0
	.loc	30 49 5                         @ ../../../components/network/thread/subg_openthread/src/core/common/tlvs.cpp:49:5
	bx	lr
.Ltmp119:
.Lfunc_end13:
	.size	_ZN2ot3Tlv8GetValueEv, .Lfunc_end13-_ZN2ot3Tlv8GetValueEv
	.cfi_endproc
	.cantunwind
	.fnend
                                        @ -- End function
	.section	.text._ZNK2ot3Tlv8GetValueEv,"ax",%progbits
	.hidden	_ZNK2ot3Tlv8GetValueEv          @ -- Begin function _ZNK2ot3Tlv8GetValueEv
	.globl	_ZNK2ot3Tlv8GetValueEv
	.p2align	1
	.type	_ZNK2ot3Tlv8GetValueEv,%function
	.code	16                              @ @_ZNK2ot3Tlv8GetValueEv
	.thumb_func
_ZNK2ot3Tlv8GetValueEv:
.Lfunc_begin14:
	.loc	30 53 0 is_stmt 1               @ ../../../components/network/thread/subg_openthread/src/core/common/tlvs.cpp:53:0
	.fnstart
	.cfi_startproc
@ %bb.0:
	@DEBUG_VALUE: GetValue:this <- $r0
	@DEBUG_VALUE: GetValue:this <- $r0
	@DEBUG_VALUE: IsExtended:this <- $r0
	.loc	20 89 43 prologue_end           @ ../../../components/network/thread/subg_openthread/src/core/common/tlvs.hpp:89:43
	ldrb	r1, [r0, #1]
	movs	r2, #2
.Ltmp120:
	.loc	30 54 55                        @ ../../../components/network/thread/subg_openthread/src/core/common/tlvs.cpp:54:55
	cmp	r1, #255
	it	eq
	moveq	r2, #4
	.loc	30 54 52 is_stmt 0              @ ../../../components/network/thread/subg_openthread/src/core/common/tlvs.cpp:54:52
	add	r0, r2
.Ltmp121:
	@DEBUG_VALUE: GetValue:this <- [DW_OP_LLVM_entry_value 1] $r0
	.loc	30 54 5                         @ ../../../components/network/thread/subg_openthread/src/core/common/tlvs.cpp:54:5
	bx	lr
.Ltmp122:
.Lfunc_end14:
	.size	_ZNK2ot3Tlv8GetValueEv, .Lfunc_end14-_ZNK2ot3Tlv8GetValueEv
	.cfi_endproc
	.cantunwind
	.fnend
                                        @ -- End function
	.section	.text._ZNK2ot3Tlv8AppendToERNS_7MessageE,"ax",%progbits
	.hidden	_ZNK2ot3Tlv8AppendToERNS_7MessageE @ -- Begin function _ZNK2ot3Tlv8AppendToERNS_7MessageE
	.globl	_ZNK2ot3Tlv8AppendToERNS_7MessageE
	.p2align	1
	.type	_ZNK2ot3Tlv8AppendToERNS_7MessageE,%function
	.code	16                              @ @_ZNK2ot3Tlv8AppendToERNS_7MessageE
	.thumb_func
_ZNK2ot3Tlv8AppendToERNS_7MessageE:
.Lfunc_begin15:
	.loc	30 57 0 is_stmt 1               @ ../../../components/network/thread/subg_openthread/src/core/common/tlvs.cpp:57:0
	.fnstart
	.cfi_startproc
@ %bb.0:
	@DEBUG_VALUE: AppendTo:this <- $r0
	@DEBUG_VALUE: AppendTo:aMessage <- $r1
	@DEBUG_VALUE: GetSize:this <- $r0
	@DEBUG_VALUE: IsExtended:this <- $r0
	.loc	20 89 43 prologue_end           @ ../../../components/network/thread/subg_openthread/src/core/common/tlvs.hpp:89:43
	ldrb	r2, [r0, #1]
	mov	r3, r0
.Ltmp123:
	@DEBUG_VALUE: IsExtended:this <- $r3
	@DEBUG_VALUE: GetSize:this <- $r3
	@DEBUG_VALUE: AppendTo:this <- $r3
	.loc	30 44 12                        @ ../../../components/network/thread/subg_openthread/src/core/common/tlvs.cpp:44:12
	cmp	r2, #255
	mov	r0, r1
.Ltmp124:
	@DEBUG_VALUE: AppendTo:aMessage <- $r0
	beq	.LBB15_2
.Ltmp125:
@ %bb.1:
	@DEBUG_VALUE: AppendTo:this <- $r3
	@DEBUG_VALUE: GetSize:this <- $r3
	@DEBUG_VALUE: AppendTo:aMessage <- $r0
	.loc	30 44 98 is_stmt 0              @ ../../../components/network/thread/subg_openthread/src/core/common/tlvs.cpp:44:98
	adds	r1, r2, #2
	b	.LBB15_3
.Ltmp126:
.LBB15_2:
	@DEBUG_VALUE: AppendTo:this <- $r3
	@DEBUG_VALUE: GetSize:this <- $r3
	@DEBUG_VALUE: AppendTo:aMessage <- $r0
	@DEBUG_VALUE: GetLength:this <- $r3
	.loc	20 537 56 is_stmt 1             @ ../../../components/network/thread/subg_openthread/src/core/common/tlvs.hpp:537:56
	ldrh	r1, [r3, #2]
	movs	r2, #4
	rev	r1, r1
.Ltmp127:
	.loc	30 44 47                        @ ../../../components/network/thread/subg_openthread/src/core/common/tlvs.cpp:44:47
	add.w	r1, r2, r1, lsr #16
.Ltmp128:
.LBB15_3:
	@DEBUG_VALUE: AppendTo:this <- $r3
	@DEBUG_VALUE: AppendTo:aMessage <- $r0
	.loc	30 57 64                        @ ../../../components/network/thread/subg_openthread/src/core/common/tlvs.cpp:57:64
	uxth	r2, r1
	mov	r1, r3
.Ltmp129:
	b	_ZN2ot7Message11AppendBytesEPKvt
.Ltmp130:
.Lfunc_end15:
	.size	_ZNK2ot3Tlv8AppendToERNS_7MessageE, .Lfunc_end15-_ZNK2ot3Tlv8AppendToERNS_7MessageE
	.cfi_endproc
	.cantunwind
	.fnend
                                        @ -- End function
	.section	.text._ZN2ot3Tlv7FindTlvERKNS_7MessageEhtRS0_,"ax",%progbits
	.hidden	_ZN2ot3Tlv7FindTlvERKNS_7MessageEhtRS0_ @ -- Begin function _ZN2ot3Tlv7FindTlvERKNS_7MessageEhtRS0_
	.globl	_ZN2ot3Tlv7FindTlvERKNS_7MessageEhtRS0_
	.p2align	1
	.type	_ZN2ot3Tlv7FindTlvERKNS_7MessageEhtRS0_,%function
	.code	16                              @ @_ZN2ot3Tlv7FindTlvERKNS_7MessageEhtRS0_
	.thumb_func
_ZN2ot3Tlv7FindTlvERKNS_7MessageEhtRS0_:
.Lfunc_begin16:
	.loc	30 60 0                         @ ../../../components/network/thread/subg_openthread/src/core/common/tlvs.cpp:60:0
	.fnstart
	.cfi_startproc
@ %bb.0:
	@DEBUG_VALUE: FindTlv:aMessage <- $r0
	@DEBUG_VALUE: FindTlv:aType <- $r1
	@DEBUG_VALUE: FindTlv:aMaxSize <- $r2
	@DEBUG_VALUE: FindTlv:aTlv <- $r3
	.save	{r4, r5, r6, r7, lr}
	push	{r4, r5, r6, r7, lr}
	.cfi_def_cfa_offset 20
	.cfi_offset lr, -4
	.cfi_offset r7, -8
	.cfi_offset r6, -12
	.cfi_offset r5, -16
	.cfi_offset r4, -20
	.pad	#12
	sub	sp, #12
	.cfi_def_cfa_offset 32
	mov	r6, r0
.Ltmp131:
	@DEBUG_VALUE: FindTlv:aMessage <- $r6
	@DEBUG_VALUE: FindTlv:aTlv <- $r4
	@DEBUG_VALUE: FindTlv:aMaxSize <- $r5
	@DEBUG_VALUE: FindTlv:aType <- $r2
	@DEBUG_VALUE: FindTlv:aMessage <- $r6
	mov	r5, r2
.Ltmp132:
	@DEBUG_VALUE: FindTlv:aType <- $r5
	mov	r2, r1
	mov	r0, sp
.Ltmp133:
	.loc	30 64 5 prologue_end            @ ../../../components/network/thread/subg_openthread/src/core/common/tlvs.cpp:64:5
	mov	r1, r6
.Ltmp134:
	@DEBUG_VALUE: FindTlv:aType <- $r2
	.loc	30 0 5 is_stmt 0                @ ../../../components/network/thread/subg_openthread/src/core/common/tlvs.cpp:0:5
	mov	r4, r3
.Ltmp135:
	.loc	30 64 5                         @ ../../../components/network/thread/subg_openthread/src/core/common/tlvs.cpp:64:5
	bl	_ZN2ot3Tlv10ParsedInfo6FindInERKNS_7MessageEh
.Ltmp136:
	mov	r7, r0
.Ltmp137:
	@DEBUG_VALUE: FindTlv:error <- $r7
	.loc	30 64 5                         @ ../../../components/network/thread/subg_openthread/src/core/common/tlvs.cpp:64:5
	cbnz	r0, .LBB16_2
.Ltmp138:
@ %bb.1:
	@DEBUG_VALUE: FindTlv:error <- $r7
	@DEBUG_VALUE: FindTlv:aMessage <- $r6
	.loc	30 66 25 is_stmt 1              @ ../../../components/network/thread/subg_openthread/src/core/common/tlvs.cpp:66:25
	ldrh.w	r0, [sp, #8]
.Ltmp139:
	.loc	30 71 29                        @ ../../../components/network/thread/subg_openthread/src/core/common/tlvs.cpp:71:29
	ldrh.w	r1, [sp, #4]
	.loc	30 66 9                         @ ../../../components/network/thread/subg_openthread/src/core/common/tlvs.cpp:66:9
	cmp	r0, r5
	it	lo
	movlo	r5, r0
.Ltmp140:
	@DEBUG_VALUE: FindTlv:aMaxSize <- $r5
	.loc	30 71 14                        @ ../../../components/network/thread/subg_openthread/src/core/common/tlvs.cpp:71:14
	mov	r0, r6
	mov	r2, r4
	mov	r3, r5
	bl	_ZNK2ot7Message9ReadBytesEtPvt
.Ltmp141:
.LBB16_2:
	@DEBUG_VALUE: FindTlv:error <- $r7
	@DEBUG_VALUE: FindTlv:aMessage <- $r6
	@DEBUG_LABEL: FindTlv:exit
	.loc	30 74 5                         @ ../../../components/network/thread/subg_openthread/src/core/common/tlvs.cpp:74:5
	mov	r0, r7
	add	sp, #12
	pop	{r4, r5, r6, r7, pc}
.Ltmp142:
.Lfunc_end16:
	.size	_ZN2ot3Tlv7FindTlvERKNS_7MessageEhtRS0_, .Lfunc_end16-_ZN2ot3Tlv7FindTlvERKNS_7MessageEhtRS0_
	.cfi_endproc
	.cantunwind
	.fnend
                                        @ -- End function
	.section	.text._ZN2ot3Tlv10ParsedInfo6FindInERKNS_7MessageEh,"ax",%progbits
	.hidden	_ZN2ot3Tlv10ParsedInfo6FindInERKNS_7MessageEh @ -- Begin function _ZN2ot3Tlv10ParsedInfo6FindInERKNS_7MessageEh
	.globl	_ZN2ot3Tlv10ParsedInfo6FindInERKNS_7MessageEh
	.p2align	1
	.type	_ZN2ot3Tlv10ParsedInfo6FindInERKNS_7MessageEh,%function
	.code	16                              @ @_ZN2ot3Tlv10ParsedInfo6FindInERKNS_7MessageEh
	.thumb_func
_ZN2ot3Tlv10ParsedInfo6FindInERKNS_7MessageEh:
.Lfunc_begin17:
	.loc	30 154 0                        @ ../../../components/network/thread/subg_openthread/src/core/common/tlvs.cpp:154:0
	.fnstart
	.cfi_startproc
@ %bb.0:
	@DEBUG_VALUE: FindIn:this <- $r0
	@DEBUG_VALUE: FindIn:aMessage <- $r1
	@DEBUG_VALUE: FindIn:aType <- $r2
	@DEBUG_VALUE: GetOffset:this <- $r1
	.save	{r4, r5, r6, r7, lr}
	push	{r4, r5, r6, r7, lr}
	.cfi_def_cfa_offset 20
	.cfi_offset lr, -4
	.cfi_offset r7, -8
	.cfi_offset r6, -12
	.cfi_offset r5, -16
	.cfi_offset r4, -20
	.pad	#4
	sub	sp, #4
	.cfi_def_cfa_offset 24
.Ltmp143:
	.loc	3 469 59 prologue_end           @ ../../../components/network/thread/subg_openthread/src/core\common/message.hpp:469:59
	ldrh	r6, [r1, #32]
.Ltmp144:
	@DEBUG_VALUE: FindIn:offset <- undef
	.loc	3 0 59 is_stmt 0                @ ../../../components/network/thread/subg_openthread/src/core\common/message.hpp:0:59
	mov	r4, r2
.Ltmp145:
	@DEBUG_VALUE: FindIn:aType <- $r4
	mov	r5, r1
.Ltmp146:
	@DEBUG_VALUE: GetOffset:this <- $r5
	@DEBUG_VALUE: FindIn:aType <- $r4
	@DEBUG_VALUE: FindIn:aMessage <- $r5
	mov	r7, r0
.Ltmp147:
	@DEBUG_VALUE: FindIn:error <- 23
	@DEBUG_VALUE: FindIn:this <- $r7
	.loc	30 166 9 is_stmt 1              @ ../../../components/network/thread/subg_openthread/src/core/common/tlvs.cpp:166:9
	mov	r2, r6
.Ltmp148:
	.p2align	2
.LBB17_1:                               @ =>This Inner Loop Header: Depth=1
	@DEBUG_VALUE: FindIn:this <- $r7
	@DEBUG_VALUE: FindIn:aMessage <- $r5
	@DEBUG_VALUE: FindIn:aType <- $r4
	@DEBUG_VALUE: FindIn:error <- 23
	bl	_ZN2ot3Tlv10ParsedInfo9ParseFromERKNS_7MessageEt
.Ltmp149:
	.loc	30 166 9 is_stmt 0              @ ../../../components/network/thread/subg_openthread/src/core/common/tlvs.cpp:166:9
	cbnz	r0, .LBB17_4
.Ltmp150:
@ %bb.2:                                @   in Loop: Header=BB17_1 Depth=1
	@DEBUG_VALUE: FindIn:this <- $r7
	@DEBUG_VALUE: FindIn:aMessage <- $r5
	@DEBUG_VALUE: FindIn:aType <- $r4
	@DEBUG_VALUE: FindIn:error <- 23
	@DEBUG_VALUE: FindIn:offset <- $r6
	.loc	30 168 13 is_stmt 1             @ ../../../components/network/thread/subg_openthread/src/core/common/tlvs.cpp:168:13
	ldrb	r0, [r7]
.Ltmp151:
	.loc	30 168 13 is_stmt 0             @ ../../../components/network/thread/subg_openthread/src/core/common/tlvs.cpp:168:13
	cmp	r0, r4
	beq	.LBB17_5
.Ltmp152:
@ %bb.3:                                @   in Loop: Header=BB17_1 Depth=1
	@DEBUG_VALUE: FindIn:this <- $r7
	@DEBUG_VALUE: FindIn:offset <- $r6
	@DEBUG_VALUE: FindIn:aMessage <- $r5
	@DEBUG_VALUE: FindIn:aType <- $r4
	@DEBUG_VALUE: FindIn:error <- 23
	.loc	30 178 19 is_stmt 1             @ ../../../components/network/thread/subg_openthread/src/core/common/tlvs.cpp:178:19
	ldrh	r0, [r7, #8]
.Ltmp153:
	.loc	30 166 9                        @ ../../../components/network/thread/subg_openthread/src/core/common/tlvs.cpp:166:9
	mov	r1, r5
.Ltmp154:
	.loc	30 178 16                       @ ../../../components/network/thread/subg_openthread/src/core/common/tlvs.cpp:178:16
	add	r6, r0
.Ltmp155:
	@DEBUG_VALUE: FindIn:offset <- $r6
	.loc	30 166 9                        @ ../../../components/network/thread/subg_openthread/src/core/common/tlvs.cpp:166:9
	uxth	r2, r6
	mov	r0, r7
	b	.LBB17_1
.Ltmp156:
.LBB17_4:
	@DEBUG_VALUE: FindIn:this <- $r7
	@DEBUG_VALUE: FindIn:aMessage <- $r5
	@DEBUG_VALUE: FindIn:aType <- $r4
	@DEBUG_VALUE: FindIn:error <- 23
	.loc	30 0 9 is_stmt 0                @ ../../../components/network/thread/subg_openthread/src/core/common/tlvs.cpp:0:9
	movs	r0, #23
	b	.LBB17_6
.Ltmp157:
.LBB17_5:
	@DEBUG_VALUE: FindIn:this <- $r7
	@DEBUG_VALUE: FindIn:offset <- $r6
	@DEBUG_VALUE: FindIn:aMessage <- $r5
	@DEBUG_VALUE: FindIn:aType <- $r4
	@DEBUG_VALUE: FindIn:error <- 23
	movs	r0, #0
.Ltmp158:
.LBB17_6:
	@DEBUG_VALUE: FindIn:this <- $r7
	@DEBUG_VALUE: FindIn:aMessage <- $r5
	@DEBUG_VALUE: FindIn:aType <- $r4
	@DEBUG_VALUE: FindIn:error <- 23
	@DEBUG_VALUE: FindIn:error <- $r0
	@DEBUG_LABEL: FindIn:exit
	.loc	30 182 5 is_stmt 1              @ ../../../components/network/thread/subg_openthread/src/core/common/tlvs.cpp:182:5
	add	sp, #4
	pop	{r4, r5, r6, r7, pc}
.Ltmp159:
.Lfunc_end17:
	.size	_ZN2ot3Tlv10ParsedInfo6FindInERKNS_7MessageEh, .Lfunc_end17-_ZN2ot3Tlv10ParsedInfo6FindInERKNS_7MessageEh
	.cfi_endproc
	.cantunwind
	.fnend
                                        @ -- End function
	.section	.text._ZN2ot3Tlv18FindTlvValueOffsetERKNS_7MessageEhRtS4_,"ax",%progbits
	.hidden	_ZN2ot3Tlv18FindTlvValueOffsetERKNS_7MessageEhRtS4_ @ -- Begin function _ZN2ot3Tlv18FindTlvValueOffsetERKNS_7MessageEhRtS4_
	.globl	_ZN2ot3Tlv18FindTlvValueOffsetERKNS_7MessageEhRtS4_
	.p2align	1
	.type	_ZN2ot3Tlv18FindTlvValueOffsetERKNS_7MessageEhRtS4_,%function
	.code	16                              @ @_ZN2ot3Tlv18FindTlvValueOffsetERKNS_7MessageEhRtS4_
	.thumb_func
_ZN2ot3Tlv18FindTlvValueOffsetERKNS_7MessageEhRtS4_:
.Lfunc_begin18:
	.loc	30 90 0                         @ ../../../components/network/thread/subg_openthread/src/core/common/tlvs.cpp:90:0
	.fnstart
	.cfi_startproc
@ %bb.0:
	@DEBUG_VALUE: FindTlvValueOffset:aMessage <- $r0
	@DEBUG_VALUE: FindTlvValueOffset:aType <- $r1
	@DEBUG_VALUE: FindTlvValueOffset:aValueOffset <- $r2
	@DEBUG_VALUE: FindTlvValueOffset:aLength <- $r3
	.save	{r4, r5, r7, lr}
	push	{r4, r5, r7, lr}
	.cfi_def_cfa_offset 16
	.cfi_offset lr, -4
	.cfi_offset r7, -8
	.cfi_offset r5, -12
	.cfi_offset r4, -16
	.pad	#16
	sub	sp, #16
	.cfi_def_cfa_offset 32
	mov	r5, r2
.Ltmp160:
	@DEBUG_VALUE: FindTlvValueOffset:aValueOffset <- $r5
	mov	r2, r1
	mov	r1, r0
.Ltmp161:
	@DEBUG_VALUE: FindTlvValueOffset:aType <- [DW_OP_LLVM_entry_value 1] $r1
	@DEBUG_VALUE: FindTlvValueOffset:aLength <- $r4
	@DEBUG_VALUE: FindTlvValueOffset:aValueOffset <- $r5
	@DEBUG_VALUE: FindTlvValueOffset:aType <- $r2
	@DEBUG_VALUE: FindTlvValueOffset:aMessage <- $r1
	add	r0, sp, #4
	@DEBUG_VALUE: FindTlvValueOffset:aType <- $r2
	@DEBUG_VALUE: FindTlvValueOffset:aMessage <- $r1
	mov	r4, r3
.Ltmp162:
	.loc	30 94 5 prologue_end            @ ../../../components/network/thread/subg_openthread/src/core/common/tlvs.cpp:94:5
	bl	_ZN2ot3Tlv10ParsedInfo6FindInERKNS_7MessageEh
.Ltmp163:
	@DEBUG_VALUE: FindTlvValueOffset:error <- $r0
	.loc	30 94 5 is_stmt 0               @ ../../../components/network/thread/subg_openthread/src/core/common/tlvs.cpp:94:5
	cbnz	r0, .LBB18_2
.Ltmp164:
@ %bb.1:
	@DEBUG_VALUE: FindTlvValueOffset:aValueOffset <- $r5
	@DEBUG_VALUE: FindTlvValueOffset:error <- $r0
	.loc	30 96 25 is_stmt 1              @ ../../../components/network/thread/subg_openthread/src/core/common/tlvs.cpp:96:25
	ldrh.w	r1, [sp, #10]
	.loc	30 97 25                        @ ../../../components/network/thread/subg_openthread/src/core/common/tlvs.cpp:97:25
	ldrh.w	r2, [sp, #6]
	.loc	30 96 18                        @ ../../../components/network/thread/subg_openthread/src/core/common/tlvs.cpp:96:18
	strh	r1, [r5]
	.loc	30 97 18                        @ ../../../components/network/thread/subg_openthread/src/core/common/tlvs.cpp:97:18
	strh	r2, [r4]
.Ltmp165:
.LBB18_2:
	@DEBUG_VALUE: FindTlvValueOffset:aValueOffset <- $r5
	@DEBUG_VALUE: FindTlvValueOffset:error <- $r0
	@DEBUG_LABEL: FindTlvValueOffset:exit
	.loc	30 100 5                        @ ../../../components/network/thread/subg_openthread/src/core/common/tlvs.cpp:100:5
	add	sp, #16
	pop	{r4, r5, r7, pc}
.Ltmp166:
.Lfunc_end18:
	.size	_ZN2ot3Tlv18FindTlvValueOffsetERKNS_7MessageEhRtS4_, .Lfunc_end18-_ZN2ot3Tlv18FindTlvValueOffsetERKNS_7MessageEhRtS4_
	.cfi_endproc
	.cantunwind
	.fnend
                                        @ -- End function
	.section	.text._ZN2ot3Tlv10ParsedInfo9ParseFromERKNS_7MessageEt,"ax",%progbits
	.hidden	_ZN2ot3Tlv10ParsedInfo9ParseFromERKNS_7MessageEt @ -- Begin function _ZN2ot3Tlv10ParsedInfo9ParseFromERKNS_7MessageEt
	.globl	_ZN2ot3Tlv10ParsedInfo9ParseFromERKNS_7MessageEt
	.p2align	1
	.type	_ZN2ot3Tlv10ParsedInfo9ParseFromERKNS_7MessageEt,%function
	.code	16                              @ @_ZN2ot3Tlv10ParsedInfo9ParseFromERKNS_7MessageEt
	.thumb_func
_ZN2ot3Tlv10ParsedInfo9ParseFromERKNS_7MessageEt:
.Lfunc_begin19:
	.loc	30 104 0                        @ ../../../components/network/thread/subg_openthread/src/core/common/tlvs.cpp:104:0
	.fnstart
	.cfi_startproc
@ %bb.0:
	@DEBUG_VALUE: ParseFrom:this <- $r0
	@DEBUG_VALUE: ParseFrom:aMessage <- $r1
	@DEBUG_VALUE: ParseFrom:aOffset <- $r2
	.save	{r4, r5, r6, lr}
	push	{r4, r5, r6, lr}
	.cfi_def_cfa_offset 16
	.cfi_offset lr, -4
	.cfi_offset r6, -8
	.cfi_offset r5, -12
	.cfi_offset r4, -16
	.pad	#8
	sub	sp, #8
	.cfi_def_cfa_offset 24
	mov	r5, r2
.Ltmp167:
	@DEBUG_VALUE: ParseFrom:aOffset <- $r5
	mov	r6, r1
	mov	r4, r0
.Ltmp168:
	@DEBUG_VALUE: ParseFrom:this <- $r4
	@DEBUG_VALUE: Read<ot::Tlv>:aObject <- [DW_OP_plus_uconst 4, DW_OP_stack_value] $sp
	@DEBUG_VALUE: Read<ot::Tlv>:aOffset <- undef
	@DEBUG_VALUE: Read<ot::Tlv>:this <- $r6
	@DEBUG_VALUE: ParseFrom:aOffset <- $r5
	@DEBUG_VALUE: ParseFrom:aMessage <- $r6
	@DEBUG_VALUE: ParseFrom:this <- $r4
	add	r2, sp, #4
.Ltmp169:
	.loc	3 769 16 prologue_end           @ ../../../components/network/thread/subg_openthread/src/core\common/message.hpp:769:16
	mov	r0, r1
	mov	r1, r5
	movs	r3, #2
	bl	_ZNK2ot7Message4ReadEtPvt
.Ltmp170:
	@DEBUG_VALUE: ParseFrom:error <- $r0
	.loc	30 116 5                        @ ../../../components/network/thread/subg_openthread/src/core/common/tlvs.cpp:116:5
	cbz	r0, .LBB19_2
.Ltmp171:
.LBB19_1:
	@DEBUG_VALUE: ParseFrom:aMessage <- $r6
	@DEBUG_VALUE: ParseFrom:aOffset <- $r5
	@DEBUG_VALUE: ParseFrom:this <- $r4
	@DEBUG_VALUE: ParseFrom:error <- $r0
	@DEBUG_LABEL: ParseFrom:exit
	.loc	30 150 5                        @ ../../../components/network/thread/subg_openthread/src/core/common/tlvs.cpp:150:5
	add	sp, #8
	pop	{r4, r5, r6, pc}
.Ltmp172:
.LBB19_2:
	@DEBUG_VALUE: ParseFrom:aMessage <- $r6
	@DEBUG_VALUE: ParseFrom:aOffset <- $r5
	@DEBUG_VALUE: ParseFrom:this <- $r4
	@DEBUG_VALUE: ParseFrom:error <- $r0
	@DEBUG_VALUE: IsExtended:this <- [DW_OP_plus_uconst 4, DW_OP_stack_value] $sp
	.loc	20 89 43                        @ ../../../components/network/thread/subg_openthread/src/core/common/tlvs.hpp:89:43
	ldrb.w	r0, [sp, #5]
.Ltmp173:
	.loc	30 118 9                        @ ../../../components/network/thread/subg_openthread/src/core/common/tlvs.cpp:118:9
	cmp	r0, #255
	beq	.LBB19_6
.Ltmp174:
@ %bb.3:
	@DEBUG_VALUE: ParseFrom:aMessage <- $r6
	@DEBUG_VALUE: ParseFrom:aOffset <- $r5
	@DEBUG_VALUE: ParseFrom:this <- $r4
	@DEBUG_VALUE: GetType:this <- [DW_OP_plus_uconst 4, DW_OP_stack_value] $sp
	.loc	20 72 42                        @ ../../../components/network/thread/subg_openthread/src/core/common/tlvs.hpp:72:42
	ldrb.w	r1, [sp, #4]
.Ltmp175:
	.loc	30 120 20                       @ ../../../components/network/thread/subg_openthread/src/core/common/tlvs.cpp:120:20
	strb	r1, [r4]
	movs	r1, #2
.Ltmp176:
	@DEBUG_VALUE: ParseFrom:headerSize <- 2
.LBB19_4:
	@DEBUG_VALUE: ParseFrom:aMessage <- $r6
	@DEBUG_VALUE: ParseFrom:aOffset <- $r5
	@DEBUG_VALUE: ParseFrom:this <- $r4
	.loc	3 444 59                        @ ../../../components/network/thread/subg_openthread/src/core\common/message.hpp:444:59
	ldrh	r3, [r6, #30]
.Ltmp177:
	.loc	30 138 5                        @ ../../../components/network/thread/subg_openthread/src/core/common/tlvs.cpp:138:5
	adds	r2, r1, r5
	subs	r3, r3, r2
.Ltmp178:
	.loc	30 138 5 is_stmt 0              @ ../../../components/network/thread/subg_openthread/src/core/common/tlvs.cpp:138:5
	cmp	r3, r0
.Ltmp179:
	.loc	30 0 0                          @ ../../../components/network/thread/subg_openthread/src/core/common/tlvs.cpp:0:0
	strh	r0, [r4, #2]
.Ltmp180:
	@DEBUG_VALUE: GetLength:this <- undef
	@DEBUG_VALUE: ParseFrom:headerSize <- undef
	@DEBUG_VALUE: ParseFrom:error <- 0
	.loc	30 138 5                        @ ../../../components/network/thread/subg_openthread/src/core/common/tlvs.cpp:138:5
	bge	.LBB19_8
.Ltmp181:
@ %bb.5:
	@DEBUG_VALUE: ParseFrom:aMessage <- $r6
	@DEBUG_VALUE: ParseFrom:aOffset <- $r5
	@DEBUG_VALUE: ParseFrom:this <- $r4
	@DEBUG_VALUE: ParseFrom:error <- 0
	.loc	30 0 5                          @ ../../../components/network/thread/subg_openthread/src/core/common/tlvs.cpp:0:5
	movs	r0, #6
	b	.LBB19_1
.Ltmp182:
.LBB19_6:
	@DEBUG_VALUE: ParseFrom:aMessage <- $r6
	@DEBUG_VALUE: ParseFrom:aOffset <- $r5
	@DEBUG_VALUE: ParseFrom:this <- $r4
	@DEBUG_VALUE: Read<ot::ExtendedTlv>:this <- $r6
	@DEBUG_VALUE: Read<ot::ExtendedTlv>:aOffset <- $r5
	@DEBUG_VALUE: Read<ot::ExtendedTlv>:aObject <- $sp
	mov	r2, sp
.Ltmp183:
	.loc	3 769 16 is_stmt 1              @ ../../../components/network/thread/subg_openthread/src/core\common/message.hpp:769:16
	mov	r0, r6
	mov	r1, r5
	movs	r3, #4
	bl	_ZNK2ot7Message4ReadEtPvt
.Ltmp184:
	@DEBUG_VALUE: ParseFrom:error <- $r0
	.loc	30 126 9                        @ ../../../components/network/thread/subg_openthread/src/core/common/tlvs.cpp:126:9
	cmp	r0, #0
	bne	.LBB19_1
.Ltmp185:
@ %bb.7:
	@DEBUG_VALUE: ParseFrom:aMessage <- $r6
	@DEBUG_VALUE: ParseFrom:aOffset <- $r5
	@DEBUG_VALUE: ParseFrom:this <- $r4
	@DEBUG_VALUE: ParseFrom:error <- $r0
	@DEBUG_VALUE: GetType:this <- $sp
	.loc	20 72 42                        @ ../../../components/network/thread/subg_openthread/src/core/common/tlvs.hpp:72:42
	ldrb.w	r0, [sp]
.Ltmp186:
	.loc	20 537 56                       @ ../../../components/network/thread/subg_openthread/src/core/common/tlvs.hpp:537:56
	ldrh.w	r1, [sp, #2]
.Ltmp187:
	.loc	30 128 20                       @ ../../../components/network/thread/subg_openthread/src/core/common/tlvs.cpp:128:20
	strb	r0, [r4]
	@DEBUG_VALUE: GetLength:this <- $sp
	rev	r0, r1
	lsrs	r0, r0, #16
	movs	r1, #4
.Ltmp188:
	@DEBUG_VALUE: ParseFrom:headerSize <- 4
	.loc	30 0 20 is_stmt 0               @ ../../../components/network/thread/subg_openthread/src/core/common/tlvs.cpp:0:20
	b	.LBB19_4
.Ltmp189:
.LBB19_8:
	@DEBUG_VALUE: ParseFrom:aMessage <- $r6
	@DEBUG_VALUE: ParseFrom:aOffset <- $r5
	@DEBUG_VALUE: ParseFrom:this <- $r4
	@DEBUG_VALUE: ParseFrom:error <- 0
	@DEBUG_VALUE: GetType:this <- [DW_OP_plus_uconst 4, DW_OP_stack_value] $sp
	.loc	20 72 42 is_stmt 1              @ ../../../components/network/thread/subg_openthread/src/core/common/tlvs.hpp:72:42
	ldrb.w	r3, [sp, #4]
.Ltmp190:
	.loc	30 147 20                       @ ../../../components/network/thread/subg_openthread/src/core/common/tlvs.cpp:147:20
	add	r0, r1
	.loc	30 147 18 is_stmt 0             @ ../../../components/network/thread/subg_openthread/src/core/common/tlvs.cpp:147:18
	strh	r0, [r4, #8]
	movs	r0, #0
	.loc	30 144 18 is_stmt 1             @ ../../../components/network/thread/subg_openthread/src/core/common/tlvs.cpp:144:18
	strb	r3, [r4]
	.loc	30 145 18                       @ ../../../components/network/thread/subg_openthread/src/core/common/tlvs.cpp:145:18
	strh	r5, [r4, #4]
	.loc	30 146 18                       @ ../../../components/network/thread/subg_openthread/src/core/common/tlvs.cpp:146:18
	strh	r2, [r4, #6]
	b	.LBB19_1
.Ltmp191:
.Lfunc_end19:
	.size	_ZN2ot3Tlv10ParsedInfo9ParseFromERKNS_7MessageEt, .Lfunc_end19-_ZN2ot3Tlv10ParsedInfo9ParseFromERKNS_7MessageEt
	.cfi_endproc
	.cantunwind
	.fnend
                                        @ -- End function
	.section	.text._ZN2ot3Tlv13ReadStringTlvERKNS_7MessageEthPc,"ax",%progbits
	.hidden	_ZN2ot3Tlv13ReadStringTlvERKNS_7MessageEthPc @ -- Begin function _ZN2ot3Tlv13ReadStringTlvERKNS_7MessageEthPc
	.globl	_ZN2ot3Tlv13ReadStringTlvERKNS_7MessageEthPc
	.p2align	1
	.type	_ZN2ot3Tlv13ReadStringTlvERKNS_7MessageEthPc,%function
	.code	16                              @ @_ZN2ot3Tlv13ReadStringTlvERKNS_7MessageEthPc
	.thumb_func
_ZN2ot3Tlv13ReadStringTlvERKNS_7MessageEthPc:
.Lfunc_begin20:
	.loc	30 186 0                        @ ../../../components/network/thread/subg_openthread/src/core/common/tlvs.cpp:186:0
	.fnstart
	.cfi_startproc
@ %bb.0:
	@DEBUG_VALUE: ReadStringTlv:aMessage <- $r0
	@DEBUG_VALUE: ReadStringTlv:aOffset <- $r1
	@DEBUG_VALUE: ReadStringTlv:aMaxStringLength <- $r2
	@DEBUG_VALUE: ReadStringTlv:aValue <- $r3
	.save	{r4, r5, r6, r7, lr}
	push	{r4, r5, r6, r7, lr}
	.cfi_def_cfa_offset 20
	.cfi_offset lr, -4
	.cfi_offset r7, -8
	.cfi_offset r6, -12
	.cfi_offset r5, -16
	.cfi_offset r4, -20
	.pad	#12
	sub	sp, #12
	.cfi_def_cfa_offset 32
	mov	r7, r0
.Ltmp192:
	@DEBUG_VALUE: ReadStringTlv:aMessage <- $r7
	@DEBUG_VALUE: ReadStringTlv:error <- 0
	@DEBUG_VALUE: ReadStringTlv:aValue <- $r4
	@DEBUG_VALUE: ReadStringTlv:aMaxStringLength <- $r5
	@DEBUG_VALUE: ReadStringTlv:aOffset <- $r2
	@DEBUG_VALUE: ReadStringTlv:aMessage <- $r7
	mov	r5, r2
.Ltmp193:
	@DEBUG_VALUE: ReadStringTlv:aOffset <- $r5
	mov	r2, r1
	mov	r0, sp
.Ltmp194:
	.loc	30 191 5 prologue_end           @ ../../../components/network/thread/subg_openthread/src/core/common/tlvs.cpp:191:5
	mov	r1, r7
.Ltmp195:
	@DEBUG_VALUE: ReadStringTlv:aOffset <- $r2
	.loc	30 0 5 is_stmt 0                @ ../../../components/network/thread/subg_openthread/src/core/common/tlvs.cpp:0:5
	mov	r4, r3
.Ltmp196:
	.loc	30 191 5                        @ ../../../components/network/thread/subg_openthread/src/core/common/tlvs.cpp:191:5
	bl	_ZN2ot3Tlv10ParsedInfo9ParseFromERKNS_7MessageEt
.Ltmp197:
	mov	r6, r0
.Ltmp198:
	@DEBUG_VALUE: ReadStringTlv:error <- $r6
	.loc	30 191 5                        @ ../../../components/network/thread/subg_openthread/src/core/common/tlvs.cpp:191:5
	cbnz	r0, .LBB20_2
.Ltmp199:
@ %bb.1:
	@DEBUG_VALUE: ReadStringTlv:aMessage <- $r7
	@DEBUG_VALUE: ReadStringTlv:error <- $r6
	.loc	30 193 23 is_stmt 1             @ ../../../components/network/thread/subg_openthread/src/core/common/tlvs.cpp:193:23
	ldrh.w	r0, [sp, #2]
.Ltmp200:
	@DEBUG_VALUE: Min<unsigned short>:aSecond <- undef
	@DEBUG_VALUE: Min<unsigned short>:aFirst <- undef
	.loc	30 195 29                       @ ../../../components/network/thread/subg_openthread/src/core/common/tlvs.cpp:195:29
	ldrh.w	r1, [sp, #6]
.Ltmp201:
	.file	32 "C:\\Users\\testo\\Desktop\\rafael-iot-sdk-das -0515\\examples\\das_subg_thread\\keil" "../../../components/network/thread/subg_openthread/src/core\\common/num_utils.hpp"
	.loc	32 55 71                        @ ../../../components/network/thread/subg_openthread/src/core\common/num_utils.hpp:55:71
	cmp	r0, r5
	it	lo
	movlo	r5, r0
.Ltmp202:
	@DEBUG_VALUE: ReadStringTlv:length <- $r5
	.loc	30 195 14                       @ ../../../components/network/thread/subg_openthread/src/core/common/tlvs.cpp:195:14
	mov	r0, r7
	mov	r2, r4
	mov	r3, r5
	bl	_ZNK2ot7Message9ReadBytesEtPvt
.Ltmp203:
	.loc	30 0 14 is_stmt 0               @ ../../../components/network/thread/subg_openthread/src/core/common/tlvs.cpp:0:14
	movs	r0, #0
	.loc	30 196 20 is_stmt 1             @ ../../../components/network/thread/subg_openthread/src/core/common/tlvs.cpp:196:20
	strb	r0, [r4, r5]
.Ltmp204:
.LBB20_2:
	@DEBUG_VALUE: ReadStringTlv:aMessage <- $r7
	@DEBUG_VALUE: ReadStringTlv:error <- $r6
	@DEBUG_LABEL: ReadStringTlv:exit
	.loc	30 199 5                        @ ../../../components/network/thread/subg_openthread/src/core/common/tlvs.cpp:199:5
	mov	r0, r6
	add	sp, #12
	pop	{r4, r5, r6, r7, pc}
.Ltmp205:
.Lfunc_end20:
	.size	_ZN2ot3Tlv13ReadStringTlvERKNS_7MessageEthPc, .Lfunc_end20-_ZN2ot3Tlv13ReadStringTlvERKNS_7MessageEthPc
	.cfi_endproc
	.cantunwind
	.fnend
                                        @ -- End function
	.section	.text._ZN2ot3Tlv13FindStringTlvERKNS_7MessageEhhPc,"ax",%progbits
	.hidden	_ZN2ot3Tlv13FindStringTlvERKNS_7MessageEhhPc @ -- Begin function _ZN2ot3Tlv13FindStringTlvERKNS_7MessageEhhPc
	.globl	_ZN2ot3Tlv13FindStringTlvERKNS_7MessageEhhPc
	.p2align	1
	.type	_ZN2ot3Tlv13FindStringTlvERKNS_7MessageEhhPc,%function
	.code	16                              @ @_ZN2ot3Tlv13FindStringTlvERKNS_7MessageEhhPc
	.thumb_func
_ZN2ot3Tlv13FindStringTlvERKNS_7MessageEhhPc:
.Lfunc_begin21:
	.loc	30 234 0                        @ ../../../components/network/thread/subg_openthread/src/core/common/tlvs.cpp:234:0
	.fnstart
	.cfi_startproc
@ %bb.0:
	@DEBUG_VALUE: FindStringTlv:aMessage <- $r0
	@DEBUG_VALUE: FindStringTlv:aType <- $r1
	@DEBUG_VALUE: FindStringTlv:aMaxStringLength <- $r2
	@DEBUG_VALUE: FindStringTlv:aValue <- $r3
	.save	{r4, r5, r6, lr}
	push	{r4, r5, r6, lr}
	.cfi_def_cfa_offset 16
	.cfi_offset lr, -4
	.cfi_offset r6, -8
	.cfi_offset r5, -12
	.cfi_offset r4, -16
	.pad	#16
	sub	sp, #16
	.cfi_def_cfa_offset 32
	mov	r6, r0
.Ltmp206:
	@DEBUG_VALUE: FindStringTlv:aMessage <- $r6
	@DEBUG_VALUE: FindTlvOffset:aOffset <- undef
	@DEBUG_VALUE: FindTlvOffset:aType <- undef
	@DEBUG_VALUE: FindStringTlv:error <- 0
	@DEBUG_VALUE: FindTlvOffset:aMessage <- $r6
	@DEBUG_VALUE: FindStringTlv:aValue <- $r4
	@DEBUG_VALUE: FindStringTlv:aMaxStringLength <- $r5
	@DEBUG_VALUE: FindStringTlv:aType <- $r2
	@DEBUG_VALUE: FindStringTlv:aMessage <- $r6
	mov	r5, r2
.Ltmp207:
	@DEBUG_VALUE: FindStringTlv:aType <- $r5
	mov	r2, r1
	add	r0, sp, #4
.Ltmp208:
	.loc	30 82 5 prologue_end            @ ../../../components/network/thread/subg_openthread/src/core/common/tlvs.cpp:82:5
	mov	r1, r6
.Ltmp209:
	@DEBUG_VALUE: FindStringTlv:aType <- $r2
	.loc	30 0 5 is_stmt 0                @ ../../../components/network/thread/subg_openthread/src/core/common/tlvs.cpp:0:5
	mov	r4, r3
.Ltmp210:
	.loc	30 82 5                         @ ../../../components/network/thread/subg_openthread/src/core/common/tlvs.cpp:82:5
	bl	_ZN2ot3Tlv10ParsedInfo6FindInERKNS_7MessageEh
.Ltmp211:
	@DEBUG_VALUE: FindTlvOffset:error <- $r0
	.loc	30 82 5                         @ ../../../components/network/thread/subg_openthread/src/core/common/tlvs.cpp:82:5
	cbz	r0, .LBB21_2
.Ltmp212:
@ %bb.1:
	@DEBUG_VALUE: FindStringTlv:aMessage <- $r6
	@DEBUG_VALUE: FindStringTlv:error <- 0
	@DEBUG_VALUE: FindStringTlv:error <- $r0
	@DEBUG_LABEL: FindTlvOffset:exit
	@DEBUG_LABEL: FindStringTlv:exit
	.loc	30 242 5 is_stmt 1              @ ../../../components/network/thread/subg_openthread/src/core/common/tlvs.cpp:242:5
	add	sp, #16
	pop	{r4, r5, r6, pc}
.Ltmp213:
.LBB21_2:
	@DEBUG_VALUE: FindTlvOffset:aMessage <- $r6
	@DEBUG_VALUE: FindStringTlv:aMessage <- $r6
	@DEBUG_VALUE: FindTlvOffset:error <- $r0
	@DEBUG_VALUE: FindStringTlv:error <- 0
	@DEBUG_VALUE: FindStringTlv:aMaxStringLength <- $r5
	.loc	30 83 20                        @ ../../../components/network/thread/subg_openthread/src/core/common/tlvs.cpp:83:20
	ldrh.w	r1, [sp, #8]
.Ltmp214:
	@DEBUG_LABEL: FindTlvOffset:exit
	@DEBUG_VALUE: FindStringTlv:offset <- undef
	@DEBUG_VALUE: FindStringTlv:error <- undef
	.loc	30 239 13                       @ ../../../components/network/thread/subg_openthread/src/core/common/tlvs.cpp:239:13
	mov	r0, r6
.Ltmp215:
	mov	r2, r5
	mov	r3, r4
	add	sp, #16
	pop.w	{r4, r5, r6, lr}
.Ltmp216:
	b	_ZN2ot3Tlv13ReadStringTlvERKNS_7MessageEthPc
.Ltmp217:
.Lfunc_end21:
	.size	_ZN2ot3Tlv13FindStringTlvERKNS_7MessageEhhPc, .Lfunc_end21-_ZN2ot3Tlv13FindStringTlvERKNS_7MessageEhhPc
	.cfi_endproc
	.cantunwind
	.fnend
                                        @ -- End function
	.section	.text._ZN2ot3Tlv7FindTlvERKNS_7MessageEhPvh,"ax",%progbits
	.hidden	_ZN2ot3Tlv7FindTlvERKNS_7MessageEhPvh @ -- Begin function _ZN2ot3Tlv7FindTlvERKNS_7MessageEhPvh
	.globl	_ZN2ot3Tlv7FindTlvERKNS_7MessageEhPvh
	.p2align	1
	.type	_ZN2ot3Tlv7FindTlvERKNS_7MessageEhPvh,%function
	.code	16                              @ @_ZN2ot3Tlv7FindTlvERKNS_7MessageEhPvh
	.thumb_func
_ZN2ot3Tlv7FindTlvERKNS_7MessageEhPvh:
.Lfunc_begin22:
	.loc	30 263 0                        @ ../../../components/network/thread/subg_openthread/src/core/common/tlvs.cpp:263:0
	.fnstart
	.cfi_startproc
@ %bb.0:
	@DEBUG_VALUE: FindTlv:aMessage <- $r0
	@DEBUG_VALUE: FindTlv:aType <- $r1
	@DEBUG_VALUE: FindTlv:aValue <- $r2
	@DEBUG_VALUE: FindTlv:aLength <- $r3
	.save	{r4, r5, r6, lr}
	push	{r4, r5, r6, lr}
	.cfi_def_cfa_offset 16
	.cfi_offset lr, -4
	.cfi_offset r6, -8
	.cfi_offset r5, -12
	.cfi_offset r4, -16
	.pad	#16
	sub	sp, #16
	.cfi_def_cfa_offset 32
	mov	r6, r0
.Ltmp218:
	@DEBUG_VALUE: FindTlv:aMessage <- $r6
	@DEBUG_VALUE: FindTlvValueOffset:aLength <- undef
	@DEBUG_VALUE: FindTlvValueOffset:aValueOffset <- undef
	@DEBUG_VALUE: FindTlvValueOffset:aType <- undef
	@DEBUG_VALUE: FindTlvValueOffset:aMessage <- $r6
	@DEBUG_VALUE: FindTlv:aLength <- $r4
	@DEBUG_VALUE: FindTlv:aValue <- $r5
	@DEBUG_VALUE: FindTlv:aType <- $r2
	@DEBUG_VALUE: FindTlv:aMessage <- $r6
	mov	r5, r2
.Ltmp219:
	@DEBUG_VALUE: FindTlv:aType <- $r5
	mov	r2, r1
	add	r0, sp, #4
.Ltmp220:
	.loc	30 94 5 prologue_end            @ ../../../components/network/thread/subg_openthread/src/core/common/tlvs.cpp:94:5
	mov	r1, r6
.Ltmp221:
	@DEBUG_VALUE: FindTlv:aType <- $r2
	.loc	30 0 5 is_stmt 0                @ ../../../components/network/thread/subg_openthread/src/core/common/tlvs.cpp:0:5
	mov	r4, r3
.Ltmp222:
	.loc	30 94 5                         @ ../../../components/network/thread/subg_openthread/src/core/common/tlvs.cpp:94:5
	bl	_ZN2ot3Tlv10ParsedInfo6FindInERKNS_7MessageEh
.Ltmp223:
	@DEBUG_VALUE: FindTlvValueOffset:error <- $r0
	.loc	30 94 5                         @ ../../../components/network/thread/subg_openthread/src/core/common/tlvs.cpp:94:5
	cbnz	r0, .LBB22_4
.Ltmp224:
@ %bb.1:
	@DEBUG_VALUE: FindTlvValueOffset:aMessage <- $r6
	@DEBUG_VALUE: FindTlv:aMessage <- $r6
	@DEBUG_VALUE: FindTlvValueOffset:error <- $r0
	@DEBUG_VALUE: FindTlv:aLength <- $r4
	.loc	30 97 25 is_stmt 1              @ ../../../components/network/thread/subg_openthread/src/core/common/tlvs.cpp:97:25
	ldrh.w	r0, [sp, #6]
.Ltmp225:
	@DEBUG_LABEL: FindTlvValueOffset:exit
	@DEBUG_VALUE: FindTlv:length <- undef
	@DEBUG_VALUE: FindTlv:error <- undef
	.loc	30 269 5                        @ ../../../components/network/thread/subg_openthread/src/core/common/tlvs.cpp:269:5
	cmp	r0, r4
	bhs	.LBB22_3
.Ltmp226:
@ %bb.2:
	@DEBUG_VALUE: FindTlvValueOffset:aMessage <- $r6
	@DEBUG_VALUE: FindTlv:aMessage <- $r6
	@DEBUG_VALUE: FindTlv:aLength <- $r4
	.loc	30 0 5 is_stmt 0                @ ../../../components/network/thread/subg_openthread/src/core/common/tlvs.cpp:0:5
	movs	r0, #6
	b	.LBB22_4
.Ltmp227:
.LBB22_3:
	@DEBUG_VALUE: FindTlv:aMessage <- $r6
	@DEBUG_VALUE: FindTlv:aLength <- $r4
	@DEBUG_VALUE: FindTlv:aLength <- $r4
	ldrh.w	r1, [sp, #10]
.Ltmp228:
	@DEBUG_VALUE: FindTlv:offset <- undef
	.loc	30 270 14 is_stmt 1             @ ../../../components/network/thread/subg_openthread/src/core/common/tlvs.cpp:270:14
	mov	r0, r6
	mov	r2, r5
	mov	r3, r4
	bl	_ZNK2ot7Message9ReadBytesEtPvt
.Ltmp229:
	.loc	30 0 14 is_stmt 0               @ ../../../components/network/thread/subg_openthread/src/core/common/tlvs.cpp:0:14
	movs	r0, #0
.Ltmp230:
.LBB22_4:
	@DEBUG_VALUE: FindTlv:aMessage <- $r6
	@DEBUG_VALUE: FindTlv:error <- $r0
	@DEBUG_LABEL: FindTlv:exit
	.loc	30 273 5 is_stmt 1              @ ../../../components/network/thread/subg_openthread/src/core/common/tlvs.cpp:273:5
	add	sp, #16
	pop	{r4, r5, r6, pc}
.Ltmp231:
.Lfunc_end22:
	.size	_ZN2ot3Tlv7FindTlvERKNS_7MessageEhPvh, .Lfunc_end22-_ZN2ot3Tlv7FindTlvERKNS_7MessageEhPvh
	.cfi_endproc
	.cantunwind
	.fnend
                                        @ -- End function
	.section	.text._ZN2ot3Tlv15AppendStringTlvERNS_7MessageEhhPKc,"ax",%progbits
	.hidden	_ZN2ot3Tlv15AppendStringTlvERNS_7MessageEhhPKc @ -- Begin function _ZN2ot3Tlv15AppendStringTlvERNS_7MessageEhhPKc
	.globl	_ZN2ot3Tlv15AppendStringTlvERNS_7MessageEhhPKc
	.p2align	1
	.type	_ZN2ot3Tlv15AppendStringTlvERNS_7MessageEhhPKc,%function
	.code	16                              @ @_ZN2ot3Tlv15AppendStringTlvERNS_7MessageEhhPKc
	.thumb_func
_ZN2ot3Tlv15AppendStringTlvERNS_7MessageEhhPKc:
.Lfunc_begin23:
	.loc	30 277 0                        @ ../../../components/network/thread/subg_openthread/src/core/common/tlvs.cpp:277:0
	.fnstart
	.cfi_startproc
@ %bb.0:
	@DEBUG_VALUE: AppendStringTlv:aMessage <- $r0
	@DEBUG_VALUE: AppendStringTlv:aType <- $r1
	@DEBUG_VALUE: AppendStringTlv:aMaxStringLength <- $r2
	@DEBUG_VALUE: AppendStringTlv:aValue <- $r3
	.save	{r4, r5, r6, lr}
	push	{r4, r5, r6, lr}
	.cfi_def_cfa_offset 16
	.cfi_offset lr, -4
	.cfi_offset r6, -8
	.cfi_offset r5, -12
	.cfi_offset r4, -16
	mov	r4, r3
	mov	r5, r1
.Ltmp232:
	@DEBUG_VALUE: AppendStringTlv:aType <- $r5
	@DEBUG_VALUE: AppendStringTlv:aValue <- $r4
	@DEBUG_VALUE: AppendStringTlv:aMaxStringLength <- $r2
	@DEBUG_VALUE: AppendStringTlv:aType <- $r5
	mov	r6, r0
.Ltmp233:
	@DEBUG_VALUE: AppendStringTlv:aMessage <- $r6
	@DEBUG_VALUE: AppendStringTlv:aMessage <- $r6
	.loc	30 278 23 prologue_end          @ ../../../components/network/thread/subg_openthread/src/core/common/tlvs.cpp:278:23
	cbz	r3, .LBB23_2
.Ltmp234:
@ %bb.1:
	@DEBUG_VALUE: AppendStringTlv:aMessage <- $r6
	@DEBUG_VALUE: AppendStringTlv:aType <- $r5
	@DEBUG_VALUE: AppendStringTlv:aValue <- $r4
	@DEBUG_VALUE: AppendStringTlv:aMaxStringLength <- $r2
	@DEBUG_VALUE: AppendStringTlv:aMaxStringLength <- $r2
	.loc	30 278 49 is_stmt 0             @ ../../../components/network/thread/subg_openthread/src/core/common/tlvs.cpp:278:49
	mov	r0, r4
	mov	r1, r2
	bl	_ZN2ot12StringLengthEPKct
.Ltmp235:
	@DEBUG_VALUE: AppendStringTlv:aMaxStringLength <- [DW_OP_LLVM_entry_value 1] $r2
	.loc	30 0 49                         @ ../../../components/network/thread/subg_openthread/src/core/common/tlvs.cpp:0:49
	b	.LBB23_3
.Ltmp236:
.LBB23_2:
	@DEBUG_VALUE: AppendStringTlv:aMessage <- $r6
	@DEBUG_VALUE: AppendStringTlv:aType <- $r5
	@DEBUG_VALUE: AppendStringTlv:aValue <- $r4
	@DEBUG_VALUE: AppendStringTlv:aMaxStringLength <- $r2
	movs	r0, #0
.Ltmp237:
.LBB23_3:
	@DEBUG_VALUE: AppendStringTlv:aMessage <- $r6
	@DEBUG_VALUE: AppendStringTlv:aType <- $r5
	@DEBUG_VALUE: AppendStringTlv:aValue <- $r4
	@DEBUG_VALUE: AppendStringTlv:length <- undef
	.loc	30 280 12 is_stmt 1             @ ../../../components/network/thread/subg_openthread/src/core/common/tlvs.cpp:280:12
	uxtb	r3, r0
	mov	r0, r6
	mov	r1, r5
	mov	r2, r4
	pop.w	{r4, r5, r6, lr}
.Ltmp238:
	@DEBUG_VALUE: AppendStringTlv:aMessage <- [DW_OP_LLVM_entry_value 1] $r0
	b	_ZN2ot3Tlv9AppendTlvERNS_7MessageEhPKvh
.Ltmp239:
.Lfunc_end23:
	.size	_ZN2ot3Tlv15AppendStringTlvERNS_7MessageEhhPKc, .Lfunc_end23-_ZN2ot3Tlv15AppendStringTlvERNS_7MessageEhhPKc
	.cfi_endproc
	.cantunwind
	.fnend
                                        @ -- End function
	.type	.L.str,%object                  @ @.str
	.section	.rodata.str1.1,"aMS",%progbits,1
.L.str:
	.asciz	"../../../components/network/thread/subg_openthread/src/core/common/tlvs.cpp"
	.size	.L.str, 76
