	.text
	.syntax unified
	.eabi_attribute	67, "2.09"	@ Tag_conformance
	.cpu	cortex-m3
	.eabi_attribute	6, 10	@ Tag_CPU_arch
	.eabi_attribute	7, 77	@ Tag_CPU_arch_profile
	.eabi_attribute	8, 0	@ Tag_ARM_ISA_use
	.eabi_attribute	9, 2	@ Tag_THUMB_ISA_use
	.eabi_attribute	34, 1	@ Tag_CPU_unaligned_access
	.eabi_attribute	17, 1	@ Tag_ABI_PCS_GOT_use
	.eabi_attribute	20, 2	@ Tag_ABI_FP_denormal
	.eabi_attribute	21, 0	@ Tag_ABI_FP_exceptions
	.eabi_attribute	23, 1	@ Tag_ABI_FP_number_model
	.eabi_attribute	24, 1	@ Tag_ABI_align_needed
	.eabi_attribute	25, 1	@ Tag_ABI_align_preserved
	.eabi_attribute	38, 1	@ Tag_ABI_FP_16bit_format
	.eabi_attribute	18, 4	@ Tag_ABI_PCS_wchar_t
	.eabi_attribute	26, 2	@ Tag_ABI_enum_size
	.eabi_attribute	14, 0	@ Tag_ABI_PCS_R9_use
	.file	"uart_drv.c"
	.file	1 "C:\\Keil_v5\\ARM\\ARMCLANG\\Bin\\..\\include" "stdint.h"
	.file	2 "D:\\Rafael-IoT-SDK-Internal-main\\examples\\das_subg_thread\\keil" "../../../components/platform/soc/rt582/rt582_driver/Inc/uart_reg.h"
	.file	3 "D:\\Rafael-IoT-SDK-Internal-main\\examples\\das_subg_thread\\keil" "../../../components/platform/soc/rt582/rt582_driver/Src/uart_drv.c"
	.file	4 "D:\\Rafael-IoT-SDK-Internal-main\\examples\\das_subg_thread\\keil" "../../../components/platform/soc/rt582/rt582_driver/Inc\\uart_drv.h"
	.file	5 "D:\\Rafael-IoT-SDK-Internal-main\\examples\\das_subg_thread\\keil" "../../../components/platform/soc/rt582/rt582_driver/Inc/cm3_mcu.h"
	.file	6 "C:/Users\\P350\\AppData\\Local\\Arm\\Packs\\ARM\\CMSIS\\5.8.0\\CMSIS\\Core\\Include" "core_cm3.h"
	.section	.text.uart_init,"ax",%progbits
	.hidden	uart_init                       @ -- Begin function uart_init
	.globl	uart_init
	.p2align	1
	.type	uart_init,%function
	.code	16                              @ @uart_init
	.thumb_func
uart_init:
.Lfunc_begin0:
	.loc	3 161 0                         @ ../../../components/platform/soc/rt582/rt582_driver/Src/uart_drv.c:161:0
	.fnstart
	.cfi_sections .debug_frame
	.cfi_startproc
@ %bb.0:
	@DEBUG_VALUE: uart_init:uart_id <- $r0
	@DEBUG_VALUE: uart_init:p_config <- $r1
	@DEBUG_VALUE: uart_init:event_handler <- $r2
	@DEBUG_VALUE: uart_init:event_handler <- $r2
	@DEBUG_VALUE: uart_init:p_config <- $r1
	@DEBUG_VALUE: uart_init:uart_id <- $r0
	.save	{r4, r5, r6, r7, r8, r9, r10, r11, lr}
	push.w	{r4, r5, r6, r7, r8, r9, r10, r11, lr}
	.cfi_def_cfa_offset 36
	.cfi_offset lr, -4
	.cfi_offset r11, -8
	.cfi_offset r10, -12
	.cfi_offset r9, -16
	.cfi_offset r8, -20
	.cfi_offset r7, -24
	.cfi_offset r6, -28
	.cfi_offset r5, -32
	.cfi_offset r4, -36
	.pad	#4
	sub	sp, #4
	.cfi_def_cfa_offset 40
.Ltmp0:
	.loc	3 169 41 prologue_end           @ ../../../components/platform/soc/rt582/rt582_driver/Src/uart_drv.c:169:41
	cmp	r0, #2
	mov.w	r4, #1
	bhi	.LBB0_5
.Ltmp1:
@ %bb.1:
	@DEBUG_VALUE: uart_init:event_handler <- $r2
	@DEBUG_VALUE: uart_init:p_config <- $r1
	@DEBUG_VALUE: uart_init:uart_id <- $r0
	.loc	3 0 41 is_stmt 0                @ ../../../components/platform/soc/rt582/rt582_driver/Src/uart_drv.c:0:41
	mov	r5, r1
.Ltmp2:
	@DEBUG_VALUE: uart_init:p_config <- $r5
	.loc	3 169 41                        @ ../../../components/platform/soc/rt582/rt582_driver/Src/uart_drv.c:169:41
	cmp	r1, #0
	beq	.LBB0_5
.Ltmp3:
@ %bb.2:
	@DEBUG_VALUE: uart_init:p_config <- $r5
	@DEBUG_VALUE: uart_init:event_handler <- $r2
	@DEBUG_VALUE: uart_init:uart_id <- $r0
	.loc	3 174 40 is_stmt 1              @ ../../../components/platform/soc/rt582/rt582_driver/Src/uart_drv.c:174:40
	movw	r3, :lower16:m_uart_handle
	movt	r3, :upper16:m_uart_handle
	add.w	r1, r3, r0, lsl #4
	ldr	r6, [r1, #4]
.Ltmp4:
	@DEBUG_VALUE: uart_init:uart_info <- $r6
	.loc	3 176 20                        @ ../../../components/platform/soc/rt582/rt582_driver/Src/uart_drv.c:176:20
	ldrb.w	r7, [r6, #38]
.Ltmp5:
	.loc	3 176 9 is_stmt 0               @ ../../../components/platform/soc/rt582/rt582_driver/Src/uart_drv.c:176:9
	lsls	r7, r7, #31
	bne	.LBB0_4
.Ltmp6:
@ %bb.3:
	@DEBUG_VALUE: uart_init:uart_info <- $r6
	@DEBUG_VALUE: uart_init:p_config <- $r5
	@DEBUG_VALUE: uart_init:event_handler <- $r2
	@DEBUG_VALUE: uart_init:uart_id <- $r0
	@DEBUG_VALUE: uart_init:uart_dev <- undef
	.loc	3 184 22 is_stmt 1              @ ../../../components/platform/soc/rt582/rt582_driver/Src/uart_drv.c:184:22
	lsls	r0, r0, #4
.Ltmp7:
	@DEBUG_VALUE: uart_init:uart_id <- [DW_OP_LLVM_entry_value 1] $r0
	ldr	r7, [r3, r0]
.Ltmp8:
	@DEBUG_VALUE: uart_init:uart <- $r7
	.loc	3 189 38                        @ ../../../components/platform/soc/rt582/rt582_driver/Src/uart_drv.c:189:38
	ldr	r0, [r5]
	.loc	3 202 36                        @ ../../../components/platform/soc/rt582/rt582_driver/Src/uart_drv.c:202:36
	ldr.w	r8, [r1, #8]
	movw	r11, #57600
	.loc	3 188 25                        @ ../../../components/platform/soc/rt582/rt582_driver/Src/uart_drv.c:188:25
	strd	r2, r0, [r6]
.Ltmp9:
	.loc	6 1603 81                       @ C:/Users\P350\AppData\Local\Arm\Packs\ARM\CMSIS\5.8.0\CMSIS\Core\Include\core_cm3.h:1603:81
	and	r0, r8, #31
	movs	r2, #1
.Ltmp10:
	@DEBUG_VALUE: uart_init:event_handler <- [DW_OP_LLVM_entry_value 1] $r2
	.loc	6 1603 34 is_stmt 0             @ C:/Users\P350\AppData\Local\Arm\Packs\ARM\CMSIS\5.8.0\CMSIS\Core\Include\core_cm3.h:1603:34
	lsr.w	r10, r8, #5
	movt	r11, #57344
.Ltmp11:
	.loc	3 205 47 is_stmt 1              @ ../../../components/platform/soc/rt582/rt582_driver/Src/uart_drv.c:205:47
	ldrb	r1, [r1, #12]
	movs	r4, #0
.Ltmp12:
	.loc	6 1603 60                       @ C:/Users\P350\AppData\Local\Arm\Packs\ARM\CMSIS\5.8.0\CMSIS\Core\Include\core_cm3.h:1603:60
	lsl.w	r9, r2, r0
	.loc	6 1603 5 is_stmt 0              @ C:/Users\P350\AppData\Local\Arm\Packs\ARM\CMSIS\5.8.0\CMSIS\Core\Include\core_cm3.h:1603:5
	add.w	r0, r11, r10, lsl #2
.Ltmp13:
	.loc	3 194 33 is_stmt 1              @ ../../../components/platform/soc/rt582/rt582_driver/Src/uart_drv.c:194:33
	str	r4, [r6, #32]
	.loc	3 195 28                        @ ../../../components/platform/soc/rt582/rt582_driver/Src/uart_drv.c:195:28
	strh	r4, [r6, #36]
.Ltmp14:
	@DEBUG_VALUE: __NVIC_ClearPendingIRQ:IRQn <- $r8
	.loc	6 1603 43                       @ C:/Users\P350\AppData\Local\Arm\Packs\ARM\CMSIS\5.8.0\CMSIS\Core\Include\core_cm3.h:1603:43
	str.w	r9, [r0, #384]
.Ltmp15:
	@DEBUG_VALUE: __NVIC_ClearPendingIRQ:IRQn <- $r8
	.loc	3 205 35                        @ ../../../components/platform/soc/rt582/rt582_driver/Src/uart_drv.c:205:35
	add.w	r0, r1, #16
	.loc	3 205 5 is_stmt 0               @ ../../../components/platform/soc/rt582/rt582_driver/Src/uart_drv.c:205:5
	bl	enable_perclk
.Ltmp16:
	.loc	3 0 5                           @ ../../../components/platform/soc/rt582/rt582_driver/Src/uart_drv.c:0:5
	movs	r0, #6
	.loc	3 208 15 is_stmt 1              @ ../../../components/platform/soc/rt582/rt582_driver/Src/uart_drv.c:208:15
	str	r4, [r7, #8]
	.loc	3 209 15                        @ ../../../components/platform/soc/rt582/rt582_driver/Src/uart_drv.c:209:15
	str	r0, [r7, #8]
	.loc	3 212 15                        @ ../../../components/platform/soc/rt582/rt582_driver/Src/uart_drv.c:212:15
	str	r4, [r7, #4]
	.loc	3 220 27                        @ ../../../components/platform/soc/rt582/rt582_driver/Src/uart_drv.c:220:27
	add.w	r12, r5, #4
	ldm.w	r12, {r0, r1, r12}
	.loc	3 215 31                        @ ../../../components/platform/soc/rt582/rt582_driver/Src/uart_drv.c:215:31
	and	r1, r1, #3
.Ltmp17:
	@DEBUG_VALUE: uart_init:cval <- $r1
	.loc	3 231 19                        @ ../../../components/platform/soc/rt582/rt582_driver/Src/uart_drv.c:231:19
	ldr	r3, [r5, #16]
.Ltmp18:
	.loc	3 218 27                        @ ../../../components/platform/soc/rt582/rt582_driver/Src/uart_drv.c:218:27
	add.w	r2, r1, #128
	.loc	3 218 15 is_stmt 0              @ ../../../components/platform/soc/rt582/rt582_driver/Src/uart_drv.c:218:15
	str	r2, [r7, #12]
	.loc	3 220 36 is_stmt 1              @ ../../../components/platform/soc/rt582/rt582_driver/Src/uart_drv.c:220:36
	uxtb	r2, r0
	.loc	3 221 36                        @ ../../../components/platform/soc/rt582/rt582_driver/Src/uart_drv.c:221:36
	lsrs	r0, r0, #8
	.loc	3 220 15                        @ ../../../components/platform/soc/rt582/rt582_driver/Src/uart_drv.c:220:15
	str	r2, [r7]
	.loc	3 221 15                        @ ../../../components/platform/soc/rt582/rt582_driver/Src/uart_drv.c:221:15
	str	r0, [r7, #4]
	.loc	3 222 15                        @ ../../../components/platform/soc/rt582/rt582_driver/Src/uart_drv.c:222:15
	str	r1, [r7, #12]
	.loc	3 225 9                         @ ../../../components/platform/soc/rt582/rt582_driver/Src/uart_drv.c:225:9
	cmp.w	r12, #1
	it	eq
	addeq	r1, #4
.Ltmp19:
	@DEBUG_VALUE: uart_init:cval <- $r1
	.loc	3 231 9                         @ ../../../components/platform/soc/rt582/rt582_driver/Src/uart_drv.c:231:9
	and	r0, r3, #2
	orr.w	r0, r1, r0, lsl #2
.Ltmp20:
	@DEBUG_VALUE: uart_init:cval <- $r0
	.loc	3 235 9                         @ ../../../components/platform/soc/rt582/rt582_driver/Src/uart_drv.c:235:9
	and	r1, r3, #1
	orr.w	r0, r0, r1, lsl #4
.Ltmp21:
	@DEBUG_VALUE: uart_init:cval <- [DW_OP_constu 16, DW_OP_xor, DW_OP_stack_value] $r0
	.loc	3 239 9                         @ ../../../components/platform/soc/rt582/rt582_driver/Src/uart_drv.c:239:9
	and	r1, r3, #4
	orr.w	r0, r0, r1, lsl #3
.Ltmp22:
	eor	r0, r0, #16
.Ltmp23:
	@DEBUG_VALUE: uart_init:cval <- $r0
	.loc	3 244 15                        @ ../../../components/platform/soc/rt582/rt582_driver/Src/uart_drv.c:244:15
	str	r0, [r7, #12]
	.loc	3 246 18                        @ ../../../components/platform/soc/rt582/rt582_driver/Src/uart_drv.c:246:18
	ldr	r0, [r7]
.Ltmp24:
	@DEBUG_VALUE: uart_init:temp <- $r0
	.loc	3 0 18 is_stmt 0                @ ../../../components/platform/soc/rt582/rt582_driver/Src/uart_drv.c:0:18
	movs	r0, #3
.Ltmp25:
	movs	r1, #4
	.loc	3 248 15 is_stmt 1              @ ../../../components/platform/soc/rt582/rt582_driver/Src/uart_drv.c:248:15
	str	r4, [r7, #16]
	.loc	3 251 20                        @ ../../../components/platform/soc/rt582/rt582_driver/Src/uart_drv.c:251:20
	str	r4, [r7, #56]
	.loc	3 253 26                        @ ../../../components/platform/soc/rt582/rt582_driver/Src/uart_drv.c:253:26
	str	r4, [r7, #64]
	.loc	3 254 26                        @ ../../../components/platform/soc/rt582/rt582_driver/Src/uart_drv.c:254:26
	str	r4, [r7, #68]
	.loc	3 256 23                        @ ../../../components/platform/soc/rt582/rt582_driver/Src/uart_drv.c:256:23
	str	r4, [r7, #44]
	.loc	3 257 23                        @ ../../../components/platform/soc/rt582/rt582_driver/Src/uart_drv.c:257:23
	str	r4, [r7, #36]
	.loc	3 259 27                        @ ../../../components/platform/soc/rt582/rt582_driver/Src/uart_drv.c:259:27
	str	r0, [r7, #60]
	.loc	3 261 20                        @ ../../../components/platform/soc/rt582/rt582_driver/Src/uart_drv.c:261:20
	str	r0, [r7, #56]
	.loc	3 275 19                        @ ../../../components/platform/soc/rt582/rt582_driver/Src/uart_drv.c:275:19
	str	r1, [r7, #4]
	movs	r1, #65
.Ltmp26:
	.loc	3 284 19                        @ ../../../components/platform/soc/rt582/rt582_driver/Src/uart_drv.c:284:19
	str	r1, [r7, #8]
.Ltmp27:
	@DEBUG_VALUE: __NVIC_SetPriority:priority <- [DW_OP_LLVM_convert 8 7, DW_OP_LLVM_convert 32 7, DW_OP_stack_value] undef
	.loc	3 288 51                        @ ../../../components/platform/soc/rt582/rt582_driver/Src/uart_drv.c:288:51
	ldrb	r1, [r5, #24]
.Ltmp28:
	@DEBUG_VALUE: __NVIC_SetPriority:priority <- [DW_OP_LLVM_convert 8 7, DW_OP_LLVM_convert 32 7, DW_OP_stack_value] $r1
	@DEBUG_VALUE: __NVIC_SetPriority:IRQn <- $r8
	.loc	6 1642 5                        @ C:/Users\P350\AppData\Local\Arm\Packs\ARM\CMSIS\5.8.0\CMSIS\Core\Include\core_cm3.h:1642:5
	add.w	r2, r8, r11
	.loc	6 1642 48 is_stmt 0             @ C:/Users\P350\AppData\Local\Arm\Packs\ARM\CMSIS\5.8.0\CMSIS\Core\Include\core_cm3.h:1642:48
	lsls	r1, r1, #5
.Ltmp29:
	.loc	6 1642 46                       @ C:/Users\P350\AppData\Local\Arm\Packs\ARM\CMSIS\5.8.0\CMSIS\Core\Include\core_cm3.h:1642:46
	strb.w	r1, [r2, #768]
.Ltmp30:
	@DEBUG_VALUE: __NVIC_EnableIRQ:IRQn <- undef
	.loc	6 1512 5 is_stmt 1              @ C:/Users\P350\AppData\Local\Arm\Packs\ARM\CMSIS\5.8.0\CMSIS\Core\Include\core_cm3.h:1512:5
	@APP
	@NO_APP
	.loc	6 1513 43                       @ C:/Users\P350\AppData\Local\Arm\Packs\ARM\CMSIS\5.8.0\CMSIS\Core\Include\core_cm3.h:1513:43
	str.w	r9, [r11, r10, lsl #2]
	.loc	6 1514 5                        @ C:/Users\P350\AppData\Local\Arm\Packs\ARM\CMSIS\5.8.0\CMSIS\Core\Include\core_cm3.h:1514:5
	@APP
	@NO_APP
.Ltmp31:
	.loc	3 292 22                        @ ../../../components/platform/soc/rt582/rt582_driver/Src/uart_drv.c:292:22
	strb.w	r0, [r6, #38]
	b	.LBB0_5
.Ltmp32:
.LBB0_4:
	@DEBUG_VALUE: uart_init:uart_info <- $r6
	@DEBUG_VALUE: uart_init:p_config <- $r5
	@DEBUG_VALUE: uart_init:event_handler <- $r2
	@DEBUG_VALUE: uart_init:uart_id <- $r0
	.loc	3 0 22 is_stmt 0                @ ../../../components/platform/soc/rt582/rt582_driver/Src/uart_drv.c:0:22
	movs	r4, #2
.Ltmp33:
.LBB0_5:
	.loc	3 295 1 is_stmt 1               @ ../../../components/platform/soc/rt582/rt582_driver/Src/uart_drv.c:295:1
	mov	r0, r4
	add	sp, #4
	pop.w	{r4, r5, r6, r7, r8, r9, r10, r11, pc}
.Ltmp34:
.Lfunc_end0:
	.size	uart_init, .Lfunc_end0-uart_init
	.cfi_endproc
	.cantunwind
	.fnend
                                        @ -- End function
	.section	.text.uart_uninit,"ax",%progbits
	.hidden	uart_uninit                     @ -- Begin function uart_uninit
	.globl	uart_uninit
	.p2align	1
	.type	uart_uninit,%function
	.code	16                              @ @uart_uninit
	.thumb_func
uart_uninit:
.Lfunc_begin1:
	.loc	3 298 0                         @ ../../../components/platform/soc/rt582/rt582_driver/Src/uart_drv.c:298:0
	.fnstart
	.cfi_startproc
@ %bb.0:
	@DEBUG_VALUE: uart_uninit:uart_id <- $r0
	@DEBUG_VALUE: uart_uninit:uart_id <- $r0
	.save	{r4, r5, r7, lr}
	push	{r4, r5, r7, lr}
	.cfi_def_cfa_offset 16
	.cfi_offset lr, -4
	.cfi_offset r7, -8
	.cfi_offset r5, -12
	.cfi_offset r4, -16
.Ltmp35:
	.loc	3 301 9 prologue_end            @ ../../../components/platform/soc/rt582/rt582_driver/Src/uart_drv.c:301:9
	cmp	r0, #2
	bls	.LBB1_2
.Ltmp36:
@ %bb.1:
	@DEBUG_VALUE: uart_uninit:uart_id <- $r0
	.loc	3 0 9 is_stmt 0                 @ ../../../components/platform/soc/rt582/rt582_driver/Src/uart_drv.c:0:9
	movs	r4, #1
	b	.LBB1_3
.Ltmp37:
.LBB1_2:
	@DEBUG_VALUE: uart_uninit:uart_id <- $r0
	.loc	3 307 5 is_stmt 1               @ ../../../components/platform/soc/rt582/rt582_driver/Src/uart_drv.c:307:5
	movs	r1, #0
	mov	r5, r0
.Ltmp38:
	@DEBUG_VALUE: uart_uninit:uart_id <- $r5
	.loc	3 0 5 is_stmt 0                 @ ../../../components/platform/soc/rt582/rt582_driver/Src/uart_drv.c:0:5
	movs	r4, #0
	.loc	3 307 5                         @ ../../../components/platform/soc/rt582/rt582_driver/Src/uart_drv.c:307:5
	bl	uart_power
.Ltmp39:
	.loc	3 309 40 is_stmt 1              @ ../../../components/platform/soc/rt582/rt582_driver/Src/uart_drv.c:309:40
	movw	r0, :lower16:m_uart_handle
	movt	r0, :upper16:m_uart_handle
	add.w	r0, r0, r5, lsl #4
	ldr	r0, [r0, #4]
.Ltmp40:
	@DEBUG_VALUE: uart_uninit:uart_info <- $r0
	.loc	3 312 22                        @ ../../../components/platform/soc/rt582/rt582_driver/Src/uart_drv.c:312:22
	strb.w	r4, [r0, #38]
.Ltmp41:
.LBB1_3:
	.loc	3 315 1                         @ ../../../components/platform/soc/rt582/rt582_driver/Src/uart_drv.c:315:1
	mov	r0, r4
	pop	{r4, r5, r7, pc}
.Ltmp42:
.Lfunc_end1:
	.size	uart_uninit, .Lfunc_end1-uart_uninit
	.cfi_endproc
	.cantunwind
	.fnend
                                        @ -- End function
	.section	.text.uart_power,"ax",%progbits
	.hidden	uart_power                      @ -- Begin function uart_power
	.globl	uart_power
	.p2align	1
	.type	uart_power,%function
	.code	16                              @ @uart_power
	.thumb_func
uart_power:
.Lfunc_begin2:
	.loc	3 318 0                         @ ../../../components/platform/soc/rt582/rt582_driver/Src/uart_drv.c:318:0
	.fnstart
	.cfi_startproc
@ %bb.0:
	@DEBUG_VALUE: uart_power:uart_id <- $r0
	@DEBUG_VALUE: uart_power:uart_id <- $r0
	@DEBUG_VALUE: uart_power:enable <- $r1
	.save	{r4, r5, r6, r7, r8, r9, lr}
	push.w	{r4, r5, r6, r7, r8, r9, lr}
	.cfi_def_cfa_offset 28
	.cfi_offset lr, -4
	.cfi_offset r9, -8
	.cfi_offset r8, -12
	.cfi_offset r7, -16
	.cfi_offset r6, -20
	.cfi_offset r5, -24
	.cfi_offset r4, -28
	.pad	#4
	sub	sp, #4
	.cfi_def_cfa_offset 32
.Ltmp43:
	.loc	3 323 9 prologue_end            @ ../../../components/platform/soc/rt582/rt582_driver/Src/uart_drv.c:323:9
	cmp	r0, #2
	@DEBUG_VALUE: uart_power:enable <- $r1
	bls	.LBB2_2
.Ltmp44:
@ %bb.1:
	@DEBUG_VALUE: uart_power:enable <- $r1
	@DEBUG_VALUE: uart_power:uart_id <- $r0
	.loc	3 0 9 is_stmt 0                 @ ../../../components/platform/soc/rt582/rt582_driver/Src/uart_drv.c:0:9
	movs	r4, #1
	b	.LBB2_8
.Ltmp45:
.LBB2_2:
	@DEBUG_VALUE: uart_power:enable <- $r1
	@DEBUG_VALUE: uart_power:uart_id <- $r0
	@DEBUG_VALUE: uart_power:uart_dev <- undef
	.loc	3 329 40 is_stmt 1              @ ../../../components/platform/soc/rt582/rt582_driver/Src/uart_drv.c:329:40
	movw	r2, :lower16:m_uart_handle
	movt	r2, :upper16:m_uart_handle
	add.w	r6, r2, r0, lsl #4
	lsls	r0, r0, #4
.Ltmp46:
	@DEBUG_VALUE: uart_power:uart_id <- [DW_OP_LLVM_entry_value 1] $r0
	ldr	r5, [r6, #4]
.Ltmp47:
	@DEBUG_VALUE: uart_power:uart_info <- $r5
	.loc	3 331 22                        @ ../../../components/platform/soc/rt582/rt582_driver/Src/uart_drv.c:331:22
	ldr	r7, [r2, r0]
.Ltmp48:
	@DEBUG_VALUE: uart_power:uart <- $r7
	.loc	3 333 9                         @ ../../../components/platform/soc/rt582/rt582_driver/Src/uart_drv.c:333:9
	cbz	r1, .LBB2_7
.Ltmp49:
@ %bb.3:
	@DEBUG_VALUE: uart_power:uart <- $r7
	@DEBUG_VALUE: uart_power:uart_info <- $r5
	@DEBUG_VALUE: uart_power:enable <- $r1
	@DEBUG_VALUE: uart_power:uart_id <- [DW_OP_LLVM_entry_value 1] $r0
	.loc	3 336 24                        @ ../../../components/platform/soc/rt582/rt582_driver/Src/uart_drv.c:336:24
	ldrb.w	r0, [r5, #38]
	movs	r4, #0
.Ltmp50:
	.loc	3 336 13 is_stmt 0              @ ../../../components/platform/soc/rt582/rt582_driver/Src/uart_drv.c:336:13
	lsls	r0, r0, #30
	bmi	.LBB2_8
.Ltmp51:
@ %bb.4:
	@DEBUG_VALUE: uart_power:uart <- $r7
	@DEBUG_VALUE: uart_power:uart_info <- $r5
	@DEBUG_VALUE: uart_power:enable <- $r1
	@DEBUG_VALUE: uart_power:uart_id <- [DW_OP_LLVM_entry_value 1] $r0
	.loc	3 343 51 is_stmt 1              @ ../../../components/platform/soc/rt582/rt582_driver/Src/uart_drv.c:343:51
	ldrb	r0, [r6, #12]
	movw	r8, #57600
	.loc	3 343 39 is_stmt 0              @ ../../../components/platform/soc/rt582/rt582_driver/Src/uart_drv.c:343:39
	adds	r0, #16
	movt	r8, #57344
	.loc	3 343 9                         @ ../../../components/platform/soc/rt582/rt582_driver/Src/uart_drv.c:343:9
	bl	enable_perclk
.Ltmp52:
	@DEBUG_VALUE: uart_power:enable <- [DW_OP_LLVM_entry_value 1] $r1
	.loc	3 356 40 is_stmt 1              @ ../../../components/platform/soc/rt582/rt582_driver/Src/uart_drv.c:356:40
	ldr	r1, [r6, #8]
	movs	r0, #6
	.loc	3 346 19                        @ ../../../components/platform/soc/rt582/rt582_driver/Src/uart_drv.c:346:19
	str	r4, [r7, #8]
	.loc	3 347 19                        @ ../../../components/platform/soc/rt582/rt582_driver/Src/uart_drv.c:347:19
	str	r0, [r7, #8]
.Ltmp53:
	.loc	6 1603 81                       @ C:/Users\P350\AppData\Local\Arm\Packs\ARM\CMSIS\5.8.0\CMSIS\Core\Include\core_cm3.h:1603:81
	and	r0, r1, #31
	movs	r2, #1
	.loc	6 1603 34 is_stmt 0             @ C:/Users\P350\AppData\Local\Arm\Packs\ARM\CMSIS\5.8.0\CMSIS\Core\Include\core_cm3.h:1603:34
	lsrs	r1, r1, #5
	.loc	6 1603 60                       @ C:/Users\P350\AppData\Local\Arm\Packs\ARM\CMSIS\5.8.0\CMSIS\Core\Include\core_cm3.h:1603:60
	lsl.w	r0, r2, r0
	.loc	6 1603 5                        @ C:/Users\P350\AppData\Local\Arm\Packs\ARM\CMSIS\5.8.0\CMSIS\Core\Include\core_cm3.h:1603:5
	add.w	r2, r8, r1, lsl #2
.Ltmp54:
	.loc	3 352 37 is_stmt 1              @ ../../../components/platform/soc/rt582/rt582_driver/Src/uart_drv.c:352:37
	str	r4, [r5, #32]
	.loc	3 353 32                        @ ../../../components/platform/soc/rt582/rt582_driver/Src/uart_drv.c:353:32
	strh	r4, [r5, #36]
.Ltmp55:
	@DEBUG_VALUE: __NVIC_ClearPendingIRQ:IRQn <- $r1
	.loc	6 1603 43                       @ C:/Users\P350\AppData\Local\Arm\Packs\ARM\CMSIS\5.8.0\CMSIS\Core\Include\core_cm3.h:1603:43
	str.w	r0, [r2, #384]
.Ltmp56:
	.loc	3 358 24                        @ ../../../components/platform/soc/rt582/rt582_driver/Src/uart_drv.c:358:24
	ldrb.w	r2, [r5, #38]
.Ltmp57:
	.loc	3 358 13 is_stmt 0              @ ../../../components/platform/soc/rt582/rt582_driver/Src/uart_drv.c:358:13
	lsls	r3, r2, #31
	beq	.LBB2_6
.Ltmp58:
@ %bb.5:
	@DEBUG_VALUE: uart_power:uart <- $r7
	@DEBUG_VALUE: uart_power:uart_info <- $r5
	@DEBUG_VALUE: uart_power:enable <- [DW_OP_LLVM_entry_value 1] $r1
	@DEBUG_VALUE: uart_power:uart_id <- [DW_OP_LLVM_entry_value 1] $r0
	.loc	6 1512 5 is_stmt 1              @ C:/Users\P350\AppData\Local\Arm\Packs\ARM\CMSIS\5.8.0\CMSIS\Core\Include\core_cm3.h:1512:5
	@APP
	@NO_APP
	.loc	6 1513 43                       @ C:/Users\P350\AppData\Local\Arm\Packs\ARM\CMSIS\5.8.0\CMSIS\Core\Include\core_cm3.h:1513:43
	str.w	r0, [r8, r1, lsl #2]
	.loc	6 1514 5                        @ C:/Users\P350\AppData\Local\Arm\Packs\ARM\CMSIS\5.8.0\CMSIS\Core\Include\core_cm3.h:1514:5
	@APP
	@NO_APP
.Ltmp59:
	.loc	3 364 26                        @ ../../../components/platform/soc/rt582/rt582_driver/Src/uart_drv.c:364:26
	ldrb.w	r2, [r5, #38]
	@DEBUG_VALUE: __NVIC_EnableIRQ:IRQn <- undef
.Ltmp60:
.LBB2_6:
	@DEBUG_VALUE: uart_power:uart <- $r7
	@DEBUG_VALUE: uart_power:uart_info <- $r5
	@DEBUG_VALUE: uart_power:enable <- [DW_OP_LLVM_entry_value 1] $r1
	@DEBUG_VALUE: uart_power:uart_id <- [DW_OP_LLVM_entry_value 1] $r0
	orr	r0, r2, #2
	strb.w	r0, [r5, #38]
	movs	r4, #0
	b	.LBB2_8
.Ltmp61:
.LBB2_7:
	@DEBUG_VALUE: uart_power:uart <- $r7
	@DEBUG_VALUE: uart_power:uart_info <- $r5
	@DEBUG_VALUE: uart_power:enable <- $r1
	@DEBUG_VALUE: uart_power:uart_id <- [DW_OP_LLVM_entry_value 1] $r0
	.loc	3 372 35                        @ ../../../components/platform/soc/rt582/rt582_driver/Src/uart_drv.c:372:35
	ldr	r0, [r6, #8]
.Ltmp62:
	@DEBUG_VALUE: __NVIC_DisableIRQ:IRQn <- $r0
	.loc	3 0 35 is_stmt 0                @ ../../../components/platform/soc/rt582/rt582_driver/Src/uart_drv.c:0:35
	movs	r2, #1
.Ltmp63:
	.loc	6 1550 81 is_stmt 1             @ C:/Users\P350\AppData\Local\Arm\Packs\ARM\CMSIS\5.8.0\CMSIS\Core\Include\core_cm3.h:1550:81
	and	r1, r0, #31
.Ltmp64:
	@DEBUG_VALUE: uart_power:enable <- [DW_OP_LLVM_entry_value 1] $r1
	.loc	6 1550 60 is_stmt 0             @ C:/Users\P350\AppData\Local\Arm\Packs\ARM\CMSIS\5.8.0\CMSIS\Core\Include\core_cm3.h:1550:60
	lsl.w	r8, r2, r1
	movw	r1, #57600
	.loc	6 1550 34                       @ C:/Users\P350\AppData\Local\Arm\Packs\ARM\CMSIS\5.8.0\CMSIS\Core\Include\core_cm3.h:1550:34
	lsrs	r0, r0, #5
.Ltmp65:
	.loc	6 0 34                          @ C:/Users\P350\AppData\Local\Arm\Packs\ARM\CMSIS\5.8.0\CMSIS\Core\Include\core_cm3.h:0:34
	movt	r1, #57344
.Ltmp66:
	@DEBUG_VALUE: __NVIC_ClearPendingIRQ:IRQn <- undef
	.loc	6 1550 5                        @ C:/Users\P350\AppData\Local\Arm\Packs\ARM\CMSIS\5.8.0\CMSIS\Core\Include\core_cm3.h:1550:5
	add.w	r9, r1, r0, lsl #2
	.loc	6 1550 43                       @ C:/Users\P350\AppData\Local\Arm\Packs\ARM\CMSIS\5.8.0\CMSIS\Core\Include\core_cm3.h:1550:43
	str.w	r8, [r9, #128]
	.loc	6 1551 5 is_stmt 1              @ C:/Users\P350\AppData\Local\Arm\Packs\ARM\CMSIS\5.8.0\CMSIS\Core\Include\core_cm3.h:1551:5
	dsb	sy
	movs	r4, #0
	movs	r0, #3
.Ltmp67:
	.loc	3 386 52                        @ ../../../components/platform/soc/rt582/rt582_driver/Src/uart_drv.c:386:52
	ldrb	r1, [r6, #12]
.Ltmp68:
	.loc	6 1552 5                        @ C:/Users\P350\AppData\Local\Arm\Packs\ARM\CMSIS\5.8.0\CMSIS\Core\Include\core_cm3.h:1552:5
	isb	sy
.Ltmp69:
	.loc	3 374 24                        @ ../../../components/platform/soc/rt582/rt582_driver/Src/uart_drv.c:374:24
	str	r4, [r7, #56]
	.loc	3 376 30                        @ ../../../components/platform/soc/rt582/rt582_driver/Src/uart_drv.c:376:30
	str	r4, [r7, #64]
	.loc	3 377 30                        @ ../../../components/platform/soc/rt582/rt582_driver/Src/uart_drv.c:377:30
	str	r4, [r7, #68]
	.loc	3 379 31                        @ ../../../components/platform/soc/rt582/rt582_driver/Src/uart_drv.c:379:31
	str	r0, [r7, #60]
	movs	r0, #6
	.loc	3 382 19                        @ ../../../components/platform/soc/rt582/rt582_driver/Src/uart_drv.c:382:19
	str	r4, [r7, #8]
	.loc	3 383 19                        @ ../../../components/platform/soc/rt582/rt582_driver/Src/uart_drv.c:383:19
	str	r0, [r7, #8]
	.loc	3 386 40                        @ ../../../components/platform/soc/rt582/rt582_driver/Src/uart_drv.c:386:40
	add.w	r0, r1, #16
	.loc	3 386 9 is_stmt 0               @ ../../../components/platform/soc/rt582/rt582_driver/Src/uart_drv.c:386:9
	bl	disable_perclk
.Ltmp70:
	.loc	3 393 26 is_stmt 1              @ ../../../components/platform/soc/rt582/rt582_driver/Src/uart_drv.c:393:26
	ldrb.w	r0, [r5, #38]
	.loc	3 389 37                        @ ../../../components/platform/soc/rt582/rt582_driver/Src/uart_drv.c:389:37
	str	r4, [r5, #32]
	.loc	3 393 26                        @ ../../../components/platform/soc/rt582/rt582_driver/Src/uart_drv.c:393:26
	and	r0, r0, #253
	.loc	3 390 32                        @ ../../../components/platform/soc/rt582/rt582_driver/Src/uart_drv.c:390:32
	strh	r4, [r5, #36]
	.loc	3 393 26                        @ ../../../components/platform/soc/rt582/rt582_driver/Src/uart_drv.c:393:26
	strb.w	r0, [r5, #38]
.Ltmp71:
	.loc	6 1603 43                       @ C:/Users\P350\AppData\Local\Arm\Packs\ARM\CMSIS\5.8.0\CMSIS\Core\Include\core_cm3.h:1603:43
	str.w	r8, [r9, #384]
.Ltmp72:
.LBB2_8:
	.loc	3 400 1                         @ ../../../components/platform/soc/rt582/rt582_driver/Src/uart_drv.c:400:1
	mov	r0, r4
	add	sp, #4
	pop.w	{r4, r5, r6, r7, r8, r9, pc}
.Ltmp73:
.Lfunc_end2:
	.size	uart_power, .Lfunc_end2-uart_power
	.cfi_endproc
	.cantunwind
	.fnend
                                        @ -- End function
	.section	.text.uart_tx,"ax",%progbits
	.hidden	uart_tx                         @ -- Begin function uart_tx
	.globl	uart_tx
	.p2align	1
	.type	uart_tx,%function
	.code	16                              @ @uart_tx
	.thumb_func
uart_tx:
.Lfunc_begin3:
	.loc	3 406 0                         @ ../../../components/platform/soc/rt582/rt582_driver/Src/uart_drv.c:406:0
	.fnstart
	.cfi_startproc
@ %bb.0:
	@DEBUG_VALUE: uart_tx:uart_id <- $r0
	@DEBUG_VALUE: uart_tx:p_data <- $r1
	@DEBUG_VALUE: uart_tx:length <- $r2
	@DEBUG_VALUE: uart_tx:length <- $r2
	@DEBUG_VALUE: uart_tx:uart_id <- $r0
	.save	{r7, lr}
	push	{r7, lr}
	.cfi_def_cfa_offset 8
	.cfi_offset lr, -4
	.cfi_offset r7, -8
.Ltmp74:
	.loc	3 413 9 prologue_end            @ ../../../components/platform/soc/rt582/rt582_driver/Src/uart_drv.c:413:9
	cmp	r0, #2
	@DEBUG_VALUE: uart_tx:p_data <- $r1
	bls	.LBB3_3
.Ltmp75:
@ %bb.1:
	@DEBUG_VALUE: uart_tx:length <- $r2
	@DEBUG_VALUE: uart_tx:p_data <- $r1
	@DEBUG_VALUE: uart_tx:uart_id <- $r0
	.loc	3 0 9 is_stmt 0                 @ ../../../components/platform/soc/rt582/rt582_driver/Src/uart_drv.c:0:9
	movs	r0, #1
.Ltmp76:
	@DEBUG_VALUE: uart_tx:uart_id <- [DW_OP_LLVM_entry_value 1] $r0
.LBB3_2:
	@DEBUG_VALUE: uart_tx:length <- $r2
	@DEBUG_VALUE: uart_tx:p_data <- $r1
	.loc	3 489 1 is_stmt 1               @ ../../../components/platform/soc/rt582/rt582_driver/Src/uart_drv.c:489:1
	pop	{r7, pc}
.Ltmp77:
.LBB3_3:
	@DEBUG_VALUE: uart_tx:length <- $r2
	@DEBUG_VALUE: uart_tx:p_data <- $r1
	@DEBUG_VALUE: uart_tx:uart_id <- $r0
	.loc	3 0 1 is_stmt 0                 @ ../../../components/platform/soc/rt582/rt582_driver/Src/uart_drv.c:0:1
	mov	lr, r0
.Ltmp78:
	@DEBUG_VALUE: uart_tx:uart_id <- $lr
	@DEBUG_VALUE: uart_tx:uart_id <- $lr
	.loc	3 418 26 is_stmt 1              @ ../../../components/platform/soc/rt582/rt582_driver/Src/uart_drv.c:418:26
	cmp	r1, #0
	mov.w	r0, #1
	beq	.LBB3_2
.Ltmp79:
@ %bb.4:
	@DEBUG_VALUE: uart_tx:length <- $r2
	@DEBUG_VALUE: uart_tx:p_data <- $r1
	@DEBUG_VALUE: uart_tx:uart_id <- $lr
	.loc	3 0 26 is_stmt 0                @ ../../../components/platform/soc/rt582/rt582_driver/Src/uart_drv.c:0:26
	sub.w	r12, r2, #1
	movw	r3, #65534
	.loc	3 418 26                        @ ../../../components/platform/soc/rt582/rt582_driver/Src/uart_drv.c:418:26
	cmp	r12, r3
	bhi	.LBB3_2
.Ltmp80:
@ %bb.5:
	@DEBUG_VALUE: uart_tx:length <- $r2
	@DEBUG_VALUE: uart_tx:p_data <- $r1
	@DEBUG_VALUE: uart_tx:uart_id <- $lr
	@DEBUG_VALUE: uart_tx:uart_dev <- undef
	.loc	3 425 27 is_stmt 1              @ ../../../components/platform/soc/rt582/rt582_driver/Src/uart_drv.c:425:27
	movw	r0, :lower16:m_uart_handle
	movt	r0, :upper16:m_uart_handle
	add.w	r3, r0, lr, lsl #4
	ldr.w	r12, [r3, #4]
.Ltmp81:
	@DEBUG_VALUE: uart_tx:uart <- undef
	@DEBUG_VALUE: uart_tx:uart_info <- $r12
	.loc	3 428 21                        @ ../../../components/platform/soc/rt582/rt582_driver/Src/uart_drv.c:428:21
	ldrb.w	r3, [r12, #38]
	.loc	3 428 27 is_stmt 0              @ ../../../components/platform/soc/rt582/rt582_driver/Src/uart_drv.c:428:27
	and	r3, r3, #3
.Ltmp82:
	.loc	3 428 9                         @ ../../../components/platform/soc/rt582/rt582_driver/Src/uart_drv.c:428:9
	cmp	r3, #3
	itt	ne
	movne	r0, #4
	.loc	3 489 1 is_stmt 1               @ ../../../components/platform/soc/rt582/rt582_driver/Src/uart_drv.c:489:1
	popne	{r7, pc}
.Ltmp83:
.LBB3_6:
	@DEBUG_VALUE: uart_tx:uart_info <- $r12
	@DEBUG_VALUE: uart_tx:length <- $r2
	@DEBUG_VALUE: uart_tx:p_data <- $r1
	@DEBUG_VALUE: uart_tx:uart_id <- $lr
	@DEBUG_VALUE: uart_tx:uart <- undef
	.loc	3 434 20                        @ ../../../components/platform/soc/rt582/rt582_driver/Src/uart_drv.c:434:20
	ldrb.w	r3, [r12, #36]
.Ltmp84:
	.loc	3 434 9 is_stmt 0               @ ../../../components/platform/soc/rt582/rt582_driver/Src/uart_drv.c:434:9
	cbz	r3, .LBB3_8
.Ltmp85:
@ %bb.7:
	@DEBUG_VALUE: uart_tx:uart_info <- $r12
	@DEBUG_VALUE: uart_tx:length <- $r2
	@DEBUG_VALUE: uart_tx:p_data <- $r1
	@DEBUG_VALUE: uart_tx:uart_id <- $lr
	.loc	3 0 9                           @ ../../../components/platform/soc/rt582/rt582_driver/Src/uart_drv.c:0:9
	movs	r0, #3
	.loc	3 489 1 is_stmt 1               @ ../../../components/platform/soc/rt582/rt582_driver/Src/uart_drv.c:489:1
	pop	{r7, pc}
.Ltmp86:
.LBB3_8:
	@DEBUG_VALUE: uart_tx:uart_info <- $r12
	@DEBUG_VALUE: uart_tx:length <- $r2
	@DEBUG_VALUE: uart_tx:p_data <- $r1
	@DEBUG_VALUE: uart_tx:uart_id <- $lr
	.loc	3 0 1 is_stmt 0                 @ ../../../components/platform/soc/rt582/rt582_driver/Src/uart_drv.c:0:1
	lsl.w	r3, lr, #4
	ldr	r3, [r0, r3]
.Ltmp87:
	@DEBUG_VALUE: uart_tx:uart <- $r3
	mov.w	lr, #1
.Ltmp88:
	@DEBUG_VALUE: uart_tx:uart_id <- [DW_OP_LLVM_entry_value 1] $r0
	movs	r0, #0
	.loc	3 441 28 is_stmt 1              @ ../../../components/platform/soc/rt582/rt582_driver/Src/uart_drv.c:441:28
	strb.w	lr, [r12, #36]
	.loc	3 444 28                        @ ../../../components/platform/soc/rt582/rt582_driver/Src/uart_drv.c:444:28
	str.w	r1, [r12, #12]
	.loc	3 445 28                        @ ../../../components/platform/soc/rt582/rt582_driver/Src/uart_drv.c:445:28
	str.w	r2, [r12, #20]
	.loc	3 446 28                        @ ../../../components/platform/soc/rt582/rt582_driver/Src/uart_drv.c:446:28
	str.w	r0, [r12, #28]
.Ltmp89:
	.loc	3 451 28                        @ ../../../components/platform/soc/rt582/rt582_driver/Src/uart_drv.c:451:28
	str	r1, [r3, #40]
	.loc	3 452 28                        @ ../../../components/platform/soc/rt582/rt582_driver/Src/uart_drv.c:452:28
	str	r2, [r3, #44]
	.loc	3 453 30                        @ ../../../components/platform/soc/rt582/rt582_driver/Src/uart_drv.c:453:30
	str.w	lr, [r3, #68]
.Ltmp90:
	.loc	3 480 20                        @ ../../../components/platform/soc/rt582/rt582_driver/Src/uart_drv.c:480:20
	ldr.w	r1, [r12]
.Ltmp91:
	@DEBUG_VALUE: uart_tx:p_data <- [DW_OP_LLVM_entry_value 1] $r1
	.loc	3 480 9 is_stmt 0               @ ../../../components/platform/soc/rt582/rt582_driver/Src/uart_drv.c:480:9
	cmp	r1, #0
	.loc	3 489 1 is_stmt 1               @ ../../../components/platform/soc/rt582/rt582_driver/Src/uart_drv.c:489:1
	it	ne
	popne	{r7, pc}
.Ltmp92:
	.p2align	2
.LBB3_9:                                @ =>This Inner Loop Header: Depth=1
	@DEBUG_VALUE: uart_tx:uart_info <- $r12
	@DEBUG_VALUE: uart_tx:uart <- $r3
	@DEBUG_VALUE: uart_tx:length <- $r2
	@DEBUG_VALUE: uart_tx:p_data <- [DW_OP_LLVM_entry_value 1] $r1
	@DEBUG_VALUE: uart_tx:uart_id <- [DW_OP_LLVM_entry_value 1] $r0
	.loc	3 483 9                         @ ../../../components/platform/soc/rt582/rt582_driver/Src/uart_drv.c:483:9
	b	.LBB3_9
.Ltmp93:
.Lfunc_end3:
	.size	uart_tx, .Lfunc_end3-uart_tx
	.cfi_endproc
	.cantunwind
	.fnend
                                        @ -- End function
	.section	.text.uart_tx_in_progress,"ax",%progbits
	.hidden	uart_tx_in_progress             @ -- Begin function uart_tx_in_progress
	.globl	uart_tx_in_progress
	.p2align	1
	.type	uart_tx_in_progress,%function
	.code	16                              @ @uart_tx_in_progress
	.thumb_func
uart_tx_in_progress:
.Lfunc_begin4:
	.loc	3 492 0                         @ ../../../components/platform/soc/rt582/rt582_driver/Src/uart_drv.c:492:0
	.fnstart
	.cfi_startproc
@ %bb.0:
	@DEBUG_VALUE: uart_tx_in_progress:uart_id <- $r0
	@DEBUG_VALUE: uart_tx_in_progress:uart_id <- $r0
	.loc	3 493 37 prologue_end           @ ../../../components/platform/soc/rt582/rt582_driver/Src/uart_drv.c:493:37
	movw	r1, :lower16:m_uart_handle
	movt	r1, :upper16:m_uart_handle
	add.w	r0, r1, r0, lsl #4
.Ltmp94:
	@DEBUG_VALUE: uart_tx_in_progress:uart_id <- [DW_OP_LLVM_entry_value 1] $r0
	ldr	r0, [r0, #4]
	.loc	3 493 43 is_stmt 0              @ ../../../components/platform/soc/rt582/rt582_driver/Src/uart_drv.c:493:43
	ldrb.w	r0, [r0, #36]
	.loc	3 493 13                        @ ../../../components/platform/soc/rt582/rt582_driver/Src/uart_drv.c:493:13
	cmp	r0, #0
	it	ne
	movne	r0, #1
	.loc	3 493 5                         @ ../../../components/platform/soc/rt582/rt582_driver/Src/uart_drv.c:493:5
	bx	lr
.Ltmp95:
.Lfunc_end4:
	.size	uart_tx_in_progress, .Lfunc_end4-uart_tx_in_progress
	.cfi_endproc
	.cantunwind
	.fnend
                                        @ -- End function
	.section	.text.uart_trx_complete,"ax",%progbits
	.hidden	uart_trx_complete               @ -- Begin function uart_trx_complete
	.globl	uart_trx_complete
	.p2align	1
	.type	uart_trx_complete,%function
	.code	16                              @ @uart_trx_complete
	.thumb_func
uart_trx_complete:
.Lfunc_begin5:
	.loc	3 498 0 is_stmt 1               @ ../../../components/platform/soc/rt582/rt582_driver/Src/uart_drv.c:498:0
	.fnstart
	.cfi_startproc
@ %bb.0:
	@DEBUG_VALUE: uart_trx_complete:uart_id <- $r0
	@DEBUG_VALUE: uart_trx_complete:uart_id <- $r0
	@DEBUG_VALUE: uart_trx_complete:trx_done <- 0
	@DEBUG_VALUE: uart_trx_complete:uart_dev <- undef
	@DEBUG_VALUE: uart_trx_complete:uart <- undef
	.loc	3 506 34 prologue_end           @ ../../../components/platform/soc/rt582/rt582_driver/Src/uart_drv.c:506:34
	movw	r1, :lower16:m_uart_handle
	movt	r1, :upper16:m_uart_handle
	add.w	r2, r1, r0, lsl #4
	ldr	r2, [r2, #4]
	.loc	3 506 40 is_stmt 0              @ ../../../components/platform/soc/rt582/rt582_driver/Src/uart_drv.c:506:40
	ldrb.w	r2, [r2, #36]
	.loc	3 506 59                        @ ../../../components/platform/soc/rt582/rt582_driver/Src/uart_drv.c:506:59
	cbz	r2, .LBB5_2
.Ltmp96:
@ %bb.1:
	@DEBUG_VALUE: uart_trx_complete:uart_id <- $r0
	@DEBUG_VALUE: uart_trx_complete:trx_done <- 0
	@DEBUG_VALUE: uart_trx_complete:trx_done <- undef
	.loc	3 511 5 is_stmt 1               @ ../../../components/platform/soc/rt582/rt582_driver/Src/uart_drv.c:511:5
	movs	r0, #0
.Ltmp97:
	@DEBUG_VALUE: uart_trx_complete:uart_id <- [DW_OP_LLVM_entry_value 1] $r0
	bx	lr
.Ltmp98:
.LBB5_2:
	@DEBUG_VALUE: uart_trx_complete:uart_id <- $r0
	@DEBUG_VALUE: uart_trx_complete:trx_done <- 0
	@DEBUG_VALUE: uart_trx_complete:uart_dev <- undef
	.loc	3 504 22                        @ ../../../components/platform/soc/rt582/rt582_driver/Src/uart_drv.c:504:22
	lsls	r0, r0, #4
.Ltmp99:
	@DEBUG_VALUE: uart_trx_complete:uart_id <- [DW_OP_LLVM_entry_value 1] $r0
	ldr	r0, [r1, r0]
.Ltmp100:
	@DEBUG_VALUE: uart_trx_complete:uart <- $r0
	.loc	3 506 70                        @ ../../../components/platform/soc/rt582/rt582_driver/Src/uart_drv.c:506:70
	ldr	r0, [r0, #20]
.Ltmp101:
	.loc	3 506 91 is_stmt 0              @ ../../../components/platform/soc/rt582/rt582_driver/Src/uart_drv.c:506:91
	ubfx	r0, r0, #6, #1
.Ltmp102:
	.loc	3 506 9                         @ ../../../components/platform/soc/rt582/rt582_driver/Src/uart_drv.c:506:9
	bx	lr
.Ltmp103:
.Lfunc_end5:
	.size	uart_trx_complete, .Lfunc_end5-uart_trx_complete
	.cfi_endproc
	.cantunwind
	.fnend
                                        @ -- End function
	.section	.text.uart_rx_getbytes,"ax",%progbits
	.hidden	uart_rx_getbytes                @ -- Begin function uart_rx_getbytes
	.globl	uart_rx_getbytes
	.p2align	1
	.type	uart_rx_getbytes,%function
	.code	16                              @ @uart_rx_getbytes
	.thumb_func
uart_rx_getbytes:
.Lfunc_begin6:
	.loc	3 521 0 is_stmt 1               @ ../../../components/platform/soc/rt582/rt582_driver/Src/uart_drv.c:521:0
	.fnstart
	.cfi_startproc
@ %bb.0:
	@DEBUG_VALUE: uart_rx_getbytes:uart_id <- $r0
	@DEBUG_VALUE: uart_rx_getbytes:uart_id <- $r0
	@DEBUG_VALUE: uart_rx_getbytes:uart_dev <- undef
	.loc	3 526 22 prologue_end           @ ../../../components/platform/soc/rt582/rt582_driver/Src/uart_drv.c:526:22
	movw	r1, :lower16:m_uart_handle
	lsls	r0, r0, #4
.Ltmp104:
	@DEBUG_VALUE: uart_rx_getbytes:uart_id <- [DW_OP_LLVM_entry_value 1] $r0
	movt	r1, :upper16:m_uart_handle
	ldr	r0, [r1, r0]
.Ltmp105:
	@DEBUG_VALUE: uart_rx_getbytes:uart <- $r0
	.loc	3 527 20                        @ ../../../components/platform/soc/rt582/rt582_driver/Src/uart_drv.c:527:20
	ldr	r0, [r0]
.Ltmp106:
	.loc	3 527 5 is_stmt 0               @ ../../../components/platform/soc/rt582/rt582_driver/Src/uart_drv.c:527:5
	uxtb	r0, r0
	bx	lr
.Ltmp107:
.Lfunc_end6:
	.size	uart_rx_getbytes, .Lfunc_end6-uart_rx_getbytes
	.cfi_endproc
	.cantunwind
	.fnend
                                        @ -- End function
	.section	.text.uart_rx,"ax",%progbits
	.hidden	uart_rx                         @ -- Begin function uart_rx
	.globl	uart_rx
	.p2align	1
	.type	uart_rx,%function
	.code	16                              @ @uart_rx
	.thumb_func
uart_rx:
.Lfunc_begin7:
	.loc	3 534 0 is_stmt 1               @ ../../../components/platform/soc/rt582/rt582_driver/Src/uart_drv.c:534:0
	.fnstart
	.cfi_startproc
@ %bb.0:
	@DEBUG_VALUE: uart_rx:uart_id <- $r0
	@DEBUG_VALUE: uart_rx:p_data <- $r1
	@DEBUG_VALUE: uart_rx:length <- $r2
	@DEBUG_VALUE: uart_rx:length <- $r2
	@DEBUG_VALUE: uart_rx:uart_id <- $r0
	.save	{r4, lr}
	push	{r4, lr}
	.cfi_def_cfa_offset 8
	.cfi_offset lr, -4
	.cfi_offset r4, -8
.Ltmp108:
	.loc	3 540 9 prologue_end            @ ../../../components/platform/soc/rt582/rt582_driver/Src/uart_drv.c:540:9
	cmp	r0, #2
	@DEBUG_VALUE: uart_rx:p_data <- $r1
	itt	hi
	movhi	r0, #1
.Ltmp109:
	@DEBUG_VALUE: uart_rx:uart_id <- [DW_OP_LLVM_entry_value 1] $r0
	.loc	3 687 1                         @ ../../../components/platform/soc/rt582/rt582_driver/Src/uart_drv.c:687:1
	pophi	{r4, pc}
.Ltmp110:
.LBB7_1:
	@DEBUG_VALUE: uart_rx:length <- $r2
	@DEBUG_VALUE: uart_rx:p_data <- $r1
	@DEBUG_VALUE: uart_rx:uart_id <- [DW_OP_LLVM_entry_value 1] $r0
	.loc	3 0 1 is_stmt 0                 @ ../../../components/platform/soc/rt582/rt582_driver/Src/uart_drv.c:0:1
	mov	lr, r0
.Ltmp111:
	@DEBUG_VALUE: uart_rx:uart_id <- $lr
	.loc	3 545 26 is_stmt 1              @ ../../../components/platform/soc/rt582/rt582_driver/Src/uart_drv.c:545:26
	cmp	r1, #0
	mov.w	r0, #1
	beq	.LBB7_15
.Ltmp112:
@ %bb.2:
	@DEBUG_VALUE: uart_rx:length <- $r2
	@DEBUG_VALUE: uart_rx:p_data <- $r1
	@DEBUG_VALUE: uart_rx:uart_id <- $lr
	.loc	3 0 26 is_stmt 0                @ ../../../components/platform/soc/rt582/rt582_driver/Src/uart_drv.c:0:26
	sub.w	r12, r2, #1
	movw	r3, #65534
	.loc	3 545 26                        @ ../../../components/platform/soc/rt582/rt582_driver/Src/uart_drv.c:545:26
	cmp	r12, r3
.Ltmp113:
	.loc	3 687 1 is_stmt 1               @ ../../../components/platform/soc/rt582/rt582_driver/Src/uart_drv.c:687:1
	it	hi
	pophi	{r4, pc}
.Ltmp114:
.LBB7_3:
	@DEBUG_VALUE: uart_rx:length <- $r2
	@DEBUG_VALUE: uart_rx:p_data <- $r1
	@DEBUG_VALUE: uart_rx:uart_id <- $lr
	@DEBUG_VALUE: uart_rx:uart_dev <- undef
	.loc	3 552 27                        @ ../../../components/platform/soc/rt582/rt582_driver/Src/uart_drv.c:552:27
	movw	r12, :lower16:m_uart_handle
	movt	r12, :upper16:m_uart_handle
	add.w	r0, r12, lr, lsl #4
	ldr	r0, [r0, #4]
.Ltmp115:
	@DEBUG_VALUE: uart_rx:uart <- undef
	@DEBUG_VALUE: uart_rx:uart_info <- $r0
	.loc	3 555 21                        @ ../../../components/platform/soc/rt582/rt582_driver/Src/uart_drv.c:555:21
	ldrb.w	r3, [r0, #38]
	.loc	3 555 27 is_stmt 0              @ ../../../components/platform/soc/rt582/rt582_driver/Src/uart_drv.c:555:27
	and	r3, r3, #3
.Ltmp116:
	.loc	3 555 9                         @ ../../../components/platform/soc/rt582/rt582_driver/Src/uart_drv.c:555:9
	cmp	r3, #3
	itt	ne
	movne	r0, #4
.Ltmp117:
	.loc	3 687 1 is_stmt 1               @ ../../../components/platform/soc/rt582/rt582_driver/Src/uart_drv.c:687:1
	popne	{r4, pc}
.Ltmp118:
.LBB7_4:
	@DEBUG_VALUE: uart_rx:length <- $r2
	@DEBUG_VALUE: uart_rx:p_data <- $r1
	@DEBUG_VALUE: uart_rx:uart_id <- $lr
	@DEBUG_VALUE: uart_rx:uart <- undef
	.loc	3 562 20                        @ ../../../components/platform/soc/rt582/rt582_driver/Src/uart_drv.c:562:20
	ldrb.w	r3, [r0, #37]
.Ltmp119:
	.loc	3 562 9 is_stmt 0               @ ../../../components/platform/soc/rt582/rt582_driver/Src/uart_drv.c:562:9
	cmp	r3, #1
	itt	eq
	moveq	r0, #3
	.loc	3 687 1 is_stmt 1               @ ../../../components/platform/soc/rt582/rt582_driver/Src/uart_drv.c:687:1
	popeq	{r4, pc}
.Ltmp120:
.LBB7_5:
	@DEBUG_VALUE: uart_rx:length <- $r2
	@DEBUG_VALUE: uart_rx:p_data <- $r1
	@DEBUG_VALUE: uart_rx:uart_id <- $lr
	.loc	3 0 1 is_stmt 0                 @ ../../../components/platform/soc/rt582/rt582_driver/Src/uart_drv.c:0:1
	lsl.w	r3, lr, #4
	ldr.w	lr, [r12, r3]
.Ltmp121:
	@DEBUG_VALUE: uart_rx:uart_id <- [DW_OP_LLVM_entry_value 1] $r0
	@DEBUG_VALUE: uart_rx:uart <- $lr
	movs	r3, #1
	.loc	3 568 24 is_stmt 1              @ ../../../components/platform/soc/rt582/rt582_driver/Src/uart_drv.c:568:24
	strb.w	r3, [r0, #37]
	movs	r3, #0
	.loc	3 577 33                        @ ../../../components/platform/soc/rt582/rt582_driver/Src/uart_drv.c:577:33
	str	r3, [r0, #32]
	.loc	3 581 28                        @ ../../../components/platform/soc/rt582/rt582_driver/Src/uart_drv.c:581:28
	str	r3, [r0, #24]
.Ltmp122:
	.loc	3 588 33                        @ ../../../components/platform/soc/rt582/rt582_driver/Src/uart_drv.c:588:33
	ands	r3, r1, #3
.Ltmp123:
	.loc	3 571 28                        @ ../../../components/platform/soc/rt582/rt582_driver/Src/uart_drv.c:571:28
	str	r2, [r0, #16]
	.loc	3 580 28                        @ ../../../components/platform/soc/rt582/rt582_driver/Src/uart_drv.c:580:28
	str	r1, [r0, #8]
.Ltmp124:
	.loc	3 588 13                        @ ../../../components/platform/soc/rt582/rt582_driver/Src/uart_drv.c:588:13
	beq	.LBB7_8
.Ltmp125:
@ %bb.6:
	@DEBUG_VALUE: uart_rx:length <- $r2
	@DEBUG_VALUE: uart_rx:p_data <- $r1
	@DEBUG_VALUE: uart_rx:uart <- $lr
	@DEBUG_VALUE: uart_rx:uart_id <- [DW_OP_LLVM_entry_value 1] $r0
	.loc	3 635 17                        @ ../../../components/platform/soc/rt582/rt582_driver/Src/uart_drv.c:635:17
	cmp	r2, #4
	bls	.LBB7_10
.Ltmp126:
@ %bb.7:
	@DEBUG_VALUE: uart_rx:length <- $r2
	@DEBUG_VALUE: uart_rx:p_data <- $r1
	@DEBUG_VALUE: uart_rx:uart <- $lr
	@DEBUG_VALUE: uart_rx:uart_id <- [DW_OP_LLVM_entry_value 1] $r0
	.loc	3 651 48                        @ ../../../components/platform/soc/rt582/rt582_driver/Src/uart_drv.c:651:48
	rsb.w	r3, r3, #4
	.loc	3 652 51                        @ ../../../components/platform/soc/rt582/rt582_driver/Src/uart_drv.c:652:51
	subs	r2, r2, r3
.Ltmp127:
	@DEBUG_VALUE: uart_rx:length <- [DW_OP_LLVM_entry_value 1] $r2
	.loc	3 655 53                        @ ../../../components/platform/soc/rt582/rt582_driver/Src/uart_drv.c:655:53
	adds	r4, r1, r3
	.loc	3 655 44 is_stmt 0              @ ../../../components/platform/soc/rt582/rt582_driver/Src/uart_drv.c:655:44
	strd	r4, r1, [r0, #44]
	.loc	3 652 42 is_stmt 1              @ ../../../components/platform/soc/rt582/rt582_driver/Src/uart_drv.c:652:42
	strd	r2, r3, [r0, #52]
	.loc	3 658 49                        @ ../../../components/platform/soc/rt582/rt582_driver/Src/uart_drv.c:658:49
	add.w	r1, r0, #40
.Ltmp128:
	@DEBUG_VALUE: uart_rx:p_data <- [DW_OP_LLVM_entry_value 1] $r1
	.loc	3 0 49 is_stmt 0                @ ../../../components/platform/soc/rt582/rt582_driver/Src/uart_drv.c:0:49
	mov	r2, r3
	b	.LBB7_13
.Ltmp129:
.LBB7_8:
	@DEBUG_VALUE: uart_rx:length <- $r2
	@DEBUG_VALUE: uart_rx:p_data <- $r1
	@DEBUG_VALUE: uart_rx:uart <- $lr
	@DEBUG_VALUE: uart_rx:uart_id <- [DW_OP_LLVM_entry_value 1] $r0
	.loc	3 592 25 is_stmt 1              @ ../../../components/platform/soc/rt582/rt582_driver/Src/uart_drv.c:592:25
	ands	r12, r2, #3
.Ltmp130:
	.loc	3 592 17 is_stmt 0              @ ../../../components/platform/soc/rt582/rt582_driver/Src/uart_drv.c:592:17
	beq	.LBB7_11
.Ltmp131:
@ %bb.9:
	@DEBUG_VALUE: uart_rx:length <- $r2
	@DEBUG_VALUE: uart_rx:p_data <- $r1
	@DEBUG_VALUE: uart_rx:uart <- $lr
	@DEBUG_VALUE: uart_rx:uart_id <- [DW_OP_LLVM_entry_value 1] $r0
	.loc	3 607 21 is_stmt 1              @ ../../../components/platform/soc/rt582/rt582_driver/Src/uart_drv.c:607:21
	cmp	r2, #3
	bhi	.LBB7_12
.Ltmp132:
.LBB7_10:
	@DEBUG_VALUE: uart_rx:length <- $r2
	@DEBUG_VALUE: uart_rx:p_data <- $r1
	@DEBUG_VALUE: uart_rx:uart <- $lr
	@DEBUG_VALUE: uart_rx:uart_id <- [DW_OP_LLVM_entry_value 1] $r0
	.loc	3 0 21 is_stmt 0                @ ../../../components/platform/soc/rt582/rt582_driver/Src/uart_drv.c:0:21
	movs	r3, #0
	str	r1, [r0, #48]
	str	r3, [r0, #52]
	str	r2, [r0, #56]
	add.w	r1, r0, #40
.Ltmp133:
	@DEBUG_VALUE: uart_rx:p_data <- [DW_OP_LLVM_entry_value 1] $r1
	b	.LBB7_13
.Ltmp134:
.LBB7_11:
	@DEBUG_VALUE: uart_rx:length <- $r2
	@DEBUG_VALUE: uart_rx:p_data <- $r1
	@DEBUG_VALUE: uart_rx:uart <- $lr
	@DEBUG_VALUE: uart_rx:uart_id <- [DW_OP_LLVM_entry_value 1] $r0
	movs	r3, #0
.Ltmp135:
	.loc	3 595 42 is_stmt 1              @ ../../../components/platform/soc/rt582/rt582_driver/Src/uart_drv.c:595:42
	strd	r3, r3, [r0, #52]
	b	.LBB7_13
.Ltmp136:
.LBB7_12:
	@DEBUG_VALUE: uart_rx:length <- $r2
	@DEBUG_VALUE: uart_rx:p_data <- $r1
	@DEBUG_VALUE: uart_rx:uart <- $lr
	@DEBUG_VALUE: uart_rx:uart_id <- [DW_OP_LLVM_entry_value 1] $r0
	.loc	3 623 67                        @ ../../../components/platform/soc/rt582/rt582_driver/Src/uart_drv.c:623:67
	bic	r2, r2, #3
.Ltmp137:
	@DEBUG_VALUE: uart_rx:length <- [DW_OP_LLVM_entry_value 1] $r2
	.loc	3 0 67 is_stmt 0                @ ../../../components/platform/soc/rt582/rt582_driver/Src/uart_drv.c:0:67
	movs	r3, #0
	.loc	3 623 57                        @ ../../../components/platform/soc/rt582/rt582_driver/Src/uart_drv.c:623:57
	adds	r4, r1, r2
	.loc	3 623 48                        @ ../../../components/platform/soc/rt582/rt582_driver/Src/uart_drv.c:623:48
	strd	r4, r1, [r0, #44]
	.loc	3 621 46 is_stmt 1              @ ../../../components/platform/soc/rt582/rt582_driver/Src/uart_drv.c:621:46
	strd	r12, r3, [r0, #52]
.Ltmp138:
.LBB7_13:
	@DEBUG_VALUE: uart_rx:uart <- $lr
	@DEBUG_VALUE: uart_rx:uart_id <- [DW_OP_LLVM_entry_value 1] $r0
	.loc	3 0 0 is_stmt 0                 @ ../../../components/platform/soc/rt582/rt582_driver/Src/uart_drv.c:0:0
	str.w	r1, [lr, #32]
	movs	r1, #1
	str.w	r2, [lr, #36]
.Ltmp139:
	.loc	3 665 30 is_stmt 1              @ ../../../components/platform/soc/rt582/rt582_driver/Src/uart_drv.c:665:30
	str.w	r1, [lr, #64]
.Ltmp140:
	.loc	3 678 20                        @ ../../../components/platform/soc/rt582/rt582_driver/Src/uart_drv.c:678:20
	ldr	r0, [r0]
.Ltmp141:
	.loc	3 678 9 is_stmt 0               @ ../../../components/platform/soc/rt582/rt582_driver/Src/uart_drv.c:678:9
	cbz	r0, .LBB7_16
.Ltmp142:
@ %bb.14:
	@DEBUG_VALUE: uart_rx:uart <- $lr
	@DEBUG_VALUE: uart_rx:uart_id <- [DW_OP_LLVM_entry_value 1] $r0
	.loc	3 0 9                           @ ../../../components/platform/soc/rt582/rt582_driver/Src/uart_drv.c:0:9
	movs	r0, #0
.Ltmp143:
.LBB7_15:
	.loc	3 687 1 is_stmt 1               @ ../../../components/platform/soc/rt582/rt582_driver/Src/uart_drv.c:687:1
	pop	{r4, pc}
	.p2align	2
.LBB7_16:                               @ =>This Inner Loop Header: Depth=1
.Ltmp144:
	@DEBUG_VALUE: uart_rx:uart <- $lr
	@DEBUG_VALUE: uart_rx:uart_id <- [DW_OP_LLVM_entry_value 1] $r0
	.loc	3 681 9                         @ ../../../components/platform/soc/rt582/rt582_driver/Src/uart_drv.c:681:9
	b	.LBB7_16
.Ltmp145:
.Lfunc_end7:
	.size	uart_rx, .Lfunc_end7-uart_rx
	.cfi_endproc
	.cantunwind
	.fnend
                                        @ -- End function
	.section	.text.uart_rx_abort,"ax",%progbits
	.hidden	uart_rx_abort                   @ -- Begin function uart_rx_abort
	.globl	uart_rx_abort
	.p2align	1
	.type	uart_rx_abort,%function
	.code	16                              @ @uart_rx_abort
	.thumb_func
uart_rx_abort:
.Lfunc_begin8:
	.loc	3 690 0                         @ ../../../components/platform/soc/rt582/rt582_driver/Src/uart_drv.c:690:0
	.fnstart
	.cfi_startproc
@ %bb.0:
	@DEBUG_VALUE: uart_rx_abort:uart_id <- $r0
	@DEBUG_VALUE: uart_rx_abort:uart_id <- $r0
	.save	{r4, r5, r7, lr}
	push	{r4, r5, r7, lr}
	.cfi_def_cfa_offset 16
	.cfi_offset lr, -4
	.cfi_offset r7, -8
	.cfi_offset r5, -12
	.cfi_offset r4, -16
.Ltmp146:
	.loc	3 695 9 prologue_end            @ ../../../components/platform/soc/rt582/rt582_driver/Src/uart_drv.c:695:9
	cmp	r0, #2
	bhi	.LBB8_5
.Ltmp147:
@ %bb.1:
	@DEBUG_VALUE: uart_rx_abort:uart_id <- $r0
	@DEBUG_VALUE: uart_rx_abort:uart_dev <- undef
	.loc	3 701 27                        @ ../../../components/platform/soc/rt582/rt582_driver/Src/uart_drv.c:701:27
	movw	r1, :lower16:m_uart_handle
	movt	r1, :upper16:m_uart_handle
	add.w	r2, r1, r0, lsl #4
	ldr	r4, [r2, #4]
.Ltmp148:
	@DEBUG_VALUE: uart_rx_abort:uart_info <- $r4
	.loc	3 703 21                        @ ../../../components/platform/soc/rt582/rt582_driver/Src/uart_drv.c:703:21
	ldrb.w	r2, [r4, #38]
	.loc	3 703 27 is_stmt 0              @ ../../../components/platform/soc/rt582/rt582_driver/Src/uart_drv.c:703:27
	and	r2, r2, #3
.Ltmp149:
	.loc	3 703 9                         @ ../../../components/platform/soc/rt582/rt582_driver/Src/uart_drv.c:703:9
	cmp	r2, #3
	.loc	3 729 1 is_stmt 1               @ ../../../components/platform/soc/rt582/rt582_driver/Src/uart_drv.c:729:1
	it	ne
	popne	{r4, r5, r7, pc}
.Ltmp150:
.LBB8_2:
	@DEBUG_VALUE: uart_rx_abort:uart_id <- $r0
	@DEBUG_VALUE: uart_rx_abort:uart_dev <- undef
	.loc	3 709 22                        @ ../../../components/platform/soc/rt582/rt582_driver/Src/uart_drv.c:709:22
	lsls	r0, r0, #4
.Ltmp151:
	@DEBUG_VALUE: uart_rx_abort:uart_id <- [DW_OP_LLVM_entry_value 1] $r0
	ldr	r5, [r1, r0]
.Ltmp152:
	@DEBUG_VALUE: uart_rx_abort:uart <- $r5
	.loc	3 711 5                         @ ../../../components/platform/soc/rt582/rt582_driver/Src/uart_drv.c:711:5
	bl	enter_critical_section
.Ltmp153:
	.loc	3 713 15                        @ ../../../components/platform/soc/rt582/rt582_driver/Src/uart_drv.c:713:15
	ldr	r0, [r5, #4]
	bic	r0, r0, #1
	str	r0, [r5, #4]
	.loc	3 714 5                         @ ../../../components/platform/soc/rt582/rt582_driver/Src/uart_drv.c:714:5
	bl	leave_critical_section
.Ltmp154:
	.loc	3 717 43                        @ ../../../components/platform/soc/rt582/rt582_driver/Src/uart_drv.c:717:43
	ldrb.w	r0, [r4, #37]
.Ltmp155:
	.loc	3 717 9 is_stmt 0               @ ../../../components/platform/soc/rt582/rt582_driver/Src/uart_drv.c:717:9
	cbz	r0, .LBB8_4
.Ltmp156:
@ %bb.3:
	@DEBUG_VALUE: uart_rx_abort:uart <- $r5
	@DEBUG_VALUE: uart_rx_abort:uart_id <- [DW_OP_LLVM_entry_value 1] $r0
	.loc	3 0 9                           @ ../../../components/platform/soc/rt582/rt582_driver/Src/uart_drv.c:0:9
	movs	r0, #0
.Ltmp157:
	.loc	3 719 30 is_stmt 1              @ ../../../components/platform/soc/rt582/rt582_driver/Src/uart_drv.c:719:30
	str	r0, [r5, #64]
	movs	r0, #1
	.loc	3 720 31                        @ ../../../components/platform/soc/rt582/rt582_driver/Src/uart_drv.c:720:31
	str	r0, [r5, #60]
.Ltmp158:
.LBB8_4:
	@DEBUG_VALUE: uart_rx_abort:uart <- $r5
	@DEBUG_VALUE: uart_rx_abort:uart_id <- [DW_OP_LLVM_entry_value 1] $r0
	.loc	3 0 31 is_stmt 0                @ ../../../components/platform/soc/rt582/rt582_driver/Src/uart_drv.c:0:31
	movs	r0, #131
	.loc	3 724 15 is_stmt 1              @ ../../../components/platform/soc/rt582/rt582_driver/Src/uart_drv.c:724:15
	str	r0, [r5, #8]
	movs	r0, #0
	.loc	3 727 24                        @ ../../../components/platform/soc/rt582/rt582_driver/Src/uart_drv.c:727:24
	strb.w	r0, [r4, #37]
.Ltmp159:
.LBB8_5:
	.loc	3 729 1                         @ ../../../components/platform/soc/rt582/rt582_driver/Src/uart_drv.c:729:1
	pop	{r4, r5, r7, pc}
.Ltmp160:
.Lfunc_end8:
	.size	uart_rx_abort, .Lfunc_end8-uart_rx_abort
	.cfi_endproc
	.cantunwind
	.fnend
                                        @ -- End function
	.section	.text.uart_tx_abort,"ax",%progbits
	.hidden	uart_tx_abort                   @ -- Begin function uart_tx_abort
	.globl	uart_tx_abort
	.p2align	1
	.type	uart_tx_abort,%function
	.code	16                              @ @uart_tx_abort
	.thumb_func
uart_tx_abort:
.Lfunc_begin9:
	.loc	3 732 0                         @ ../../../components/platform/soc/rt582/rt582_driver/Src/uart_drv.c:732:0
	.fnstart
	.cfi_startproc
@ %bb.0:
	@DEBUG_VALUE: uart_tx_abort:uart_id <- $r0
	@DEBUG_VALUE: uart_tx_abort:uart_id <- $r0
	.save	{r4, r5, r7, lr}
	push	{r4, r5, r7, lr}
	.cfi_def_cfa_offset 16
	.cfi_offset lr, -4
	.cfi_offset r7, -8
	.cfi_offset r5, -12
	.cfi_offset r4, -16
.Ltmp161:
	.loc	3 737 9 prologue_end            @ ../../../components/platform/soc/rt582/rt582_driver/Src/uart_drv.c:737:9
	cmp	r0, #2
	bhi	.LBB9_6
.Ltmp162:
@ %bb.1:
	@DEBUG_VALUE: uart_tx_abort:uart_id <- $r0
	@DEBUG_VALUE: uart_tx_abort:uart_dev <- undef
	.loc	3 743 27                        @ ../../../components/platform/soc/rt582/rt582_driver/Src/uart_drv.c:743:27
	movw	r1, :lower16:m_uart_handle
	movt	r1, :upper16:m_uart_handle
	add.w	r2, r1, r0, lsl #4
	ldr	r5, [r2, #4]
.Ltmp163:
	@DEBUG_VALUE: uart_tx_abort:uart_info <- $r5
	.loc	3 745 21                        @ ../../../components/platform/soc/rt582/rt582_driver/Src/uart_drv.c:745:21
	ldrb.w	r2, [r5, #38]
	.loc	3 745 27 is_stmt 0              @ ../../../components/platform/soc/rt582/rt582_driver/Src/uart_drv.c:745:27
	and	r2, r2, #3
.Ltmp164:
	.loc	3 745 9                         @ ../../../components/platform/soc/rt582/rt582_driver/Src/uart_drv.c:745:9
	cmp	r2, #3
	.loc	3 781 1 is_stmt 1               @ ../../../components/platform/soc/rt582/rt582_driver/Src/uart_drv.c:781:1
	it	ne
	popne	{r4, r5, r7, pc}
.Ltmp165:
.LBB9_2:
	@DEBUG_VALUE: uart_tx_abort:uart_id <- $r0
	@DEBUG_VALUE: uart_tx_abort:uart_dev <- undef
	.loc	3 751 22                        @ ../../../components/platform/soc/rt582/rt582_driver/Src/uart_drv.c:751:22
	lsls	r0, r0, #4
.Ltmp166:
	@DEBUG_VALUE: uart_tx_abort:uart_id <- [DW_OP_LLVM_entry_value 1] $r0
	ldr	r4, [r1, r0]
.Ltmp167:
	@DEBUG_VALUE: uart_tx_abort:uart <- $r4
	.loc	3 753 5                         @ ../../../components/platform/soc/rt582/rt582_driver/Src/uart_drv.c:753:5
	bl	enter_critical_section
.Ltmp168:
	.loc	3 755 15                        @ ../../../components/platform/soc/rt582/rt582_driver/Src/uart_drv.c:755:15
	ldr	r0, [r4, #4]
	bic	r0, r0, #2
	str	r0, [r4, #4]
.Ltmp169:
	.loc	3 758 43                        @ ../../../components/platform/soc/rt582/rt582_driver/Src/uart_drv.c:758:43
	ldrb.w	r0, [r5, #36]
.Ltmp170:
	.loc	3 758 9 is_stmt 0               @ ../../../components/platform/soc/rt582/rt582_driver/Src/uart_drv.c:758:9
	cbz	r0, .LBB9_4
.Ltmp171:
@ %bb.3:
	@DEBUG_VALUE: uart_tx_abort:uart <- $r4
	@DEBUG_VALUE: uart_tx_abort:uart_id <- [DW_OP_LLVM_entry_value 1] $r0
	.loc	3 0 9                           @ ../../../components/platform/soc/rt582/rt582_driver/Src/uart_drv.c:0:9
	movs	r0, #0
.Ltmp172:
	.loc	3 761 30 is_stmt 1              @ ../../../components/platform/soc/rt582/rt582_driver/Src/uart_drv.c:761:30
	str	r0, [r4, #68]
	movs	r0, #2
	.loc	3 762 31                        @ ../../../components/platform/soc/rt582/rt582_driver/Src/uart_drv.c:762:31
	str	r0, [r4, #60]
.Ltmp173:
.LBB9_4:
	@DEBUG_VALUE: uart_tx_abort:uart <- $r4
	@DEBUG_VALUE: uart_tx_abort:uart_id <- [DW_OP_LLVM_entry_value 1] $r0
	.loc	3 0 31 is_stmt 0                @ ../../../components/platform/soc/rt582/rt582_driver/Src/uart_drv.c:0:31
	movs	r0, #0
	.loc	3 766 28 is_stmt 1              @ ../../../components/platform/soc/rt582/rt582_driver/Src/uart_drv.c:766:28
	strb.w	r0, [r5, #36]
	.loc	3 770 15                        @ ../../../components/platform/soc/rt582/rt582_driver/Src/uart_drv.c:770:15
	str	r0, [r4, #8]
	movs	r0, #4
	.loc	3 771 15                        @ ../../../components/platform/soc/rt582/rt582_driver/Src/uart_drv.c:771:15
	str	r0, [r4, #8]
	movs	r0, #129
	.loc	3 773 15                        @ ../../../components/platform/soc/rt582/rt582_driver/Src/uart_drv.c:773:15
	str	r0, [r4, #8]
	.loc	3 775 5                         @ ../../../components/platform/soc/rt582/rt582_driver/Src/uart_drv.c:775:5
	bl	leave_critical_section
.Ltmp174:
	.p2align	2
.LBB9_5:                                @ =>This Inner Loop Header: Depth=1
	@DEBUG_VALUE: uart_tx_abort:uart <- $r4
	@DEBUG_VALUE: uart_tx_abort:uart_id <- [DW_OP_LLVM_entry_value 1] $r0
	.loc	3 778 19                        @ ../../../components/platform/soc/rt582/rt582_driver/Src/uart_drv.c:778:19
	ldr	r0, [r4, #20]
	.loc	3 778 5 is_stmt 0               @ ../../../components/platform/soc/rt582/rt582_driver/Src/uart_drv.c:778:5
	lsls	r0, r0, #25
	bpl	.LBB9_5
.Ltmp175:
.LBB9_6:
	.loc	3 781 1 is_stmt 1               @ ../../../components/platform/soc/rt582/rt582_driver/Src/uart_drv.c:781:1
	pop	{r4, r5, r7, pc}
.Ltmp176:
.Lfunc_end9:
	.size	uart_tx_abort, .Lfunc_end9-uart_tx_abort
	.cfi_endproc
	.cantunwind
	.fnend
                                        @ -- End function
	.section	.text.uart_rx_ready,"ax",%progbits
	.hidden	uart_rx_ready                   @ -- Begin function uart_rx_ready
	.globl	uart_rx_ready
	.p2align	1
	.type	uart_rx_ready,%function
	.code	16                              @ @uart_rx_ready
	.thumb_func
uart_rx_ready:
.Lfunc_begin10:
	.loc	3 784 0                         @ ../../../components/platform/soc/rt582/rt582_driver/Src/uart_drv.c:784:0
	.fnstart
	.cfi_startproc
@ %bb.0:
	@DEBUG_VALUE: uart_rx_ready:uart_id <- $r0
	@DEBUG_VALUE: uart_rx_ready:uart_id <- $r0
	.loc	3 789 9 prologue_end            @ ../../../components/platform/soc/rt582/rt582_driver/Src/uart_drv.c:789:9
	cmp	r0, #2
	bhi	.LBB10_3
.Ltmp177:
@ %bb.1:
	@DEBUG_VALUE: uart_rx_ready:uart_id <- $r0
	@DEBUG_VALUE: uart_rx_ready:uart_dev <- undef
	.loc	3 795 27                        @ ../../../components/platform/soc/rt582/rt582_driver/Src/uart_drv.c:795:27
	movw	r1, :lower16:m_uart_handle
	movt	r1, :upper16:m_uart_handle
	add.w	r2, r1, r0, lsl #4
	ldr	r2, [r2, #4]
.Ltmp178:
	@DEBUG_VALUE: uart_rx_ready:uart_info <- $r2
	.loc	3 797 21                        @ ../../../components/platform/soc/rt582/rt582_driver/Src/uart_drv.c:797:21
	ldrb.w	r2, [r2, #38]
.Ltmp179:
	.loc	3 797 27 is_stmt 0              @ ../../../components/platform/soc/rt582/rt582_driver/Src/uart_drv.c:797:27
	and	r2, r2, #3
.Ltmp180:
	.loc	3 797 9                         @ ../../../components/platform/soc/rt582/rt582_driver/Src/uart_drv.c:797:9
	cmp	r2, #3
	bne	.LBB10_3
.Ltmp181:
@ %bb.2:
	@DEBUG_VALUE: uart_rx_ready:uart_id <- $r0
	@DEBUG_VALUE: uart_rx_ready:uart_dev <- undef
	.loc	3 803 22 is_stmt 1              @ ../../../components/platform/soc/rt582/rt582_driver/Src/uart_drv.c:803:22
	lsls	r0, r0, #4
.Ltmp182:
	@DEBUG_VALUE: uart_rx_ready:uart_id <- [DW_OP_LLVM_entry_value 1] $r0
	ldr	r0, [r1, r0]
.Ltmp183:
	@DEBUG_VALUE: uart_rx_ready:uart <- $r0
	.loc	3 805 20                        @ ../../../components/platform/soc/rt582/rt582_driver/Src/uart_drv.c:805:20
	ldr	r0, [r0, #20]
.Ltmp184:
	.loc	3 805 24 is_stmt 0              @ ../../../components/platform/soc/rt582/rt582_driver/Src/uart_drv.c:805:24
	and	r0, r0, #1
	.loc	3 807 1 is_stmt 1               @ ../../../components/platform/soc/rt582/rt582_driver/Src/uart_drv.c:807:1
	bx	lr
.Ltmp185:
.LBB10_3:
	@DEBUG_VALUE: uart_rx_ready:uart_id <- $r0
	.loc	3 0 1 is_stmt 0                 @ ../../../components/platform/soc/rt582/rt582_driver/Src/uart_drv.c:0:1
	movs	r0, #0
.Ltmp186:
	@DEBUG_VALUE: uart_rx_ready:uart_id <- [DW_OP_LLVM_entry_value 1] $r0
	.loc	3 807 1                         @ ../../../components/platform/soc/rt582/rt582_driver/Src/uart_drv.c:807:1
	bx	lr
.Ltmp187:
.Lfunc_end10:
	.size	uart_rx_ready, .Lfunc_end10-uart_rx_ready
	.cfi_endproc
	.cantunwind
	.fnend
                                        @ -- End function
	.section	.text.uart_status_get,"ax",%progbits
	.hidden	uart_status_get                 @ -- Begin function uart_status_get
	.globl	uart_status_get
	.p2align	1
	.type	uart_status_get,%function
	.code	16                              @ @uart_status_get
	.thumb_func
uart_status_get:
.Lfunc_begin11:
	.loc	3 858 0 is_stmt 1               @ ../../../components/platform/soc/rt582/rt582_driver/Src/uart_drv.c:858:0
	.fnstart
	.cfi_startproc
@ %bb.0:
	@DEBUG_VALUE: uart_status_get:uart_id <- $r0
	@DEBUG_VALUE: uart_get_status_warp:uart_id <- $r0
	@DEBUG_VALUE: uart_get_status_warp:state <- undef
	@DEBUG_VALUE: uart_get_status_warp:uart_id <- $r0
	@DEBUG_VALUE: uart_status_get:uart_id <- $r0
	.save	{r7, lr}
	push	{r7, lr}
	.cfi_def_cfa_offset 8
	.cfi_offset lr, -4
	.cfi_offset r7, -8
.Ltmp188:
	.loc	3 817 9 prologue_end            @ ../../../components/platform/soc/rt582/rt582_driver/Src/uart_drv.c:817:9
	cmp	r0, #2
	itt	hi
	movhi	r0, #0
.Ltmp189:
	@DEBUG_VALUE: uart_status_get:uart_id <- [DW_OP_LLVM_entry_value 1] $r0
	@DEBUG_VALUE: uart_get_status_warp:temp <- $r0
	.loc	3 866 5                         @ ../../../components/platform/soc/rt582/rt582_driver/Src/uart_drv.c:866:5
	pophi	{r7, pc}
.Ltmp190:
.LBB11_1:
	@DEBUG_VALUE: uart_get_status_warp:temp <- $r0
	@DEBUG_VALUE: uart_status_get:uart_id <- [DW_OP_LLVM_entry_value 1] $r0
	.loc	3 825 31                        @ ../../../components/platform/soc/rt582/rt582_driver/Src/uart_drv.c:825:31
	movw	r12, :lower16:m_uart_handle
	movt	r12, :upper16:m_uart_handle
	add.w	r2, r12, r0, lsl #4
	lsls	r3, r0, #4
	mov	r1, r0
.Ltmp191:
	@DEBUG_VALUE: uart_status_get:uart_id <- $r1
	@DEBUG_VALUE: uart_get_status_warp:uart_id <- $r1
	@DEBUG_VALUE: uart_get_status_warp:uart_dev <- undef
	ldr	r0, [r2, #4]
.Ltmp192:
	@DEBUG_VALUE: uart_get_status_warp:uart_info <- $r0
	.loc	3 826 26                        @ ../../../components/platform/soc/rt582/rt582_driver/Src/uart_drv.c:826:26
	ldr.w	r12, [r12, r3]
.Ltmp193:
	@DEBUG_VALUE: uart_get_status_warp:uart <- $r12
	.loc	3 828 45                        @ ../../../components/platform/soc/rt582/rt582_driver/Src/uart_drv.c:828:45
	ldr.w	lr, [r0, #32]
.Ltmp194:
	@DEBUG_VALUE: uart_get_status_warp:temp <- $lr
	.loc	3 830 21                        @ ../../../components/platform/soc/rt582/rt582_driver/Src/uart_drv.c:830:21
	ldr.w	r2, [r12, #20]
	movs	r3, #1
.Ltmp195:
	.loc	3 830 13 is_stmt 0              @ ../../../components/platform/soc/rt582/rt582_driver/Src/uart_drv.c:830:13
	bic.w	r2, r3, r2, lsr #6
.Ltmp196:
	.loc	3 835 24 is_stmt 1              @ ../../../components/platform/soc/rt582/rt582_driver/Src/uart_drv.c:835:24
	ldrb.w	r3, [r0, #37]
.Ltmp197:
	.loc	3 830 13                        @ ../../../components/platform/soc/rt582/rt582_driver/Src/uart_drv.c:830:13
	orr.w	r0, r2, lr
.Ltmp198:
	@DEBUG_VALUE: uart_get_status_warp:temp <- $r0
	.loc	3 835 13                        @ ../../../components/platform/soc/rt582/rt582_driver/Src/uart_drv.c:835:13
	cmp	r3, #0
	it	ne
	orrne	r0, r0, #2
.Ltmp199:
	@DEBUG_VALUE: uart_get_status_warp:temp <- $r0
	.loc	3 846 28                        @ ../../../components/platform/soc/rt582/rt582_driver/Src/uart_drv.c:846:28
	cmp	r1, #1
.Ltmp200:
	@DEBUG_VALUE: uart_get_status_warp:temp <- $r0
	.loc	3 866 5                         @ ../../../components/platform/soc/rt582/rt582_driver/Src/uart_drv.c:866:5
	it	ne
	popne	{r7, pc}
.Ltmp201:
.LBB11_2:
	@DEBUG_VALUE: uart_get_status_warp:uart <- $r12
	@DEBUG_VALUE: uart_get_status_warp:uart_id <- $r1
	@DEBUG_VALUE: uart_status_get:uart_id <- $r1
	@DEBUG_VALUE: uart_get_status_warp:temp <- $r0
	.loc	3 846 38                        @ ../../../components/platform/soc/rt582/rt582_driver/Src/uart_drv.c:846:38
	ldr.w	r1, [r12, #24]
.Ltmp202:
	.loc	3 846 13 is_stmt 0              @ ../../../components/platform/soc/rt582/rt582_driver/Src/uart_drv.c:846:13
	and	r1, r1, #16
	orr.w	r0, r0, r1, lsl #4
.Ltmp203:
	@DEBUG_VALUE: uart_get_status_warp:temp <- $r0
	.loc	3 866 5 is_stmt 1               @ ../../../components/platform/soc/rt582/rt582_driver/Src/uart_drv.c:866:5
	pop	{r7, pc}
.Ltmp204:
.Lfunc_end11:
	.size	uart_status_get, .Lfunc_end11-uart_status_get
	.cfi_endproc
	.cantunwind
	.fnend
                                        @ -- End function
	.section	.text.uart_set_break,"ax",%progbits
	.hidden	uart_set_break                  @ -- Begin function uart_set_break
	.globl	uart_set_break
	.p2align	1
	.type	uart_set_break,%function
	.code	16                              @ @uart_set_break
	.thumb_func
uart_set_break:
.Lfunc_begin12:
	.loc	3 871 0                         @ ../../../components/platform/soc/rt582/rt582_driver/Src/uart_drv.c:871:0
	.fnstart
	.cfi_startproc
@ %bb.0:
	@DEBUG_VALUE: uart_set_break:uart_id <- $r0
	@DEBUG_VALUE: uart_set_break:uart_id <- $r0
	@DEBUG_VALUE: uart_set_break:state <- $r1
	.loc	3 876 9 prologue_end            @ ../../../components/platform/soc/rt582/rt582_driver/Src/uart_drv.c:876:9
	cmp	r0, #2
	@DEBUG_VALUE: uart_set_break:state <- $r1
	itt	hi
	movhi	r0, #1
.Ltmp205:
	@DEBUG_VALUE: uart_set_break:uart_id <- [DW_OP_LLVM_entry_value 1] $r0
	.loc	3 915 1                         @ ../../../components/platform/soc/rt582/rt582_driver/Src/uart_drv.c:915:1
	bxhi	lr
.Ltmp206:
.LBB12_1:
	@DEBUG_VALUE: uart_set_break:state <- $r1
	@DEBUG_VALUE: uart_set_break:uart_id <- [DW_OP_LLVM_entry_value 1] $r0
	@DEBUG_VALUE: uart_set_break:uart_dev <- undef
	.loc	3 882 27                        @ ../../../components/platform/soc/rt582/rt582_driver/Src/uart_drv.c:882:27
	movw	r12, :lower16:m_uart_handle
	movt	r12, :upper16:m_uart_handle
	add.w	r2, r12, r0, lsl #4
	ldr	r2, [r2, #4]
.Ltmp207:
	@DEBUG_VALUE: uart_set_break:uart_info <- $r2
	.loc	3 885 21                        @ ../../../components/platform/soc/rt582/rt582_driver/Src/uart_drv.c:885:21
	ldrb.w	r3, [r2, #38]
.Ltmp208:
	.loc	3 885 9 is_stmt 0               @ ../../../components/platform/soc/rt582/rt582_driver/Src/uart_drv.c:885:9
	lsls	r3, r3, #30
	itt	pl
	movpl	r0, #2
	.loc	3 915 1 is_stmt 1               @ ../../../components/platform/soc/rt582/rt582_driver/Src/uart_drv.c:915:1
	bxpl	lr
.Ltmp209:
.LBB12_2:
	@DEBUG_VALUE: uart_set_break:uart_info <- $r2
	@DEBUG_VALUE: uart_set_break:state <- $r1
	@DEBUG_VALUE: uart_set_break:uart_id <- [DW_OP_LLVM_entry_value 1] $r0
	@DEBUG_VALUE: uart_set_break:uart_dev <- undef
	.loc	3 891 22                        @ ../../../components/platform/soc/rt582/rt582_driver/Src/uart_drv.c:891:22
	lsls	r0, r0, #4
	ldr.w	r0, [r12, r0]
.Ltmp210:
	@DEBUG_VALUE: uart_set_break:uart <- $r0
	.loc	3 893 9                         @ ../../../components/platform/soc/rt582/rt582_driver/Src/uart_drv.c:893:9
	cbz	r1, .LBB12_6
.Ltmp211:
@ %bb.3:
	@DEBUG_VALUE: uart_set_break:uart_info <- $r2
	@DEBUG_VALUE: uart_set_break:state <- $r1
	@DEBUG_VALUE: uart_set_break:uart <- $r0
	@DEBUG_VALUE: uart_set_break:uart_id <- [DW_OP_LLVM_entry_value 1] $r0
	.loc	3 896 25                        @ ../../../components/platform/soc/rt582/rt582_driver/Src/uart_drv.c:896:25
	ldrb.w	r1, [r2, #36]
.Ltmp212:
	@DEBUG_VALUE: uart_set_break:state <- [DW_OP_LLVM_entry_value 1] $r1
	.loc	3 896 43 is_stmt 0              @ ../../../components/platform/soc/rt582/rt582_driver/Src/uart_drv.c:896:43
	cbnz	r1, .LBB12_5
.Ltmp213:
@ %bb.4:
	@DEBUG_VALUE: uart_set_break:uart_info <- $r2
	@DEBUG_VALUE: uart_set_break:uart <- $r0
	@DEBUG_VALUE: uart_set_break:state <- [DW_OP_LLVM_entry_value 1] $r1
	@DEBUG_VALUE: uart_set_break:uart_id <- [DW_OP_LLVM_entry_value 1] $r0
	.loc	3 896 54                        @ ../../../components/platform/soc/rt582/rt582_driver/Src/uart_drv.c:896:54
	ldr	r1, [r0, #20]
.Ltmp214:
	.loc	3 896 13                        @ ../../../components/platform/soc/rt582/rt582_driver/Src/uart_drv.c:896:13
	lsls	r1, r1, #25
	bmi	.LBB12_7
.Ltmp215:
.LBB12_5:
	@DEBUG_VALUE: uart_set_break:uart_info <- $r2
	@DEBUG_VALUE: uart_set_break:uart <- $r0
	@DEBUG_VALUE: uart_set_break:state <- [DW_OP_LLVM_entry_value 1] $r1
	@DEBUG_VALUE: uart_set_break:uart_id <- [DW_OP_LLVM_entry_value 1] $r0
	.loc	3 0 13                          @ ../../../components/platform/soc/rt582/rt582_driver/Src/uart_drv.c:0:13
	movs	r0, #3
.Ltmp216:
	.loc	3 915 1 is_stmt 1               @ ../../../components/platform/soc/rt582/rt582_driver/Src/uart_drv.c:915:1
	bx	lr
.Ltmp217:
.LBB12_6:
	@DEBUG_VALUE: uart_set_break:uart_info <- $r2
	@DEBUG_VALUE: uart_set_break:state <- $r1
	@DEBUG_VALUE: uart_set_break:uart <- $r0
	@DEBUG_VALUE: uart_set_break:uart_id <- [DW_OP_LLVM_entry_value 1] $r0
	.loc	3 908 19                        @ ../../../components/platform/soc/rt582/rt582_driver/Src/uart_drv.c:908:19
	ldr	r1, [r0, #12]
.Ltmp218:
	@DEBUG_VALUE: uart_set_break:state <- [DW_OP_LLVM_entry_value 1] $r1
	bic	r1, r1, #64
	str	r1, [r0, #12]
	movs	r0, #0
.Ltmp219:
	.loc	3 910 32                        @ ../../../components/platform/soc/rt582/rt582_driver/Src/uart_drv.c:910:32
	strb.w	r0, [r2, #36]
.Ltmp220:
	.loc	3 915 1                         @ ../../../components/platform/soc/rt582/rt582_driver/Src/uart_drv.c:915:1
	bx	lr
.Ltmp221:
.LBB12_7:
	@DEBUG_VALUE: uart_set_break:uart_info <- $r2
	@DEBUG_VALUE: uart_set_break:uart <- $r0
	@DEBUG_VALUE: uart_set_break:state <- [DW_OP_LLVM_entry_value 1] $r1
	@DEBUG_VALUE: uart_set_break:uart_id <- [DW_OP_LLVM_entry_value 1] $r0
	.loc	3 901 19                        @ ../../../components/platform/soc/rt582/rt582_driver/Src/uart_drv.c:901:19
	ldr	r1, [r0, #12]
	orr	r1, r1, #64
	str	r1, [r0, #12]
	movs	r0, #1
.Ltmp222:
	.loc	3 902 32                        @ ../../../components/platform/soc/rt582/rt582_driver/Src/uart_drv.c:902:32
	strb.w	r0, [r2, #36]
	movs	r0, #0
.Ltmp223:
	.loc	3 915 1                         @ ../../../components/platform/soc/rt582/rt582_driver/Src/uart_drv.c:915:1
	bx	lr
.Ltmp224:
.Lfunc_end12:
	.size	uart_set_break, .Lfunc_end12-uart_set_break
	.cfi_endproc
	.cantunwind
	.fnend
                                        @ -- End function
	.section	.text.uart_set_modem_status,"ax",%progbits
	.hidden	uart_set_modem_status           @ -- Begin function uart_set_modem_status
	.globl	uart_set_modem_status
	.p2align	1
	.type	uart_set_modem_status,%function
	.code	16                              @ @uart_set_modem_status
	.thumb_func
uart_set_modem_status:
.Lfunc_begin13:
	.loc	3 918 0                         @ ../../../components/platform/soc/rt582/rt582_driver/Src/uart_drv.c:918:0
	.fnstart
	.cfi_startproc
@ %bb.0:
	@DEBUG_VALUE: uart_set_modem_status:uart_id <- $r0
	@DEBUG_VALUE: uart_set_modem_status:uart_id <- $r0
	@DEBUG_VALUE: uart_set_modem_status:state <- $r1
	.loc	3 919 9 prologue_end            @ ../../../components/platform/soc/rt582/rt582_driver/Src/uart_drv.c:919:9
	cmp	r0, #1
	@DEBUG_VALUE: uart_set_modem_status:state <- $r1
	itt	ne
	movne	r0, #1
.Ltmp225:
	@DEBUG_VALUE: uart_set_modem_status:uart_id <- [DW_OP_LLVM_entry_value 1] $r0
	.loc	3 948 1                         @ ../../../components/platform/soc/rt582/rt582_driver/Src/uart_drv.c:948:1
	bxne	lr
.Ltmp226:
.LBB13_1:
	@DEBUG_VALUE: uart_set_modem_status:state <- $r1
	@DEBUG_VALUE: uart_set_modem_status:uart_id <- [DW_OP_LLVM_entry_value 1] $r0
	.loc	3 924 34                        @ ../../../components/platform/soc/rt582/rt582_driver/Src/uart_drv.c:924:34
	movw	r0, :lower16:uart1_info
	movt	r0, :upper16:uart1_info
	ldrb.w	r0, [r0, #38]
.Ltmp227:
	.loc	3 924 9 is_stmt 0               @ ../../../components/platform/soc/rt582/rt582_driver/Src/uart_drv.c:924:9
	lsls	r0, r0, #30
	itt	pl
	movpl	r0, #2
	.loc	3 948 1 is_stmt 1               @ ../../../components/platform/soc/rt582/rt582_driver/Src/uart_drv.c:948:1
	bxpl	lr
.Ltmp228:
.LBB13_2:
	@DEBUG_VALUE: uart_set_modem_status:state <- $r1
	@DEBUG_VALUE: uart_set_modem_status:uart_id <- [DW_OP_LLVM_entry_value 1] $r0
	.loc	3 0 1 is_stmt 0                 @ ../../../components/platform/soc/rt582/rt582_driver/Src/uart_drv.c:0:1
	movs	r0, #16
	movt	r0, #41040
.Ltmp229:
	ldr	r2, [r0]
.Ltmp230:
	.loc	3 930 9 is_stmt 1               @ ../../../components/platform/soc/rt582/rt582_driver/Src/uart_drv.c:930:9
	cmp	r1, #0
.Ltmp231:
	.loc	3 944 20                        @ ../../../components/platform/soc/rt582/rt582_driver/Src/uart_drv.c:944:20
	ite	eq
	biceq	r1, r2, #2
.Ltmp232:
	@DEBUG_VALUE: uart_set_modem_status:state <- [DW_OP_LLVM_entry_value 1] $r1
	.loc	3 936 20                        @ ../../../components/platform/soc/rt582/rt582_driver/Src/uart_drv.c:936:20
	orrne	r1, r2, #2
.Ltmp233:
	.loc	3 0 0 is_stmt 0                 @ ../../../components/platform/soc/rt582/rt582_driver/Src/uart_drv.c:0:0
	str	r1, [r0]
	movs	r0, #0
.Ltmp234:
	.loc	3 948 1 is_stmt 1               @ ../../../components/platform/soc/rt582/rt582_driver/Src/uart_drv.c:948:1
	bx	lr
.Ltmp235:
.Lfunc_end13:
	.size	uart_set_modem_status, .Lfunc_end13-uart_set_modem_status
	.cfi_endproc
	.cantunwind
	.fnend
                                        @ -- End function
	.section	.text.uart0_handler,"ax",%progbits
	.hidden	uart0_handler                   @ -- Begin function uart0_handler
	.globl	uart0_handler
	.p2align	1
	.type	uart0_handler,%function
	.code	16                              @ @uart0_handler
	.thumb_func
uart0_handler:
.Lfunc_begin14:
	.loc	3 1237 0                        @ ../../../components/platform/soc/rt582/rt582_driver/Src/uart_drv.c:1237:0
	.fnstart
	.cfi_startproc
@ %bb.0:
	.loc	3 1238 5 prologue_end           @ ../../../components/platform/soc/rt582/rt582_driver/Src/uart_drv.c:1238:5
	movw	r0, :lower16:m_uart_handle
	movt	r0, :upper16:m_uart_handle
.Ltmp236:
	b	uart_irqhandler
.Ltmp237:
.Lfunc_end14:
	.size	uart0_handler, .Lfunc_end14-uart0_handler
	.cfi_endproc
	.cantunwind
	.fnend
                                        @ -- End function
	.section	.text.uart_irqhandler,"ax",%progbits
	.p2align	1                               @ -- Begin function uart_irqhandler
	.type	uart_irqhandler,%function
	.code	16                              @ @uart_irqhandler
	.thumb_func
uart_irqhandler:
.Lfunc_begin15:
	.loc	3 999 0                         @ ../../../components/platform/soc/rt582/rt582_driver/Src/uart_drv.c:999:0
	.fnstart
	.cfi_startproc
@ %bb.0:
	@DEBUG_VALUE: uart_irqhandler:uart_dev <- $r0
	.save	{r4, r5, r6, r7, r8, lr}
	push.w	{r4, r5, r6, r7, r8, lr}
	.cfi_def_cfa_offset 24
	.cfi_offset lr, -4
	.cfi_offset r8, -8
	.cfi_offset r7, -12
	.cfi_offset r6, -16
	.cfi_offset r5, -20
	.cfi_offset r4, -24
.Ltmp238:
	.loc	3 1009 23 prologue_end          @ ../../../components/platform/soc/rt582/rt582_driver/Src/uart_drv.c:1009:23
	ldrd	r7, r6, [r0]
	mov	r4, r0
.Ltmp239:
	@DEBUG_VALUE: uart_irqhandler:uart_dev <- $r4
	@DEBUG_VALUE: uart_irqhandler:uart_info <- undef
	@DEBUG_VALUE: uart_irqhandler:uart <- undef
	@DEBUG_VALUE: uart_irqhandler:event <- 0
	@DEBUG_VALUE: uart_irqhandler:uart_dev <- $r4
	.loc	3 1010 19                       @ ../../../components/platform/soc/rt582/rt582_driver/Src/uart_drv.c:1010:19
	ldr.w	r12, [r7, #8]
.Ltmp240:
	@DEBUG_VALUE: uart_irqhandler:iir <- undef
	.loc	3 1015 16                       @ ../../../components/platform/soc/rt582/rt582_driver/Src/uart_drv.c:1015:16
	ldr	r1, [r7, #60]
	movs	r5, #0
.Ltmp241:
	.loc	3 1015 9 is_stmt 0              @ ../../../components/platform/soc/rt582/rt582_driver/Src/uart_drv.c:1015:9
	lsls	r1, r1, #31
	beq	.LBB15_13
.Ltmp242:
@ %bb.1:
	@DEBUG_VALUE: uart_irqhandler:uart_dev <- $r4
	@DEBUG_VALUE: uart_irqhandler:event <- 0
	.loc	3 0 9                           @ ../../../components/platform/soc/rt582/rt582_driver/Src/uart_drv.c:0:9
	movs	r1, #1
.Ltmp243:
	.loc	3 1018 31 is_stmt 1             @ ../../../components/platform/soc/rt582/rt582_driver/Src/uart_drv.c:1018:31
	str	r1, [r7, #60]
	.loc	3 1019 30                       @ ../../../components/platform/soc/rt582/rt582_driver/Src/uart_drv.c:1019:30
	str	r5, [r7, #64]
	.loc	3 1023 29                       @ ../../../components/platform/soc/rt582/rt582_driver/Src/uart_drv.c:1023:29
	ldr	r1, [r6, #56]
.Ltmp244:
	@DEBUG_VALUE: uart_irqhandler:length <- $r1
	.loc	3 1025 13                       @ ../../../components/platform/soc/rt582/rt582_driver/Src/uart_drv.c:1025:13
	cbz	r1, .LBB15_5
.Ltmp245:
@ %bb.2:
	@DEBUG_VALUE: uart_irqhandler:uart_dev <- $r4
	@DEBUG_VALUE: uart_irqhandler:length <- $r1
	@DEBUG_VALUE: uart_irqhandler:event <- 0
	@DEBUG_VALUE: uart_irqhandler:ptr <- undef
	@DEBUG_VALUE: uart_irqhandler:i <- 0
	.loc	3 1027 30                       @ ../../../components/platform/soc/rt582/rt582_driver/Src/uart_drv.c:1027:30
	ldr	r2, [r6, #48]
.Ltmp246:
	@DEBUG_VALUE: uart_irqhandler:ptr <- $r2
	.loc	3 1029 13                       @ ../../../components/platform/soc/rt582/rt582_driver/Src/uart_drv.c:1029:13
	add.w	r3, r6, #40
.Ltmp247:
	.p2align	2
.LBB15_3:                               @ =>This Inner Loop Header: Depth=1
	@DEBUG_VALUE: uart_irqhandler:uart_dev <- $r4
	@DEBUG_VALUE: uart_irqhandler:ptr <- $r2
	@DEBUG_VALUE: uart_irqhandler:event <- 0
	@DEBUG_VALUE: uart_irqhandler:ptr <- $r2
	@DEBUG_VALUE: uart_irqhandler:i <- undef
	.loc	3 1031 26                       @ ../../../components/platform/soc/rt582/rt582_driver/Src/uart_drv.c:1031:26
	ldrb	r5, [r3], #1
.Ltmp248:
	.loc	3 1029 27                       @ ../../../components/platform/soc/rt582/rt582_driver/Src/uart_drv.c:1029:27
	subs	r1, #1
.Ltmp249:
	.loc	3 1031 24                       @ ../../../components/platform/soc/rt582/rt582_driver/Src/uart_drv.c:1031:24
	strb	r5, [r2], #1
.Ltmp250:
	@DEBUG_VALUE: uart_irqhandler:i <- [DW_OP_plus_uconst 1, DW_OP_stack_value] undef
	@DEBUG_VALUE: uart_irqhandler:ptr <- $r2
	.loc	3 1029 13                       @ ../../../components/platform/soc/rt582/rt582_driver/Src/uart_drv.c:1029:13
	bne	.LBB15_3
.Ltmp251:
@ %bb.4:
	@DEBUG_VALUE: uart_irqhandler:uart_dev <- $r4
	@DEBUG_VALUE: uart_irqhandler:ptr <- $r2
	@DEBUG_VALUE: uart_irqhandler:event <- 0
	.loc	3 0 13 is_stmt 0                @ ../../../components/platform/soc/rt582/rt582_driver/Src/uart_drv.c:0:13
	movs	r1, #0
	.loc	3 1034 40 is_stmt 1             @ ../../../components/platform/soc/rt582/rt582_driver/Src/uart_drv.c:1034:40
	str	r1, [r6, #56]
.Ltmp252:
.LBB15_5:
	@DEBUG_VALUE: uart_irqhandler:uart_dev <- $r4
	@DEBUG_VALUE: uart_irqhandler:event <- 0
	.loc	3 1037 29                       @ ../../../components/platform/soc/rt582/rt582_driver/Src/uart_drv.c:1037:29
	ldr	r1, [r6, #52]
.Ltmp253:
	@DEBUG_VALUE: uart_irqhandler:length <- $r1
	.loc	3 1039 13                       @ ../../../components/platform/soc/rt582/rt582_driver/Src/uart_drv.c:1039:13
	cbz	r1, .LBB15_8
.Ltmp254:
@ %bb.6:
	@DEBUG_VALUE: uart_irqhandler:uart_dev <- $r4
	@DEBUG_VALUE: uart_irqhandler:length <- $r1
	@DEBUG_VALUE: uart_irqhandler:event <- 0
	.loc	3 1042 17                       @ ../../../components/platform/soc/rt582/rt582_driver/Src/uart_drv.c:1042:17
	cmp	r1, #3
	bhi	.LBB15_9
.Ltmp255:
@ %bb.7:
	@DEBUG_VALUE: uart_irqhandler:uart_dev <- $r4
	@DEBUG_VALUE: uart_irqhandler:length <- $r1
	@DEBUG_VALUE: uart_irqhandler:event <- 0
	.loc	3 1048 52                       @ ../../../components/platform/soc/rt582/rt582_driver/Src/uart_drv.c:1048:52
	ldr	r2, [r6, #44]
	movs	r3, #0
	.loc	3 1048 39 is_stmt 0             @ ../../../components/platform/soc/rt582/rt582_driver/Src/uart_drv.c:1048:39
	strd	r2, r3, [r6, #48]
	.loc	3 1045 44 is_stmt 1             @ ../../../components/platform/soc/rt582/rt582_driver/Src/uart_drv.c:1045:44
	str	r1, [r6, #56]
	.loc	3 1050 49                       @ ../../../components/platform/soc/rt582/rt582_driver/Src/uart_drv.c:1050:49
	add.w	r2, r6, #40
	b	.LBB15_12
.Ltmp256:
.LBB15_8:
	@DEBUG_VALUE: uart_irqhandler:uart_dev <- $r4
	@DEBUG_VALUE: uart_irqhandler:length <- $r1
	@DEBUG_VALUE: uart_irqhandler:event <- 0
	.loc	3 1089 54                       @ ../../../components/platform/soc/rt582/rt582_driver/Src/uart_drv.c:1089:54
	ldr	r1, [r6, #16]
.Ltmp257:
	.loc	3 0 54 is_stmt 0                @ ../../../components/platform/soc/rt582/rt582_driver/Src/uart_drv.c:0:54
	movs	r5, #2
.Ltmp258:
	@DEBUG_VALUE: uart_irqhandler:event <- 2
	.loc	3 1089 36                       @ ../../../components/platform/soc/rt582/rt582_driver/Src/uart_drv.c:1089:36
	str	r1, [r6, #24]
	movs	r1, #0
	.loc	3 1090 32 is_stmt 1             @ ../../../components/platform/soc/rt582/rt582_driver/Src/uart_drv.c:1090:32
	strb.w	r1, [r6, #37]
	b	.LBB15_13
.Ltmp259:
.LBB15_9:
	@DEBUG_VALUE: uart_irqhandler:uart_dev <- $r4
	@DEBUG_VALUE: uart_irqhandler:length <- $r1
	@DEBUG_VALUE: uart_irqhandler:event <- 0
	.loc	3 1057 29                       @ ../../../components/platform/soc/rt582/rt582_driver/Src/uart_drv.c:1057:29
	ands	r2, r1, #3
.Ltmp260:
	.loc	3 1057 21 is_stmt 0             @ ../../../components/platform/soc/rt582/rt582_driver/Src/uart_drv.c:1057:21
	beq	.LBB15_11
.Ltmp261:
@ %bb.10:
	@DEBUG_VALUE: uart_irqhandler:uart_dev <- $r4
	@DEBUG_VALUE: uart_irqhandler:length <- $r1
	@DEBUG_VALUE: uart_irqhandler:event <- 0
	.loc	3 1072 46 is_stmt 1             @ ../../../components/platform/soc/rt582/rt582_driver/Src/uart_drv.c:1072:46
	str	r2, [r6, #52]
	.loc	3 1074 56                       @ ../../../components/platform/soc/rt582/rt582_driver/Src/uart_drv.c:1074:56
	ldr	r2, [r6, #44]
	movs	r3, #0
	.loc	3 1075 87                       @ ../../../components/platform/soc/rt582/rt582_driver/Src/uart_drv.c:1075:87
	bic	r1, r1, #3
.Ltmp262:
	.loc	3 1073 48                       @ ../../../components/platform/soc/rt582/rt582_driver/Src/uart_drv.c:1073:48
	str	r3, [r6, #56]
	.loc	3 1075 77                       @ ../../../components/platform/soc/rt582/rt582_driver/Src/uart_drv.c:1075:77
	adds	r3, r2, r1
	.loc	3 1074 43                       @ ../../../components/platform/soc/rt582/rt582_driver/Src/uart_drv.c:1074:43
	str	r2, [r6, #48]
	.loc	3 1075 48                       @ ../../../components/platform/soc/rt582/rt582_driver/Src/uart_drv.c:1075:48
	str	r3, [r6, #44]
	b	.LBB15_12
.Ltmp263:
.LBB15_11:
	@DEBUG_VALUE: uart_irqhandler:uart_dev <- $r4
	@DEBUG_VALUE: uart_irqhandler:length <- $r1
	@DEBUG_VALUE: uart_irqhandler:event <- 0
	.loc	3 0 48 is_stmt 0                @ ../../../components/platform/soc/rt582/rt582_driver/Src/uart_drv.c:0:48
	movs	r3, #0
.Ltmp264:
	.loc	3 1065 65 is_stmt 1             @ ../../../components/platform/soc/rt582/rt582_driver/Src/uart_drv.c:1065:65
	ldr	r2, [r6, #44]
	.loc	3 1060 46                       @ ../../../components/platform/soc/rt582/rt582_driver/Src/uart_drv.c:1060:46
	str	r3, [r6, #52]
	.loc	3 1061 48                       @ ../../../components/platform/soc/rt582/rt582_driver/Src/uart_drv.c:1061:48
	str	r3, [r6, #56]
.Ltmp265:
.LBB15_12:
	@DEBUG_VALUE: uart_irqhandler:uart_dev <- $r4
	@DEBUG_VALUE: uart_irqhandler:event <- 0
	.loc	3 0 0 is_stmt 0                 @ ../../../components/platform/soc/rt582/rt582_driver/Src/uart_drv.c:0:0
	str	r2, [r7, #32]
	str	r1, [r7, #36]
	movs	r1, #1
.Ltmp266:
	.loc	3 1083 34 is_stmt 1             @ ../../../components/platform/soc/rt582/rt582_driver/Src/uart_drv.c:1083:34
	str	r1, [r7, #64]
	movs	r5, #0
.Ltmp267:
.LBB15_13:
	@DEBUG_VALUE: uart_irqhandler:uart_dev <- $r4
	@DEBUG_VALUE: uart_irqhandler:event <- $r5
	@DEBUG_VALUE: uart_irqhandler:iir <- undef
	.loc	3 1096 16                       @ ../../../components/platform/soc/rt582/rt582_driver/Src/uart_drv.c:1096:16
	ldr	r1, [r7, #60]
.Ltmp268:
	.loc	3 1096 9 is_stmt 0              @ ../../../components/platform/soc/rt582/rt582_driver/Src/uart_drv.c:1096:9
	lsls	r1, r1, #30
	bpl	.LBB15_15
.Ltmp269:
@ %bb.14:
	@DEBUG_VALUE: uart_irqhandler:event <- $r5
	@DEBUG_VALUE: uart_irqhandler:uart_dev <- $r4
	.loc	3 0 9                           @ ../../../components/platform/soc/rt582/rt582_driver/Src/uart_drv.c:0:9
	movs	r1, #2
.Ltmp270:
	.loc	3 1099 31 is_stmt 1             @ ../../../components/platform/soc/rt582/rt582_driver/Src/uart_drv.c:1099:31
	str	r1, [r7, #60]
	movs	r1, #0
	.loc	3 1101 30                       @ ../../../components/platform/soc/rt582/rt582_driver/Src/uart_drv.c:1101:30
	str	r1, [r7, #68]
	.loc	3 1103 50                       @ ../../../components/platform/soc/rt582/rt582_driver/Src/uart_drv.c:1103:50
	ldr	r2, [r6, #20]
	.loc	3 1107 15                       @ ../../../components/platform/soc/rt582/rt582_driver/Src/uart_drv.c:1107:15
	orr	r5, r5, #1
.Ltmp271:
	@DEBUG_VALUE: uart_irqhandler:event <- $r5
	.loc	3 1103 32                       @ ../../../components/platform/soc/rt582/rt582_driver/Src/uart_drv.c:1103:32
	str	r2, [r6, #28]
	.loc	3 1104 32                       @ ../../../components/platform/soc/rt582/rt582_driver/Src/uart_drv.c:1104:32
	strb.w	r1, [r6, #36]
.Ltmp272:
.LBB15_15:
	@DEBUG_VALUE: uart_irqhandler:event <- $r5
	@DEBUG_VALUE: uart_irqhandler:uart_dev <- $r4
	@DEBUG_VALUE: uart_irqhandler:event <- $r5
	@DEBUG_VALUE: uart_irqhandler:iir <- undef
	.loc	3 1111 9                        @ ../../../components/platform/soc/rt582/rt582_driver/Src/uart_drv.c:1111:9
	lsls.w	r1, r12, #31
	bne.w	.LBB15_43
.Ltmp273:
@ %bb.16:
	@DEBUG_VALUE: uart_irqhandler:event <- $r5
	@DEBUG_VALUE: uart_irqhandler:uart_dev <- $r4
	.loc	3 0 0 is_stmt 0                 @ ../../../components/platform/soc/rt582/rt582_driver/Src/uart_drv.c:0:0
	and	r8, r12, #15
.Ltmp274:
	@DEBUG_VALUE: uart_irqhandler:iir <- $r8
	.loc	3 1117 13 is_stmt 1             @ ../../../components/platform/soc/rt582/rt582_driver/Src/uart_drv.c:1117:13
	cmp.w	r8, #6
	bne	.LBB15_27
.Ltmp275:
@ %bb.17:
	@DEBUG_VALUE: uart_irqhandler:iir <- $r8
	@DEBUG_VALUE: uart_irqhandler:event <- $r5
	@DEBUG_VALUE: uart_irqhandler:uart_dev <- $r4
	@DEBUG_VALUE: uart_rx_line_int_handler:uart_dev <- $r4
	@DEBUG_VALUE: uart_rx_line_int_handler:event <- 0
	@DEBUG_VALUE: uart_rx_line_int_handler:status <- [DW_OP_plus_uconst 32, DW_OP_stack_value] undef
	.loc	3 957 23                        @ ../../../components/platform/soc/rt582/rt582_driver/Src/uart_drv.c:957:23
	ldrd	r2, r1, [r4]
	.loc	3 957 29 is_stmt 0              @ ../../../components/platform/soc/rt582/rt582_driver/Src/uart_drv.c:957:29
	ldr	r3, [r2, #20]
.Ltmp276:
	@DEBUG_VALUE: uart_rx_line_int_handler:lsr <- $r3
	.loc	3 962 9 is_stmt 1               @ ../../../components/platform/soc/rt582/rt582_driver/Src/uart_drv.c:962:9
	lsls	r2, r3, #30
	bmi	.LBB15_19
.Ltmp277:
@ %bb.18:
	@DEBUG_VALUE: uart_irqhandler:iir <- $r8
	@DEBUG_VALUE: uart_irqhandler:event <- $r5
	@DEBUG_VALUE: uart_rx_line_int_handler:uart_dev <- $r4
	@DEBUG_VALUE: uart_irqhandler:uart_dev <- $r4
	@DEBUG_VALUE: uart_rx_line_int_handler:lsr <- $r3
	@DEBUG_VALUE: uart_rx_line_int_handler:event <- 0
	.loc	3 0 9 is_stmt 0                 @ ../../../components/platform/soc/rt582/rt582_driver/Src/uart_drv.c:0:9
	movs	r2, #0
	b	.LBB15_20
.Ltmp278:
.LBB15_19:
	@DEBUG_VALUE: uart_irqhandler:iir <- $r8
	@DEBUG_VALUE: uart_irqhandler:event <- $r5
	@DEBUG_VALUE: uart_rx_line_int_handler:uart_dev <- $r4
	@DEBUG_VALUE: uart_irqhandler:uart_dev <- $r4
	@DEBUG_VALUE: uart_rx_line_int_handler:lsr <- $r3
	@DEBUG_VALUE: uart_rx_line_int_handler:event <- 0
	@DEBUG_VALUE: uart_rx_line_int_handler:status <- [DW_OP_plus_uconst 32, DW_OP_stack_value] $r1
	.loc	3 964 29 is_stmt 1              @ ../../../components/platform/soc/rt582/rt582_driver/Src/uart_drv.c:964:29
	ldrb.w	r2, [r1, #32]
	orr	r2, r2, #8
	strb.w	r2, [r1, #32]
	movs	r2, #4
.Ltmp279:
	@DEBUG_VALUE: uart_rx_line_int_handler:event <- 4
.LBB15_20:
	@DEBUG_VALUE: uart_irqhandler:iir <- $r8
	@DEBUG_VALUE: uart_irqhandler:event <- $r5
	@DEBUG_VALUE: uart_rx_line_int_handler:uart_dev <- $r4
	@DEBUG_VALUE: uart_irqhandler:uart_dev <- $r4
	@DEBUG_VALUE: uart_rx_line_int_handler:lsr <- $r3
	@DEBUG_VALUE: uart_rx_line_int_handler:event <- $r2
	.loc	3 969 9                         @ ../../../components/platform/soc/rt582/rt582_driver/Src/uart_drv.c:969:9
	lsls	r0, r3, #29
	bpl	.LBB15_22
.Ltmp280:
@ %bb.21:
	@DEBUG_VALUE: uart_irqhandler:iir <- $r8
	@DEBUG_VALUE: uart_irqhandler:event <- $r5
	@DEBUG_VALUE: uart_rx_line_int_handler:uart_dev <- $r4
	@DEBUG_VALUE: uart_irqhandler:uart_dev <- $r4
	@DEBUG_VALUE: uart_rx_line_int_handler:lsr <- $r3
	@DEBUG_VALUE: uart_rx_line_int_handler:event <- $r2
	.loc	3 971 33                        @ ../../../components/platform/soc/rt582/rt582_driver/Src/uart_drv.c:971:33
	ldrb.w	r0, [r1, #32]
	.loc	3 972 15                        @ ../../../components/platform/soc/rt582/rt582_driver/Src/uart_drv.c:972:15
	adds	r2, #64
.Ltmp281:
	@DEBUG_VALUE: uart_rx_line_int_handler:event <- $r2
	.loc	3 971 33                        @ ../../../components/platform/soc/rt582/rt582_driver/Src/uart_drv.c:971:33
	orr	r0, r0, #64
	strb.w	r0, [r1, #32]
.Ltmp282:
.LBB15_22:
	@DEBUG_VALUE: uart_irqhandler:iir <- $r8
	@DEBUG_VALUE: uart_irqhandler:event <- $r5
	@DEBUG_VALUE: uart_rx_line_int_handler:uart_dev <- $r4
	@DEBUG_VALUE: uart_irqhandler:uart_dev <- $r4
	@DEBUG_VALUE: uart_rx_line_int_handler:lsr <- $r3
	@DEBUG_VALUE: uart_rx_line_int_handler:event <- $r2
	@DEBUG_VALUE: uart_rx_line_int_handler:event <- $r2
	.loc	3 976 9                         @ ../../../components/platform/soc/rt582/rt582_driver/Src/uart_drv.c:976:9
	lsls	r0, r3, #27
	bpl	.LBB15_24
.Ltmp283:
@ %bb.23:
	@DEBUG_VALUE: uart_irqhandler:iir <- $r8
	@DEBUG_VALUE: uart_irqhandler:event <- $r5
	@DEBUG_VALUE: uart_rx_line_int_handler:uart_dev <- $r4
	@DEBUG_VALUE: uart_irqhandler:uart_dev <- $r4
	@DEBUG_VALUE: uart_rx_line_int_handler:lsr <- $r3
	@DEBUG_VALUE: uart_rx_line_int_handler:event <- $r2
	.loc	3 978 26                        @ ../../../components/platform/soc/rt582/rt582_driver/Src/uart_drv.c:978:26
	ldrb.w	r0, [r1, #32]
	.loc	3 979 15                        @ ../../../components/platform/soc/rt582/rt582_driver/Src/uart_drv.c:979:15
	orr	r2, r2, #16
.Ltmp284:
	@DEBUG_VALUE: uart_rx_line_int_handler:event <- $r2
	.loc	3 978 26                        @ ../../../components/platform/soc/rt582/rt582_driver/Src/uart_drv.c:978:26
	orr	r0, r0, #16
	strb.w	r0, [r1, #32]
.Ltmp285:
.LBB15_24:
	@DEBUG_VALUE: uart_irqhandler:iir <- $r8
	@DEBUG_VALUE: uart_irqhandler:event <- $r5
	@DEBUG_VALUE: uart_rx_line_int_handler:uart_dev <- $r4
	@DEBUG_VALUE: uart_irqhandler:uart_dev <- $r4
	@DEBUG_VALUE: uart_rx_line_int_handler:lsr <- $r3
	@DEBUG_VALUE: uart_rx_line_int_handler:event <- $r2
	@DEBUG_VALUE: uart_rx_line_int_handler:event <- $r2
	.loc	3 983 9                         @ ../../../components/platform/soc/rt582/rt582_driver/Src/uart_drv.c:983:9
	lsls	r0, r3, #28
	bpl	.LBB15_26
.Ltmp286:
@ %bb.25:
	@DEBUG_VALUE: uart_irqhandler:iir <- $r8
	@DEBUG_VALUE: uart_irqhandler:event <- $r5
	@DEBUG_VALUE: uart_rx_line_int_handler:uart_dev <- $r4
	@DEBUG_VALUE: uart_irqhandler:uart_dev <- $r4
	@DEBUG_VALUE: uart_rx_line_int_handler:lsr <- $r3
	@DEBUG_VALUE: uart_rx_line_int_handler:event <- $r2
	.loc	3 985 34                        @ ../../../components/platform/soc/rt582/rt582_driver/Src/uart_drv.c:985:34
	ldrb.w	r0, [r1, #32]
	.loc	3 986 15                        @ ../../../components/platform/soc/rt582/rt582_driver/Src/uart_drv.c:986:15
	orr	r2, r2, #32
.Ltmp287:
	@DEBUG_VALUE: uart_rx_line_int_handler:event <- $r2
	.loc	3 985 34                        @ ../../../components/platform/soc/rt582/rt582_driver/Src/uart_drv.c:985:34
	orr	r0, r0, #32
	strb.w	r0, [r1, #32]
.Ltmp288:
.LBB15_26:
	@DEBUG_VALUE: uart_irqhandler:iir <- $r8
	@DEBUG_VALUE: uart_irqhandler:event <- $r5
	@DEBUG_VALUE: uart_irqhandler:uart_dev <- $r4
	.loc	3 1119 19                       @ ../../../components/platform/soc/rt582/rt582_driver/Src/uart_drv.c:1119:19
	orrs	r5, r2
.Ltmp289:
	@DEBUG_VALUE: uart_irqhandler:event <- $r5
.LBB15_27:
	@DEBUG_VALUE: uart_irqhandler:iir <- $r8
	@DEBUG_VALUE: uart_irqhandler:event <- $r5
	@DEBUG_VALUE: uart_irqhandler:uart_dev <- $r4
	@DEBUG_VALUE: uart_irqhandler:event <- $r5
	.loc	3 1125 23                       @ ../../../components/platform/soc/rt582/rt582_driver/Src/uart_drv.c:1125:23
	ldrb	r0, [r4, #14]
.Ltmp290:
	.loc	3 1125 13 is_stmt 0             @ ../../../components/platform/soc/rt582/rt582_driver/Src/uart_drv.c:1125:13
	cbnz	r0, .LBB15_36
.Ltmp291:
@ %bb.28:
	@DEBUG_VALUE: uart_irqhandler:iir <- $r8
	@DEBUG_VALUE: uart_irqhandler:event <- $r5
	@DEBUG_VALUE: uart_irqhandler:uart_dev <- $r4
	.loc	3 1127 40 is_stmt 1             @ ../../../components/platform/soc/rt582/rt582_driver/Src/uart_drv.c:1127:40
	and	r0, r12, #7
	cmp	r0, #4
	bne	.LBB15_34
.Ltmp292:
	.p2align	2
.LBB15_29:                              @ =>This Inner Loop Header: Depth=1
	@DEBUG_VALUE: uart_irqhandler:iir <- $r8
	@DEBUG_VALUE: uart_irqhandler:event <- $r5
	@DEBUG_VALUE: uart_irqhandler:uart_dev <- $r4
	.loc	3 1131 31                       @ ../../../components/platform/soc/rt582/rt582_driver/Src/uart_drv.c:1131:31
	ldr	r0, [r7, #20]
	.loc	3 1131 17 is_stmt 0             @ ../../../components/platform/soc/rt582/rt582_driver/Src/uart_drv.c:1131:17
	lsls	r0, r0, #31
	beq	.LBB15_34
.Ltmp293:
@ %bb.30:                               @   in Loop: Header=BB15_29 Depth=1
	@DEBUG_VALUE: uart_irqhandler:iir <- $r8
	@DEBUG_VALUE: uart_irqhandler:event <- $r5
	@DEBUG_VALUE: uart_irqhandler:uart_dev <- $r4
	.loc	3 1134 35 is_stmt 1             @ ../../../components/platform/soc/rt582/rt582_driver/Src/uart_drv.c:1134:35
	ldrb	r0, [r4, #15]
.Ltmp294:
	.loc	3 1134 25 is_stmt 0             @ ../../../components/platform/soc/rt582/rt582_driver/Src/uart_drv.c:1134:25
	cbz	r0, .LBB15_32
.Ltmp295:
@ %bb.31:                               @   in Loop: Header=BB15_29 Depth=1
	@DEBUG_VALUE: uart_irqhandler:iir <- $r8
	@DEBUG_VALUE: uart_irqhandler:event <- $r5
	@DEBUG_VALUE: uart_irqhandler:uart_dev <- $r4
	@DEBUG_VALUE: uart_irqhandler:event1 <- 256
	.loc	3 1137 36 is_stmt 1             @ ../../../components/platform/soc/rt582/rt582_driver/Src/uart_drv.c:1137:36
	ldrd	r2, r1, [r6]
	.loc	3 1137 25 is_stmt 0             @ ../../../components/platform/soc/rt582/rt582_driver/Src/uart_drv.c:1137:25
	mov.w	r0, #256
	blx	r2
.Ltmp296:
	.loc	3 0 25                          @ ../../../components/platform/soc/rt582/rt582_driver/Src/uart_drv.c:0:25
	b	.LBB15_29
.Ltmp297:
	.p2align	2
.LBB15_32:                              @   in Loop: Header=BB15_29 Depth=1
	@DEBUG_VALUE: uart_irqhandler:iir <- $r8
	@DEBUG_VALUE: uart_irqhandler:event <- $r5
	@DEBUG_VALUE: uart_irqhandler:uart_dev <- $r4
	.loc	3 1143 82 is_stmt 1             @ ../../../components/platform/soc/rt582/rt582_driver/Src/uart_drv.c:1143:82
	ldr	r0, [r7]
	.loc	3 1143 70 is_stmt 0             @ ../../../components/platform/soc/rt582/rt582_driver/Src/uart_drv.c:1143:70
	ldr	r1, [r6, #24]
	.loc	3 1143 41                       @ ../../../components/platform/soc/rt582/rt582_driver/Src/uart_drv.c:1143:41
	ldr	r2, [r6, #8]
	.loc	3 1143 70                       @ ../../../components/platform/soc/rt582/rt582_driver/Src/uart_drv.c:1143:70
	adds	r3, r1, #1
	str	r3, [r6, #24]
	.loc	3 1143 74                       @ ../../../components/platform/soc/rt582/rt582_driver/Src/uart_drv.c:1143:74
	strb	r0, [r2, r1]
.Ltmp298:
	.loc	3 1146 71 is_stmt 1             @ ../../../components/platform/soc/rt582/rt582_driver/Src/uart_drv.c:1146:71
	ldr	r0, [r6, #16]
	.loc	3 1146 45 is_stmt 0             @ ../../../components/platform/soc/rt582/rt582_driver/Src/uart_drv.c:1146:45
	ldr	r1, [r6, #24]
.Ltmp299:
	.loc	3 1146 29                       @ ../../../components/platform/soc/rt582/rt582_driver/Src/uart_drv.c:1146:29
	cmp	r1, r0
	bne	.LBB15_29
.Ltmp300:
@ %bb.33:
	@DEBUG_VALUE: uart_irqhandler:iir <- $r8
	@DEBUG_VALUE: uart_irqhandler:event <- $r5
	@DEBUG_VALUE: uart_irqhandler:uart_dev <- $r4
	.loc	3 1151 39 is_stmt 1             @ ../../../components/platform/soc/rt582/rt582_driver/Src/uart_drv.c:1151:39
	ldr	r0, [r7, #4]
	.loc	3 1155 35                       @ ../../../components/platform/soc/rt582/rt582_driver/Src/uart_drv.c:1155:35
	orr	r5, r5, #2
.Ltmp301:
	@DEBUG_VALUE: uart_irqhandler:event <- $r5
	.loc	3 1151 39                       @ ../../../components/platform/soc/rt582/rt582_driver/Src/uart_drv.c:1151:39
	bic	r0, r0, #1
	str	r0, [r7, #4]
	movs	r0, #0
	.loc	3 1154 48                       @ ../../../components/platform/soc/rt582/rt582_driver/Src/uart_drv.c:1154:48
	strb.w	r0, [r6, #37]
.Ltmp302:
.LBB15_34:
	@DEBUG_VALUE: uart_irqhandler:iir <- $r8
	@DEBUG_VALUE: uart_irqhandler:event <- $r5
	@DEBUG_VALUE: uart_irqhandler:uart_dev <- $r4
	@DEBUG_VALUE: uart_irqhandler:event <- $r5
	.loc	3 1163 17                       @ ../../../components/platform/soc/rt582/rt582_driver/Src/uart_drv.c:1163:17
	cmp.w	r8, #12
	bne	.LBB15_36
.Ltmp303:
@ %bb.35:
	@DEBUG_VALUE: uart_irqhandler:iir <- $r8
	@DEBUG_VALUE: uart_irqhandler:event <- $r5
	@DEBUG_VALUE: uart_irqhandler:uart_dev <- $r4
	.loc	3 1166 63                       @ ../../../components/platform/soc/rt582/rt582_driver/Src/uart_drv.c:1166:63
	ldr	r0, [r6, #16]
	.loc	3 1166 37 is_stmt 0             @ ../../../components/platform/soc/rt582/rt582_driver/Src/uart_drv.c:1166:37
	ldr	r1, [r6, #24]
.Ltmp304:
	.loc	3 1166 21                       @ ../../../components/platform/soc/rt582/rt582_driver/Src/uart_drv.c:1166:21
	cmp	r1, r0
	it	ne
	orrne	r5, r5, #8
.Ltmp305:
	.loc	3 0 21                          @ ../../../components/platform/soc/rt582/rt582_driver/Src/uart_drv.c:0:21
	b	.LBB15_43
.Ltmp306:
.LBB15_36:
	@DEBUG_VALUE: uart_irqhandler:iir <- $r8
	@DEBUG_VALUE: uart_irqhandler:event <- $r5
	@DEBUG_VALUE: uart_irqhandler:uart_dev <- $r4
	@DEBUG_VALUE: uart_irqhandler:event <- $r5
	.loc	3 1175 13 is_stmt 1             @ ../../../components/platform/soc/rt582/rt582_driver/Src/uart_drv.c:1175:13
	cmp.w	r8, #2
	bne	.LBB15_43
.Ltmp307:
@ %bb.37:
	@DEBUG_VALUE: uart_irqhandler:iir <- $r8
	@DEBUG_VALUE: uart_irqhandler:event <- $r5
	@DEBUG_VALUE: uart_irqhandler:uart_dev <- $r4
	.loc	3 0 0 is_stmt 0                 @ ../../../components/platform/soc/rt582/rt582_driver/Src/uart_drv.c:0:0
	ldrb	r0, [r4, #13]
	.loc	3 1175 13                       @ ../../../components/platform/soc/rt582/rt582_driver/Src/uart_drv.c:1175:13
	cbnz	r0, .LBB15_43
.Ltmp308:
@ %bb.38:
	@DEBUG_VALUE: uart_irqhandler:iir <- $r8
	@DEBUG_VALUE: uart_irqhandler:event <- $r5
	@DEBUG_VALUE: uart_irqhandler:uart_dev <- $r4
	@DEBUG_VALUE: uart_irqhandler:val <- 15
	.loc	3 0 13                          @ ../../../components/platform/soc/rt582/rt582_driver/Src/uart_drv.c:0:13
	ldr	r0, [r6, #20]
.Ltmp309:
	.loc	3 1181 78 is_stmt 1             @ ../../../components/platform/soc/rt582/rt582_driver/Src/uart_drv.c:1181:78
	ldr	r1, [r6, #28]
	movs	r2, #0
	.loc	3 1181 32 is_stmt 0             @ ../../../components/platform/soc/rt582/rt582_driver/Src/uart_drv.c:1181:32
	subs	r0, r0, r1
.Ltmp310:
	.p2align	2
.LBB15_39:                              @ =>This Inner Loop Header: Depth=1
	@DEBUG_VALUE: uart_irqhandler:iir <- $r8
	@DEBUG_VALUE: uart_irqhandler:event <- $r5
	.loc	3 1181 17                       @ ../../../components/platform/soc/rt582/rt582_driver/Src/uart_drv.c:1181:17
	cmp	r0, r2
	beq	.LBB15_42
.Ltmp311:
@ %bb.40:                               @   in Loop: Header=BB15_39 Depth=1
	@DEBUG_VALUE: uart_irqhandler:iir <- $r8
	@DEBUG_VALUE: uart_irqhandler:event <- $r5
	.loc	3 1184 49 is_stmt 1             @ ../../../components/platform/soc/rt582/rt582_driver/Src/uart_drv.c:1184:49
	ldr	r3, [r6, #12]
	.loc	3 1184 78 is_stmt 0             @ ../../../components/platform/soc/rt582/rt582_driver/Src/uart_drv.c:1184:78
	adds	r4, r1, r2
	adds	r4, #1
	str	r4, [r6, #28]
	.loc	3 1184 33                       @ ../../../components/platform/soc/rt582/rt582_driver/Src/uart_drv.c:1184:33
	add	r3, r1
	ldrb	r3, [r3, r2]
.Ltmp312:
	.loc	3 1181 28 is_stmt 1             @ ../../../components/platform/soc/rt582/rt582_driver/Src/uart_drv.c:1181:28
	adds	r2, #1
	.loc	3 1181 32 is_stmt 0             @ ../../../components/platform/soc/rt582/rt582_driver/Src/uart_drv.c:1181:32
	cmp	r2, #16
.Ltmp313:
	.loc	3 1184 31 is_stmt 1             @ ../../../components/platform/soc/rt582/rt582_driver/Src/uart_drv.c:1184:31
	str	r3, [r7]
.Ltmp314:
	@DEBUG_VALUE: uart_irqhandler:val <- [DW_OP_constu 1, DW_OP_minus, DW_OP_stack_value] undef
	.loc	3 1181 32                       @ ../../../components/platform/soc/rt582/rt582_driver/Src/uart_drv.c:1181:32
	bne	.LBB15_39
.Ltmp315:
@ %bb.41:
	@DEBUG_VALUE: uart_irqhandler:iir <- $r8
	@DEBUG_VALUE: uart_irqhandler:event <- $r5
	.loc	3 1188 21                       @ ../../../components/platform/soc/rt582/rt582_driver/Src/uart_drv.c:1188:21
	cmp	r0, r2
	bne	.LBB15_43
.Ltmp316:
.LBB15_42:
	@DEBUG_VALUE: uart_irqhandler:iir <- $r8
	@DEBUG_VALUE: uart_irqhandler:event <- $r5
	.loc	3 1191 31                       @ ../../../components/platform/soc/rt582/rt582_driver/Src/uart_drv.c:1191:31
	ldr	r0, [r7, #4]
	.loc	3 1197 27                       @ ../../../components/platform/soc/rt582/rt582_driver/Src/uart_drv.c:1197:27
	orr	r5, r5, #1
.Ltmp317:
	@DEBUG_VALUE: uart_irqhandler:event <- $r5
	.loc	3 1191 31                       @ ../../../components/platform/soc/rt582/rt582_driver/Src/uart_drv.c:1191:31
	bic	r0, r0, #2
	str	r0, [r7, #4]
	movs	r0, #0
	.loc	3 1194 44                       @ ../../../components/platform/soc/rt582/rt582_driver/Src/uart_drv.c:1194:44
	strb.w	r0, [r6, #36]
.Ltmp318:
.LBB15_43:
	@DEBUG_VALUE: uart_irqhandler:event <- $r5
	.loc	3 1222 39                       @ ../../../components/platform/soc/rt582/rt582_driver/Src/uart_drv.c:1222:39
	cbz	r5, .LBB15_46
.Ltmp319:
@ %bb.44:
	@DEBUG_VALUE: uart_irqhandler:event <- $r5
	.loc	3 0 0 is_stmt 0                 @ ../../../components/platform/soc/rt582/rt582_driver/Src/uart_drv.c:0:0
	ldr	r2, [r6]
	.loc	3 1222 39                       @ ../../../components/platform/soc/rt582/rt582_driver/Src/uart_drv.c:1222:39
	cbz	r2, .LBB15_46
.Ltmp320:
@ %bb.45:
	@DEBUG_VALUE: uart_irqhandler:event <- $r5
	.loc	3 1224 47 is_stmt 1             @ ../../../components/platform/soc/rt582/rt582_driver/Src/uart_drv.c:1224:47
	ldr	r1, [r6, #4]
	.loc	3 1224 9 is_stmt 0              @ ../../../components/platform/soc/rt582/rt582_driver/Src/uart_drv.c:1224:9
	mov	r0, r5
	pop.w	{r4, r5, r6, r7, r8, lr}
.Ltmp321:
	bx	r2
.Ltmp322:
.LBB15_46:
	@DEBUG_VALUE: uart_irqhandler:event <- $r5
	.loc	3 1227 1 is_stmt 1              @ ../../../components/platform/soc/rt582/rt582_driver/Src/uart_drv.c:1227:1
	pop.w	{r4, r5, r6, r7, r8, pc}
.Ltmp323:
.Lfunc_end15:
	.size	uart_irqhandler, .Lfunc_end15-uart_irqhandler
	.cfi_endproc
	.cantunwind
	.fnend
                                        @ -- End function
	.section	.text.uart1_handler,"ax",%progbits
	.hidden	uart1_handler                   @ -- Begin function uart1_handler
	.globl	uart1_handler
	.p2align	1
	.type	uart1_handler,%function
	.code	16                              @ @uart1_handler
	.thumb_func
uart1_handler:
.Lfunc_begin16:
	.loc	3 1247 0                        @ ../../../components/platform/soc/rt582/rt582_driver/Src/uart_drv.c:1247:0
	.fnstart
	.cfi_startproc
@ %bb.0:
	.loc	3 1248 5 prologue_end           @ ../../../components/platform/soc/rt582/rt582_driver/Src/uart_drv.c:1248:5
	movw	r0, :lower16:m_uart_handle
	movt	r0, :upper16:m_uart_handle
	adds	r0, #16
.Ltmp324:
	b	uart_irqhandler
.Ltmp325:
.Lfunc_end16:
	.size	uart1_handler, .Lfunc_end16-uart1_handler
	.cfi_endproc
	.cantunwind
	.fnend
                                        @ -- End function
	.section	.text.uart2_handler,"ax",%progbits
	.hidden	uart2_handler                   @ -- Begin function uart2_handler
	.globl	uart2_handler
	.p2align	1
	.type	uart2_handler,%function
	.code	16                              @ @uart2_handler
	.thumb_func
uart2_handler:
.Lfunc_begin17:
	.loc	3 1257 0                        @ ../../../components/platform/soc/rt582/rt582_driver/Src/uart_drv.c:1257:0
	.fnstart
	.cfi_startproc
@ %bb.0:
	.loc	3 1258 5 prologue_end           @ ../../../components/platform/soc/rt582/rt582_driver/Src/uart_drv.c:1258:5
	movw	r0, :lower16:m_uart_handle
	movt	r0, :upper16:m_uart_handle
	adds	r0, #32
.Ltmp326:
	b	uart_irqhandler
.Ltmp327:
.Lfunc_end17:
	.size	uart2_handler, .Lfunc_end17-uart2_handler
	.cfi_endproc
	.cantunwind
	.fnend
                                        @ -- End function
	.type	m_uart_handle,%object           @ @m_uart_handle
	.section	.rodata.m_uart_handle,"a",%progbits
	.p2align	2
m_uart_handle:
	.long	2684354560
	.long	uart0_info
	.long	4                               @ 0x4
	.byte	0                               @ 0x0
	.byte	1                               @ 0x1
	.byte	1                               @ 0x1
	.byte	0                               @ 0x0
	.long	2689597440
	.long	uart1_info
	.long	7                               @ 0x7
	.byte	1                               @ 0x1
	.byte	1                               @ 0x1
	.byte	1                               @ 0x1
	.byte	0                               @ 0x0
	.long	2690646016
	.long	uart2_info
	.long	19                              @ 0x13
	.byte	2                               @ 0x2
	.byte	1                               @ 0x1
	.byte	1                               @ 0x1
	.byte	0                               @ 0x0
	.size	m_uart_handle, 48

	.type	uart0_info,%object              @ @uart0_info
	.section	.bss.uart0_info,"aw",%nobits
	.p2align	2
uart0_info:
	.zero	60
	.size	uart0_info, 60

	.type	uart1_info,%object              @ @uart1_info
	.section	.bss.uart1_info,"aw",%nobits
	.p2align	2
uart1_info:
	.zero	60
	.size	uart1_info, 60

	.type	uart2_info,%object              @ @uart2_info
	.section	.bss.uart2_info,"aw",%nobits
	.p2align	2
uart2_info:
	.zero	60
	.size	uart2_info, 60

	.section	".note.GNU-stack","",%progbits
	.eabi_attribute	30, 3	@ Tag_ABI_optimization_goals
	.ARM_attribute	16, 1	@ Tag_AV_eba