	.text
	.syntax unified
	.eabi_attribute	67, "2.09"	@ Tag_conformance
	.cpu	cortex-m3
	.eabi_attribute	6, 10	@ Tag_CPU_arch
	.eabi_attribute	7, 77	@ Tag_CPU_arch_profile
	.eabi_attribute	8, 0	@ Tag_ARM_ISA_use
	.eabi_attribute	9, 2	@ Tag_THUMB_ISA_use
	.eabi_attribute	34, 1	@ Tag_CPU_unaligned_access
	.eabi_attribute	17, 1	@ Tag_ABI_PCS_GOT_use
	.eabi_attribute	20, 2	@ Tag_ABI_FP_denormal
	.eabi_attribute	21, 0	@ Tag_ABI_FP_exceptions
	.eabi_attribute	23, 1	@ Tag_ABI_FP_number_model
	.eabi_attribute	24, 1	@ Tag_ABI_align_needed
	.eabi_attribute	25, 1	@ Tag_ABI_align_preserved
	.eabi_attribute	38, 1	@ Tag_ABI_FP_16bit_format
	.eabi_attribute	18, 4	@ Tag_ABI_PCS_wchar_t
	.eabi_attribute	26, 2	@ Tag_ABI_enum_size
	.eabi_attribute	14, 0	@ Tag_ABI_PCS_R9_use
	.file	"vprint.c"
	.file	1 "D:\\Rafael-IoT-SDK-Internal-main\\examples\\das_subg_thread\\keil" "../../../components/platform/soc/rt582/rt582_dongle/dongle/src/vprint.c"
	.file	2 "C:\\Keil_v5\\ARM\\ARMCLANG\\Bin\\..\\include" "stdint.h"
	.section	.text.vsnprintf_ex,"ax",%progbits
	.hidden	vsnprintf_ex                    @ -- Begin function vsnprintf_ex
	.globl	vsnprintf_ex
	.p2align	2
	.type	vsnprintf_ex,%function
	.code	16                              @ @vsnprintf_ex
	.thumb_func
vsnprintf_ex:
.Lfunc_begin0:
	.loc	1 248 0                         @ ../../../components/platform/soc/rt582/rt582_dongle/dongle/src/vprint.c:248:0
	.fnstart
	.cfi_sections .debug_frame
	.cfi_startproc
@ %bb.0:
	@DEBUG_VALUE: vsnprintf_ex:buffer <- $r0
	@DEBUG_VALUE: vsnprintf_ex:n <- $r1
	@DEBUG_VALUE: vsnprintf_ex:format <- $r2
	.save	{r4, r5, r6, r7, r8, r9, r10, r11, lr}
	push.w	{r4, r5, r6, r7, r8, r9, r10, r11, lr}
	.cfi_def_cfa_offset 36
	.cfi_offset lr, -4
	.cfi_offset r11, -8
	.cfi_offset r10, -12
	.cfi_offset r9, -16
	.cfi_offset r8, -20
	.cfi_offset r7, -24
	.cfi_offset r6, -28
	.cfi_offset r5, -32
	.cfi_offset r4, -36
	.pad	#172
	sub	sp, #172
	.cfi_def_cfa_offset 208
	mov	r10, r3
	@DEBUG_VALUE: vsnprintf_ex:format <- $r2
.Ltmp0:
	.loc	1 272 15 prologue_end           @ ../../../components/platform/soc/rt582/rt582_dongle/dongle/src/vprint.c:272:15
	ldrb	r3, [r2]
.Ltmp1:
	@DEBUG_VALUE: vsnprintf_ex:ch <- $r3
	@DEBUG_VALUE: vsnprintf_ex:n <- $r1
	.loc	1 272 2 is_stmt 0               @ ../../../components/platform/soc/rt582/rt582_dongle/dongle/src/vprint.c:272:2
	cmp	r3, #0
.Ltmp2:
	@DEBUG_VALUE: vsnprintf_ex:state <- 0
	@DEBUG_VALUE: vsnprintf_ex:flags <- 0
	@DEBUG_VALUE: vsnprintf_ex:prec <- -1
	@DEBUG_VALUE: vsnprintf_ex:width <- 0
	@DEBUG_VALUE: vsnprintf_ex:rank <- 0
	@DEBUG_VALUE: vsnprintf_ex:val <- 0
	@DEBUG_VALUE: vsnprintf_ex:o <- 0
	@DEBUG_VALUE: vsnprintf_ex:tmp <- 0
	@DEBUG_VALUE: vsnprintf_ex:q <- undef
	@DEBUG_VALUE: vsnprintf_ex:p <- [DW_OP_plus_uconst 1, DW_OP_stack_value] $r2
	@DEBUG_VALUE: vsnprintf_ex:ap <- undef
	@DEBUG_VALUE: vsnprintf_ex:buffer <- $r0
	beq.w	.LBB0_212
.Ltmp3:
@ %bb.1:
	@DEBUG_VALUE: vsnprintf_ex:ch <- $r3
	@DEBUG_VALUE: vsnprintf_ex:p <- [DW_OP_plus_uconst 1, DW_OP_stack_value] $r2
	@DEBUG_VALUE: vsnprintf_ex:format <- $r2
	@DEBUG_VALUE: vsnprintf_ex:n <- $r1
	@DEBUG_VALUE: vsnprintf_ex:buffer <- $r0
	@DEBUG_VALUE: vsnprintf_ex:tmp <- 0
	@DEBUG_VALUE: vsnprintf_ex:o <- 0
	@DEBUG_VALUE: vsnprintf_ex:val <- 0
	@DEBUG_VALUE: vsnprintf_ex:rank <- 0
	@DEBUG_VALUE: vsnprintf_ex:width <- 0
	@DEBUG_VALUE: vsnprintf_ex:prec <- -1
	@DEBUG_VALUE: vsnprintf_ex:flags <- 0
	@DEBUG_VALUE: vsnprintf_ex:state <- 0
	.loc	1 0 2                           @ ../../../components/platform/soc/rt582/rt582_dongle/dongle/src/vprint.c:0:2
	mov	r9, r1
.Ltmp4:
	@DEBUG_VALUE: vsnprintf_ex:n <- $r9
	@DEBUG_VALUE: vsnprintf_ex:n <- $r9
	mov.w	r1, #-1
	str	r1, [sp, #36]                   @ 4-byte Spill
	movs	r1, #0
	str	r1, [sp, #28]                   @ 4-byte Spill
	movs	r1, #0
	mov	r11, r0
.Ltmp5:
	@DEBUG_VALUE: vsnprintf_ex:buffer <- $r11
	@DEBUG_VALUE: vsnprintf_ex:buffer <- $r11
	@DEBUG_VALUE: vsnprintf_ex:ap <- $r10
	@DEBUG_VALUE: vsnprintf_ex:p <- [DW_OP_plus_uconst 1, DW_OP_stack_value] $r2
	add	r0, sp, #92
.Ltmp6:
	@DEBUG_VALUE: vsnprintf_ex:ap <- undef
	str	r1, [sp, #76]                   @ 4-byte Spill
	movs	r1, #0
	adds	r0, #16
	movw	r8, :lower16:__stdout
	str	r1, [sp, #68]                   @ 4-byte Spill
	movs	r1, #0
	str	r0, [sp, #60]                   @ 4-byte Spill
	movs	r0, #0
	movt	r8, :upper16:__stdout
	str	r1, [sp, #16]                   @ 4-byte Spill
	movs	r1, #0
	movs	r6, #0
	str	r1, [sp, #12]                   @ 4-byte Spill
	str.w	r9, [sp, #32]                   @ 4-byte Spill
.Ltmp7:
	.p2align	2
.LBB0_2:                                @ =>This Loop Header: Depth=1
                                        @     Child Loop BB0_3 Depth 2
                                        @       Child Loop BB0_14 Depth 3
                                        @       Child Loop BB0_21 Depth 3
                                        @       Child Loop BB0_26 Depth 3
                                        @       Child Loop BB0_30 Depth 3
                                        @     Child Loop BB0_81 Depth 2
                                        @     Child Loop BB0_87 Depth 2
                                        @     Child Loop BB0_114 Depth 2
                                        @     Child Loop BB0_141 Depth 2
                                        @     Child Loop BB0_146 Depth 2
                                        @     Child Loop BB0_175 Depth 2
                                        @     Child Loop BB0_181 Depth 2
                                        @     Child Loop BB0_193 Depth 2
	@DEBUG_VALUE: vsnprintf_ex:ch <- $r3
	@DEBUG_VALUE: vsnprintf_ex:p <- [DW_OP_plus_uconst 1, DW_OP_stack_value] $r2
	@DEBUG_VALUE: vsnprintf_ex:ap <- $r10
	@DEBUG_VALUE: vsnprintf_ex:p <- $r2
	@DEBUG_VALUE: vsnprintf_ex:q <- $r11
	@DEBUG_VALUE: vsnprintf_ex:o <- $r6
	@DEBUG_VALUE: vsnprintf_ex:rank <- [DW_OP_plus_uconst 68] [$sp+0]
	@DEBUG_VALUE: vsnprintf_ex:width <- [DW_OP_plus_uconst 76] [$sp+0]
	@DEBUG_VALUE: vsnprintf_ex:prec <- [DW_OP_plus_uconst 36] [$sp+0]
	@DEBUG_VALUE: vsnprintf_ex:flags <- [DW_OP_plus_uconst 28] [$sp+0]
	@DEBUG_VALUE: vsnprintf_ex:state <- $r0
	@DEBUG_VALUE: vsnprintf_ex:val <- [DW_OP_plus_uconst 16, DW_OP_LLVM_fragment 0 32] [$sp+0]
	@DEBUG_VALUE: vsnprintf_ex:val <- [DW_OP_plus_uconst 12, DW_OP_LLVM_fragment 32 32] [$sp+0]
	ldr	r1, [sp, #36]                   @ 4-byte Reload
	@DEBUG_VALUE: vsnprintf_ex:prec <- [DW_OP_plus_uconst 36] [$sp+0]
.Ltmp8:
	@DEBUG_VALUE: vsnprintf_ex:prec <- $r1
	cmp	r1, #0
	it	mi
	movmi	r1, #6
.Ltmp9:
	ldr	r4, [sp, #68]                   @ 4-byte Reload
.Ltmp10:
	@DEBUG_VALUE: vsnprintf_ex:rank <- $r4
	str	r1, [sp, #84]                   @ 4-byte Spill
.Ltmp11:
.LBB0_3:                                @   Parent Loop BB0_2 Depth=1
                                        @ =>  This Loop Header: Depth=2
                                        @       Child Loop BB0_14 Depth 3
                                        @       Child Loop BB0_21 Depth 3
                                        @       Child Loop BB0_26 Depth 3
                                        @       Child Loop BB0_30 Depth 3
	@DEBUG_VALUE: vsnprintf_ex:q <- $r11
	@DEBUG_VALUE: vsnprintf_ex:ap <- $r10
	@DEBUG_VALUE: vsnprintf_ex:o <- $r6
	@DEBUG_VALUE: vsnprintf_ex:rank <- $r4
	@DEBUG_VALUE: vsnprintf_ex:ch <- $r3
	@DEBUG_VALUE: vsnprintf_ex:val <- [DW_OP_plus_uconst 12, DW_OP_LLVM_fragment 32 32] [$sp+0]
	@DEBUG_VALUE: vsnprintf_ex:val <- [DW_OP_plus_uconst 16, DW_OP_LLVM_fragment 0 32] [$sp+0]
	@DEBUG_VALUE: vsnprintf_ex:flags <- [DW_OP_plus_uconst 28] [$sp+0]
	@DEBUG_VALUE: vsnprintf_ex:width <- [DW_OP_plus_uconst 76] [$sp+0]
	.loc	1 273 3 is_stmt 1               @ ../../../components/platform/soc/rt582/rt582_dongle/dongle/src/vprint.c:273:3
	cmp	r0, #4
.Ltmp12:
	.loc	1 272 17                        @ ../../../components/platform/soc/rt582/rt582_dongle/dongle/src/vprint.c:272:17
	add.w	r5, r2, #1
.Ltmp13:
	@DEBUG_VALUE: vsnprintf_ex:state <- $r0
	@DEBUG_VALUE: vsnprintf_ex:rank <- $r4
	@DEBUG_VALUE: vsnprintf_ex:o <- $r6
	@DEBUG_VALUE: vsnprintf_ex:q <- $r11
	@DEBUG_VALUE: vsnprintf_ex:p <- $r2
	@DEBUG_VALUE: vsnprintf_ex:ap <- $r10
	.loc	1 273 3                         @ ../../../components/platform/soc/rt582/rt582_dongle/dongle/src/vprint.c:273:3
	bne.w	.LBB0_40
.Ltmp14:
@ %bb.4:                                @   in Loop: Header=BB0_3 Depth=2
	@DEBUG_VALUE: vsnprintf_ex:q <- $r11
	@DEBUG_VALUE: vsnprintf_ex:ap <- $r10
	@DEBUG_VALUE: vsnprintf_ex:o <- $r6
	@DEBUG_VALUE: vsnprintf_ex:rank <- $r4
	@DEBUG_VALUE: vsnprintf_ex:ch <- $r3
	@DEBUG_VALUE: vsnprintf_ex:p <- $r2
	@DEBUG_VALUE: vsnprintf_ex:state <- $r0
	@DEBUG_VALUE: vsnprintf_ex:val <- [DW_OP_plus_uconst 12, DW_OP_LLVM_fragment 32 32] [$sp+0]
	@DEBUG_VALUE: vsnprintf_ex:val <- [DW_OP_plus_uconst 16, DW_OP_LLVM_fragment 0 32] [$sp+0]
	@DEBUG_VALUE: vsnprintf_ex:flags <- [DW_OP_plus_uconst 28] [$sp+0]
	@DEBUG_VALUE: vsnprintf_ex:width <- [DW_OP_plus_uconst 76] [$sp+0]
	.loc	1 345 4                         @ ../../../components/platform/soc/rt582/rt582_dongle/dongle/src/vprint.c:345:4
	cmp	r3, #115
	bgt	.LBB0_8
.Ltmp15:
@ %bb.5:                                @   in Loop: Header=BB0_3 Depth=2
	@DEBUG_VALUE: vsnprintf_ex:q <- $r11
	@DEBUG_VALUE: vsnprintf_ex:ap <- $r10
	@DEBUG_VALUE: vsnprintf_ex:o <- $r6
	@DEBUG_VALUE: vsnprintf_ex:rank <- $r4
	@DEBUG_VALUE: vsnprintf_ex:ch <- $r3
	@DEBUG_VALUE: vsnprintf_ex:p <- $r2
	@DEBUG_VALUE: vsnprintf_ex:state <- $r0
	@DEBUG_VALUE: vsnprintf_ex:val <- [DW_OP_plus_uconst 12, DW_OP_LLVM_fragment 32 32] [$sp+0]
	@DEBUG_VALUE: vsnprintf_ex:val <- [DW_OP_plus_uconst 16, DW_OP_LLVM_fragment 0 32] [$sp+0]
	@DEBUG_VALUE: vsnprintf_ex:flags <- [DW_OP_plus_uconst 28] [$sp+0]
	@DEBUG_VALUE: vsnprintf_ex:width <- [DW_OP_plus_uconst 76] [$sp+0]
	.loc	1 0 4 is_stmt 0                 @ ../../../components/platform/soc/rt582/rt582_dongle/dongle/src/vprint.c:0:4
	sub.w	r1, r3, #104
	cmp	r1, #9
	bhi	.LBB0_10
.Ltmp16:
@ %bb.6:                                @   in Loop: Header=BB0_3 Depth=2
	@DEBUG_VALUE: vsnprintf_ex:q <- $r11
	@DEBUG_VALUE: vsnprintf_ex:ap <- $r10
	@DEBUG_VALUE: vsnprintf_ex:o <- $r6
	@DEBUG_VALUE: vsnprintf_ex:rank <- $r4
	@DEBUG_VALUE: vsnprintf_ex:ch <- $r3
	@DEBUG_VALUE: vsnprintf_ex:p <- $r2
	@DEBUG_VALUE: vsnprintf_ex:state <- $r0
	@DEBUG_VALUE: vsnprintf_ex:val <- [DW_OP_plus_uconst 12, DW_OP_LLVM_fragment 32 32] [$sp+0]
	@DEBUG_VALUE: vsnprintf_ex:val <- [DW_OP_plus_uconst 16, DW_OP_LLVM_fragment 0 32] [$sp+0]
	@DEBUG_VALUE: vsnprintf_ex:flags <- [DW_OP_plus_uconst 28] [$sp+0]
	@DEBUG_VALUE: vsnprintf_ex:width <- [DW_OP_plus_uconst 76] [$sp+0]
	movs	r2, #2
.Ltmp17:
	@DEBUG_VALUE: vsnprintf_ex:format <- [DW_OP_LLVM_entry_value 1] $r2
	str	r2, [sp, #68]                   @ 4-byte Spill
	movs	r0, #4
.Ltmp18:
	mov	r2, r5
.LCPI0_2:
	tbh	[pc, r1, lsl #1]
.Ltmp19:
@ %bb.7:
.LJTI0_1:
	.short	(.LBB0_62-(.LCPI0_2+4))/2
	.short	(.LBB0_11-(.LCPI0_2+4))/2
	.short	(.LBB0_206-(.LCPI0_2+4))/2
	.short	(.LBB0_11-(.LCPI0_2+4))/2
	.short	(.LBB0_63-(.LCPI0_2+4))/2
	.short	(.LBB0_11-(.LCPI0_2+4))/2
	.short	(.LBB0_11-(.LCPI0_2+4))/2
	.short	(.LBB0_11-(.LCPI0_2+4))/2
	.short	(.LBB0_11-(.LCPI0_2+4))/2
	.short	(.LBB0_51-(.LCPI0_2+4))/2
	.p2align	1
	.p2align	2
.LBB0_8:                                @   in Loop: Header=BB0_3 Depth=2
.Ltmp20:
	@DEBUG_VALUE: vsnprintf_ex:q <- $r11
	@DEBUG_VALUE: vsnprintf_ex:ap <- $r10
	@DEBUG_VALUE: vsnprintf_ex:o <- $r6
	@DEBUG_VALUE: vsnprintf_ex:rank <- $r4
	@DEBUG_VALUE: vsnprintf_ex:ch <- $r3
	@DEBUG_VALUE: vsnprintf_ex:p <- $r2
	@DEBUG_VALUE: vsnprintf_ex:state <- $r0
	@DEBUG_VALUE: vsnprintf_ex:val <- [DW_OP_plus_uconst 12, DW_OP_LLVM_fragment 32 32] [$sp+0]
	@DEBUG_VALUE: vsnprintf_ex:val <- [DW_OP_plus_uconst 16, DW_OP_LLVM_fragment 0 32] [$sp+0]
	@DEBUG_VALUE: vsnprintf_ex:flags <- [DW_OP_plus_uconst 28] [$sp+0]
	@DEBUG_VALUE: vsnprintf_ex:width <- [DW_OP_plus_uconst 76] [$sp+0]
	.loc	1 345 4                         @ ../../../components/platform/soc/rt582/rt582_dongle/dongle/src/vprint.c:345:4
	cmp	r3, #116
	beq.w	.LBB0_45
.Ltmp21:
@ %bb.9:                                @   in Loop: Header=BB0_3 Depth=2
	@DEBUG_VALUE: vsnprintf_ex:q <- $r11
	@DEBUG_VALUE: vsnprintf_ex:ap <- $r10
	@DEBUG_VALUE: vsnprintf_ex:o <- $r6
	@DEBUG_VALUE: vsnprintf_ex:rank <- $r4
	@DEBUG_VALUE: vsnprintf_ex:ch <- $r3
	@DEBUG_VALUE: vsnprintf_ex:p <- $r2
	@DEBUG_VALUE: vsnprintf_ex:state <- $r0
	@DEBUG_VALUE: vsnprintf_ex:val <- [DW_OP_plus_uconst 12, DW_OP_LLVM_fragment 32 32] [$sp+0]
	@DEBUG_VALUE: vsnprintf_ex:val <- [DW_OP_plus_uconst 16, DW_OP_LLVM_fragment 0 32] [$sp+0]
	@DEBUG_VALUE: vsnprintf_ex:flags <- [DW_OP_plus_uconst 28] [$sp+0]
	@DEBUG_VALUE: vsnprintf_ex:width <- [DW_OP_plus_uconst 76] [$sp+0]
	cmp	r3, #122
	bne	.LBB0_11
	b	.LBB0_45
.Ltmp22:
.LBB0_10:                               @   in Loop: Header=BB0_3 Depth=2
	@DEBUG_VALUE: vsnprintf_ex:q <- $r11
	@DEBUG_VALUE: vsnprintf_ex:ap <- $r10
	@DEBUG_VALUE: vsnprintf_ex:o <- $r6
	@DEBUG_VALUE: vsnprintf_ex:rank <- $r4
	@DEBUG_VALUE: vsnprintf_ex:ch <- $r3
	@DEBUG_VALUE: vsnprintf_ex:p <- $r2
	@DEBUG_VALUE: vsnprintf_ex:state <- $r0
	@DEBUG_VALUE: vsnprintf_ex:val <- [DW_OP_plus_uconst 12, DW_OP_LLVM_fragment 32 32] [$sp+0]
	@DEBUG_VALUE: vsnprintf_ex:val <- [DW_OP_plus_uconst 16, DW_OP_LLVM_fragment 0 32] [$sp+0]
	@DEBUG_VALUE: vsnprintf_ex:flags <- [DW_OP_plus_uconst 28] [$sp+0]
	@DEBUG_VALUE: vsnprintf_ex:width <- [DW_OP_plus_uconst 76] [$sp+0]
	cmp	r3, #76
	beq.w	.LBB0_51
.Ltmp23:
.LBB0_11:                               @   in Loop: Header=BB0_3 Depth=2
	@DEBUG_VALUE: vsnprintf_ex:q <- $r11
	@DEBUG_VALUE: vsnprintf_ex:ap <- $r10
	@DEBUG_VALUE: vsnprintf_ex:o <- $r6
	@DEBUG_VALUE: vsnprintf_ex:rank <- $r4
	@DEBUG_VALUE: vsnprintf_ex:ch <- $r3
	@DEBUG_VALUE: vsnprintf_ex:val <- [DW_OP_plus_uconst 12, DW_OP_LLVM_fragment 32 32] [$sp+0]
	@DEBUG_VALUE: vsnprintf_ex:val <- [DW_OP_plus_uconst 16, DW_OP_LLVM_fragment 0 32] [$sp+0]
	@DEBUG_VALUE: vsnprintf_ex:flags <- [DW_OP_plus_uconst 28] [$sp+0]
	@DEBUG_VALUE: vsnprintf_ex:width <- [DW_OP_plus_uconst 76] [$sp+0]
	@DEBUG_VALUE: vsnprintf_ex:state <- 0
	.loc	1 373 9 is_stmt 1               @ ../../../components/platform/soc/rt582/rt582_dongle/dongle/src/vprint.c:373:9
	cmp	r4, #2
	it	ge
	movge	r4, #2
.Ltmp24:
	cmn.w	r4, #2
	mov	r2, r4
	it	le
	mvnle	r2, #1
.Ltmp25:
	@DEBUG_VALUE: vsnprintf_ex:rank <- $r2
	.loc	1 378 5                         @ ../../../components/platform/soc/rt582/rt582_dongle/dongle/src/vprint.c:378:5
	cmp	r3, #102
	str.w	r11, [sp, #64]                  @ 4-byte Spill
	strd	r6, r5, [sp, #48]               @ 8-byte Folded Spill
	bne.w	.LBB0_33
.Ltmp26:
@ %bb.12:                               @   in Loop: Header=BB0_3 Depth=2
	@DEBUG_VALUE: vsnprintf_ex:q <- $r11
	@DEBUG_VALUE: vsnprintf_ex:ap <- $r10
	@DEBUG_VALUE: vsnprintf_ex:o <- $r6
	@DEBUG_VALUE: vsnprintf_ex:ch <- $r3
	@DEBUG_VALUE: vsnprintf_ex:rank <- $r2
	@DEBUG_VALUE: vsnprintf_ex:val <- [DW_OP_plus_uconst 12, DW_OP_LLVM_fragment 32 32] [$sp+0]
	@DEBUG_VALUE: vsnprintf_ex:val <- [DW_OP_plus_uconst 16, DW_OP_LLVM_fragment 0 32] [$sp+0]
	@DEBUG_VALUE: vsnprintf_ex:flags <- [DW_OP_plus_uconst 28] [$sp+0]
	@DEBUG_VALUE: vsnprintf_ex:width <- [DW_OP_plus_uconst 76] [$sp+0]
	@DEBUG_VALUE: vsnprintf_ex:state <- 0
	@DEBUG_VALUE: vsnprintf_ex:tmp <- $r11
	.loc	1 557 21                        @ ../../../components/platform/soc/rt582/rt582_dongle/dongle/src/vprint.c:557:21
	add.w	r0, r10, #7
	bic	r0, r0, #7
	mov	r7, r0
	ldr.w	r8, [r0, #4]
.Ltmp27:
	@DEBUG_VALUE: flt:fmt <- undef
	@DEBUG_VALUE: flt:num <- undef
	ldr	r4, [r7], #8
.Ltmp28:
	@DEBUG_VALUE: flt:sign <- 0
	@DEBUG_VALUE: flt:c <- 32
	@DEBUG_VALUE: flt:flags <- 2
	@DEBUG_VALUE: flt:precision <- [DW_OP_plus_uconst 36] [$sp+0]
	@DEBUG_VALUE: flt:size <- [DW_OP_plus_uconst 76] [$sp+0]
	@DEBUG_VALUE: flt:str <- [DW_OP_plus_uconst 64] [$sp+0]
	@DEBUG_VALUE: vsnprintf_ex:ap <- $r7
	.loc	1 0 21 is_stmt 0                @ ../../../components/platform/soc/rt582/rt582_dongle/dongle/src/vprint.c:0:21
	str	r2, [sp, #68]                   @ 4-byte Spill
.Ltmp29:
	@DEBUG_VALUE: vsnprintf_ex:rank <- [DW_OP_plus_uconst 68] [$sp+0]
	@DEBUG_VALUE: vsnprintf_ex:rank <- [DW_OP_plus_uconst 68] [$sp+0]
	@DEBUG_VALUE: vsnprintf_ex:tmp <- [DW_OP_plus_uconst 64] [$sp+0]
	.loc	1 205 9 is_stmt 1               @ ../../../components/platform/soc/rt582/rt582_dongle/dongle/src/vprint.c:205:9
	mov	r0, r4
	mov	r1, r8
	movs	r2, #0
	movs	r3, #0
.Ltmp30:
	bl	__aeabi_dcmplt
.Ltmp31:
	cmp	r0, #0
	ldr	r6, [sp, #76]                   @ 4-byte Reload
.Ltmp32:
	mov	r0, r4
	mov	r1, r8
	mov.w	r2, #0
	mov.w	r3, #0
	it	ne
	subne	r6, #1
.Ltmp33:
	@DEBUG_VALUE: flt:size <- $r6
	bl	__aeabi_dcmplt
.Ltmp34:
	mov	r11, r0
.Ltmp35:
	@DEBUG_VALUE: vsnprintf_ex:buffer <- [DW_OP_LLVM_entry_value 1] $r0
	cmp	r0, #0
	it	ne
	movne.w	r11, #45
.Ltmp36:
	@DEBUG_VALUE: flt:sign <- undef
	@DEBUG_VALUE: flt:precision <- [DW_OP_plus_uconst 84] [$sp+0]
	@DEBUG_VALUE: flt:num <- undef
	.loc	1 0 9 is_stmt 0                 @ ../../../components/platform/soc/rt582/rt582_dongle/dongle/src/vprint.c:0:9
	add.w	r9, sp, #92
.Ltmp37:
	@DEBUG_VALUE: vsnprintf_ex:n <- [DW_OP_LLVM_entry_value 1] $r1
	.loc	1 228 3 is_stmt 1               @ ../../../components/platform/soc/rt582/rt582_dongle/dongle/src/vprint.c:228:3
	ldr	r5, [sp, #84]                   @ 4-byte Reload
.Ltmp38:
	@DEBUG_VALUE: flt:precision <- $r5
	bic	r1, r8, #-2147483648
	mov	r0, r4
	mov	r2, r9
	movs	r3, #102
	str	r5, [sp]
.Ltmp39:
	@DEBUG_VALUE: flt:precision <- [DW_OP_plus_uconst 84] [$sp+0]
	bl	parse_float
.Ltmp40:
	.loc	1 233 7                         @ ../../../components/platform/soc/rt582/rt582_dongle/dongle/src/vprint.c:233:7
	mov	r0, r9
	mov.w	r1, #256
	bl	strnlen
.Ltmp41:
	.loc	1 236 8                         @ ../../../components/platform/soc/rt582/rt582_dongle/dongle/src/vprint.c:236:8
	subs	r5, r6, r0
.Ltmp42:
	@DEBUG_VALUE: flt:size <- undef
	.loc	1 233 7                         @ ../../../components/platform/soc/rt582/rt582_dongle/dongle/src/vprint.c:233:7
	mov	r9, r0
.Ltmp43:
	@DEBUG_VALUE: flt:n <- $r9
	.loc	1 237 36                        @ ../../../components/platform/soc/rt582/rt582_dongle/dongle/src/vprint.c:237:36
	cmp	r5, #1
	str	r7, [sp, #44]                   @ 4-byte Spill
.Ltmp44:
	@DEBUG_VALUE: vsnprintf_ex:ap <- [DW_OP_plus_uconst 44] [$sp+0]
	@DEBUG_VALUE: vsnprintf_ex:ap <- [DW_OP_plus_uconst 44] [$sp+0]
	blt	.LBB0_16
.Ltmp45:
@ %bb.13:                               @   in Loop: Header=BB0_3 Depth=2
	@DEBUG_VALUE: vsnprintf_ex:ap <- [DW_OP_plus_uconst 44] [$sp+0]
	@DEBUG_VALUE: vsnprintf_ex:rank <- [DW_OP_plus_uconst 68] [$sp+0]
	@DEBUG_VALUE: flt:n <- $r9
	@DEBUG_VALUE: flt:precision <- [DW_OP_plus_uconst 84] [$sp+0]
	@DEBUG_VALUE: vsnprintf_ex:tmp <- [DW_OP_plus_uconst 64] [$sp+0]
	@DEBUG_VALUE: flt:str <- [DW_OP_plus_uconst 64] [$sp+0]
	@DEBUG_VALUE: vsnprintf_ex:val <- [DW_OP_plus_uconst 12, DW_OP_LLVM_fragment 32 32] [$sp+0]
	@DEBUG_VALUE: vsnprintf_ex:val <- [DW_OP_plus_uconst 16, DW_OP_LLVM_fragment 0 32] [$sp+0]
	@DEBUG_VALUE: vsnprintf_ex:flags <- [DW_OP_plus_uconst 28] [$sp+0]
	@DEBUG_VALUE: vsnprintf_ex:width <- [DW_OP_plus_uconst 76] [$sp+0]
	@DEBUG_VALUE: flt:flags <- 2
	@DEBUG_VALUE: flt:c <- 32
	@DEBUG_VALUE: vsnprintf_ex:state <- 0
	.loc	1 0 36 is_stmt 0                @ ../../../components/platform/soc/rt582/rt582_dongle/dongle/src/vprint.c:0:36
	movw	r7, :lower16:__stdout
	mov	r6, r5
	movt	r7, :upper16:__stdout
.Ltmp46:
	.p2align	2
.LBB0_14:                               @   Parent Loop BB0_2 Depth=1
                                        @     Parent Loop BB0_3 Depth=2
                                        @ =>    This Inner Loop Header: Depth=3
	@DEBUG_VALUE: vsnprintf_ex:ap <- [DW_OP_plus_uconst 44] [$sp+0]
	@DEBUG_VALUE: vsnprintf_ex:rank <- [DW_OP_plus_uconst 68] [$sp+0]
	@DEBUG_VALUE: flt:n <- $r9
	@DEBUG_VALUE: flt:precision <- [DW_OP_plus_uconst 84] [$sp+0]
	@DEBUG_VALUE: vsnprintf_ex:tmp <- [DW_OP_plus_uconst 64] [$sp+0]
	@DEBUG_VALUE: vsnprintf_ex:val <- [DW_OP_plus_uconst 12, DW_OP_LLVM_fragment 32 32] [$sp+0]
	@DEBUG_VALUE: vsnprintf_ex:val <- [DW_OP_plus_uconst 16, DW_OP_LLVM_fragment 0 32] [$sp+0]
	@DEBUG_VALUE: vsnprintf_ex:flags <- [DW_OP_plus_uconst 28] [$sp+0]
	@DEBUG_VALUE: vsnprintf_ex:width <- [DW_OP_plus_uconst 76] [$sp+0]
	@DEBUG_VALUE: flt:flags <- 2
	@DEBUG_VALUE: flt:c <- 32
	@DEBUG_VALUE: vsnprintf_ex:state <- 0
	@DEBUG_VALUE: flt:str <- undef
	.loc	1 237 55                        @ ../../../components/platform/soc/rt582/rt582_dongle/dongle/src/vprint.c:237:55
	movs	r0, #32
	mov	r1, r7
	bl	putc
.Ltmp47:
	@DEBUG_VALUE: flt:size <- [DW_OP_constu 1, DW_OP_minus, DW_OP_stack_value] undef
	@DEBUG_VALUE: flt:str <- [DW_OP_plus_uconst 1, DW_OP_stack_value] undef
	.loc	1 237 50                        @ ../../../components/platform/soc/rt582/rt582_dongle/dongle/src/vprint.c:237:50
	subs	r6, #1
	.loc	1 237 36                        @ ../../../components/platform/soc/rt582/rt582_dongle/dongle/src/vprint.c:237:36
	cmp	r6, #0
	bgt	.LBB0_14
.Ltmp48:
@ %bb.15:                               @   in Loop: Header=BB0_3 Depth=2
	@DEBUG_VALUE: vsnprintf_ex:ap <- [DW_OP_plus_uconst 44] [$sp+0]
	@DEBUG_VALUE: vsnprintf_ex:rank <- [DW_OP_plus_uconst 68] [$sp+0]
	@DEBUG_VALUE: flt:n <- $r9
	@DEBUG_VALUE: flt:precision <- [DW_OP_plus_uconst 84] [$sp+0]
	@DEBUG_VALUE: vsnprintf_ex:tmp <- [DW_OP_plus_uconst 64] [$sp+0]
	@DEBUG_VALUE: vsnprintf_ex:val <- [DW_OP_plus_uconst 12, DW_OP_LLVM_fragment 32 32] [$sp+0]
	@DEBUG_VALUE: vsnprintf_ex:val <- [DW_OP_plus_uconst 16, DW_OP_LLVM_fragment 0 32] [$sp+0]
	@DEBUG_VALUE: vsnprintf_ex:flags <- [DW_OP_plus_uconst 28] [$sp+0]
	@DEBUG_VALUE: vsnprintf_ex:width <- [DW_OP_plus_uconst 76] [$sp+0]
	@DEBUG_VALUE: flt:flags <- 2
	@DEBUG_VALUE: flt:c <- 32
	@DEBUG_VALUE: vsnprintf_ex:state <- 0
	ldr	r0, [sp, #64]                   @ 4-byte Reload
	mov.w	r6, #-1
	add.w	r10, r0, r5
	b	.LBB0_17
.Ltmp49:
.LBB0_16:                               @   in Loop: Header=BB0_3 Depth=2
	@DEBUG_VALUE: vsnprintf_ex:ap <- [DW_OP_plus_uconst 44] [$sp+0]
	@DEBUG_VALUE: vsnprintf_ex:rank <- [DW_OP_plus_uconst 68] [$sp+0]
	@DEBUG_VALUE: flt:n <- $r9
	@DEBUG_VALUE: flt:precision <- [DW_OP_plus_uconst 84] [$sp+0]
	@DEBUG_VALUE: vsnprintf_ex:tmp <- [DW_OP_plus_uconst 64] [$sp+0]
	@DEBUG_VALUE: flt:str <- [DW_OP_plus_uconst 64] [$sp+0]
	@DEBUG_VALUE: vsnprintf_ex:val <- [DW_OP_plus_uconst 12, DW_OP_LLVM_fragment 32 32] [$sp+0]
	@DEBUG_VALUE: vsnprintf_ex:val <- [DW_OP_plus_uconst 16, DW_OP_LLVM_fragment 0 32] [$sp+0]
	@DEBUG_VALUE: vsnprintf_ex:flags <- [DW_OP_plus_uconst 28] [$sp+0]
	@DEBUG_VALUE: vsnprintf_ex:width <- [DW_OP_plus_uconst 76] [$sp+0]
	@DEBUG_VALUE: flt:flags <- 2
	@DEBUG_VALUE: flt:c <- 32
	@DEBUG_VALUE: vsnprintf_ex:state <- 0
	.loc	1 0 36                          @ ../../../components/platform/soc/rt582/rt582_dongle/dongle/src/vprint.c:0:36
	ldr.w	r10, [sp, #64]                  @ 4-byte Reload
	subs	r6, r5, #1
.Ltmp50:
	@DEBUG_VALUE: flt:size <- $r6
.LBB0_17:                               @   in Loop: Header=BB0_3 Depth=2
	@DEBUG_VALUE: vsnprintf_ex:ap <- [DW_OP_plus_uconst 44] [$sp+0]
	@DEBUG_VALUE: vsnprintf_ex:rank <- [DW_OP_plus_uconst 68] [$sp+0]
	@DEBUG_VALUE: flt:n <- $r9
	@DEBUG_VALUE: flt:precision <- [DW_OP_plus_uconst 84] [$sp+0]
	@DEBUG_VALUE: vsnprintf_ex:tmp <- [DW_OP_plus_uconst 64] [$sp+0]
	@DEBUG_VALUE: vsnprintf_ex:val <- [DW_OP_plus_uconst 12, DW_OP_LLVM_fragment 32 32] [$sp+0]
	@DEBUG_VALUE: vsnprintf_ex:val <- [DW_OP_plus_uconst 16, DW_OP_LLVM_fragment 0 32] [$sp+0]
	@DEBUG_VALUE: vsnprintf_ex:flags <- [DW_OP_plus_uconst 28] [$sp+0]
	@DEBUG_VALUE: vsnprintf_ex:width <- [DW_OP_plus_uconst 76] [$sp+0]
	@DEBUG_VALUE: flt:flags <- 2
	@DEBUG_VALUE: flt:c <- 32
	@DEBUG_VALUE: vsnprintf_ex:state <- 0
	.loc	1 205 13 is_stmt 1              @ ../../../components/platform/soc/rt582/rt582_dongle/dongle/src/vprint.c:205:13
	mov	r0, r4
	mov	r1, r8
	movs	r2, #0
	movs	r3, #0
	bl	__aeabi_dcmpge
.Ltmp51:
	@DEBUG_VALUE: flt:size <- $r6
	@DEBUG_VALUE: flt:str <- $r10
	.loc	1 238 7                         @ ../../../components/platform/soc/rt582/rt582_dongle/dongle/src/vprint.c:238:7
	cbnz	r0, .LBB0_19
.Ltmp52:
@ %bb.18:                               @   in Loop: Header=BB0_3 Depth=2
	@DEBUG_VALUE: vsnprintf_ex:ap <- [DW_OP_plus_uconst 44] [$sp+0]
	@DEBUG_VALUE: vsnprintf_ex:rank <- [DW_OP_plus_uconst 68] [$sp+0]
	@DEBUG_VALUE: flt:str <- $r10
	@DEBUG_VALUE: flt:n <- $r9
	@DEBUG_VALUE: flt:size <- $r6
	@DEBUG_VALUE: flt:precision <- [DW_OP_plus_uconst 84] [$sp+0]
	@DEBUG_VALUE: vsnprintf_ex:tmp <- [DW_OP_plus_uconst 64] [$sp+0]
	@DEBUG_VALUE: vsnprintf_ex:val <- [DW_OP_plus_uconst 12, DW_OP_LLVM_fragment 32 32] [$sp+0]
	@DEBUG_VALUE: vsnprintf_ex:val <- [DW_OP_plus_uconst 16, DW_OP_LLVM_fragment 0 32] [$sp+0]
	@DEBUG_VALUE: vsnprintf_ex:flags <- [DW_OP_plus_uconst 28] [$sp+0]
	@DEBUG_VALUE: vsnprintf_ex:width <- [DW_OP_plus_uconst 76] [$sp+0]
	@DEBUG_VALUE: flt:flags <- 2
	@DEBUG_VALUE: flt:c <- 32
	@DEBUG_VALUE: vsnprintf_ex:state <- 0
	.loc	1 0 7 is_stmt 0                 @ ../../../components/platform/soc/rt582/rt582_dongle/dongle/src/vprint.c:0:7
	movw	r8, :lower16:__stdout
	movt	r8, :upper16:__stdout
.Ltmp53:
	.loc	1 238 13                        @ ../../../components/platform/soc/rt582/rt582_dongle/dongle/src/vprint.c:238:13
	mov	r0, r11
	mov	r1, r8
	bl	putc
.Ltmp54:
	.loc	1 0 13                          @ ../../../components/platform/soc/rt582/rt582_dongle/dongle/src/vprint.c:0:13
	ldr	r7, [sp, #64]                   @ 4-byte Reload
	.loc	1 238 13                        @ ../../../components/platform/soc/rt582/rt582_dongle/dongle/src/vprint.c:238:13
	add.w	r10, r10, #1
.Ltmp55:
	@DEBUG_VALUE: flt:str <- $r10
	.loc	1 0 13                          @ ../../../components/platform/soc/rt582/rt582_dongle/dongle/src/vprint.c:0:13
	b	.LBB0_20
.Ltmp56:
	.p2align	2
.LBB0_19:                               @   in Loop: Header=BB0_3 Depth=2
	@DEBUG_VALUE: vsnprintf_ex:ap <- [DW_OP_plus_uconst 44] [$sp+0]
	@DEBUG_VALUE: vsnprintf_ex:rank <- [DW_OP_plus_uconst 68] [$sp+0]
	@DEBUG_VALUE: flt:str <- $r10
	@DEBUG_VALUE: flt:n <- $r9
	@DEBUG_VALUE: flt:size <- $r6
	@DEBUG_VALUE: flt:precision <- [DW_OP_plus_uconst 84] [$sp+0]
	@DEBUG_VALUE: vsnprintf_ex:tmp <- [DW_OP_plus_uconst 64] [$sp+0]
	@DEBUG_VALUE: vsnprintf_ex:val <- [DW_OP_plus_uconst 12, DW_OP_LLVM_fragment 32 32] [$sp+0]
	@DEBUG_VALUE: vsnprintf_ex:val <- [DW_OP_plus_uconst 16, DW_OP_LLVM_fragment 0 32] [$sp+0]
	@DEBUG_VALUE: vsnprintf_ex:flags <- [DW_OP_plus_uconst 28] [$sp+0]
	@DEBUG_VALUE: vsnprintf_ex:width <- [DW_OP_plus_uconst 76] [$sp+0]
	@DEBUG_VALUE: flt:flags <- 2
	@DEBUG_VALUE: flt:c <- 32
	@DEBUG_VALUE: vsnprintf_ex:state <- 0
	ldr	r7, [sp, #64]                   @ 4-byte Reload
	movw	r8, :lower16:__stdout
	movt	r8, :upper16:__stdout
.Ltmp57:
.LBB0_20:                               @   in Loop: Header=BB0_3 Depth=2
	@DEBUG_VALUE: vsnprintf_ex:ap <- [DW_OP_plus_uconst 44] [$sp+0]
	@DEBUG_VALUE: vsnprintf_ex:rank <- [DW_OP_plus_uconst 68] [$sp+0]
	@DEBUG_VALUE: flt:str <- $r10
	@DEBUG_VALUE: flt:n <- $r9
	@DEBUG_VALUE: flt:size <- $r6
	@DEBUG_VALUE: flt:precision <- [DW_OP_plus_uconst 84] [$sp+0]
	@DEBUG_VALUE: vsnprintf_ex:tmp <- [DW_OP_plus_uconst 64] [$sp+0]
	@DEBUG_VALUE: vsnprintf_ex:val <- [DW_OP_plus_uconst 12, DW_OP_LLVM_fragment 32 32] [$sp+0]
	@DEBUG_VALUE: vsnprintf_ex:val <- [DW_OP_plus_uconst 16, DW_OP_LLVM_fragment 0 32] [$sp+0]
	@DEBUG_VALUE: vsnprintf_ex:flags <- [DW_OP_plus_uconst 28] [$sp+0]
	@DEBUG_VALUE: vsnprintf_ex:width <- [DW_OP_plus_uconst 76] [$sp+0]
	@DEBUG_VALUE: flt:flags <- 2
	@DEBUG_VALUE: flt:c <- 32
	@DEBUG_VALUE: vsnprintf_ex:state <- 0
	@DEBUG_VALUE: flt:str <- $r10
	@DEBUG_VALUE: flt:size <- undef
	.loc	1 239 24 is_stmt 1              @ ../../../components/platform/soc/rt582/rt582_dongle/dongle/src/vprint.c:239:24
	cmp	r6, #1
	mov	r4, r6
	blt	.LBB0_23
.Ltmp58:
	.p2align	2
.LBB0_21:                               @   Parent Loop BB0_2 Depth=1
                                        @     Parent Loop BB0_3 Depth=2
                                        @ =>    This Inner Loop Header: Depth=3
	@DEBUG_VALUE: vsnprintf_ex:ap <- [DW_OP_plus_uconst 44] [$sp+0]
	@DEBUG_VALUE: vsnprintf_ex:rank <- [DW_OP_plus_uconst 68] [$sp+0]
	@DEBUG_VALUE: flt:n <- $r9
	@DEBUG_VALUE: flt:precision <- [DW_OP_plus_uconst 84] [$sp+0]
	@DEBUG_VALUE: vsnprintf_ex:tmp <- [DW_OP_plus_uconst 64] [$sp+0]
	@DEBUG_VALUE: vsnprintf_ex:val <- [DW_OP_plus_uconst 12, DW_OP_LLVM_fragment 32 32] [$sp+0]
	@DEBUG_VALUE: vsnprintf_ex:val <- [DW_OP_plus_uconst 16, DW_OP_LLVM_fragment 0 32] [$sp+0]
	@DEBUG_VALUE: vsnprintf_ex:flags <- [DW_OP_plus_uconst 28] [$sp+0]
	@DEBUG_VALUE: vsnprintf_ex:width <- [DW_OP_plus_uconst 76] [$sp+0]
	@DEBUG_VALUE: flt:flags <- 2
	@DEBUG_VALUE: flt:c <- 32
	@DEBUG_VALUE: vsnprintf_ex:state <- 0
	@DEBUG_VALUE: flt:str <- undef
	.loc	1 239 43 is_stmt 0              @ ../../../components/platform/soc/rt582/rt582_dongle/dongle/src/vprint.c:239:43
	movs	r0, #32
	mov	r1, r8
	bl	putc
.Ltmp59:
	@DEBUG_VALUE: flt:size <- [DW_OP_constu 2, DW_OP_minus, DW_OP_stack_value] $r4
	@DEBUG_VALUE: flt:str <- [DW_OP_plus_uconst 1, DW_OP_stack_value] undef
	.loc	1 239 38                        @ ../../../components/platform/soc/rt582/rt582_dongle/dongle/src/vprint.c:239:38
	subs	r4, #1
.Ltmp60:
	.loc	1 239 24                        @ ../../../components/platform/soc/rt582/rt582_dongle/dongle/src/vprint.c:239:24
	cmp	r4, #0
	bgt	.LBB0_21
.Ltmp61:
@ %bb.22:                               @   in Loop: Header=BB0_3 Depth=2
	@DEBUG_VALUE: vsnprintf_ex:ap <- [DW_OP_plus_uconst 44] [$sp+0]
	@DEBUG_VALUE: vsnprintf_ex:rank <- [DW_OP_plus_uconst 68] [$sp+0]
	@DEBUG_VALUE: flt:n <- $r9
	@DEBUG_VALUE: flt:precision <- [DW_OP_plus_uconst 84] [$sp+0]
	@DEBUG_VALUE: vsnprintf_ex:tmp <- [DW_OP_plus_uconst 64] [$sp+0]
	@DEBUG_VALUE: vsnprintf_ex:val <- [DW_OP_plus_uconst 12, DW_OP_LLVM_fragment 32 32] [$sp+0]
	@DEBUG_VALUE: vsnprintf_ex:val <- [DW_OP_plus_uconst 16, DW_OP_LLVM_fragment 0 32] [$sp+0]
	@DEBUG_VALUE: vsnprintf_ex:flags <- [DW_OP_plus_uconst 28] [$sp+0]
	@DEBUG_VALUE: vsnprintf_ex:width <- [DW_OP_plus_uconst 76] [$sp+0]
	@DEBUG_VALUE: flt:flags <- 2
	@DEBUG_VALUE: flt:c <- 32
	@DEBUG_VALUE: vsnprintf_ex:state <- 0
	add	r10, r6
	mov.w	r4, #-1
	b	.LBB0_24
.Ltmp62:
.LBB0_23:                               @   in Loop: Header=BB0_3 Depth=2
	@DEBUG_VALUE: vsnprintf_ex:ap <- [DW_OP_plus_uconst 44] [$sp+0]
	@DEBUG_VALUE: vsnprintf_ex:rank <- [DW_OP_plus_uconst 68] [$sp+0]
	@DEBUG_VALUE: flt:str <- $r10
	@DEBUG_VALUE: flt:n <- $r9
	@DEBUG_VALUE: flt:precision <- [DW_OP_plus_uconst 84] [$sp+0]
	@DEBUG_VALUE: vsnprintf_ex:tmp <- [DW_OP_plus_uconst 64] [$sp+0]
	@DEBUG_VALUE: vsnprintf_ex:val <- [DW_OP_plus_uconst 12, DW_OP_LLVM_fragment 32 32] [$sp+0]
	@DEBUG_VALUE: vsnprintf_ex:val <- [DW_OP_plus_uconst 16, DW_OP_LLVM_fragment 0 32] [$sp+0]
	@DEBUG_VALUE: vsnprintf_ex:flags <- [DW_OP_plus_uconst 28] [$sp+0]
	@DEBUG_VALUE: vsnprintf_ex:width <- [DW_OP_plus_uconst 76] [$sp+0]
	@DEBUG_VALUE: flt:flags <- 2
	@DEBUG_VALUE: flt:c <- 32
	@DEBUG_VALUE: vsnprintf_ex:state <- 0
	.loc	1 0 24                          @ ../../../components/platform/soc/rt582/rt582_dongle/dongle/src/vprint.c:0:24
	subs	r4, r6, #1
.Ltmp63:
	@DEBUG_VALUE: flt:size <- $r4
.LBB0_24:                               @   in Loop: Header=BB0_3 Depth=2
	@DEBUG_VALUE: vsnprintf_ex:ap <- [DW_OP_plus_uconst 44] [$sp+0]
	@DEBUG_VALUE: vsnprintf_ex:rank <- [DW_OP_plus_uconst 68] [$sp+0]
	@DEBUG_VALUE: flt:n <- $r9
	@DEBUG_VALUE: flt:precision <- [DW_OP_plus_uconst 84] [$sp+0]
	@DEBUG_VALUE: vsnprintf_ex:tmp <- [DW_OP_plus_uconst 64] [$sp+0]
	@DEBUG_VALUE: vsnprintf_ex:val <- [DW_OP_plus_uconst 12, DW_OP_LLVM_fragment 32 32] [$sp+0]
	@DEBUG_VALUE: vsnprintf_ex:val <- [DW_OP_plus_uconst 16, DW_OP_LLVM_fragment 0 32] [$sp+0]
	@DEBUG_VALUE: vsnprintf_ex:flags <- [DW_OP_plus_uconst 28] [$sp+0]
	@DEBUG_VALUE: vsnprintf_ex:width <- [DW_OP_plus_uconst 76] [$sp+0]
	@DEBUG_VALUE: flt:flags <- 2
	@DEBUG_VALUE: flt:c <- 32
	@DEBUG_VALUE: vsnprintf_ex:state <- 0
	@DEBUG_VALUE: flt:str <- $r10
	@DEBUG_VALUE: flt:i <- 0
	.loc	1 240 3 is_stmt 1               @ ../../../components/platform/soc/rt582/rt582_dongle/dongle/src/vprint.c:240:3
	cmp.w	r9, #1
	blt	.LBB0_28
.Ltmp64:
@ %bb.25:                               @   in Loop: Header=BB0_3 Depth=2
	@DEBUG_VALUE: vsnprintf_ex:ap <- [DW_OP_plus_uconst 44] [$sp+0]
	@DEBUG_VALUE: vsnprintf_ex:rank <- [DW_OP_plus_uconst 68] [$sp+0]
	@DEBUG_VALUE: flt:str <- $r10
	@DEBUG_VALUE: flt:n <- $r9
	@DEBUG_VALUE: flt:precision <- [DW_OP_plus_uconst 84] [$sp+0]
	@DEBUG_VALUE: vsnprintf_ex:tmp <- [DW_OP_plus_uconst 64] [$sp+0]
	@DEBUG_VALUE: vsnprintf_ex:val <- [DW_OP_plus_uconst 12, DW_OP_LLVM_fragment 32 32] [$sp+0]
	@DEBUG_VALUE: vsnprintf_ex:val <- [DW_OP_plus_uconst 16, DW_OP_LLVM_fragment 0 32] [$sp+0]
	@DEBUG_VALUE: vsnprintf_ex:flags <- [DW_OP_plus_uconst 28] [$sp+0]
	@DEBUG_VALUE: vsnprintf_ex:width <- [DW_OP_plus_uconst 76] [$sp+0]
	@DEBUG_VALUE: flt:i <- 0
	@DEBUG_VALUE: flt:flags <- 2
	@DEBUG_VALUE: flt:c <- 32
	@DEBUG_VALUE: vsnprintf_ex:state <- 0
	.loc	1 0 3 is_stmt 0                 @ ../../../components/platform/soc/rt582/rt582_dongle/dongle/src/vprint.c:0:3
	add	r5, sp, #92
	mov	r6, r9
.Ltmp65:
	.p2align	2
.LBB0_26:                               @   Parent Loop BB0_2 Depth=1
                                        @     Parent Loop BB0_3 Depth=2
                                        @ =>    This Inner Loop Header: Depth=3
	@DEBUG_VALUE: vsnprintf_ex:ap <- [DW_OP_plus_uconst 44] [$sp+0]
	@DEBUG_VALUE: vsnprintf_ex:rank <- [DW_OP_plus_uconst 68] [$sp+0]
	@DEBUG_VALUE: flt:n <- $r9
	@DEBUG_VALUE: flt:precision <- [DW_OP_plus_uconst 84] [$sp+0]
	@DEBUG_VALUE: vsnprintf_ex:tmp <- [DW_OP_plus_uconst 64] [$sp+0]
	@DEBUG_VALUE: vsnprintf_ex:val <- [DW_OP_plus_uconst 12, DW_OP_LLVM_fragment 32 32] [$sp+0]
	@DEBUG_VALUE: vsnprintf_ex:val <- [DW_OP_plus_uconst 16, DW_OP_LLVM_fragment 0 32] [$sp+0]
	@DEBUG_VALUE: vsnprintf_ex:flags <- [DW_OP_plus_uconst 28] [$sp+0]
	@DEBUG_VALUE: vsnprintf_ex:width <- [DW_OP_plus_uconst 76] [$sp+0]
	@DEBUG_VALUE: flt:flags <- 2
	@DEBUG_VALUE: flt:c <- 32
	@DEBUG_VALUE: vsnprintf_ex:state <- 0
	@DEBUG_VALUE: flt:str <- undef
	@DEBUG_VALUE: flt:i <- undef
	.loc	1 240 27                        @ ../../../components/platform/soc/rt582/rt582_dongle/dongle/src/vprint.c:240:27
	ldrb	r0, [r5], #1
	mov	r1, r8
	bl	putc
.Ltmp66:
	@DEBUG_VALUE: flt:i <- [DW_OP_plus_uconst 1, DW_OP_stack_value] undef
	@DEBUG_VALUE: flt:str <- [DW_OP_plus_uconst 1, DW_OP_stack_value] undef
	.loc	1 240 17                        @ ../../../components/platform/soc/rt582/rt582_dongle/dongle/src/vprint.c:240:17
	subs	r6, #1
.Ltmp67:
	.loc	1 240 3                         @ ../../../components/platform/soc/rt582/rt582_dongle/dongle/src/vprint.c:240:3
	bne	.LBB0_26
.Ltmp68:
@ %bb.27:                               @   in Loop: Header=BB0_3 Depth=2
	@DEBUG_VALUE: vsnprintf_ex:ap <- [DW_OP_plus_uconst 44] [$sp+0]
	@DEBUG_VALUE: vsnprintf_ex:rank <- [DW_OP_plus_uconst 68] [$sp+0]
	@DEBUG_VALUE: flt:n <- $r9
	@DEBUG_VALUE: flt:precision <- [DW_OP_plus_uconst 84] [$sp+0]
	@DEBUG_VALUE: vsnprintf_ex:tmp <- [DW_OP_plus_uconst 64] [$sp+0]
	@DEBUG_VALUE: vsnprintf_ex:val <- [DW_OP_plus_uconst 12, DW_OP_LLVM_fragment 32 32] [$sp+0]
	@DEBUG_VALUE: vsnprintf_ex:val <- [DW_OP_plus_uconst 16, DW_OP_LLVM_fragment 0 32] [$sp+0]
	@DEBUG_VALUE: vsnprintf_ex:flags <- [DW_OP_plus_uconst 28] [$sp+0]
	@DEBUG_VALUE: vsnprintf_ex:width <- [DW_OP_plus_uconst 76] [$sp+0]
	@DEBUG_VALUE: flt:flags <- 2
	@DEBUG_VALUE: flt:c <- 32
	@DEBUG_VALUE: vsnprintf_ex:state <- 0
	add	r10, r9
.Ltmp69:
.LBB0_28:                               @   in Loop: Header=BB0_3 Depth=2
	@DEBUG_VALUE: vsnprintf_ex:ap <- [DW_OP_plus_uconst 44] [$sp+0]
	@DEBUG_VALUE: vsnprintf_ex:rank <- [DW_OP_plus_uconst 68] [$sp+0]
	@DEBUG_VALUE: flt:n <- $r9
	@DEBUG_VALUE: flt:precision <- [DW_OP_plus_uconst 84] [$sp+0]
	@DEBUG_VALUE: vsnprintf_ex:tmp <- [DW_OP_plus_uconst 64] [$sp+0]
	@DEBUG_VALUE: vsnprintf_ex:val <- [DW_OP_plus_uconst 12, DW_OP_LLVM_fragment 32 32] [$sp+0]
	@DEBUG_VALUE: vsnprintf_ex:val <- [DW_OP_plus_uconst 16, DW_OP_LLVM_fragment 0 32] [$sp+0]
	@DEBUG_VALUE: vsnprintf_ex:flags <- [DW_OP_plus_uconst 28] [$sp+0]
	@DEBUG_VALUE: vsnprintf_ex:width <- [DW_OP_plus_uconst 76] [$sp+0]
	@DEBUG_VALUE: flt:flags <- 2
	@DEBUG_VALUE: flt:c <- 32
	@DEBUG_VALUE: vsnprintf_ex:state <- 0
	@DEBUG_VALUE: flt:str <- $r10
	@DEBUG_VALUE: flt:size <- [DW_OP_constu 1, DW_OP_minus, DW_OP_stack_value] $r4
	.loc	1 0 3                           @ ../../../components/platform/soc/rt582/rt582_dongle/dongle/src/vprint.c:0:3
	ldr.w	r9, [sp, #32]                   @ 4-byte Reload
.Ltmp70:
	ldr	r6, [sp, #48]                   @ 4-byte Reload
	.loc	1 241 3 is_stmt 1               @ ../../../components/platform/soc/rt582/rt582_dongle/dongle/src/vprint.c:241:3
	cmp	r4, #1
	blt	.LBB0_32
.Ltmp71:
@ %bb.29:                               @   in Loop: Header=BB0_3 Depth=2
	@DEBUG_VALUE: vsnprintf_ex:ap <- [DW_OP_plus_uconst 44] [$sp+0]
	@DEBUG_VALUE: vsnprintf_ex:rank <- [DW_OP_plus_uconst 68] [$sp+0]
	@DEBUG_VALUE: flt:str <- $r10
	@DEBUG_VALUE: flt:size <- [DW_OP_constu 1, DW_OP_minus, DW_OP_stack_value] $r4
	@DEBUG_VALUE: flt:precision <- [DW_OP_plus_uconst 84] [$sp+0]
	@DEBUG_VALUE: vsnprintf_ex:tmp <- [DW_OP_plus_uconst 64] [$sp+0]
	@DEBUG_VALUE: vsnprintf_ex:val <- [DW_OP_plus_uconst 12, DW_OP_LLVM_fragment 32 32] [$sp+0]
	@DEBUG_VALUE: vsnprintf_ex:val <- [DW_OP_plus_uconst 16, DW_OP_LLVM_fragment 0 32] [$sp+0]
	@DEBUG_VALUE: vsnprintf_ex:flags <- [DW_OP_plus_uconst 28] [$sp+0]
	@DEBUG_VALUE: vsnprintf_ex:width <- [DW_OP_plus_uconst 76] [$sp+0]
	@DEBUG_VALUE: flt:flags <- 2
	@DEBUG_VALUE: flt:c <- 32
	@DEBUG_VALUE: vsnprintf_ex:state <- 0
	adds	r5, r4, #1
.Ltmp72:
	.p2align	2
.LBB0_30:                               @   Parent Loop BB0_2 Depth=1
                                        @     Parent Loop BB0_3 Depth=2
                                        @ =>    This Inner Loop Header: Depth=3
	@DEBUG_VALUE: vsnprintf_ex:ap <- [DW_OP_plus_uconst 44] [$sp+0]
	@DEBUG_VALUE: vsnprintf_ex:rank <- [DW_OP_plus_uconst 68] [$sp+0]
	@DEBUG_VALUE: flt:precision <- [DW_OP_plus_uconst 84] [$sp+0]
	@DEBUG_VALUE: vsnprintf_ex:tmp <- [DW_OP_plus_uconst 64] [$sp+0]
	@DEBUG_VALUE: vsnprintf_ex:val <- [DW_OP_plus_uconst 12, DW_OP_LLVM_fragment 32 32] [$sp+0]
	@DEBUG_VALUE: vsnprintf_ex:val <- [DW_OP_plus_uconst 16, DW_OP_LLVM_fragment 0 32] [$sp+0]
	@DEBUG_VALUE: vsnprintf_ex:flags <- [DW_OP_plus_uconst 28] [$sp+0]
	@DEBUG_VALUE: vsnprintf_ex:width <- [DW_OP_plus_uconst 76] [$sp+0]
	@DEBUG_VALUE: flt:flags <- 2
	@DEBUG_VALUE: flt:c <- 32
	@DEBUG_VALUE: vsnprintf_ex:state <- 0
	@DEBUG_VALUE: flt:str <- undef
	@DEBUG_VALUE: flt:size <- [DW_OP_constu 2, DW_OP_minus, DW_OP_stack_value] $r5
	.loc	1 241 22 is_stmt 0              @ ../../../components/platform/soc/rt582/rt582_dongle/dongle/src/vprint.c:241:22
	movs	r0, #32
	mov	r1, r8
	bl	putc
.Ltmp73:
	@DEBUG_VALUE: flt:size <- [DW_OP_constu 2, DW_OP_minus, DW_OP_constu 1, DW_OP_minus, DW_OP_stack_value] $r5
	@DEBUG_VALUE: flt:str <- [DW_OP_plus_uconst 1, DW_OP_stack_value] undef
	.loc	1 241 17                        @ ../../../components/platform/soc/rt582/rt582_dongle/dongle/src/vprint.c:241:17
	subs	r5, #1
.Ltmp74:
	.loc	1 241 3                         @ ../../../components/platform/soc/rt582/rt582_dongle/dongle/src/vprint.c:241:3
	cmp	r5, #1
	bgt	.LBB0_30
.Ltmp75:
@ %bb.31:                               @   in Loop: Header=BB0_3 Depth=2
	@DEBUG_VALUE: vsnprintf_ex:ap <- [DW_OP_plus_uconst 44] [$sp+0]
	@DEBUG_VALUE: vsnprintf_ex:rank <- [DW_OP_plus_uconst 68] [$sp+0]
	@DEBUG_VALUE: flt:precision <- [DW_OP_plus_uconst 84] [$sp+0]
	@DEBUG_VALUE: vsnprintf_ex:tmp <- [DW_OP_plus_uconst 64] [$sp+0]
	@DEBUG_VALUE: vsnprintf_ex:val <- [DW_OP_plus_uconst 12, DW_OP_LLVM_fragment 32 32] [$sp+0]
	@DEBUG_VALUE: vsnprintf_ex:val <- [DW_OP_plus_uconst 16, DW_OP_LLVM_fragment 0 32] [$sp+0]
	@DEBUG_VALUE: vsnprintf_ex:flags <- [DW_OP_plus_uconst 28] [$sp+0]
	@DEBUG_VALUE: vsnprintf_ex:width <- [DW_OP_plus_uconst 76] [$sp+0]
	@DEBUG_VALUE: flt:flags <- 2
	@DEBUG_VALUE: flt:c <- 32
	@DEBUG_VALUE: vsnprintf_ex:state <- 0
	add	r10, r4
.Ltmp76:
.LBB0_32:                               @   in Loop: Header=BB0_3 Depth=2
	@DEBUG_VALUE: vsnprintf_ex:ap <- [DW_OP_plus_uconst 44] [$sp+0]
	@DEBUG_VALUE: vsnprintf_ex:rank <- [DW_OP_plus_uconst 68] [$sp+0]
	@DEBUG_VALUE: vsnprintf_ex:tmp <- [DW_OP_plus_uconst 64] [$sp+0]
	@DEBUG_VALUE: vsnprintf_ex:val <- [DW_OP_plus_uconst 12, DW_OP_LLVM_fragment 32 32] [$sp+0]
	@DEBUG_VALUE: vsnprintf_ex:val <- [DW_OP_plus_uconst 16, DW_OP_LLVM_fragment 0 32] [$sp+0]
	@DEBUG_VALUE: vsnprintf_ex:flags <- [DW_OP_plus_uconst 28] [$sp+0]
	@DEBUG_VALUE: vsnprintf_ex:width <- [DW_OP_plus_uconst 76] [$sp+0]
	@DEBUG_VALUE: vsnprintf_ex:state <- 0
	@DEBUG_VALUE: vsnprintf_ex:q <- $r10
	.loc	1 0 3                           @ ../../../components/platform/soc/rt582/rt582_dongle/dongle/src/vprint.c:0:3
	ldr	r2, [sp, #52]                   @ 4-byte Reload
.Ltmp77:
	@DEBUG_VALUE: vsnprintf_ex:p <- [DW_OP_plus_uconst 1, DW_OP_stack_value] $r2
	.loc	1 558 17 is_stmt 1              @ ../../../components/platform/soc/rt582/rt582_dongle/dongle/src/vprint.c:558:17
	subs	r0, r6, r7
.Ltmp78:
	.loc	1 272 15                        @ ../../../components/platform/soc/rt582/rt582_dongle/dongle/src/vprint.c:272:15
	ldrb	r3, [r2]
.Ltmp79:
	.loc	1 558 12                        @ ../../../components/platform/soc/rt582/rt582_dongle/dongle/src/vprint.c:558:12
	add.w	r6, r0, r10
.Ltmp80:
	@DEBUG_VALUE: vsnprintf_ex:val <- [DW_OP_plus_uconst 12, DW_OP_LLVM_fragment 32 32] [$sp+0]
	@DEBUG_VALUE: vsnprintf_ex:val <- [DW_OP_plus_uconst 16, DW_OP_LLVM_fragment 0 32] [$sp+0]
	@DEBUG_VALUE: vsnprintf_ex:state <- 0
	@DEBUG_VALUE: vsnprintf_ex:flags <- [DW_OP_plus_uconst 28] [$sp+0]
	@DEBUG_VALUE: vsnprintf_ex:prec <- [DW_OP_plus_uconst 36] [$sp+0]
	@DEBUG_VALUE: vsnprintf_ex:width <- [DW_OP_plus_uconst 76] [$sp+0]
	@DEBUG_VALUE: vsnprintf_ex:rank <- [DW_OP_plus_uconst 68] [$sp+0]
	@DEBUG_VALUE: vsnprintf_ex:o <- $r6
	@DEBUG_VALUE: vsnprintf_ex:p <- [DW_OP_plus_uconst 52, DW_OP_deref_size 4, DW_OP_plus_uconst 1, DW_OP_stack_value] $sp
	@DEBUG_VALUE: vsnprintf_ex:ap <- [DW_OP_plus_uconst 44] [$sp+0]
	.loc	1 0 12 is_stmt 0                @ ../../../components/platform/soc/rt582/rt582_dongle/dongle/src/vprint.c:0:12
	mov	r11, r10
.Ltmp81:
	@DEBUG_VALUE: vsnprintf_ex:q <- $r11
	@DEBUG_VALUE: vsnprintf_ex:q <- $r11
	@DEBUG_VALUE: vsnprintf_ex:q <- $r11
	ldr	r4, [sp, #68]                   @ 4-byte Reload
.Ltmp82:
	@DEBUG_VALUE: vsnprintf_ex:rank <- $r4
	ldr.w	r10, [sp, #44]                  @ 4-byte Reload
.Ltmp83:
	@DEBUG_VALUE: vsnprintf_ex:ap <- $r10
	movs	r0, #0
.Ltmp84:
	@DEBUG_VALUE: vsnprintf_ex:ch <- $r3
	.loc	1 272 2 is_stmt 1               @ ../../../components/platform/soc/rt582/rt582_dongle/dongle/src/vprint.c:272:2
	cmp	r3, #0
.Ltmp85:
	@DEBUG_VALUE: vsnprintf_ex:p <- [DW_OP_plus_uconst 1, DW_OP_stack_value] $r2
	bne.w	.LBB0_3
	b	.LBB0_213
.Ltmp86:
	.p2align	2
.LBB0_33:                               @   in Loop: Header=BB0_2 Depth=1
	@DEBUG_VALUE: vsnprintf_ex:q <- $r11
	@DEBUG_VALUE: vsnprintf_ex:ap <- $r10
	@DEBUG_VALUE: vsnprintf_ex:o <- $r6
	@DEBUG_VALUE: vsnprintf_ex:ch <- $r3
	@DEBUG_VALUE: vsnprintf_ex:rank <- $r2
	@DEBUG_VALUE: vsnprintf_ex:val <- [DW_OP_plus_uconst 12, DW_OP_LLVM_fragment 32 32] [$sp+0]
	@DEBUG_VALUE: vsnprintf_ex:val <- [DW_OP_plus_uconst 16, DW_OP_LLVM_fragment 0 32] [$sp+0]
	@DEBUG_VALUE: vsnprintf_ex:flags <- [DW_OP_plus_uconst 28] [$sp+0]
	@DEBUG_VALUE: vsnprintf_ex:width <- [DW_OP_plus_uconst 76] [$sp+0]
	@DEBUG_VALUE: vsnprintf_ex:state <- 0
	.loc	1 0 2 is_stmt 0                 @ ../../../components/platform/soc/rt582/rt582_dongle/dongle/src/vprint.c:0:2
	sub.w	r0, r3, #99
	cmp	r0, #21
	bhi	.LBB0_48
.Ltmp87:
@ %bb.34:                               @   in Loop: Header=BB0_2 Depth=1
	@DEBUG_VALUE: vsnprintf_ex:q <- $r11
	@DEBUG_VALUE: vsnprintf_ex:ap <- $r10
	@DEBUG_VALUE: vsnprintf_ex:o <- $r6
	@DEBUG_VALUE: vsnprintf_ex:ch <- $r3
	@DEBUG_VALUE: vsnprintf_ex:rank <- $r2
	@DEBUG_VALUE: vsnprintf_ex:val <- [DW_OP_plus_uconst 12, DW_OP_LLVM_fragment 32 32] [$sp+0]
	@DEBUG_VALUE: vsnprintf_ex:val <- [DW_OP_plus_uconst 16, DW_OP_LLVM_fragment 0 32] [$sp+0]
	@DEBUG_VALUE: vsnprintf_ex:flags <- [DW_OP_plus_uconst 28] [$sp+0]
	@DEBUG_VALUE: vsnprintf_ex:width <- [DW_OP_plus_uconst 76] [$sp+0]
	@DEBUG_VALUE: vsnprintf_ex:state <- 0
.LCPI0_3:
	tbh	[pc, r0, lsl #1]
.Ltmp88:
@ %bb.35:
.LJTI0_2:
	.short	(.LBB0_69-(.LCPI0_3+4))/2
	.short	(.LBB0_36-(.LCPI0_3+4))/2
	.short	(.LBB0_65-(.LCPI0_3+4))/2
	.short	(.LBB0_65-(.LCPI0_3+4))/2
	.short	(.LBB0_65-(.LCPI0_3+4))/2
	.short	(.LBB0_65-(.LCPI0_3+4))/2
	.short	(.LBB0_36-(.LCPI0_3+4))/2
	.short	(.LBB0_65-(.LCPI0_3+4))/2
	.short	(.LBB0_65-(.LCPI0_3+4))/2
	.short	(.LBB0_65-(.LCPI0_3+4))/2
	.short	(.LBB0_65-(.LCPI0_3+4))/2
	.short	(.LBB0_70-(.LCPI0_3+4))/2
	.short	(.LBB0_74-(.LCPI0_3+4))/2
	.short	(.LBB0_75-(.LCPI0_3+4))/2
	.short	(.LBB0_65-(.LCPI0_3+4))/2
	.short	(.LBB0_65-(.LCPI0_3+4))/2
	.short	(.LBB0_77-(.LCPI0_3+4))/2
	.short	(.LBB0_65-(.LCPI0_3+4))/2
	.short	(.LBB0_91-(.LCPI0_3+4))/2
	.short	(.LBB0_65-(.LCPI0_3+4))/2
	.short	(.LBB0_65-(.LCPI0_3+4))/2
	.short	(.LBB0_97-(.LCPI0_3+4))/2
	.p2align	1
.LBB0_36:                               @   in Loop: Header=BB0_2 Depth=1
.Ltmp89:
	@DEBUG_VALUE: vsnprintf_ex:q <- $r11
	@DEBUG_VALUE: vsnprintf_ex:ap <- $r10
	@DEBUG_VALUE: vsnprintf_ex:o <- $r6
	@DEBUG_VALUE: vsnprintf_ex:ch <- $r3
	@DEBUG_VALUE: vsnprintf_ex:rank <- $r2
	@DEBUG_VALUE: vsnprintf_ex:val <- [DW_OP_plus_uconst 12, DW_OP_LLVM_fragment 32 32] [$sp+0]
	@DEBUG_VALUE: vsnprintf_ex:val <- [DW_OP_plus_uconst 16, DW_OP_LLVM_fragment 0 32] [$sp+0]
	@DEBUG_VALUE: vsnprintf_ex:flags <- [DW_OP_plus_uconst 28] [$sp+0]
	@DEBUG_VALUE: vsnprintf_ex:width <- [DW_OP_plus_uconst 76] [$sp+0]
	@DEBUG_VALUE: vsnprintf_ex:state <- 0
	@DEBUG_VALUE: vsnprintf_ex:base <- 10
	.loc	1 394 12 is_stmt 1              @ ../../../components/platform/soc/rt582/rt582_dongle/dongle/src/vprint.c:394:12
	ldr	r1, [sp, #28]                   @ 4-byte Reload
	.loc	1 395 6                         @ ../../../components/platform/soc/rt582/rt582_dongle/dongle/src/vprint.c:395:6
	adds	r0, r2, #2
	cmp	r0, #4
	.loc	1 394 12                        @ ../../../components/platform/soc/rt582/rt582_dongle/dongle/src/vprint.c:394:12
	orr	r1, r1, #64
.Ltmp90:
	@DEBUG_VALUE: vsnprintf_ex:flags <- $r1
	.loc	1 395 6                         @ ../../../components/platform/soc/rt582/rt582_dongle/dongle/src/vprint.c:395:6
	str	r1, [sp, #28]                   @ 4-byte Spill
.Ltmp91:
	@DEBUG_VALUE: vsnprintf_ex:flags <- [DW_OP_plus_uconst 28] [$sp+0]
	@DEBUG_VALUE: vsnprintf_ex:flags <- [DW_OP_plus_uconst 28] [$sp+0]
	@DEBUG_VALUE: vsnprintf_ex:flags <- [DW_OP_plus_uconst 28] [$sp+0]
	bhi.w	.LBB0_129
.Ltmp92:
@ %bb.37:                               @   in Loop: Header=BB0_2 Depth=1
	@DEBUG_VALUE: vsnprintf_ex:q <- $r11
	@DEBUG_VALUE: vsnprintf_ex:ap <- $r10
	@DEBUG_VALUE: vsnprintf_ex:o <- $r6
	@DEBUG_VALUE: vsnprintf_ex:ch <- $r3
	@DEBUG_VALUE: vsnprintf_ex:rank <- $r2
	@DEBUG_VALUE: vsnprintf_ex:val <- [DW_OP_plus_uconst 12, DW_OP_LLVM_fragment 32 32] [$sp+0]
	@DEBUG_VALUE: vsnprintf_ex:val <- [DW_OP_plus_uconst 16, DW_OP_LLVM_fragment 0 32] [$sp+0]
	@DEBUG_VALUE: vsnprintf_ex:flags <- [DW_OP_plus_uconst 28] [$sp+0]
	@DEBUG_VALUE: vsnprintf_ex:width <- [DW_OP_plus_uconst 76] [$sp+0]
	@DEBUG_VALUE: vsnprintf_ex:base <- 10
	@DEBUG_VALUE: vsnprintf_ex:state <- 0
	.loc	1 0 6 is_stmt 0                 @ ../../../components/platform/soc/rt582/rt582_dongle/dongle/src/vprint.c:0:6
.LCPI0_4:
	tbh	[pc, r0, lsl #1]
.Ltmp93:
@ %bb.38:
.LJTI0_5:
	.short	(.LBB0_39-(.LCPI0_4+4))/2
	.short	(.LBB0_131-(.LCPI0_4+4))/2
	.short	(.LBB0_133-(.LCPI0_4+4))/2
	.short	(.LBB0_134-(.LCPI0_4+4))/2
	.short	(.LBB0_136-(.LCPI0_4+4))/2
	.p2align	1
.LBB0_39:                               @   in Loop: Header=BB0_2 Depth=1
.Ltmp94:
	@DEBUG_VALUE: vsnprintf_ex:q <- $r11
	@DEBUG_VALUE: vsnprintf_ex:ap <- $r10
	@DEBUG_VALUE: vsnprintf_ex:o <- $r6
	@DEBUG_VALUE: vsnprintf_ex:ch <- $r3
	@DEBUG_VALUE: vsnprintf_ex:rank <- $r2
	@DEBUG_VALUE: vsnprintf_ex:val <- [DW_OP_plus_uconst 12, DW_OP_LLVM_fragment 32 32] [$sp+0]
	@DEBUG_VALUE: vsnprintf_ex:val <- [DW_OP_plus_uconst 16, DW_OP_LLVM_fragment 0 32] [$sp+0]
	@DEBUG_VALUE: vsnprintf_ex:flags <- [DW_OP_plus_uconst 28] [$sp+0]
	@DEBUG_VALUE: vsnprintf_ex:width <- [DW_OP_plus_uconst 76] [$sp+0]
	@DEBUG_VALUE: vsnprintf_ex:base <- 10
	@DEBUG_VALUE: vsnprintf_ex:state <- 0
	.loc	1 401 8 is_stmt 1               @ ../../../components/platform/soc/rt582/rt582_dongle/dongle/src/vprint.c:401:8
	ldrsb	r3, [r10], #4
.Ltmp95:
	@DEBUG_VALUE: vsnprintf_ex:ap <- $r10
	.loc	1 0 8 is_stmt 0                 @ ../../../components/platform/soc/rt582/rt582_dongle/dongle/src/vprint.c:0:8
	movs	r0, #10
	.loc	1 401 8                         @ ../../../components/platform/soc/rt582/rt582_dongle/dongle/src/vprint.c:401:8
	asrs	r7, r3, #31
.Ltmp96:
	@DEBUG_VALUE: vsnprintf_ex:val <- [DW_OP_LLVM_fragment 32 32] $r7
	.loc	1 0 8                           @ ../../../components/platform/soc/rt582/rt582_dongle/dongle/src/vprint.c:0:8
	str	r0, [sp, #80]                   @ 4-byte Spill
	b	.LBB0_102
.Ltmp97:
	.p2align	2
.LBB0_40:                               @   in Loop: Header=BB0_2 Depth=1
	@DEBUG_VALUE: vsnprintf_ex:q <- $r11
	@DEBUG_VALUE: vsnprintf_ex:ap <- $r10
	@DEBUG_VALUE: vsnprintf_ex:o <- $r6
	@DEBUG_VALUE: vsnprintf_ex:rank <- $r4
	@DEBUG_VALUE: vsnprintf_ex:ch <- $r3
	@DEBUG_VALUE: vsnprintf_ex:p <- $r2
	@DEBUG_VALUE: vsnprintf_ex:state <- $r0
	@DEBUG_VALUE: vsnprintf_ex:val <- [DW_OP_plus_uconst 12, DW_OP_LLVM_fragment 32 32] [$sp+0]
	@DEBUG_VALUE: vsnprintf_ex:val <- [DW_OP_plus_uconst 16, DW_OP_LLVM_fragment 0 32] [$sp+0]
	@DEBUG_VALUE: vsnprintf_ex:flags <- [DW_OP_plus_uconst 28] [$sp+0]
	@DEBUG_VALUE: vsnprintf_ex:width <- [DW_OP_plus_uconst 76] [$sp+0]
	cmp	r0, #3
	bhi.w	.LBB0_204
.Ltmp98:
@ %bb.41:                               @   in Loop: Header=BB0_2 Depth=1
	@DEBUG_VALUE: vsnprintf_ex:q <- $r11
	@DEBUG_VALUE: vsnprintf_ex:ap <- $r10
	@DEBUG_VALUE: vsnprintf_ex:o <- $r6
	@DEBUG_VALUE: vsnprintf_ex:rank <- $r4
	@DEBUG_VALUE: vsnprintf_ex:ch <- $r3
	@DEBUG_VALUE: vsnprintf_ex:p <- $r2
	@DEBUG_VALUE: vsnprintf_ex:state <- $r0
	@DEBUG_VALUE: vsnprintf_ex:val <- [DW_OP_plus_uconst 12, DW_OP_LLVM_fragment 32 32] [$sp+0]
	@DEBUG_VALUE: vsnprintf_ex:val <- [DW_OP_plus_uconst 16, DW_OP_LLVM_fragment 0 32] [$sp+0]
	@DEBUG_VALUE: vsnprintf_ex:flags <- [DW_OP_plus_uconst 28] [$sp+0]
	@DEBUG_VALUE: vsnprintf_ex:width <- [DW_OP_plus_uconst 76] [$sp+0]
.LCPI0_5:
	tbb	[pc, r0]
.Ltmp99:
@ %bb.42:
.LJTI0_0:
	.byte	(.LBB0_43-(.LCPI0_5+4))/2
	.byte	(.LBB0_52-(.LCPI0_5+4))/2
	.byte	(.LBB0_56-(.LCPI0_5+4))/2
	.byte	(.LBB0_60-(.LCPI0_5+4))/2
	.p2align	1
.LBB0_43:                               @   in Loop: Header=BB0_2 Depth=1
.Ltmp100:
	@DEBUG_VALUE: vsnprintf_ex:q <- $r11
	@DEBUG_VALUE: vsnprintf_ex:ap <- $r10
	@DEBUG_VALUE: vsnprintf_ex:o <- $r6
	@DEBUG_VALUE: vsnprintf_ex:rank <- $r4
	@DEBUG_VALUE: vsnprintf_ex:ch <- $r3
	@DEBUG_VALUE: vsnprintf_ex:p <- $r2
	@DEBUG_VALUE: vsnprintf_ex:state <- $r0
	@DEBUG_VALUE: vsnprintf_ex:val <- [DW_OP_plus_uconst 12, DW_OP_LLVM_fragment 32 32] [$sp+0]
	@DEBUG_VALUE: vsnprintf_ex:val <- [DW_OP_plus_uconst 16, DW_OP_LLVM_fragment 0 32] [$sp+0]
	@DEBUG_VALUE: vsnprintf_ex:flags <- [DW_OP_plus_uconst 28] [$sp+0]
	@DEBUG_VALUE: vsnprintf_ex:width <- [DW_OP_plus_uconst 76] [$sp+0]
	.loc	1 275 8 is_stmt 1               @ ../../../components/platform/soc/rt582/rt582_dongle/dongle/src/vprint.c:275:8
	cmp	r3, #37
	bne.w	.LBB0_92
.Ltmp101:
@ %bb.44:                               @   in Loop: Header=BB0_2 Depth=1
	@DEBUG_VALUE: vsnprintf_ex:q <- $r11
	@DEBUG_VALUE: vsnprintf_ex:ap <- $r10
	@DEBUG_VALUE: vsnprintf_ex:o <- $r6
	@DEBUG_VALUE: vsnprintf_ex:rank <- $r4
	@DEBUG_VALUE: vsnprintf_ex:ch <- $r3
	@DEBUG_VALUE: vsnprintf_ex:p <- $r2
	@DEBUG_VALUE: vsnprintf_ex:state <- $r0
	@DEBUG_VALUE: vsnprintf_ex:val <- [DW_OP_plus_uconst 12, DW_OP_LLVM_fragment 32 32] [$sp+0]
	@DEBUG_VALUE: vsnprintf_ex:val <- [DW_OP_plus_uconst 16, DW_OP_LLVM_fragment 0 32] [$sp+0]
	@DEBUG_VALUE: vsnprintf_ex:flags <- [DW_OP_plus_uconst 28] [$sp+0]
	@DEBUG_VALUE: vsnprintf_ex:width <- [DW_OP_plus_uconst 76] [$sp+0]
	.loc	1 0 8 is_stmt 0                 @ ../../../components/platform/soc/rt582/rt582_dongle/dongle/src/vprint.c:0:8
	mov.w	r1, #-1
	str	r1, [sp, #36]                   @ 4-byte Spill
	movs	r1, #0
	str	r1, [sp, #68]                   @ 4-byte Spill
	movs	r1, #0
	str	r1, [sp, #76]                   @ 4-byte Spill
	movs	r1, #0
	movs	r0, #1
.Ltmp102:
	str	r1, [sp, #28]                   @ 4-byte Spill
	b	.LBB0_205
.Ltmp103:
.LBB0_45:                               @   in Loop: Header=BB0_2 Depth=1
	@DEBUG_VALUE: vsnprintf_ex:q <- $r11
	@DEBUG_VALUE: vsnprintf_ex:ap <- $r10
	@DEBUG_VALUE: vsnprintf_ex:o <- $r6
	@DEBUG_VALUE: vsnprintf_ex:rank <- $r4
	@DEBUG_VALUE: vsnprintf_ex:ch <- $r3
	@DEBUG_VALUE: vsnprintf_ex:p <- $r2
	@DEBUG_VALUE: vsnprintf_ex:state <- $r0
	@DEBUG_VALUE: vsnprintf_ex:val <- [DW_OP_plus_uconst 12, DW_OP_LLVM_fragment 32 32] [$sp+0]
	@DEBUG_VALUE: vsnprintf_ex:val <- [DW_OP_plus_uconst 16, DW_OP_LLVM_fragment 0 32] [$sp+0]
	@DEBUG_VALUE: vsnprintf_ex:flags <- [DW_OP_plus_uconst 28] [$sp+0]
	@DEBUG_VALUE: vsnprintf_ex:width <- [DW_OP_plus_uconst 76] [$sp+0]
	movs	r0, #4
.Ltmp104:
.LBB0_46:                               @   in Loop: Header=BB0_2 Depth=1
	@DEBUG_VALUE: vsnprintf_ex:q <- $r11
	@DEBUG_VALUE: vsnprintf_ex:ap <- $r10
	@DEBUG_VALUE: vsnprintf_ex:o <- $r6
	@DEBUG_VALUE: vsnprintf_ex:ch <- $r3
	@DEBUG_VALUE: vsnprintf_ex:val <- [DW_OP_plus_uconst 12, DW_OP_LLVM_fragment 32 32] [$sp+0]
	@DEBUG_VALUE: vsnprintf_ex:val <- [DW_OP_plus_uconst 16, DW_OP_LLVM_fragment 0 32] [$sp+0]
	@DEBUG_VALUE: vsnprintf_ex:flags <- [DW_OP_plus_uconst 28] [$sp+0]
	@DEBUG_VALUE: vsnprintf_ex:width <- [DW_OP_plus_uconst 76] [$sp+0]
	movs	r1, #1
.Ltmp105:
.LBB0_47:                               @   in Loop: Header=BB0_2 Depth=1
	@DEBUG_VALUE: vsnprintf_ex:q <- $r11
	@DEBUG_VALUE: vsnprintf_ex:ap <- $r10
	@DEBUG_VALUE: vsnprintf_ex:o <- $r6
	@DEBUG_VALUE: vsnprintf_ex:ch <- $r3
	@DEBUG_VALUE: vsnprintf_ex:val <- [DW_OP_plus_uconst 12, DW_OP_LLVM_fragment 32 32] [$sp+0]
	@DEBUG_VALUE: vsnprintf_ex:val <- [DW_OP_plus_uconst 16, DW_OP_LLVM_fragment 0 32] [$sp+0]
	@DEBUG_VALUE: vsnprintf_ex:flags <- [DW_OP_plus_uconst 28] [$sp+0]
	@DEBUG_VALUE: vsnprintf_ex:width <- [DW_OP_plus_uconst 76] [$sp+0]
	str	r1, [sp, #68]                   @ 4-byte Spill
	b	.LBB0_205
.Ltmp106:
.LBB0_48:                               @   in Loop: Header=BB0_2 Depth=1
	@DEBUG_VALUE: vsnprintf_ex:q <- $r11
	@DEBUG_VALUE: vsnprintf_ex:ap <- $r10
	@DEBUG_VALUE: vsnprintf_ex:o <- $r6
	@DEBUG_VALUE: vsnprintf_ex:ch <- $r3
	@DEBUG_VALUE: vsnprintf_ex:rank <- $r2
	@DEBUG_VALUE: vsnprintf_ex:val <- [DW_OP_plus_uconst 12, DW_OP_LLVM_fragment 32 32] [$sp+0]
	@DEBUG_VALUE: vsnprintf_ex:val <- [DW_OP_plus_uconst 16, DW_OP_LLVM_fragment 0 32] [$sp+0]
	@DEBUG_VALUE: vsnprintf_ex:flags <- [DW_OP_plus_uconst 28] [$sp+0]
	@DEBUG_VALUE: vsnprintf_ex:width <- [DW_OP_plus_uconst 76] [$sp+0]
	@DEBUG_VALUE: vsnprintf_ex:state <- 0
	.loc	1 378 5 is_stmt 1               @ ../../../components/platform/soc/rt582/rt582_dongle/dongle/src/vprint.c:378:5
	cmp	r3, #88
	beq.w	.LBB0_96
.Ltmp107:
@ %bb.49:                               @   in Loop: Header=BB0_2 Depth=1
	@DEBUG_VALUE: vsnprintf_ex:q <- $r11
	@DEBUG_VALUE: vsnprintf_ex:ap <- $r10
	@DEBUG_VALUE: vsnprintf_ex:o <- $r6
	@DEBUG_VALUE: vsnprintf_ex:ch <- $r3
	@DEBUG_VALUE: vsnprintf_ex:rank <- $r2
	@DEBUG_VALUE: vsnprintf_ex:val <- [DW_OP_plus_uconst 12, DW_OP_LLVM_fragment 32 32] [$sp+0]
	@DEBUG_VALUE: vsnprintf_ex:val <- [DW_OP_plus_uconst 16, DW_OP_LLVM_fragment 0 32] [$sp+0]
	@DEBUG_VALUE: vsnprintf_ex:flags <- [DW_OP_plus_uconst 28] [$sp+0]
	@DEBUG_VALUE: vsnprintf_ex:width <- [DW_OP_plus_uconst 76] [$sp+0]
	@DEBUG_VALUE: vsnprintf_ex:state <- 0
	cmp	r3, #80
	bne	.LBB0_65
.Ltmp108:
@ %bb.50:                               @   in Loop: Header=BB0_2 Depth=1
	@DEBUG_VALUE: vsnprintf_ex:q <- $r11
	@DEBUG_VALUE: vsnprintf_ex:ap <- $r10
	@DEBUG_VALUE: vsnprintf_ex:o <- $r6
	@DEBUG_VALUE: vsnprintf_ex:ch <- $r3
	@DEBUG_VALUE: vsnprintf_ex:rank <- $r2
	@DEBUG_VALUE: vsnprintf_ex:val <- [DW_OP_plus_uconst 12, DW_OP_LLVM_fragment 32 32] [$sp+0]
	@DEBUG_VALUE: vsnprintf_ex:val <- [DW_OP_plus_uconst 16, DW_OP_LLVM_fragment 0 32] [$sp+0]
	@DEBUG_VALUE: vsnprintf_ex:flags <- [DW_OP_plus_uconst 28] [$sp+0]
	@DEBUG_VALUE: vsnprintf_ex:width <- [DW_OP_plus_uconst 76] [$sp+0]
	@DEBUG_VALUE: vsnprintf_ex:state <- 0
	.loc	1 0 5 is_stmt 0                 @ ../../../components/platform/soc/rt582/rt582_dongle/dongle/src/vprint.c:0:5
	ldr	r0, [sp, #28]                   @ 4-byte Reload
	str	r2, [sp, #68]                   @ 4-byte Spill
.Ltmp109:
	@DEBUG_VALUE: vsnprintf_ex:rank <- [DW_OP_plus_uconst 68] [$sp+0]
	@DEBUG_VALUE: vsnprintf_ex:rank <- [DW_OP_plus_uconst 68] [$sp+0]
	.loc	1 380 12 is_stmt 1              @ ../../../components/platform/soc/rt582/rt582_dongle/dongle/src/vprint.c:380:12
	orr	r0, r0, #128
.Ltmp110:
	@DEBUG_VALUE: vsnprintf_ex:flags <- $r0
	.loc	1 0 12 is_stmt 0                @ ../../../components/platform/soc/rt582/rt582_dongle/dongle/src/vprint.c:0:12
	b	.LBB0_76
.Ltmp111:
.LBB0_51:                               @   in Loop: Header=BB0_2 Depth=1
	@DEBUG_VALUE: vsnprintf_ex:q <- $r11
	@DEBUG_VALUE: vsnprintf_ex:ap <- $r10
	@DEBUG_VALUE: vsnprintf_ex:o <- $r6
	@DEBUG_VALUE: vsnprintf_ex:rank <- $r4
	@DEBUG_VALUE: vsnprintf_ex:ch <- $r3
	@DEBUG_VALUE: vsnprintf_ex:val <- [DW_OP_plus_uconst 12, DW_OP_LLVM_fragment 32 32] [$sp+0]
	@DEBUG_VALUE: vsnprintf_ex:val <- [DW_OP_plus_uconst 16, DW_OP_LLVM_fragment 0 32] [$sp+0]
	@DEBUG_VALUE: vsnprintf_ex:flags <- [DW_OP_plus_uconst 28] [$sp+0]
	@DEBUG_VALUE: vsnprintf_ex:width <- [DW_OP_plus_uconst 76] [$sp+0]
	.loc	1 364 10 is_stmt 1              @ ../../../components/platform/soc/rt582/rt582_dongle/dongle/src/vprint.c:364:10
	adds	r0, r4, #2
.Ltmp112:
	@DEBUG_VALUE: vsnprintf_ex:rank <- $r0
	.loc	1 0 10 is_stmt 0                @ ../../../components/platform/soc/rt582/rt582_dongle/dongle/src/vprint.c:0:10
	b	.LBB0_64
.Ltmp113:
.LBB0_52:                               @   in Loop: Header=BB0_2 Depth=1
	@DEBUG_VALUE: vsnprintf_ex:q <- $r11
	@DEBUG_VALUE: vsnprintf_ex:ap <- $r10
	@DEBUG_VALUE: vsnprintf_ex:o <- $r6
	@DEBUG_VALUE: vsnprintf_ex:rank <- $r4
	@DEBUG_VALUE: vsnprintf_ex:ch <- $r3
	@DEBUG_VALUE: vsnprintf_ex:p <- $r2
	@DEBUG_VALUE: vsnprintf_ex:state <- $r0
	@DEBUG_VALUE: vsnprintf_ex:val <- [DW_OP_plus_uconst 12, DW_OP_LLVM_fragment 32 32] [$sp+0]
	@DEBUG_VALUE: vsnprintf_ex:val <- [DW_OP_plus_uconst 16, DW_OP_LLVM_fragment 0 32] [$sp+0]
	@DEBUG_VALUE: vsnprintf_ex:flags <- [DW_OP_plus_uconst 28] [$sp+0]
	@DEBUG_VALUE: vsnprintf_ex:width <- [DW_OP_plus_uconst 76] [$sp+0]
	.loc	1 287 4 is_stmt 1               @ ../../../components/platform/soc/rt582/rt582_dongle/dongle/src/vprint.c:287:4
	sub.w	r1, r3, #39
	cmp	r1, #9
	mov.w	r0, #2
.Ltmp114:
	bhi.w	.LBB0_124
.Ltmp115:
@ %bb.53:                               @   in Loop: Header=BB0_2 Depth=1
	@DEBUG_VALUE: vsnprintf_ex:q <- $r11
	@DEBUG_VALUE: vsnprintf_ex:ap <- $r10
	@DEBUG_VALUE: vsnprintf_ex:o <- $r6
	@DEBUG_VALUE: vsnprintf_ex:rank <- $r4
	@DEBUG_VALUE: vsnprintf_ex:ch <- $r3
	@DEBUG_VALUE: vsnprintf_ex:p <- $r2
	@DEBUG_VALUE: vsnprintf_ex:val <- [DW_OP_plus_uconst 12, DW_OP_LLVM_fragment 32 32] [$sp+0]
	@DEBUG_VALUE: vsnprintf_ex:val <- [DW_OP_plus_uconst 16, DW_OP_LLVM_fragment 0 32] [$sp+0]
	@DEBUG_VALUE: vsnprintf_ex:flags <- [DW_OP_plus_uconst 28] [$sp+0]
	@DEBUG_VALUE: vsnprintf_ex:width <- [DW_OP_plus_uconst 76] [$sp+0]
	.loc	1 0 0 is_stmt 0                 @ ../../../components/platform/soc/rt582/rt582_dongle/dongle/src/vprint.c:0:0
	str	r4, [sp, #68]                   @ 4-byte Spill
.LCPI0_6:
	tbh	[pc, r1, lsl #1]
.Ltmp116:
@ %bb.54:
.LJTI0_6:
	.short	(.LBB0_55-(.LCPI0_6+4))/2
	.short	(.LBB0_206-(.LCPI0_6+4))/2
	.short	(.LBB0_206-(.LCPI0_6+4))/2
	.short	(.LBB0_206-(.LCPI0_6+4))/2
	.short	(.LBB0_199-(.LCPI0_6+4))/2
	.short	(.LBB0_206-(.LCPI0_6+4))/2
	.short	(.LBB0_200-(.LCPI0_6+4))/2
	.short	(.LBB0_206-(.LCPI0_6+4))/2
	.short	(.LBB0_206-(.LCPI0_6+4))/2
	.short	(.LBB0_201-(.LCPI0_6+4))/2
	.p2align	1
.LBB0_55:                               @   in Loop: Header=BB0_2 Depth=1
.Ltmp117:
	@DEBUG_VALUE: vsnprintf_ex:q <- $r11
	@DEBUG_VALUE: vsnprintf_ex:ap <- $r10
	@DEBUG_VALUE: vsnprintf_ex:o <- $r6
	@DEBUG_VALUE: vsnprintf_ex:rank <- $r4
	@DEBUG_VALUE: vsnprintf_ex:p <- $r2
	@DEBUG_VALUE: vsnprintf_ex:val <- [DW_OP_plus_uconst 12, DW_OP_LLVM_fragment 32 32] [$sp+0]
	@DEBUG_VALUE: vsnprintf_ex:val <- [DW_OP_plus_uconst 16, DW_OP_LLVM_fragment 0 32] [$sp+0]
	@DEBUG_VALUE: vsnprintf_ex:flags <- [DW_OP_plus_uconst 28] [$sp+0]
	@DEBUG_VALUE: vsnprintf_ex:width <- [DW_OP_plus_uconst 76] [$sp+0]
	.loc	1 295 11 is_stmt 1              @ ../../../components/platform/soc/rt582/rt582_dongle/dongle/src/vprint.c:295:11
	ldr	r0, [sp, #28]                   @ 4-byte Reload
	orr	r0, r0, #8
.Ltmp118:
	@DEBUG_VALUE: vsnprintf_ex:flags <- $r0
	.loc	1 0 11 is_stmt 0                @ ../../../components/platform/soc/rt582/rt582_dongle/dongle/src/vprint.c:0:11
	b	.LBB0_203
.Ltmp119:
.LBB0_56:                               @   in Loop: Header=BB0_2 Depth=1
	@DEBUG_VALUE: vsnprintf_ex:q <- $r11
	@DEBUG_VALUE: vsnprintf_ex:ap <- $r10
	@DEBUG_VALUE: vsnprintf_ex:o <- $r6
	@DEBUG_VALUE: vsnprintf_ex:rank <- $r4
	@DEBUG_VALUE: vsnprintf_ex:ch <- $r3
	@DEBUG_VALUE: vsnprintf_ex:p <- $r2
	@DEBUG_VALUE: vsnprintf_ex:state <- $r0
	@DEBUG_VALUE: vsnprintf_ex:val <- [DW_OP_plus_uconst 12, DW_OP_LLVM_fragment 32 32] [$sp+0]
	@DEBUG_VALUE: vsnprintf_ex:val <- [DW_OP_plus_uconst 16, DW_OP_LLVM_fragment 0 32] [$sp+0]
	@DEBUG_VALUE: vsnprintf_ex:flags <- [DW_OP_plus_uconst 28] [$sp+0]
	@DEBUG_VALUE: vsnprintf_ex:width <- [DW_OP_plus_uconst 76] [$sp+0]
	.loc	1 314 18 is_stmt 1              @ ../../../components/platform/soc/rt582/rt582_dongle/dongle/src/vprint.c:314:18
	sub.w	r0, r3, #48
.Ltmp120:
	cmp	r0, #9
	bhi.w	.LBB0_103
.Ltmp121:
@ %bb.57:                               @   in Loop: Header=BB0_2 Depth=1
	@DEBUG_VALUE: vsnprintf_ex:q <- $r11
	@DEBUG_VALUE: vsnprintf_ex:ap <- $r10
	@DEBUG_VALUE: vsnprintf_ex:o <- $r6
	@DEBUG_VALUE: vsnprintf_ex:rank <- $r4
	@DEBUG_VALUE: vsnprintf_ex:ch <- $r3
	@DEBUG_VALUE: vsnprintf_ex:p <- $r2
	@DEBUG_VALUE: vsnprintf_ex:val <- [DW_OP_plus_uconst 12, DW_OP_LLVM_fragment 32 32] [$sp+0]
	@DEBUG_VALUE: vsnprintf_ex:val <- [DW_OP_plus_uconst 16, DW_OP_LLVM_fragment 0 32] [$sp+0]
	@DEBUG_VALUE: vsnprintf_ex:flags <- [DW_OP_plus_uconst 28] [$sp+0]
	@DEBUG_VALUE: vsnprintf_ex:width <- [DW_OP_plus_uconst 76] [$sp+0]
	.loc	1 315 19                        @ ../../../components/platform/soc/rt582/rt582_dongle/dongle/src/vprint.c:315:19
	ldr	r0, [sp, #76]                   @ 4-byte Reload
	add.w	r0, r0, r0, lsl #2
	.loc	1 315 30 is_stmt 0              @ ../../../components/platform/soc/rt582/rt582_dongle/dongle/src/vprint.c:315:30
	add.w	r0, r3, r0, lsl #1
	.loc	1 315 24                        @ ../../../components/platform/soc/rt582/rt582_dongle/dongle/src/vprint.c:315:24
	subs	r0, #48
.Ltmp122:
	@DEBUG_VALUE: vsnprintf_ex:width <- $r0
.LBB0_58:                               @   in Loop: Header=BB0_2 Depth=1
	@DEBUG_VALUE: vsnprintf_ex:q <- $r11
	@DEBUG_VALUE: vsnprintf_ex:ap <- $r10
	@DEBUG_VALUE: vsnprintf_ex:o <- $r6
	@DEBUG_VALUE: vsnprintf_ex:rank <- $r4
	@DEBUG_VALUE: vsnprintf_ex:ch <- $r3
	@DEBUG_VALUE: vsnprintf_ex:p <- $r2
	@DEBUG_VALUE: vsnprintf_ex:width <- $r0
	@DEBUG_VALUE: vsnprintf_ex:val <- [DW_OP_plus_uconst 12, DW_OP_LLVM_fragment 32 32] [$sp+0]
	@DEBUG_VALUE: vsnprintf_ex:val <- [DW_OP_plus_uconst 16, DW_OP_LLVM_fragment 0 32] [$sp+0]
	@DEBUG_VALUE: vsnprintf_ex:flags <- [DW_OP_plus_uconst 28] [$sp+0]
	.loc	1 0 24                          @ ../../../components/platform/soc/rt582/rt582_dongle/dongle/src/vprint.c:0:24
	str	r0, [sp, #76]                   @ 4-byte Spill
.Ltmp123:
	@DEBUG_VALUE: vsnprintf_ex:width <- [DW_OP_plus_uconst 76] [$sp+0]
	@DEBUG_VALUE: vsnprintf_ex:width <- [DW_OP_plus_uconst 76] [$sp+0]
.LBB0_59:                               @   in Loop: Header=BB0_2 Depth=1
	@DEBUG_VALUE: vsnprintf_ex:q <- $r11
	@DEBUG_VALUE: vsnprintf_ex:ap <- $r10
	@DEBUG_VALUE: vsnprintf_ex:o <- $r6
	@DEBUG_VALUE: vsnprintf_ex:rank <- $r4
	@DEBUG_VALUE: vsnprintf_ex:ch <- $r3
	@DEBUG_VALUE: vsnprintf_ex:p <- $r2
	@DEBUG_VALUE: vsnprintf_ex:val <- [DW_OP_plus_uconst 12, DW_OP_LLVM_fragment 32 32] [$sp+0]
	@DEBUG_VALUE: vsnprintf_ex:val <- [DW_OP_plus_uconst 16, DW_OP_LLVM_fragment 0 32] [$sp+0]
	@DEBUG_VALUE: vsnprintf_ex:flags <- [DW_OP_plus_uconst 28] [$sp+0]
	movs	r0, #2
	b	.LBB0_204
.Ltmp124:
.LBB0_60:                               @   in Loop: Header=BB0_2 Depth=1
	@DEBUG_VALUE: vsnprintf_ex:q <- $r11
	@DEBUG_VALUE: vsnprintf_ex:ap <- $r10
	@DEBUG_VALUE: vsnprintf_ex:o <- $r6
	@DEBUG_VALUE: vsnprintf_ex:rank <- $r4
	@DEBUG_VALUE: vsnprintf_ex:ch <- $r3
	@DEBUG_VALUE: vsnprintf_ex:p <- $r2
	@DEBUG_VALUE: vsnprintf_ex:state <- $r0
	@DEBUG_VALUE: vsnprintf_ex:val <- [DW_OP_plus_uconst 12, DW_OP_LLVM_fragment 32 32] [$sp+0]
	@DEBUG_VALUE: vsnprintf_ex:val <- [DW_OP_plus_uconst 16, DW_OP_LLVM_fragment 0 32] [$sp+0]
	@DEBUG_VALUE: vsnprintf_ex:flags <- [DW_OP_plus_uconst 28] [$sp+0]
	@DEBUG_VALUE: vsnprintf_ex:width <- [DW_OP_plus_uconst 76] [$sp+0]
	.loc	1 332 18 is_stmt 1              @ ../../../components/platform/soc/rt582/rt582_dongle/dongle/src/vprint.c:332:18
	sub.w	r0, r3, #48
.Ltmp125:
	cmp	r0, #9
	bhi.w	.LBB0_107
.Ltmp126:
@ %bb.61:                               @   in Loop: Header=BB0_2 Depth=1
	@DEBUG_VALUE: vsnprintf_ex:q <- $r11
	@DEBUG_VALUE: vsnprintf_ex:ap <- $r10
	@DEBUG_VALUE: vsnprintf_ex:o <- $r6
	@DEBUG_VALUE: vsnprintf_ex:rank <- $r4
	@DEBUG_VALUE: vsnprintf_ex:ch <- $r3
	@DEBUG_VALUE: vsnprintf_ex:p <- $r2
	@DEBUG_VALUE: vsnprintf_ex:val <- [DW_OP_plus_uconst 12, DW_OP_LLVM_fragment 32 32] [$sp+0]
	@DEBUG_VALUE: vsnprintf_ex:val <- [DW_OP_plus_uconst 16, DW_OP_LLVM_fragment 0 32] [$sp+0]
	@DEBUG_VALUE: vsnprintf_ex:flags <- [DW_OP_plus_uconst 28] [$sp+0]
	@DEBUG_VALUE: vsnprintf_ex:width <- [DW_OP_plus_uconst 76] [$sp+0]
	.loc	1 333 17                        @ ../../../components/platform/soc/rt582/rt582_dongle/dongle/src/vprint.c:333:17
	ldr	r0, [sp, #36]                   @ 4-byte Reload
	add.w	r0, r0, r0, lsl #2
	.loc	1 333 28 is_stmt 0              @ ../../../components/platform/soc/rt582/rt582_dongle/dongle/src/vprint.c:333:28
	add.w	r0, r3, r0, lsl #1
	.loc	1 333 22                        @ ../../../components/platform/soc/rt582/rt582_dongle/dongle/src/vprint.c:333:22
	subs	r0, #48
.Ltmp127:
	@DEBUG_VALUE: vsnprintf_ex:prec <- $r0
	.loc	1 0 22                          @ ../../../components/platform/soc/rt582/rt582_dongle/dongle/src/vprint.c:0:22
	b	.LBB0_109
.Ltmp128:
.LBB0_62:                               @   in Loop: Header=BB0_2 Depth=1
	@DEBUG_VALUE: vsnprintf_ex:q <- $r11
	@DEBUG_VALUE: vsnprintf_ex:ap <- $r10
	@DEBUG_VALUE: vsnprintf_ex:o <- $r6
	@DEBUG_VALUE: vsnprintf_ex:rank <- $r4
	@DEBUG_VALUE: vsnprintf_ex:ch <- $r3
	@DEBUG_VALUE: vsnprintf_ex:val <- [DW_OP_plus_uconst 12, DW_OP_LLVM_fragment 32 32] [$sp+0]
	@DEBUG_VALUE: vsnprintf_ex:val <- [DW_OP_plus_uconst 16, DW_OP_LLVM_fragment 0 32] [$sp+0]
	@DEBUG_VALUE: vsnprintf_ex:flags <- [DW_OP_plus_uconst 28] [$sp+0]
	@DEBUG_VALUE: vsnprintf_ex:width <- [DW_OP_plus_uconst 76] [$sp+0]
	.loc	1 348 9 is_stmt 1               @ ../../../components/platform/soc/rt582/rt582_dongle/dongle/src/vprint.c:348:9
	subs	r0, r4, #1
.Ltmp129:
	@DEBUG_VALUE: vsnprintf_ex:rank <- $r0
	.loc	1 0 9 is_stmt 0                 @ ../../../components/platform/soc/rt582/rt582_dongle/dongle/src/vprint.c:0:9
	b	.LBB0_64
.Ltmp130:
.LBB0_63:                               @   in Loop: Header=BB0_2 Depth=1
	@DEBUG_VALUE: vsnprintf_ex:q <- $r11
	@DEBUG_VALUE: vsnprintf_ex:ap <- $r10
	@DEBUG_VALUE: vsnprintf_ex:o <- $r6
	@DEBUG_VALUE: vsnprintf_ex:rank <- $r4
	@DEBUG_VALUE: vsnprintf_ex:ch <- $r3
	@DEBUG_VALUE: vsnprintf_ex:val <- [DW_OP_plus_uconst 12, DW_OP_LLVM_fragment 32 32] [$sp+0]
	@DEBUG_VALUE: vsnprintf_ex:val <- [DW_OP_plus_uconst 16, DW_OP_LLVM_fragment 0 32] [$sp+0]
	@DEBUG_VALUE: vsnprintf_ex:flags <- [DW_OP_plus_uconst 28] [$sp+0]
	@DEBUG_VALUE: vsnprintf_ex:width <- [DW_OP_plus_uconst 76] [$sp+0]
	.loc	1 351 9 is_stmt 1               @ ../../../components/platform/soc/rt582/rt582_dongle/dongle/src/vprint.c:351:9
	adds	r0, r4, #1
.Ltmp131:
	@DEBUG_VALUE: vsnprintf_ex:rank <- $r0
.LBB0_64:                               @   in Loop: Header=BB0_2 Depth=1
	@DEBUG_VALUE: vsnprintf_ex:q <- $r11
	@DEBUG_VALUE: vsnprintf_ex:ap <- $r10
	@DEBUG_VALUE: vsnprintf_ex:o <- $r6
	@DEBUG_VALUE: vsnprintf_ex:ch <- $r3
	@DEBUG_VALUE: vsnprintf_ex:rank <- $r0
	@DEBUG_VALUE: vsnprintf_ex:val <- [DW_OP_plus_uconst 12, DW_OP_LLVM_fragment 32 32] [$sp+0]
	@DEBUG_VALUE: vsnprintf_ex:val <- [DW_OP_plus_uconst 16, DW_OP_LLVM_fragment 0 32] [$sp+0]
	@DEBUG_VALUE: vsnprintf_ex:flags <- [DW_OP_plus_uconst 28] [$sp+0]
	@DEBUG_VALUE: vsnprintf_ex:width <- [DW_OP_plus_uconst 76] [$sp+0]
	.loc	1 0 9 is_stmt 0                 @ ../../../components/platform/soc/rt582/rt582_dongle/dongle/src/vprint.c:0:9
	str	r0, [sp, #68]                   @ 4-byte Spill
.Ltmp132:
	@DEBUG_VALUE: vsnprintf_ex:rank <- [DW_OP_plus_uconst 68] [$sp+0]
	@DEBUG_VALUE: vsnprintf_ex:rank <- [DW_OP_plus_uconst 68] [$sp+0]
	@DEBUG_VALUE: vsnprintf_ex:rank <- [DW_OP_plus_uconst 68] [$sp+0]
	movs	r0, #4
	b	.LBB0_205
.Ltmp133:
.LBB0_65:                               @   in Loop: Header=BB0_2 Depth=1
	@DEBUG_VALUE: vsnprintf_ex:q <- $r11
	@DEBUG_VALUE: vsnprintf_ex:ap <- $r10
	@DEBUG_VALUE: vsnprintf_ex:o <- $r6
	@DEBUG_VALUE: vsnprintf_ex:ch <- $r3
	@DEBUG_VALUE: vsnprintf_ex:rank <- $r2
	@DEBUG_VALUE: vsnprintf_ex:val <- [DW_OP_plus_uconst 12, DW_OP_LLVM_fragment 32 32] [$sp+0]
	@DEBUG_VALUE: vsnprintf_ex:val <- [DW_OP_plus_uconst 16, DW_OP_LLVM_fragment 0 32] [$sp+0]
	@DEBUG_VALUE: vsnprintf_ex:flags <- [DW_OP_plus_uconst 28] [$sp+0]
	@DEBUG_VALUE: vsnprintf_ex:width <- [DW_OP_plus_uconst 76] [$sp+0]
	@DEBUG_VALUE: vsnprintf_ex:state <- 0
	.loc	1 563 6 is_stmt 1               @ ../../../components/platform/soc/rt582/rt582_dongle/dongle/src/vprint.c:563:6
	cmp	r6, r9
	str	r2, [sp, #68]                   @ 4-byte Spill
.Ltmp134:
	@DEBUG_VALUE: vsnprintf_ex:rank <- [DW_OP_plus_uconst 68] [$sp+0]
	@DEBUG_VALUE: vsnprintf_ex:rank <- [DW_OP_plus_uconst 68] [$sp+0]
	bhs	.LBB0_67
.Ltmp135:
@ %bb.66:                               @   in Loop: Header=BB0_2 Depth=1
	@DEBUG_VALUE: vsnprintf_ex:rank <- [DW_OP_plus_uconst 68] [$sp+0]
	@DEBUG_VALUE: vsnprintf_ex:q <- $r11
	@DEBUG_VALUE: vsnprintf_ex:ap <- $r10
	@DEBUG_VALUE: vsnprintf_ex:o <- $r6
	@DEBUG_VALUE: vsnprintf_ex:ch <- $r3
	@DEBUG_VALUE: vsnprintf_ex:val <- [DW_OP_plus_uconst 12, DW_OP_LLVM_fragment 32 32] [$sp+0]
	@DEBUG_VALUE: vsnprintf_ex:val <- [DW_OP_plus_uconst 16, DW_OP_LLVM_fragment 0 32] [$sp+0]
	@DEBUG_VALUE: vsnprintf_ex:flags <- [DW_OP_plus_uconst 28] [$sp+0]
	@DEBUG_VALUE: vsnprintf_ex:width <- [DW_OP_plus_uconst 76] [$sp+0]
	@DEBUG_VALUE: vsnprintf_ex:state <- 0
	.loc	1 563 6 is_stmt 0               @ ../../../components/platform/soc/rt582/rt582_dongle/dongle/src/vprint.c:563:6
	mov	r0, r3
	mov	r1, r8
	bl	putc
.Ltmp136:
	add.w	r11, r11, #1
.Ltmp137:
	@DEBUG_VALUE: vsnprintf_ex:buffer <- [DW_OP_LLVM_entry_value 1] $r0
	@DEBUG_VALUE: vsnprintf_ex:q <- $r11
.LBB0_67:                               @   in Loop: Header=BB0_2 Depth=1
	@DEBUG_VALUE: vsnprintf_ex:rank <- [DW_OP_plus_uconst 68] [$sp+0]
	@DEBUG_VALUE: vsnprintf_ex:q <- $r11
	@DEBUG_VALUE: vsnprintf_ex:ap <- $r10
	@DEBUG_VALUE: vsnprintf_ex:o <- $r6
	@DEBUG_VALUE: vsnprintf_ex:val <- [DW_OP_plus_uconst 12, DW_OP_LLVM_fragment 32 32] [$sp+0]
	@DEBUG_VALUE: vsnprintf_ex:val <- [DW_OP_plus_uconst 16, DW_OP_LLVM_fragment 0 32] [$sp+0]
	@DEBUG_VALUE: vsnprintf_ex:flags <- [DW_OP_plus_uconst 28] [$sp+0]
	@DEBUG_VALUE: vsnprintf_ex:width <- [DW_OP_plus_uconst 76] [$sp+0]
	@DEBUG_VALUE: vsnprintf_ex:state <- 0
	@DEBUG_VALUE: vsnprintf_ex:q <- $r11
	.loc	1 563 6                         @ ../../../components/platform/soc/rt582/rt582_dongle/dongle/src/vprint.c:563:6
	adds	r6, #1
.Ltmp138:
	@DEBUG_VALUE: vsnprintf_ex:o <- $r6
.LBB0_68:                               @   in Loop: Header=BB0_2 Depth=1
	@DEBUG_VALUE: vsnprintf_ex:q <- $r11
	@DEBUG_VALUE: vsnprintf_ex:ap <- $r10
	@DEBUG_VALUE: vsnprintf_ex:o <- $r6
	@DEBUG_VALUE: vsnprintf_ex:val <- [DW_OP_plus_uconst 12, DW_OP_LLVM_fragment 32 32] [$sp+0]
	@DEBUG_VALUE: vsnprintf_ex:val <- [DW_OP_plus_uconst 16, DW_OP_LLVM_fragment 0 32] [$sp+0]
	@DEBUG_VALUE: vsnprintf_ex:flags <- [DW_OP_plus_uconst 28] [$sp+0]
	@DEBUG_VALUE: vsnprintf_ex:width <- [DW_OP_plus_uconst 76] [$sp+0]
	@DEBUG_VALUE: vsnprintf_ex:state <- 0
	.loc	1 0 6                           @ ../../../components/platform/soc/rt582/rt582_dongle/dongle/src/vprint.c:0:6
	movs	r0, #0
	b	.LBB0_205
.Ltmp139:
.LBB0_69:                               @   in Loop: Header=BB0_2 Depth=1
	@DEBUG_VALUE: vsnprintf_ex:q <- $r11
	@DEBUG_VALUE: vsnprintf_ex:ap <- $r10
	@DEBUG_VALUE: vsnprintf_ex:o <- $r6
	@DEBUG_VALUE: vsnprintf_ex:ch <- $r3
	@DEBUG_VALUE: vsnprintf_ex:rank <- $r2
	@DEBUG_VALUE: vsnprintf_ex:val <- [DW_OP_plus_uconst 12, DW_OP_LLVM_fragment 32 32] [$sp+0]
	@DEBUG_VALUE: vsnprintf_ex:val <- [DW_OP_plus_uconst 16, DW_OP_LLVM_fragment 0 32] [$sp+0]
	@DEBUG_VALUE: vsnprintf_ex:flags <- [DW_OP_plus_uconst 28] [$sp+0]
	@DEBUG_VALUE: vsnprintf_ex:width <- [DW_OP_plus_uconst 76] [$sp+0]
	@DEBUG_VALUE: vsnprintf_ex:state <- 0
	@DEBUG_VALUE: vsnprintf_ex:ap <- [DW_OP_plus_uconst 4, DW_OP_stack_value] $r10
	.loc	1 478 19 is_stmt 1              @ ../../../components/platform/soc/rt582/rt582_dongle/dongle/src/vprint.c:478:19
	ldr.w	r0, [r10]
.Ltmp140:
	@DEBUG_VALUE: vsnprintf_ex:carg <- undef
	.loc	1 0 19 is_stmt 0                @ ../../../components/platform/soc/rt582/rt582_dongle/dongle/src/vprint.c:0:19
	str	r2, [sp, #68]                   @ 4-byte Spill
.Ltmp141:
	@DEBUG_VALUE: vsnprintf_ex:rank <- [DW_OP_plus_uconst 68] [$sp+0]
	@DEBUG_VALUE: vsnprintf_ex:rank <- [DW_OP_plus_uconst 68] [$sp+0]
	mov	r8, r6
.Ltmp142:
	@DEBUG_VALUE: vsnprintf_ex:o <- $r8
	@DEBUG_VALUE: vsnprintf_ex:o <- $r8
	.loc	1 478 11                        @ ../../../components/platform/soc/rt582/rt582_dongle/dongle/src/vprint.c:478:11
	strb.w	r0, [sp, #91]
	movs	r0, #1
.Ltmp143:
	@DEBUG_VALUE: vsnprintf_ex:slen <- 1
	@DEBUG_VALUE: vsnprintf_ex:sarg <- [DW_OP_plus_uconst 91, DW_OP_stack_value] $sp
	.loc	1 0 0                           @ ../../../components/platform/soc/rt582/rt582_dongle/dongle/src/vprint.c:0:0
	add.w	r6, sp, #91
	b	.LBB0_78
.Ltmp144:
.LBB0_70:                               @   in Loop: Header=BB0_2 Depth=1
	@DEBUG_VALUE: vsnprintf_ex:q <- $r11
	@DEBUG_VALUE: vsnprintf_ex:ap <- $r10
	@DEBUG_VALUE: vsnprintf_ex:o <- $r6
	@DEBUG_VALUE: vsnprintf_ex:ch <- $r3
	@DEBUG_VALUE: vsnprintf_ex:rank <- $r2
	@DEBUG_VALUE: vsnprintf_ex:val <- [DW_OP_plus_uconst 12, DW_OP_LLVM_fragment 32 32] [$sp+0]
	@DEBUG_VALUE: vsnprintf_ex:val <- [DW_OP_plus_uconst 16, DW_OP_LLVM_fragment 0 32] [$sp+0]
	@DEBUG_VALUE: vsnprintf_ex:flags <- [DW_OP_plus_uconst 28] [$sp+0]
	@DEBUG_VALUE: vsnprintf_ex:width <- [DW_OP_plus_uconst 76] [$sp+0]
	@DEBUG_VALUE: vsnprintf_ex:state <- 0
	.loc	1 525 7 is_stmt 1               @ ../../../components/platform/soc/rt582/rt582_dongle/dongle/src/vprint.c:525:7
	adds	r0, r2, #2
	cmp	r0, #4
	bhi.w	.LBB0_95
.Ltmp145:
@ %bb.71:                               @   in Loop: Header=BB0_2 Depth=1
	@DEBUG_VALUE: vsnprintf_ex:q <- $r11
	@DEBUG_VALUE: vsnprintf_ex:ap <- $r10
	@DEBUG_VALUE: vsnprintf_ex:o <- $r6
	@DEBUG_VALUE: vsnprintf_ex:ch <- $r3
	@DEBUG_VALUE: vsnprintf_ex:rank <- $r2
	@DEBUG_VALUE: vsnprintf_ex:val <- [DW_OP_plus_uconst 12, DW_OP_LLVM_fragment 32 32] [$sp+0]
	@DEBUG_VALUE: vsnprintf_ex:val <- [DW_OP_plus_uconst 16, DW_OP_LLVM_fragment 0 32] [$sp+0]
	@DEBUG_VALUE: vsnprintf_ex:flags <- [DW_OP_plus_uconst 28] [$sp+0]
	@DEBUG_VALUE: vsnprintf_ex:width <- [DW_OP_plus_uconst 76] [$sp+0]
	@DEBUG_VALUE: vsnprintf_ex:state <- 0
	.loc	1 0 7 is_stmt 0                 @ ../../../components/platform/soc/rt582/rt582_dongle/dongle/src/vprint.c:0:7
.LCPI0_7:
	tbh	[pc, r0, lsl #1]
.Ltmp146:
@ %bb.72:
.LJTI0_3:
	.short	(.LBB0_73-(.LCPI0_7+4))/2
	.short	(.LBB0_207-(.LCPI0_7+4))/2
	.short	(.LBB0_209-(.LCPI0_7+4))/2
	.short	(.LBB0_210-(.LCPI0_7+4))/2
	.short	(.LBB0_211-(.LCPI0_7+4))/2
	.p2align	1
.LBB0_73:                               @   in Loop: Header=BB0_2 Depth=1
.Ltmp147:
	@DEBUG_VALUE: vsnprintf_ex:q <- $r11
	@DEBUG_VALUE: vsnprintf_ex:ap <- $r10
	@DEBUG_VALUE: vsnprintf_ex:o <- $r6
	@DEBUG_VALUE: vsnprintf_ex:ch <- $r3
	@DEBUG_VALUE: vsnprintf_ex:rank <- $r2
	@DEBUG_VALUE: vsnprintf_ex:val <- [DW_OP_plus_uconst 12, DW_OP_LLVM_fragment 32 32] [$sp+0]
	@DEBUG_VALUE: vsnprintf_ex:val <- [DW_OP_plus_uconst 16, DW_OP_LLVM_fragment 0 32] [$sp+0]
	@DEBUG_VALUE: vsnprintf_ex:flags <- [DW_OP_plus_uconst 28] [$sp+0]
	@DEBUG_VALUE: vsnprintf_ex:width <- [DW_OP_plus_uconst 76] [$sp+0]
	@DEBUG_VALUE: vsnprintf_ex:state <- 0
	.loc	1 527 9 is_stmt 1               @ ../../../components/platform/soc/rt582/rt582_dongle/dongle/src/vprint.c:527:9
	ldr	r0, [r10], #4
.Ltmp148:
	@DEBUG_VALUE: vsnprintf_ex:ap <- $r10
	.loc	1 0 9 is_stmt 0                 @ ../../../components/platform/soc/rt582/rt582_dongle/dongle/src/vprint.c:0:9
	mvn	r1, #1
	.loc	1 529 9 is_stmt 1               @ ../../../components/platform/soc/rt582/rt582_dongle/dongle/src/vprint.c:529:9
	strb	r6, [r0]
	b	.LBB0_208
.Ltmp149:
.LBB0_74:                               @   in Loop: Header=BB0_2 Depth=1
	@DEBUG_VALUE: vsnprintf_ex:q <- $r11
	@DEBUG_VALUE: vsnprintf_ex:ap <- $r10
	@DEBUG_VALUE: vsnprintf_ex:o <- $r6
	@DEBUG_VALUE: vsnprintf_ex:ch <- $r3
	@DEBUG_VALUE: vsnprintf_ex:rank <- $r2
	@DEBUG_VALUE: vsnprintf_ex:val <- [DW_OP_plus_uconst 12, DW_OP_LLVM_fragment 32 32] [$sp+0]
	@DEBUG_VALUE: vsnprintf_ex:val <- [DW_OP_plus_uconst 16, DW_OP_LLVM_fragment 0 32] [$sp+0]
	@DEBUG_VALUE: vsnprintf_ex:flags <- [DW_OP_plus_uconst 28] [$sp+0]
	@DEBUG_VALUE: vsnprintf_ex:width <- [DW_OP_plus_uconst 76] [$sp+0]
	@DEBUG_VALUE: vsnprintf_ex:state <- 0
	.loc	1 0 9 is_stmt 0                 @ ../../../components/platform/soc/rt582/rt582_dongle/dongle/src/vprint.c:0:9
	movs	r3, #8
.Ltmp150:
	b	.LBB0_98
.Ltmp151:
.LBB0_75:                               @   in Loop: Header=BB0_2 Depth=1
	@DEBUG_VALUE: vsnprintf_ex:q <- $r11
	@DEBUG_VALUE: vsnprintf_ex:ap <- $r10
	@DEBUG_VALUE: vsnprintf_ex:o <- $r6
	@DEBUG_VALUE: vsnprintf_ex:ch <- $r3
	@DEBUG_VALUE: vsnprintf_ex:rank <- $r2
	@DEBUG_VALUE: vsnprintf_ex:val <- [DW_OP_plus_uconst 12, DW_OP_LLVM_fragment 32 32] [$sp+0]
	@DEBUG_VALUE: vsnprintf_ex:val <- [DW_OP_plus_uconst 16, DW_OP_LLVM_fragment 0 32] [$sp+0]
	@DEBUG_VALUE: vsnprintf_ex:flags <- [DW_OP_plus_uconst 28] [$sp+0]
	@DEBUG_VALUE: vsnprintf_ex:width <- [DW_OP_plus_uconst 76] [$sp+0]
	@DEBUG_VALUE: vsnprintf_ex:state <- 0
	ldr	r0, [sp, #28]                   @ 4-byte Reload
	str	r2, [sp, #68]                   @ 4-byte Spill
.Ltmp152:
	@DEBUG_VALUE: vsnprintf_ex:rank <- [DW_OP_plus_uconst 68] [$sp+0]
	@DEBUG_VALUE: vsnprintf_ex:rank <- [DW_OP_plus_uconst 68] [$sp+0]
.LBB0_76:                               @   in Loop: Header=BB0_2 Depth=1
	@DEBUG_VALUE: vsnprintf_ex:rank <- [DW_OP_plus_uconst 68] [$sp+0]
	@DEBUG_VALUE: vsnprintf_ex:q <- $r11
	@DEBUG_VALUE: vsnprintf_ex:ap <- $r10
	@DEBUG_VALUE: vsnprintf_ex:o <- $r6
	@DEBUG_VALUE: vsnprintf_ex:ch <- $r3
	@DEBUG_VALUE: vsnprintf_ex:val <- [DW_OP_plus_uconst 12, DW_OP_LLVM_fragment 32 32] [$sp+0]
	@DEBUG_VALUE: vsnprintf_ex:val <- [DW_OP_plus_uconst 16, DW_OP_LLVM_fragment 0 32] [$sp+0]
	@DEBUG_VALUE: vsnprintf_ex:width <- [DW_OP_plus_uconst 76] [$sp+0]
	@DEBUG_VALUE: vsnprintf_ex:state <- 0
	@DEBUG_VALUE: vsnprintf_ex:prec <- 8
	@DEBUG_VALUE: vsnprintf_ex:flags <- $r0
	@DEBUG_VALUE: vsnprintf_ex:base <- 16
	.loc	1 386 12 is_stmt 1              @ ../../../components/platform/soc/rt582/rt582_dongle/dongle/src/vprint.c:386:12
	orr	r0, r0, #32
.Ltmp153:
	@DEBUG_VALUE: vsnprintf_ex:flags <- $r0
	.loc	1 0 12 is_stmt 0                @ ../../../components/platform/soc/rt582/rt582_dongle/dongle/src/vprint.c:0:12
	str	r0, [sp, #28]                   @ 4-byte Spill
.Ltmp154:
	@DEBUG_VALUE: vsnprintf_ex:flags <- [DW_OP_plus_uconst 28] [$sp+0]
	@DEBUG_VALUE: vsnprintf_ex:flags <- [DW_OP_plus_uconst 28] [$sp+0]
	@DEBUG_VALUE: vsnprintf_ex:flags <- [DW_OP_plus_uconst 28] [$sp+0]
	movs	r0, #16
	.loc	1 388 7 is_stmt 1               @ ../../../components/platform/soc/rt582/rt582_dongle/dongle/src/vprint.c:388:7
	ldr	r3, [r10], #4
.Ltmp155:
	@DEBUG_VALUE: vsnprintf_ex:ap <- $r10
	.loc	1 0 7 is_stmt 0                 @ ../../../components/platform/soc/rt582/rt582_dongle/dongle/src/vprint.c:0:7
	str	r0, [sp, #80]                   @ 4-byte Spill
	movs	r0, #8
.Ltmp156:
	@DEBUG_VALUE: vsnprintf_ex:val <- [DW_OP_LLVM_fragment 0 32] $r3
	movs	r7, #0
.Ltmp157:
	@DEBUG_VALUE: vsnprintf_ex:val <- [DW_OP_LLVM_fragment 32 32] $r7
	.loc	1 389 6 is_stmt 1               @ ../../../components/platform/soc/rt582/rt582_dongle/dongle/src/vprint.c:389:6
	str	r0, [sp, #36]                   @ 4-byte Spill
	b	.LBB0_139
.Ltmp158:
.LBB0_77:                               @   in Loop: Header=BB0_2 Depth=1
	@DEBUG_VALUE: vsnprintf_ex:q <- $r11
	@DEBUG_VALUE: vsnprintf_ex:ap <- $r10
	@DEBUG_VALUE: vsnprintf_ex:o <- $r6
	@DEBUG_VALUE: vsnprintf_ex:ch <- $r3
	@DEBUG_VALUE: vsnprintf_ex:rank <- $r2
	@DEBUG_VALUE: vsnprintf_ex:val <- [DW_OP_plus_uconst 12, DW_OP_LLVM_fragment 32 32] [$sp+0]
	@DEBUG_VALUE: vsnprintf_ex:val <- [DW_OP_plus_uconst 16, DW_OP_LLVM_fragment 0 32] [$sp+0]
	@DEBUG_VALUE: vsnprintf_ex:flags <- [DW_OP_plus_uconst 28] [$sp+0]
	@DEBUG_VALUE: vsnprintf_ex:width <- [DW_OP_plus_uconst 76] [$sp+0]
	@DEBUG_VALUE: vsnprintf_ex:state <- 0
	@DEBUG_VALUE: vsnprintf_ex:ap <- [DW_OP_plus_uconst 4, DW_OP_stack_value] $r10
	.loc	1 0 6 is_stmt 0                 @ ../../../components/platform/soc/rt582/rt582_dongle/dongle/src/vprint.c:0:6
	mov	r8, r6
.Ltmp159:
	@DEBUG_VALUE: vsnprintf_ex:o <- $r8
	@DEBUG_VALUE: vsnprintf_ex:o <- $r8
	.loc	1 483 13 is_stmt 1              @ ../../../components/platform/soc/rt582/rt582_dongle/dongle/src/vprint.c:483:13
	ldr.w	r6, [r10]
.Ltmp160:
	@DEBUG_VALUE: vsnprintf_ex:sarg <- $r6
	.loc	1 484 13                        @ ../../../components/platform/soc/rt582/rt582_dongle/dongle/src/vprint.c:484:13
	movw	r0, :lower16:.L.str
	movt	r0, :upper16:.L.str
	str	r2, [sp, #68]                   @ 4-byte Spill
.Ltmp161:
	@DEBUG_VALUE: vsnprintf_ex:rank <- [DW_OP_plus_uconst 68] [$sp+0]
	@DEBUG_VALUE: vsnprintf_ex:rank <- [DW_OP_plus_uconst 68] [$sp+0]
	cmp	r6, #0
	it	eq
	moveq	r6, r0
.Ltmp162:
	@DEBUG_VALUE: vsnprintf_ex:sarg <- $r6
	.loc	1 485 13                        @ ../../../components/platform/soc/rt582/rt582_dongle/dongle/src/vprint.c:485:13
	mov	r0, r6
	bl	strlen
.Ltmp163:
	@DEBUG_VALUE: vsnprintf_ex:slen <- $r0
.LBB0_78:                               @   in Loop: Header=BB0_2 Depth=1
	@DEBUG_VALUE: vsnprintf_ex:rank <- [DW_OP_plus_uconst 68] [$sp+0]
	@DEBUG_VALUE: vsnprintf_ex:q <- $r11
	@DEBUG_VALUE: vsnprintf_ex:ap <- [DW_OP_plus_uconst 4, DW_OP_stack_value] $r10
	@DEBUG_VALUE: vsnprintf_ex:o <- $r8
	@DEBUG_VALUE: vsnprintf_ex:val <- [DW_OP_plus_uconst 12, DW_OP_LLVM_fragment 32 32] [$sp+0]
	@DEBUG_VALUE: vsnprintf_ex:val <- [DW_OP_plus_uconst 16, DW_OP_LLVM_fragment 0 32] [$sp+0]
	@DEBUG_VALUE: vsnprintf_ex:flags <- [DW_OP_plus_uconst 28] [$sp+0]
	@DEBUG_VALUE: vsnprintf_ex:width <- [DW_OP_plus_uconst 76] [$sp+0]
	@DEBUG_VALUE: vsnprintf_ex:state <- 0
	@DEBUG_VALUE: vsnprintf_ex:ap <- undef
	@DEBUG_VALUE: vsnprintf_ex:sarg <- $r6
	@DEBUG_VALUE: vsnprintf_ex:slen <- $r0
	@DEBUG_LABEL: is_string
	.loc	1 0 13 is_stmt 0                @ ../../../components/platform/soc/rt582/rt582_dongle/dongle/src/vprint.c:0:13
	ldr	r1, [sp, #36]                   @ 4-byte Reload
.Ltmp164:
	.loc	1 493 22 is_stmt 1              @ ../../../components/platform/soc/rt582/rt582_dongle/dongle/src/vprint.c:493:22
	mov	r5, r0
	cmp	r0, r1
	it	gt
	movgt	r5, r1
	adds	r1, #1
	it	eq
	moveq	r5, r0
.Ltmp165:
	@DEBUG_VALUE: vsnprintf_ex:slen <- $r5
	@DEBUG_VALUE: vsnprintf_ex:slen <- $r5
	@DEBUG_VALUE: vsnprintf_ex:slen <- $r5
	.loc	1 0 22 is_stmt 0                @ ../../../components/platform/soc/rt582/rt582_dongle/dongle/src/vprint.c:0:22
	ldr	r0, [sp, #28]                   @ 4-byte Reload
	ands	r0, r0, #2
.Ltmp166:
	.loc	1 497 11 is_stmt 1              @ ../../../components/platform/soc/rt582/rt582_dongle/dongle/src/vprint.c:497:11
	str	r0, [sp, #84]                   @ 4-byte Spill
	bne	.LBB0_85
.Ltmp167:
@ %bb.79:                               @   in Loop: Header=BB0_2 Depth=1
	@DEBUG_VALUE: vsnprintf_ex:rank <- [DW_OP_plus_uconst 68] [$sp+0]
	@DEBUG_VALUE: vsnprintf_ex:q <- $r11
	@DEBUG_VALUE: vsnprintf_ex:o <- $r8
	@DEBUG_VALUE: vsnprintf_ex:sarg <- $r6
	@DEBUG_VALUE: vsnprintf_ex:slen <- $r5
	@DEBUG_VALUE: vsnprintf_ex:val <- [DW_OP_plus_uconst 12, DW_OP_LLVM_fragment 32 32] [$sp+0]
	@DEBUG_VALUE: vsnprintf_ex:val <- [DW_OP_plus_uconst 16, DW_OP_LLVM_fragment 0 32] [$sp+0]
	@DEBUG_VALUE: vsnprintf_ex:flags <- [DW_OP_plus_uconst 28] [$sp+0]
	@DEBUG_VALUE: vsnprintf_ex:width <- [DW_OP_plus_uconst 76] [$sp+0]
	@DEBUG_VALUE: vsnprintf_ex:state <- 0
	.loc	1 0 11 is_stmt 0                @ ../../../components/platform/soc/rt582/rt582_dongle/dongle/src/vprint.c:0:11
	ldr	r1, [sp, #76]                   @ 4-byte Reload
	.loc	1 497 11                        @ ../../../components/platform/soc/rt582/rt582_dongle/dongle/src/vprint.c:497:11
	cmp	r1, r5
	ble	.LBB0_85
.Ltmp168:
@ %bb.80:                               @   in Loop: Header=BB0_2 Depth=1
	@DEBUG_VALUE: vsnprintf_ex:rank <- [DW_OP_plus_uconst 68] [$sp+0]
	@DEBUG_VALUE: vsnprintf_ex:q <- $r11
	@DEBUG_VALUE: vsnprintf_ex:o <- $r8
	@DEBUG_VALUE: vsnprintf_ex:sarg <- $r6
	@DEBUG_VALUE: vsnprintf_ex:slen <- $r5
	@DEBUG_VALUE: vsnprintf_ex:val <- [DW_OP_plus_uconst 12, DW_OP_LLVM_fragment 32 32] [$sp+0]
	@DEBUG_VALUE: vsnprintf_ex:val <- [DW_OP_plus_uconst 16, DW_OP_LLVM_fragment 0 32] [$sp+0]
	@DEBUG_VALUE: vsnprintf_ex:flags <- [DW_OP_plus_uconst 28] [$sp+0]
	@DEBUG_VALUE: vsnprintf_ex:width <- [DW_OP_plus_uconst 76] [$sp+0]
	@DEBUG_VALUE: vsnprintf_ex:state <- 0
	@DEBUG_VALUE: vsnprintf_ex:q <- $r11
	@DEBUG_VALUE: vsnprintf_ex:o <- $r8
	@DEBUG_VALUE: vsnprintf_ex:width <- [DW_OP_plus_uconst 76] [$sp+0]
	@DEBUG_VALUE: pad <- undef
	.loc	1 0 11                          @ ../../../components/platform/soc/rt582/rt582_dongle/dongle/src/vprint.c:0:11
	ldr	r0, [sp, #28]                   @ 4-byte Reload
	movs	r4, #48
	lsls	r0, r0, #31
	mov	r0, r8
.Ltmp169:
	@DEBUG_VALUE: vsnprintf_ex:o <- $r0
	.loc	1 501 8 is_stmt 1               @ ../../../components/platform/soc/rt582/rt582_dongle/dongle/src/vprint.c:501:8
	add	r8, r1
	it	eq
	moveq	r4, #32
.Ltmp170:
	.p2align	2
.LBB0_81:                               @   Parent Loop BB0_2 Depth=1
                                        @ =>  This Inner Loop Header: Depth=2
	@DEBUG_VALUE: vsnprintf_ex:rank <- [DW_OP_plus_uconst 68] [$sp+0]
	@DEBUG_VALUE: vsnprintf_ex:q <- $r11
	@DEBUG_VALUE: vsnprintf_ex:sarg <- $r6
	@DEBUG_VALUE: vsnprintf_ex:slen <- $r5
	@DEBUG_VALUE: vsnprintf_ex:o <- $r0
	@DEBUG_VALUE: vsnprintf_ex:val <- [DW_OP_plus_uconst 12, DW_OP_LLVM_fragment 32 32] [$sp+0]
	@DEBUG_VALUE: vsnprintf_ex:val <- [DW_OP_plus_uconst 16, DW_OP_LLVM_fragment 0 32] [$sp+0]
	@DEBUG_VALUE: vsnprintf_ex:flags <- [DW_OP_plus_uconst 28] [$sp+0]
	@DEBUG_VALUE: vsnprintf_ex:width <- [DW_OP_plus_uconst 76] [$sp+0]
	@DEBUG_VALUE: vsnprintf_ex:state <- 0
	@DEBUG_VALUE: vsnprintf_ex:q <- $r11
	@DEBUG_VALUE: vsnprintf_ex:o <- $r0
	@DEBUG_VALUE: vsnprintf_ex:width <- [DW_OP_plus_uconst 76] [$sp+0]
	.loc	1 0 8 is_stmt 0                 @ ../../../components/platform/soc/rt582/rt582_dongle/dongle/src/vprint.c:0:8
	mov	r7, r0
.Ltmp171:
	.loc	1 502 9 is_stmt 1               @ ../../../components/platform/soc/rt582/rt582_dongle/dongle/src/vprint.c:502:9
	cmp	r0, r9
.Ltmp172:
	@DEBUG_VALUE: vsnprintf_ex:o <- $r7
	bhs	.LBB0_83
.Ltmp173:
@ %bb.82:                               @   in Loop: Header=BB0_81 Depth=2
	@DEBUG_VALUE: vsnprintf_ex:rank <- [DW_OP_plus_uconst 68] [$sp+0]
	@DEBUG_VALUE: vsnprintf_ex:q <- $r11
	@DEBUG_VALUE: vsnprintf_ex:o <- $r7
	@DEBUG_VALUE: vsnprintf_ex:sarg <- $r6
	@DEBUG_VALUE: vsnprintf_ex:slen <- $r5
	@DEBUG_VALUE: vsnprintf_ex:val <- [DW_OP_plus_uconst 12, DW_OP_LLVM_fragment 32 32] [$sp+0]
	@DEBUG_VALUE: vsnprintf_ex:val <- [DW_OP_plus_uconst 16, DW_OP_LLVM_fragment 0 32] [$sp+0]
	@DEBUG_VALUE: vsnprintf_ex:flags <- [DW_OP_plus_uconst 28] [$sp+0]
	@DEBUG_VALUE: vsnprintf_ex:width <- [DW_OP_plus_uconst 76] [$sp+0]
	@DEBUG_VALUE: vsnprintf_ex:state <- 0
	.loc	1 502 9 is_stmt 0               @ ../../../components/platform/soc/rt582/rt582_dongle/dongle/src/vprint.c:502:9
	movw	r1, :lower16:__stdout
	mov	r0, r4
	movt	r1, :upper16:__stdout
	bl	putc
.Ltmp174:
	add.w	r11, r11, #1
.Ltmp175:
	@DEBUG_VALUE: vsnprintf_ex:buffer <- [DW_OP_LLVM_entry_value 1] $r0
	@DEBUG_VALUE: vsnprintf_ex:q <- $r11
.LBB0_83:                               @   in Loop: Header=BB0_81 Depth=2
	@DEBUG_VALUE: vsnprintf_ex:rank <- [DW_OP_plus_uconst 68] [$sp+0]
	@DEBUG_VALUE: vsnprintf_ex:q <- $r11
	@DEBUG_VALUE: vsnprintf_ex:o <- $r7
	@DEBUG_VALUE: vsnprintf_ex:sarg <- $r6
	@DEBUG_VALUE: vsnprintf_ex:slen <- $r5
	@DEBUG_VALUE: vsnprintf_ex:val <- [DW_OP_plus_uconst 12, DW_OP_LLVM_fragment 32 32] [$sp+0]
	@DEBUG_VALUE: vsnprintf_ex:val <- [DW_OP_plus_uconst 16, DW_OP_LLVM_fragment 0 32] [$sp+0]
	@DEBUG_VALUE: vsnprintf_ex:flags <- [DW_OP_plus_uconst 28] [$sp+0]
	@DEBUG_VALUE: vsnprintf_ex:width <- [DW_OP_plus_uconst 76] [$sp+0]
	@DEBUG_VALUE: vsnprintf_ex:state <- 0
	@DEBUG_VALUE: vsnprintf_ex:q <- $r11
	.loc	1 0 9                           @ ../../../components/platform/soc/rt582/rt582_dongle/dongle/src/vprint.c:0:9
	ldr	r0, [sp, #76]                   @ 4-byte Reload
	.loc	1 503 14 is_stmt 1              @ ../../../components/platform/soc/rt582/rt582_dongle/dongle/src/vprint.c:503:14
	subs	r0, #1
.Ltmp176:
	@DEBUG_VALUE: vsnprintf_ex:width <- $r0
	.loc	1 0 14 is_stmt 0                @ ../../../components/platform/soc/rt582/rt582_dongle/dongle/src/vprint.c:0:14
	str	r0, [sp, #76]                   @ 4-byte Spill
.Ltmp177:
	@DEBUG_VALUE: vsnprintf_ex:width <- [DW_OP_plus_uconst 76] [$sp+0]
	.loc	1 501 8 is_stmt 1               @ ../../../components/platform/soc/rt582/rt582_dongle/dongle/src/vprint.c:501:8
	cmp	r0, r5
	mov	r0, r7
.Ltmp178:
	.loc	1 502 9                         @ ../../../components/platform/soc/rt582/rt582_dongle/dongle/src/vprint.c:502:9
	add.w	r0, r7, #1
.Ltmp179:
	@DEBUG_VALUE: vsnprintf_ex:o <- $r0
	.loc	1 501 8                         @ ../../../components/platform/soc/rt582/rt582_dongle/dongle/src/vprint.c:501:8
	bgt	.LBB0_81
.Ltmp180:
@ %bb.84:                               @   in Loop: Header=BB0_2 Depth=1
	@DEBUG_VALUE: vsnprintf_ex:rank <- [DW_OP_plus_uconst 68] [$sp+0]
	@DEBUG_VALUE: vsnprintf_ex:q <- $r11
	@DEBUG_VALUE: vsnprintf_ex:sarg <- $r6
	@DEBUG_VALUE: vsnprintf_ex:slen <- $r5
	@DEBUG_VALUE: vsnprintf_ex:o <- $r0
	@DEBUG_VALUE: vsnprintf_ex:val <- [DW_OP_plus_uconst 12, DW_OP_LLVM_fragment 32 32] [$sp+0]
	@DEBUG_VALUE: vsnprintf_ex:val <- [DW_OP_plus_uconst 16, DW_OP_LLVM_fragment 0 32] [$sp+0]
	@DEBUG_VALUE: vsnprintf_ex:flags <- [DW_OP_plus_uconst 28] [$sp+0]
	@DEBUG_VALUE: vsnprintf_ex:width <- [DW_OP_plus_uconst 76] [$sp+0]
	@DEBUG_VALUE: vsnprintf_ex:state <- 0
	sub.w	r8, r8, r5
.Ltmp181:
	.loc	1 256 6                         @ ../../../components/platform/soc/rt582/rt582_dongle/dongle/src/vprint.c:256:6
	str	r5, [sp, #76]                   @ 4-byte Spill
.Ltmp182:
.LBB0_85:                               @   in Loop: Header=BB0_2 Depth=1
	@DEBUG_VALUE: vsnprintf_ex:rank <- [DW_OP_plus_uconst 68] [$sp+0]
	@DEBUG_VALUE: vsnprintf_ex:q <- $r11
	@DEBUG_VALUE: vsnprintf_ex:sarg <- $r6
	@DEBUG_VALUE: vsnprintf_ex:slen <- $r5
	@DEBUG_VALUE: vsnprintf_ex:val <- [DW_OP_plus_uconst 12, DW_OP_LLVM_fragment 32 32] [$sp+0]
	@DEBUG_VALUE: vsnprintf_ex:val <- [DW_OP_plus_uconst 16, DW_OP_LLVM_fragment 0 32] [$sp+0]
	@DEBUG_VALUE: vsnprintf_ex:flags <- [DW_OP_plus_uconst 28] [$sp+0]
	@DEBUG_VALUE: vsnprintf_ex:width <- [DW_OP_plus_uconst 76] [$sp+0]
	@DEBUG_VALUE: vsnprintf_ex:state <- 0
	@DEBUG_VALUE: vsnprintf_ex:ap <- undef
	@DEBUG_VALUE: vsnprintf_ex:q <- $r11
	@DEBUG_VALUE: vsnprintf_ex:o <- $r8
	@DEBUG_VALUE: vsnprintf_ex:width <- [DW_OP_plus_uconst 76] [$sp+0]
	@DEBUG_VALUE: vsnprintf_ex:sarg <- $r6
	@DEBUG_VALUE: i <- $r5
	.loc	1 506 7                         @ ../../../components/platform/soc/rt582/rt582_dongle/dongle/src/vprint.c:506:7
	cmp	r5, #0
	beq	.LBB0_110
.Ltmp183:
@ %bb.86:                               @   in Loop: Header=BB0_2 Depth=1
	@DEBUG_VALUE: vsnprintf_ex:rank <- [DW_OP_plus_uconst 68] [$sp+0]
	@DEBUG_VALUE: vsnprintf_ex:q <- $r11
	@DEBUG_VALUE: vsnprintf_ex:o <- $r8
	@DEBUG_VALUE: vsnprintf_ex:sarg <- $r6
	@DEBUG_VALUE: i <- $r5
	@DEBUG_VALUE: vsnprintf_ex:slen <- $r5
	@DEBUG_VALUE: vsnprintf_ex:val <- [DW_OP_plus_uconst 12, DW_OP_LLVM_fragment 32 32] [$sp+0]
	@DEBUG_VALUE: vsnprintf_ex:val <- [DW_OP_plus_uconst 16, DW_OP_LLVM_fragment 0 32] [$sp+0]
	@DEBUG_VALUE: vsnprintf_ex:flags <- [DW_OP_plus_uconst 28] [$sp+0]
	@DEBUG_VALUE: vsnprintf_ex:width <- [DW_OP_plus_uconst 76] [$sp+0]
	@DEBUG_VALUE: vsnprintf_ex:state <- 0
	.loc	1 0 7 is_stmt 0                 @ ../../../components/platform/soc/rt582/rt582_dongle/dongle/src/vprint.c:0:7
	mov	r4, r5
	mov	r7, r8
.Ltmp184:
	.p2align	2
.LBB0_87:                               @   Parent Loop BB0_2 Depth=1
                                        @ =>  This Inner Loop Header: Depth=2
	@DEBUG_VALUE: vsnprintf_ex:rank <- [DW_OP_plus_uconst 68] [$sp+0]
	@DEBUG_VALUE: vsnprintf_ex:q <- $r11
	@DEBUG_VALUE: vsnprintf_ex:sarg <- $r6
	@DEBUG_VALUE: vsnprintf_ex:slen <- $r5
	@DEBUG_VALUE: vsnprintf_ex:val <- [DW_OP_plus_uconst 12, DW_OP_LLVM_fragment 32 32] [$sp+0]
	@DEBUG_VALUE: vsnprintf_ex:val <- [DW_OP_plus_uconst 16, DW_OP_LLVM_fragment 0 32] [$sp+0]
	@DEBUG_VALUE: vsnprintf_ex:flags <- [DW_OP_plus_uconst 28] [$sp+0]
	@DEBUG_VALUE: vsnprintf_ex:width <- [DW_OP_plus_uconst 76] [$sp+0]
	@DEBUG_VALUE: vsnprintf_ex:state <- 0
	@DEBUG_VALUE: vsnprintf_ex:q <- $r11
	@DEBUG_VALUE: vsnprintf_ex:o <- $r7
	@DEBUG_VALUE: vsnprintf_ex:sarg <- undef
	@DEBUG_VALUE: i <- $r4
	@DEBUG_VALUE: sch <- undef
	.loc	1 508 8 is_stmt 1               @ ../../../components/platform/soc/rt582/rt582_dongle/dongle/src/vprint.c:508:8
	cmp	r7, r9
	bhs	.LBB0_89
.Ltmp185:
@ %bb.88:                               @   in Loop: Header=BB0_87 Depth=2
	@DEBUG_VALUE: vsnprintf_ex:rank <- [DW_OP_plus_uconst 68] [$sp+0]
	@DEBUG_VALUE: vsnprintf_ex:q <- $r11
	@DEBUG_VALUE: vsnprintf_ex:o <- $r7
	@DEBUG_VALUE: vsnprintf_ex:slen <- $r5
	@DEBUG_VALUE: i <- $r4
	@DEBUG_VALUE: vsnprintf_ex:val <- [DW_OP_plus_uconst 12, DW_OP_LLVM_fragment 32 32] [$sp+0]
	@DEBUG_VALUE: vsnprintf_ex:val <- [DW_OP_plus_uconst 16, DW_OP_LLVM_fragment 0 32] [$sp+0]
	@DEBUG_VALUE: vsnprintf_ex:flags <- [DW_OP_plus_uconst 28] [$sp+0]
	@DEBUG_VALUE: vsnprintf_ex:width <- [DW_OP_plus_uconst 76] [$sp+0]
	@DEBUG_VALUE: vsnprintf_ex:state <- 0
	.loc	1 507 14                        @ ../../../components/platform/soc/rt582/rt582_dongle/dongle/src/vprint.c:507:14
	ldrb	r0, [r6]
.Ltmp186:
	@DEBUG_VALUE: sch <- undef
	.loc	1 508 8                         @ ../../../components/platform/soc/rt582/rt582_dongle/dongle/src/vprint.c:508:8
	movw	r1, :lower16:__stdout
	movt	r1, :upper16:__stdout
	bl	putc
.Ltmp187:
	add.w	r11, r11, #1
.Ltmp188:
	@DEBUG_VALUE: vsnprintf_ex:q <- $r11
.LBB0_89:                               @   in Loop: Header=BB0_87 Depth=2
	@DEBUG_VALUE: vsnprintf_ex:rank <- [DW_OP_plus_uconst 68] [$sp+0]
	@DEBUG_VALUE: vsnprintf_ex:q <- $r11
	@DEBUG_VALUE: vsnprintf_ex:o <- $r7
	@DEBUG_VALUE: vsnprintf_ex:slen <- $r5
	@DEBUG_VALUE: i <- $r4
	@DEBUG_VALUE: vsnprintf_ex:val <- [DW_OP_plus_uconst 12, DW_OP_LLVM_fragment 32 32] [$sp+0]
	@DEBUG_VALUE: vsnprintf_ex:val <- [DW_OP_plus_uconst 16, DW_OP_LLVM_fragment 0 32] [$sp+0]
	@DEBUG_VALUE: vsnprintf_ex:flags <- [DW_OP_plus_uconst 28] [$sp+0]
	@DEBUG_VALUE: vsnprintf_ex:width <- [DW_OP_plus_uconst 76] [$sp+0]
	@DEBUG_VALUE: vsnprintf_ex:state <- 0
	.loc	1 0 0 is_stmt 0                 @ ../../../components/platform/soc/rt582/rt582_dongle/dongle/src/vprint.c:0:0
	adds	r6, #1
.Ltmp189:
	@DEBUG_VALUE: vsnprintf_ex:sarg <- $r6
	@DEBUG_VALUE: vsnprintf_ex:q <- $r11
	.loc	1 506 26 is_stmt 1              @ ../../../components/platform/soc/rt582/rt582_dongle/dongle/src/vprint.c:506:26
	subs	r4, #1
.Ltmp190:
	@DEBUG_VALUE: i <- $r4
	.loc	1 508 8                         @ ../../../components/platform/soc/rt582/rt582_dongle/dongle/src/vprint.c:508:8
	add.w	r7, r7, #1
.Ltmp191:
	@DEBUG_VALUE: vsnprintf_ex:o <- $r7
	.loc	1 506 7                         @ ../../../components/platform/soc/rt582/rt582_dongle/dongle/src/vprint.c:506:7
	bne	.LBB0_87
.Ltmp192:
@ %bb.90:                               @   in Loop: Header=BB0_2 Depth=1
	@DEBUG_VALUE: vsnprintf_ex:rank <- [DW_OP_plus_uconst 68] [$sp+0]
	@DEBUG_VALUE: vsnprintf_ex:q <- $r11
	@DEBUG_VALUE: vsnprintf_ex:o <- $r7
	@DEBUG_VALUE: vsnprintf_ex:sarg <- $r6
	@DEBUG_VALUE: vsnprintf_ex:slen <- $r5
	@DEBUG_VALUE: i <- $r4
	@DEBUG_VALUE: vsnprintf_ex:val <- [DW_OP_plus_uconst 12, DW_OP_LLVM_fragment 32 32] [$sp+0]
	@DEBUG_VALUE: vsnprintf_ex:val <- [DW_OP_plus_uconst 16, DW_OP_LLVM_fragment 0 32] [$sp+0]
	@DEBUG_VALUE: vsnprintf_ex:flags <- [DW_OP_plus_uconst 28] [$sp+0]
	@DEBUG_VALUE: vsnprintf_ex:width <- [DW_OP_plus_uconst 76] [$sp+0]
	@DEBUG_VALUE: vsnprintf_ex:state <- 0
	.loc	1 0 7 is_stmt 0                 @ ../../../components/platform/soc/rt582/rt582_dongle/dongle/src/vprint.c:0:7
	mov	r6, r8
.Ltmp193:
	.loc	1 506 7                         @ ../../../components/platform/soc/rt582/rt582_dongle/dongle/src/vprint.c:506:7
	add.w	r6, r5, r8
	b	.LBB0_111
.Ltmp194:
.LBB0_91:                               @   in Loop: Header=BB0_2 Depth=1
	@DEBUG_VALUE: vsnprintf_ex:q <- $r11
	@DEBUG_VALUE: vsnprintf_ex:ap <- $r10
	@DEBUG_VALUE: vsnprintf_ex:o <- $r6
	@DEBUG_VALUE: vsnprintf_ex:ch <- $r3
	@DEBUG_VALUE: vsnprintf_ex:rank <- $r2
	@DEBUG_VALUE: vsnprintf_ex:val <- [DW_OP_plus_uconst 12, DW_OP_LLVM_fragment 32 32] [$sp+0]
	@DEBUG_VALUE: vsnprintf_ex:val <- [DW_OP_plus_uconst 16, DW_OP_LLVM_fragment 0 32] [$sp+0]
	@DEBUG_VALUE: vsnprintf_ex:flags <- [DW_OP_plus_uconst 28] [$sp+0]
	@DEBUG_VALUE: vsnprintf_ex:width <- [DW_OP_plus_uconst 76] [$sp+0]
	@DEBUG_VALUE: vsnprintf_ex:state <- 0
	.loc	1 0 7                           @ ../../../components/platform/soc/rt582/rt582_dongle/dongle/src/vprint.c:0:7
	movs	r3, #10
.Ltmp195:
	b	.LBB0_98
.Ltmp196:
.LBB0_92:                               @   in Loop: Header=BB0_2 Depth=1
	@DEBUG_VALUE: vsnprintf_ex:q <- $r11
	@DEBUG_VALUE: vsnprintf_ex:ap <- $r10
	@DEBUG_VALUE: vsnprintf_ex:o <- $r6
	@DEBUG_VALUE: vsnprintf_ex:rank <- $r4
	@DEBUG_VALUE: vsnprintf_ex:ch <- $r3
	@DEBUG_VALUE: vsnprintf_ex:p <- $r2
	@DEBUG_VALUE: vsnprintf_ex:state <- $r0
	@DEBUG_VALUE: vsnprintf_ex:val <- [DW_OP_plus_uconst 12, DW_OP_LLVM_fragment 32 32] [$sp+0]
	@DEBUG_VALUE: vsnprintf_ex:val <- [DW_OP_plus_uconst 16, DW_OP_LLVM_fragment 0 32] [$sp+0]
	@DEBUG_VALUE: vsnprintf_ex:flags <- [DW_OP_plus_uconst 28] [$sp+0]
	@DEBUG_VALUE: vsnprintf_ex:width <- [DW_OP_plus_uconst 76] [$sp+0]
	.loc	1 282 5 is_stmt 1               @ ../../../components/platform/soc/rt582/rt582_dongle/dongle/src/vprint.c:282:5
	cmp	r6, r9
	bhs	.LBB0_94
.Ltmp197:
@ %bb.93:                               @   in Loop: Header=BB0_2 Depth=1
	@DEBUG_VALUE: vsnprintf_ex:q <- $r11
	@DEBUG_VALUE: vsnprintf_ex:ap <- $r10
	@DEBUG_VALUE: vsnprintf_ex:o <- $r6
	@DEBUG_VALUE: vsnprintf_ex:rank <- $r4
	@DEBUG_VALUE: vsnprintf_ex:ch <- $r3
	@DEBUG_VALUE: vsnprintf_ex:p <- $r2
	@DEBUG_VALUE: vsnprintf_ex:state <- $r0
	@DEBUG_VALUE: vsnprintf_ex:val <- [DW_OP_plus_uconst 12, DW_OP_LLVM_fragment 32 32] [$sp+0]
	@DEBUG_VALUE: vsnprintf_ex:val <- [DW_OP_plus_uconst 16, DW_OP_LLVM_fragment 0 32] [$sp+0]
	@DEBUG_VALUE: vsnprintf_ex:flags <- [DW_OP_plus_uconst 28] [$sp+0]
	@DEBUG_VALUE: vsnprintf_ex:width <- [DW_OP_plus_uconst 76] [$sp+0]
	.loc	1 282 5 is_stmt 0               @ ../../../components/platform/soc/rt582/rt582_dongle/dongle/src/vprint.c:282:5
	mov	r0, r3
.Ltmp198:
	mov	r1, r8
	bl	putc
.Ltmp199:
	@DEBUG_VALUE: vsnprintf_ex:format <- [DW_OP_LLVM_entry_value 1] $r2
	add.w	r11, r11, #1
.Ltmp200:
	@DEBUG_VALUE: vsnprintf_ex:buffer <- [DW_OP_LLVM_entry_value 1] $r0
	@DEBUG_VALUE: vsnprintf_ex:q <- $r11
.LBB0_94:                               @   in Loop: Header=BB0_2 Depth=1
	@DEBUG_VALUE: vsnprintf_ex:q <- $r11
	@DEBUG_VALUE: vsnprintf_ex:ap <- $r10
	@DEBUG_VALUE: vsnprintf_ex:o <- $r6
	@DEBUG_VALUE: vsnprintf_ex:rank <- $r4
	@DEBUG_VALUE: vsnprintf_ex:val <- [DW_OP_plus_uconst 12, DW_OP_LLVM_fragment 32 32] [$sp+0]
	@DEBUG_VALUE: vsnprintf_ex:val <- [DW_OP_plus_uconst 16, DW_OP_LLVM_fragment 0 32] [$sp+0]
	@DEBUG_VALUE: vsnprintf_ex:flags <- [DW_OP_plus_uconst 28] [$sp+0]
	@DEBUG_VALUE: vsnprintf_ex:width <- [DW_OP_plus_uconst 76] [$sp+0]
	@DEBUG_VALUE: vsnprintf_ex:q <- $r11
	.loc	1 282 5                         @ ../../../components/platform/soc/rt582/rt582_dongle/dongle/src/vprint.c:282:5
	adds	r6, #1
.Ltmp201:
	@DEBUG_VALUE: vsnprintf_ex:o <- $r6
.LBB0_95:                               @   in Loop: Header=BB0_2 Depth=1
	@DEBUG_VALUE: vsnprintf_ex:q <- $r11
	@DEBUG_VALUE: vsnprintf_ex:ap <- $r10
	@DEBUG_VALUE: vsnprintf_ex:o <- $r6
	@DEBUG_VALUE: vsnprintf_ex:val <- [DW_OP_plus_uconst 12, DW_OP_LLVM_fragment 32 32] [$sp+0]
	@DEBUG_VALUE: vsnprintf_ex:val <- [DW_OP_plus_uconst 16, DW_OP_LLVM_fragment 0 32] [$sp+0]
	@DEBUG_VALUE: vsnprintf_ex:flags <- [DW_OP_plus_uconst 28] [$sp+0]
	@DEBUG_VALUE: vsnprintf_ex:width <- [DW_OP_plus_uconst 76] [$sp+0]
	.loc	1 0 5                           @ ../../../components/platform/soc/rt582/rt582_dongle/dongle/src/vprint.c:0:5
	movs	r0, #0
	b	.LBB0_204
.Ltmp202:
.LBB0_96:                               @   in Loop: Header=BB0_2 Depth=1
	@DEBUG_VALUE: vsnprintf_ex:q <- $r11
	@DEBUG_VALUE: vsnprintf_ex:ap <- $r10
	@DEBUG_VALUE: vsnprintf_ex:o <- $r6
	@DEBUG_VALUE: vsnprintf_ex:ch <- $r3
	@DEBUG_VALUE: vsnprintf_ex:rank <- $r2
	@DEBUG_VALUE: vsnprintf_ex:val <- [DW_OP_plus_uconst 12, DW_OP_LLVM_fragment 32 32] [$sp+0]
	@DEBUG_VALUE: vsnprintf_ex:val <- [DW_OP_plus_uconst 16, DW_OP_LLVM_fragment 0 32] [$sp+0]
	@DEBUG_VALUE: vsnprintf_ex:flags <- [DW_OP_plus_uconst 28] [$sp+0]
	@DEBUG_VALUE: vsnprintf_ex:width <- [DW_OP_plus_uconst 76] [$sp+0]
	@DEBUG_VALUE: vsnprintf_ex:state <- 0
	.loc	1 430 12 is_stmt 1              @ ../../../components/platform/soc/rt582/rt582_dongle/dongle/src/vprint.c:430:12
	ldr	r0, [sp, #28]                   @ 4-byte Reload
	orr	r0, r0, #128
.Ltmp203:
	@DEBUG_VALUE: vsnprintf_ex:flags <- $r0
	.loc	1 0 12 is_stmt 0                @ ../../../components/platform/soc/rt582/rt582_dongle/dongle/src/vprint.c:0:12
	str	r0, [sp, #28]                   @ 4-byte Spill
.Ltmp204:
	@DEBUG_VALUE: vsnprintf_ex:flags <- [DW_OP_plus_uconst 28] [$sp+0]
	@DEBUG_VALUE: vsnprintf_ex:flags <- [DW_OP_plus_uconst 28] [$sp+0]
	@DEBUG_VALUE: vsnprintf_ex:flags <- [DW_OP_plus_uconst 28] [$sp+0]
.LBB0_97:                               @   in Loop: Header=BB0_2 Depth=1
	@DEBUG_VALUE: vsnprintf_ex:q <- $r11
	@DEBUG_VALUE: vsnprintf_ex:ap <- $r10
	@DEBUG_VALUE: vsnprintf_ex:o <- $r6
	@DEBUG_VALUE: vsnprintf_ex:ch <- $r3
	@DEBUG_VALUE: vsnprintf_ex:rank <- $r2
	@DEBUG_VALUE: vsnprintf_ex:val <- [DW_OP_plus_uconst 12, DW_OP_LLVM_fragment 32 32] [$sp+0]
	@DEBUG_VALUE: vsnprintf_ex:val <- [DW_OP_plus_uconst 16, DW_OP_LLVM_fragment 0 32] [$sp+0]
	@DEBUG_VALUE: vsnprintf_ex:flags <- [DW_OP_plus_uconst 28] [$sp+0]
	@DEBUG_VALUE: vsnprintf_ex:width <- [DW_OP_plus_uconst 76] [$sp+0]
	@DEBUG_VALUE: vsnprintf_ex:state <- 0
	movs	r3, #16
.Ltmp205:
.LBB0_98:                               @   in Loop: Header=BB0_2 Depth=1
	@DEBUG_VALUE: vsnprintf_ex:q <- $r11
	@DEBUG_VALUE: vsnprintf_ex:ap <- $r10
	@DEBUG_VALUE: vsnprintf_ex:o <- $r6
	@DEBUG_VALUE: vsnprintf_ex:rank <- $r2
	@DEBUG_VALUE: vsnprintf_ex:val <- [DW_OP_plus_uconst 12, DW_OP_LLVM_fragment 32 32] [$sp+0]
	@DEBUG_VALUE: vsnprintf_ex:val <- [DW_OP_plus_uconst 16, DW_OP_LLVM_fragment 0 32] [$sp+0]
	@DEBUG_VALUE: vsnprintf_ex:flags <- [DW_OP_plus_uconst 28] [$sp+0]
	@DEBUG_VALUE: vsnprintf_ex:width <- [DW_OP_plus_uconst 76] [$sp+0]
	@DEBUG_VALUE: vsnprintf_ex:state <- 0
	@DEBUG_VALUE: vsnprintf_ex:flags <- [DW_OP_plus_uconst 28] [$sp+0]
	@DEBUG_VALUE: vsnprintf_ex:base <- $r3
	@DEBUG_LABEL: is_unsigned
	.loc	1 438 6 is_stmt 1               @ ../../../components/platform/soc/rt582/rt582_dongle/dongle/src/vprint.c:438:6
	adds	r0, r2, #2
	cmp	r0, #4
	str	r3, [sp, #80]                   @ 4-byte Spill
.Ltmp206:
	@DEBUG_VALUE: vsnprintf_ex:base <- [DW_OP_plus_uconst 80] [$sp+0]
	@DEBUG_VALUE: vsnprintf_ex:base <- [DW_OP_plus_uconst 80] [$sp+0]
	bhi.w	.LBB0_130
.Ltmp207:
@ %bb.99:                               @   in Loop: Header=BB0_2 Depth=1
	@DEBUG_VALUE: vsnprintf_ex:base <- [DW_OP_plus_uconst 80] [$sp+0]
	@DEBUG_VALUE: vsnprintf_ex:q <- $r11
	@DEBUG_VALUE: vsnprintf_ex:ap <- $r10
	@DEBUG_VALUE: vsnprintf_ex:o <- $r6
	@DEBUG_VALUE: vsnprintf_ex:rank <- $r2
	@DEBUG_VALUE: vsnprintf_ex:val <- [DW_OP_plus_uconst 12, DW_OP_LLVM_fragment 32 32] [$sp+0]
	@DEBUG_VALUE: vsnprintf_ex:val <- [DW_OP_plus_uconst 16, DW_OP_LLVM_fragment 0 32] [$sp+0]
	@DEBUG_VALUE: vsnprintf_ex:flags <- [DW_OP_plus_uconst 28] [$sp+0]
	@DEBUG_VALUE: vsnprintf_ex:width <- [DW_OP_plus_uconst 76] [$sp+0]
	@DEBUG_VALUE: vsnprintf_ex:state <- 0
	.loc	1 0 6 is_stmt 0                 @ ../../../components/platform/soc/rt582/rt582_dongle/dongle/src/vprint.c:0:6
.LCPI0_8:
	tbb	[pc, r0]
.Ltmp208:
@ %bb.100:
.LJTI0_4:
	.byte	(.LBB0_101-(.LCPI0_8+4))/2
	.byte	(.LBB0_120-(.LCPI0_8+4))/2
	.byte	(.LBB0_121-(.LCPI0_8+4))/2
	.byte	(.LBB0_122-(.LCPI0_8+4))/2
	.byte	(.LBB0_123-(.LCPI0_8+4))/2
	.p2align	1
.LBB0_101:                              @   in Loop: Header=BB0_2 Depth=1
.Ltmp209:
	@DEBUG_VALUE: vsnprintf_ex:base <- [DW_OP_plus_uconst 80] [$sp+0]
	@DEBUG_VALUE: vsnprintf_ex:q <- $r11
	@DEBUG_VALUE: vsnprintf_ex:ap <- $r10
	@DEBUG_VALUE: vsnprintf_ex:o <- $r6
	@DEBUG_VALUE: vsnprintf_ex:rank <- $r2
	@DEBUG_VALUE: vsnprintf_ex:val <- [DW_OP_plus_uconst 12, DW_OP_LLVM_fragment 32 32] [$sp+0]
	@DEBUG_VALUE: vsnprintf_ex:val <- [DW_OP_plus_uconst 16, DW_OP_LLVM_fragment 0 32] [$sp+0]
	@DEBUG_VALUE: vsnprintf_ex:flags <- [DW_OP_plus_uconst 28] [$sp+0]
	@DEBUG_VALUE: vsnprintf_ex:width <- [DW_OP_plus_uconst 76] [$sp+0]
	@DEBUG_VALUE: vsnprintf_ex:state <- 0
	.loc	1 442 8 is_stmt 1               @ ../../../components/platform/soc/rt582/rt582_dongle/dongle/src/vprint.c:442:8
	ldrb	r3, [r10], #4
.Ltmp210:
	@DEBUG_VALUE: vsnprintf_ex:ap <- $r10
	.loc	1 0 8 is_stmt 0                 @ ../../../components/platform/soc/rt582/rt582_dongle/dongle/src/vprint.c:0:8
	movs	r7, #0
.Ltmp211:
	@DEBUG_VALUE: vsnprintf_ex:val <- [DW_OP_LLVM_fragment 32 32] $r7
.LBB0_102:                              @   in Loop: Header=BB0_2 Depth=1
	@DEBUG_VALUE: vsnprintf_ex:q <- $r11
	@DEBUG_VALUE: vsnprintf_ex:ap <- $r10
	@DEBUG_VALUE: vsnprintf_ex:val <- [DW_OP_LLVM_fragment 32 32] $r7
	@DEBUG_VALUE: vsnprintf_ex:o <- $r6
	@DEBUG_VALUE: vsnprintf_ex:rank <- $r2
	@DEBUG_VALUE: vsnprintf_ex:val <- [DW_OP_plus_uconst 16, DW_OP_LLVM_fragment 0 32] [$sp+0]
	@DEBUG_VALUE: vsnprintf_ex:flags <- [DW_OP_plus_uconst 28] [$sp+0]
	@DEBUG_VALUE: vsnprintf_ex:width <- [DW_OP_plus_uconst 76] [$sp+0]
	@DEBUG_VALUE: vsnprintf_ex:state <- 0
	mvn	r0, #1
.Ltmp212:
	@DEBUG_VALUE: vsnprintf_ex:val <- [DW_OP_LLVM_fragment 0 32] $r3
	b	.LBB0_138
.Ltmp213:
.LBB0_103:                              @   in Loop: Header=BB0_2 Depth=1
	@DEBUG_VALUE: vsnprintf_ex:q <- $r11
	@DEBUG_VALUE: vsnprintf_ex:ap <- $r10
	@DEBUG_VALUE: vsnprintf_ex:o <- $r6
	@DEBUG_VALUE: vsnprintf_ex:rank <- $r4
	@DEBUG_VALUE: vsnprintf_ex:ch <- $r3
	@DEBUG_VALUE: vsnprintf_ex:p <- $r2
	@DEBUG_VALUE: vsnprintf_ex:val <- [DW_OP_plus_uconst 12, DW_OP_LLVM_fragment 32 32] [$sp+0]
	@DEBUG_VALUE: vsnprintf_ex:val <- [DW_OP_plus_uconst 16, DW_OP_LLVM_fragment 0 32] [$sp+0]
	@DEBUG_VALUE: vsnprintf_ex:flags <- [DW_OP_plus_uconst 28] [$sp+0]
	@DEBUG_VALUE: vsnprintf_ex:width <- [DW_OP_plus_uconst 76] [$sp+0]
	.loc	1 316 15 is_stmt 1              @ ../../../components/platform/soc/rt582/rt582_dongle/dongle/src/vprint.c:316:15
	cmp	r3, #46
	beq.w	.LBB0_198
.Ltmp214:
@ %bb.104:                              @   in Loop: Header=BB0_2 Depth=1
	@DEBUG_VALUE: vsnprintf_ex:q <- $r11
	@DEBUG_VALUE: vsnprintf_ex:ap <- $r10
	@DEBUG_VALUE: vsnprintf_ex:o <- $r6
	@DEBUG_VALUE: vsnprintf_ex:rank <- $r4
	@DEBUG_VALUE: vsnprintf_ex:ch <- $r3
	@DEBUG_VALUE: vsnprintf_ex:p <- $r2
	@DEBUG_VALUE: vsnprintf_ex:val <- [DW_OP_plus_uconst 12, DW_OP_LLVM_fragment 32 32] [$sp+0]
	@DEBUG_VALUE: vsnprintf_ex:val <- [DW_OP_plus_uconst 16, DW_OP_LLVM_fragment 0 32] [$sp+0]
	@DEBUG_VALUE: vsnprintf_ex:flags <- [DW_OP_plus_uconst 28] [$sp+0]
	@DEBUG_VALUE: vsnprintf_ex:width <- [DW_OP_plus_uconst 76] [$sp+0]
	cmp	r3, #42
	bne	.LBB0_119
.Ltmp215:
@ %bb.105:                              @   in Loop: Header=BB0_2 Depth=1
	@DEBUG_VALUE: vsnprintf_ex:q <- $r11
	@DEBUG_VALUE: vsnprintf_ex:ap <- $r10
	@DEBUG_VALUE: vsnprintf_ex:o <- $r6
	@DEBUG_VALUE: vsnprintf_ex:rank <- $r4
	@DEBUG_VALUE: vsnprintf_ex:ch <- $r3
	@DEBUG_VALUE: vsnprintf_ex:p <- $r2
	@DEBUG_VALUE: vsnprintf_ex:val <- [DW_OP_plus_uconst 12, DW_OP_LLVM_fragment 32 32] [$sp+0]
	@DEBUG_VALUE: vsnprintf_ex:val <- [DW_OP_plus_uconst 16, DW_OP_LLVM_fragment 0 32] [$sp+0]
	@DEBUG_VALUE: vsnprintf_ex:flags <- [DW_OP_plus_uconst 28] [$sp+0]
	@DEBUG_VALUE: vsnprintf_ex:width <- [DW_OP_plus_uconst 76] [$sp+0]
	.loc	1 317 13                        @ ../../../components/platform/soc/rt582/rt582_dongle/dongle/src/vprint.c:317:13
	ldr	r0, [r10], #4
.Ltmp216:
	@DEBUG_VALUE: vsnprintf_ex:width <- $r0
	@DEBUG_VALUE: vsnprintf_ex:ap <- $r10
	.loc	1 318 9                         @ ../../../components/platform/soc/rt582/rt582_dongle/dongle/src/vprint.c:318:9
	cmp.w	r0, #-1
	bgt.w	.LBB0_58
.Ltmp217:
@ %bb.106:                              @   in Loop: Header=BB0_2 Depth=1
	@DEBUG_VALUE: vsnprintf_ex:q <- $r11
	@DEBUG_VALUE: vsnprintf_ex:ap <- $r10
	@DEBUG_VALUE: vsnprintf_ex:o <- $r6
	@DEBUG_VALUE: vsnprintf_ex:rank <- $r4
	@DEBUG_VALUE: vsnprintf_ex:ch <- $r3
	@DEBUG_VALUE: vsnprintf_ex:p <- $r2
	@DEBUG_VALUE: vsnprintf_ex:width <- $r0
	@DEBUG_VALUE: vsnprintf_ex:val <- [DW_OP_plus_uconst 12, DW_OP_LLVM_fragment 32 32] [$sp+0]
	@DEBUG_VALUE: vsnprintf_ex:val <- [DW_OP_plus_uconst 16, DW_OP_LLVM_fragment 0 32] [$sp+0]
	@DEBUG_VALUE: vsnprintf_ex:flags <- [DW_OP_plus_uconst 28] [$sp+0]
	.loc	1 319 14                        @ ../../../components/platform/soc/rt582/rt582_dongle/dongle/src/vprint.c:319:14
	rsbs	r0, r0, #0
.Ltmp218:
	@DEBUG_VALUE: vsnprintf_ex:width <- $r0
	.loc	1 0 14 is_stmt 0                @ ../../../components/platform/soc/rt582/rt582_dongle/dongle/src/vprint.c:0:14
	str	r0, [sp, #76]                   @ 4-byte Spill
.Ltmp219:
	@DEBUG_VALUE: vsnprintf_ex:width <- [DW_OP_plus_uconst 76] [$sp+0]
	@DEBUG_VALUE: vsnprintf_ex:width <- [DW_OP_plus_uconst 76] [$sp+0]
	@DEBUG_VALUE: vsnprintf_ex:width <- [DW_OP_plus_uconst 76] [$sp+0]
	.loc	1 320 12 is_stmt 1              @ ../../../components/platform/soc/rt582/rt582_dongle/dongle/src/vprint.c:320:12
	ldr	r0, [sp, #28]                   @ 4-byte Reload
	orr	r0, r0, #2
.Ltmp220:
	@DEBUG_VALUE: vsnprintf_ex:flags <- $r0
	.loc	1 0 12 is_stmt 0                @ ../../../components/platform/soc/rt582/rt582_dongle/dongle/src/vprint.c:0:12
	str	r0, [sp, #28]                   @ 4-byte Spill
.Ltmp221:
	@DEBUG_VALUE: vsnprintf_ex:flags <- [DW_OP_plus_uconst 28] [$sp+0]
	@DEBUG_VALUE: vsnprintf_ex:flags <- [DW_OP_plus_uconst 28] [$sp+0]
	@DEBUG_VALUE: vsnprintf_ex:flags <- [DW_OP_plus_uconst 28] [$sp+0]
	b	.LBB0_59
.Ltmp222:
.LBB0_107:                              @   in Loop: Header=BB0_2 Depth=1
	@DEBUG_VALUE: vsnprintf_ex:q <- $r11
	@DEBUG_VALUE: vsnprintf_ex:ap <- $r10
	@DEBUG_VALUE: vsnprintf_ex:o <- $r6
	@DEBUG_VALUE: vsnprintf_ex:rank <- $r4
	@DEBUG_VALUE: vsnprintf_ex:ch <- $r3
	@DEBUG_VALUE: vsnprintf_ex:p <- $r2
	@DEBUG_VALUE: vsnprintf_ex:val <- [DW_OP_plus_uconst 12, DW_OP_LLVM_fragment 32 32] [$sp+0]
	@DEBUG_VALUE: vsnprintf_ex:val <- [DW_OP_plus_uconst 16, DW_OP_LLVM_fragment 0 32] [$sp+0]
	@DEBUG_VALUE: vsnprintf_ex:flags <- [DW_OP_plus_uconst 28] [$sp+0]
	@DEBUG_VALUE: vsnprintf_ex:width <- [DW_OP_plus_uconst 76] [$sp+0]
	.loc	1 334 15 is_stmt 1              @ ../../../components/platform/soc/rt582/rt582_dongle/dongle/src/vprint.c:334:15
	cmp	r3, #42
	bne	.LBB0_119
.Ltmp223:
@ %bb.108:                              @   in Loop: Header=BB0_2 Depth=1
	@DEBUG_VALUE: vsnprintf_ex:q <- $r11
	@DEBUG_VALUE: vsnprintf_ex:ap <- $r10
	@DEBUG_VALUE: vsnprintf_ex:o <- $r6
	@DEBUG_VALUE: vsnprintf_ex:rank <- $r4
	@DEBUG_VALUE: vsnprintf_ex:ch <- $r3
	@DEBUG_VALUE: vsnprintf_ex:p <- $r2
	@DEBUG_VALUE: vsnprintf_ex:val <- [DW_OP_plus_uconst 12, DW_OP_LLVM_fragment 32 32] [$sp+0]
	@DEBUG_VALUE: vsnprintf_ex:val <- [DW_OP_plus_uconst 16, DW_OP_LLVM_fragment 0 32] [$sp+0]
	@DEBUG_VALUE: vsnprintf_ex:flags <- [DW_OP_plus_uconst 28] [$sp+0]
	@DEBUG_VALUE: vsnprintf_ex:width <- [DW_OP_plus_uconst 76] [$sp+0]
	.loc	1 335 12                        @ ../../../components/platform/soc/rt582/rt582_dongle/dongle/src/vprint.c:335:12
	ldr	r0, [r10], #4
.Ltmp224:
	@DEBUG_VALUE: vsnprintf_ex:prec <- $r0
	@DEBUG_VALUE: vsnprintf_ex:ap <- $r10
	.loc	1 336 9                         @ ../../../components/platform/soc/rt582/rt582_dongle/dongle/src/vprint.c:336:9
	orr.w	r0, r0, r0, asr #31
.Ltmp225:
	@DEBUG_VALUE: vsnprintf_ex:prec <- $r0
.LBB0_109:                              @   in Loop: Header=BB0_2 Depth=1
	@DEBUG_VALUE: vsnprintf_ex:q <- $r11
	@DEBUG_VALUE: vsnprintf_ex:ap <- $r10
	@DEBUG_VALUE: vsnprintf_ex:o <- $r6
	@DEBUG_VALUE: vsnprintf_ex:rank <- $r4
	@DEBUG_VALUE: vsnprintf_ex:ch <- $r3
	@DEBUG_VALUE: vsnprintf_ex:p <- $r2
	@DEBUG_VALUE: vsnprintf_ex:prec <- $r0
	@DEBUG_VALUE: vsnprintf_ex:val <- [DW_OP_plus_uconst 12, DW_OP_LLVM_fragment 32 32] [$sp+0]
	@DEBUG_VALUE: vsnprintf_ex:val <- [DW_OP_plus_uconst 16, DW_OP_LLVM_fragment 0 32] [$sp+0]
	@DEBUG_VALUE: vsnprintf_ex:flags <- [DW_OP_plus_uconst 28] [$sp+0]
	@DEBUG_VALUE: vsnprintf_ex:width <- [DW_OP_plus_uconst 76] [$sp+0]
	.loc	1 0 9 is_stmt 0                 @ ../../../components/platform/soc/rt582/rt582_dongle/dongle/src/vprint.c:0:9
	str	r0, [sp, #36]                   @ 4-byte Spill
.Ltmp226:
	@DEBUG_VALUE: vsnprintf_ex:prec <- [DW_OP_plus_uconst 36] [$sp+0]
	@DEBUG_VALUE: vsnprintf_ex:prec <- [DW_OP_plus_uconst 36] [$sp+0]
	@DEBUG_VALUE: vsnprintf_ex:prec <- [DW_OP_plus_uconst 36] [$sp+0]
	movs	r0, #3
	b	.LBB0_204
.Ltmp227:
.LBB0_110:                              @   in Loop: Header=BB0_2 Depth=1
	@DEBUG_VALUE: vsnprintf_ex:rank <- [DW_OP_plus_uconst 68] [$sp+0]
	@DEBUG_VALUE: vsnprintf_ex:q <- $r11
	@DEBUG_VALUE: vsnprintf_ex:o <- $r8
	@DEBUG_VALUE: vsnprintf_ex:sarg <- $r6
	@DEBUG_VALUE: i <- $r5
	@DEBUG_VALUE: vsnprintf_ex:slen <- $r5
	@DEBUG_VALUE: vsnprintf_ex:val <- [DW_OP_plus_uconst 12, DW_OP_LLVM_fragment 32 32] [$sp+0]
	@DEBUG_VALUE: vsnprintf_ex:val <- [DW_OP_plus_uconst 16, DW_OP_LLVM_fragment 0 32] [$sp+0]
	@DEBUG_VALUE: vsnprintf_ex:flags <- [DW_OP_plus_uconst 28] [$sp+0]
	@DEBUG_VALUE: vsnprintf_ex:width <- [DW_OP_plus_uconst 76] [$sp+0]
	@DEBUG_VALUE: vsnprintf_ex:state <- 0
	mov	r6, r8
.Ltmp228:
	@DEBUG_VALUE: vsnprintf_ex:o <- $r6
	@DEBUG_VALUE: vsnprintf_ex:o <- $r6
.LBB0_111:                              @   in Loop: Header=BB0_2 Depth=1
	@DEBUG_VALUE: vsnprintf_ex:rank <- [DW_OP_plus_uconst 68] [$sp+0]
	@DEBUG_VALUE: vsnprintf_ex:q <- $r11
	@DEBUG_VALUE: vsnprintf_ex:slen <- $r5
	@DEBUG_VALUE: vsnprintf_ex:val <- [DW_OP_plus_uconst 12, DW_OP_LLVM_fragment 32 32] [$sp+0]
	@DEBUG_VALUE: vsnprintf_ex:val <- [DW_OP_plus_uconst 16, DW_OP_LLVM_fragment 0 32] [$sp+0]
	@DEBUG_VALUE: vsnprintf_ex:flags <- [DW_OP_plus_uconst 28] [$sp+0]
	@DEBUG_VALUE: vsnprintf_ex:width <- [DW_OP_plus_uconst 76] [$sp+0]
	@DEBUG_VALUE: vsnprintf_ex:state <- 0
	.loc	1 511 11 is_stmt 1              @ ../../../components/platform/soc/rt582/rt582_dongle/dongle/src/vprint.c:511:11
	ldr	r0, [sp, #84]                   @ 4-byte Reload
	add.w	r10, r10, #4
.Ltmp229:
	@DEBUG_VALUE: vsnprintf_ex:ap <- $r10
	cmp	r0, #0
	mov.w	r0, #0
	beq	.LBB0_128
.Ltmp230:
@ %bb.112:                              @   in Loop: Header=BB0_2 Depth=1
	@DEBUG_VALUE: vsnprintf_ex:rank <- [DW_OP_plus_uconst 68] [$sp+0]
	@DEBUG_VALUE: vsnprintf_ex:q <- $r11
	@DEBUG_VALUE: vsnprintf_ex:ap <- $r10
	@DEBUG_VALUE: vsnprintf_ex:slen <- $r5
	@DEBUG_VALUE: vsnprintf_ex:val <- [DW_OP_plus_uconst 12, DW_OP_LLVM_fragment 32 32] [$sp+0]
	@DEBUG_VALUE: vsnprintf_ex:val <- [DW_OP_plus_uconst 16, DW_OP_LLVM_fragment 0 32] [$sp+0]
	@DEBUG_VALUE: vsnprintf_ex:flags <- [DW_OP_plus_uconst 28] [$sp+0]
	@DEBUG_VALUE: vsnprintf_ex:width <- [DW_OP_plus_uconst 76] [$sp+0]
	@DEBUG_VALUE: vsnprintf_ex:state <- 0
	.loc	1 0 11 is_stmt 0                @ ../../../components/platform/soc/rt582/rt582_dongle/dongle/src/vprint.c:0:11
	ldr	r1, [sp, #76]                   @ 4-byte Reload
	movw	r8, :lower16:__stdout
	.loc	1 511 11                        @ ../../../components/platform/soc/rt582/rt582_dongle/dongle/src/vprint.c:511:11
	cmp	r1, r5
	movt	r8, :upper16:__stdout
	ble	.LBB0_118
.Ltmp231:
@ %bb.113:                              @   in Loop: Header=BB0_2 Depth=1
	@DEBUG_VALUE: vsnprintf_ex:rank <- [DW_OP_plus_uconst 68] [$sp+0]
	@DEBUG_VALUE: vsnprintf_ex:q <- $r11
	@DEBUG_VALUE: vsnprintf_ex:ap <- $r10
	@DEBUG_VALUE: vsnprintf_ex:slen <- $r5
	@DEBUG_VALUE: vsnprintf_ex:val <- [DW_OP_plus_uconst 12, DW_OP_LLVM_fragment 32 32] [$sp+0]
	@DEBUG_VALUE: vsnprintf_ex:val <- [DW_OP_plus_uconst 16, DW_OP_LLVM_fragment 0 32] [$sp+0]
	@DEBUG_VALUE: vsnprintf_ex:flags <- [DW_OP_plus_uconst 28] [$sp+0]
	@DEBUG_VALUE: vsnprintf_ex:width <- [DW_OP_plus_uconst 76] [$sp+0]
	@DEBUG_VALUE: vsnprintf_ex:state <- 0
	.loc	1 512 8 is_stmt 1               @ ../../../components/platform/soc/rt582/rt582_dongle/dongle/src/vprint.c:512:8
	adds	r4, r1, r6
.Ltmp232:
	.p2align	2
.LBB0_114:                              @   Parent Loop BB0_2 Depth=1
                                        @ =>  This Inner Loop Header: Depth=2
	@DEBUG_VALUE: vsnprintf_ex:rank <- [DW_OP_plus_uconst 68] [$sp+0]
	@DEBUG_VALUE: vsnprintf_ex:q <- $r11
	@DEBUG_VALUE: vsnprintf_ex:ap <- $r10
	@DEBUG_VALUE: vsnprintf_ex:slen <- $r5
	@DEBUG_VALUE: vsnprintf_ex:val <- [DW_OP_plus_uconst 12, DW_OP_LLVM_fragment 32 32] [$sp+0]
	@DEBUG_VALUE: vsnprintf_ex:val <- [DW_OP_plus_uconst 16, DW_OP_LLVM_fragment 0 32] [$sp+0]
	@DEBUG_VALUE: vsnprintf_ex:flags <- [DW_OP_plus_uconst 28] [$sp+0]
	@DEBUG_VALUE: vsnprintf_ex:width <- [DW_OP_plus_uconst 76] [$sp+0]
	@DEBUG_VALUE: vsnprintf_ex:state <- 0
	@DEBUG_VALUE: vsnprintf_ex:q <- $r11
	@DEBUG_VALUE: vsnprintf_ex:o <- $r6
	@DEBUG_VALUE: vsnprintf_ex:width <- [DW_OP_plus_uconst 76] [$sp+0]
	.loc	1 513 9                         @ ../../../components/platform/soc/rt582/rt582_dongle/dongle/src/vprint.c:513:9
	cmp	r6, r9
	bhs	.LBB0_116
.Ltmp233:
@ %bb.115:                              @   in Loop: Header=BB0_114 Depth=2
	@DEBUG_VALUE: vsnprintf_ex:rank <- [DW_OP_plus_uconst 68] [$sp+0]
	@DEBUG_VALUE: vsnprintf_ex:q <- $r11
	@DEBUG_VALUE: vsnprintf_ex:ap <- $r10
	@DEBUG_VALUE: vsnprintf_ex:o <- $r6
	@DEBUG_VALUE: vsnprintf_ex:slen <- $r5
	@DEBUG_VALUE: vsnprintf_ex:val <- [DW_OP_plus_uconst 12, DW_OP_LLVM_fragment 32 32] [$sp+0]
	@DEBUG_VALUE: vsnprintf_ex:val <- [DW_OP_plus_uconst 16, DW_OP_LLVM_fragment 0 32] [$sp+0]
	@DEBUG_VALUE: vsnprintf_ex:flags <- [DW_OP_plus_uconst 28] [$sp+0]
	@DEBUG_VALUE: vsnprintf_ex:width <- [DW_OP_plus_uconst 76] [$sp+0]
	@DEBUG_VALUE: vsnprintf_ex:state <- 0
	.loc	1 513 9 is_stmt 0               @ ../../../components/platform/soc/rt582/rt582_dongle/dongle/src/vprint.c:513:9
	movs	r0, #32
	mov	r1, r8
	bl	putc
.Ltmp234:
	add.w	r11, r11, #1
.Ltmp235:
	@DEBUG_VALUE: vsnprintf_ex:q <- $r11
.LBB0_116:                              @   in Loop: Header=BB0_114 Depth=2
	@DEBUG_VALUE: vsnprintf_ex:rank <- [DW_OP_plus_uconst 68] [$sp+0]
	@DEBUG_VALUE: vsnprintf_ex:q <- $r11
	@DEBUG_VALUE: vsnprintf_ex:ap <- $r10
	@DEBUG_VALUE: vsnprintf_ex:o <- $r6
	@DEBUG_VALUE: vsnprintf_ex:slen <- $r5
	@DEBUG_VALUE: vsnprintf_ex:val <- [DW_OP_plus_uconst 12, DW_OP_LLVM_fragment 32 32] [$sp+0]
	@DEBUG_VALUE: vsnprintf_ex:val <- [DW_OP_plus_uconst 16, DW_OP_LLVM_fragment 0 32] [$sp+0]
	@DEBUG_VALUE: vsnprintf_ex:flags <- [DW_OP_plus_uconst 28] [$sp+0]
	@DEBUG_VALUE: vsnprintf_ex:width <- [DW_OP_plus_uconst 76] [$sp+0]
	@DEBUG_VALUE: vsnprintf_ex:state <- 0
	@DEBUG_VALUE: vsnprintf_ex:q <- $r11
	.loc	1 0 9                           @ ../../../components/platform/soc/rt582/rt582_dongle/dongle/src/vprint.c:0:9
	ldr	r0, [sp, #76]                   @ 4-byte Reload
	.loc	1 513 9                         @ ../../../components/platform/soc/rt582/rt582_dongle/dongle/src/vprint.c:513:9
	adds	r6, #1
.Ltmp236:
	@DEBUG_VALUE: vsnprintf_ex:o <- $r6
	.loc	1 514 14 is_stmt 1              @ ../../../components/platform/soc/rt582/rt582_dongle/dongle/src/vprint.c:514:14
	subs	r0, #1
.Ltmp237:
	@DEBUG_VALUE: vsnprintf_ex:width <- $r0
	.loc	1 512 8                         @ ../../../components/platform/soc/rt582/rt582_dongle/dongle/src/vprint.c:512:8
	cmp	r0, r5
	str	r0, [sp, #76]                   @ 4-byte Spill
.Ltmp238:
	@DEBUG_VALUE: vsnprintf_ex:width <- [DW_OP_plus_uconst 76] [$sp+0]
	@DEBUG_VALUE: vsnprintf_ex:width <- [DW_OP_plus_uconst 76] [$sp+0]
	@DEBUG_VALUE: vsnprintf_ex:width <- [DW_OP_plus_uconst 76] [$sp+0]
	bgt	.LBB0_114
.Ltmp239:
@ %bb.117:                              @   in Loop: Header=BB0_2 Depth=1
	@DEBUG_VALUE: vsnprintf_ex:rank <- [DW_OP_plus_uconst 68] [$sp+0]
	@DEBUG_VALUE: vsnprintf_ex:q <- $r11
	@DEBUG_VALUE: vsnprintf_ex:ap <- $r10
	@DEBUG_VALUE: vsnprintf_ex:o <- $r6
	@DEBUG_VALUE: vsnprintf_ex:slen <- $r5
	@DEBUG_VALUE: vsnprintf_ex:val <- [DW_OP_plus_uconst 12, DW_OP_LLVM_fragment 32 32] [$sp+0]
	@DEBUG_VALUE: vsnprintf_ex:val <- [DW_OP_plus_uconst 16, DW_OP_LLVM_fragment 0 32] [$sp+0]
	@DEBUG_VALUE: vsnprintf_ex:flags <- [DW_OP_plus_uconst 28] [$sp+0]
	@DEBUG_VALUE: vsnprintf_ex:width <- [DW_OP_plus_uconst 76] [$sp+0]
	@DEBUG_VALUE: vsnprintf_ex:state <- 0
	subs	r6, r4, r5
.Ltmp240:
	.loc	1 0 8 is_stmt 0                 @ ../../../components/platform/soc/rt582/rt582_dongle/dongle/src/vprint.c:0:8
	movs	r0, #0
.Ltmp241:
	str	r5, [sp, #76]                   @ 4-byte Spill
.Ltmp242:
	@DEBUG_VALUE: vsnprintf_ex:slen <- [DW_OP_plus_uconst 76] [$sp+0]
	@DEBUG_VALUE: vsnprintf_ex:slen <- [DW_OP_plus_uconst 76] [$sp+0]
.LBB0_118:                              @   in Loop: Header=BB0_2 Depth=1
	@DEBUG_VALUE: vsnprintf_ex:rank <- [DW_OP_plus_uconst 68] [$sp+0]
	@DEBUG_VALUE: vsnprintf_ex:q <- $r11
	@DEBUG_VALUE: vsnprintf_ex:ap <- $r10
	@DEBUG_VALUE: vsnprintf_ex:val <- [DW_OP_plus_uconst 12, DW_OP_LLVM_fragment 32 32] [$sp+0]
	@DEBUG_VALUE: vsnprintf_ex:val <- [DW_OP_plus_uconst 16, DW_OP_LLVM_fragment 0 32] [$sp+0]
	@DEBUG_VALUE: vsnprintf_ex:flags <- [DW_OP_plus_uconst 28] [$sp+0]
	@DEBUG_VALUE: vsnprintf_ex:width <- [DW_OP_plus_uconst 76] [$sp+0]
	@DEBUG_VALUE: vsnprintf_ex:state <- 0
	ldr	r2, [sp, #52]                   @ 4-byte Reload
	b	.LBB0_206
.Ltmp243:
.LBB0_119:                              @   in Loop: Header=BB0_2 Depth=1
	@DEBUG_VALUE: vsnprintf_ex:q <- $r11
	@DEBUG_VALUE: vsnprintf_ex:ap <- $r10
	@DEBUG_VALUE: vsnprintf_ex:o <- $r6
	@DEBUG_VALUE: vsnprintf_ex:rank <- $r4
	@DEBUG_VALUE: vsnprintf_ex:ch <- $r3
	@DEBUG_VALUE: vsnprintf_ex:p <- $r2
	@DEBUG_VALUE: vsnprintf_ex:val <- [DW_OP_plus_uconst 12, DW_OP_LLVM_fragment 32 32] [$sp+0]
	@DEBUG_VALUE: vsnprintf_ex:val <- [DW_OP_plus_uconst 16, DW_OP_LLVM_fragment 0 32] [$sp+0]
	@DEBUG_VALUE: vsnprintf_ex:flags <- [DW_OP_plus_uconst 28] [$sp+0]
	@DEBUG_VALUE: vsnprintf_ex:width <- [DW_OP_plus_uconst 76] [$sp+0]
	movs	r0, #4
.Ltmp244:
	@DEBUG_VALUE: vsnprintf_ex:state <- 4
	@DEBUG_VALUE: vsnprintf_ex:p <- $r2
	b	.LBB0_127
.Ltmp245:
.LBB0_120:                              @   in Loop: Header=BB0_2 Depth=1
	@DEBUG_VALUE: vsnprintf_ex:base <- [DW_OP_plus_uconst 80] [$sp+0]
	@DEBUG_VALUE: vsnprintf_ex:q <- $r11
	@DEBUG_VALUE: vsnprintf_ex:ap <- $r10
	@DEBUG_VALUE: vsnprintf_ex:o <- $r6
	@DEBUG_VALUE: vsnprintf_ex:rank <- $r2
	@DEBUG_VALUE: vsnprintf_ex:val <- [DW_OP_plus_uconst 12, DW_OP_LLVM_fragment 32 32] [$sp+0]
	@DEBUG_VALUE: vsnprintf_ex:val <- [DW_OP_plus_uconst 16, DW_OP_LLVM_fragment 0 32] [$sp+0]
	@DEBUG_VALUE: vsnprintf_ex:flags <- [DW_OP_plus_uconst 28] [$sp+0]
	@DEBUG_VALUE: vsnprintf_ex:width <- [DW_OP_plus_uconst 76] [$sp+0]
	@DEBUG_VALUE: vsnprintf_ex:state <- 0
	.loc	1 448 8 is_stmt 1               @ ../../../components/platform/soc/rt582/rt582_dongle/dongle/src/vprint.c:448:8
	ldrh	r3, [r10], #4
.Ltmp246:
	@DEBUG_VALUE: vsnprintf_ex:ap <- $r10
	.loc	1 0 8 is_stmt 0                 @ ../../../components/platform/soc/rt582/rt582_dongle/dongle/src/vprint.c:0:8
	movs	r7, #0
.Ltmp247:
	@DEBUG_VALUE: vsnprintf_ex:val <- [DW_OP_LLVM_fragment 32 32] $r7
	b	.LBB0_132
.Ltmp248:
.LBB0_121:                              @   in Loop: Header=BB0_2 Depth=1
	@DEBUG_VALUE: vsnprintf_ex:base <- [DW_OP_plus_uconst 80] [$sp+0]
	@DEBUG_VALUE: vsnprintf_ex:q <- $r11
	@DEBUG_VALUE: vsnprintf_ex:ap <- $r10
	@DEBUG_VALUE: vsnprintf_ex:o <- $r6
	@DEBUG_VALUE: vsnprintf_ex:rank <- $r2
	@DEBUG_VALUE: vsnprintf_ex:val <- [DW_OP_plus_uconst 12, DW_OP_LLVM_fragment 32 32] [$sp+0]
	@DEBUG_VALUE: vsnprintf_ex:val <- [DW_OP_plus_uconst 16, DW_OP_LLVM_fragment 0 32] [$sp+0]
	@DEBUG_VALUE: vsnprintf_ex:flags <- [DW_OP_plus_uconst 28] [$sp+0]
	@DEBUG_VALUE: vsnprintf_ex:width <- [DW_OP_plus_uconst 76] [$sp+0]
	@DEBUG_VALUE: vsnprintf_ex:state <- 0
	.loc	1 453 8 is_stmt 1               @ ../../../components/platform/soc/rt582/rt582_dongle/dongle/src/vprint.c:453:8
	ldr	r3, [r10], #4
.Ltmp249:
	@DEBUG_VALUE: vsnprintf_ex:ap <- $r10
	.loc	1 0 8 is_stmt 0                 @ ../../../components/platform/soc/rt582/rt582_dongle/dongle/src/vprint.c:0:8
	movs	r0, #0
.Ltmp250:
	@DEBUG_VALUE: vsnprintf_ex:val <- [DW_OP_LLVM_fragment 32 32] $r0
	@DEBUG_VALUE: vsnprintf_ex:val <- [DW_OP_LLVM_fragment 0 32] $r3
	str	r0, [sp, #68]                   @ 4-byte Spill
.Ltmp251:
	@DEBUG_VALUE: vsnprintf_ex:val <- [DW_OP_plus_uconst 68, DW_OP_LLVM_fragment 32 32] [$sp+0]
	@DEBUG_VALUE: vsnprintf_ex:val <- [DW_OP_plus_uconst 68, DW_OP_LLVM_fragment 32 32] [$sp+0]
	@DEBUG_VALUE: vsnprintf_ex:val <- [DW_OP_plus_uconst 68, DW_OP_LLVM_fragment 32 32] [$sp+0]
	movs	r7, #0
	b	.LBB0_139
.Ltmp252:
.LBB0_122:                              @   in Loop: Header=BB0_2 Depth=1
	@DEBUG_VALUE: vsnprintf_ex:base <- [DW_OP_plus_uconst 80] [$sp+0]
	@DEBUG_VALUE: vsnprintf_ex:q <- $r11
	@DEBUG_VALUE: vsnprintf_ex:ap <- $r10
	@DEBUG_VALUE: vsnprintf_ex:o <- $r6
	@DEBUG_VALUE: vsnprintf_ex:rank <- $r2
	@DEBUG_VALUE: vsnprintf_ex:val <- [DW_OP_plus_uconst 12, DW_OP_LLVM_fragment 32 32] [$sp+0]
	@DEBUG_VALUE: vsnprintf_ex:val <- [DW_OP_plus_uconst 16, DW_OP_LLVM_fragment 0 32] [$sp+0]
	@DEBUG_VALUE: vsnprintf_ex:flags <- [DW_OP_plus_uconst 28] [$sp+0]
	@DEBUG_VALUE: vsnprintf_ex:width <- [DW_OP_plus_uconst 76] [$sp+0]
	@DEBUG_VALUE: vsnprintf_ex:state <- 0
	.loc	1 458 8 is_stmt 1               @ ../../../components/platform/soc/rt582/rt582_dongle/dongle/src/vprint.c:458:8
	ldr	r3, [r10], #4
.Ltmp253:
	@DEBUG_VALUE: vsnprintf_ex:ap <- $r10
	.loc	1 0 8 is_stmt 0                 @ ../../../components/platform/soc/rt582/rt582_dongle/dongle/src/vprint.c:0:8
	movs	r7, #0
.Ltmp254:
	@DEBUG_VALUE: vsnprintf_ex:val <- [DW_OP_LLVM_fragment 32 32] $r7
	b	.LBB0_135
.Ltmp255:
.LBB0_123:                              @   in Loop: Header=BB0_2 Depth=1
	@DEBUG_VALUE: vsnprintf_ex:base <- [DW_OP_plus_uconst 80] [$sp+0]
	@DEBUG_VALUE: vsnprintf_ex:q <- $r11
	@DEBUG_VALUE: vsnprintf_ex:ap <- $r10
	@DEBUG_VALUE: vsnprintf_ex:o <- $r6
	@DEBUG_VALUE: vsnprintf_ex:rank <- $r2
	@DEBUG_VALUE: vsnprintf_ex:val <- [DW_OP_plus_uconst 12, DW_OP_LLVM_fragment 32 32] [$sp+0]
	@DEBUG_VALUE: vsnprintf_ex:val <- [DW_OP_plus_uconst 16, DW_OP_LLVM_fragment 0 32] [$sp+0]
	@DEBUG_VALUE: vsnprintf_ex:flags <- [DW_OP_plus_uconst 28] [$sp+0]
	@DEBUG_VALUE: vsnprintf_ex:width <- [DW_OP_plus_uconst 76] [$sp+0]
	@DEBUG_VALUE: vsnprintf_ex:state <- 0
	.loc	1 463 8 is_stmt 1               @ ../../../components/platform/soc/rt582/rt582_dongle/dongle/src/vprint.c:463:8
	add.w	r0, r10, #7
	bic	r10, r0, #7
.Ltmp256:
	ldr.w	r7, [r10, #4]
.Ltmp257:
	@DEBUG_VALUE: vsnprintf_ex:val <- [DW_OP_LLVM_fragment 32 32] $r7
	ldr	r3, [r10], #8
.Ltmp258:
	@DEBUG_VALUE: vsnprintf_ex:val <- [DW_OP_LLVM_fragment 0 32] $r3
	@DEBUG_VALUE: vsnprintf_ex:ap <- $r10
	.loc	1 0 8 is_stmt 0                 @ ../../../components/platform/soc/rt582/rt582_dongle/dongle/src/vprint.c:0:8
	b	.LBB0_137
.Ltmp259:
.LBB0_124:                              @   in Loop: Header=BB0_2 Depth=1
	@DEBUG_VALUE: vsnprintf_ex:q <- $r11
	@DEBUG_VALUE: vsnprintf_ex:ap <- $r10
	@DEBUG_VALUE: vsnprintf_ex:o <- $r6
	@DEBUG_VALUE: vsnprintf_ex:rank <- $r4
	@DEBUG_VALUE: vsnprintf_ex:ch <- $r3
	@DEBUG_VALUE: vsnprintf_ex:p <- $r2
	@DEBUG_VALUE: vsnprintf_ex:val <- [DW_OP_plus_uconst 12, DW_OP_LLVM_fragment 32 32] [$sp+0]
	@DEBUG_VALUE: vsnprintf_ex:val <- [DW_OP_plus_uconst 16, DW_OP_LLVM_fragment 0 32] [$sp+0]
	@DEBUG_VALUE: vsnprintf_ex:flags <- [DW_OP_plus_uconst 28] [$sp+0]
	@DEBUG_VALUE: vsnprintf_ex:width <- [DW_OP_plus_uconst 76] [$sp+0]
	.loc	1 287 4 is_stmt 1               @ ../../../components/platform/soc/rt582/rt582_dongle/dongle/src/vprint.c:287:4
	cmp	r3, #32
	beq.w	.LBB0_202
.Ltmp260:
@ %bb.125:                              @   in Loop: Header=BB0_2 Depth=1
	@DEBUG_VALUE: vsnprintf_ex:q <- $r11
	@DEBUG_VALUE: vsnprintf_ex:ap <- $r10
	@DEBUG_VALUE: vsnprintf_ex:o <- $r6
	@DEBUG_VALUE: vsnprintf_ex:rank <- $r4
	@DEBUG_VALUE: vsnprintf_ex:ch <- $r3
	@DEBUG_VALUE: vsnprintf_ex:p <- $r2
	@DEBUG_VALUE: vsnprintf_ex:val <- [DW_OP_plus_uconst 12, DW_OP_LLVM_fragment 32 32] [$sp+0]
	@DEBUG_VALUE: vsnprintf_ex:val <- [DW_OP_plus_uconst 16, DW_OP_LLVM_fragment 0 32] [$sp+0]
	@DEBUG_VALUE: vsnprintf_ex:flags <- [DW_OP_plus_uconst 28] [$sp+0]
	@DEBUG_VALUE: vsnprintf_ex:width <- [DW_OP_plus_uconst 76] [$sp+0]
	cmp	r3, #35
	bne	.LBB0_127
.Ltmp261:
@ %bb.126:                              @   in Loop: Header=BB0_2 Depth=1
	@DEBUG_VALUE: vsnprintf_ex:q <- $r11
	@DEBUG_VALUE: vsnprintf_ex:ap <- $r10
	@DEBUG_VALUE: vsnprintf_ex:o <- $r6
	@DEBUG_VALUE: vsnprintf_ex:rank <- $r4
	@DEBUG_VALUE: vsnprintf_ex:ch <- $r3
	@DEBUG_VALUE: vsnprintf_ex:p <- $r2
	@DEBUG_VALUE: vsnprintf_ex:val <- [DW_OP_plus_uconst 12, DW_OP_LLVM_fragment 32 32] [$sp+0]
	@DEBUG_VALUE: vsnprintf_ex:val <- [DW_OP_plus_uconst 16, DW_OP_LLVM_fragment 0 32] [$sp+0]
	@DEBUG_VALUE: vsnprintf_ex:flags <- [DW_OP_plus_uconst 28] [$sp+0]
	@DEBUG_VALUE: vsnprintf_ex:width <- [DW_OP_plus_uconst 76] [$sp+0]
	.loc	1 301 11                        @ ../../../components/platform/soc/rt582/rt582_dongle/dongle/src/vprint.c:301:11
	ldr	r0, [sp, #28]                   @ 4-byte Reload
	orr	r0, r0, #32
.Ltmp262:
	@DEBUG_VALUE: vsnprintf_ex:flags <- $r0
	.loc	1 0 11 is_stmt 0                @ ../../../components/platform/soc/rt582/rt582_dongle/dongle/src/vprint.c:0:11
	b	.LBB0_203
.Ltmp263:
.LBB0_127:                              @   in Loop: Header=BB0_2 Depth=1
	@DEBUG_VALUE: vsnprintf_ex:q <- $r11
	@DEBUG_VALUE: vsnprintf_ex:ap <- $r10
	@DEBUG_VALUE: vsnprintf_ex:o <- $r6
	@DEBUG_VALUE: vsnprintf_ex:rank <- $r4
	@DEBUG_VALUE: vsnprintf_ex:ch <- $r3
	@DEBUG_VALUE: vsnprintf_ex:p <- $r2
	@DEBUG_VALUE: vsnprintf_ex:val <- [DW_OP_plus_uconst 12, DW_OP_LLVM_fragment 32 32] [$sp+0]
	@DEBUG_VALUE: vsnprintf_ex:val <- [DW_OP_plus_uconst 16, DW_OP_LLVM_fragment 0 32] [$sp+0]
	@DEBUG_VALUE: vsnprintf_ex:flags <- [DW_OP_plus_uconst 28] [$sp+0]
	@DEBUG_VALUE: vsnprintf_ex:width <- [DW_OP_plus_uconst 76] [$sp+0]
	str	r4, [sp, #68]                   @ 4-byte Spill
.Ltmp264:
	@DEBUG_VALUE: vsnprintf_ex:rank <- [DW_OP_plus_uconst 68] [$sp+0]
	@DEBUG_VALUE: vsnprintf_ex:rank <- [DW_OP_plus_uconst 68] [$sp+0]
	b	.LBB0_206
.Ltmp265:
.LBB0_128:                              @   in Loop: Header=BB0_2 Depth=1
	@DEBUG_VALUE: vsnprintf_ex:rank <- [DW_OP_plus_uconst 68] [$sp+0]
	@DEBUG_VALUE: vsnprintf_ex:q <- $r11
	@DEBUG_VALUE: vsnprintf_ex:ap <- $r10
	@DEBUG_VALUE: vsnprintf_ex:slen <- $r5
	@DEBUG_VALUE: vsnprintf_ex:val <- [DW_OP_plus_uconst 12, DW_OP_LLVM_fragment 32 32] [$sp+0]
	@DEBUG_VALUE: vsnprintf_ex:val <- [DW_OP_plus_uconst 16, DW_OP_LLVM_fragment 0 32] [$sp+0]
	@DEBUG_VALUE: vsnprintf_ex:flags <- [DW_OP_plus_uconst 28] [$sp+0]
	@DEBUG_VALUE: vsnprintf_ex:width <- [DW_OP_plus_uconst 76] [$sp+0]
	@DEBUG_VALUE: vsnprintf_ex:state <- 0
	ldr	r2, [sp, #52]                   @ 4-byte Reload
	movw	r8, :lower16:__stdout
	movt	r8, :upper16:__stdout
	b	.LBB0_206
.Ltmp266:
.LBB0_129:                              @   in Loop: Header=BB0_2 Depth=1
	@DEBUG_VALUE: vsnprintf_ex:q <- $r11
	@DEBUG_VALUE: vsnprintf_ex:ap <- $r10
	@DEBUG_VALUE: vsnprintf_ex:o <- $r6
	@DEBUG_VALUE: vsnprintf_ex:ch <- $r3
	@DEBUG_VALUE: vsnprintf_ex:rank <- $r2
	@DEBUG_VALUE: vsnprintf_ex:val <- [DW_OP_plus_uconst 12, DW_OP_LLVM_fragment 32 32] [$sp+0]
	@DEBUG_VALUE: vsnprintf_ex:val <- [DW_OP_plus_uconst 16, DW_OP_LLVM_fragment 0 32] [$sp+0]
	@DEBUG_VALUE: vsnprintf_ex:flags <- [DW_OP_plus_uconst 28] [$sp+0]
	@DEBUG_VALUE: vsnprintf_ex:width <- [DW_OP_plus_uconst 76] [$sp+0]
	@DEBUG_VALUE: vsnprintf_ex:base <- 10
	@DEBUG_VALUE: vsnprintf_ex:state <- 0
	movs	r0, #10
	str	r0, [sp, #80]                   @ 4-byte Spill
.Ltmp267:
.LBB0_130:                              @   in Loop: Header=BB0_2 Depth=1
	@DEBUG_VALUE: vsnprintf_ex:q <- $r11
	@DEBUG_VALUE: vsnprintf_ex:ap <- $r10
	@DEBUG_VALUE: vsnprintf_ex:o <- $r6
	@DEBUG_VALUE: vsnprintf_ex:rank <- $r2
	@DEBUG_VALUE: vsnprintf_ex:val <- [DW_OP_plus_uconst 12, DW_OP_LLVM_fragment 32 32] [$sp+0]
	@DEBUG_VALUE: vsnprintf_ex:val <- [DW_OP_plus_uconst 16, DW_OP_LLVM_fragment 0 32] [$sp+0]
	@DEBUG_VALUE: vsnprintf_ex:flags <- [DW_OP_plus_uconst 28] [$sp+0]
	@DEBUG_VALUE: vsnprintf_ex:width <- [DW_OP_plus_uconst 76] [$sp+0]
	@DEBUG_VALUE: vsnprintf_ex:state <- 0
	ldrd	r7, r3, [sp, #12]               @ 8-byte Folded Reload
	str	r4, [sp, #68]                   @ 4-byte Spill
	b	.LBB0_139
.Ltmp268:
.LBB0_131:                              @   in Loop: Header=BB0_2 Depth=1
	@DEBUG_VALUE: vsnprintf_ex:q <- $r11
	@DEBUG_VALUE: vsnprintf_ex:ap <- $r10
	@DEBUG_VALUE: vsnprintf_ex:o <- $r6
	@DEBUG_VALUE: vsnprintf_ex:ch <- $r3
	@DEBUG_VALUE: vsnprintf_ex:rank <- $r2
	@DEBUG_VALUE: vsnprintf_ex:val <- [DW_OP_plus_uconst 12, DW_OP_LLVM_fragment 32 32] [$sp+0]
	@DEBUG_VALUE: vsnprintf_ex:val <- [DW_OP_plus_uconst 16, DW_OP_LLVM_fragment 0 32] [$sp+0]
	@DEBUG_VALUE: vsnprintf_ex:flags <- [DW_OP_plus_uconst 28] [$sp+0]
	@DEBUG_VALUE: vsnprintf_ex:width <- [DW_OP_plus_uconst 76] [$sp+0]
	@DEBUG_VALUE: vsnprintf_ex:base <- 10
	@DEBUG_VALUE: vsnprintf_ex:state <- 0
	.loc	1 406 8 is_stmt 1               @ ../../../components/platform/soc/rt582/rt582_dongle/dongle/src/vprint.c:406:8
	ldrsh	r3, [r10], #4
.Ltmp269:
	@DEBUG_VALUE: vsnprintf_ex:ap <- $r10
	.loc	1 0 8 is_stmt 0                 @ ../../../components/platform/soc/rt582/rt582_dongle/dongle/src/vprint.c:0:8
	movs	r0, #10
	.loc	1 406 8                         @ ../../../components/platform/soc/rt582/rt582_dongle/dongle/src/vprint.c:406:8
	asrs	r7, r3, #31
.Ltmp270:
	@DEBUG_VALUE: vsnprintf_ex:val <- [DW_OP_LLVM_fragment 32 32] $r7
	.loc	1 0 8                           @ ../../../components/platform/soc/rt582/rt582_dongle/dongle/src/vprint.c:0:8
	str	r0, [sp, #80]                   @ 4-byte Spill
.Ltmp271:
.LBB0_132:                              @   in Loop: Header=BB0_2 Depth=1
	@DEBUG_VALUE: vsnprintf_ex:q <- $r11
	@DEBUG_VALUE: vsnprintf_ex:ap <- $r10
	@DEBUG_VALUE: vsnprintf_ex:val <- [DW_OP_LLVM_fragment 32 32] $r7
	@DEBUG_VALUE: vsnprintf_ex:o <- $r6
	@DEBUG_VALUE: vsnprintf_ex:rank <- $r2
	@DEBUG_VALUE: vsnprintf_ex:val <- [DW_OP_plus_uconst 16, DW_OP_LLVM_fragment 0 32] [$sp+0]
	@DEBUG_VALUE: vsnprintf_ex:flags <- [DW_OP_plus_uconst 28] [$sp+0]
	@DEBUG_VALUE: vsnprintf_ex:width <- [DW_OP_plus_uconst 76] [$sp+0]
	@DEBUG_VALUE: vsnprintf_ex:state <- 0
	mov.w	r0, #-1
.Ltmp272:
	@DEBUG_VALUE: vsnprintf_ex:val <- [DW_OP_LLVM_fragment 0 32] $r3
	b	.LBB0_138
.Ltmp273:
.LBB0_133:                              @   in Loop: Header=BB0_2 Depth=1
	@DEBUG_VALUE: vsnprintf_ex:q <- $r11
	@DEBUG_VALUE: vsnprintf_ex:ap <- $r10
	@DEBUG_VALUE: vsnprintf_ex:o <- $r6
	@DEBUG_VALUE: vsnprintf_ex:ch <- $r3
	@DEBUG_VALUE: vsnprintf_ex:rank <- $r2
	@DEBUG_VALUE: vsnprintf_ex:val <- [DW_OP_plus_uconst 12, DW_OP_LLVM_fragment 32 32] [$sp+0]
	@DEBUG_VALUE: vsnprintf_ex:val <- [DW_OP_plus_uconst 16, DW_OP_LLVM_fragment 0 32] [$sp+0]
	@DEBUG_VALUE: vsnprintf_ex:flags <- [DW_OP_plus_uconst 28] [$sp+0]
	@DEBUG_VALUE: vsnprintf_ex:width <- [DW_OP_plus_uconst 76] [$sp+0]
	@DEBUG_VALUE: vsnprintf_ex:base <- 10
	@DEBUG_VALUE: vsnprintf_ex:state <- 0
	.loc	1 410 11 is_stmt 1              @ ../../../components/platform/soc/rt582/rt582_dongle/dongle/src/vprint.c:410:11
	ldr	r3, [r10], #4
.Ltmp274:
	@DEBUG_VALUE: vsnprintf_ex:ap <- $r10
	.loc	1 0 11 is_stmt 0                @ ../../../components/platform/soc/rt582/rt582_dongle/dongle/src/vprint.c:0:11
	movs	r0, #10
	.loc	1 410 11                        @ ../../../components/platform/soc/rt582/rt582_dongle/dongle/src/vprint.c:410:11
	asrs	r7, r3, #31
.Ltmp275:
	@DEBUG_VALUE: vsnprintf_ex:val <- [DW_OP_LLVM_fragment 32 32] $r7
	.loc	1 0 11                          @ ../../../components/platform/soc/rt582/rt582_dongle/dongle/src/vprint.c:0:11
	str	r0, [sp, #80]                   @ 4-byte Spill
	movs	r0, #0
.Ltmp276:
	@DEBUG_VALUE: vsnprintf_ex:val <- [DW_OP_LLVM_fragment 0 32] $r3
	b	.LBB0_138
.Ltmp277:
.LBB0_134:                              @   in Loop: Header=BB0_2 Depth=1
	@DEBUG_VALUE: vsnprintf_ex:q <- $r11
	@DEBUG_VALUE: vsnprintf_ex:ap <- $r10
	@DEBUG_VALUE: vsnprintf_ex:o <- $r6
	@DEBUG_VALUE: vsnprintf_ex:ch <- $r3
	@DEBUG_VALUE: vsnprintf_ex:rank <- $r2
	@DEBUG_VALUE: vsnprintf_ex:val <- [DW_OP_plus_uconst 12, DW_OP_LLVM_fragment 32 32] [$sp+0]
	@DEBUG_VALUE: vsnprintf_ex:val <- [DW_OP_plus_uconst 16, DW_OP_LLVM_fragment 0 32] [$sp+0]
	@DEBUG_VALUE: vsnprintf_ex:flags <- [DW_OP_plus_uconst 28] [$sp+0]
	@DEBUG_VALUE: vsnprintf_ex:width <- [DW_OP_plus_uconst 76] [$sp+0]
	@DEBUG_VALUE: vsnprintf_ex:base <- 10
	@DEBUG_VALUE: vsnprintf_ex:state <- 0
	.loc	1 414 11 is_stmt 1              @ ../../../components/platform/soc/rt582/rt582_dongle/dongle/src/vprint.c:414:11
	ldr	r3, [r10], #4
.Ltmp278:
	@DEBUG_VALUE: vsnprintf_ex:ap <- $r10
	.loc	1 0 11 is_stmt 0                @ ../../../components/platform/soc/rt582/rt582_dongle/dongle/src/vprint.c:0:11
	movs	r0, #10
	.loc	1 414 11                        @ ../../../components/platform/soc/rt582/rt582_dongle/dongle/src/vprint.c:414:11
	asrs	r7, r3, #31
.Ltmp279:
	@DEBUG_VALUE: vsnprintf_ex:val <- [DW_OP_LLVM_fragment 32 32] $r7
	.loc	1 0 11                          @ ../../../components/platform/soc/rt582/rt582_dongle/dongle/src/vprint.c:0:11
	str	r0, [sp, #80]                   @ 4-byte Spill
.Ltmp280:
.LBB0_135:                              @   in Loop: Header=BB0_2 Depth=1
	@DEBUG_VALUE: vsnprintf_ex:q <- $r11
	@DEBUG_VALUE: vsnprintf_ex:ap <- $r10
	@DEBUG_VALUE: vsnprintf_ex:val <- [DW_OP_LLVM_fragment 32 32] $r7
	@DEBUG_VALUE: vsnprintf_ex:o <- $r6
	@DEBUG_VALUE: vsnprintf_ex:rank <- $r2
	@DEBUG_VALUE: vsnprintf_ex:val <- [DW_OP_plus_uconst 16, DW_OP_LLVM_fragment 0 32] [$sp+0]
	@DEBUG_VALUE: vsnprintf_ex:flags <- [DW_OP_plus_uconst 28] [$sp+0]
	@DEBUG_VALUE: vsnprintf_ex:width <- [DW_OP_plus_uconst 76] [$sp+0]
	@DEBUG_VALUE: vsnprintf_ex:state <- 0
	movs	r0, #1
.Ltmp281:
	@DEBUG_VALUE: vsnprintf_ex:val <- [DW_OP_LLVM_fragment 0 32] $r3
	b	.LBB0_138
.Ltmp282:
.LBB0_136:                              @   in Loop: Header=BB0_2 Depth=1
	@DEBUG_VALUE: vsnprintf_ex:q <- $r11
	@DEBUG_VALUE: vsnprintf_ex:ap <- $r10
	@DEBUG_VALUE: vsnprintf_ex:o <- $r6
	@DEBUG_VALUE: vsnprintf_ex:ch <- $r3
	@DEBUG_VALUE: vsnprintf_ex:rank <- $r2
	@DEBUG_VALUE: vsnprintf_ex:val <- [DW_OP_plus_uconst 12, DW_OP_LLVM_fragment 32 32] [$sp+0]
	@DEBUG_VALUE: vsnprintf_ex:val <- [DW_OP_plus_uconst 16, DW_OP_LLVM_fragment 0 32] [$sp+0]
	@DEBUG_VALUE: vsnprintf_ex:flags <- [DW_OP_plus_uconst 28] [$sp+0]
	@DEBUG_VALUE: vsnprintf_ex:width <- [DW_OP_plus_uconst 76] [$sp+0]
	@DEBUG_VALUE: vsnprintf_ex:base <- 10
	@DEBUG_VALUE: vsnprintf_ex:state <- 0
	.loc	1 418 11 is_stmt 1              @ ../../../components/platform/soc/rt582/rt582_dongle/dongle/src/vprint.c:418:11
	add.w	r0, r10, #7
	bic	r10, r0, #7
.Ltmp283:
	ldr.w	r7, [r10, #4]
.Ltmp284:
	@DEBUG_VALUE: vsnprintf_ex:val <- [DW_OP_LLVM_fragment 32 32] $r7
	ldr	r3, [r10], #8
.Ltmp285:
	@DEBUG_VALUE: vsnprintf_ex:val <- [DW_OP_LLVM_fragment 0 32] $r3
	@DEBUG_VALUE: vsnprintf_ex:ap <- $r10
	.loc	1 0 11 is_stmt 0                @ ../../../components/platform/soc/rt582/rt582_dongle/dongle/src/vprint.c:0:11
	movs	r0, #10
	str	r0, [sp, #80]                   @ 4-byte Spill
.Ltmp286:
.LBB0_137:                              @   in Loop: Header=BB0_2 Depth=1
	@DEBUG_VALUE: vsnprintf_ex:q <- $r11
	@DEBUG_VALUE: vsnprintf_ex:ap <- $r10
	@DEBUG_VALUE: vsnprintf_ex:val <- [DW_OP_LLVM_fragment 32 32] $r7
	@DEBUG_VALUE: vsnprintf_ex:o <- $r6
	@DEBUG_VALUE: vsnprintf_ex:val <- [DW_OP_LLVM_fragment 0 32] $r3
	@DEBUG_VALUE: vsnprintf_ex:rank <- $r2
	@DEBUG_VALUE: vsnprintf_ex:flags <- [DW_OP_plus_uconst 28] [$sp+0]
	@DEBUG_VALUE: vsnprintf_ex:width <- [DW_OP_plus_uconst 76] [$sp+0]
	@DEBUG_VALUE: vsnprintf_ex:state <- 0
	movs	r0, #2
.Ltmp287:
.LBB0_138:                              @   in Loop: Header=BB0_2 Depth=1
	@DEBUG_VALUE: vsnprintf_ex:q <- $r11
	@DEBUG_VALUE: vsnprintf_ex:ap <- $r10
	@DEBUG_VALUE: vsnprintf_ex:val <- [DW_OP_LLVM_fragment 32 32] $r7
	@DEBUG_VALUE: vsnprintf_ex:o <- $r6
	@DEBUG_VALUE: vsnprintf_ex:val <- [DW_OP_LLVM_fragment 0 32] $r3
	@DEBUG_VALUE: vsnprintf_ex:rank <- $r2
	@DEBUG_VALUE: vsnprintf_ex:flags <- [DW_OP_plus_uconst 28] [$sp+0]
	@DEBUG_VALUE: vsnprintf_ex:width <- [DW_OP_plus_uconst 76] [$sp+0]
	@DEBUG_VALUE: vsnprintf_ex:state <- 0
	str	r0, [sp, #68]                   @ 4-byte Spill
.Ltmp288:
.LBB0_139:                              @   in Loop: Header=BB0_2 Depth=1
	@DEBUG_VALUE: vsnprintf_ex:q <- $r11
	@DEBUG_VALUE: vsnprintf_ex:ap <- $r10
	@DEBUG_VALUE: vsnprintf_ex:o <- $r6
	@DEBUG_VALUE: vsnprintf_ex:flags <- [DW_OP_plus_uconst 28] [$sp+0]
	@DEBUG_VALUE: vsnprintf_ex:width <- [DW_OP_plus_uconst 76] [$sp+0]
	@DEBUG_VALUE: vsnprintf_ex:state <- 0
	@DEBUG_VALUE: vsnprintf_ex:ap <- $r10
	@DEBUG_VALUE: vsnprintf_ex:prec <- [DW_OP_plus_uconst 36] [$sp+0]
	@DEBUG_VALUE: vsnprintf_ex:flags <- [DW_OP_plus_uconst 28] [$sp+0]
	@DEBUG_VALUE: vsnprintf_ex:val <- [DW_OP_LLVM_fragment 0 32] $r3
	@DEBUG_VALUE: vsnprintf_ex:val <- [DW_OP_LLVM_fragment 32 32] $r7
	@DEBUG_VALUE: vsnprintf_ex:base <- [DW_OP_plus_uconst 80] [$sp+0]
	@DEBUG_LABEL: is_integer
	.loc	1 470 25 is_stmt 1              @ ../../../components/platform/soc/rt582/rt582_dongle/dongle/src/vprint.c:470:25
	subs.w	r1, r9, r6
	mov.w	r0, #0
	it	lo
	movlo	r1, r0
	ldr.w	r9, [sp, #28]                   @ 4-byte Reload
.Ltmp289:
	@DEBUG_VALUE: vsnprintf_ex:n <- [DW_OP_LLVM_entry_value 1] $r1
	@DEBUG_VALUE: format_int:ndigits <- 0
	@DEBUG_VALUE: format_int:minus <- 0
	@DEBUG_VALUE: format_int:o <- 0
	@DEBUG_VALUE: format_int:prec <- [DW_OP_plus_uconst 36] [$sp+0]
	@DEBUG_VALUE: format_int:width <- [DW_OP_plus_uconst 76] [$sp+0]
	@DEBUG_VALUE: format_int:base <- [DW_OP_plus_uconst 80] [$sp+0]
	@DEBUG_VALUE: format_int:flags <- [DW_OP_plus_uconst 28] [$sp+0]
	@DEBUG_VALUE: format_int:val <- [DW_OP_LLVM_fragment 32 32] $r7
	@DEBUG_VALUE: format_int:val <- [DW_OP_LLVM_fragment 0 32] $r3
	@DEBUG_VALUE: format_int:q <- $r11
	@DEBUG_VALUE: format_int:n <- [DW_OP_plus_uconst 84] [$sp+0]
	.loc	1 0 25 is_stmt 0                @ ../../../components/platform/soc/rt582/rt582_dongle/dongle/src/vprint.c:0:25
	str	r1, [sp, #84]                   @ 4-byte Spill
.Ltmp290:
	.loc	1 58 18 is_stmt 1               @ ../../../components/platform/soc/rt582/rt582_dongle/dongle/src/vprint.c:58:18
	ands	r1, r9, #128
	.loc	1 58 11 is_stmt 0               @ ../../../components/platform/soc/rt582/rt582_dongle/dongle/src/vprint.c:58:11
	adr	r2, .LCPI0_1
	str	r1, [sp, #8]                    @ 4-byte Spill
	adr	r1, .LCPI0_0
	it	eq
	moveq	r2, r1
.Ltmp291:
	@DEBUG_VALUE: format_int:digits <- $r2
	.loc	1 0 11                          @ ../../../components/platform/soc/rt582/rt582_dongle/dongle/src/vprint.c:0:11
	str	r2, [sp, #56]                   @ 4-byte Spill
.Ltmp292:
	@DEBUG_VALUE: format_int:digits <- [DW_OP_plus_uconst 56] [$sp+0]
	@DEBUG_VALUE: format_int:digits <- [DW_OP_plus_uconst 56] [$sp+0]
	@DEBUG_VALUE: format_int:digits <- [DW_OP_plus_uconst 56] [$sp+0]
	.loc	1 61 12 is_stmt 1               @ ../../../components/platform/soc/rt582/rt582_dongle/dongle/src/vprint.c:61:12
	and	r1, r9, #64
	cmp	r7, #0
	mov.w	r2, #0
	it	mi
	movmi	r2, #1
	.loc	1 61 24 is_stmt 0               @ ../../../components/platform/soc/rt582/rt582_dongle/dongle/src/vprint.c:61:24
	and.w	r1, r2, r1, lsr #6
	rsbs	r4, r3, #0
	sbc.w	r8, r0, r7
	cmp	r1, #0
	str	r1, [sp, #20]                   @ 4-byte Spill
	str	r7, [sp, #12]                   @ 4-byte Spill
.Ltmp293:
	@DEBUG_VALUE: format_int:val <- [DW_OP_plus_uconst 12, DW_OP_LLVM_fragment 32 32] [$sp+0]
	@DEBUG_VALUE: vsnprintf_ex:val <- [DW_OP_plus_uconst 12, DW_OP_LLVM_fragment 32 32] [$sp+0]
	it	eq
	moveq	r8, r7
.Ltmp294:
	@DEBUG_VALUE: format_int:tmpval <- [DW_OP_LLVM_fragment 32 32] $r8
	@DEBUG_VALUE: format_int:val <- [DW_OP_LLVM_fragment 32 32] $r8
	.loc	1 0 24                          @ ../../../components/platform/soc/rt582/rt582_dongle/dongle/src/vprint.c:0:24
	str	r3, [sp, #16]                   @ 4-byte Spill
.Ltmp295:
	@DEBUG_VALUE: format_int:val <- [DW_OP_plus_uconst 16, DW_OP_LLVM_fragment 0 32] [$sp+0]
	@DEBUG_VALUE: vsnprintf_ex:val <- [DW_OP_plus_uconst 16, DW_OP_LLVM_fragment 0 32] [$sp+0]
	.loc	1 61 24                         @ ../../../components/platform/soc/rt582/rt582_dongle/dongle/src/vprint.c:61:24
	it	eq
	moveq	r4, r3
.Ltmp296:
	@DEBUG_VALUE: format_int:tmpval <- [DW_OP_LLVM_fragment 0 32] $r4
	@DEBUG_VALUE: format_int:minus <- undef
	@DEBUG_VALUE: format_int:val <- [DW_OP_LLVM_fragment 0 32] $r4
	.loc	1 68 2 is_stmt 1                @ ../../../components/platform/soc/rt582/rt582_dongle/dongle/src/vprint.c:68:2
	orrs.w	r1, r4, r8
	str	r4, [sp, #24]                   @ 4-byte Spill
.Ltmp297:
	@DEBUG_VALUE: format_int:tmpval <- [DW_OP_plus_uconst 24, DW_OP_LLVM_fragment 0 32] [$sp+0]
	@DEBUG_VALUE: format_int:val <- [DW_OP_plus_uconst 24, DW_OP_LLVM_fragment 0 32] [$sp+0]
	beq	.LBB0_142
.Ltmp298:
@ %bb.140:                              @   in Loop: Header=BB0_2 Depth=1
	@DEBUG_VALUE: format_int:q <- $r11
	@DEBUG_VALUE: vsnprintf_ex:q <- $r11
	@DEBUG_VALUE: vsnprintf_ex:ap <- $r10
	@DEBUG_VALUE: format_int:val <- [DW_OP_LLVM_fragment 32 32] $r8
	@DEBUG_VALUE: format_int:tmpval <- [DW_OP_LLVM_fragment 32 32] $r8
	@DEBUG_VALUE: vsnprintf_ex:o <- $r6
	@DEBUG_VALUE: format_int:val <- [DW_OP_plus_uconst 24, DW_OP_LLVM_fragment 0 32] [$sp+0]
	@DEBUG_VALUE: format_int:tmpval <- [DW_OP_plus_uconst 24, DW_OP_LLVM_fragment 0 32] [$sp+0]
	@DEBUG_VALUE: format_int:digits <- [DW_OP_plus_uconst 56] [$sp+0]
	@DEBUG_VALUE: format_int:n <- [DW_OP_plus_uconst 84] [$sp+0]
	@DEBUG_VALUE: format_int:flags <- [DW_OP_plus_uconst 28] [$sp+0]
	@DEBUG_VALUE: format_int:base <- [DW_OP_plus_uconst 80] [$sp+0]
	@DEBUG_VALUE: format_int:width <- [DW_OP_plus_uconst 76] [$sp+0]
	@DEBUG_VALUE: format_int:prec <- [DW_OP_plus_uconst 36] [$sp+0]
	@DEBUG_VALUE: vsnprintf_ex:base <- [DW_OP_plus_uconst 80] [$sp+0]
	@DEBUG_VALUE: vsnprintf_ex:val <- [DW_OP_plus_uconst 12, DW_OP_LLVM_fragment 32 32] [$sp+0]
	@DEBUG_VALUE: vsnprintf_ex:val <- [DW_OP_plus_uconst 16, DW_OP_LLVM_fragment 0 32] [$sp+0]
	@DEBUG_VALUE: vsnprintf_ex:flags <- [DW_OP_plus_uconst 28] [$sp+0]
	@DEBUG_VALUE: vsnprintf_ex:prec <- [DW_OP_plus_uconst 36] [$sp+0]
	@DEBUG_VALUE: vsnprintf_ex:width <- [DW_OP_plus_uconst 76] [$sp+0]
	@DEBUG_VALUE: format_int:o <- 0
	@DEBUG_VALUE: format_int:ndigits <- 0
	@DEBUG_VALUE: vsnprintf_ex:state <- 0
	.loc	1 0 2 is_stmt 0                 @ ../../../components/platform/soc/rt582/rt582_dongle/dongle/src/vprint.c:0:2
	ldr	r7, [sp, #80]                   @ 4-byte Reload
	movs	r6, #0
.Ltmp299:
	mov	r5, r8
.Ltmp300:
	.p2align	2
.LBB0_141:                              @   Parent Loop BB0_2 Depth=1
                                        @ =>  This Inner Loop Header: Depth=2
	@DEBUG_VALUE: format_int:q <- $r11
	@DEBUG_VALUE: vsnprintf_ex:q <- $r11
	@DEBUG_VALUE: vsnprintf_ex:ap <- $r10
	@DEBUG_VALUE: format_int:val <- [DW_OP_LLVM_fragment 32 32] $r8
	@DEBUG_VALUE: format_int:val <- [DW_OP_plus_uconst 24, DW_OP_LLVM_fragment 0 32] [$sp+0]
	@DEBUG_VALUE: format_int:digits <- [DW_OP_plus_uconst 56] [$sp+0]
	@DEBUG_VALUE: format_int:n <- [DW_OP_plus_uconst 84] [$sp+0]
	@DEBUG_VALUE: format_int:flags <- [DW_OP_plus_uconst 28] [$sp+0]
	@DEBUG_VALUE: format_int:base <- [DW_OP_plus_uconst 80] [$sp+0]
	@DEBUG_VALUE: format_int:width <- [DW_OP_plus_uconst 76] [$sp+0]
	@DEBUG_VALUE: format_int:prec <- [DW_OP_plus_uconst 36] [$sp+0]
	@DEBUG_VALUE: vsnprintf_ex:base <- [DW_OP_plus_uconst 80] [$sp+0]
	@DEBUG_VALUE: vsnprintf_ex:val <- [DW_OP_plus_uconst 12, DW_OP_LLVM_fragment 32 32] [$sp+0]
	@DEBUG_VALUE: vsnprintf_ex:val <- [DW_OP_plus_uconst 16, DW_OP_LLVM_fragment 0 32] [$sp+0]
	@DEBUG_VALUE: vsnprintf_ex:flags <- [DW_OP_plus_uconst 28] [$sp+0]
	@DEBUG_VALUE: vsnprintf_ex:prec <- [DW_OP_plus_uconst 36] [$sp+0]
	@DEBUG_VALUE: vsnprintf_ex:width <- [DW_OP_plus_uconst 76] [$sp+0]
	@DEBUG_VALUE: format_int:o <- 0
	@DEBUG_VALUE: vsnprintf_ex:state <- 0
	@DEBUG_VALUE: format_int:ndigits <- $r6
	@DEBUG_VALUE: format_int:tmpval <- [DW_OP_LLVM_fragment 32 32] $r5
	@DEBUG_VALUE: format_int:tmpval <- [DW_OP_LLVM_fragment 0 32] $r4
	.loc	1 69 10 is_stmt 1               @ ../../../components/platform/soc/rt582/rt582_dongle/dongle/src/vprint.c:69:10
	mov	r0, r4
	mov	r1, r5
	mov	r2, r7
	movs	r3, #0
	bl	__aeabi_uldivmod
.Ltmp301:
	@DEBUG_VALUE: format_int:tmpval <- [DW_OP_LLVM_fragment 0 32] $r0
	@DEBUG_VALUE: format_int:tmpval <- [DW_OP_LLVM_fragment 32 32] $r1
	.loc	1 68 2                          @ ../../../components/platform/soc/rt582/rt582_dongle/dongle/src/vprint.c:68:2
	subs	r2, r4, r7
.Ltmp302:
	.loc	1 70 10                         @ ../../../components/platform/soc/rt582/rt582_dongle/dongle/src/vprint.c:70:10
	add.w	r6, r6, #1
.Ltmp303:
	@DEBUG_VALUE: format_int:ndigits <- $r6
	.loc	1 68 2                          @ ../../../components/platform/soc/rt582/rt582_dongle/dongle/src/vprint.c:68:2
	sbcs	r2, r5, #0
	mov	r4, r0
.Ltmp304:
	@DEBUG_VALUE: format_int:tmpval <- [DW_OP_LLVM_fragment 0 32] $r4
	@DEBUG_VALUE: format_int:tmpval <- [DW_OP_LLVM_fragment 0 32] $r4
	@DEBUG_VALUE: format_int:tmpval <- [DW_OP_LLVM_fragment 0 32] $r4
	.loc	1 0 2 is_stmt 0                 @ ../../../components/platform/soc/rt582/rt582_dongle/dongle/src/vprint.c:0:2
	mov	r5, r1
.Ltmp305:
	@DEBUG_VALUE: format_int:tmpval <- [DW_OP_LLVM_fragment 32 32] $r5
	@DEBUG_VALUE: format_int:tmpval <- [DW_OP_LLVM_fragment 32 32] $r5
	@DEBUG_VALUE: format_int:tmpval <- [DW_OP_LLVM_fragment 32 32] $r5
	mov	r0, r6
	.loc	1 68 2                          @ ../../../components/platform/soc/rt582/rt582_dongle/dongle/src/vprint.c:68:2
	bhs	.LBB0_141
	b	.LBB0_143
.Ltmp306:
.LBB0_142:                              @   in Loop: Header=BB0_2 Depth=1
	@DEBUG_VALUE: format_int:q <- $r11
	@DEBUG_VALUE: vsnprintf_ex:q <- $r11
	@DEBUG_VALUE: vsnprintf_ex:ap <- $r10
	@DEBUG_VALUE: format_int:val <- [DW_OP_LLVM_fragment 32 32] $r8
	@DEBUG_VALUE: format_int:tmpval <- [DW_OP_LLVM_fragment 32 32] $r8
	@DEBUG_VALUE: vsnprintf_ex:o <- $r6
	@DEBUG_VALUE: format_int:val <- [DW_OP_plus_uconst 24, DW_OP_LLVM_fragment 0 32] [$sp+0]
	@DEBUG_VALUE: format_int:tmpval <- [DW_OP_plus_uconst 24, DW_OP_LLVM_fragment 0 32] [$sp+0]
	@DEBUG_VALUE: format_int:digits <- [DW_OP_plus_uconst 56] [$sp+0]
	@DEBUG_VALUE: format_int:n <- [DW_OP_plus_uconst 84] [$sp+0]
	@DEBUG_VALUE: format_int:flags <- [DW_OP_plus_uconst 28] [$sp+0]
	@DEBUG_VALUE: format_int:base <- [DW_OP_plus_uconst 80] [$sp+0]
	@DEBUG_VALUE: format_int:width <- [DW_OP_plus_uconst 76] [$sp+0]
	@DEBUG_VALUE: format_int:prec <- [DW_OP_plus_uconst 36] [$sp+0]
	@DEBUG_VALUE: vsnprintf_ex:base <- [DW_OP_plus_uconst 80] [$sp+0]
	@DEBUG_VALUE: vsnprintf_ex:val <- [DW_OP_plus_uconst 12, DW_OP_LLVM_fragment 32 32] [$sp+0]
	@DEBUG_VALUE: vsnprintf_ex:val <- [DW_OP_plus_uconst 16, DW_OP_LLVM_fragment 0 32] [$sp+0]
	@DEBUG_VALUE: vsnprintf_ex:flags <- [DW_OP_plus_uconst 28] [$sp+0]
	@DEBUG_VALUE: vsnprintf_ex:prec <- [DW_OP_plus_uconst 36] [$sp+0]
	@DEBUG_VALUE: vsnprintf_ex:width <- [DW_OP_plus_uconst 76] [$sp+0]
	@DEBUG_VALUE: format_int:o <- 0
	@DEBUG_VALUE: format_int:ndigits <- 0
	@DEBUG_VALUE: vsnprintf_ex:state <- 0
	.loc	1 0 2                           @ ../../../components/platform/soc/rt582/rt582_dongle/dongle/src/vprint.c:0:2
	ldr	r7, [sp, #80]                   @ 4-byte Reload
	movs	r6, #1
.Ltmp307:
.LBB0_143:                              @   in Loop: Header=BB0_2 Depth=1
	@DEBUG_VALUE: format_int:q <- $r11
	@DEBUG_VALUE: vsnprintf_ex:q <- $r11
	@DEBUG_VALUE: vsnprintf_ex:ap <- $r10
	@DEBUG_VALUE: format_int:val <- [DW_OP_LLVM_fragment 32 32] $r8
	@DEBUG_VALUE: format_int:val <- [DW_OP_plus_uconst 24, DW_OP_LLVM_fragment 0 32] [$sp+0]
	@DEBUG_VALUE: format_int:digits <- [DW_OP_plus_uconst 56] [$sp+0]
	@DEBUG_VALUE: format_int:n <- [DW_OP_plus_uconst 84] [$sp+0]
	@DEBUG_VALUE: format_int:flags <- [DW_OP_plus_uconst 28] [$sp+0]
	@DEBUG_VALUE: format_int:base <- [DW_OP_plus_uconst 80] [$sp+0]
	@DEBUG_VALUE: format_int:width <- [DW_OP_plus_uconst 76] [$sp+0]
	@DEBUG_VALUE: format_int:prec <- [DW_OP_plus_uconst 36] [$sp+0]
	@DEBUG_VALUE: vsnprintf_ex:base <- [DW_OP_plus_uconst 80] [$sp+0]
	@DEBUG_VALUE: vsnprintf_ex:val <- [DW_OP_plus_uconst 12, DW_OP_LLVM_fragment 32 32] [$sp+0]
	@DEBUG_VALUE: vsnprintf_ex:val <- [DW_OP_plus_uconst 16, DW_OP_LLVM_fragment 0 32] [$sp+0]
	@DEBUG_VALUE: vsnprintf_ex:flags <- [DW_OP_plus_uconst 28] [$sp+0]
	@DEBUG_VALUE: vsnprintf_ex:prec <- [DW_OP_plus_uconst 36] [$sp+0]
	@DEBUG_VALUE: vsnprintf_ex:width <- [DW_OP_plus_uconst 76] [$sp+0]
	@DEBUG_VALUE: format_int:o <- 0
	@DEBUG_VALUE: vsnprintf_ex:state <- 0
	ldr	r3, [sp, #36]                   @ 4-byte Reload
.Ltmp308:
	.loc	1 75 12 is_stmt 1               @ ../../../components/platform/soc/rt582/rt582_dongle/dongle/src/vprint.c:75:12
	and	r1, r9, #32
	.loc	1 75 22 is_stmt 0               @ ../../../components/platform/soc/rt582/rt582_dongle/dongle/src/vprint.c:75:22
	cmp	r0, r3
	mov	r2, r3
	it	ge
	addge	r2, r0, #1
	cmp	r1, #0
	it	eq
	moveq	r2, r3
	cmp	r7, #8
	it	ne
	movne	r2, r3
.Ltmp309:
	@DEBUG_VALUE: format_int:prec <- $r2
	.loc	1 80 6 is_stmt 1                @ ../../../components/platform/soc/rt582/rt582_dongle/dongle/src/vprint.c:80:6
	cmp	r0, r2
	it	ge
	movge	r2, r6
.Ltmp310:
	@DEBUG_VALUE: format_int:ndigits <- $r2
	.loc	1 87 6                          @ ../../../components/platform/soc/rt582/rt582_dongle/dongle/src/vprint.c:87:6
	subs.w	r0, r7, #16
	mov.w	r7, #3
	it	eq
	moveq	r7, #4
	lsls.w	r3, r9, #28
	.loc	1 94 22                         @ ../../../components/platform/soc/rt582/rt582_dongle/dongle/src/vprint.c:94:22
	sub.w	r3, r2, #1
	.loc	1 87 6                          @ ../../../components/platform/soc/rt582/rt582_dongle/dongle/src/vprint.c:87:6
	it	pl
	movpl	r7, r2
.Ltmp311:
	@DEBUG_VALUE: format_int:tickskip <- $r7
	.loc	1 94 27                         @ ../../../components/platform/soc/rt582/rt582_dongle/dongle/src/vprint.c:94:27
	sdiv	r3, r3, r7
	.loc	1 87 6                          @ ../../../components/platform/soc/rt582/rt582_dongle/dongle/src/vprint.c:87:6
	clz	r0, r0
	.loc	1 94 10                         @ ../../../components/platform/soc/rt582/rt582_dongle/dongle/src/vprint.c:94:10
	add.w	r11, r2, r3
.Ltmp312:
	@DEBUG_VALUE: vsnprintf_ex:buffer <- [DW_OP_LLVM_entry_value 1] $r0
	@DEBUG_VALUE: format_int:nchars <- $r11
	@DEBUG_VALUE: format_int:ndigits <- $r11
	.loc	1 0 10 is_stmt 0                @ ../../../components/platform/soc/rt582/rt582_dongle/dongle/src/vprint.c:0:10
	ands	r2, r9, #20
	str	r7, [sp, #40]                   @ 4-byte Spill
.Ltmp313:
	@DEBUG_VALUE: format_int:tickskip <- [DW_OP_plus_uconst 40] [$sp+0]
	@DEBUG_VALUE: format_int:tickskip <- [DW_OP_plus_uconst 40] [$sp+0]
	@DEBUG_VALUE: format_int:tickskip <- [DW_OP_plus_uconst 40] [$sp+0]
	it	ne
	movne	r2, #1
.Ltmp314:
	.loc	1 99 12 is_stmt 1               @ ../../../components/platform/soc/rt582/rt582_dongle/dongle/src/vprint.c:99:12
	ldr	r3, [sp, #20]                   @ 4-byte Reload
.Ltmp315:
	.loc	1 87 6                          @ ../../../components/platform/soc/rt582/rt582_dongle/dongle/src/vprint.c:87:6
	lsrs	r0, r0, #5
.Ltmp316:
	.loc	1 99 12                         @ ../../../components/platform/soc/rt582/rt582_dongle/dongle/src/vprint.c:99:12
	orrs	r2, r3
.Ltmp317:
	.loc	1 101 24                        @ ../../../components/platform/soc/rt582/rt582_dongle/dongle/src/vprint.c:101:24
	and.w	r5, r0, r1, lsr #5
.Ltmp318:
	.loc	1 99 12                         @ ../../../components/platform/soc/rt582/rt582_dongle/dongle/src/vprint.c:99:12
	add	r2, r11
.Ltmp319:
	@DEBUG_VALUE: format_int:nchars <- $r2
	.loc	1 101 24                        @ ../../../components/platform/soc/rt582/rt582_dongle/dongle/src/vprint.c:101:24
	cmp	r5, #0
	it	ne
	addne	r2, #2
.Ltmp320:
	@DEBUG_VALUE: format_int:nchars <- $r2
	.loc	1 106 14                        @ ../../../components/platform/soc/rt582/rt582_dongle/dongle/src/vprint.c:106:14
	ands	r4, r9, #3
	mov.w	r6, #0
	str	r2, [sp, #72]                   @ 4-byte Spill
.Ltmp321:
	@DEBUG_VALUE: format_int:nchars <- [DW_OP_plus_uconst 72] [$sp+0]
	.loc	1 106 38 is_stmt 0              @ ../../../components/platform/soc/rt582/rt582_dongle/dongle/src/vprint.c:106:38
	str.w	r10, [sp, #44]                  @ 4-byte Spill
.Ltmp322:
	@DEBUG_VALUE: vsnprintf_ex:ap <- [DW_OP_plus_uconst 44] [$sp+0]
	@DEBUG_VALUE: vsnprintf_ex:ap <- [DW_OP_plus_uconst 44] [$sp+0]
	bne	.LBB0_150
.Ltmp323:
@ %bb.144:                              @   in Loop: Header=BB0_2 Depth=1
	@DEBUG_VALUE: vsnprintf_ex:ap <- [DW_OP_plus_uconst 44] [$sp+0]
	@DEBUG_VALUE: format_int:ndigits <- $r11
	@DEBUG_VALUE: format_int:val <- [DW_OP_LLVM_fragment 32 32] $r8
	@DEBUG_VALUE: format_int:nchars <- [DW_OP_plus_uconst 72] [$sp+0]
	@DEBUG_VALUE: format_int:tickskip <- [DW_OP_plus_uconst 40] [$sp+0]
	@DEBUG_VALUE: format_int:val <- [DW_OP_plus_uconst 24, DW_OP_LLVM_fragment 0 32] [$sp+0]
	@DEBUG_VALUE: format_int:digits <- [DW_OP_plus_uconst 56] [$sp+0]
	@DEBUG_VALUE: format_int:n <- [DW_OP_plus_uconst 84] [$sp+0]
	@DEBUG_VALUE: format_int:flags <- [DW_OP_plus_uconst 28] [$sp+0]
	@DEBUG_VALUE: format_int:base <- [DW_OP_plus_uconst 80] [$sp+0]
	@DEBUG_VALUE: format_int:width <- [DW_OP_plus_uconst 76] [$sp+0]
	@DEBUG_VALUE: vsnprintf_ex:base <- [DW_OP_plus_uconst 80] [$sp+0]
	@DEBUG_VALUE: vsnprintf_ex:val <- [DW_OP_plus_uconst 12, DW_OP_LLVM_fragment 32 32] [$sp+0]
	@DEBUG_VALUE: vsnprintf_ex:val <- [DW_OP_plus_uconst 16, DW_OP_LLVM_fragment 0 32] [$sp+0]
	@DEBUG_VALUE: vsnprintf_ex:flags <- [DW_OP_plus_uconst 28] [$sp+0]
	@DEBUG_VALUE: vsnprintf_ex:prec <- [DW_OP_plus_uconst 36] [$sp+0]
	@DEBUG_VALUE: vsnprintf_ex:width <- [DW_OP_plus_uconst 76] [$sp+0]
	@DEBUG_VALUE: format_int:o <- 0
	@DEBUG_VALUE: vsnprintf_ex:state <- 0
	.loc	1 0 38                          @ ../../../components/platform/soc/rt582/rt582_dongle/dongle/src/vprint.c:0:38
	ldr	r7, [sp, #76]                   @ 4-byte Reload
	.loc	1 106 38                        @ ../../../components/platform/soc/rt582/rt582_dongle/dongle/src/vprint.c:106:38
	cmp	r7, r2
	ldr	r2, [sp, #84]                   @ 4-byte Reload
	ble	.LBB0_151
.Ltmp324:
@ %bb.145:                              @   in Loop: Header=BB0_2 Depth=1
	@DEBUG_VALUE: vsnprintf_ex:ap <- [DW_OP_plus_uconst 44] [$sp+0]
	@DEBUG_VALUE: format_int:ndigits <- $r11
	@DEBUG_VALUE: format_int:val <- [DW_OP_LLVM_fragment 32 32] $r8
	@DEBUG_VALUE: format_int:nchars <- [DW_OP_plus_uconst 72] [$sp+0]
	@DEBUG_VALUE: format_int:tickskip <- [DW_OP_plus_uconst 40] [$sp+0]
	@DEBUG_VALUE: format_int:val <- [DW_OP_plus_uconst 24, DW_OP_LLVM_fragment 0 32] [$sp+0]
	@DEBUG_VALUE: format_int:digits <- [DW_OP_plus_uconst 56] [$sp+0]
	@DEBUG_VALUE: format_int:n <- [DW_OP_plus_uconst 84] [$sp+0]
	@DEBUG_VALUE: format_int:flags <- [DW_OP_plus_uconst 28] [$sp+0]
	@DEBUG_VALUE: format_int:base <- [DW_OP_plus_uconst 80] [$sp+0]
	@DEBUG_VALUE: format_int:width <- [DW_OP_plus_uconst 76] [$sp+0]
	@DEBUG_VALUE: vsnprintf_ex:base <- [DW_OP_plus_uconst 80] [$sp+0]
	@DEBUG_VALUE: vsnprintf_ex:val <- [DW_OP_plus_uconst 12, DW_OP_LLVM_fragment 32 32] [$sp+0]
	@DEBUG_VALUE: vsnprintf_ex:val <- [DW_OP_plus_uconst 16, DW_OP_LLVM_fragment 0 32] [$sp+0]
	@DEBUG_VALUE: vsnprintf_ex:flags <- [DW_OP_plus_uconst 28] [$sp+0]
	@DEBUG_VALUE: vsnprintf_ex:prec <- [DW_OP_plus_uconst 36] [$sp+0]
	@DEBUG_VALUE: vsnprintf_ex:width <- [DW_OP_plus_uconst 76] [$sp+0]
	@DEBUG_VALUE: format_int:o <- 0
	@DEBUG_VALUE: vsnprintf_ex:state <- 0
	.loc	1 107 3 is_stmt 1               @ ../../../components/platform/soc/rt582/rt582_dongle/dongle/src/vprint.c:107:3
	ldrd	r1, r0, [sp, #72]               @ 8-byte Folded Reload
	mov	r10, r4
	subs	r6, r0, r1
	movs	r4, #0
.Ltmp325:
	.p2align	2
.LBB0_146:                              @   Parent Loop BB0_2 Depth=1
                                        @ =>  This Inner Loop Header: Depth=2
	@DEBUG_VALUE: vsnprintf_ex:ap <- [DW_OP_plus_uconst 44] [$sp+0]
	@DEBUG_VALUE: format_int:ndigits <- $r11
	@DEBUG_VALUE: format_int:val <- [DW_OP_LLVM_fragment 32 32] $r8
	@DEBUG_VALUE: format_int:nchars <- [DW_OP_plus_uconst 72] [$sp+0]
	@DEBUG_VALUE: format_int:tickskip <- [DW_OP_plus_uconst 40] [$sp+0]
	@DEBUG_VALUE: format_int:val <- [DW_OP_plus_uconst 24, DW_OP_LLVM_fragment 0 32] [$sp+0]
	@DEBUG_VALUE: format_int:digits <- [DW_OP_plus_uconst 56] [$sp+0]
	@DEBUG_VALUE: format_int:n <- [DW_OP_plus_uconst 84] [$sp+0]
	@DEBUG_VALUE: format_int:flags <- [DW_OP_plus_uconst 28] [$sp+0]
	@DEBUG_VALUE: format_int:base <- [DW_OP_plus_uconst 80] [$sp+0]
	@DEBUG_VALUE: vsnprintf_ex:base <- [DW_OP_plus_uconst 80] [$sp+0]
	@DEBUG_VALUE: vsnprintf_ex:val <- [DW_OP_plus_uconst 12, DW_OP_LLVM_fragment 32 32] [$sp+0]
	@DEBUG_VALUE: vsnprintf_ex:val <- [DW_OP_plus_uconst 16, DW_OP_LLVM_fragment 0 32] [$sp+0]
	@DEBUG_VALUE: vsnprintf_ex:flags <- [DW_OP_plus_uconst 28] [$sp+0]
	@DEBUG_VALUE: vsnprintf_ex:prec <- [DW_OP_plus_uconst 36] [$sp+0]
	@DEBUG_VALUE: vsnprintf_ex:width <- [DW_OP_plus_uconst 76] [$sp+0]
	@DEBUG_VALUE: vsnprintf_ex:state <- 0
	@DEBUG_VALUE: format_int:q <- undef
	@DEBUG_VALUE: format_int:width <- undef
	@DEBUG_VALUE: format_int:o <- $r4
	.loc	1 108 4                         @ ../../../components/platform/soc/rt582/rt582_dongle/dongle/src/vprint.c:108:4
	cmp	r4, r2
	bhs	.LBB0_148
.Ltmp326:
@ %bb.147:                              @   in Loop: Header=BB0_146 Depth=2
	@DEBUG_VALUE: vsnprintf_ex:ap <- [DW_OP_plus_uconst 44] [$sp+0]
	@DEBUG_VALUE: format_int:ndigits <- $r11
	@DEBUG_VALUE: format_int:val <- [DW_OP_LLVM_fragment 32 32] $r8
	@DEBUG_VALUE: format_int:o <- $r4
	@DEBUG_VALUE: format_int:nchars <- [DW_OP_plus_uconst 72] [$sp+0]
	@DEBUG_VALUE: format_int:tickskip <- [DW_OP_plus_uconst 40] [$sp+0]
	@DEBUG_VALUE: format_int:val <- [DW_OP_plus_uconst 24, DW_OP_LLVM_fragment 0 32] [$sp+0]
	@DEBUG_VALUE: format_int:digits <- [DW_OP_plus_uconst 56] [$sp+0]
	@DEBUG_VALUE: format_int:n <- [DW_OP_plus_uconst 84] [$sp+0]
	@DEBUG_VALUE: format_int:flags <- [DW_OP_plus_uconst 28] [$sp+0]
	@DEBUG_VALUE: format_int:base <- [DW_OP_plus_uconst 80] [$sp+0]
	@DEBUG_VALUE: vsnprintf_ex:base <- [DW_OP_plus_uconst 80] [$sp+0]
	@DEBUG_VALUE: vsnprintf_ex:val <- [DW_OP_plus_uconst 12, DW_OP_LLVM_fragment 32 32] [$sp+0]
	@DEBUG_VALUE: vsnprintf_ex:val <- [DW_OP_plus_uconst 16, DW_OP_LLVM_fragment 0 32] [$sp+0]
	@DEBUG_VALUE: vsnprintf_ex:flags <- [DW_OP_plus_uconst 28] [$sp+0]
	@DEBUG_VALUE: vsnprintf_ex:prec <- [DW_OP_plus_uconst 36] [$sp+0]
	@DEBUG_VALUE: vsnprintf_ex:width <- [DW_OP_plus_uconst 76] [$sp+0]
	@DEBUG_VALUE: vsnprintf_ex:state <- 0
	.loc	1 108 4 is_stmt 0               @ ../../../components/platform/soc/rt582/rt582_dongle/dongle/src/vprint.c:108:4
	movw	r1, :lower16:__stdout
	movs	r0, #32
	movt	r1, :upper16:__stdout
	bl	putc
.Ltmp327:
	.loc	1 0 4                           @ ../../../components/platform/soc/rt582/rt582_dongle/dongle/src/vprint.c:0:4
	ldr	r2, [sp, #84]                   @ 4-byte Reload
.Ltmp328:
	@DEBUG_VALUE: format_int:q <- [DW_OP_plus_uconst 1, DW_OP_stack_value] undef
.LBB0_148:                              @   in Loop: Header=BB0_146 Depth=2
	@DEBUG_VALUE: vsnprintf_ex:ap <- [DW_OP_plus_uconst 44] [$sp+0]
	@DEBUG_VALUE: format_int:ndigits <- $r11
	@DEBUG_VALUE: format_int:val <- [DW_OP_LLVM_fragment 32 32] $r8
	@DEBUG_VALUE: format_int:o <- $r4
	@DEBUG_VALUE: format_int:nchars <- [DW_OP_plus_uconst 72] [$sp+0]
	@DEBUG_VALUE: format_int:tickskip <- [DW_OP_plus_uconst 40] [$sp+0]
	@DEBUG_VALUE: format_int:val <- [DW_OP_plus_uconst 24, DW_OP_LLVM_fragment 0 32] [$sp+0]
	@DEBUG_VALUE: format_int:digits <- [DW_OP_plus_uconst 56] [$sp+0]
	@DEBUG_VALUE: format_int:n <- [DW_OP_plus_uconst 84] [$sp+0]
	@DEBUG_VALUE: format_int:flags <- [DW_OP_plus_uconst 28] [$sp+0]
	@DEBUG_VALUE: format_int:base <- [DW_OP_plus_uconst 80] [$sp+0]
	@DEBUG_VALUE: vsnprintf_ex:base <- [DW_OP_plus_uconst 80] [$sp+0]
	@DEBUG_VALUE: vsnprintf_ex:val <- [DW_OP_plus_uconst 12, DW_OP_LLVM_fragment 32 32] [$sp+0]
	@DEBUG_VALUE: vsnprintf_ex:val <- [DW_OP_plus_uconst 16, DW_OP_LLVM_fragment 0 32] [$sp+0]
	@DEBUG_VALUE: vsnprintf_ex:flags <- [DW_OP_plus_uconst 28] [$sp+0]
	@DEBUG_VALUE: vsnprintf_ex:prec <- [DW_OP_plus_uconst 36] [$sp+0]
	@DEBUG_VALUE: vsnprintf_ex:width <- [DW_OP_plus_uconst 76] [$sp+0]
	@DEBUG_VALUE: vsnprintf_ex:state <- 0
	@DEBUG_VALUE: format_int:q <- undef
	.loc	1 108 4                         @ ../../../components/platform/soc/rt582/rt582_dongle/dongle/src/vprint.c:108:4
	adds	r4, #1
.Ltmp329:
	@DEBUG_VALUE: format_int:o <- $r4
	@DEBUG_VALUE: format_int:width <- [DW_OP_constu 1, DW_OP_minus, DW_OP_stack_value] undef
	.loc	1 107 3 is_stmt 1               @ ../../../components/platform/soc/rt582/rt582_dongle/dongle/src/vprint.c:107:3
	cmp	r6, r4
	bne	.LBB0_146
.Ltmp330:
@ %bb.149:                              @   in Loop: Header=BB0_2 Depth=1
	@DEBUG_VALUE: vsnprintf_ex:ap <- [DW_OP_plus_uconst 44] [$sp+0]
	@DEBUG_VALUE: format_int:ndigits <- $r11
	@DEBUG_VALUE: format_int:val <- [DW_OP_LLVM_fragment 32 32] $r8
	@DEBUG_VALUE: format_int:o <- $r4
	@DEBUG_VALUE: format_int:nchars <- [DW_OP_plus_uconst 72] [$sp+0]
	@DEBUG_VALUE: format_int:tickskip <- [DW_OP_plus_uconst 40] [$sp+0]
	@DEBUG_VALUE: format_int:val <- [DW_OP_plus_uconst 24, DW_OP_LLVM_fragment 0 32] [$sp+0]
	@DEBUG_VALUE: format_int:digits <- [DW_OP_plus_uconst 56] [$sp+0]
	@DEBUG_VALUE: format_int:n <- [DW_OP_plus_uconst 84] [$sp+0]
	@DEBUG_VALUE: format_int:flags <- [DW_OP_plus_uconst 28] [$sp+0]
	@DEBUG_VALUE: format_int:base <- [DW_OP_plus_uconst 80] [$sp+0]
	@DEBUG_VALUE: vsnprintf_ex:base <- [DW_OP_plus_uconst 80] [$sp+0]
	@DEBUG_VALUE: vsnprintf_ex:val <- [DW_OP_plus_uconst 12, DW_OP_LLVM_fragment 32 32] [$sp+0]
	@DEBUG_VALUE: vsnprintf_ex:val <- [DW_OP_plus_uconst 16, DW_OP_LLVM_fragment 0 32] [$sp+0]
	@DEBUG_VALUE: vsnprintf_ex:flags <- [DW_OP_plus_uconst 28] [$sp+0]
	@DEBUG_VALUE: vsnprintf_ex:prec <- [DW_OP_plus_uconst 36] [$sp+0]
	@DEBUG_VALUE: vsnprintf_ex:width <- [DW_OP_plus_uconst 76] [$sp+0]
	@DEBUG_VALUE: vsnprintf_ex:state <- 0
	.loc	1 0 3 is_stmt 0                 @ ../../../components/platform/soc/rt582/rt582_dongle/dongle/src/vprint.c:0:3
	ldr	r7, [sp, #72]                   @ 4-byte Reload
	mov	r4, r10
.Ltmp331:
	b	.LBB0_151
.Ltmp332:
.LBB0_150:                              @   in Loop: Header=BB0_2 Depth=1
	@DEBUG_VALUE: vsnprintf_ex:ap <- [DW_OP_plus_uconst 44] [$sp+0]
	@DEBUG_VALUE: format_int:ndigits <- $r11
	@DEBUG_VALUE: format_int:val <- [DW_OP_LLVM_fragment 32 32] $r8
	@DEBUG_VALUE: format_int:nchars <- [DW_OP_plus_uconst 72] [$sp+0]
	@DEBUG_VALUE: format_int:tickskip <- [DW_OP_plus_uconst 40] [$sp+0]
	@DEBUG_VALUE: format_int:val <- [DW_OP_plus_uconst 24, DW_OP_LLVM_fragment 0 32] [$sp+0]
	@DEBUG_VALUE: format_int:digits <- [DW_OP_plus_uconst 56] [$sp+0]
	@DEBUG_VALUE: format_int:n <- [DW_OP_plus_uconst 84] [$sp+0]
	@DEBUG_VALUE: format_int:flags <- [DW_OP_plus_uconst 28] [$sp+0]
	@DEBUG_VALUE: format_int:base <- [DW_OP_plus_uconst 80] [$sp+0]
	@DEBUG_VALUE: format_int:width <- [DW_OP_plus_uconst 76] [$sp+0]
	@DEBUG_VALUE: vsnprintf_ex:base <- [DW_OP_plus_uconst 80] [$sp+0]
	@DEBUG_VALUE: vsnprintf_ex:val <- [DW_OP_plus_uconst 12, DW_OP_LLVM_fragment 32 32] [$sp+0]
	@DEBUG_VALUE: vsnprintf_ex:val <- [DW_OP_plus_uconst 16, DW_OP_LLVM_fragment 0 32] [$sp+0]
	@DEBUG_VALUE: vsnprintf_ex:flags <- [DW_OP_plus_uconst 28] [$sp+0]
	@DEBUG_VALUE: vsnprintf_ex:prec <- [DW_OP_plus_uconst 36] [$sp+0]
	@DEBUG_VALUE: vsnprintf_ex:width <- [DW_OP_plus_uconst 76] [$sp+0]
	@DEBUG_VALUE: format_int:o <- 0
	@DEBUG_VALUE: vsnprintf_ex:state <- 0
	ldr	r7, [sp, #76]                   @ 4-byte Reload
	ldr	r2, [sp, #84]                   @ 4-byte Reload
.Ltmp333:
.LBB0_151:                              @   in Loop: Header=BB0_2 Depth=1
	@DEBUG_VALUE: vsnprintf_ex:ap <- [DW_OP_plus_uconst 44] [$sp+0]
	@DEBUG_VALUE: format_int:ndigits <- $r11
	@DEBUG_VALUE: format_int:val <- [DW_OP_LLVM_fragment 32 32] $r8
	@DEBUG_VALUE: format_int:nchars <- [DW_OP_plus_uconst 72] [$sp+0]
	@DEBUG_VALUE: format_int:tickskip <- [DW_OP_plus_uconst 40] [$sp+0]
	@DEBUG_VALUE: format_int:val <- [DW_OP_plus_uconst 24, DW_OP_LLVM_fragment 0 32] [$sp+0]
	@DEBUG_VALUE: format_int:digits <- [DW_OP_plus_uconst 56] [$sp+0]
	@DEBUG_VALUE: format_int:n <- [DW_OP_plus_uconst 84] [$sp+0]
	@DEBUG_VALUE: format_int:flags <- [DW_OP_plus_uconst 28] [$sp+0]
	@DEBUG_VALUE: format_int:base <- [DW_OP_plus_uconst 80] [$sp+0]
	@DEBUG_VALUE: vsnprintf_ex:base <- [DW_OP_plus_uconst 80] [$sp+0]
	@DEBUG_VALUE: vsnprintf_ex:val <- [DW_OP_plus_uconst 12, DW_OP_LLVM_fragment 32 32] [$sp+0]
	@DEBUG_VALUE: vsnprintf_ex:val <- [DW_OP_plus_uconst 16, DW_OP_LLVM_fragment 0 32] [$sp+0]
	@DEBUG_VALUE: vsnprintf_ex:flags <- [DW_OP_plus_uconst 28] [$sp+0]
	@DEBUG_VALUE: vsnprintf_ex:prec <- [DW_OP_plus_uconst 36] [$sp+0]
	@DEBUG_VALUE: vsnprintf_ex:width <- [DW_OP_plus_uconst 76] [$sp+0]
	@DEBUG_VALUE: vsnprintf_ex:state <- 0
	@DEBUG_VALUE: format_int:q <- undef
	@DEBUG_VALUE: format_int:width <- $r7
	@DEBUG_VALUE: format_int:o <- $r6
	.loc	1 114 6 is_stmt 1               @ ../../../components/platform/soc/rt582/rt582_dongle/dongle/src/vprint.c:114:6
	ldr	r0, [sp, #20]                   @ 4-byte Reload
	cbz	r0, .LBB0_154
.Ltmp334:
@ %bb.152:                              @   in Loop: Header=BB0_2 Depth=1
	@DEBUG_VALUE: vsnprintf_ex:ap <- [DW_OP_plus_uconst 44] [$sp+0]
	@DEBUG_VALUE: format_int:ndigits <- $r11
	@DEBUG_VALUE: format_int:val <- [DW_OP_LLVM_fragment 32 32] $r8
	@DEBUG_VALUE: format_int:width <- $r7
	@DEBUG_VALUE: format_int:o <- $r6
	@DEBUG_VALUE: format_int:nchars <- [DW_OP_plus_uconst 72] [$sp+0]
	@DEBUG_VALUE: format_int:tickskip <- [DW_OP_plus_uconst 40] [$sp+0]
	@DEBUG_VALUE: format_int:val <- [DW_OP_plus_uconst 24, DW_OP_LLVM_fragment 0 32] [$sp+0]
	@DEBUG_VALUE: format_int:digits <- [DW_OP_plus_uconst 56] [$sp+0]
	@DEBUG_VALUE: format_int:n <- [DW_OP_plus_uconst 84] [$sp+0]
	@DEBUG_VALUE: format_int:flags <- [DW_OP_plus_uconst 28] [$sp+0]
	@DEBUG_VALUE: format_int:base <- [DW_OP_plus_uconst 80] [$sp+0]
	@DEBUG_VALUE: vsnprintf_ex:base <- [DW_OP_plus_uconst 80] [$sp+0]
	@DEBUG_VALUE: vsnprintf_ex:val <- [DW_OP_plus_uconst 12, DW_OP_LLVM_fragment 32 32] [$sp+0]
	@DEBUG_VALUE: vsnprintf_ex:val <- [DW_OP_plus_uconst 16, DW_OP_LLVM_fragment 0 32] [$sp+0]
	@DEBUG_VALUE: vsnprintf_ex:flags <- [DW_OP_plus_uconst 28] [$sp+0]
	@DEBUG_VALUE: vsnprintf_ex:prec <- [DW_OP_plus_uconst 36] [$sp+0]
	@DEBUG_VALUE: vsnprintf_ex:width <- [DW_OP_plus_uconst 76] [$sp+0]
	@DEBUG_VALUE: vsnprintf_ex:state <- 0
	.loc	1 115 3                         @ ../../../components/platform/soc/rt582/rt582_dongle/dongle/src/vprint.c:115:3
	cmp	r6, r2
	bhs	.LBB0_162
.Ltmp335:
@ %bb.153:                              @   in Loop: Header=BB0_2 Depth=1
	@DEBUG_VALUE: vsnprintf_ex:ap <- [DW_OP_plus_uconst 44] [$sp+0]
	@DEBUG_VALUE: format_int:ndigits <- $r11
	@DEBUG_VALUE: format_int:val <- [DW_OP_LLVM_fragment 32 32] $r8
	@DEBUG_VALUE: format_int:width <- $r7
	@DEBUG_VALUE: format_int:o <- $r6
	@DEBUG_VALUE: format_int:nchars <- [DW_OP_plus_uconst 72] [$sp+0]
	@DEBUG_VALUE: format_int:tickskip <- [DW_OP_plus_uconst 40] [$sp+0]
	@DEBUG_VALUE: format_int:val <- [DW_OP_plus_uconst 24, DW_OP_LLVM_fragment 0 32] [$sp+0]
	@DEBUG_VALUE: format_int:digits <- [DW_OP_plus_uconst 56] [$sp+0]
	@DEBUG_VALUE: format_int:n <- [DW_OP_plus_uconst 84] [$sp+0]
	@DEBUG_VALUE: format_int:flags <- [DW_OP_plus_uconst 28] [$sp+0]
	@DEBUG_VALUE: format_int:base <- [DW_OP_plus_uconst 80] [$sp+0]
	@DEBUG_VALUE: vsnprintf_ex:base <- [DW_OP_plus_uconst 80] [$sp+0]
	@DEBUG_VALUE: vsnprintf_ex:val <- [DW_OP_plus_uconst 12, DW_OP_LLVM_fragment 32 32] [$sp+0]
	@DEBUG_VALUE: vsnprintf_ex:val <- [DW_OP_plus_uconst 16, DW_OP_LLVM_fragment 0 32] [$sp+0]
	@DEBUG_VALUE: vsnprintf_ex:flags <- [DW_OP_plus_uconst 28] [$sp+0]
	@DEBUG_VALUE: vsnprintf_ex:prec <- [DW_OP_plus_uconst 36] [$sp+0]
	@DEBUG_VALUE: vsnprintf_ex:width <- [DW_OP_plus_uconst 76] [$sp+0]
	@DEBUG_VALUE: vsnprintf_ex:state <- 0
	.loc	1 115 3 is_stmt 0               @ ../../../components/platform/soc/rt582/rt582_dongle/dongle/src/vprint.c:115:3
	movs	r0, #45
	b	.LBB0_161
.Ltmp336:
.LBB0_154:                              @   in Loop: Header=BB0_2 Depth=1
	@DEBUG_VALUE: vsnprintf_ex:ap <- [DW_OP_plus_uconst 44] [$sp+0]
	@DEBUG_VALUE: format_int:ndigits <- $r11
	@DEBUG_VALUE: format_int:val <- [DW_OP_LLVM_fragment 32 32] $r8
	@DEBUG_VALUE: format_int:width <- $r7
	@DEBUG_VALUE: format_int:o <- $r6
	@DEBUG_VALUE: format_int:nchars <- [DW_OP_plus_uconst 72] [$sp+0]
	@DEBUG_VALUE: format_int:tickskip <- [DW_OP_plus_uconst 40] [$sp+0]
	@DEBUG_VALUE: format_int:val <- [DW_OP_plus_uconst 24, DW_OP_LLVM_fragment 0 32] [$sp+0]
	@DEBUG_VALUE: format_int:digits <- [DW_OP_plus_uconst 56] [$sp+0]
	@DEBUG_VALUE: format_int:n <- [DW_OP_plus_uconst 84] [$sp+0]
	@DEBUG_VALUE: format_int:flags <- [DW_OP_plus_uconst 28] [$sp+0]
	@DEBUG_VALUE: format_int:base <- [DW_OP_plus_uconst 80] [$sp+0]
	@DEBUG_VALUE: vsnprintf_ex:base <- [DW_OP_plus_uconst 80] [$sp+0]
	@DEBUG_VALUE: vsnprintf_ex:val <- [DW_OP_plus_uconst 12, DW_OP_LLVM_fragment 32 32] [$sp+0]
	@DEBUG_VALUE: vsnprintf_ex:val <- [DW_OP_plus_uconst 16, DW_OP_LLVM_fragment 0 32] [$sp+0]
	@DEBUG_VALUE: vsnprintf_ex:flags <- [DW_OP_plus_uconst 28] [$sp+0]
	@DEBUG_VALUE: vsnprintf_ex:prec <- [DW_OP_plus_uconst 36] [$sp+0]
	@DEBUG_VALUE: vsnprintf_ex:width <- [DW_OP_plus_uconst 76] [$sp+0]
	@DEBUG_VALUE: vsnprintf_ex:state <- 0
	.loc	1 116 13 is_stmt 1              @ ../../../components/platform/soc/rt582/rt582_dongle/dongle/src/vprint.c:116:13
	lsls.w	r0, r9, #29
	bmi	.LBB0_159
.Ltmp337:
@ %bb.155:                              @   in Loop: Header=BB0_2 Depth=1
	@DEBUG_VALUE: vsnprintf_ex:ap <- [DW_OP_plus_uconst 44] [$sp+0]
	@DEBUG_VALUE: format_int:ndigits <- $r11
	@DEBUG_VALUE: format_int:val <- [DW_OP_LLVM_fragment 32 32] $r8
	@DEBUG_VALUE: format_int:width <- $r7
	@DEBUG_VALUE: format_int:o <- $r6
	@DEBUG_VALUE: format_int:nchars <- [DW_OP_plus_uconst 72] [$sp+0]
	@DEBUG_VALUE: format_int:tickskip <- [DW_OP_plus_uconst 40] [$sp+0]
	@DEBUG_VALUE: format_int:val <- [DW_OP_plus_uconst 24, DW_OP_LLVM_fragment 0 32] [$sp+0]
	@DEBUG_VALUE: format_int:digits <- [DW_OP_plus_uconst 56] [$sp+0]
	@DEBUG_VALUE: format_int:n <- [DW_OP_plus_uconst 84] [$sp+0]
	@DEBUG_VALUE: format_int:flags <- [DW_OP_plus_uconst 28] [$sp+0]
	@DEBUG_VALUE: format_int:base <- [DW_OP_plus_uconst 80] [$sp+0]
	@DEBUG_VALUE: vsnprintf_ex:base <- [DW_OP_plus_uconst 80] [$sp+0]
	@DEBUG_VALUE: vsnprintf_ex:val <- [DW_OP_plus_uconst 12, DW_OP_LLVM_fragment 32 32] [$sp+0]
	@DEBUG_VALUE: vsnprintf_ex:val <- [DW_OP_plus_uconst 16, DW_OP_LLVM_fragment 0 32] [$sp+0]
	@DEBUG_VALUE: vsnprintf_ex:flags <- [DW_OP_plus_uconst 28] [$sp+0]
	@DEBUG_VALUE: vsnprintf_ex:prec <- [DW_OP_plus_uconst 36] [$sp+0]
	@DEBUG_VALUE: vsnprintf_ex:width <- [DW_OP_plus_uconst 76] [$sp+0]
	@DEBUG_VALUE: vsnprintf_ex:state <- 0
	.loc	1 118 13                        @ ../../../components/platform/soc/rt582/rt582_dongle/dongle/src/vprint.c:118:13
	lsls.w	r0, r9, #27
	bpl	.LBB0_163
.Ltmp338:
@ %bb.156:                              @   in Loop: Header=BB0_2 Depth=1
	@DEBUG_VALUE: vsnprintf_ex:ap <- [DW_OP_plus_uconst 44] [$sp+0]
	@DEBUG_VALUE: format_int:ndigits <- $r11
	@DEBUG_VALUE: format_int:val <- [DW_OP_LLVM_fragment 32 32] $r8
	@DEBUG_VALUE: format_int:width <- $r7
	@DEBUG_VALUE: format_int:o <- $r6
	@DEBUG_VALUE: format_int:nchars <- [DW_OP_plus_uconst 72] [$sp+0]
	@DEBUG_VALUE: format_int:tickskip <- [DW_OP_plus_uconst 40] [$sp+0]
	@DEBUG_VALUE: format_int:val <- [DW_OP_plus_uconst 24, DW_OP_LLVM_fragment 0 32] [$sp+0]
	@DEBUG_VALUE: format_int:digits <- [DW_OP_plus_uconst 56] [$sp+0]
	@DEBUG_VALUE: format_int:n <- [DW_OP_plus_uconst 84] [$sp+0]
	@DEBUG_VALUE: format_int:flags <- [DW_OP_plus_uconst 28] [$sp+0]
	@DEBUG_VALUE: format_int:base <- [DW_OP_plus_uconst 80] [$sp+0]
	@DEBUG_VALUE: vsnprintf_ex:base <- [DW_OP_plus_uconst 80] [$sp+0]
	@DEBUG_VALUE: vsnprintf_ex:val <- [DW_OP_plus_uconst 12, DW_OP_LLVM_fragment 32 32] [$sp+0]
	@DEBUG_VALUE: vsnprintf_ex:val <- [DW_OP_plus_uconst 16, DW_OP_LLVM_fragment 0 32] [$sp+0]
	@DEBUG_VALUE: vsnprintf_ex:flags <- [DW_OP_plus_uconst 28] [$sp+0]
	@DEBUG_VALUE: vsnprintf_ex:prec <- [DW_OP_plus_uconst 36] [$sp+0]
	@DEBUG_VALUE: vsnprintf_ex:width <- [DW_OP_plus_uconst 76] [$sp+0]
	@DEBUG_VALUE: vsnprintf_ex:state <- 0
	.loc	1 0 13 is_stmt 0                @ ../../../components/platform/soc/rt582/rt582_dongle/dongle/src/vprint.c:0:13
	ldr	r0, [sp, #24]                   @ 4-byte Reload
.Ltmp339:
	.loc	1 119 3 is_stmt 1               @ ../../../components/platform/soc/rt582/rt582_dongle/dongle/src/vprint.c:119:3
	cmp	r6, r2
	bhs	.LBB0_158
.Ltmp340:
@ %bb.157:                              @   in Loop: Header=BB0_2 Depth=1
	@DEBUG_VALUE: vsnprintf_ex:ap <- [DW_OP_plus_uconst 44] [$sp+0]
	@DEBUG_VALUE: format_int:ndigits <- $r11
	@DEBUG_VALUE: format_int:val <- [DW_OP_LLVM_fragment 32 32] $r8
	@DEBUG_VALUE: format_int:width <- $r7
	@DEBUG_VALUE: format_int:o <- $r6
	@DEBUG_VALUE: format_int:nchars <- [DW_OP_plus_uconst 72] [$sp+0]
	@DEBUG_VALUE: format_int:tickskip <- [DW_OP_plus_uconst 40] [$sp+0]
	@DEBUG_VALUE: format_int:val <- [DW_OP_plus_uconst 24, DW_OP_LLVM_fragment 0 32] [$sp+0]
	@DEBUG_VALUE: format_int:digits <- [DW_OP_plus_uconst 56] [$sp+0]
	@DEBUG_VALUE: format_int:n <- [DW_OP_plus_uconst 84] [$sp+0]
	@DEBUG_VALUE: format_int:flags <- [DW_OP_plus_uconst 28] [$sp+0]
	@DEBUG_VALUE: format_int:base <- [DW_OP_plus_uconst 80] [$sp+0]
	@DEBUG_VALUE: vsnprintf_ex:base <- [DW_OP_plus_uconst 80] [$sp+0]
	@DEBUG_VALUE: vsnprintf_ex:val <- [DW_OP_plus_uconst 12, DW_OP_LLVM_fragment 32 32] [$sp+0]
	@DEBUG_VALUE: vsnprintf_ex:val <- [DW_OP_plus_uconst 16, DW_OP_LLVM_fragment 0 32] [$sp+0]
	@DEBUG_VALUE: vsnprintf_ex:flags <- [DW_OP_plus_uconst 28] [$sp+0]
	@DEBUG_VALUE: vsnprintf_ex:prec <- [DW_OP_plus_uconst 36] [$sp+0]
	@DEBUG_VALUE: vsnprintf_ex:width <- [DW_OP_plus_uconst 76] [$sp+0]
	@DEBUG_VALUE: vsnprintf_ex:state <- 0
	.loc	1 119 3 is_stmt 0               @ ../../../components/platform/soc/rt582/rt582_dongle/dongle/src/vprint.c:119:3
	movw	r1, :lower16:__stdout
	movs	r0, #32
	movt	r1, :upper16:__stdout
	bl	putc
.Ltmp341:
	.loc	1 0 3                           @ ../../../components/platform/soc/rt582/rt582_dongle/dongle/src/vprint.c:0:3
	ldr	r0, [sp, #24]                   @ 4-byte Reload
	ldr	r2, [sp, #84]                   @ 4-byte Reload
.Ltmp342:
	@DEBUG_VALUE: format_int:q <- [DW_OP_plus_uconst 1, DW_OP_stack_value] undef
.LBB0_158:                              @   in Loop: Header=BB0_2 Depth=1
	@DEBUG_VALUE: vsnprintf_ex:ap <- [DW_OP_plus_uconst 44] [$sp+0]
	@DEBUG_VALUE: format_int:ndigits <- $r11
	@DEBUG_VALUE: format_int:val <- [DW_OP_LLVM_fragment 32 32] $r8
	@DEBUG_VALUE: format_int:width <- $r7
	@DEBUG_VALUE: format_int:o <- $r6
	@DEBUG_VALUE: format_int:nchars <- [DW_OP_plus_uconst 72] [$sp+0]
	@DEBUG_VALUE: format_int:tickskip <- [DW_OP_plus_uconst 40] [$sp+0]
	@DEBUG_VALUE: format_int:val <- [DW_OP_plus_uconst 24, DW_OP_LLVM_fragment 0 32] [$sp+0]
	@DEBUG_VALUE: format_int:digits <- [DW_OP_plus_uconst 56] [$sp+0]
	@DEBUG_VALUE: format_int:n <- [DW_OP_plus_uconst 84] [$sp+0]
	@DEBUG_VALUE: format_int:flags <- [DW_OP_plus_uconst 28] [$sp+0]
	@DEBUG_VALUE: format_int:base <- [DW_OP_plus_uconst 80] [$sp+0]
	@DEBUG_VALUE: vsnprintf_ex:base <- [DW_OP_plus_uconst 80] [$sp+0]
	@DEBUG_VALUE: vsnprintf_ex:val <- [DW_OP_plus_uconst 12, DW_OP_LLVM_fragment 32 32] [$sp+0]
	@DEBUG_VALUE: vsnprintf_ex:val <- [DW_OP_plus_uconst 16, DW_OP_LLVM_fragment 0 32] [$sp+0]
	@DEBUG_VALUE: vsnprintf_ex:flags <- [DW_OP_plus_uconst 28] [$sp+0]
	@DEBUG_VALUE: vsnprintf_ex:prec <- [DW_OP_plus_uconst 36] [$sp+0]
	@DEBUG_VALUE: vsnprintf_ex:width <- [DW_OP_plus_uconst 76] [$sp+0]
	@DEBUG_VALUE: vsnprintf_ex:state <- 0
	@DEBUG_VALUE: format_int:q <- undef
	.loc	1 119 3                         @ ../../../components/platform/soc/rt582/rt582_dongle/dongle/src/vprint.c:119:3
	adds	r6, #1
.Ltmp343:
	@DEBUG_VALUE: format_int:o <- $r6
	.loc	1 0 3                           @ ../../../components/platform/soc/rt582/rt582_dongle/dongle/src/vprint.c:0:3
	b	.LBB0_164
.Ltmp344:
.LBB0_159:                              @   in Loop: Header=BB0_2 Depth=1
	@DEBUG_VALUE: vsnprintf_ex:ap <- [DW_OP_plus_uconst 44] [$sp+0]
	@DEBUG_VALUE: format_int:ndigits <- $r11
	@DEBUG_VALUE: format_int:val <- [DW_OP_LLVM_fragment 32 32] $r8
	@DEBUG_VALUE: format_int:width <- $r7
	@DEBUG_VALUE: format_int:o <- $r6
	@DEBUG_VALUE: format_int:nchars <- [DW_OP_plus_uconst 72] [$sp+0]
	@DEBUG_VALUE: format_int:tickskip <- [DW_OP_plus_uconst 40] [$sp+0]
	@DEBUG_VALUE: format_int:val <- [DW_OP_plus_uconst 24, DW_OP_LLVM_fragment 0 32] [$sp+0]
	@DEBUG_VALUE: format_int:digits <- [DW_OP_plus_uconst 56] [$sp+0]
	@DEBUG_VALUE: format_int:n <- [DW_OP_plus_uconst 84] [$sp+0]
	@DEBUG_VALUE: format_int:flags <- [DW_OP_plus_uconst 28] [$sp+0]
	@DEBUG_VALUE: format_int:base <- [DW_OP_plus_uconst 80] [$sp+0]
	@DEBUG_VALUE: vsnprintf_ex:base <- [DW_OP_plus_uconst 80] [$sp+0]
	@DEBUG_VALUE: vsnprintf_ex:val <- [DW_OP_plus_uconst 12, DW_OP_LLVM_fragment 32 32] [$sp+0]
	@DEBUG_VALUE: vsnprintf_ex:val <- [DW_OP_plus_uconst 16, DW_OP_LLVM_fragment 0 32] [$sp+0]
	@DEBUG_VALUE: vsnprintf_ex:flags <- [DW_OP_plus_uconst 28] [$sp+0]
	@DEBUG_VALUE: vsnprintf_ex:prec <- [DW_OP_plus_uconst 36] [$sp+0]
	@DEBUG_VALUE: vsnprintf_ex:width <- [DW_OP_plus_uconst 76] [$sp+0]
	@DEBUG_VALUE: vsnprintf_ex:state <- 0
	.loc	1 117 3 is_stmt 1               @ ../../../components/platform/soc/rt582/rt582_dongle/dongle/src/vprint.c:117:3
	cmp	r6, r2
	bhs	.LBB0_162
.Ltmp345:
@ %bb.160:                              @   in Loop: Header=BB0_2 Depth=1
	@DEBUG_VALUE: vsnprintf_ex:ap <- [DW_OP_plus_uconst 44] [$sp+0]
	@DEBUG_VALUE: format_int:ndigits <- $r11
	@DEBUG_VALUE: format_int:val <- [DW_OP_LLVM_fragment 32 32] $r8
	@DEBUG_VALUE: format_int:width <- $r7
	@DEBUG_VALUE: format_int:o <- $r6
	@DEBUG_VALUE: format_int:nchars <- [DW_OP_plus_uconst 72] [$sp+0]
	@DEBUG_VALUE: format_int:tickskip <- [DW_OP_plus_uconst 40] [$sp+0]
	@DEBUG_VALUE: format_int:val <- [DW_OP_plus_uconst 24, DW_OP_LLVM_fragment 0 32] [$sp+0]
	@DEBUG_VALUE: format_int:digits <- [DW_OP_plus_uconst 56] [$sp+0]
	@DEBUG_VALUE: format_int:n <- [DW_OP_plus_uconst 84] [$sp+0]
	@DEBUG_VALUE: format_int:flags <- [DW_OP_plus_uconst 28] [$sp+0]
	@DEBUG_VALUE: format_int:base <- [DW_OP_plus_uconst 80] [$sp+0]
	@DEBUG_VALUE: vsnprintf_ex:base <- [DW_OP_plus_uconst 80] [$sp+0]
	@DEBUG_VALUE: vsnprintf_ex:val <- [DW_OP_plus_uconst 12, DW_OP_LLVM_fragment 32 32] [$sp+0]
	@DEBUG_VALUE: vsnprintf_ex:val <- [DW_OP_plus_uconst 16, DW_OP_LLVM_fragment 0 32] [$sp+0]
	@DEBUG_VALUE: vsnprintf_ex:flags <- [DW_OP_plus_uconst 28] [$sp+0]
	@DEBUG_VALUE: vsnprintf_ex:prec <- [DW_OP_plus_uconst 36] [$sp+0]
	@DEBUG_VALUE: vsnprintf_ex:width <- [DW_OP_plus_uconst 76] [$sp+0]
	@DEBUG_VALUE: vsnprintf_ex:state <- 0
	.loc	1 117 3 is_stmt 0               @ ../../../components/platform/soc/rt582/rt582_dongle/dongle/src/vprint.c:117:3
	movs	r0, #43
.Ltmp346:
.LBB0_161:                              @   in Loop: Header=BB0_2 Depth=1
	@DEBUG_VALUE: vsnprintf_ex:ap <- [DW_OP_plus_uconst 44] [$sp+0]
	@DEBUG_VALUE: format_int:ndigits <- $r11
	@DEBUG_VALUE: format_int:val <- [DW_OP_LLVM_fragment 32 32] $r8
	@DEBUG_VALUE: format_int:width <- $r7
	@DEBUG_VALUE: format_int:o <- $r6
	@DEBUG_VALUE: format_int:nchars <- [DW_OP_plus_uconst 72] [$sp+0]
	@DEBUG_VALUE: format_int:tickskip <- [DW_OP_plus_uconst 40] [$sp+0]
	@DEBUG_VALUE: format_int:val <- [DW_OP_plus_uconst 24, DW_OP_LLVM_fragment 0 32] [$sp+0]
	@DEBUG_VALUE: format_int:digits <- [DW_OP_plus_uconst 56] [$sp+0]
	@DEBUG_VALUE: format_int:n <- [DW_OP_plus_uconst 84] [$sp+0]
	@DEBUG_VALUE: format_int:flags <- [DW_OP_plus_uconst 28] [$sp+0]
	@DEBUG_VALUE: format_int:base <- [DW_OP_plus_uconst 80] [$sp+0]
	@DEBUG_VALUE: vsnprintf_ex:base <- [DW_OP_plus_uconst 80] [$sp+0]
	@DEBUG_VALUE: vsnprintf_ex:val <- [DW_OP_plus_uconst 12, DW_OP_LLVM_fragment 32 32] [$sp+0]
	@DEBUG_VALUE: vsnprintf_ex:val <- [DW_OP_plus_uconst 16, DW_OP_LLVM_fragment 0 32] [$sp+0]
	@DEBUG_VALUE: vsnprintf_ex:flags <- [DW_OP_plus_uconst 28] [$sp+0]
	@DEBUG_VALUE: vsnprintf_ex:prec <- [DW_OP_plus_uconst 36] [$sp+0]
	@DEBUG_VALUE: vsnprintf_ex:width <- [DW_OP_plus_uconst 76] [$sp+0]
	@DEBUG_VALUE: vsnprintf_ex:state <- 0
	.loc	1 0 0                           @ ../../../components/platform/soc/rt582/rt582_dongle/dongle/src/vprint.c:0:0
	movw	r1, :lower16:__stdout
	movt	r1, :upper16:__stdout
	bl	putc
.Ltmp347:
	ldr	r2, [sp, #84]                   @ 4-byte Reload
.Ltmp348:
	@DEBUG_VALUE: format_int:q <- [DW_OP_plus_uconst 1, DW_OP_stack_value] undef
.LBB0_162:                              @   in Loop: Header=BB0_2 Depth=1
	@DEBUG_VALUE: vsnprintf_ex:ap <- [DW_OP_plus_uconst 44] [$sp+0]
	@DEBUG_VALUE: format_int:ndigits <- $r11
	@DEBUG_VALUE: format_int:val <- [DW_OP_LLVM_fragment 32 32] $r8
	@DEBUG_VALUE: format_int:width <- $r7
	@DEBUG_VALUE: format_int:o <- $r6
	@DEBUG_VALUE: format_int:nchars <- [DW_OP_plus_uconst 72] [$sp+0]
	@DEBUG_VALUE: format_int:tickskip <- [DW_OP_plus_uconst 40] [$sp+0]
	@DEBUG_VALUE: format_int:val <- [DW_OP_plus_uconst 24, DW_OP_LLVM_fragment 0 32] [$sp+0]
	@DEBUG_VALUE: format_int:digits <- [DW_OP_plus_uconst 56] [$sp+0]
	@DEBUG_VALUE: format_int:n <- [DW_OP_plus_uconst 84] [$sp+0]
	@DEBUG_VALUE: format_int:flags <- [DW_OP_plus_uconst 28] [$sp+0]
	@DEBUG_VALUE: format_int:base <- [DW_OP_plus_uconst 80] [$sp+0]
	@DEBUG_VALUE: vsnprintf_ex:base <- [DW_OP_plus_uconst 80] [$sp+0]
	@DEBUG_VALUE: vsnprintf_ex:val <- [DW_OP_plus_uconst 12, DW_OP_LLVM_fragment 32 32] [$sp+0]
	@DEBUG_VALUE: vsnprintf_ex:val <- [DW_OP_plus_uconst 16, DW_OP_LLVM_fragment 0 32] [$sp+0]
	@DEBUG_VALUE: vsnprintf_ex:flags <- [DW_OP_plus_uconst 28] [$sp+0]
	@DEBUG_VALUE: vsnprintf_ex:prec <- [DW_OP_plus_uconst 36] [$sp+0]
	@DEBUG_VALUE: vsnprintf_ex:width <- [DW_OP_plus_uconst 76] [$sp+0]
	@DEBUG_VALUE: vsnprintf_ex:state <- 0
	@DEBUG_VALUE: format_int:q <- undef
	adds	r6, #1
.Ltmp349:
	@DEBUG_VALUE: format_int:o <- $r6
.LBB0_163:                              @   in Loop: Header=BB0_2 Depth=1
	@DEBUG_VALUE: vsnprintf_ex:ap <- [DW_OP_plus_uconst 44] [$sp+0]
	@DEBUG_VALUE: format_int:ndigits <- $r11
	@DEBUG_VALUE: format_int:val <- [DW_OP_LLVM_fragment 32 32] $r8
	@DEBUG_VALUE: format_int:width <- $r7
	@DEBUG_VALUE: format_int:o <- $r6
	@DEBUG_VALUE: format_int:nchars <- [DW_OP_plus_uconst 72] [$sp+0]
	@DEBUG_VALUE: format_int:tickskip <- [DW_OP_plus_uconst 40] [$sp+0]
	@DEBUG_VALUE: format_int:val <- [DW_OP_plus_uconst 24, DW_OP_LLVM_fragment 0 32] [$sp+0]
	@DEBUG_VALUE: format_int:digits <- [DW_OP_plus_uconst 56] [$sp+0]
	@DEBUG_VALUE: format_int:n <- [DW_OP_plus_uconst 84] [$sp+0]
	@DEBUG_VALUE: format_int:flags <- [DW_OP_plus_uconst 28] [$sp+0]
	@DEBUG_VALUE: format_int:base <- [DW_OP_plus_uconst 80] [$sp+0]
	@DEBUG_VALUE: vsnprintf_ex:base <- [DW_OP_plus_uconst 80] [$sp+0]
	@DEBUG_VALUE: vsnprintf_ex:val <- [DW_OP_plus_uconst 12, DW_OP_LLVM_fragment 32 32] [$sp+0]
	@DEBUG_VALUE: vsnprintf_ex:val <- [DW_OP_plus_uconst 16, DW_OP_LLVM_fragment 0 32] [$sp+0]
	@DEBUG_VALUE: vsnprintf_ex:flags <- [DW_OP_plus_uconst 28] [$sp+0]
	@DEBUG_VALUE: vsnprintf_ex:prec <- [DW_OP_plus_uconst 36] [$sp+0]
	@DEBUG_VALUE: vsnprintf_ex:width <- [DW_OP_plus_uconst 76] [$sp+0]
	@DEBUG_VALUE: vsnprintf_ex:state <- 0
	ldr	r0, [sp, #24]                   @ 4-byte Reload
.Ltmp350:
.LBB0_164:                              @   in Loop: Header=BB0_2 Depth=1
	@DEBUG_VALUE: vsnprintf_ex:ap <- [DW_OP_plus_uconst 44] [$sp+0]
	@DEBUG_VALUE: format_int:ndigits <- $r11
	@DEBUG_VALUE: format_int:val <- [DW_OP_LLVM_fragment 32 32] $r8
	@DEBUG_VALUE: format_int:width <- $r7
	@DEBUG_VALUE: format_int:o <- $r6
	@DEBUG_VALUE: format_int:nchars <- [DW_OP_plus_uconst 72] [$sp+0]
	@DEBUG_VALUE: format_int:tickskip <- [DW_OP_plus_uconst 40] [$sp+0]
	@DEBUG_VALUE: format_int:val <- [DW_OP_plus_uconst 24, DW_OP_LLVM_fragment 0 32] [$sp+0]
	@DEBUG_VALUE: format_int:digits <- [DW_OP_plus_uconst 56] [$sp+0]
	@DEBUG_VALUE: format_int:n <- [DW_OP_plus_uconst 84] [$sp+0]
	@DEBUG_VALUE: format_int:flags <- [DW_OP_plus_uconst 28] [$sp+0]
	@DEBUG_VALUE: format_int:base <- [DW_OP_plus_uconst 80] [$sp+0]
	@DEBUG_VALUE: vsnprintf_ex:base <- [DW_OP_plus_uconst 80] [$sp+0]
	@DEBUG_VALUE: vsnprintf_ex:val <- [DW_OP_plus_uconst 12, DW_OP_LLVM_fragment 32 32] [$sp+0]
	@DEBUG_VALUE: vsnprintf_ex:val <- [DW_OP_plus_uconst 16, DW_OP_LLVM_fragment 0 32] [$sp+0]
	@DEBUG_VALUE: vsnprintf_ex:flags <- [DW_OP_plus_uconst 28] [$sp+0]
	@DEBUG_VALUE: vsnprintf_ex:prec <- [DW_OP_plus_uconst 36] [$sp+0]
	@DEBUG_VALUE: vsnprintf_ex:width <- [DW_OP_plus_uconst 76] [$sp+0]
	@DEBUG_VALUE: vsnprintf_ex:state <- 0
	@DEBUG_VALUE: format_int:q <- undef
	@DEBUG_VALUE: format_int:o <- $r6
	.loc	1 122 24 is_stmt 1              @ ../../../components/platform/soc/rt582/rt582_dongle/dongle/src/vprint.c:122:24
	cbz	r5, .LBB0_170
.Ltmp351:
@ %bb.165:                              @   in Loop: Header=BB0_2 Depth=1
	@DEBUG_VALUE: vsnprintf_ex:ap <- [DW_OP_plus_uconst 44] [$sp+0]
	@DEBUG_VALUE: format_int:ndigits <- $r11
	@DEBUG_VALUE: format_int:val <- [DW_OP_LLVM_fragment 32 32] $r8
	@DEBUG_VALUE: format_int:width <- $r7
	@DEBUG_VALUE: format_int:o <- $r6
	@DEBUG_VALUE: format_int:nchars <- [DW_OP_plus_uconst 72] [$sp+0]
	@DEBUG_VALUE: format_int:tickskip <- [DW_OP_plus_uconst 40] [$sp+0]
	@DEBUG_VALUE: format_int:val <- [DW_OP_plus_uconst 24, DW_OP_LLVM_fragment 0 32] [$sp+0]
	@DEBUG_VALUE: format_int:digits <- [DW_OP_plus_uconst 56] [$sp+0]
	@DEBUG_VALUE: format_int:n <- [DW_OP_plus_uconst 84] [$sp+0]
	@DEBUG_VALUE: format_int:flags <- [DW_OP_plus_uconst 28] [$sp+0]
	@DEBUG_VALUE: format_int:base <- [DW_OP_plus_uconst 80] [$sp+0]
	@DEBUG_VALUE: vsnprintf_ex:base <- [DW_OP_plus_uconst 80] [$sp+0]
	@DEBUG_VALUE: vsnprintf_ex:val <- [DW_OP_plus_uconst 12, DW_OP_LLVM_fragment 32 32] [$sp+0]
	@DEBUG_VALUE: vsnprintf_ex:val <- [DW_OP_plus_uconst 16, DW_OP_LLVM_fragment 0 32] [$sp+0]
	@DEBUG_VALUE: vsnprintf_ex:flags <- [DW_OP_plus_uconst 28] [$sp+0]
	@DEBUG_VALUE: vsnprintf_ex:prec <- [DW_OP_plus_uconst 36] [$sp+0]
	@DEBUG_VALUE: vsnprintf_ex:width <- [DW_OP_plus_uconst 76] [$sp+0]
	@DEBUG_VALUE: vsnprintf_ex:state <- 0
	.loc	1 123 3                         @ ../../../components/platform/soc/rt582/rt582_dongle/dongle/src/vprint.c:123:3
	cmp	r6, r2
	bhs	.LBB0_167
.Ltmp352:
@ %bb.166:                              @   in Loop: Header=BB0_2 Depth=1
	@DEBUG_VALUE: vsnprintf_ex:ap <- [DW_OP_plus_uconst 44] [$sp+0]
	@DEBUG_VALUE: format_int:ndigits <- $r11
	@DEBUG_VALUE: format_int:val <- [DW_OP_LLVM_fragment 32 32] $r8
	@DEBUG_VALUE: format_int:width <- $r7
	@DEBUG_VALUE: format_int:o <- $r6
	@DEBUG_VALUE: format_int:nchars <- [DW_OP_plus_uconst 72] [$sp+0]
	@DEBUG_VALUE: format_int:tickskip <- [DW_OP_plus_uconst 40] [$sp+0]
	@DEBUG_VALUE: format_int:val <- [DW_OP_plus_uconst 24, DW_OP_LLVM_fragment 0 32] [$sp+0]
	@DEBUG_VALUE: format_int:digits <- [DW_OP_plus_uconst 56] [$sp+0]
	@DEBUG_VALUE: format_int:n <- [DW_OP_plus_uconst 84] [$sp+0]
	@DEBUG_VALUE: format_int:flags <- [DW_OP_plus_uconst 28] [$sp+0]
	@DEBUG_VALUE: format_int:base <- [DW_OP_plus_uconst 80] [$sp+0]
	@DEBUG_VALUE: vsnprintf_ex:base <- [DW_OP_plus_uconst 80] [$sp+0]
	@DEBUG_VALUE: vsnprintf_ex:val <- [DW_OP_plus_uconst 12, DW_OP_LLVM_fragment 32 32] [$sp+0]
	@DEBUG_VALUE: vsnprintf_ex:val <- [DW_OP_plus_uconst 16, DW_OP_LLVM_fragment 0 32] [$sp+0]
	@DEBUG_VALUE: vsnprintf_ex:flags <- [DW_OP_plus_uconst 28] [$sp+0]
	@DEBUG_VALUE: vsnprintf_ex:prec <- [DW_OP_plus_uconst 36] [$sp+0]
	@DEBUG_VALUE: vsnprintf_ex:width <- [DW_OP_plus_uconst 76] [$sp+0]
	@DEBUG_VALUE: vsnprintf_ex:state <- 0
	.loc	1 123 3 is_stmt 0               @ ../../../components/platform/soc/rt582/rt582_dongle/dongle/src/vprint.c:123:3
	movw	r1, :lower16:__stdout
	movs	r0, #48
	movt	r1, :upper16:__stdout
	bl	putc
.Ltmp353:
	.loc	1 0 3                           @ ../../../components/platform/soc/rt582/rt582_dongle/dongle/src/vprint.c:0:3
	ldr	r2, [sp, #84]                   @ 4-byte Reload
.Ltmp354:
	@DEBUG_VALUE: format_int:q <- [DW_OP_plus_uconst 1, DW_OP_stack_value] undef
.LBB0_167:                              @   in Loop: Header=BB0_2 Depth=1
	@DEBUG_VALUE: vsnprintf_ex:ap <- [DW_OP_plus_uconst 44] [$sp+0]
	@DEBUG_VALUE: format_int:ndigits <- $r11
	@DEBUG_VALUE: format_int:val <- [DW_OP_LLVM_fragment 32 32] $r8
	@DEBUG_VALUE: format_int:width <- $r7
	@DEBUG_VALUE: format_int:o <- $r6
	@DEBUG_VALUE: format_int:nchars <- [DW_OP_plus_uconst 72] [$sp+0]
	@DEBUG_VALUE: format_int:tickskip <- [DW_OP_plus_uconst 40] [$sp+0]
	@DEBUG_VALUE: format_int:val <- [DW_OP_plus_uconst 24, DW_OP_LLVM_fragment 0 32] [$sp+0]
	@DEBUG_VALUE: format_int:digits <- [DW_OP_plus_uconst 56] [$sp+0]
	@DEBUG_VALUE: format_int:n <- [DW_OP_plus_uconst 84] [$sp+0]
	@DEBUG_VALUE: format_int:flags <- [DW_OP_plus_uconst 28] [$sp+0]
	@DEBUG_VALUE: format_int:base <- [DW_OP_plus_uconst 80] [$sp+0]
	@DEBUG_VALUE: vsnprintf_ex:base <- [DW_OP_plus_uconst 80] [$sp+0]
	@DEBUG_VALUE: vsnprintf_ex:val <- [DW_OP_plus_uconst 12, DW_OP_LLVM_fragment 32 32] [$sp+0]
	@DEBUG_VALUE: vsnprintf_ex:val <- [DW_OP_plus_uconst 16, DW_OP_LLVM_fragment 0 32] [$sp+0]
	@DEBUG_VALUE: vsnprintf_ex:flags <- [DW_OP_plus_uconst 28] [$sp+0]
	@DEBUG_VALUE: vsnprintf_ex:prec <- [DW_OP_plus_uconst 36] [$sp+0]
	@DEBUG_VALUE: vsnprintf_ex:width <- [DW_OP_plus_uconst 76] [$sp+0]
	@DEBUG_VALUE: vsnprintf_ex:state <- 0
	@DEBUG_VALUE: format_int:q <- undef
	.loc	1 123 3                         @ ../../../components/platform/soc/rt582/rt582_dongle/dongle/src/vprint.c:123:3
	adds	r0, r6, #1
.Ltmp355:
	@DEBUG_VALUE: format_int:o <- $r0
	.loc	1 0 3                           @ ../../../components/platform/soc/rt582/rt582_dongle/dongle/src/vprint.c:0:3
	ldr	r5, [sp, #72]                   @ 4-byte Reload
.Ltmp356:
	.loc	1 124 3 is_stmt 1               @ ../../../components/platform/soc/rt582/rt582_dongle/dongle/src/vprint.c:124:3
	cmp	r0, r2
	bhs	.LBB0_169
.Ltmp357:
@ %bb.168:                              @   in Loop: Header=BB0_2 Depth=1
	@DEBUG_VALUE: vsnprintf_ex:ap <- [DW_OP_plus_uconst 44] [$sp+0]
	@DEBUG_VALUE: format_int:ndigits <- $r11
	@DEBUG_VALUE: format_int:val <- [DW_OP_LLVM_fragment 32 32] $r8
	@DEBUG_VALUE: format_int:width <- $r7
	@DEBUG_VALUE: format_int:o <- $r0
	@DEBUG_VALUE: format_int:nchars <- [DW_OP_plus_uconst 72] [$sp+0]
	@DEBUG_VALUE: format_int:tickskip <- [DW_OP_plus_uconst 40] [$sp+0]
	@DEBUG_VALUE: format_int:val <- [DW_OP_plus_uconst 24, DW_OP_LLVM_fragment 0 32] [$sp+0]
	@DEBUG_VALUE: format_int:digits <- [DW_OP_plus_uconst 56] [$sp+0]
	@DEBUG_VALUE: format_int:n <- [DW_OP_plus_uconst 84] [$sp+0]
	@DEBUG_VALUE: format_int:flags <- [DW_OP_plus_uconst 28] [$sp+0]
	@DEBUG_VALUE: format_int:base <- [DW_OP_plus_uconst 80] [$sp+0]
	@DEBUG_VALUE: vsnprintf_ex:base <- [DW_OP_plus_uconst 80] [$sp+0]
	@DEBUG_VALUE: vsnprintf_ex:val <- [DW_OP_plus_uconst 12, DW_OP_LLVM_fragment 32 32] [$sp+0]
	@DEBUG_VALUE: vsnprintf_ex:val <- [DW_OP_plus_uconst 16, DW_OP_LLVM_fragment 0 32] [$sp+0]
	@DEBUG_VALUE: vsnprintf_ex:flags <- [DW_OP_plus_uconst 28] [$sp+0]
	@DEBUG_VALUE: vsnprintf_ex:prec <- [DW_OP_plus_uconst 36] [$sp+0]
	@DEBUG_VALUE: vsnprintf_ex:width <- [DW_OP_plus_uconst 76] [$sp+0]
	@DEBUG_VALUE: vsnprintf_ex:state <- 0
	.loc	1 124 3 is_stmt 0               @ ../../../components/platform/soc/rt582/rt582_dongle/dongle/src/vprint.c:124:3
	ldr	r0, [sp, #8]                    @ 4-byte Reload
.Ltmp358:
	movw	r1, :lower16:__stdout
	cmp	r0, #0
	mov.w	r0, #88
	movt	r1, :upper16:__stdout
	it	eq
	moveq	r0, #120
	bl	putc
.Ltmp359:
	.loc	1 0 3                           @ ../../../components/platform/soc/rt582/rt582_dongle/dongle/src/vprint.c:0:3
	ldr	r2, [sp, #84]                   @ 4-byte Reload
.Ltmp360:
	@DEBUG_VALUE: format_int:q <- [DW_OP_plus_uconst 1, DW_OP_stack_value] undef
.LBB0_169:                              @   in Loop: Header=BB0_2 Depth=1
	@DEBUG_VALUE: vsnprintf_ex:ap <- [DW_OP_plus_uconst 44] [$sp+0]
	@DEBUG_VALUE: format_int:ndigits <- $r11
	@DEBUG_VALUE: format_int:val <- [DW_OP_LLVM_fragment 32 32] $r8
	@DEBUG_VALUE: format_int:width <- $r7
	@DEBUG_VALUE: format_int:nchars <- [DW_OP_plus_uconst 72] [$sp+0]
	@DEBUG_VALUE: format_int:tickskip <- [DW_OP_plus_uconst 40] [$sp+0]
	@DEBUG_VALUE: format_int:val <- [DW_OP_plus_uconst 24, DW_OP_LLVM_fragment 0 32] [$sp+0]
	@DEBUG_VALUE: format_int:digits <- [DW_OP_plus_uconst 56] [$sp+0]
	@DEBUG_VALUE: format_int:n <- [DW_OP_plus_uconst 84] [$sp+0]
	@DEBUG_VALUE: format_int:flags <- [DW_OP_plus_uconst 28] [$sp+0]
	@DEBUG_VALUE: format_int:base <- [DW_OP_plus_uconst 80] [$sp+0]
	@DEBUG_VALUE: vsnprintf_ex:base <- [DW_OP_plus_uconst 80] [$sp+0]
	@DEBUG_VALUE: vsnprintf_ex:val <- [DW_OP_plus_uconst 12, DW_OP_LLVM_fragment 32 32] [$sp+0]
	@DEBUG_VALUE: vsnprintf_ex:val <- [DW_OP_plus_uconst 16, DW_OP_LLVM_fragment 0 32] [$sp+0]
	@DEBUG_VALUE: vsnprintf_ex:flags <- [DW_OP_plus_uconst 28] [$sp+0]
	@DEBUG_VALUE: vsnprintf_ex:prec <- [DW_OP_plus_uconst 36] [$sp+0]
	@DEBUG_VALUE: vsnprintf_ex:width <- [DW_OP_plus_uconst 76] [$sp+0]
	@DEBUG_VALUE: vsnprintf_ex:state <- 0
	@DEBUG_VALUE: format_int:q <- undef
	ldr	r0, [sp, #24]                   @ 4-byte Reload
	.loc	1 124 3                         @ ../../../components/platform/soc/rt582/rt582_dongle/dongle/src/vprint.c:124:3
	adds	r6, #2
.Ltmp361:
	@DEBUG_VALUE: format_int:o <- $r6
	.loc	1 0 3                           @ ../../../components/platform/soc/rt582/rt582_dongle/dongle/src/vprint.c:0:3
	b	.LBB0_171
.Ltmp362:
.LBB0_170:                              @   in Loop: Header=BB0_2 Depth=1
	@DEBUG_VALUE: vsnprintf_ex:ap <- [DW_OP_plus_uconst 44] [$sp+0]
	@DEBUG_VALUE: format_int:ndigits <- $r11
	@DEBUG_VALUE: format_int:val <- [DW_OP_LLVM_fragment 32 32] $r8
	@DEBUG_VALUE: format_int:width <- $r7
	@DEBUG_VALUE: format_int:o <- $r6
	@DEBUG_VALUE: format_int:nchars <- [DW_OP_plus_uconst 72] [$sp+0]
	@DEBUG_VALUE: format_int:tickskip <- [DW_OP_plus_uconst 40] [$sp+0]
	@DEBUG_VALUE: format_int:val <- [DW_OP_plus_uconst 24, DW_OP_LLVM_fragment 0 32] [$sp+0]
	@DEBUG_VALUE: format_int:digits <- [DW_OP_plus_uconst 56] [$sp+0]
	@DEBUG_VALUE: format_int:n <- [DW_OP_plus_uconst 84] [$sp+0]
	@DEBUG_VALUE: format_int:flags <- [DW_OP_plus_uconst 28] [$sp+0]
	@DEBUG_VALUE: format_int:base <- [DW_OP_plus_uconst 80] [$sp+0]
	@DEBUG_VALUE: vsnprintf_ex:base <- [DW_OP_plus_uconst 80] [$sp+0]
	@DEBUG_VALUE: vsnprintf_ex:val <- [DW_OP_plus_uconst 12, DW_OP_LLVM_fragment 32 32] [$sp+0]
	@DEBUG_VALUE: vsnprintf_ex:val <- [DW_OP_plus_uconst 16, DW_OP_LLVM_fragment 0 32] [$sp+0]
	@DEBUG_VALUE: vsnprintf_ex:flags <- [DW_OP_plus_uconst 28] [$sp+0]
	@DEBUG_VALUE: vsnprintf_ex:prec <- [DW_OP_plus_uconst 36] [$sp+0]
	@DEBUG_VALUE: vsnprintf_ex:width <- [DW_OP_plus_uconst 76] [$sp+0]
	@DEBUG_VALUE: vsnprintf_ex:state <- 0
	ldr	r5, [sp, #72]                   @ 4-byte Reload
.Ltmp363:
.LBB0_171:                              @   in Loop: Header=BB0_2 Depth=1
	@DEBUG_VALUE: vsnprintf_ex:ap <- [DW_OP_plus_uconst 44] [$sp+0]
	@DEBUG_VALUE: format_int:ndigits <- $r11
	@DEBUG_VALUE: format_int:val <- [DW_OP_LLVM_fragment 32 32] $r8
	@DEBUG_VALUE: format_int:width <- $r7
	@DEBUG_VALUE: format_int:o <- $r6
	@DEBUG_VALUE: format_int:nchars <- [DW_OP_plus_uconst 72] [$sp+0]
	@DEBUG_VALUE: format_int:tickskip <- [DW_OP_plus_uconst 40] [$sp+0]
	@DEBUG_VALUE: format_int:val <- [DW_OP_plus_uconst 24, DW_OP_LLVM_fragment 0 32] [$sp+0]
	@DEBUG_VALUE: format_int:digits <- [DW_OP_plus_uconst 56] [$sp+0]
	@DEBUG_VALUE: format_int:n <- [DW_OP_plus_uconst 84] [$sp+0]
	@DEBUG_VALUE: format_int:flags <- [DW_OP_plus_uconst 28] [$sp+0]
	@DEBUG_VALUE: format_int:base <- [DW_OP_plus_uconst 80] [$sp+0]
	@DEBUG_VALUE: vsnprintf_ex:base <- [DW_OP_plus_uconst 80] [$sp+0]
	@DEBUG_VALUE: vsnprintf_ex:val <- [DW_OP_plus_uconst 12, DW_OP_LLVM_fragment 32 32] [$sp+0]
	@DEBUG_VALUE: vsnprintf_ex:val <- [DW_OP_plus_uconst 16, DW_OP_LLVM_fragment 0 32] [$sp+0]
	@DEBUG_VALUE: vsnprintf_ex:flags <- [DW_OP_plus_uconst 28] [$sp+0]
	@DEBUG_VALUE: vsnprintf_ex:prec <- [DW_OP_plus_uconst 36] [$sp+0]
	@DEBUG_VALUE: vsnprintf_ex:width <- [DW_OP_plus_uconst 76] [$sp+0]
	@DEBUG_VALUE: vsnprintf_ex:state <- 0
	@DEBUG_VALUE: format_int:q <- undef
	@DEBUG_VALUE: format_int:width <- $r7
	@DEBUG_VALUE: format_int:o <- $r6
	.loc	1 128 48 is_stmt 1              @ ../../../components/platform/soc/rt582/rt582_dongle/dongle/src/vprint.c:128:48
	cmp	r7, r5
	ble	.LBB0_179
.Ltmp364:
@ %bb.172:                              @   in Loop: Header=BB0_2 Depth=1
	@DEBUG_VALUE: vsnprintf_ex:ap <- [DW_OP_plus_uconst 44] [$sp+0]
	@DEBUG_VALUE: format_int:ndigits <- $r11
	@DEBUG_VALUE: format_int:val <- [DW_OP_LLVM_fragment 32 32] $r8
	@DEBUG_VALUE: format_int:width <- $r7
	@DEBUG_VALUE: format_int:o <- $r6
	@DEBUG_VALUE: format_int:nchars <- [DW_OP_plus_uconst 72] [$sp+0]
	@DEBUG_VALUE: format_int:tickskip <- [DW_OP_plus_uconst 40] [$sp+0]
	@DEBUG_VALUE: format_int:val <- [DW_OP_plus_uconst 24, DW_OP_LLVM_fragment 0 32] [$sp+0]
	@DEBUG_VALUE: format_int:digits <- [DW_OP_plus_uconst 56] [$sp+0]
	@DEBUG_VALUE: format_int:n <- [DW_OP_plus_uconst 84] [$sp+0]
	@DEBUG_VALUE: format_int:flags <- [DW_OP_plus_uconst 28] [$sp+0]
	@DEBUG_VALUE: format_int:base <- [DW_OP_plus_uconst 80] [$sp+0]
	@DEBUG_VALUE: vsnprintf_ex:base <- [DW_OP_plus_uconst 80] [$sp+0]
	@DEBUG_VALUE: vsnprintf_ex:val <- [DW_OP_plus_uconst 12, DW_OP_LLVM_fragment 32 32] [$sp+0]
	@DEBUG_VALUE: vsnprintf_ex:val <- [DW_OP_plus_uconst 16, DW_OP_LLVM_fragment 0 32] [$sp+0]
	@DEBUG_VALUE: vsnprintf_ex:flags <- [DW_OP_plus_uconst 28] [$sp+0]
	@DEBUG_VALUE: vsnprintf_ex:prec <- [DW_OP_plus_uconst 36] [$sp+0]
	@DEBUG_VALUE: vsnprintf_ex:width <- [DW_OP_plus_uconst 76] [$sp+0]
	@DEBUG_VALUE: vsnprintf_ex:state <- 0
	cmp	r4, #1
	bne	.LBB0_179
.Ltmp365:
@ %bb.173:                              @   in Loop: Header=BB0_2 Depth=1
	@DEBUG_VALUE: vsnprintf_ex:ap <- [DW_OP_plus_uconst 44] [$sp+0]
	@DEBUG_VALUE: format_int:ndigits <- $r11
	@DEBUG_VALUE: format_int:val <- [DW_OP_LLVM_fragment 32 32] $r8
	@DEBUG_VALUE: format_int:width <- $r7
	@DEBUG_VALUE: format_int:o <- $r6
	@DEBUG_VALUE: format_int:nchars <- [DW_OP_plus_uconst 72] [$sp+0]
	@DEBUG_VALUE: format_int:tickskip <- [DW_OP_plus_uconst 40] [$sp+0]
	@DEBUG_VALUE: format_int:val <- [DW_OP_plus_uconst 24, DW_OP_LLVM_fragment 0 32] [$sp+0]
	@DEBUG_VALUE: format_int:digits <- [DW_OP_plus_uconst 56] [$sp+0]
	@DEBUG_VALUE: format_int:n <- [DW_OP_plus_uconst 84] [$sp+0]
	@DEBUG_VALUE: format_int:flags <- [DW_OP_plus_uconst 28] [$sp+0]
	@DEBUG_VALUE: format_int:base <- [DW_OP_plus_uconst 80] [$sp+0]
	@DEBUG_VALUE: vsnprintf_ex:base <- [DW_OP_plus_uconst 80] [$sp+0]
	@DEBUG_VALUE: vsnprintf_ex:val <- [DW_OP_plus_uconst 12, DW_OP_LLVM_fragment 32 32] [$sp+0]
	@DEBUG_VALUE: vsnprintf_ex:val <- [DW_OP_plus_uconst 16, DW_OP_LLVM_fragment 0 32] [$sp+0]
	@DEBUG_VALUE: vsnprintf_ex:flags <- [DW_OP_plus_uconst 28] [$sp+0]
	@DEBUG_VALUE: vsnprintf_ex:prec <- [DW_OP_plus_uconst 36] [$sp+0]
	@DEBUG_VALUE: vsnprintf_ex:width <- [DW_OP_plus_uconst 76] [$sp+0]
	@DEBUG_VALUE: vsnprintf_ex:state <- 0
	cmp	r7, r11
	ble	.LBB0_179
.Ltmp366:
@ %bb.174:                              @   in Loop: Header=BB0_2 Depth=1
	@DEBUG_VALUE: vsnprintf_ex:ap <- [DW_OP_plus_uconst 44] [$sp+0]
	@DEBUG_VALUE: format_int:ndigits <- $r11
	@DEBUG_VALUE: format_int:val <- [DW_OP_LLVM_fragment 32 32] $r8
	@DEBUG_VALUE: format_int:width <- $r7
	@DEBUG_VALUE: format_int:o <- $r6
	@DEBUG_VALUE: format_int:nchars <- [DW_OP_plus_uconst 72] [$sp+0]
	@DEBUG_VALUE: format_int:tickskip <- [DW_OP_plus_uconst 40] [$sp+0]
	@DEBUG_VALUE: format_int:val <- [DW_OP_plus_uconst 24, DW_OP_LLVM_fragment 0 32] [$sp+0]
	@DEBUG_VALUE: format_int:digits <- [DW_OP_plus_uconst 56] [$sp+0]
	@DEBUG_VALUE: format_int:n <- [DW_OP_plus_uconst 84] [$sp+0]
	@DEBUG_VALUE: format_int:flags <- [DW_OP_plus_uconst 28] [$sp+0]
	@DEBUG_VALUE: format_int:base <- [DW_OP_plus_uconst 80] [$sp+0]
	@DEBUG_VALUE: vsnprintf_ex:base <- [DW_OP_plus_uconst 80] [$sp+0]
	@DEBUG_VALUE: vsnprintf_ex:val <- [DW_OP_plus_uconst 12, DW_OP_LLVM_fragment 32 32] [$sp+0]
	@DEBUG_VALUE: vsnprintf_ex:val <- [DW_OP_plus_uconst 16, DW_OP_LLVM_fragment 0 32] [$sp+0]
	@DEBUG_VALUE: vsnprintf_ex:flags <- [DW_OP_plus_uconst 28] [$sp+0]
	@DEBUG_VALUE: vsnprintf_ex:prec <- [DW_OP_plus_uconst 36] [$sp+0]
	@DEBUG_VALUE: vsnprintf_ex:width <- [DW_OP_plus_uconst 76] [$sp+0]
	@DEBUG_VALUE: vsnprintf_ex:state <- 0
	.loc	1 0 48 is_stmt 0                @ ../../../components/platform/soc/rt582/rt582_dongle/dongle/src/vprint.c:0:48
	mov	r5, r6
	mov	r4, r7
.Ltmp367:
	.p2align	2
.LBB0_175:                              @   Parent Loop BB0_2 Depth=1
                                        @ =>  This Inner Loop Header: Depth=2
	@DEBUG_VALUE: vsnprintf_ex:ap <- [DW_OP_plus_uconst 44] [$sp+0]
	@DEBUG_VALUE: format_int:ndigits <- $r11
	@DEBUG_VALUE: format_int:val <- [DW_OP_LLVM_fragment 32 32] $r8
	@DEBUG_VALUE: format_int:nchars <- [DW_OP_plus_uconst 72] [$sp+0]
	@DEBUG_VALUE: format_int:tickskip <- [DW_OP_plus_uconst 40] [$sp+0]
	@DEBUG_VALUE: format_int:val <- [DW_OP_plus_uconst 24, DW_OP_LLVM_fragment 0 32] [$sp+0]
	@DEBUG_VALUE: format_int:digits <- [DW_OP_plus_uconst 56] [$sp+0]
	@DEBUG_VALUE: format_int:n <- [DW_OP_plus_uconst 84] [$sp+0]
	@DEBUG_VALUE: format_int:flags <- [DW_OP_plus_uconst 28] [$sp+0]
	@DEBUG_VALUE: format_int:base <- [DW_OP_plus_uconst 80] [$sp+0]
	@DEBUG_VALUE: vsnprintf_ex:base <- [DW_OP_plus_uconst 80] [$sp+0]
	@DEBUG_VALUE: vsnprintf_ex:val <- [DW_OP_plus_uconst 12, DW_OP_LLVM_fragment 32 32] [$sp+0]
	@DEBUG_VALUE: vsnprintf_ex:val <- [DW_OP_plus_uconst 16, DW_OP_LLVM_fragment 0 32] [$sp+0]
	@DEBUG_VALUE: vsnprintf_ex:flags <- [DW_OP_plus_uconst 28] [$sp+0]
	@DEBUG_VALUE: vsnprintf_ex:prec <- [DW_OP_plus_uconst 36] [$sp+0]
	@DEBUG_VALUE: vsnprintf_ex:width <- [DW_OP_plus_uconst 76] [$sp+0]
	@DEBUG_VALUE: vsnprintf_ex:state <- 0
	@DEBUG_VALUE: format_int:q <- undef
	@DEBUG_VALUE: format_int:width <- $r4
	@DEBUG_VALUE: format_int:o <- $r5
	.loc	1 130 4 is_stmt 1               @ ../../../components/platform/soc/rt582/rt582_dongle/dongle/src/vprint.c:130:4
	cmp	r5, r2
	bhs	.LBB0_177
.Ltmp368:
@ %bb.176:                              @   in Loop: Header=BB0_175 Depth=2
	@DEBUG_VALUE: vsnprintf_ex:ap <- [DW_OP_plus_uconst 44] [$sp+0]
	@DEBUG_VALUE: format_int:ndigits <- $r11
	@DEBUG_VALUE: format_int:val <- [DW_OP_LLVM_fragment 32 32] $r8
	@DEBUG_VALUE: format_int:o <- $r5
	@DEBUG_VALUE: format_int:width <- $r4
	@DEBUG_VALUE: format_int:nchars <- [DW_OP_plus_uconst 72] [$sp+0]
	@DEBUG_VALUE: format_int:tickskip <- [DW_OP_plus_uconst 40] [$sp+0]
	@DEBUG_VALUE: format_int:val <- [DW_OP_plus_uconst 24, DW_OP_LLVM_fragment 0 32] [$sp+0]
	@DEBUG_VALUE: format_int:digits <- [DW_OP_plus_uconst 56] [$sp+0]
	@DEBUG_VALUE: format_int:n <- [DW_OP_plus_uconst 84] [$sp+0]
	@DEBUG_VALUE: format_int:flags <- [DW_OP_plus_uconst 28] [$sp+0]
	@DEBUG_VALUE: format_int:base <- [DW_OP_plus_uconst 80] [$sp+0]
	@DEBUG_VALUE: vsnprintf_ex:base <- [DW_OP_plus_uconst 80] [$sp+0]
	@DEBUG_VALUE: vsnprintf_ex:val <- [DW_OP_plus_uconst 12, DW_OP_LLVM_fragment 32 32] [$sp+0]
	@DEBUG_VALUE: vsnprintf_ex:val <- [DW_OP_plus_uconst 16, DW_OP_LLVM_fragment 0 32] [$sp+0]
	@DEBUG_VALUE: vsnprintf_ex:flags <- [DW_OP_plus_uconst 28] [$sp+0]
	@DEBUG_VALUE: vsnprintf_ex:prec <- [DW_OP_plus_uconst 36] [$sp+0]
	@DEBUG_VALUE: vsnprintf_ex:width <- [DW_OP_plus_uconst 76] [$sp+0]
	@DEBUG_VALUE: vsnprintf_ex:state <- 0
	.loc	1 130 4 is_stmt 0               @ ../../../components/platform/soc/rt582/rt582_dongle/dongle/src/vprint.c:130:4
	movw	r1, :lower16:__stdout
	movs	r0, #48
	movt	r1, :upper16:__stdout
	bl	putc
.Ltmp369:
	.loc	1 0 4                           @ ../../../components/platform/soc/rt582/rt582_dongle/dongle/src/vprint.c:0:4
	ldr	r2, [sp, #84]                   @ 4-byte Reload
.Ltmp370:
	@DEBUG_VALUE: format_int:q <- [DW_OP_plus_uconst 1, DW_OP_stack_value] undef
.LBB0_177:                              @   in Loop: Header=BB0_175 Depth=2
	@DEBUG_VALUE: vsnprintf_ex:ap <- [DW_OP_plus_uconst 44] [$sp+0]
	@DEBUG_VALUE: format_int:ndigits <- $r11
	@DEBUG_VALUE: format_int:val <- [DW_OP_LLVM_fragment 32 32] $r8
	@DEBUG_VALUE: format_int:o <- $r5
	@DEBUG_VALUE: format_int:width <- $r4
	@DEBUG_VALUE: format_int:nchars <- [DW_OP_plus_uconst 72] [$sp+0]
	@DEBUG_VALUE: format_int:tickskip <- [DW_OP_plus_uconst 40] [$sp+0]
	@DEBUG_VALUE: format_int:val <- [DW_OP_plus_uconst 24, DW_OP_LLVM_fragment 0 32] [$sp+0]
	@DEBUG_VALUE: format_int:digits <- [DW_OP_plus_uconst 56] [$sp+0]
	@DEBUG_VALUE: format_int:n <- [DW_OP_plus_uconst 84] [$sp+0]
	@DEBUG_VALUE: format_int:flags <- [DW_OP_plus_uconst 28] [$sp+0]
	@DEBUG_VALUE: format_int:base <- [DW_OP_plus_uconst 80] [$sp+0]
	@DEBUG_VALUE: vsnprintf_ex:base <- [DW_OP_plus_uconst 80] [$sp+0]
	@DEBUG_VALUE: vsnprintf_ex:val <- [DW_OP_plus_uconst 12, DW_OP_LLVM_fragment 32 32] [$sp+0]
	@DEBUG_VALUE: vsnprintf_ex:val <- [DW_OP_plus_uconst 16, DW_OP_LLVM_fragment 0 32] [$sp+0]
	@DEBUG_VALUE: vsnprintf_ex:flags <- [DW_OP_plus_uconst 28] [$sp+0]
	@DEBUG_VALUE: vsnprintf_ex:prec <- [DW_OP_plus_uconst 36] [$sp+0]
	@DEBUG_VALUE: vsnprintf_ex:width <- [DW_OP_plus_uconst 76] [$sp+0]
	@DEBUG_VALUE: vsnprintf_ex:state <- 0
	@DEBUG_VALUE: format_int:q <- undef
	.loc	1 129 3 is_stmt 1               @ ../../../components/platform/soc/rt582/rt582_dongle/dongle/src/vprint.c:129:3
	ldr	r0, [sp, #72]                   @ 4-byte Reload
.Ltmp371:
	.loc	1 131 9                         @ ../../../components/platform/soc/rt582/rt582_dongle/dongle/src/vprint.c:131:9
	subs	r4, #1
.Ltmp372:
	@DEBUG_VALUE: format_int:width <- $r4
	.loc	1 129 3                         @ ../../../components/platform/soc/rt582/rt582_dongle/dongle/src/vprint.c:129:3
	cmp	r4, r0
.Ltmp373:
	.loc	1 130 4                         @ ../../../components/platform/soc/rt582/rt582_dongle/dongle/src/vprint.c:130:4
	add.w	r5, r5, #1
.Ltmp374:
	@DEBUG_VALUE: format_int:o <- $r5
	.loc	1 129 3                         @ ../../../components/platform/soc/rt582/rt582_dongle/dongle/src/vprint.c:129:3
	bgt	.LBB0_175
.Ltmp375:
@ %bb.178:                              @   in Loop: Header=BB0_2 Depth=1
	@DEBUG_VALUE: vsnprintf_ex:ap <- [DW_OP_plus_uconst 44] [$sp+0]
	@DEBUG_VALUE: format_int:ndigits <- $r11
	@DEBUG_VALUE: format_int:val <- [DW_OP_LLVM_fragment 32 32] $r8
	@DEBUG_VALUE: format_int:o <- $r5
	@DEBUG_VALUE: format_int:width <- $r4
	@DEBUG_VALUE: format_int:nchars <- [DW_OP_plus_uconst 72] [$sp+0]
	@DEBUG_VALUE: format_int:tickskip <- [DW_OP_plus_uconst 40] [$sp+0]
	@DEBUG_VALUE: format_int:val <- [DW_OP_plus_uconst 24, DW_OP_LLVM_fragment 0 32] [$sp+0]
	@DEBUG_VALUE: format_int:digits <- [DW_OP_plus_uconst 56] [$sp+0]
	@DEBUG_VALUE: format_int:n <- [DW_OP_plus_uconst 84] [$sp+0]
	@DEBUG_VALUE: format_int:flags <- [DW_OP_plus_uconst 28] [$sp+0]
	@DEBUG_VALUE: format_int:base <- [DW_OP_plus_uconst 80] [$sp+0]
	@DEBUG_VALUE: vsnprintf_ex:base <- [DW_OP_plus_uconst 80] [$sp+0]
	@DEBUG_VALUE: vsnprintf_ex:val <- [DW_OP_plus_uconst 12, DW_OP_LLVM_fragment 32 32] [$sp+0]
	@DEBUG_VALUE: vsnprintf_ex:val <- [DW_OP_plus_uconst 16, DW_OP_LLVM_fragment 0 32] [$sp+0]
	@DEBUG_VALUE: vsnprintf_ex:flags <- [DW_OP_plus_uconst 28] [$sp+0]
	@DEBUG_VALUE: vsnprintf_ex:prec <- [DW_OP_plus_uconst 36] [$sp+0]
	@DEBUG_VALUE: vsnprintf_ex:width <- [DW_OP_plus_uconst 76] [$sp+0]
	@DEBUG_VALUE: vsnprintf_ex:state <- 0
	.loc	1 0 3 is_stmt 0                 @ ../../../components/platform/soc/rt582/rt582_dongle/dongle/src/vprint.c:0:3
	ldr	r5, [sp, #72]                   @ 4-byte Reload
.Ltmp376:
	.loc	1 129 3                         @ ../../../components/platform/soc/rt582/rt582_dongle/dongle/src/vprint.c:129:3
	subs	r0, r7, r5
	add	r6, r0
	ldr	r0, [sp, #24]                   @ 4-byte Reload
	mov	r7, r5
.Ltmp377:
.LBB0_179:                              @   in Loop: Header=BB0_2 Depth=1
	@DEBUG_VALUE: vsnprintf_ex:ap <- [DW_OP_plus_uconst 44] [$sp+0]
	@DEBUG_VALUE: format_int:ndigits <- $r11
	@DEBUG_VALUE: format_int:val <- [DW_OP_LLVM_fragment 32 32] $r8
	@DEBUG_VALUE: format_int:nchars <- [DW_OP_plus_uconst 72] [$sp+0]
	@DEBUG_VALUE: format_int:tickskip <- [DW_OP_plus_uconst 40] [$sp+0]
	@DEBUG_VALUE: format_int:val <- [DW_OP_plus_uconst 24, DW_OP_LLVM_fragment 0 32] [$sp+0]
	@DEBUG_VALUE: format_int:digits <- [DW_OP_plus_uconst 56] [$sp+0]
	@DEBUG_VALUE: format_int:n <- [DW_OP_plus_uconst 84] [$sp+0]
	@DEBUG_VALUE: format_int:flags <- [DW_OP_plus_uconst 28] [$sp+0]
	@DEBUG_VALUE: format_int:base <- [DW_OP_plus_uconst 80] [$sp+0]
	@DEBUG_VALUE: vsnprintf_ex:base <- [DW_OP_plus_uconst 80] [$sp+0]
	@DEBUG_VALUE: vsnprintf_ex:val <- [DW_OP_plus_uconst 12, DW_OP_LLVM_fragment 32 32] [$sp+0]
	@DEBUG_VALUE: vsnprintf_ex:val <- [DW_OP_plus_uconst 16, DW_OP_LLVM_fragment 0 32] [$sp+0]
	@DEBUG_VALUE: vsnprintf_ex:flags <- [DW_OP_plus_uconst 28] [$sp+0]
	@DEBUG_VALUE: vsnprintf_ex:prec <- [DW_OP_plus_uconst 36] [$sp+0]
	@DEBUG_VALUE: vsnprintf_ex:width <- [DW_OP_plus_uconst 76] [$sp+0]
	@DEBUG_VALUE: vsnprintf_ex:state <- 0
	@DEBUG_VALUE: format_int:q <- undef
	@DEBUG_VALUE: format_int:width <- $r7
	@DEBUG_VALUE: format_int:o <- $r6
	.loc	1 142 2 is_stmt 1               @ ../../../components/platform/soc/rt582/rt582_dongle/dongle/src/vprint.c:142:2
	cmp.w	r11, #1
	.loc	1 137 4                         @ ../../../components/platform/soc/rt582/rt582_dongle/dongle/src/vprint.c:137:4
	add.w	r10, r6, r11
.Ltmp378:
	@DEBUG_VALUE: format_int:b4tick <- [DW_OP_plus_uconst 40] [$sp+0]
	@DEBUG_VALUE: format_int:oo <- undef
	@DEBUG_VALUE: format_int:qq <- [DW_OP_plus_uconst 60] [$sp+0]
	@DEBUG_VALUE: format_int:ndigits <- $r11
	@DEBUG_VALUE: format_int:o <- $r10
	@DEBUG_VALUE: format_int:val <- [DW_OP_LLVM_fragment 32 32] $r8
	@DEBUG_VALUE: format_int:val <- [DW_OP_LLVM_fragment 0 32] $r0
	.loc	1 142 2                         @ ../../../components/platform/soc/rt582/rt582_dongle/dongle/src/vprint.c:142:2
	blt	.LBB0_190
.Ltmp379:
@ %bb.180:                              @   in Loop: Header=BB0_2 Depth=1
	@DEBUG_VALUE: vsnprintf_ex:ap <- [DW_OP_plus_uconst 44] [$sp+0]
	@DEBUG_VALUE: format_int:ndigits <- $r11
	@DEBUG_VALUE: format_int:o <- $r10
	@DEBUG_VALUE: format_int:val <- [DW_OP_LLVM_fragment 32 32] $r8
	@DEBUG_VALUE: format_int:width <- $r7
	@DEBUG_VALUE: format_int:val <- [DW_OP_LLVM_fragment 0 32] $r0
	@DEBUG_VALUE: format_int:qq <- [DW_OP_plus_uconst 60] [$sp+0]
	@DEBUG_VALUE: format_int:b4tick <- [DW_OP_plus_uconst 40] [$sp+0]
	@DEBUG_VALUE: format_int:nchars <- [DW_OP_plus_uconst 72] [$sp+0]
	@DEBUG_VALUE: format_int:tickskip <- [DW_OP_plus_uconst 40] [$sp+0]
	@DEBUG_VALUE: format_int:digits <- [DW_OP_plus_uconst 56] [$sp+0]
	@DEBUG_VALUE: format_int:n <- [DW_OP_plus_uconst 84] [$sp+0]
	@DEBUG_VALUE: format_int:flags <- [DW_OP_plus_uconst 28] [$sp+0]
	@DEBUG_VALUE: format_int:base <- [DW_OP_plus_uconst 80] [$sp+0]
	@DEBUG_VALUE: vsnprintf_ex:base <- [DW_OP_plus_uconst 80] [$sp+0]
	@DEBUG_VALUE: vsnprintf_ex:val <- [DW_OP_plus_uconst 12, DW_OP_LLVM_fragment 32 32] [$sp+0]
	@DEBUG_VALUE: vsnprintf_ex:val <- [DW_OP_plus_uconst 16, DW_OP_LLVM_fragment 0 32] [$sp+0]
	@DEBUG_VALUE: vsnprintf_ex:flags <- [DW_OP_plus_uconst 28] [$sp+0]
	@DEBUG_VALUE: vsnprintf_ex:prec <- [DW_OP_plus_uconst 36] [$sp+0]
	@DEBUG_VALUE: vsnprintf_ex:width <- [DW_OP_plus_uconst 76] [$sp+0]
	@DEBUG_VALUE: vsnprintf_ex:state <- 0
	@DEBUG_VALUE: format_int:ndigits <- $r11
	@DEBUG_VALUE: format_int:b4tick <- [DW_OP_plus_uconst 40] [$sp+0]
	.loc	1 0 2 is_stmt 0                 @ ../../../components/platform/soc/rt582/rt582_dongle/dongle/src/vprint.c:0:2
	ldr.w	r9, [sp, #40]                   @ 4-byte Reload
	movs	r6, #0
	mov	r5, r10
.Ltmp380:
	.p2align	2
.LBB0_181:                              @   Parent Loop BB0_2 Depth=1
                                        @ =>  This Inner Loop Header: Depth=2
	@DEBUG_VALUE: vsnprintf_ex:ap <- [DW_OP_plus_uconst 44] [$sp+0]
	@DEBUG_VALUE: format_int:ndigits <- $r11
	@DEBUG_VALUE: format_int:o <- $r10
	@DEBUG_VALUE: format_int:val <- [DW_OP_LLVM_fragment 32 32] $r8
	@DEBUG_VALUE: format_int:width <- $r7
	@DEBUG_VALUE: format_int:val <- [DW_OP_LLVM_fragment 0 32] $r0
	@DEBUG_VALUE: format_int:nchars <- [DW_OP_plus_uconst 72] [$sp+0]
	@DEBUG_VALUE: format_int:tickskip <- [DW_OP_plus_uconst 40] [$sp+0]
	@DEBUG_VALUE: format_int:digits <- [DW_OP_plus_uconst 56] [$sp+0]
	@DEBUG_VALUE: format_int:n <- [DW_OP_plus_uconst 84] [$sp+0]
	@DEBUG_VALUE: format_int:flags <- [DW_OP_plus_uconst 28] [$sp+0]
	@DEBUG_VALUE: format_int:base <- [DW_OP_plus_uconst 80] [$sp+0]
	@DEBUG_VALUE: vsnprintf_ex:base <- [DW_OP_plus_uconst 80] [$sp+0]
	@DEBUG_VALUE: vsnprintf_ex:val <- [DW_OP_plus_uconst 12, DW_OP_LLVM_fragment 32 32] [$sp+0]
	@DEBUG_VALUE: vsnprintf_ex:val <- [DW_OP_plus_uconst 16, DW_OP_LLVM_fragment 0 32] [$sp+0]
	@DEBUG_VALUE: vsnprintf_ex:flags <- [DW_OP_plus_uconst 28] [$sp+0]
	@DEBUG_VALUE: vsnprintf_ex:prec <- [DW_OP_plus_uconst 36] [$sp+0]
	@DEBUG_VALUE: vsnprintf_ex:width <- [DW_OP_plus_uconst 76] [$sp+0]
	@DEBUG_VALUE: vsnprintf_ex:state <- 0
	@DEBUG_VALUE: format_int:val <- [DW_OP_LLVM_fragment 0 32] $r0
	@DEBUG_VALUE: format_int:val <- [DW_OP_LLVM_fragment 32 32] $r8
	@DEBUG_VALUE: format_int:ndigits <- $r11
	@DEBUG_VALUE: format_int:oo <- $r5
	@DEBUG_VALUE: format_int:b4tick <- [DW_OP_constu 1, DW_OP_minus, DW_OP_stack_value] $r9
	.loc	1 143 7 is_stmt 1               @ ../../../components/platform/soc/rt582/rt582_dongle/dongle/src/vprint.c:143:7
	cmp.w	r9, #0
	bne	.LBB0_185
.Ltmp381:
@ %bb.182:                              @   in Loop: Header=BB0_181 Depth=2
	@DEBUG_VALUE: vsnprintf_ex:ap <- [DW_OP_plus_uconst 44] [$sp+0]
	@DEBUG_VALUE: format_int:ndigits <- $r11
	@DEBUG_VALUE: format_int:o <- $r10
	@DEBUG_VALUE: format_int:b4tick <- [DW_OP_constu 1, DW_OP_minus, DW_OP_stack_value] $r9
	@DEBUG_VALUE: format_int:val <- [DW_OP_LLVM_fragment 32 32] $r8
	@DEBUG_VALUE: format_int:width <- $r7
	@DEBUG_VALUE: format_int:oo <- $r5
	@DEBUG_VALUE: format_int:val <- [DW_OP_LLVM_fragment 0 32] $r0
	@DEBUG_VALUE: format_int:nchars <- [DW_OP_plus_uconst 72] [$sp+0]
	@DEBUG_VALUE: format_int:tickskip <- [DW_OP_plus_uconst 40] [$sp+0]
	@DEBUG_VALUE: format_int:digits <- [DW_OP_plus_uconst 56] [$sp+0]
	@DEBUG_VALUE: format_int:n <- [DW_OP_plus_uconst 84] [$sp+0]
	@DEBUG_VALUE: format_int:flags <- [DW_OP_plus_uconst 28] [$sp+0]
	@DEBUG_VALUE: format_int:base <- [DW_OP_plus_uconst 80] [$sp+0]
	@DEBUG_VALUE: vsnprintf_ex:base <- [DW_OP_plus_uconst 80] [$sp+0]
	@DEBUG_VALUE: vsnprintf_ex:val <- [DW_OP_plus_uconst 12, DW_OP_LLVM_fragment 32 32] [$sp+0]
	@DEBUG_VALUE: vsnprintf_ex:val <- [DW_OP_plus_uconst 16, DW_OP_LLVM_fragment 0 32] [$sp+0]
	@DEBUG_VALUE: vsnprintf_ex:flags <- [DW_OP_plus_uconst 28] [$sp+0]
	@DEBUG_VALUE: vsnprintf_ex:prec <- [DW_OP_plus_uconst 36] [$sp+0]
	@DEBUG_VALUE: vsnprintf_ex:width <- [DW_OP_plus_uconst 76] [$sp+0]
	@DEBUG_VALUE: vsnprintf_ex:state <- 0
	.loc	1 145 6                         @ ../../../components/platform/soc/rt582/rt582_dongle/dongle/src/vprint.c:145:6
	subs	r5, #1
.Ltmp382:
	@DEBUG_VALUE: format_int:oo <- $r5
	.loc	1 144 6                         @ ../../../components/platform/soc/rt582/rt582_dongle/dongle/src/vprint.c:144:6
	subs	r6, #1
.Ltmp383:
	@DEBUG_VALUE: format_int:qq <- undef
	.loc	1 147 8                         @ ../../../components/platform/soc/rt582/rt582_dongle/dongle/src/vprint.c:147:8
	cmp	r5, r2
	.loc	1 146 11                        @ ../../../components/platform/soc/rt582/rt582_dongle/dongle/src/vprint.c:146:11
	sub.w	r11, r11, #1
.Ltmp384:
	@DEBUG_VALUE: format_int:ndigits <- $r11
	.loc	1 147 8                         @ ../../../components/platform/soc/rt582/rt582_dongle/dongle/src/vprint.c:147:8
	bhs	.LBB0_184
.Ltmp385:
@ %bb.183:                              @   in Loop: Header=BB0_181 Depth=2
	@DEBUG_VALUE: vsnprintf_ex:ap <- [DW_OP_plus_uconst 44] [$sp+0]
	@DEBUG_VALUE: format_int:ndigits <- $r11
	@DEBUG_VALUE: format_int:o <- $r10
	@DEBUG_VALUE: format_int:b4tick <- [DW_OP_constu 1, DW_OP_minus, DW_OP_stack_value] $r9
	@DEBUG_VALUE: format_int:val <- [DW_OP_LLVM_fragment 32 32] $r8
	@DEBUG_VALUE: format_int:width <- $r7
	@DEBUG_VALUE: format_int:oo <- $r5
	@DEBUG_VALUE: format_int:val <- [DW_OP_LLVM_fragment 0 32] $r0
	@DEBUG_VALUE: format_int:nchars <- [DW_OP_plus_uconst 72] [$sp+0]
	@DEBUG_VALUE: format_int:tickskip <- [DW_OP_plus_uconst 40] [$sp+0]
	@DEBUG_VALUE: format_int:digits <- [DW_OP_plus_uconst 56] [$sp+0]
	@DEBUG_VALUE: format_int:n <- [DW_OP_plus_uconst 84] [$sp+0]
	@DEBUG_VALUE: format_int:flags <- [DW_OP_plus_uconst 28] [$sp+0]
	@DEBUG_VALUE: format_int:base <- [DW_OP_plus_uconst 80] [$sp+0]
	@DEBUG_VALUE: vsnprintf_ex:base <- [DW_OP_plus_uconst 80] [$sp+0]
	@DEBUG_VALUE: vsnprintf_ex:val <- [DW_OP_plus_uconst 12, DW_OP_LLVM_fragment 32 32] [$sp+0]
	@DEBUG_VALUE: vsnprintf_ex:val <- [DW_OP_plus_uconst 16, DW_OP_LLVM_fragment 0 32] [$sp+0]
	@DEBUG_VALUE: vsnprintf_ex:flags <- [DW_OP_plus_uconst 28] [$sp+0]
	@DEBUG_VALUE: vsnprintf_ex:prec <- [DW_OP_plus_uconst 36] [$sp+0]
	@DEBUG_VALUE: vsnprintf_ex:width <- [DW_OP_plus_uconst 76] [$sp+0]
	@DEBUG_VALUE: vsnprintf_ex:state <- 0
	@DEBUG_VALUE: format_int:qq <- undef
	.loc	1 0 8 is_stmt 0                 @ ../../../components/platform/soc/rt582/rt582_dongle/dongle/src/vprint.c:0:8
	mov	r3, r0
.Ltmp386:
	.loc	1 148 9 is_stmt 1               @ ../../../components/platform/soc/rt582/rt582_dongle/dongle/src/vprint.c:148:9
	ldr	r0, [sp, #60]                   @ 4-byte Reload
.Ltmp387:
	movs	r1, #95
	strb	r1, [r0, r6]
	mov	r0, r3
.Ltmp388:
.LBB0_184:                              @   in Loop: Header=BB0_181 Depth=2
	@DEBUG_VALUE: vsnprintf_ex:ap <- [DW_OP_plus_uconst 44] [$sp+0]
	@DEBUG_VALUE: format_int:ndigits <- $r11
	@DEBUG_VALUE: format_int:o <- $r10
	@DEBUG_VALUE: format_int:b4tick <- [DW_OP_constu 1, DW_OP_minus, DW_OP_stack_value] $r9
	@DEBUG_VALUE: format_int:val <- [DW_OP_LLVM_fragment 32 32] $r8
	@DEBUG_VALUE: format_int:width <- $r7
	@DEBUG_VALUE: format_int:oo <- $r5
	@DEBUG_VALUE: format_int:nchars <- [DW_OP_plus_uconst 72] [$sp+0]
	@DEBUG_VALUE: format_int:tickskip <- [DW_OP_plus_uconst 40] [$sp+0]
	@DEBUG_VALUE: format_int:digits <- [DW_OP_plus_uconst 56] [$sp+0]
	@DEBUG_VALUE: format_int:n <- [DW_OP_plus_uconst 84] [$sp+0]
	@DEBUG_VALUE: format_int:flags <- [DW_OP_plus_uconst 28] [$sp+0]
	@DEBUG_VALUE: format_int:base <- [DW_OP_plus_uconst 80] [$sp+0]
	@DEBUG_VALUE: vsnprintf_ex:base <- [DW_OP_plus_uconst 80] [$sp+0]
	@DEBUG_VALUE: vsnprintf_ex:val <- [DW_OP_plus_uconst 12, DW_OP_LLVM_fragment 32 32] [$sp+0]
	@DEBUG_VALUE: vsnprintf_ex:val <- [DW_OP_plus_uconst 16, DW_OP_LLVM_fragment 0 32] [$sp+0]
	@DEBUG_VALUE: vsnprintf_ex:flags <- [DW_OP_plus_uconst 28] [$sp+0]
	@DEBUG_VALUE: vsnprintf_ex:prec <- [DW_OP_plus_uconst 36] [$sp+0]
	@DEBUG_VALUE: vsnprintf_ex:width <- [DW_OP_plus_uconst 76] [$sp+0]
	@DEBUG_VALUE: vsnprintf_ex:state <- 0
	.loc	1 0 9 is_stmt 0                 @ ../../../components/platform/soc/rt582/rt582_dongle/dongle/src/vprint.c:0:9
	ldr.w	r9, [sp, #40]                   @ 4-byte Reload
.Ltmp389:
.LBB0_185:                              @   in Loop: Header=BB0_181 Depth=2
	@DEBUG_VALUE: vsnprintf_ex:ap <- [DW_OP_plus_uconst 44] [$sp+0]
	@DEBUG_VALUE: format_int:ndigits <- $r11
	@DEBUG_VALUE: format_int:o <- $r10
	@DEBUG_VALUE: format_int:val <- [DW_OP_LLVM_fragment 32 32] $r8
	@DEBUG_VALUE: format_int:width <- $r7
	@DEBUG_VALUE: format_int:oo <- $r5
	@DEBUG_VALUE: format_int:nchars <- [DW_OP_plus_uconst 72] [$sp+0]
	@DEBUG_VALUE: format_int:tickskip <- [DW_OP_plus_uconst 40] [$sp+0]
	@DEBUG_VALUE: format_int:digits <- [DW_OP_plus_uconst 56] [$sp+0]
	@DEBUG_VALUE: format_int:n <- [DW_OP_plus_uconst 84] [$sp+0]
	@DEBUG_VALUE: format_int:flags <- [DW_OP_plus_uconst 28] [$sp+0]
	@DEBUG_VALUE: format_int:base <- [DW_OP_plus_uconst 80] [$sp+0]
	@DEBUG_VALUE: vsnprintf_ex:base <- [DW_OP_plus_uconst 80] [$sp+0]
	@DEBUG_VALUE: vsnprintf_ex:val <- [DW_OP_plus_uconst 12, DW_OP_LLVM_fragment 32 32] [$sp+0]
	@DEBUG_VALUE: vsnprintf_ex:val <- [DW_OP_plus_uconst 16, DW_OP_LLVM_fragment 0 32] [$sp+0]
	@DEBUG_VALUE: vsnprintf_ex:flags <- [DW_OP_plus_uconst 28] [$sp+0]
	@DEBUG_VALUE: vsnprintf_ex:prec <- [DW_OP_plus_uconst 36] [$sp+0]
	@DEBUG_VALUE: vsnprintf_ex:width <- [DW_OP_plus_uconst 76] [$sp+0]
	@DEBUG_VALUE: vsnprintf_ex:state <- 0
	@DEBUG_VALUE: format_int:ndigits <- $r11
	@DEBUG_VALUE: format_int:qq <- undef
	@DEBUG_VALUE: format_int:oo <- $r5
	@DEBUG_VALUE: format_int:b4tick <- undef
	.loc	1 152 5 is_stmt 1               @ ../../../components/platform/soc/rt582/rt582_dongle/dongle/src/vprint.c:152:5
	subs	r5, #1
.Ltmp390:
	@DEBUG_VALUE: format_int:oo <- $r5
	@DEBUG_VALUE: format_int:ndigits <- undef
	.loc	1 154 7                         @ ../../../components/platform/soc/rt582/rt582_dongle/dongle/src/vprint.c:154:7
	cmp	r5, r2
	.loc	1 151 5                         @ ../../../components/platform/soc/rt582/rt582_dongle/dongle/src/vprint.c:151:5
	sub.w	r6, r6, #1
	.loc	1 154 7                         @ ../../../components/platform/soc/rt582/rt582_dongle/dongle/src/vprint.c:154:7
	bhs	.LBB0_187
.Ltmp391:
@ %bb.186:                              @   in Loop: Header=BB0_181 Depth=2
	@DEBUG_VALUE: vsnprintf_ex:ap <- [DW_OP_plus_uconst 44] [$sp+0]
	@DEBUG_VALUE: format_int:o <- $r10
	@DEBUG_VALUE: format_int:val <- [DW_OP_LLVM_fragment 32 32] $r8
	@DEBUG_VALUE: format_int:width <- $r7
	@DEBUG_VALUE: format_int:oo <- $r5
	@DEBUG_VALUE: format_int:nchars <- [DW_OP_plus_uconst 72] [$sp+0]
	@DEBUG_VALUE: format_int:tickskip <- [DW_OP_plus_uconst 40] [$sp+0]
	@DEBUG_VALUE: format_int:digits <- [DW_OP_plus_uconst 56] [$sp+0]
	@DEBUG_VALUE: format_int:n <- [DW_OP_plus_uconst 84] [$sp+0]
	@DEBUG_VALUE: format_int:flags <- [DW_OP_plus_uconst 28] [$sp+0]
	@DEBUG_VALUE: format_int:base <- [DW_OP_plus_uconst 80] [$sp+0]
	@DEBUG_VALUE: vsnprintf_ex:base <- [DW_OP_plus_uconst 80] [$sp+0]
	@DEBUG_VALUE: vsnprintf_ex:val <- [DW_OP_plus_uconst 12, DW_OP_LLVM_fragment 32 32] [$sp+0]
	@DEBUG_VALUE: vsnprintf_ex:val <- [DW_OP_plus_uconst 16, DW_OP_LLVM_fragment 0 32] [$sp+0]
	@DEBUG_VALUE: vsnprintf_ex:flags <- [DW_OP_plus_uconst 28] [$sp+0]
	@DEBUG_VALUE: vsnprintf_ex:prec <- [DW_OP_plus_uconst 36] [$sp+0]
	@DEBUG_VALUE: vsnprintf_ex:width <- [DW_OP_plus_uconst 76] [$sp+0]
	@DEBUG_VALUE: vsnprintf_ex:state <- 0
	@DEBUG_VALUE: format_int:qq <- undef
	.loc	1 155 21                        @ ../../../components/platform/soc/rt582/rt582_dongle/dongle/src/vprint.c:155:21
	ldr	r2, [sp, #80]                   @ 4-byte Reload
	mov	r1, r8
	movs	r3, #0
	mov	r4, r0
	bl	__aeabi_uldivmod
.Ltmp392:
	.loc	1 155 10 is_stmt 0              @ ../../../components/platform/soc/rt582/rt582_dongle/dongle/src/vprint.c:155:10
	ldr	r0, [sp, #56]                   @ 4-byte Reload
	.loc	1 155 8                         @ ../../../components/platform/soc/rt582/rt582_dongle/dongle/src/vprint.c:155:8
	ldr	r1, [sp, #60]                   @ 4-byte Reload
	.loc	1 155 10                        @ ../../../components/platform/soc/rt582/rt582_dongle/dongle/src/vprint.c:155:10
	ldrb	r0, [r0, r2]
	.loc	1 155 8                         @ ../../../components/platform/soc/rt582/rt582_dongle/dongle/src/vprint.c:155:8
	strb	r0, [r1, r6]
	mov	r0, r4
.Ltmp393:
.LBB0_187:                              @   in Loop: Header=BB0_181 Depth=2
	@DEBUG_VALUE: vsnprintf_ex:ap <- [DW_OP_plus_uconst 44] [$sp+0]
	@DEBUG_VALUE: format_int:o <- $r10
	@DEBUG_VALUE: format_int:val <- [DW_OP_LLVM_fragment 32 32] $r8
	@DEBUG_VALUE: format_int:width <- $r7
	@DEBUG_VALUE: format_int:oo <- $r5
	@DEBUG_VALUE: format_int:nchars <- [DW_OP_plus_uconst 72] [$sp+0]
	@DEBUG_VALUE: format_int:tickskip <- [DW_OP_plus_uconst 40] [$sp+0]
	@DEBUG_VALUE: format_int:digits <- [DW_OP_plus_uconst 56] [$sp+0]
	@DEBUG_VALUE: format_int:n <- [DW_OP_plus_uconst 84] [$sp+0]
	@DEBUG_VALUE: format_int:flags <- [DW_OP_plus_uconst 28] [$sp+0]
	@DEBUG_VALUE: format_int:base <- [DW_OP_plus_uconst 80] [$sp+0]
	@DEBUG_VALUE: vsnprintf_ex:base <- [DW_OP_plus_uconst 80] [$sp+0]
	@DEBUG_VALUE: vsnprintf_ex:val <- [DW_OP_plus_uconst 12, DW_OP_LLVM_fragment 32 32] [$sp+0]
	@DEBUG_VALUE: vsnprintf_ex:val <- [DW_OP_plus_uconst 16, DW_OP_LLVM_fragment 0 32] [$sp+0]
	@DEBUG_VALUE: vsnprintf_ex:flags <- [DW_OP_plus_uconst 28] [$sp+0]
	@DEBUG_VALUE: vsnprintf_ex:prec <- [DW_OP_plus_uconst 36] [$sp+0]
	@DEBUG_VALUE: vsnprintf_ex:width <- [DW_OP_plus_uconst 76] [$sp+0]
	@DEBUG_VALUE: vsnprintf_ex:state <- 0
	.loc	1 156 7 is_stmt 1               @ ../../../components/platform/soc/rt582/rt582_dongle/dongle/src/vprint.c:156:7
	ldr	r2, [sp, #80]                   @ 4-byte Reload
	mov	r1, r8
	movs	r3, #0
	.loc	1 0 0 is_stmt 0                 @ ../../../components/platform/soc/rt582/rt582_dongle/dongle/src/vprint.c:0:0
	sub.w	r9, r9, #1
.Ltmp394:
	@DEBUG_VALUE: format_int:b4tick <- $r9
	sub.w	r4, r11, #1
.Ltmp395:
	@DEBUG_VALUE: format_int:ndigits <- $r4
	.loc	1 156 7                         @ ../../../components/platform/soc/rt582/rt582_dongle/dongle/src/vprint.c:156:7
	bl	__aeabi_uldivmod
.Ltmp396:
	@DEBUG_VALUE: format_int:val <- [DW_OP_LLVM_fragment 0 32] $r0
	.loc	1 0 7                           @ ../../../components/platform/soc/rt582/rt582_dongle/dongle/src/vprint.c:0:7
	ldr	r2, [sp, #84]                   @ 4-byte Reload
	.loc	1 156 7                         @ ../../../components/platform/soc/rt582/rt582_dongle/dongle/src/vprint.c:156:7
	mov	r8, r1
.Ltmp397:
	@DEBUG_VALUE: format_int:oo <- $r5
	@DEBUG_VALUE: format_int:qq <- undef
	@DEBUG_VALUE: format_int:val <- [DW_OP_LLVM_fragment 32 32] $r8
	.loc	1 142 2 is_stmt 1               @ ../../../components/platform/soc/rt582/rt582_dongle/dongle/src/vprint.c:142:2
	cmp.w	r11, #1
	mov	r11, r4
.Ltmp398:
	@DEBUG_VALUE: format_int:ndigits <- $r11
	@DEBUG_VALUE: format_int:ndigits <- $r11
	@DEBUG_VALUE: format_int:ndigits <- $r11
	bgt	.LBB0_181
.Ltmp399:
@ %bb.188:                              @   in Loop: Header=BB0_2 Depth=1
	@DEBUG_VALUE: vsnprintf_ex:ap <- [DW_OP_plus_uconst 44] [$sp+0]
	@DEBUG_VALUE: format_int:ndigits <- $r11
	@DEBUG_VALUE: format_int:o <- $r10
	@DEBUG_VALUE: format_int:b4tick <- $r9
	@DEBUG_VALUE: format_int:val <- [DW_OP_LLVM_fragment 32 32] $r8
	@DEBUG_VALUE: format_int:width <- $r7
	@DEBUG_VALUE: format_int:oo <- $r5
	@DEBUG_VALUE: format_int:val <- [DW_OP_LLVM_fragment 0 32] $r0
	@DEBUG_VALUE: format_int:nchars <- [DW_OP_plus_uconst 72] [$sp+0]
	@DEBUG_VALUE: format_int:tickskip <- [DW_OP_plus_uconst 40] [$sp+0]
	@DEBUG_VALUE: format_int:digits <- [DW_OP_plus_uconst 56] [$sp+0]
	@DEBUG_VALUE: format_int:n <- [DW_OP_plus_uconst 84] [$sp+0]
	@DEBUG_VALUE: format_int:flags <- [DW_OP_plus_uconst 28] [$sp+0]
	@DEBUG_VALUE: format_int:base <- [DW_OP_plus_uconst 80] [$sp+0]
	@DEBUG_VALUE: vsnprintf_ex:base <- [DW_OP_plus_uconst 80] [$sp+0]
	@DEBUG_VALUE: vsnprintf_ex:val <- [DW_OP_plus_uconst 12, DW_OP_LLVM_fragment 32 32] [$sp+0]
	@DEBUG_VALUE: vsnprintf_ex:val <- [DW_OP_plus_uconst 16, DW_OP_LLVM_fragment 0 32] [$sp+0]
	@DEBUG_VALUE: vsnprintf_ex:flags <- [DW_OP_plus_uconst 28] [$sp+0]
	@DEBUG_VALUE: vsnprintf_ex:prec <- [DW_OP_plus_uconst 36] [$sp+0]
	@DEBUG_VALUE: vsnprintf_ex:width <- [DW_OP_plus_uconst 76] [$sp+0]
	@DEBUG_VALUE: vsnprintf_ex:state <- 0
	.loc	1 0 2 is_stmt 0                 @ ../../../components/platform/soc/rt582/rt582_dongle/dongle/src/vprint.c:0:2
	ldr.w	r9, [sp, #28]                   @ 4-byte Reload
.Ltmp400:
	ldr	r5, [sp, #72]                   @ 4-byte Reload
.Ltmp401:
	.loc	1 159 6 is_stmt 1               @ ../../../components/platform/soc/rt582/rt582_dongle/dongle/src/vprint.c:159:6
	cbz	r6, .LBB0_190
.Ltmp402:
@ %bb.189:                              @   in Loop: Header=BB0_2 Depth=1
	@DEBUG_VALUE: vsnprintf_ex:ap <- [DW_OP_plus_uconst 44] [$sp+0]
	@DEBUG_VALUE: format_int:ndigits <- $r11
	@DEBUG_VALUE: format_int:o <- $r10
	@DEBUG_VALUE: format_int:val <- [DW_OP_LLVM_fragment 32 32] $r8
	@DEBUG_VALUE: format_int:width <- $r7
	@DEBUG_VALUE: format_int:val <- [DW_OP_LLVM_fragment 0 32] $r0
	@DEBUG_VALUE: format_int:nchars <- [DW_OP_plus_uconst 72] [$sp+0]
	@DEBUG_VALUE: format_int:tickskip <- [DW_OP_plus_uconst 40] [$sp+0]
	@DEBUG_VALUE: format_int:digits <- [DW_OP_plus_uconst 56] [$sp+0]
	@DEBUG_VALUE: format_int:n <- [DW_OP_plus_uconst 84] [$sp+0]
	@DEBUG_VALUE: format_int:flags <- [DW_OP_plus_uconst 28] [$sp+0]
	@DEBUG_VALUE: format_int:base <- [DW_OP_plus_uconst 80] [$sp+0]
	@DEBUG_VALUE: vsnprintf_ex:base <- [DW_OP_plus_uconst 80] [$sp+0]
	@DEBUG_VALUE: vsnprintf_ex:val <- [DW_OP_plus_uconst 12, DW_OP_LLVM_fragment 32 32] [$sp+0]
	@DEBUG_VALUE: vsnprintf_ex:val <- [DW_OP_plus_uconst 16, DW_OP_LLVM_fragment 0 32] [$sp+0]
	@DEBUG_VALUE: vsnprintf_ex:flags <- [DW_OP_plus_uconst 28] [$sp+0]
	@DEBUG_VALUE: vsnprintf_ex:prec <- [DW_OP_plus_uconst 36] [$sp+0]
	@DEBUG_VALUE: vsnprintf_ex:width <- [DW_OP_plus_uconst 76] [$sp+0]
	@DEBUG_VALUE: vsnprintf_ex:state <- 0
	.loc	1 0 6 is_stmt 0                 @ ../../../components/platform/soc/rt582/rt582_dongle/dongle/src/vprint.c:0:6
	ldr	r1, [sp, #60]                   @ 4-byte Reload
	adds	r0, r1, r6
.Ltmp403:
	.loc	1 160 52 is_stmt 1              @ ../../../components/platform/soc/rt582/rt582_dongle/dongle/src/vprint.c:160:52
	subs	r1, r1, r0
	.loc	1 160 3 is_stmt 0               @ ../../../components/platform/soc/rt582/rt582_dongle/dongle/src/vprint.c:160:3
	bl	debug_print
.Ltmp404:
	.loc	1 0 3                           @ ../../../components/platform/soc/rt582/rt582_dongle/dongle/src/vprint.c:0:3
	ldr	r2, [sp, #84]                   @ 4-byte Reload
.Ltmp405:
.LBB0_190:                              @   in Loop: Header=BB0_2 Depth=1
	@DEBUG_VALUE: vsnprintf_ex:ap <- [DW_OP_plus_uconst 44] [$sp+0]
	@DEBUG_VALUE: format_int:ndigits <- $r11
	@DEBUG_VALUE: format_int:o <- $r10
	@DEBUG_VALUE: format_int:val <- [DW_OP_LLVM_fragment 32 32] $r8
	@DEBUG_VALUE: format_int:width <- $r7
	@DEBUG_VALUE: format_int:nchars <- [DW_OP_plus_uconst 72] [$sp+0]
	@DEBUG_VALUE: format_int:tickskip <- [DW_OP_plus_uconst 40] [$sp+0]
	@DEBUG_VALUE: format_int:digits <- [DW_OP_plus_uconst 56] [$sp+0]
	@DEBUG_VALUE: format_int:n <- [DW_OP_plus_uconst 84] [$sp+0]
	@DEBUG_VALUE: format_int:flags <- [DW_OP_plus_uconst 28] [$sp+0]
	@DEBUG_VALUE: format_int:base <- [DW_OP_plus_uconst 80] [$sp+0]
	@DEBUG_VALUE: vsnprintf_ex:base <- [DW_OP_plus_uconst 80] [$sp+0]
	@DEBUG_VALUE: vsnprintf_ex:val <- [DW_OP_plus_uconst 12, DW_OP_LLVM_fragment 32 32] [$sp+0]
	@DEBUG_VALUE: vsnprintf_ex:val <- [DW_OP_plus_uconst 16, DW_OP_LLVM_fragment 0 32] [$sp+0]
	@DEBUG_VALUE: vsnprintf_ex:flags <- [DW_OP_plus_uconst 28] [$sp+0]
	@DEBUG_VALUE: vsnprintf_ex:prec <- [DW_OP_plus_uconst 36] [$sp+0]
	@DEBUG_VALUE: vsnprintf_ex:width <- [DW_OP_plus_uconst 76] [$sp+0]
	@DEBUG_VALUE: vsnprintf_ex:state <- 0
	@DEBUG_VALUE: format_int:q <- undef
	@DEBUG_VALUE: format_int:width <- $r7
	@DEBUG_VALUE: format_int:o <- $r10
	.loc	1 164 2 is_stmt 1               @ ../../../components/platform/soc/rt582/rt582_dongle/dongle/src/vprint.c:164:2
	lsls.w	r0, r9, #30
	bpl	.LBB0_196
.Ltmp406:
@ %bb.191:                              @   in Loop: Header=BB0_2 Depth=1
	@DEBUG_VALUE: vsnprintf_ex:ap <- [DW_OP_plus_uconst 44] [$sp+0]
	@DEBUG_VALUE: format_int:ndigits <- $r11
	@DEBUG_VALUE: format_int:o <- $r10
	@DEBUG_VALUE: format_int:val <- [DW_OP_LLVM_fragment 32 32] $r8
	@DEBUG_VALUE: format_int:width <- $r7
	@DEBUG_VALUE: format_int:nchars <- [DW_OP_plus_uconst 72] [$sp+0]
	@DEBUG_VALUE: format_int:tickskip <- [DW_OP_plus_uconst 40] [$sp+0]
	@DEBUG_VALUE: format_int:digits <- [DW_OP_plus_uconst 56] [$sp+0]
	@DEBUG_VALUE: format_int:n <- [DW_OP_plus_uconst 84] [$sp+0]
	@DEBUG_VALUE: format_int:flags <- [DW_OP_plus_uconst 28] [$sp+0]
	@DEBUG_VALUE: format_int:base <- [DW_OP_plus_uconst 80] [$sp+0]
	@DEBUG_VALUE: vsnprintf_ex:base <- [DW_OP_plus_uconst 80] [$sp+0]
	@DEBUG_VALUE: vsnprintf_ex:val <- [DW_OP_plus_uconst 12, DW_OP_LLVM_fragment 32 32] [$sp+0]
	@DEBUG_VALUE: vsnprintf_ex:val <- [DW_OP_plus_uconst 16, DW_OP_LLVM_fragment 0 32] [$sp+0]
	@DEBUG_VALUE: vsnprintf_ex:flags <- [DW_OP_plus_uconst 28] [$sp+0]
	@DEBUG_VALUE: vsnprintf_ex:prec <- [DW_OP_plus_uconst 36] [$sp+0]
	@DEBUG_VALUE: vsnprintf_ex:width <- [DW_OP_plus_uconst 76] [$sp+0]
	@DEBUG_VALUE: vsnprintf_ex:state <- 0
	cmp	r7, r5
	ble	.LBB0_196
.Ltmp407:
@ %bb.192:                              @   in Loop: Header=BB0_2 Depth=1
	@DEBUG_VALUE: vsnprintf_ex:ap <- [DW_OP_plus_uconst 44] [$sp+0]
	@DEBUG_VALUE: format_int:ndigits <- $r11
	@DEBUG_VALUE: format_int:o <- $r10
	@DEBUG_VALUE: format_int:val <- [DW_OP_LLVM_fragment 32 32] $r8
	@DEBUG_VALUE: format_int:width <- $r7
	@DEBUG_VALUE: format_int:nchars <- [DW_OP_plus_uconst 72] [$sp+0]
	@DEBUG_VALUE: format_int:tickskip <- [DW_OP_plus_uconst 40] [$sp+0]
	@DEBUG_VALUE: format_int:digits <- [DW_OP_plus_uconst 56] [$sp+0]
	@DEBUG_VALUE: format_int:n <- [DW_OP_plus_uconst 84] [$sp+0]
	@DEBUG_VALUE: format_int:flags <- [DW_OP_plus_uconst 28] [$sp+0]
	@DEBUG_VALUE: format_int:base <- [DW_OP_plus_uconst 80] [$sp+0]
	@DEBUG_VALUE: vsnprintf_ex:base <- [DW_OP_plus_uconst 80] [$sp+0]
	@DEBUG_VALUE: vsnprintf_ex:val <- [DW_OP_plus_uconst 12, DW_OP_LLVM_fragment 32 32] [$sp+0]
	@DEBUG_VALUE: vsnprintf_ex:val <- [DW_OP_plus_uconst 16, DW_OP_LLVM_fragment 0 32] [$sp+0]
	@DEBUG_VALUE: vsnprintf_ex:flags <- [DW_OP_plus_uconst 28] [$sp+0]
	@DEBUG_VALUE: vsnprintf_ex:prec <- [DW_OP_plus_uconst 36] [$sp+0]
	@DEBUG_VALUE: vsnprintf_ex:width <- [DW_OP_plus_uconst 76] [$sp+0]
	@DEBUG_VALUE: vsnprintf_ex:state <- 0
	.loc	1 0 2 is_stmt 0                 @ ../../../components/platform/soc/rt582/rt582_dongle/dongle/src/vprint.c:0:2
	ldr.w	r9, [sp, #32]                   @ 4-byte Reload
	ldr.w	r11, [sp, #64]                  @ 4-byte Reload
.Ltmp408:
	movw	r8, :lower16:__stdout
.Ltmp409:
	ldrd	r6, r4, [sp, #48]               @ 8-byte Folded Reload
	movt	r8, :upper16:__stdout
.Ltmp410:
	.p2align	2
.LBB0_193:                              @   Parent Loop BB0_2 Depth=1
                                        @ =>  This Inner Loop Header: Depth=2
	@DEBUG_VALUE: vsnprintf_ex:ap <- [DW_OP_plus_uconst 44] [$sp+0]
	@DEBUG_VALUE: format_int:o <- $r10
	@DEBUG_VALUE: format_int:width <- $r7
	@DEBUG_VALUE: format_int:nchars <- [DW_OP_plus_uconst 72] [$sp+0]
	@DEBUG_VALUE: format_int:tickskip <- [DW_OP_plus_uconst 40] [$sp+0]
	@DEBUG_VALUE: format_int:digits <- [DW_OP_plus_uconst 56] [$sp+0]
	@DEBUG_VALUE: format_int:n <- [DW_OP_plus_uconst 84] [$sp+0]
	@DEBUG_VALUE: format_int:flags <- [DW_OP_plus_uconst 28] [$sp+0]
	@DEBUG_VALUE: format_int:base <- [DW_OP_plus_uconst 80] [$sp+0]
	@DEBUG_VALUE: vsnprintf_ex:base <- [DW_OP_plus_uconst 80] [$sp+0]
	@DEBUG_VALUE: vsnprintf_ex:val <- [DW_OP_plus_uconst 12, DW_OP_LLVM_fragment 32 32] [$sp+0]
	@DEBUG_VALUE: vsnprintf_ex:val <- [DW_OP_plus_uconst 16, DW_OP_LLVM_fragment 0 32] [$sp+0]
	@DEBUG_VALUE: vsnprintf_ex:flags <- [DW_OP_plus_uconst 28] [$sp+0]
	@DEBUG_VALUE: vsnprintf_ex:prec <- [DW_OP_plus_uconst 36] [$sp+0]
	@DEBUG_VALUE: vsnprintf_ex:width <- [DW_OP_plus_uconst 76] [$sp+0]
	@DEBUG_VALUE: vsnprintf_ex:state <- 0
	@DEBUG_VALUE: format_int:q <- undef
	@DEBUG_VALUE: format_int:width <- $r7
	@DEBUG_VALUE: format_int:o <- $r10
	.loc	1 165 3 is_stmt 1               @ ../../../components/platform/soc/rt582/rt582_dongle/dongle/src/vprint.c:165:3
	cmp	r10, r2
	bhs	.LBB0_195
.Ltmp411:
@ %bb.194:                              @   in Loop: Header=BB0_193 Depth=2
	@DEBUG_VALUE: vsnprintf_ex:ap <- [DW_OP_plus_uconst 44] [$sp+0]
	@DEBUG_VALUE: format_int:o <- $r10
	@DEBUG_VALUE: format_int:width <- $r7
	@DEBUG_VALUE: format_int:nchars <- [DW_OP_plus_uconst 72] [$sp+0]
	@DEBUG_VALUE: format_int:tickskip <- [DW_OP_plus_uconst 40] [$sp+0]
	@DEBUG_VALUE: format_int:digits <- [DW_OP_plus_uconst 56] [$sp+0]
	@DEBUG_VALUE: format_int:n <- [DW_OP_plus_uconst 84] [$sp+0]
	@DEBUG_VALUE: format_int:flags <- [DW_OP_plus_uconst 28] [$sp+0]
	@DEBUG_VALUE: format_int:base <- [DW_OP_plus_uconst 80] [$sp+0]
	@DEBUG_VALUE: vsnprintf_ex:base <- [DW_OP_plus_uconst 80] [$sp+0]
	@DEBUG_VALUE: vsnprintf_ex:val <- [DW_OP_plus_uconst 12, DW_OP_LLVM_fragment 32 32] [$sp+0]
	@DEBUG_VALUE: vsnprintf_ex:val <- [DW_OP_plus_uconst 16, DW_OP_LLVM_fragment 0 32] [$sp+0]
	@DEBUG_VALUE: vsnprintf_ex:flags <- [DW_OP_plus_uconst 28] [$sp+0]
	@DEBUG_VALUE: vsnprintf_ex:prec <- [DW_OP_plus_uconst 36] [$sp+0]
	@DEBUG_VALUE: vsnprintf_ex:width <- [DW_OP_plus_uconst 76] [$sp+0]
	@DEBUG_VALUE: vsnprintf_ex:state <- 0
	.loc	1 165 3 is_stmt 0               @ ../../../components/platform/soc/rt582/rt582_dongle/dongle/src/vprint.c:165:3
	movs	r0, #32
	mov	r1, r8
	bl	putc
.Ltmp412:
	.loc	1 0 3                           @ ../../../components/platform/soc/rt582/rt582_dongle/dongle/src/vprint.c:0:3
	ldr	r2, [sp, #84]                   @ 4-byte Reload
.Ltmp413:
	@DEBUG_VALUE: format_int:q <- [DW_OP_plus_uconst 1, DW_OP_stack_value] undef
.LBB0_195:                              @   in Loop: Header=BB0_193 Depth=2
	@DEBUG_VALUE: vsnprintf_ex:ap <- [DW_OP_plus_uconst 44] [$sp+0]
	@DEBUG_VALUE: format_int:o <- $r10
	@DEBUG_VALUE: format_int:width <- $r7
	@DEBUG_VALUE: format_int:nchars <- [DW_OP_plus_uconst 72] [$sp+0]
	@DEBUG_VALUE: format_int:tickskip <- [DW_OP_plus_uconst 40] [$sp+0]
	@DEBUG_VALUE: format_int:digits <- [DW_OP_plus_uconst 56] [$sp+0]
	@DEBUG_VALUE: format_int:n <- [DW_OP_plus_uconst 84] [$sp+0]
	@DEBUG_VALUE: format_int:flags <- [DW_OP_plus_uconst 28] [$sp+0]
	@DEBUG_VALUE: format_int:base <- [DW_OP_plus_uconst 80] [$sp+0]
	@DEBUG_VALUE: vsnprintf_ex:base <- [DW_OP_plus_uconst 80] [$sp+0]
	@DEBUG_VALUE: vsnprintf_ex:val <- [DW_OP_plus_uconst 12, DW_OP_LLVM_fragment 32 32] [$sp+0]
	@DEBUG_VALUE: vsnprintf_ex:val <- [DW_OP_plus_uconst 16, DW_OP_LLVM_fragment 0 32] [$sp+0]
	@DEBUG_VALUE: vsnprintf_ex:flags <- [DW_OP_plus_uconst 28] [$sp+0]
	@DEBUG_VALUE: vsnprintf_ex:prec <- [DW_OP_plus_uconst 36] [$sp+0]
	@DEBUG_VALUE: vsnprintf_ex:width <- [DW_OP_plus_uconst 76] [$sp+0]
	@DEBUG_VALUE: vsnprintf_ex:state <- 0
	@DEBUG_VALUE: format_int:q <- undef
	.loc	1 166 8 is_stmt 1               @ ../../../components/platform/soc/rt582/rt582_dongle/dongle/src/vprint.c:166:8
	subs	r7, #1
.Ltmp414:
	@DEBUG_VALUE: format_int:width <- $r7
	.loc	1 164 2                         @ ../../../components/platform/soc/rt582/rt582_dongle/dongle/src/vprint.c:164:2
	cmp	r7, r5
.Ltmp415:
	.loc	1 165 3                         @ ../../../components/platform/soc/rt582/rt582_dongle/dongle/src/vprint.c:165:3
	add.w	r10, r10, #1
.Ltmp416:
	@DEBUG_VALUE: format_int:o <- $r10
	.loc	1 164 2                         @ ../../../components/platform/soc/rt582/rt582_dongle/dongle/src/vprint.c:164:2
	bgt	.LBB0_193
	b	.LBB0_197
.Ltmp417:
.LBB0_196:                              @   in Loop: Header=BB0_2 Depth=1
	@DEBUG_VALUE: vsnprintf_ex:ap <- [DW_OP_plus_uconst 44] [$sp+0]
	@DEBUG_VALUE: format_int:ndigits <- $r11
	@DEBUG_VALUE: format_int:o <- $r10
	@DEBUG_VALUE: format_int:val <- [DW_OP_LLVM_fragment 32 32] $r8
	@DEBUG_VALUE: format_int:width <- $r7
	@DEBUG_VALUE: format_int:nchars <- [DW_OP_plus_uconst 72] [$sp+0]
	@DEBUG_VALUE: format_int:tickskip <- [DW_OP_plus_uconst 40] [$sp+0]
	@DEBUG_VALUE: format_int:digits <- [DW_OP_plus_uconst 56] [$sp+0]
	@DEBUG_VALUE: format_int:n <- [DW_OP_plus_uconst 84] [$sp+0]
	@DEBUG_VALUE: format_int:flags <- [DW_OP_plus_uconst 28] [$sp+0]
	@DEBUG_VALUE: format_int:base <- [DW_OP_plus_uconst 80] [$sp+0]
	@DEBUG_VALUE: vsnprintf_ex:base <- [DW_OP_plus_uconst 80] [$sp+0]
	@DEBUG_VALUE: vsnprintf_ex:val <- [DW_OP_plus_uconst 12, DW_OP_LLVM_fragment 32 32] [$sp+0]
	@DEBUG_VALUE: vsnprintf_ex:val <- [DW_OP_plus_uconst 16, DW_OP_LLVM_fragment 0 32] [$sp+0]
	@DEBUG_VALUE: vsnprintf_ex:flags <- [DW_OP_plus_uconst 28] [$sp+0]
	@DEBUG_VALUE: vsnprintf_ex:prec <- [DW_OP_plus_uconst 36] [$sp+0]
	@DEBUG_VALUE: vsnprintf_ex:width <- [DW_OP_plus_uconst 76] [$sp+0]
	@DEBUG_VALUE: vsnprintf_ex:state <- 0
	.loc	1 0 2 is_stmt 0                 @ ../../../components/platform/soc/rt582/rt582_dongle/dongle/src/vprint.c:0:2
	ldr.w	r9, [sp, #32]                   @ 4-byte Reload
	ldr.w	r11, [sp, #64]                  @ 4-byte Reload
	movw	r8, :lower16:__stdout
	ldrd	r6, r4, [sp, #48]               @ 8-byte Folded Reload
	movt	r8, :upper16:__stdout
.Ltmp418:
.LBB0_197:                              @   in Loop: Header=BB0_2 Depth=1
	@DEBUG_VALUE: vsnprintf_ex:ap <- [DW_OP_plus_uconst 44] [$sp+0]
	@DEBUG_VALUE: vsnprintf_ex:base <- [DW_OP_plus_uconst 80] [$sp+0]
	@DEBUG_VALUE: vsnprintf_ex:val <- [DW_OP_plus_uconst 12, DW_OP_LLVM_fragment 32 32] [$sp+0]
	@DEBUG_VALUE: vsnprintf_ex:val <- [DW_OP_plus_uconst 16, DW_OP_LLVM_fragment 0 32] [$sp+0]
	@DEBUG_VALUE: vsnprintf_ex:flags <- [DW_OP_plus_uconst 28] [$sp+0]
	@DEBUG_VALUE: vsnprintf_ex:prec <- [DW_OP_plus_uconst 36] [$sp+0]
	@DEBUG_VALUE: vsnprintf_ex:width <- [DW_OP_plus_uconst 76] [$sp+0]
	@DEBUG_VALUE: vsnprintf_ex:state <- 0
	@DEBUG_VALUE: vsnprintf_ex:sz <- $r10
	.loc	1 473 8 is_stmt 1               @ ../../../components/platform/soc/rt582/rt582_dongle/dongle/src/vprint.c:473:8
	add	r11, r10
.Ltmp419:
	@DEBUG_VALUE: vsnprintf_ex:q <- $r11
	.loc	1 474 8                         @ ../../../components/platform/soc/rt582/rt582_dongle/dongle/src/vprint.c:474:8
	add	r6, r10
.Ltmp420:
	@DEBUG_VALUE: vsnprintf_ex:o <- $r6
	.loc	1 0 8 is_stmt 0                 @ ../../../components/platform/soc/rt582/rt582_dongle/dongle/src/vprint.c:0:8
	ldr.w	r10, [sp, #44]                  @ 4-byte Reload
.Ltmp421:
	@DEBUG_VALUE: vsnprintf_ex:ap <- $r10
	@DEBUG_VALUE: vsnprintf_ex:ap <- $r10
	movs	r0, #0
.Ltmp422:
	mov	r2, r4
	b	.LBB0_206
.Ltmp423:
.LBB0_198:                              @   in Loop: Header=BB0_2 Depth=1
	@DEBUG_VALUE: vsnprintf_ex:q <- $r11
	@DEBUG_VALUE: vsnprintf_ex:ap <- $r10
	@DEBUG_VALUE: vsnprintf_ex:o <- $r6
	@DEBUG_VALUE: vsnprintf_ex:rank <- $r4
	@DEBUG_VALUE: vsnprintf_ex:ch <- $r3
	@DEBUG_VALUE: vsnprintf_ex:p <- $r2
	@DEBUG_VALUE: vsnprintf_ex:val <- [DW_OP_plus_uconst 12, DW_OP_LLVM_fragment 32 32] [$sp+0]
	@DEBUG_VALUE: vsnprintf_ex:val <- [DW_OP_plus_uconst 16, DW_OP_LLVM_fragment 0 32] [$sp+0]
	@DEBUG_VALUE: vsnprintf_ex:flags <- [DW_OP_plus_uconst 28] [$sp+0]
	@DEBUG_VALUE: vsnprintf_ex:width <- [DW_OP_plus_uconst 76] [$sp+0]
	movs	r1, #0
	movs	r0, #3
	str	r1, [sp, #36]                   @ 4-byte Spill
	b	.LBB0_204
.Ltmp424:
.LBB0_199:                              @   in Loop: Header=BB0_2 Depth=1
	@DEBUG_VALUE: vsnprintf_ex:q <- $r11
	@DEBUG_VALUE: vsnprintf_ex:ap <- $r10
	@DEBUG_VALUE: vsnprintf_ex:o <- $r6
	@DEBUG_VALUE: vsnprintf_ex:rank <- $r4
	@DEBUG_VALUE: vsnprintf_ex:p <- $r2
	@DEBUG_VALUE: vsnprintf_ex:val <- [DW_OP_plus_uconst 12, DW_OP_LLVM_fragment 32 32] [$sp+0]
	@DEBUG_VALUE: vsnprintf_ex:val <- [DW_OP_plus_uconst 16, DW_OP_LLVM_fragment 0 32] [$sp+0]
	@DEBUG_VALUE: vsnprintf_ex:flags <- [DW_OP_plus_uconst 28] [$sp+0]
	@DEBUG_VALUE: vsnprintf_ex:width <- [DW_OP_plus_uconst 76] [$sp+0]
	.loc	1 292 11 is_stmt 1              @ ../../../components/platform/soc/rt582/rt582_dongle/dongle/src/vprint.c:292:11
	ldr	r0, [sp, #28]                   @ 4-byte Reload
	orr	r0, r0, #4
.Ltmp425:
	@DEBUG_VALUE: vsnprintf_ex:flags <- $r0
	.loc	1 0 11 is_stmt 0                @ ../../../components/platform/soc/rt582/rt582_dongle/dongle/src/vprint.c:0:11
	b	.LBB0_203
.Ltmp426:
.LBB0_200:                              @   in Loop: Header=BB0_2 Depth=1
