	.text
	.syntax unified
	.eabi_attribute	67, "2.09"	@ Tag_conformance
	.cpu	cortex-m3
	.eabi_attribute	6, 10	@ Tag_CPU_arch
	.eabi_attribute	7, 77	@ Tag_CPU_arch_profile
	.eabi_attribute	8, 0	@ Tag_ARM_ISA_use
	.eabi_attribute	9, 2	@ Tag_THUMB_ISA_use
	.eabi_attribute	34, 1	@ Tag_CPU_unaligned_access
	.eabi_attribute	17, 1	@ Tag_ABI_PCS_GOT_use
	.eabi_attribute	20, 2	@ Tag_ABI_FP_denormal
	.eabi_attribute	21, 0	@ Tag_ABI_FP_exceptions
	.eabi_attribute	23, 1	@ Tag_ABI_FP_number_model
	.eabi_attribute	24, 1	@ Tag_ABI_align_needed
	.eabi_attribute	25, 1	@ Tag_ABI_align_preserved
	.eabi_attribute	38, 1	@ Tag_ABI_FP_16bit_format
	.eabi_attribute	18, 4	@ Tag_ABI_PCS_wchar_t
	.eabi_attribute	26, 2	@ Tag_ABI_enum_size
	.eabi_attribute	14, 0	@ Tag_ABI_PCS_R9_use
	.file	"vsscanf.c"
	.file	1 "D:\\Rafael-IoT-SDK-Internal-main\\examples\\das_subg_thread\\keil" "../../../components/platform/soc/rt582/rt582_dongle/dongle/src/vsscanf.c"
	.file	2 "C:\\Keil_v5\\ARM\\ARMCLANG\\Bin\\..\\include" "stdint.h"
	.section	.text.vsscanf,"ax",%progbits
	.hidden	vsscanf                         @ -- Begin function vsscanf
	.globl	vsscanf
	.p2align	2
	.type	vsscanf,%function
	.code	16                              @ @vsscanf
	.thumb_func
vsscanf:
.Lfunc_begin0:
	.loc	1 76 0                          @ ../../../components/platform/soc/rt582/rt582_dongle/dongle/src/vsscanf.c:76:0
	.fnstart
	.cfi_sections .debug_frame
	.cfi_startproc
@ %bb.0:
	@DEBUG_VALUE: vsscanf:buffer <- $r0
	@DEBUG_VALUE: vsscanf:format <- $r1
	@DEBUG_VALUE: vsscanf:format <- $r1
	.save	{r4, r5, r6, r7, r8, r9, r10, r11, lr}
	push.w	{r4, r5, r6, r7, r8, r9, r10, r11, lr}
	.cfi_def_cfa_offset 36
	.cfi_offset lr, -4
	.cfi_offset r11, -8
	.cfi_offset r10, -12
	.cfi_offset r9, -16
	.cfi_offset r8, -20
	.cfi_offset r7, -24
	.cfi_offset r6, -28
	.cfi_offset r5, -32
	.cfi_offset r4, -36
	.pad	#68
	sub	sp, #68
	.cfi_def_cfa_offset 104
.Ltmp0:
	.loc	1 104 15 prologue_end           @ ../../../components/platform/soc/rt582/rt582_dongle/dongle/src/vsscanf.c:104:15
	ldrb	r6, [r1]
.Ltmp1:
	@DEBUG_VALUE: vsscanf:ch <- $r6
	.loc	1 104 2 is_stmt 0               @ ../../../components/platform/soc/rt582/rt582_dongle/dongle/src/vsscanf.c:104:2
	cmp	r6, #0
.Ltmp2:
	@DEBUG_VALUE: vsscanf:range_start <- 0
	@DEBUG_VALUE: vsscanf:matchinv <- 0
	@DEBUG_VALUE: vsscanf:converted <- 0
	@DEBUG_VALUE: vsscanf:bail <- 0
	@DEBUG_VALUE: vsscanf:sarg <- 0
	@DEBUG_VALUE: vsscanf:state <- 0
	@DEBUG_VALUE: vsscanf:flags <- 0
	@DEBUG_VALUE: vsscanf:width <- -1
	@DEBUG_VALUE: vsscanf:rank <- 0
	@DEBUG_VALUE: vsscanf:val <- 0
	@DEBUG_VALUE: vsscanf:q <- undef
	@DEBUG_VALUE: vsscanf:p <- [DW_OP_plus_uconst 1, DW_OP_stack_value] $r1
	@DEBUG_VALUE: vsscanf:ap <- undef
	@DEBUG_VALUE: vsscanf:buffer <- $r0
	beq.w	.LBB0_120
.Ltmp3:
@ %bb.1:
	@DEBUG_VALUE: vsscanf:ch <- $r6
	@DEBUG_VALUE: vsscanf:p <- [DW_OP_plus_uconst 1, DW_OP_stack_value] $r1
	@DEBUG_VALUE: vsscanf:format <- $r1
	@DEBUG_VALUE: vsscanf:buffer <- $r0
	@DEBUG_VALUE: vsscanf:val <- 0
	@DEBUG_VALUE: vsscanf:rank <- 0
	@DEBUG_VALUE: vsscanf:width <- -1
	@DEBUG_VALUE: vsscanf:flags <- 0
	@DEBUG_VALUE: vsscanf:state <- 0
	@DEBUG_VALUE: vsscanf:sarg <- 0
	@DEBUG_VALUE: vsscanf:bail <- 0
	@DEBUG_VALUE: vsscanf:converted <- 0
	@DEBUG_VALUE: vsscanf:matchinv <- 0
	@DEBUG_VALUE: vsscanf:range_start <- 0
	@DEBUG_VALUE: vsscanf:ap <- $r2
	@DEBUG_VALUE: vsscanf:p <- [DW_OP_plus_uconst 1, DW_OP_stack_value] $r1
	.loc	1 0 2                           @ ../../../components/platform/soc/rt582/rt582_dongle/dongle/src/vsscanf.c:0:2
	str	r2, [sp, #12]                   @ 4-byte Spill
.Ltmp4:
	@DEBUG_VALUE: vsscanf:ap <- [DW_OP_plus_uconst 12] [$sp+0]
	@DEBUG_VALUE: vsscanf:ap <- [DW_OP_plus_uconst 12] [$sp+0]
	mov.w	r2, #-1
	str	r2, [sp, #24]                   @ 4-byte Spill
	movs	r2, #0
.Ltmp5:
	@DEBUG_VALUE: vsscanf:ap <- undef
	str	r2, [sp, #16]                   @ 4-byte Spill
	movs	r2, #0
	add	r7, sp, #32
	mov.w	lr, #1
	str	r2, [sp, #28]                   @ 4-byte Spill
	mov.w	r12, #0
	mov.w	r8, #0
	movs	r5, #0
	mov.w	r11, #0
	movs	r2, #0
	mov	r10, r0
	str	r2, [sp, #20]                   @ 4-byte Spill
	mov	r2, r0
	str	r0, [sp, #8]                    @ 4-byte Spill
.Ltmp6:
	@DEBUG_VALUE: vsscanf:buffer <- [DW_OP_plus_uconst 8] [$sp+0]
	.p2align	2
.LBB0_2:                                @ =>This Loop Header: Depth=1
                                        @     Child Loop BB0_33 Depth 2
                                        @     Child Loop BB0_27 Depth 2
                                        @     Child Loop BB0_109 Depth 2
                                        @     Child Loop BB0_95 Depth 2
                                        @     Child Loop BB0_105 Depth 2
                                        @     Child Loop BB0_71 Depth 2
                                        @     Child Loop BB0_79 Depth 2
                                        @     Child Loop BB0_43 Depth 2
	.loc	1 105 3 is_stmt 1               @ ../../../components/platform/soc/rt582/rt582_dongle/dongle/src/vsscanf.c:105:3
	cmp	r5, #6
.Ltmp7:
	.loc	1 104 17                        @ ../../../components/platform/soc/rt582/rt582_dongle/dongle/src/vsscanf.c:104:17
	add.w	r9, r1, #1
.Ltmp8:
	@DEBUG_VALUE: vsscanf:range_start <- [DW_OP_plus_uconst 16] [$sp+0]
	@DEBUG_VALUE: vsscanf:matchinv <- [DW_OP_plus_uconst 28] [$sp+0]
	@DEBUG_VALUE: vsscanf:converted <- $r12
	@DEBUG_VALUE: vsscanf:bail <- 0
	@DEBUG_VALUE: vsscanf:sarg <- $r8
	@DEBUG_VALUE: vsscanf:state <- $r5
	@DEBUG_VALUE: vsscanf:flags <- $r11
	@DEBUG_VALUE: vsscanf:width <- [DW_OP_plus_uconst 24] [$sp+0]
	@DEBUG_VALUE: vsscanf:rank <- [DW_OP_plus_uconst 20] [$sp+0]
	@DEBUG_VALUE: vsscanf:q <- $r10
	@DEBUG_VALUE: vsscanf:p <- $r1
	@DEBUG_VALUE: vsscanf:ap <- [DW_OP_plus_uconst 12] [$sp+0]
	.loc	1 105 3                         @ ../../../components/platform/soc/rt582/rt582_dongle/dongle/src/vsscanf.c:105:3
	bhi	.LBB0_7
.Ltmp9:
@ %bb.3:                                @   in Loop: Header=BB0_2 Depth=1
	@DEBUG_VALUE: vsscanf:converted <- $r12
	@DEBUG_VALUE: vsscanf:flags <- $r11
	@DEBUG_VALUE: vsscanf:q <- $r10
	@DEBUG_VALUE: vsscanf:sarg <- $r8
	@DEBUG_VALUE: vsscanf:state <- $r5
	@DEBUG_VALUE: vsscanf:p <- $r1
	@DEBUG_VALUE: vsscanf:rank <- [DW_OP_plus_uconst 20] [$sp+0]
	@DEBUG_VALUE: vsscanf:width <- [DW_OP_plus_uconst 24] [$sp+0]
	@DEBUG_VALUE: vsscanf:matchinv <- [DW_OP_plus_uconst 28] [$sp+0]
	@DEBUG_VALUE: vsscanf:range_start <- [DW_OP_plus_uconst 16] [$sp+0]
	@DEBUG_VALUE: vsscanf:ap <- [DW_OP_plus_uconst 12] [$sp+0]
	@DEBUG_VALUE: vsscanf:bail <- 0
	.loc	1 0 3 is_stmt 0                 @ ../../../components/platform/soc/rt582/rt582_dongle/dongle/src/vsscanf.c:0:3
.LCPI0_0:
	tbb	[pc, r5]
.Ltmp10:
@ %bb.4:
.LJTI0_0:
	.byte	(.LBB0_5-(.LCPI0_0+4))/2
	.byte	(.LBB0_8-(.LCPI0_0+4))/2
	.byte	(.LBB0_10-(.LCPI0_0+4))/2
	.byte	(.LBB0_12-(.LCPI0_0+4))/2
	.byte	(.LBB0_17-(.LCPI0_0+4))/2
	.byte	(.LBB0_20-(.LCPI0_0+4))/2
	.byte	(.LBB0_23-(.LCPI0_0+4))/2
	.p2align	1
.LBB0_5:                                @   in Loop: Header=BB0_2 Depth=1
.Ltmp11:
	@DEBUG_VALUE: vsscanf:converted <- $r12
	@DEBUG_VALUE: vsscanf:flags <- $r11
	@DEBUG_VALUE: vsscanf:q <- $r10
	@DEBUG_VALUE: vsscanf:sarg <- $r8
	@DEBUG_VALUE: vsscanf:state <- $r5
	@DEBUG_VALUE: vsscanf:p <- $r1
	@DEBUG_VALUE: vsscanf:rank <- [DW_OP_plus_uconst 20] [$sp+0]
	@DEBUG_VALUE: vsscanf:width <- [DW_OP_plus_uconst 24] [$sp+0]
	@DEBUG_VALUE: vsscanf:matchinv <- [DW_OP_plus_uconst 28] [$sp+0]
	@DEBUG_VALUE: vsscanf:range_start <- [DW_OP_plus_uconst 16] [$sp+0]
	@DEBUG_VALUE: vsscanf:ap <- [DW_OP_plus_uconst 12] [$sp+0]
	@DEBUG_VALUE: vsscanf:bail <- 0
	.loc	1 107 8 is_stmt 1               @ ../../../components/platform/soc/rt582/rt582_dongle/dongle/src/vsscanf.c:107:8
	cmp	r6, #37
	bne.w	.LBB0_30
.Ltmp12:
@ %bb.6:                                @   in Loop: Header=BB0_2 Depth=1
	@DEBUG_VALUE: vsscanf:converted <- $r12
	@DEBUG_VALUE: vsscanf:flags <- $r11
	@DEBUG_VALUE: vsscanf:q <- $r10
	@DEBUG_VALUE: vsscanf:sarg <- $r8
	@DEBUG_VALUE: vsscanf:state <- $r5
	@DEBUG_VALUE: vsscanf:p <- $r1
	@DEBUG_VALUE: vsscanf:rank <- [DW_OP_plus_uconst 20] [$sp+0]
	@DEBUG_VALUE: vsscanf:width <- [DW_OP_plus_uconst 24] [$sp+0]
	@DEBUG_VALUE: vsscanf:matchinv <- [DW_OP_plus_uconst 28] [$sp+0]
	@DEBUG_VALUE: vsscanf:range_start <- [DW_OP_plus_uconst 16] [$sp+0]
	@DEBUG_VALUE: vsscanf:ap <- [DW_OP_plus_uconst 12] [$sp+0]
	@DEBUG_VALUE: vsscanf:bail <- 0
	.loc	1 0 8 is_stmt 0                 @ ../../../components/platform/soc/rt582/rt582_dongle/dongle/src/vsscanf.c:0:8
	mov.w	r0, #-1
	str	r0, [sp, #24]                   @ 4-byte Spill
	movs	r0, #0
	movs	r5, #1
.Ltmp13:
	str	r0, [sp, #20]                   @ 4-byte Spill
	mov.w	r11, #0
.Ltmp14:
.LBB0_7:                                @   in Loop: Header=BB0_2 Depth=1
	@DEBUG_VALUE: vsscanf:sarg <- $r8
	@DEBUG_VALUE: vsscanf:matchinv <- [DW_OP_plus_uconst 28] [$sp+0]
	@DEBUG_VALUE: vsscanf:range_start <- [DW_OP_plus_uconst 16] [$sp+0]
	@DEBUG_VALUE: vsscanf:ap <- [DW_OP_plus_uconst 12] [$sp+0]
	@DEBUG_VALUE: vsscanf:bail <- 0
	movs	r2, #0
	b	.LBB0_59
.Ltmp15:
.LBB0_8:                                @   in Loop: Header=BB0_2 Depth=1
	@DEBUG_VALUE: vsscanf:converted <- $r12
	@DEBUG_VALUE: vsscanf:flags <- $r11
	@DEBUG_VALUE: vsscanf:q <- $r10
	@DEBUG_VALUE: vsscanf:sarg <- $r8
	@DEBUG_VALUE: vsscanf:state <- $r5
	@DEBUG_VALUE: vsscanf:p <- $r1
	@DEBUG_VALUE: vsscanf:rank <- [DW_OP_plus_uconst 20] [$sp+0]
	@DEBUG_VALUE: vsscanf:width <- [DW_OP_plus_uconst 24] [$sp+0]
	@DEBUG_VALUE: vsscanf:matchinv <- [DW_OP_plus_uconst 28] [$sp+0]
	@DEBUG_VALUE: vsscanf:range_start <- [DW_OP_plus_uconst 16] [$sp+0]
	@DEBUG_VALUE: vsscanf:ap <- [DW_OP_plus_uconst 12] [$sp+0]
	@DEBUG_VALUE: vsscanf:bail <- 0
	.loc	1 123 4 is_stmt 1               @ ../../../components/platform/soc/rt582/rt582_dongle/dongle/src/vsscanf.c:123:4
	sub.w	r3, r6, #48
	cmp	r3, #10
	bhs.w	.LBB0_46
.Ltmp16:
@ %bb.9:                                @   in Loop: Header=BB0_2 Depth=1
	@DEBUG_VALUE: vsscanf:converted <- $r12
	@DEBUG_VALUE: vsscanf:flags <- $r11
	@DEBUG_VALUE: vsscanf:q <- $r10
	@DEBUG_VALUE: vsscanf:sarg <- $r8
	@DEBUG_VALUE: vsscanf:state <- $r5
	@DEBUG_VALUE: vsscanf:p <- $r1
	@DEBUG_VALUE: vsscanf:rank <- [DW_OP_plus_uconst 20] [$sp+0]
	@DEBUG_VALUE: vsscanf:width <- [DW_OP_plus_uconst 24] [$sp+0]
	@DEBUG_VALUE: vsscanf:matchinv <- [DW_OP_plus_uconst 28] [$sp+0]
	@DEBUG_VALUE: vsscanf:range_start <- [DW_OP_plus_uconst 16] [$sp+0]
	@DEBUG_VALUE: vsscanf:ap <- [DW_OP_plus_uconst 12] [$sp+0]
	@DEBUG_VALUE: vsscanf:bail <- 0
	@DEBUG_VALUE: vsscanf:width <- $r3
	@DEBUG_VALUE: vsscanf:state <- 2
	.loc	1 139 11                        @ ../../../components/platform/soc/rt582/rt582_dongle/dongle/src/vsscanf.c:139:11
	orr	r11, r11, #4
.Ltmp17:
	@DEBUG_VALUE: vsscanf:flags <- $r11
	.loc	1 0 11 is_stmt 0                @ ../../../components/platform/soc/rt582/rt582_dongle/dongle/src/vsscanf.c:0:11
	movs	r2, #0
	movs	r5, #2
.Ltmp18:
	str	r3, [sp, #24]                   @ 4-byte Spill
.Ltmp19:
	@DEBUG_VALUE: vsscanf:width <- [DW_OP_plus_uconst 24] [$sp+0]
	@DEBUG_VALUE: vsscanf:width <- [DW_OP_plus_uconst 24] [$sp+0]
	@DEBUG_VALUE: vsscanf:width <- [DW_OP_plus_uconst 24] [$sp+0]
	b	.LBB0_59
.Ltmp20:
.LBB0_10:                               @   in Loop: Header=BB0_2 Depth=1
	@DEBUG_VALUE: vsscanf:converted <- $r12
	@DEBUG_VALUE: vsscanf:flags <- $r11
	@DEBUG_VALUE: vsscanf:q <- $r10
	@DEBUG_VALUE: vsscanf:sarg <- $r8
	@DEBUG_VALUE: vsscanf:state <- $r5
	@DEBUG_VALUE: vsscanf:p <- $r1
	@DEBUG_VALUE: vsscanf:rank <- [DW_OP_plus_uconst 20] [$sp+0]
	@DEBUG_VALUE: vsscanf:width <- [DW_OP_plus_uconst 24] [$sp+0]
	@DEBUG_VALUE: vsscanf:matchinv <- [DW_OP_plus_uconst 28] [$sp+0]
	@DEBUG_VALUE: vsscanf:range_start <- [DW_OP_plus_uconst 16] [$sp+0]
	@DEBUG_VALUE: vsscanf:ap <- [DW_OP_plus_uconst 12] [$sp+0]
	@DEBUG_VALUE: vsscanf:bail <- 0
	.loc	1 149 18 is_stmt 1              @ ../../../components/platform/soc/rt582/rt582_dongle/dongle/src/vsscanf.c:149:18
	sub.w	r0, r6, #48
	cmp	r0, #9
	bhi.w	.LBB0_48
.Ltmp21:
@ %bb.11:                               @   in Loop: Header=BB0_2 Depth=1
	@DEBUG_VALUE: vsscanf:converted <- $r12
	@DEBUG_VALUE: vsscanf:flags <- $r11
	@DEBUG_VALUE: vsscanf:q <- $r10
	@DEBUG_VALUE: vsscanf:sarg <- $r8
	@DEBUG_VALUE: vsscanf:state <- $r5
	@DEBUG_VALUE: vsscanf:p <- $r1
	@DEBUG_VALUE: vsscanf:rank <- [DW_OP_plus_uconst 20] [$sp+0]
	@DEBUG_VALUE: vsscanf:width <- [DW_OP_plus_uconst 24] [$sp+0]
	@DEBUG_VALUE: vsscanf:matchinv <- [DW_OP_plus_uconst 28] [$sp+0]
	@DEBUG_VALUE: vsscanf:range_start <- [DW_OP_plus_uconst 16] [$sp+0]
	@DEBUG_VALUE: vsscanf:ap <- [DW_OP_plus_uconst 12] [$sp+0]
	@DEBUG_VALUE: vsscanf:bail <- 0
	.loc	1 150 19                        @ ../../../components/platform/soc/rt582/rt582_dongle/dongle/src/vsscanf.c:150:19
	ldr	r0, [sp, #24]                   @ 4-byte Reload
	movs	r2, #0
	add.w	r0, r0, r0, lsl #2
	.loc	1 150 30 is_stmt 0              @ ../../../components/platform/soc/rt582/rt582_dongle/dongle/src/vsscanf.c:150:30
	add.w	r0, r6, r0, lsl #1
	.loc	1 150 24                        @ ../../../components/platform/soc/rt582/rt582_dongle/dongle/src/vsscanf.c:150:24
	subs	r0, #48
.Ltmp22:
	@DEBUG_VALUE: vsscanf:width <- $r0
	.loc	1 0 24                          @ ../../../components/platform/soc/rt582/rt582_dongle/dongle/src/vsscanf.c:0:24
	str	r0, [sp, #24]                   @ 4-byte Spill
.Ltmp23:
	@DEBUG_VALUE: vsscanf:width <- [DW_OP_plus_uconst 24] [$sp+0]
	@DEBUG_VALUE: vsscanf:width <- [DW_OP_plus_uconst 24] [$sp+0]
	@DEBUG_VALUE: vsscanf:width <- [DW_OP_plus_uconst 24] [$sp+0]
	movs	r5, #2
.Ltmp24:
	b	.LBB0_59
.Ltmp25:
.LBB0_12:                               @   in Loop: Header=BB0_2 Depth=1
	@DEBUG_VALUE: vsscanf:converted <- $r12
	@DEBUG_VALUE: vsscanf:flags <- $r11
	@DEBUG_VALUE: vsscanf:q <- $r10
	@DEBUG_VALUE: vsscanf:sarg <- $r8
	@DEBUG_VALUE: vsscanf:state <- $r5
	@DEBUG_VALUE: vsscanf:p <- $r1
	@DEBUG_VALUE: vsscanf:rank <- [DW_OP_plus_uconst 20] [$sp+0]
	@DEBUG_VALUE: vsscanf:width <- [DW_OP_plus_uconst 24] [$sp+0]
	@DEBUG_VALUE: vsscanf:matchinv <- [DW_OP_plus_uconst 28] [$sp+0]
	@DEBUG_VALUE: vsscanf:range_start <- [DW_OP_plus_uconst 16] [$sp+0]
	@DEBUG_VALUE: vsscanf:ap <- [DW_OP_plus_uconst 12] [$sp+0]
	@DEBUG_VALUE: vsscanf:bail <- 0
	.loc	1 158 4 is_stmt 1               @ ../../../components/platform/soc/rt582/rt582_dongle/dongle/src/vsscanf.c:158:4
	cmp	r6, #115
	bgt.w	.LBB0_39
.Ltmp26:
@ %bb.13:                               @   in Loop: Header=BB0_2 Depth=1
	@DEBUG_VALUE: vsscanf:converted <- $r12
	@DEBUG_VALUE: vsscanf:flags <- $r11
	@DEBUG_VALUE: vsscanf:q <- $r10
	@DEBUG_VALUE: vsscanf:sarg <- $r8
	@DEBUG_VALUE: vsscanf:state <- $r5
	@DEBUG_VALUE: vsscanf:p <- $r1
	@DEBUG_VALUE: vsscanf:rank <- [DW_OP_plus_uconst 20] [$sp+0]
	@DEBUG_VALUE: vsscanf:width <- [DW_OP_plus_uconst 24] [$sp+0]
	@DEBUG_VALUE: vsscanf:matchinv <- [DW_OP_plus_uconst 28] [$sp+0]
	@DEBUG_VALUE: vsscanf:range_start <- [DW_OP_plus_uconst 16] [$sp+0]
	@DEBUG_VALUE: vsscanf:ap <- [DW_OP_plus_uconst 12] [$sp+0]
	@DEBUG_VALUE: vsscanf:bail <- 0
	.loc	1 0 4 is_stmt 0                 @ ../../../components/platform/soc/rt582/rt582_dongle/dongle/src/vsscanf.c:0:4
	sub.w	r0, r6, #104
	ldr	r3, [sp, #20]                   @ 4-byte Reload
	cmp	r0, #9
	bhi.w	.LBB0_49
.Ltmp27:
@ %bb.14:                               @   in Loop: Header=BB0_2 Depth=1
	@DEBUG_VALUE: vsscanf:converted <- $r12
	@DEBUG_VALUE: vsscanf:flags <- $r11
	@DEBUG_VALUE: vsscanf:q <- $r10
	@DEBUG_VALUE: vsscanf:sarg <- $r8
	@DEBUG_VALUE: vsscanf:state <- $r5
	@DEBUG_VALUE: vsscanf:p <- $r1
	@DEBUG_VALUE: vsscanf:rank <- [DW_OP_plus_uconst 20] [$sp+0]
	@DEBUG_VALUE: vsscanf:width <- [DW_OP_plus_uconst 24] [$sp+0]
	@DEBUG_VALUE: vsscanf:matchinv <- [DW_OP_plus_uconst 28] [$sp+0]
	@DEBUG_VALUE: vsscanf:range_start <- [DW_OP_plus_uconst 16] [$sp+0]
	@DEBUG_VALUE: vsscanf:ap <- [DW_OP_plus_uconst 12] [$sp+0]
	@DEBUG_VALUE: vsscanf:bail <- 0
	adr.w	r1, .LJTI0_1
.Ltmp28:
	@DEBUG_VALUE: vsscanf:format <- [DW_OP_LLVM_entry_value 1] $r1
.LCPI0_1:
	tbh	[pc, r0, lsl #1]
.Ltmp29:
@ %bb.15:
.LJTI0_1:
	.short	(.LBB0_16-(.LCPI0_1+4))/2
	.short	(.LBB0_52-(.LCPI0_1+4))/2
	.short	(.LBB0_50-(.LCPI0_1+4))/2
	.short	(.LBB0_52-(.LCPI0_1+4))/2
	.short	(.LBB0_57-(.LCPI0_1+4))/2
	.short	(.LBB0_52-(.LCPI0_1+4))/2
	.short	(.LBB0_52-(.LCPI0_1+4))/2
	.short	(.LBB0_52-(.LCPI0_1+4))/2
	.short	(.LBB0_52-(.LCPI0_1+4))/2
	.short	(.LBB0_50-(.LCPI0_1+4))/2
	.p2align	1
.LBB0_16:                               @   in Loop: Header=BB0_2 Depth=1
.Ltmp30:
	@DEBUG_VALUE: vsscanf:converted <- $r12
	@DEBUG_VALUE: vsscanf:flags <- $r11
	@DEBUG_VALUE: vsscanf:q <- $r10
	@DEBUG_VALUE: vsscanf:sarg <- $r8
	@DEBUG_VALUE: vsscanf:state <- $r5
	@DEBUG_VALUE: vsscanf:rank <- [DW_OP_plus_uconst 20] [$sp+0]
	@DEBUG_VALUE: vsscanf:width <- [DW_OP_plus_uconst 24] [$sp+0]
	@DEBUG_VALUE: vsscanf:matchinv <- [DW_OP_plus_uconst 28] [$sp+0]
	@DEBUG_VALUE: vsscanf:range_start <- [DW_OP_plus_uconst 16] [$sp+0]
	@DEBUG_VALUE: vsscanf:ap <- [DW_OP_plus_uconst 12] [$sp+0]
	@DEBUG_VALUE: vsscanf:bail <- 0
	.loc	1 161 9 is_stmt 1               @ ../../../components/platform/soc/rt582/rt582_dongle/dongle/src/vsscanf.c:161:9
	subs	r3, #1
.Ltmp31:
	@DEBUG_VALUE: vsscanf:rank <- $r3
	.loc	1 0 9 is_stmt 0                 @ ../../../components/platform/soc/rt582/rt582_dongle/dongle/src/vsscanf.c:0:9
	b	.LBB0_58
.Ltmp32:
.LBB0_17:                               @   in Loop: Header=BB0_2 Depth=1
	@DEBUG_VALUE: vsscanf:converted <- $r12
	@DEBUG_VALUE: vsscanf:flags <- $r11
	@DEBUG_VALUE: vsscanf:q <- $r10
	@DEBUG_VALUE: vsscanf:sarg <- $r8
	@DEBUG_VALUE: vsscanf:state <- $r5
	@DEBUG_VALUE: vsscanf:p <- $r1
	@DEBUG_VALUE: vsscanf:rank <- [DW_OP_plus_uconst 20] [$sp+0]
	@DEBUG_VALUE: vsscanf:width <- [DW_OP_plus_uconst 24] [$sp+0]
	@DEBUG_VALUE: vsscanf:matchinv <- [DW_OP_plus_uconst 28] [$sp+0]
	@DEBUG_VALUE: vsscanf:range_start <- [DW_OP_plus_uconst 16] [$sp+0]
	@DEBUG_VALUE: vsscanf:ap <- [DW_OP_plus_uconst 12] [$sp+0]
	@DEBUG_VALUE: vsscanf:bail <- 0
	.loc	1 357 18 is_stmt 1              @ ../../../components/platform/soc/rt582/rt582_dongle/dongle/src/vsscanf.c:357:18
	lsls.w	r0, r11, #30
	bmi	.LBB0_22
.Ltmp33:
@ %bb.18:                               @   in Loop: Header=BB0_2 Depth=1
	@DEBUG_VALUE: vsscanf:converted <- $r12
	@DEBUG_VALUE: vsscanf:flags <- $r11
	@DEBUG_VALUE: vsscanf:q <- $r10
	@DEBUG_VALUE: vsscanf:sarg <- $r8
	@DEBUG_VALUE: vsscanf:state <- $r5
	@DEBUG_VALUE: vsscanf:p <- $r1
	@DEBUG_VALUE: vsscanf:rank <- [DW_OP_plus_uconst 20] [$sp+0]
	@DEBUG_VALUE: vsscanf:width <- [DW_OP_plus_uconst 24] [$sp+0]
	@DEBUG_VALUE: vsscanf:matchinv <- [DW_OP_plus_uconst 28] [$sp+0]
	@DEBUG_VALUE: vsscanf:range_start <- [DW_OP_plus_uconst 16] [$sp+0]
	@DEBUG_VALUE: vsscanf:ap <- [DW_OP_plus_uconst 12] [$sp+0]
	@DEBUG_VALUE: vsscanf:bail <- 0
	cmp	r6, #94
	bne	.LBB0_22
.Ltmp34:
@ %bb.19:                               @   in Loop: Header=BB0_2 Depth=1
	@DEBUG_VALUE: vsscanf:converted <- $r12
	@DEBUG_VALUE: vsscanf:flags <- $r11
	@DEBUG_VALUE: vsscanf:q <- $r10
	@DEBUG_VALUE: vsscanf:sarg <- $r8
	@DEBUG_VALUE: vsscanf:state <- $r5
	@DEBUG_VALUE: vsscanf:p <- $r1
	@DEBUG_VALUE: vsscanf:rank <- [DW_OP_plus_uconst 20] [$sp+0]
	@DEBUG_VALUE: vsscanf:width <- [DW_OP_plus_uconst 24] [$sp+0]
	@DEBUG_VALUE: vsscanf:matchinv <- [DW_OP_plus_uconst 28] [$sp+0]
	@DEBUG_VALUE: vsscanf:range_start <- [DW_OP_plus_uconst 16] [$sp+0]
	@DEBUG_VALUE: vsscanf:ap <- [DW_OP_plus_uconst 12] [$sp+0]
	@DEBUG_VALUE: vsscanf:bail <- 0
	.loc	1 0 18 is_stmt 0                @ ../../../components/platform/soc/rt582/rt582_dongle/dongle/src/vsscanf.c:0:18
	movs	r0, #1
	str	r0, [sp, #28]                   @ 4-byte Spill
	movs	r2, #0
	movs	r5, #4
.Ltmp35:
	b	.LBB0_59
.Ltmp36:
.LBB0_20:                               @   in Loop: Header=BB0_2 Depth=1
	@DEBUG_VALUE: vsscanf:converted <- $r12
	@DEBUG_VALUE: vsscanf:flags <- $r11
	@DEBUG_VALUE: vsscanf:q <- $r10
	@DEBUG_VALUE: vsscanf:sarg <- $r8
	@DEBUG_VALUE: vsscanf:state <- $r5
	@DEBUG_VALUE: vsscanf:p <- $r1
	@DEBUG_VALUE: vsscanf:rank <- [DW_OP_plus_uconst 20] [$sp+0]
	@DEBUG_VALUE: vsscanf:width <- [DW_OP_plus_uconst 24] [$sp+0]
	@DEBUG_VALUE: vsscanf:matchinv <- [DW_OP_plus_uconst 28] [$sp+0]
	@DEBUG_VALUE: vsscanf:range_start <- [DW_OP_plus_uconst 16] [$sp+0]
	@DEBUG_VALUE: vsscanf:ap <- [DW_OP_plus_uconst 12] [$sp+0]
	@DEBUG_VALUE: vsscanf:bail <- 0
	.loc	1 366 8 is_stmt 1               @ ../../../components/platform/soc/rt582/rt582_dongle/dongle/src/vsscanf.c:366:8
	cmp	r6, #45
	beq	.LBB0_38
.Ltmp37:
@ %bb.21:                               @   in Loop: Header=BB0_2 Depth=1
	@DEBUG_VALUE: vsscanf:converted <- $r12
	@DEBUG_VALUE: vsscanf:flags <- $r11
	@DEBUG_VALUE: vsscanf:q <- $r10
	@DEBUG_VALUE: vsscanf:sarg <- $r8
	@DEBUG_VALUE: vsscanf:state <- $r5
	@DEBUG_VALUE: vsscanf:p <- $r1
	@DEBUG_VALUE: vsscanf:rank <- [DW_OP_plus_uconst 20] [$sp+0]
	@DEBUG_VALUE: vsscanf:width <- [DW_OP_plus_uconst 24] [$sp+0]
	@DEBUG_VALUE: vsscanf:matchinv <- [DW_OP_plus_uconst 28] [$sp+0]
	@DEBUG_VALUE: vsscanf:range_start <- [DW_OP_plus_uconst 16] [$sp+0]
	@DEBUG_VALUE: vsscanf:ap <- [DW_OP_plus_uconst 12] [$sp+0]
	@DEBUG_VALUE: vsscanf:bail <- 0
	cmp	r6, #93
	beq	.LBB0_25
.Ltmp38:
.LBB0_22:                               @   in Loop: Header=BB0_2 Depth=1
	@DEBUG_VALUE: vsscanf:converted <- $r12
	@DEBUG_VALUE: vsscanf:flags <- $r11
	@DEBUG_VALUE: vsscanf:q <- $r10
	@DEBUG_VALUE: vsscanf:sarg <- $r8
	@DEBUG_VALUE: vsscanf:state <- $r5
	@DEBUG_VALUE: vsscanf:p <- $r1
	@DEBUG_VALUE: vsscanf:rank <- [DW_OP_plus_uconst 20] [$sp+0]
	@DEBUG_VALUE: vsscanf:width <- [DW_OP_plus_uconst 24] [$sp+0]
	@DEBUG_VALUE: vsscanf:matchinv <- [DW_OP_plus_uconst 28] [$sp+0]
	@DEBUG_VALUE: vsscanf:range_start <- [DW_OP_plus_uconst 16] [$sp+0]
	@DEBUG_VALUE: vsscanf:ap <- [DW_OP_plus_uconst 12] [$sp+0]
	@DEBUG_VALUE: vsscanf:bail <- 0
	@DEBUG_VALUE: set_bit:bitmap <- [DW_OP_plus_uconst 32, DW_OP_stack_value] $sp
	@DEBUG_VALUE: set_bit:bit <- undef
	.loc	1 0 0 is_stmt 0                 @ ../../../components/platform/soc/rt582/rt582_dongle/dongle/src/vsscanf.c:0:0
	lsrs	r1, r6, #5
.Ltmp39:
	@DEBUG_VALUE: vsscanf:format <- [DW_OP_LLVM_entry_value 1] $r1
	and	r0, r6, #31
	ldr.w	r2, [r7, r1, lsl #2]
	lsl.w	r0, lr, r0
	orrs	r0, r2
	str.w	r0, [r7, r1, lsl #2]
	b	.LBB0_34
.Ltmp40:
.LBB0_23:                               @   in Loop: Header=BB0_2 Depth=1
	@DEBUG_VALUE: vsscanf:converted <- $r12
	@DEBUG_VALUE: vsscanf:flags <- $r11
	@DEBUG_VALUE: vsscanf:q <- $r10
	@DEBUG_VALUE: vsscanf:sarg <- $r8
	@DEBUG_VALUE: vsscanf:state <- $r5
	@DEBUG_VALUE: vsscanf:p <- $r1
	@DEBUG_VALUE: vsscanf:rank <- [DW_OP_plus_uconst 20] [$sp+0]
	@DEBUG_VALUE: vsscanf:width <- [DW_OP_plus_uconst 24] [$sp+0]
	@DEBUG_VALUE: vsscanf:matchinv <- [DW_OP_plus_uconst 28] [$sp+0]
	@DEBUG_VALUE: vsscanf:range_start <- [DW_OP_plus_uconst 16] [$sp+0]
	@DEBUG_VALUE: vsscanf:ap <- [DW_OP_plus_uconst 12] [$sp+0]
	@DEBUG_VALUE: vsscanf:bail <- 0
	.loc	1 377 8 is_stmt 1               @ ../../../components/platform/soc/rt582/rt582_dongle/dongle/src/vsscanf.c:377:8
	cmp	r6, #93
	bne	.LBB0_32
.Ltmp41:
@ %bb.24:                               @   in Loop: Header=BB0_2 Depth=1
	@DEBUG_VALUE: vsscanf:converted <- $r12
	@DEBUG_VALUE: vsscanf:flags <- $r11
	@DEBUG_VALUE: vsscanf:q <- $r10
	@DEBUG_VALUE: vsscanf:sarg <- $r8
	@DEBUG_VALUE: vsscanf:state <- $r5
	@DEBUG_VALUE: vsscanf:p <- $r1
	@DEBUG_VALUE: vsscanf:rank <- [DW_OP_plus_uconst 20] [$sp+0]
	@DEBUG_VALUE: vsscanf:width <- [DW_OP_plus_uconst 24] [$sp+0]
	@DEBUG_VALUE: vsscanf:matchinv <- [DW_OP_plus_uconst 28] [$sp+0]
	@DEBUG_VALUE: vsscanf:range_start <- [DW_OP_plus_uconst 16] [$sp+0]
	@DEBUG_VALUE: vsscanf:ap <- [DW_OP_plus_uconst 12] [$sp+0]
	@DEBUG_VALUE: vsscanf:bail <- 0
	@DEBUG_VALUE: set_bit:bitmap <- [DW_OP_plus_uconst 32, DW_OP_stack_value] $sp
	@DEBUG_VALUE: set_bit:bit <- 45
	.loc	1 66 25                         @ ../../../components/platform/soc/rt582/rt582_dongle/dongle/src/vsscanf.c:66:25
	ldr	r1, [sp, #36]
.Ltmp42:
	@DEBUG_VALUE: vsscanf:format <- [DW_OP_LLVM_entry_value 1] $r1
	orr	r1, r1, #8192
	str	r1, [sp, #36]
.Ltmp43:
.LBB0_25:                               @   in Loop: Header=BB0_2 Depth=1
	@DEBUG_VALUE: vsscanf:converted <- $r12
	@DEBUG_VALUE: vsscanf:flags <- $r11
	@DEBUG_VALUE: vsscanf:q <- $r10
	@DEBUG_VALUE: vsscanf:sarg <- $r8
	@DEBUG_VALUE: vsscanf:state <- $r5
	@DEBUG_VALUE: vsscanf:rank <- [DW_OP_plus_uconst 20] [$sp+0]
	@DEBUG_VALUE: vsscanf:width <- [DW_OP_plus_uconst 24] [$sp+0]
	@DEBUG_VALUE: vsscanf:matchinv <- [DW_OP_plus_uconst 28] [$sp+0]
	@DEBUG_VALUE: vsscanf:range_start <- [DW_OP_plus_uconst 16] [$sp+0]
	@DEBUG_VALUE: vsscanf:ap <- [DW_OP_plus_uconst 12] [$sp+0]
	@DEBUG_VALUE: vsscanf:bail <- 0
	@DEBUG_VALUE: vsscanf:qq <- $r10
	@DEBUG_LABEL: match_run
	.loc	1 393 17                        @ ../../../components/platform/soc/rt582/rt582_dongle/dongle/src/vsscanf.c:393:17
	ldr	r0, [sp, #24]                   @ 4-byte Reload
	.loc	1 391 7                         @ ../../../components/platform/soc/rt582/rt582_dongle/dongle/src/vsscanf.c:391:7
	str.w	r10, [sp, #64]
.Ltmp44:
	@DEBUG_VALUE: vsscanf:uc <- undef
	@DEBUG_VALUE: vsscanf:sarg <- $r8
	@DEBUG_VALUE: vsscanf:q <- $r10
	.loc	1 393 17                        @ ../../../components/platform/soc/rt582/rt582_dongle/dongle/src/vsscanf.c:393:17
	cmp	r0, #0
	beq.w	.LBB0_128
.Ltmp45:
@ %bb.26:                               @   in Loop: Header=BB0_2 Depth=1
	@DEBUG_VALUE: vsscanf:converted <- $r12
	@DEBUG_VALUE: vsscanf:flags <- $r11
	@DEBUG_VALUE: vsscanf:qq <- $r10
	@DEBUG_VALUE: vsscanf:q <- $r10
	@DEBUG_VALUE: vsscanf:sarg <- $r8
	@DEBUG_VALUE: vsscanf:state <- $r5
	@DEBUG_VALUE: vsscanf:rank <- [DW_OP_plus_uconst 20] [$sp+0]
	@DEBUG_VALUE: vsscanf:width <- [DW_OP_plus_uconst 24] [$sp+0]
	@DEBUG_VALUE: vsscanf:matchinv <- [DW_OP_plus_uconst 28] [$sp+0]
	@DEBUG_VALUE: vsscanf:range_start <- [DW_OP_plus_uconst 16] [$sp+0]
	@DEBUG_VALUE: vsscanf:ap <- [DW_OP_plus_uconst 12] [$sp+0]
	@DEBUG_VALUE: vsscanf:bail <- 0
	@DEBUG_VALUE: vsscanf:q <- $r10
	@DEBUG_VALUE: vsscanf:sarg <- $r8
	.loc	1 393 26 is_stmt 0              @ ../../../components/platform/soc/rt582/rt582_dongle/dongle/src/vsscanf.c:393:26
	ldrb.w	r1, [r10]
.Ltmp46:
	@DEBUG_VALUE: vsscanf:uc <- $r1
	.p2align	2
.LBB0_27:                               @   Parent Loop BB0_2 Depth=1
                                        @ =>  This Inner Loop Header: Depth=2
	@DEBUG_VALUE: vsscanf:converted <- $r12
	@DEBUG_VALUE: vsscanf:flags <- $r11
	@DEBUG_VALUE: vsscanf:q <- $r10
	@DEBUG_VALUE: vsscanf:sarg <- $r8
	@DEBUG_VALUE: vsscanf:state <- $r5
	@DEBUG_VALUE: vsscanf:uc <- $r1
	@DEBUG_VALUE: vsscanf:rank <- [DW_OP_plus_uconst 20] [$sp+0]
	@DEBUG_VALUE: vsscanf:width <- [DW_OP_plus_uconst 24] [$sp+0]
	@DEBUG_VALUE: vsscanf:matchinv <- [DW_OP_plus_uconst 28] [$sp+0]
	@DEBUG_VALUE: vsscanf:range_start <- [DW_OP_plus_uconst 16] [$sp+0]
	@DEBUG_VALUE: vsscanf:ap <- [DW_OP_plus_uconst 12] [$sp+0]
	@DEBUG_VALUE: vsscanf:bail <- 0
	.loc	1 394 11 is_stmt 1              @ ../../../components/platform/soc/rt582/rt582_dongle/dongle/src/vsscanf.c:394:11
	cmp	r1, #0
	beq.w	.LBB0_121
.Ltmp47:
@ %bb.28:                               @   in Loop: Header=BB0_27 Depth=2
	@DEBUG_VALUE: vsscanf:converted <- $r12
	@DEBUG_VALUE: vsscanf:flags <- $r11
	@DEBUG_VALUE: vsscanf:q <- $r10
	@DEBUG_VALUE: vsscanf:sarg <- $r8
	@DEBUG_VALUE: vsscanf:state <- $r5
	@DEBUG_VALUE: vsscanf:uc <- $r1
	@DEBUG_VALUE: vsscanf:rank <- [DW_OP_plus_uconst 20] [$sp+0]
	@DEBUG_VALUE: vsscanf:width <- [DW_OP_plus_uconst 24] [$sp+0]
	@DEBUG_VALUE: vsscanf:matchinv <- [DW_OP_plus_uconst 28] [$sp+0]
	@DEBUG_VALUE: vsscanf:range_start <- [DW_OP_plus_uconst 16] [$sp+0]
	@DEBUG_VALUE: vsscanf:ap <- [DW_OP_plus_uconst 12] [$sp+0]
	@DEBUG_VALUE: vsscanf:bail <- 0
	@DEBUG_VALUE: vsscanf:q <- $r10
	@DEBUG_VALUE: vsscanf:sarg <- $r8
	@DEBUG_VALUE: test_bit:bitmap <- [DW_OP_plus_uconst 32, DW_OP_stack_value] $sp
	@DEBUG_VALUE: test_bit:bit <- undef
	.loc	1 72 26                         @ ../../../components/platform/soc/rt582/rt582_dongle/dongle/src/vsscanf.c:72:26
	lsrs	r2, r1, #5
	.loc	1 72 15 is_stmt 0               @ ../../../components/platform/soc/rt582/rt582_dongle/dongle/src/vsscanf.c:72:15
	ldr.w	r2, [r7, r2, lsl #2]
	.loc	1 72 46                         @ ../../../components/platform/soc/rt582/rt582_dongle/dongle/src/vsscanf.c:72:46
	and	r3, r1, #31
	.loc	1 72 38                         @ ../../../components/platform/soc/rt582/rt582_dongle/dongle/src/vsscanf.c:72:38
	lsrs	r2, r3
.Ltmp48:
	.loc	1 393 4 is_stmt 1               @ ../../../components/platform/soc/rt582/rt582_dongle/dongle/src/vsscanf.c:393:4
	ldr	r0, [sp, #28]                   @ 4-byte Reload
.Ltmp49:
	.loc	1 72 59                         @ ../../../components/platform/soc/rt582/rt582_dongle/dongle/src/vsscanf.c:72:59
	and	r2, r2, #1
.Ltmp50:
	.loc	1 393 4                         @ ../../../components/platform/soc/rt582/rt582_dongle/dongle/src/vsscanf.c:393:4
	cmp	r2, r0
	beq	.LBB0_35
.Ltmp51:
@ %bb.29:                               @   in Loop: Header=BB0_27 Depth=2
	@DEBUG_VALUE: vsscanf:converted <- $r12
	@DEBUG_VALUE: vsscanf:flags <- $r11
	@DEBUG_VALUE: vsscanf:q <- $r10
	@DEBUG_VALUE: vsscanf:sarg <- $r8
	@DEBUG_VALUE: vsscanf:state <- $r5
	@DEBUG_VALUE: vsscanf:uc <- $r1
	@DEBUG_VALUE: vsscanf:rank <- [DW_OP_plus_uconst 20] [$sp+0]
	@DEBUG_VALUE: vsscanf:width <- [DW_OP_plus_uconst 24] [$sp+0]
	@DEBUG_VALUE: vsscanf:matchinv <- [DW_OP_plus_uconst 28] [$sp+0]
	@DEBUG_VALUE: vsscanf:range_start <- [DW_OP_plus_uconst 16] [$sp+0]
	@DEBUG_VALUE: vsscanf:ap <- [DW_OP_plus_uconst 12] [$sp+0]
	@DEBUG_VALUE: vsscanf:bail <- 0
	.loc	1 395 9                         @ ../../../components/platform/soc/rt582/rt582_dongle/dongle/src/vsscanf.c:395:9
	cmp.w	r8, #0
.Ltmp52:
	.loc	1 396 14                        @ ../../../components/platform/soc/rt582/rt582_dongle/dongle/src/vsscanf.c:396:14
	ite	ne
	strbne	r1, [r8], #1
.Ltmp53:
	.loc	1 0 14 is_stmt 0                @ ../../../components/platform/soc/rt582/rt582_dongle/dongle/src/vsscanf.c:0:14
	moveq.w	r8, #0
.Ltmp54:
	@DEBUG_VALUE: vsscanf:sarg <- $r8
	@DEBUG_VALUE: vsscanf:uc <- undef
	.loc	1 393 26 is_stmt 1              @ ../../../components/platform/soc/rt582/rt582_dongle/dongle/src/vsscanf.c:393:26
	ldrb	r1, [r10, #1]!
.Ltmp55:
	@DEBUG_VALUE: vsscanf:uc <- $r1
	@DEBUG_VALUE: vsscanf:q <- $r10
	.loc	1 0 26 is_stmt 0                @ ../../../components/platform/soc/rt582/rt582_dongle/dongle/src/vsscanf.c:0:26
	b	.LBB0_27
.Ltmp56:
.LBB0_30:                               @   in Loop: Header=BB0_2 Depth=1
	@DEBUG_VALUE: vsscanf:converted <- $r12
	@DEBUG_VALUE: vsscanf:flags <- $r11
	@DEBUG_VALUE: vsscanf:q <- $r10
	@DEBUG_VALUE: vsscanf:sarg <- $r8
	@DEBUG_VALUE: vsscanf:state <- $r5
	@DEBUG_VALUE: vsscanf:p <- $r1
	@DEBUG_VALUE: vsscanf:rank <- [DW_OP_plus_uconst 20] [$sp+0]
	@DEBUG_VALUE: vsscanf:width <- [DW_OP_plus_uconst 24] [$sp+0]
	@DEBUG_VALUE: vsscanf:matchinv <- [DW_OP_plus_uconst 28] [$sp+0]
	@DEBUG_VALUE: vsscanf:range_start <- [DW_OP_plus_uconst 16] [$sp+0]
	@DEBUG_VALUE: vsscanf:ap <- [DW_OP_plus_uconst 12] [$sp+0]
	@DEBUG_VALUE: vsscanf:bail <- 0
	mov	r4, r12
.Ltmp57:
	@DEBUG_VALUE: vsscanf:converted <- $r4
	@DEBUG_VALUE: vsscanf:converted <- $r4
	.loc	1 112 15 is_stmt 1              @ ../../../components/platform/soc/rt582/rt582_dongle/dongle/src/vsscanf.c:112:15
	bl	__rt_ctype_table
.Ltmp58:
	@DEBUG_VALUE: vsscanf:format <- [DW_OP_LLVM_entry_value 1] $r1
	ldr	r0, [r0]
	ldrb	r1, [r0, r6]
.Ltmp59:
	.loc	1 112 15 is_stmt 0              @ ../../../components/platform/soc/rt582/rt582_dongle/dongle/src/vsscanf.c:112:15
	lsls	r1, r1, #31
	bne	.LBB0_42
.Ltmp60:
@ %bb.31:                               @   in Loop: Header=BB0_2 Depth=1
	@DEBUG_VALUE: vsscanf:flags <- $r11
	@DEBUG_VALUE: vsscanf:q <- $r10
	@DEBUG_VALUE: vsscanf:sarg <- $r8
	@DEBUG_VALUE: vsscanf:state <- $r5
	@DEBUG_VALUE: vsscanf:converted <- $r4
	@DEBUG_VALUE: vsscanf:rank <- [DW_OP_plus_uconst 20] [$sp+0]
	@DEBUG_VALUE: vsscanf:width <- [DW_OP_plus_uconst 24] [$sp+0]
	@DEBUG_VALUE: vsscanf:matchinv <- [DW_OP_plus_uconst 28] [$sp+0]
	@DEBUG_VALUE: vsscanf:range_start <- [DW_OP_plus_uconst 16] [$sp+0]
	@DEBUG_VALUE: vsscanf:ap <- [DW_OP_plus_uconst 12] [$sp+0]
	@DEBUG_VALUE: vsscanf:bail <- 0
	.loc	1 115 9 is_stmt 1               @ ../../../components/platform/soc/rt582/rt582_dongle/dongle/src/vsscanf.c:115:9
	mov	r0, r10
	ldrb	r1, [r0], #1
	movs	r5, #0
.Ltmp61:
	subs	r2, r1, r6
	it	ne
	movne	r2, #1
.Ltmp62:
	.loc	1 115 9 is_stmt 0               @ ../../../components/platform/soc/rt582/rt582_dongle/dongle/src/vsscanf.c:115:9
	lsls	r2, r2, #1
	mov.w	lr, #1
	mov	r12, r4
	cmp	r1, r6
	it	eq
	moveq	r10, r0
.Ltmp63:
	.loc	1 0 9                           @ ../../../components/platform/soc/rt582/rt582_dongle/dongle/src/vsscanf.c:0:9
	b	.LBB0_45
.Ltmp64:
.LBB0_32:                               @   in Loop: Header=BB0_2 Depth=1
	@DEBUG_VALUE: vsscanf:converted <- $r12
	@DEBUG_VALUE: vsscanf:flags <- $r11
	@DEBUG_VALUE: vsscanf:q <- $r10
	@DEBUG_VALUE: vsscanf:sarg <- $r8
	@DEBUG_VALUE: vsscanf:state <- $r5
	@DEBUG_VALUE: vsscanf:p <- $r1
	@DEBUG_VALUE: vsscanf:rank <- [DW_OP_plus_uconst 20] [$sp+0]
	@DEBUG_VALUE: vsscanf:width <- [DW_OP_plus_uconst 24] [$sp+0]
	@DEBUG_VALUE: vsscanf:matchinv <- [DW_OP_plus_uconst 28] [$sp+0]
	@DEBUG_VALUE: vsscanf:range_start <- [DW_OP_plus_uconst 16] [$sp+0]
	@DEBUG_VALUE: vsscanf:ap <- [DW_OP_plus_uconst 12] [$sp+0]
	@DEBUG_VALUE: vsscanf:bail <- 0
	@DEBUG_VALUE: i <- [DW_OP_plus_uconst 16, DW_OP_deref_size 4, DW_OP_LLVM_convert 8 7, DW_OP_LLVM_convert 32 7, DW_OP_stack_value] $sp
	ldr	r0, [sp, #16]                   @ 4-byte Reload
	@DEBUG_VALUE: i <- [DW_OP_plus_uconst 16, DW_OP_deref_size 4, DW_OP_LLVM_convert 8 7, DW_OP_LLVM_convert 32 7, DW_OP_stack_value] $sp
.Ltmp65:
	@DEBUG_VALUE: i <- [DW_OP_LLVM_convert 8 7, DW_OP_LLVM_convert 32 7, DW_OP_stack_value] $r0
	.loc	1 383 5 is_stmt 1               @ ../../../components/platform/soc/rt582/rt582_dongle/dongle/src/vsscanf.c:383:5
	cmp	r0, r6
	bhs	.LBB0_34
.Ltmp66:
	.p2align	2
.LBB0_33:                               @   Parent Loop BB0_2 Depth=1
                                        @ =>  This Inner Loop Header: Depth=2
	@DEBUG_VALUE: vsscanf:converted <- $r12
	@DEBUG_VALUE: vsscanf:flags <- $r11
	@DEBUG_VALUE: vsscanf:q <- $r10
	@DEBUG_VALUE: vsscanf:sarg <- $r8
	@DEBUG_VALUE: vsscanf:state <- $r5
	@DEBUG_VALUE: vsscanf:rank <- [DW_OP_plus_uconst 20] [$sp+0]
	@DEBUG_VALUE: vsscanf:width <- [DW_OP_plus_uconst 24] [$sp+0]
	@DEBUG_VALUE: vsscanf:matchinv <- [DW_OP_plus_uconst 28] [$sp+0]
	@DEBUG_VALUE: vsscanf:range_start <- [DW_OP_plus_uconst 16] [$sp+0]
	@DEBUG_VALUE: vsscanf:ap <- [DW_OP_plus_uconst 12] [$sp+0]
	@DEBUG_VALUE: vsscanf:bail <- 0
	@DEBUG_VALUE: i <- $r0
	@DEBUG_VALUE: set_bit:bitmap <- [DW_OP_plus_uconst 32, DW_OP_stack_value] $sp
	@DEBUG_VALUE: set_bit:bit <- $r0
	.loc	1 66 13                         @ ../../../components/platform/soc/rt582/rt582_dongle/dongle/src/vsscanf.c:66:13
	lsrs	r2, r0, #5
	.loc	1 66 40 is_stmt 0               @ ../../../components/platform/soc/rt582/rt582_dongle/dongle/src/vsscanf.c:66:40
	and	r1, r0, #31
.Ltmp67:
	@DEBUG_VALUE: vsscanf:format <- [DW_OP_LLVM_entry_value 1] $r1
	.loc	1 66 25                         @ ../../../components/platform/soc/rt582/rt582_dongle/dongle/src/vsscanf.c:66:25
	ldr.w	r3, [r7, r2, lsl #2]
	.loc	1 66 32                         @ ../../../components/platform/soc/rt582/rt582_dongle/dongle/src/vsscanf.c:66:32
	lsl.w	r1, lr, r1
.Ltmp68:
	.loc	1 384 11 is_stmt 1              @ ../../../components/platform/soc/rt582/rt582_dongle/dongle/src/vsscanf.c:384:11
	adds	r0, #1
.Ltmp69:
	@DEBUG_VALUE: i <- $r0
	.loc	1 66 25                         @ ../../../components/platform/soc/rt582/rt582_dongle/dongle/src/vsscanf.c:66:25
	orrs	r1, r3
.Ltmp70:
	.loc	1 383 5                         @ ../../../components/platform/soc/rt582/rt582_dongle/dongle/src/vsscanf.c:383:5
	cmp	r6, r0
.Ltmp71:
	.loc	1 66 25                         @ ../../../components/platform/soc/rt582/rt582_dongle/dongle/src/vsscanf.c:66:25
	str.w	r1, [r7, r2, lsl #2]
.Ltmp72:
	@DEBUG_VALUE: set_bit:bitmap <- [DW_OP_plus_uconst 32, DW_OP_stack_value] $sp
	.loc	1 383 5                         @ ../../../components/platform/soc/rt582/rt582_dongle/dongle/src/vsscanf.c:383:5
	bne	.LBB0_33
.Ltmp73:
.LBB0_34:                               @   in Loop: Header=BB0_2 Depth=1
	@DEBUG_VALUE: vsscanf:converted <- $r12
	@DEBUG_VALUE: vsscanf:flags <- $r11
	@DEBUG_VALUE: vsscanf:q <- $r10
	@DEBUG_VALUE: vsscanf:sarg <- $r8
	@DEBUG_VALUE: vsscanf:state <- $r5
	@DEBUG_VALUE: vsscanf:rank <- [DW_OP_plus_uconst 20] [$sp+0]
	@DEBUG_VALUE: vsscanf:width <- [DW_OP_plus_uconst 24] [$sp+0]
	@DEBUG_VALUE: vsscanf:matchinv <- [DW_OP_plus_uconst 28] [$sp+0]
	@DEBUG_VALUE: vsscanf:range_start <- [DW_OP_plus_uconst 16] [$sp+0]
	@DEBUG_VALUE: vsscanf:ap <- [DW_OP_plus_uconst 12] [$sp+0]
	@DEBUG_VALUE: vsscanf:bail <- 0
	.loc	1 0 5 is_stmt 0                 @ ../../../components/platform/soc/rt582/rt582_dongle/dongle/src/vsscanf.c:0:5
	movs	r2, #0
	movs	r5, #5
.Ltmp74:
	b	.LBB0_59
.Ltmp75:
.LBB0_35:                               @   in Loop: Header=BB0_2 Depth=1
	@DEBUG_VALUE: vsscanf:converted <- $r12
	@DEBUG_VALUE: vsscanf:flags <- $r11
	@DEBUG_VALUE: vsscanf:q <- $r10
	@DEBUG_VALUE: vsscanf:sarg <- $r8
	@DEBUG_VALUE: vsscanf:state <- $r5
	@DEBUG_VALUE: vsscanf:uc <- $r1
	@DEBUG_VALUE: vsscanf:rank <- [DW_OP_plus_uconst 20] [$sp+0]
	@DEBUG_VALUE: vsscanf:width <- [DW_OP_plus_uconst 24] [$sp+0]
	@DEBUG_VALUE: vsscanf:matchinv <- [DW_OP_plus_uconst 28] [$sp+0]
	@DEBUG_VALUE: vsscanf:range_start <- [DW_OP_plus_uconst 16] [$sp+0]
	@DEBUG_VALUE: vsscanf:ap <- [DW_OP_plus_uconst 12] [$sp+0]
	@DEBUG_VALUE: vsscanf:bail <- 0
	.loc	1 399 16 is_stmt 1              @ ../../../components/platform/soc/rt582/rt582_dongle/dongle/src/vsscanf.c:399:16
	cmp.w	r8, #0
	mov.w	r2, #2
.Ltmp76:
	@DEBUG_VALUE: vsscanf:uc <- undef
	beq.w	.LBB0_129
.Ltmp77:
@ %bb.36:                               @   in Loop: Header=BB0_2 Depth=1
	@DEBUG_VALUE: vsscanf:converted <- $r12
	@DEBUG_VALUE: vsscanf:flags <- $r11
	@DEBUG_VALUE: vsscanf:q <- $r10
	@DEBUG_VALUE: vsscanf:sarg <- $r8
	@DEBUG_VALUE: vsscanf:state <- $r5
	@DEBUG_VALUE: vsscanf:rank <- [DW_OP_plus_uconst 20] [$sp+0]
	@DEBUG_VALUE: vsscanf:width <- [DW_OP_plus_uconst 24] [$sp+0]
	@DEBUG_VALUE: vsscanf:matchinv <- [DW_OP_plus_uconst 28] [$sp+0]
	@DEBUG_VALUE: vsscanf:range_start <- [DW_OP_plus_uconst 16] [$sp+0]
	@DEBUG_VALUE: vsscanf:ap <- [DW_OP_plus_uconst 12] [$sp+0]
	@DEBUG_VALUE: vsscanf:bail <- 0
	.loc	1 0 0 is_stmt 0                 @ ../../../components/platform/soc/rt582/rt582_dongle/dongle/src/vsscanf.c:0:0
	ldr	r1, [sp, #64]
	.loc	1 399 16                        @ ../../../components/platform/soc/rt582/rt582_dongle/dongle/src/vsscanf.c:399:16
	cmp	r1, r10
	beq.w	.LBB0_129
.Ltmp78:
@ %bb.37:                               @   in Loop: Header=BB0_2 Depth=1
	@DEBUG_VALUE: vsscanf:converted <- $r12
	@DEBUG_VALUE: vsscanf:flags <- $r11
	@DEBUG_VALUE: vsscanf:q <- $r10
	@DEBUG_VALUE: vsscanf:sarg <- $r8
	@DEBUG_VALUE: vsscanf:state <- $r5
	@DEBUG_VALUE: vsscanf:rank <- [DW_OP_plus_uconst 20] [$sp+0]
	@DEBUG_VALUE: vsscanf:width <- [DW_OP_plus_uconst 24] [$sp+0]
	@DEBUG_VALUE: vsscanf:matchinv <- [DW_OP_plus_uconst 28] [$sp+0]
	@DEBUG_VALUE: vsscanf:range_start <- [DW_OP_plus_uconst 16] [$sp+0]
	@DEBUG_VALUE: vsscanf:ap <- [DW_OP_plus_uconst 12] [$sp+0]
	@DEBUG_VALUE: vsscanf:bail <- 0
	.loc	1 0 16                          @ ../../../components/platform/soc/rt582/rt582_dongle/dongle/src/vsscanf.c:0:16
	movs	r2, #0
.Ltmp79:
	.loc	1 400 11 is_stmt 1              @ ../../../components/platform/soc/rt582/rt582_dongle/dongle/src/vsscanf.c:400:11
	strb.w	r2, [r8]
	.loc	1 401 14                        @ ../../../components/platform/soc/rt582/rt582_dongle/dongle/src/vsscanf.c:401:14
	add.w	r12, r12, #1
.Ltmp80:
	@DEBUG_VALUE: vsscanf:converted <- $r12
	@DEBUG_VALUE: vsscanf:bail <- 2
	.loc	1 0 14 is_stmt 0                @ ../../../components/platform/soc/rt582/rt582_dongle/dongle/src/vsscanf.c:0:14
	b	.LBB0_59
.Ltmp81:
.LBB0_38:                               @   in Loop: Header=BB0_2 Depth=1
	@DEBUG_VALUE: vsscanf:converted <- $r12
	@DEBUG_VALUE: vsscanf:flags <- $r11
	@DEBUG_VALUE: vsscanf:q <- $r10
	@DEBUG_VALUE: vsscanf:sarg <- $r8
	@DEBUG_VALUE: vsscanf:state <- $r5
	@DEBUG_VALUE: vsscanf:p <- $r1
	@DEBUG_VALUE: vsscanf:rank <- [DW_OP_plus_uconst 20] [$sp+0]
	@DEBUG_VALUE: vsscanf:width <- [DW_OP_plus_uconst 24] [$sp+0]
	@DEBUG_VALUE: vsscanf:matchinv <- [DW_OP_plus_uconst 28] [$sp+0]
	@DEBUG_VALUE: vsscanf:range_start <- [DW_OP_plus_uconst 16] [$sp+0]
	@DEBUG_VALUE: vsscanf:ap <- [DW_OP_plus_uconst 12] [$sp+0]
	@DEBUG_VALUE: vsscanf:bail <- 0
	movs	r2, #0
	movs	r5, #6
.Ltmp82:
	str	r6, [sp, #16]                   @ 4-byte Spill
.Ltmp83:
	@DEBUG_VALUE: vsscanf:ch <- [DW_OP_plus_uconst 16] [$sp+0]
	b	.LBB0_59
.Ltmp84:
.LBB0_39:                               @   in Loop: Header=BB0_2 Depth=1
	@DEBUG_VALUE: vsscanf:converted <- $r12
	@DEBUG_VALUE: vsscanf:flags <- $r11
	@DEBUG_VALUE: vsscanf:q <- $r10
	@DEBUG_VALUE: vsscanf:sarg <- $r8
	@DEBUG_VALUE: vsscanf:state <- $r5
	@DEBUG_VALUE: vsscanf:p <- $r1
	@DEBUG_VALUE: vsscanf:rank <- [DW_OP_plus_uconst 20] [$sp+0]
	@DEBUG_VALUE: vsscanf:width <- [DW_OP_plus_uconst 24] [$sp+0]
	@DEBUG_VALUE: vsscanf:matchinv <- [DW_OP_plus_uconst 28] [$sp+0]
	@DEBUG_VALUE: vsscanf:range_start <- [DW_OP_plus_uconst 16] [$sp+0]
	@DEBUG_VALUE: vsscanf:ap <- [DW_OP_plus_uconst 12] [$sp+0]
	@DEBUG_VALUE: vsscanf:bail <- 0
	ldr	r3, [sp, #20]                   @ 4-byte Reload
.Ltmp85:
	.loc	1 158 4 is_stmt 1               @ ../../../components/platform/soc/rt582/rt582_dongle/dongle/src/vsscanf.c:158:4
	cmp	r6, #116
	beq	.LBB0_41
.Ltmp86:
@ %bb.40:                               @   in Loop: Header=BB0_2 Depth=1
	@DEBUG_VALUE: vsscanf:converted <- $r12
	@DEBUG_VALUE: vsscanf:flags <- $r11
	@DEBUG_VALUE: vsscanf:q <- $r10
	@DEBUG_VALUE: vsscanf:sarg <- $r8
	@DEBUG_VALUE: vsscanf:state <- $r5
	@DEBUG_VALUE: vsscanf:p <- $r1
	@DEBUG_VALUE: vsscanf:rank <- [DW_OP_plus_uconst 20] [$sp+0]
	@DEBUG_VALUE: vsscanf:width <- [DW_OP_plus_uconst 24] [$sp+0]
	@DEBUG_VALUE: vsscanf:matchinv <- [DW_OP_plus_uconst 28] [$sp+0]
	@DEBUG_VALUE: vsscanf:range_start <- [DW_OP_plus_uconst 16] [$sp+0]
	@DEBUG_VALUE: vsscanf:ap <- [DW_OP_plus_uconst 12] [$sp+0]
	@DEBUG_VALUE: vsscanf:bail <- 0
	cmp	r6, #122
	bne	.LBB0_52
.Ltmp87:
.LBB0_41:                               @   in Loop: Header=BB0_2 Depth=1
	@DEBUG_VALUE: vsscanf:converted <- $r12
	@DEBUG_VALUE: vsscanf:flags <- $r11
	@DEBUG_VALUE: vsscanf:q <- $r10
	@DEBUG_VALUE: vsscanf:sarg <- $r8
	@DEBUG_VALUE: vsscanf:state <- $r5
	@DEBUG_VALUE: vsscanf:p <- $r1
	@DEBUG_VALUE: vsscanf:rank <- [DW_OP_plus_uconst 20] [$sp+0]
	@DEBUG_VALUE: vsscanf:width <- [DW_OP_plus_uconst 24] [$sp+0]
	@DEBUG_VALUE: vsscanf:matchinv <- [DW_OP_plus_uconst 28] [$sp+0]
	@DEBUG_VALUE: vsscanf:range_start <- [DW_OP_plus_uconst 16] [$sp+0]
	@DEBUG_VALUE: vsscanf:ap <- [DW_OP_plus_uconst 12] [$sp+0]
	@DEBUG_VALUE: vsscanf:bail <- 0
	.loc	1 0 4 is_stmt 0                 @ ../../../components/platform/soc/rt582/rt582_dongle/dongle/src/vsscanf.c:0:4
	movs	r0, #1
.Ltmp88:
	@DEBUG_VALUE: vsscanf:rank <- 1
	b	.LBB0_51
.Ltmp89:
.LBB0_42:                               @   in Loop: Header=BB0_2 Depth=1
	@DEBUG_VALUE: vsscanf:flags <- $r11
	@DEBUG_VALUE: vsscanf:q <- $r10
	@DEBUG_VALUE: vsscanf:sarg <- $r8
	@DEBUG_VALUE: vsscanf:state <- $r5
	@DEBUG_VALUE: vsscanf:converted <- $r4
	@DEBUG_VALUE: vsscanf:rank <- [DW_OP_plus_uconst 20] [$sp+0]
	@DEBUG_VALUE: vsscanf:width <- [DW_OP_plus_uconst 24] [$sp+0]
	@DEBUG_VALUE: vsscanf:matchinv <- [DW_OP_plus_uconst 28] [$sp+0]
	@DEBUG_VALUE: vsscanf:range_start <- [DW_OP_plus_uconst 16] [$sp+0]
	@DEBUG_VALUE: vsscanf:ap <- [DW_OP_plus_uconst 12] [$sp+0]
	@DEBUG_VALUE: vsscanf:bail <- 0
	.loc	1 58 2 is_stmt 1                @ ../../../components/platform/soc/rt582/rt582_dongle/dongle/src/vsscanf.c:58:2
	sub.w	r10, r10, #1
.Ltmp90:
	.loc	1 0 2 is_stmt 0                 @ ../../../components/platform/soc/rt582/rt582_dongle/dongle/src/vsscanf.c:0:2
	mov.w	lr, #1
	mov	r12, r4
.Ltmp91:
	.p2align	2
.LBB0_43:                               @   Parent Loop BB0_2 Depth=1
                                        @ =>  This Inner Loop Header: Depth=2
	@DEBUG_VALUE: vsscanf:flags <- $r11
	@DEBUG_VALUE: vsscanf:sarg <- $r8
	@DEBUG_VALUE: vsscanf:state <- $r5
	@DEBUG_VALUE: vsscanf:converted <- $r4
	@DEBUG_VALUE: vsscanf:rank <- [DW_OP_plus_uconst 20] [$sp+0]
	@DEBUG_VALUE: vsscanf:width <- [DW_OP_plus_uconst 24] [$sp+0]
	@DEBUG_VALUE: vsscanf:matchinv <- [DW_OP_plus_uconst 28] [$sp+0]
	@DEBUG_VALUE: vsscanf:range_start <- [DW_OP_plus_uconst 16] [$sp+0]
	@DEBUG_VALUE: vsscanf:ap <- [DW_OP_plus_uconst 12] [$sp+0]
	@DEBUG_VALUE: vsscanf:bail <- 0
	@DEBUG_VALUE: skipspace:p <- [DW_OP_plus_uconst 1, DW_OP_stack_value] $r10
	.loc	1 58 9                          @ ../../../components/platform/soc/rt582/rt582_dongle/dongle/src/vsscanf.c:58:9
	ldrb	r1, [r10, #1]!
.Ltmp92:
	ldrb	r1, [r0, r1]
.Ltmp93:
	@DEBUG_VALUE: skipspace:p <- [DW_OP_plus_uconst 2, DW_OP_stack_value] undef
	.loc	1 58 2                          @ ../../../components/platform/soc/rt582/rt582_dongle/dongle/src/vsscanf.c:58:2
	lsls	r1, r1, #31
	bne	.LBB0_43
.Ltmp94:
@ %bb.44:                               @   in Loop: Header=BB0_2 Depth=1
	@DEBUG_VALUE: vsscanf:flags <- $r11
	@DEBUG_VALUE: vsscanf:sarg <- $r8
	@DEBUG_VALUE: vsscanf:state <- $r5
	@DEBUG_VALUE: vsscanf:converted <- $r4
	@DEBUG_VALUE: vsscanf:rank <- [DW_OP_plus_uconst 20] [$sp+0]
	@DEBUG_VALUE: vsscanf:width <- [DW_OP_plus_uconst 24] [$sp+0]
	@DEBUG_VALUE: vsscanf:matchinv <- [DW_OP_plus_uconst 28] [$sp+0]
	@DEBUG_VALUE: vsscanf:range_start <- [DW_OP_plus_uconst 16] [$sp+0]
	@DEBUG_VALUE: vsscanf:ap <- [DW_OP_plus_uconst 12] [$sp+0]
	@DEBUG_VALUE: vsscanf:bail <- 0
	.loc	1 0 2                           @ ../../../components/platform/soc/rt582/rt582_dongle/dongle/src/vsscanf.c:0:2
	movs	r5, #0
.Ltmp95:
	movs	r2, #0
.Ltmp96:
.LBB0_45:                               @   in Loop: Header=BB0_2 Depth=1
	@DEBUG_VALUE: vsscanf:flags <- $r11
	@DEBUG_VALUE: vsscanf:sarg <- $r8
	@DEBUG_VALUE: vsscanf:converted <- $r4
	@DEBUG_VALUE: vsscanf:rank <- [DW_OP_plus_uconst 20] [$sp+0]
	@DEBUG_VALUE: vsscanf:width <- [DW_OP_plus_uconst 24] [$sp+0]
	@DEBUG_VALUE: vsscanf:matchinv <- [DW_OP_plus_uconst 28] [$sp+0]
	@DEBUG_VALUE: vsscanf:range_start <- [DW_OP_plus_uconst 16] [$sp+0]
	@DEBUG_VALUE: vsscanf:ap <- [DW_OP_plus_uconst 12] [$sp+0]
	@DEBUG_VALUE: vsscanf:bail <- 0
	add	r7, sp, #32
	b	.LBB0_59
.Ltmp97:
.LBB0_46:                               @   in Loop: Header=BB0_2 Depth=1
	@DEBUG_VALUE: vsscanf:converted <- $r12
	@DEBUG_VALUE: vsscanf:flags <- $r11
	@DEBUG_VALUE: vsscanf:q <- $r10
	@DEBUG_VALUE: vsscanf:sarg <- $r8
	@DEBUG_VALUE: vsscanf:state <- $r5
	@DEBUG_VALUE: vsscanf:p <- $r1
	@DEBUG_VALUE: vsscanf:rank <- [DW_OP_plus_uconst 20] [$sp+0]
	@DEBUG_VALUE: vsscanf:width <- [DW_OP_plus_uconst 24] [$sp+0]
	@DEBUG_VALUE: vsscanf:matchinv <- [DW_OP_plus_uconst 28] [$sp+0]
	@DEBUG_VALUE: vsscanf:range_start <- [DW_OP_plus_uconst 16] [$sp+0]
	@DEBUG_VALUE: vsscanf:ap <- [DW_OP_plus_uconst 12] [$sp+0]
	@DEBUG_VALUE: vsscanf:bail <- 0
	.loc	1 123 4 is_stmt 1               @ ../../../components/platform/soc/rt582/rt582_dongle/dongle/src/vsscanf.c:123:4
	cmp	r6, #42
	bne	.LBB0_48
.Ltmp98:
@ %bb.47:                               @   in Loop: Header=BB0_2 Depth=1
	@DEBUG_VALUE: vsscanf:converted <- $r12
	@DEBUG_VALUE: vsscanf:flags <- $r11
	@DEBUG_VALUE: vsscanf:q <- $r10
	@DEBUG_VALUE: vsscanf:sarg <- $r8
	@DEBUG_VALUE: vsscanf:state <- $r5
	@DEBUG_VALUE: vsscanf:p <- $r1
	@DEBUG_VALUE: vsscanf:rank <- [DW_OP_plus_uconst 20] [$sp+0]
	@DEBUG_VALUE: vsscanf:width <- [DW_OP_plus_uconst 24] [$sp+0]
	@DEBUG_VALUE: vsscanf:matchinv <- [DW_OP_plus_uconst 28] [$sp+0]
	@DEBUG_VALUE: vsscanf:range_start <- [DW_OP_plus_uconst 16] [$sp+0]
	@DEBUG_VALUE: vsscanf:ap <- [DW_OP_plus_uconst 12] [$sp+0]
	@DEBUG_VALUE: vsscanf:bail <- 0
	.loc	1 125 11                        @ ../../../components/platform/soc/rt582/rt582_dongle/dongle/src/vsscanf.c:125:11
	orr	r11, r11, #1
.Ltmp99:
	@DEBUG_VALUE: vsscanf:flags <- $r11
	.loc	1 0 11 is_stmt 0                @ ../../../components/platform/soc/rt582/rt582_dongle/dongle/src/vsscanf.c:0:11
	movs	r2, #0
	movs	r5, #1
.Ltmp100:
	b	.LBB0_59
.Ltmp101:
.LBB0_48:                               @   in Loop: Header=BB0_2 Depth=1
	@DEBUG_VALUE: vsscanf:converted <- $r12
	@DEBUG_VALUE: vsscanf:flags <- $r11
	@DEBUG_VALUE: vsscanf:q <- $r10
	@DEBUG_VALUE: vsscanf:sarg <- $r8
	@DEBUG_VALUE: vsscanf:state <- $r5
	@DEBUG_VALUE: vsscanf:p <- $r1
	@DEBUG_VALUE: vsscanf:rank <- [DW_OP_plus_uconst 20] [$sp+0]
	@DEBUG_VALUE: vsscanf:width <- [DW_OP_plus_uconst 24] [$sp+0]
	@DEBUG_VALUE: vsscanf:matchinv <- [DW_OP_plus_uconst 28] [$sp+0]
	@DEBUG_VALUE: vsscanf:range_start <- [DW_OP_plus_uconst 16] [$sp+0]
	@DEBUG_VALUE: vsscanf:ap <- [DW_OP_plus_uconst 12] [$sp+0]
	@DEBUG_VALUE: vsscanf:bail <- 0
	movs	r2, #0
	movs	r5, #3
.Ltmp102:
	mov	r9, r1
.Ltmp103:
	@DEBUG_VALUE: vsscanf:p <- $r9
	@DEBUG_VALUE: vsscanf:format <- $r9
	b	.LBB0_59
.Ltmp104:
.LBB0_49:                               @   in Loop: Header=BB0_2 Depth=1
	@DEBUG_VALUE: vsscanf:converted <- $r12
	@DEBUG_VALUE: vsscanf:flags <- $r11
	@DEBUG_VALUE: vsscanf:q <- $r10
	@DEBUG_VALUE: vsscanf:sarg <- $r8
	@DEBUG_VALUE: vsscanf:state <- $r5
	@DEBUG_VALUE: vsscanf:p <- $r1
	@DEBUG_VALUE: vsscanf:rank <- [DW_OP_plus_uconst 20] [$sp+0]
	@DEBUG_VALUE: vsscanf:width <- [DW_OP_plus_uconst 24] [$sp+0]
	@DEBUG_VALUE: vsscanf:matchinv <- [DW_OP_plus_uconst 28] [$sp+0]
	@DEBUG_VALUE: vsscanf:range_start <- [DW_OP_plus_uconst 16] [$sp+0]
	@DEBUG_VALUE: vsscanf:ap <- [DW_OP_plus_uconst 12] [$sp+0]
	@DEBUG_VALUE: vsscanf:bail <- 0
	.loc	1 158 4 is_stmt 1               @ ../../../components/platform/soc/rt582/rt582_dongle/dongle/src/vsscanf.c:158:4
	cmp	r6, #76
	bne	.LBB0_52
.Ltmp105:
.LBB0_50:                               @   in Loop: Header=BB0_2 Depth=1
	@DEBUG_VALUE: vsscanf:converted <- $r12
	@DEBUG_VALUE: vsscanf:flags <- $r11
	@DEBUG_VALUE: vsscanf:q <- $r10
	@DEBUG_VALUE: vsscanf:sarg <- $r8
	@DEBUG_VALUE: vsscanf:state <- $r5
	@DEBUG_VALUE: vsscanf:rank <- [DW_OP_plus_uconst 20] [$sp+0]
	@DEBUG_VALUE: vsscanf:width <- [DW_OP_plus_uconst 24] [$sp+0]
	@DEBUG_VALUE: vsscanf:matchinv <- [DW_OP_plus_uconst 28] [$sp+0]
	@DEBUG_VALUE: vsscanf:range_start <- [DW_OP_plus_uconst 16] [$sp+0]
	@DEBUG_VALUE: vsscanf:ap <- [DW_OP_plus_uconst 12] [$sp+0]
	@DEBUG_VALUE: vsscanf:bail <- 0
	.loc	1 0 4 is_stmt 0                 @ ../../../components/platform/soc/rt582/rt582_dongle/dongle/src/vsscanf.c:0:4
	movs	r0, #2
.Ltmp106:
.LBB0_51:                               @   in Loop: Header=BB0_2 Depth=1
	@DEBUG_VALUE: vsscanf:converted <- $r12
	@DEBUG_VALUE: vsscanf:flags <- $r11
	@DEBUG_VALUE: vsscanf:q <- $r10
	@DEBUG_VALUE: vsscanf:sarg <- $r8
	@DEBUG_VALUE: vsscanf:state <- $r5
	@DEBUG_VALUE: vsscanf:width <- [DW_OP_plus_uconst 24] [$sp+0]
	@DEBUG_VALUE: vsscanf:matchinv <- [DW_OP_plus_uconst 28] [$sp+0]
	@DEBUG_VALUE: vsscanf:range_start <- [DW_OP_plus_uconst 16] [$sp+0]
	@DEBUG_VALUE: vsscanf:ap <- [DW_OP_plus_uconst 12] [$sp+0]
	@DEBUG_VALUE: vsscanf:bail <- 0
	movs	r2, #0
	movs	r5, #3
.Ltmp107:
	str	r0, [sp, #20]                   @ 4-byte Spill
	b	.LBB0_59
.Ltmp108:
.LBB0_52:                               @   in Loop: Header=BB0_2 Depth=1
	@DEBUG_VALUE: vsscanf:converted <- $r12
	@DEBUG_VALUE: vsscanf:flags <- $r11
	@DEBUG_VALUE: vsscanf:q <- $r10
	@DEBUG_VALUE: vsscanf:sarg <- $r8
	@DEBUG_VALUE: vsscanf:state <- $r5
	@DEBUG_VALUE: vsscanf:rank <- [DW_OP_plus_uconst 20] [$sp+0]
	@DEBUG_VALUE: vsscanf:width <- [DW_OP_plus_uconst 24] [$sp+0]
	@DEBUG_VALUE: vsscanf:matchinv <- [DW_OP_plus_uconst 28] [$sp+0]
	@DEBUG_VALUE: vsscanf:range_start <- [DW_OP_plus_uconst 16] [$sp+0]
	@DEBUG_VALUE: vsscanf:ap <- [DW_OP_plus_uconst 12] [$sp+0]
	@DEBUG_VALUE: vsscanf:bail <- 0
	@DEBUG_VALUE: vsscanf:state <- 0
	.loc	1 186 9 is_stmt 1               @ ../../../components/platform/soc/rt582/rt582_dongle/dongle/src/vsscanf.c:186:9
	cmp	r3, #2
	mov.w	r2, #2
	it	ge
	movge	r3, r2
	cmn.w	r3, #2
	it	le
	mvnle	r3, #1
.Ltmp109:
	@DEBUG_VALUE: vsscanf:rank <- $r3
	.loc	1 191 5                         @ ../../../components/platform/soc/rt582/rt582_dongle/dongle/src/vsscanf.c:191:5
	cmp	r6, #90
	mvn	r5, #-2147483648
	str	r3, [sp, #20]                   @ 4-byte Spill
.Ltmp110:
	@DEBUG_VALUE: vsscanf:rank <- [DW_OP_plus_uconst 20] [$sp+0]
	@DEBUG_VALUE: vsscanf:rank <- [DW_OP_plus_uconst 20] [$sp+0]
	ble	.LBB0_61
.Ltmp111:
@ %bb.53:                               @   in Loop: Header=BB0_2 Depth=1
	@DEBUG_VALUE: vsscanf:rank <- [DW_OP_plus_uconst 20] [$sp+0]
	@DEBUG_VALUE: vsscanf:converted <- $r12
	@DEBUG_VALUE: vsscanf:flags <- $r11
	@DEBUG_VALUE: vsscanf:q <- $r10
	@DEBUG_VALUE: vsscanf:sarg <- $r8
	@DEBUG_VALUE: vsscanf:width <- [DW_OP_plus_uconst 24] [$sp+0]
	@DEBUG_VALUE: vsscanf:matchinv <- [DW_OP_plus_uconst 28] [$sp+0]
	@DEBUG_VALUE: vsscanf:range_start <- [DW_OP_plus_uconst 16] [$sp+0]
	@DEBUG_VALUE: vsscanf:ap <- [DW_OP_plus_uconst 12] [$sp+0]
	@DEBUG_VALUE: vsscanf:state <- 0
	@DEBUG_VALUE: vsscanf:bail <- 0
	.loc	1 0 5 is_stmt 0                 @ ../../../components/platform/soc/rt582/rt582_dongle/dongle/src/vsscanf.c:0:5
	sub.w	r0, r6, #99
	cmp	r0, #21
	bhi	.LBB0_66
.Ltmp112:
@ %bb.54:                               @   in Loop: Header=BB0_2 Depth=1
	@DEBUG_VALUE: vsscanf:rank <- [DW_OP_plus_uconst 20] [$sp+0]
	@DEBUG_VALUE: vsscanf:converted <- $r12
	@DEBUG_VALUE: vsscanf:flags <- $r11
	@DEBUG_VALUE: vsscanf:q <- $r10
	@DEBUG_VALUE: vsscanf:sarg <- $r8
	@DEBUG_VALUE: vsscanf:width <- [DW_OP_plus_uconst 24] [$sp+0]
	@DEBUG_VALUE: vsscanf:matchinv <- [DW_OP_plus_uconst 28] [$sp+0]
	@DEBUG_VALUE: vsscanf:range_start <- [DW_OP_plus_uconst 16] [$sp+0]
	@DEBUG_VALUE: vsscanf:ap <- [DW_OP_plus_uconst 12] [$sp+0]
	@DEBUG_VALUE: vsscanf:state <- 0
	@DEBUG_VALUE: vsscanf:bail <- 0
	movs	r4, #0
.LCPI0_2:
	tbh	[pc, r0, lsl #1]
.Ltmp113:
@ %bb.55:
.LJTI0_2:
	.short	(.LBB0_69-(.LCPI0_2+4))/2
	.short	(.LBB0_56-(.LCPI0_2+4))/2
	.short	(.LBB0_129-(.LCPI0_2+4))/2
	.short	(.LBB0_129-(.LCPI0_2+4))/2
	.short	(.LBB0_129-(.LCPI0_2+4))/2
	.short	(.LBB0_129-(.LCPI0_2+4))/2
	.short	(.LBB0_74-(.LCPI0_2+4))/2
	.short	(.LBB0_129-(.LCPI0_2+4))/2
	.short	(.LBB0_129-(.LCPI0_2+4))/2
	.short	(.LBB0_129-(.LCPI0_2+4))/2
	.short	(.LBB0_129-(.LCPI0_2+4))/2
	.short	(.LBB0_75-(.LCPI0_2+4))/2
	.short	(.LBB0_76-(.LCPI0_2+4))/2
	.short	(.LBB0_78-(.LCPI0_2+4))/2
	.short	(.LBB0_129-(.LCPI0_2+4))/2
	.short	(.LBB0_129-(.LCPI0_2+4))/2
	.short	(.LBB0_92-(.LCPI0_2+4))/2
	.short	(.LBB0_129-(.LCPI0_2+4))/2
	.short	(.LBB0_56-(.LCPI0_2+4))/2
	.short	(.LBB0_129-(.LCPI0_2+4))/2
	.short	(.LBB0_129-(.LCPI0_2+4))/2
	.short	(.LBB0_64-(.LCPI0_2+4))/2
	.p2align	1
.LBB0_56:                               @   in Loop: Header=BB0_2 Depth=1
.Ltmp114:
	@DEBUG_VALUE: vsscanf:rank <- [DW_OP_plus_uconst 20] [$sp+0]
	@DEBUG_VALUE: vsscanf:converted <- $r12
	@DEBUG_VALUE: vsscanf:flags <- $r11
	@DEBUG_VALUE: vsscanf:q <- $r10
	@DEBUG_VALUE: vsscanf:sarg <- $r8
	@DEBUG_VALUE: vsscanf:width <- [DW_OP_plus_uconst 24] [$sp+0]
	@DEBUG_VALUE: vsscanf:matchinv <- [DW_OP_plus_uconst 28] [$sp+0]
	@DEBUG_VALUE: vsscanf:range_start <- [DW_OP_plus_uconst 16] [$sp+0]
	@DEBUG_VALUE: vsscanf:ap <- [DW_OP_plus_uconst 12] [$sp+0]
	@DEBUG_VALUE: vsscanf:state <- 0
	@DEBUG_VALUE: vsscanf:bail <- 0
	movs	r4, #10
.Ltmp115:
	@DEBUG_VALUE: vsscanf:sign <- 1
	@DEBUG_VALUE: vsscanf:base <- 10
	b	.LBB0_77
.Ltmp116:
.LBB0_57:                               @   in Loop: Header=BB0_2 Depth=1
	@DEBUG_VALUE: vsscanf:converted <- $r12
	@DEBUG_VALUE: vsscanf:flags <- $r11
	@DEBUG_VALUE: vsscanf:q <- $r10
	@DEBUG_VALUE: vsscanf:sarg <- $r8
	@DEBUG_VALUE: vsscanf:state <- $r5
	@DEBUG_VALUE: vsscanf:rank <- [DW_OP_plus_uconst 20] [$sp+0]
	@DEBUG_VALUE: vsscanf:width <- [DW_OP_plus_uconst 24] [$sp+0]
	@DEBUG_VALUE: vsscanf:matchinv <- [DW_OP_plus_uconst 28] [$sp+0]
	@DEBUG_VALUE: vsscanf:range_start <- [DW_OP_plus_uconst 16] [$sp+0]
	@DEBUG_VALUE: vsscanf:ap <- [DW_OP_plus_uconst 12] [$sp+0]
	@DEBUG_VALUE: vsscanf:bail <- 0
	.loc	1 164 9 is_stmt 1               @ ../../../components/platform/soc/rt582/rt582_dongle/dongle/src/vsscanf.c:164:9
	adds	r3, #1
.Ltmp117:
	@DEBUG_VALUE: vsscanf:rank <- $r3
.LBB0_58:                               @   in Loop: Header=BB0_2 Depth=1
	@DEBUG_VALUE: vsscanf:converted <- $r12
	@DEBUG_VALUE: vsscanf:flags <- $r11
	@DEBUG_VALUE: vsscanf:q <- $r10
	@DEBUG_VALUE: vsscanf:sarg <- $r8
	@DEBUG_VALUE: vsscanf:state <- $r5
	@DEBUG_VALUE: vsscanf:rank <- $r3
	@DEBUG_VALUE: vsscanf:width <- [DW_OP_plus_uconst 24] [$sp+0]
	@DEBUG_VALUE: vsscanf:matchinv <- [DW_OP_plus_uconst 28] [$sp+0]
	@DEBUG_VALUE: vsscanf:range_start <- [DW_OP_plus_uconst 16] [$sp+0]
	@DEBUG_VALUE: vsscanf:ap <- [DW_OP_plus_uconst 12] [$sp+0]
	@DEBUG_VALUE: vsscanf:bail <- 0
	.loc	1 0 9 is_stmt 0                 @ ../../../components/platform/soc/rt582/rt582_dongle/dongle/src/vsscanf.c:0:9
	str	r3, [sp, #20]                   @ 4-byte Spill
.Ltmp118:
	@DEBUG_VALUE: vsscanf:rank <- [DW_OP_plus_uconst 20] [$sp+0]
	@DEBUG_VALUE: vsscanf:rank <- [DW_OP_plus_uconst 20] [$sp+0]
	@DEBUG_VALUE: vsscanf:rank <- [DW_OP_plus_uconst 20] [$sp+0]
	movs	r2, #0
	movs	r5, #3
.Ltmp119:
	.p2align	2
.LBB0_59:                               @   in Loop: Header=BB0_2 Depth=1
	@DEBUG_VALUE: vsscanf:sarg <- $r8
	@DEBUG_VALUE: vsscanf:range_start <- [DW_OP_plus_uconst 16] [$sp+0]
	@DEBUG_VALUE: vsscanf:ap <- [DW_OP_plus_uconst 12] [$sp+0]
	@DEBUG_VALUE: vsscanf:ch <- undef
	@DEBUG_VALUE: vsscanf:ap <- [DW_OP_plus_uconst 12] [$sp+0]
	@DEBUG_VALUE: vsscanf:p <- [DW_OP_plus_uconst 1, DW_OP_stack_value] $r9
	@DEBUG_VALUE: vsscanf:q <- $r10
	@DEBUG_VALUE: vsscanf:rank <- [DW_OP_plus_uconst 20] [$sp+0]
	@DEBUG_VALUE: vsscanf:width <- [DW_OP_plus_uconst 24] [$sp+0]
	@DEBUG_VALUE: vsscanf:flags <- $r11
	@DEBUG_VALUE: vsscanf:state <- $r5
	@DEBUG_VALUE: vsscanf:sarg <- $r8
	@DEBUG_VALUE: vsscanf:bail <- $r2
	@DEBUG_VALUE: vsscanf:converted <- $r12
	@DEBUG_VALUE: vsscanf:matchinv <- [DW_OP_plus_uconst 28] [$sp+0]
	@DEBUG_VALUE: vsscanf:range_start <- [DW_OP_plus_uconst 16] [$sp+0]
	.loc	1 104 2 is_stmt 1               @ ../../../components/platform/soc/rt582/rt582_dongle/dongle/src/vsscanf.c:104:2
	cmp	r2, #0
	bne.w	.LBB0_129
.Ltmp120:
@ %bb.60:                               @   in Loop: Header=BB0_2 Depth=1
	@DEBUG_VALUE: vsscanf:converted <- $r12
	@DEBUG_VALUE: vsscanf:flags <- $r11
	@DEBUG_VALUE: vsscanf:q <- $r10
	@DEBUG_VALUE: vsscanf:p <- [DW_OP_plus_uconst 1, DW_OP_stack_value] $r9
	@DEBUG_VALUE: vsscanf:sarg <- $r8
	@DEBUG_VALUE: vsscanf:state <- $r5
	@DEBUG_VALUE: vsscanf:bail <- $r2
	@DEBUG_VALUE: vsscanf:rank <- [DW_OP_plus_uconst 20] [$sp+0]
	@DEBUG_VALUE: vsscanf:width <- [DW_OP_plus_uconst 24] [$sp+0]
	@DEBUG_VALUE: vsscanf:matchinv <- [DW_OP_plus_uconst 28] [$sp+0]
	@DEBUG_VALUE: vsscanf:range_start <- [DW_OP_plus_uconst 16] [$sp+0]
	@DEBUG_VALUE: vsscanf:ap <- [DW_OP_plus_uconst 12] [$sp+0]
	.loc	1 0 0 is_stmt 0                 @ ../../../components/platform/soc/rt582/rt582_dongle/dongle/src/vsscanf.c:0:0
	ldrb.w	r6, [r9]
	mov	r1, r9
	.loc	1 104 2                         @ ../../../components/platform/soc/rt582/rt582_dongle/dongle/src/vsscanf.c:104:2
	cmp	r6, #0
	bne.w	.LBB0_2
	b	.LBB0_129
.Ltmp121:
.LBB0_61:                               @   in Loop: Header=BB0_2 Depth=1
	@DEBUG_VALUE: vsscanf:rank <- [DW_OP_plus_uconst 20] [$sp+0]
	@DEBUG_VALUE: vsscanf:converted <- $r12
	@DEBUG_VALUE: vsscanf:flags <- $r11
	@DEBUG_VALUE: vsscanf:q <- $r10
	@DEBUG_VALUE: vsscanf:sarg <- $r8
	@DEBUG_VALUE: vsscanf:width <- [DW_OP_plus_uconst 24] [$sp+0]
	@DEBUG_VALUE: vsscanf:matchinv <- [DW_OP_plus_uconst 28] [$sp+0]
	@DEBUG_VALUE: vsscanf:range_start <- [DW_OP_plus_uconst 16] [$sp+0]
	@DEBUG_VALUE: vsscanf:ap <- [DW_OP_plus_uconst 12] [$sp+0]
	@DEBUG_VALUE: vsscanf:state <- 0
	@DEBUG_VALUE: vsscanf:bail <- 0
	.loc	1 191 5 is_stmt 1               @ ../../../components/platform/soc/rt582/rt582_dongle/dongle/src/vsscanf.c:191:5
	cmp	r6, #37
	beq	.LBB0_65
.Ltmp122:
@ %bb.62:                               @   in Loop: Header=BB0_2 Depth=1
	@DEBUG_VALUE: vsscanf:rank <- [DW_OP_plus_uconst 20] [$sp+0]
	@DEBUG_VALUE: vsscanf:converted <- $r12
	@DEBUG_VALUE: vsscanf:flags <- $r11
	@DEBUG_VALUE: vsscanf:q <- $r10
	@DEBUG_VALUE: vsscanf:sarg <- $r8
	@DEBUG_VALUE: vsscanf:width <- [DW_OP_plus_uconst 24] [$sp+0]
	@DEBUG_VALUE: vsscanf:matchinv <- [DW_OP_plus_uconst 28] [$sp+0]
	@DEBUG_VALUE: vsscanf:range_start <- [DW_OP_plus_uconst 16] [$sp+0]
	@DEBUG_VALUE: vsscanf:ap <- [DW_OP_plus_uconst 12] [$sp+0]
	@DEBUG_VALUE: vsscanf:state <- 0
	@DEBUG_VALUE: vsscanf:bail <- 0
	.loc	1 0 5 is_stmt 0                 @ ../../../components/platform/soc/rt582/rt582_dongle/dongle/src/vsscanf.c:0:5
	movs	r4, #0
	.loc	1 191 5                         @ ../../../components/platform/soc/rt582/rt582_dongle/dongle/src/vsscanf.c:191:5
	cmp	r6, #80
	beq	.LBB0_78
.Ltmp123:
@ %bb.63:                               @   in Loop: Header=BB0_2 Depth=1
	@DEBUG_VALUE: vsscanf:rank <- [DW_OP_plus_uconst 20] [$sp+0]
	@DEBUG_VALUE: vsscanf:converted <- $r12
	@DEBUG_VALUE: vsscanf:flags <- $r11
	@DEBUG_VALUE: vsscanf:q <- $r10
	@DEBUG_VALUE: vsscanf:sarg <- $r8
	@DEBUG_VALUE: vsscanf:width <- [DW_OP_plus_uconst 24] [$sp+0]
	@DEBUG_VALUE: vsscanf:matchinv <- [DW_OP_plus_uconst 28] [$sp+0]
	@DEBUG_VALUE: vsscanf:range_start <- [DW_OP_plus_uconst 16] [$sp+0]
	@DEBUG_VALUE: vsscanf:ap <- [DW_OP_plus_uconst 12] [$sp+0]
	@DEBUG_VALUE: vsscanf:state <- 0
	@DEBUG_VALUE: vsscanf:bail <- 0
	cmp	r6, #88
	bne.w	.LBB0_129
.Ltmp124:
.LBB0_64:                               @   in Loop: Header=BB0_2 Depth=1
	@DEBUG_VALUE: vsscanf:rank <- [DW_OP_plus_uconst 20] [$sp+0]
	@DEBUG_VALUE: vsscanf:converted <- $r12
	@DEBUG_VALUE: vsscanf:flags <- $r11
	@DEBUG_VALUE: vsscanf:q <- $r10
	@DEBUG_VALUE: vsscanf:sarg <- $r8
	@DEBUG_VALUE: vsscanf:width <- [DW_OP_plus_uconst 24] [$sp+0]
	@DEBUG_VALUE: vsscanf:matchinv <- [DW_OP_plus_uconst 28] [$sp+0]
	@DEBUG_VALUE: vsscanf:range_start <- [DW_OP_plus_uconst 16] [$sp+0]
	@DEBUG_VALUE: vsscanf:ap <- [DW_OP_plus_uconst 12] [$sp+0]
	@DEBUG_VALUE: vsscanf:state <- 0
	@DEBUG_VALUE: vsscanf:bail <- 0
	.loc	1 0 5                           @ ../../../components/platform/soc/rt582/rt582_dongle/dongle/src/vsscanf.c:0:5
	movs	r4, #16
.Ltmp125:
	@DEBUG_VALUE: vsscanf:sign <- 0
	@DEBUG_VALUE: vsscanf:base <- 16
	b	.LBB0_77
.Ltmp126:
.LBB0_65:                               @   in Loop: Header=BB0_2 Depth=1
	@DEBUG_VALUE: vsscanf:rank <- [DW_OP_plus_uconst 20] [$sp+0]
	@DEBUG_VALUE: vsscanf:converted <- $r12
	@DEBUG_VALUE: vsscanf:flags <- $r11
	@DEBUG_VALUE: vsscanf:q <- $r10
	@DEBUG_VALUE: vsscanf:sarg <- $r8
	@DEBUG_VALUE: vsscanf:width <- [DW_OP_plus_uconst 24] [$sp+0]
	@DEBUG_VALUE: vsscanf:matchinv <- [DW_OP_plus_uconst 28] [$sp+0]
	@DEBUG_VALUE: vsscanf:range_start <- [DW_OP_plus_uconst 16] [$sp+0]
	@DEBUG_VALUE: vsscanf:ap <- [DW_OP_plus_uconst 12] [$sp+0]
	@DEBUG_VALUE: vsscanf:state <- 0
	@DEBUG_VALUE: vsscanf:bail <- 0
	.loc	1 342 10 is_stmt 1              @ ../../../components/platform/soc/rt582/rt582_dongle/dongle/src/vsscanf.c:342:10
	mov	r0, r10
	ldrb	r1, [r0], #1
	movs	r5, #0
	subs.w	r2, r1, #37
	it	ne
	movne	r2, #1
.Ltmp127:
	.loc	1 342 10 is_stmt 0              @ ../../../components/platform/soc/rt582/rt582_dongle/dongle/src/vsscanf.c:342:10
	cmp	r1, #37
	it	eq
	moveq	r10, r0
.Ltmp128:
	lsls	r2, r2, #1
	b	.LBB0_59
.Ltmp129:
.LBB0_66:                               @   in Loop: Header=BB0_2 Depth=1
	@DEBUG_VALUE: vsscanf:rank <- [DW_OP_plus_uconst 20] [$sp+0]
	@DEBUG_VALUE: vsscanf:converted <- $r12
	@DEBUG_VALUE: vsscanf:flags <- $r11
	@DEBUG_VALUE: vsscanf:q <- $r10
	@DEBUG_VALUE: vsscanf:sarg <- $r8
	@DEBUG_VALUE: vsscanf:width <- [DW_OP_plus_uconst 24] [$sp+0]
	@DEBUG_VALUE: vsscanf:matchinv <- [DW_OP_plus_uconst 28] [$sp+0]
	@DEBUG_VALUE: vsscanf:range_start <- [DW_OP_plus_uconst 16] [$sp+0]
	@DEBUG_VALUE: vsscanf:ap <- [DW_OP_plus_uconst 12] [$sp+0]
	@DEBUG_VALUE: vsscanf:state <- 0
	@DEBUG_VALUE: vsscanf:bail <- 0
	.loc	1 191 5 is_stmt 1               @ ../../../components/platform/soc/rt582/rt582_dongle/dongle/src/vsscanf.c:191:5
	cmp	r6, #91
	bne.w	.LBB0_129
.Ltmp130:
@ %bb.67:                               @   in Loop: Header=BB0_2 Depth=1
	@DEBUG_VALUE: vsscanf:rank <- [DW_OP_plus_uconst 20] [$sp+0]
	@DEBUG_VALUE: vsscanf:converted <- $r12
	@DEBUG_VALUE: vsscanf:flags <- $r11
	@DEBUG_VALUE: vsscanf:q <- $r10
	@DEBUG_VALUE: vsscanf:sarg <- $r8
	@DEBUG_VALUE: vsscanf:width <- [DW_OP_plus_uconst 24] [$sp+0]
	@DEBUG_VALUE: vsscanf:matchinv <- [DW_OP_plus_uconst 28] [$sp+0]
	@DEBUG_VALUE: vsscanf:range_start <- [DW_OP_plus_uconst 16] [$sp+0]
	@DEBUG_VALUE: vsscanf:ap <- [DW_OP_plus_uconst 12] [$sp+0]
	@DEBUG_VALUE: vsscanf:state <- 0
	@DEBUG_VALUE: vsscanf:bail <- 0
	.loc	1 0 5 is_stmt 0                 @ ../../../components/platform/soc/rt582/rt582_dongle/dongle/src/vsscanf.c:0:5
	mov	r6, r12
.Ltmp131:
	@DEBUG_VALUE: vsscanf:converted <- $r6
	@DEBUG_VALUE: vsscanf:converted <- $r6
	.loc	1 334 13 is_stmt 1              @ ../../../components/platform/soc/rt582/rt582_dongle/dongle/src/vsscanf.c:334:13
	lsls.w	r0, r11, #31
	bne.w	.LBB0_115
.Ltmp132:
@ %bb.68:                               @   in Loop: Header=BB0_2 Depth=1
	@DEBUG_VALUE: vsscanf:rank <- [DW_OP_plus_uconst 20] [$sp+0]
	@DEBUG_VALUE: vsscanf:flags <- $r11
	@DEBUG_VALUE: vsscanf:q <- $r10
	@DEBUG_VALUE: vsscanf:sarg <- $r8
	@DEBUG_VALUE: vsscanf:converted <- $r6
	@DEBUG_VALUE: vsscanf:width <- [DW_OP_plus_uconst 24] [$sp+0]
	@DEBUG_VALUE: vsscanf:matchinv <- [DW_OP_plus_uconst 28] [$sp+0]
	@DEBUG_VALUE: vsscanf:range_start <- [DW_OP_plus_uconst 16] [$sp+0]
	@DEBUG_VALUE: vsscanf:ap <- [DW_OP_plus_uconst 12] [$sp+0]
	@DEBUG_VALUE: vsscanf:state <- 0
	@DEBUG_VALUE: vsscanf:bail <- 0
	.loc	1 335 9                         @ ../../../components/platform/soc/rt582/rt582_dongle/dongle/src/vsscanf.c:335:9
	ldr	r0, [sp, #12]                   @ 4-byte Reload
	ldr	r8, [r0], #4
.Ltmp133:
	@DEBUG_VALUE: vsscanf:ap <- $r0
	.loc	1 0 9 is_stmt 0                 @ ../../../components/platform/soc/rt582/rt582_dongle/dongle/src/vsscanf.c:0:9
	str	r0, [sp, #12]                   @ 4-byte Spill
.Ltmp134:
	@DEBUG_VALUE: vsscanf:ap <- [DW_OP_plus_uconst 12] [$sp+0]
	@DEBUG_VALUE: vsscanf:ap <- [DW_OP_plus_uconst 12] [$sp+0]
	@DEBUG_VALUE: vsscanf:ap <- [DW_OP_plus_uconst 12] [$sp+0]
	b	.LBB0_116
.Ltmp135:
.LBB0_69:                               @   in Loop: Header=BB0_2 Depth=1
	@DEBUG_VALUE: vsscanf:rank <- [DW_OP_plus_uconst 20] [$sp+0]
	@DEBUG_VALUE: vsscanf:converted <- $r12
	@DEBUG_VALUE: vsscanf:flags <- $r11
	@DEBUG_VALUE: vsscanf:q <- $r10
	@DEBUG_VALUE: vsscanf:sarg <- $r8
	@DEBUG_VALUE: vsscanf:width <- [DW_OP_plus_uconst 24] [$sp+0]
	@DEBUG_VALUE: vsscanf:matchinv <- [DW_OP_plus_uconst 28] [$sp+0]
	@DEBUG_VALUE: vsscanf:range_start <- [DW_OP_plus_uconst 16] [$sp+0]
	@DEBUG_VALUE: vsscanf:ap <- [DW_OP_plus_uconst 12] [$sp+0]
	@DEBUG_VALUE: vsscanf:state <- 0
	@DEBUG_VALUE: vsscanf:bail <- 0
	.loc	1 286 14 is_stmt 1              @ ../../../components/platform/soc/rt582/rt582_dongle/dongle/src/vsscanf.c:286:14
	lsls.w	r0, r11, #29
	ldr	r1, [sp, #24]                   @ 4-byte Reload
	it	pl
	movpl	r1, #1
.Ltmp136:
	@DEBUG_VALUE: vsscanf:width <- $r1
	.loc	1 287 10                        @ ../../../components/platform/soc/rt582/rt582_dongle/dongle/src/vsscanf.c:287:10
	lsls.w	r0, r11, #31
	bne.w	.LBB0_104
.Ltmp137:
@ %bb.70:                               @   in Loop: Header=BB0_2 Depth=1
	@DEBUG_VALUE: vsscanf:rank <- [DW_OP_plus_uconst 20] [$sp+0]
	@DEBUG_VALUE: vsscanf:converted <- $r12
	@DEBUG_VALUE: vsscanf:flags <- $r11
	@DEBUG_VALUE: vsscanf:q <- $r10
	@DEBUG_VALUE: vsscanf:sarg <- $r8
	@DEBUG_VALUE: vsscanf:width <- $r1
	@DEBUG_VALUE: vsscanf:matchinv <- [DW_OP_plus_uconst 28] [$sp+0]
	@DEBUG_VALUE: vsscanf:range_start <- [DW_OP_plus_uconst 16] [$sp+0]
	@DEBUG_VALUE: vsscanf:ap <- [DW_OP_plus_uconst 12] [$sp+0]
	@DEBUG_VALUE: vsscanf:state <- 0
	@DEBUG_VALUE: vsscanf:bail <- 0
	.loc	1 295 14                        @ ../../../components/platform/soc/rt582/rt582_dongle/dongle/src/vsscanf.c:295:14
	ldr	r0, [sp, #12]                   @ 4-byte Reload
	ldr	r8, [r0], #4
.Ltmp138:
	@DEBUG_VALUE: vsscanf:sarg <- $r8
	@DEBUG_VALUE: vsscanf:width <- [DW_OP_constu 1, DW_OP_minus, DW_OP_stack_value] $r1
	@DEBUG_VALUE: vsscanf:q <- $r10
	@DEBUG_VALUE: vsscanf:ap <- $r0
	.loc	1 296 7                         @ ../../../components/platform/soc/rt582/rt582_dongle/dongle/src/vsscanf.c:296:7
	str	r0, [sp, #12]                   @ 4-byte Spill
.Ltmp139:
	@DEBUG_VALUE: vsscanf:ap <- [DW_OP_plus_uconst 12] [$sp+0]
	@DEBUG_VALUE: vsscanf:ap <- [DW_OP_plus_uconst 12] [$sp+0]
	@DEBUG_VALUE: vsscanf:ap <- [DW_OP_plus_uconst 12] [$sp+0]
	cbz	r1, .LBB0_73
.Ltmp140:
.LBB0_71:                               @   Parent Loop BB0_2 Depth=1
                                        @ =>  This Inner Loop Header: Depth=2
	@DEBUG_VALUE: vsscanf:rank <- [DW_OP_plus_uconst 20] [$sp+0]
	@DEBUG_VALUE: vsscanf:converted <- $r12
	@DEBUG_VALUE: vsscanf:flags <- $r11
	@DEBUG_VALUE: vsscanf:q <- $r10
	@DEBUG_VALUE: vsscanf:sarg <- $r8
	@DEBUG_VALUE: vsscanf:width <- [DW_OP_constu 1, DW_OP_minus, DW_OP_stack_value] $r1
	@DEBUG_VALUE: vsscanf:matchinv <- [DW_OP_plus_uconst 28] [$sp+0]
	@DEBUG_VALUE: vsscanf:range_start <- [DW_OP_plus_uconst 16] [$sp+0]
	@DEBUG_VALUE: vsscanf:ap <- [DW_OP_plus_uconst 12] [$sp+0]
	@DEBUG_VALUE: vsscanf:state <- 0
	@DEBUG_VALUE: vsscanf:bail <- 0
	@DEBUG_VALUE: vsscanf:q <- $r10
	@DEBUG_VALUE: vsscanf:sarg <- $r8
	.loc	1 297 13                        @ ../../../components/platform/soc/rt582/rt582_dongle/dongle/src/vsscanf.c:297:13
	ldrb.w	r0, [r10]
.Ltmp141:
	.loc	1 297 12 is_stmt 0              @ ../../../components/platform/soc/rt582/rt582_dongle/dongle/src/vsscanf.c:297:12
	cmp	r0, #0
	beq.w	.LBB0_125
.Ltmp142:
@ %bb.72:                               @   in Loop: Header=BB0_71 Depth=2
	@DEBUG_VALUE: vsscanf:rank <- [DW_OP_plus_uconst 20] [$sp+0]
	@DEBUG_VALUE: vsscanf:converted <- $r12
	@DEBUG_VALUE: vsscanf:flags <- $r11
	@DEBUG_VALUE: vsscanf:q <- $r10
	@DEBUG_VALUE: vsscanf:sarg <- $r8
	@DEBUG_VALUE: vsscanf:width <- [DW_OP_constu 1, DW_OP_minus, DW_OP_stack_value] $r1
	@DEBUG_VALUE: vsscanf:matchinv <- [DW_OP_plus_uconst 28] [$sp+0]
	@DEBUG_VALUE: vsscanf:range_start <- [DW_OP_plus_uconst 16] [$sp+0]
	@DEBUG_VALUE: vsscanf:ap <- [DW_OP_plus_uconst 12] [$sp+0]
	@DEBUG_VALUE: vsscanf:state <- 0
	@DEBUG_VALUE: vsscanf:bail <- 0
	.loc	1 0 0                           @ ../../../components/platform/soc/rt582/rt582_dongle/dongle/src/vsscanf.c:0:0
	subs	r1, #1
.Ltmp143:
	.loc	1 301 20 is_stmt 1              @ ../../../components/platform/soc/rt582/rt582_dongle/dongle/src/vsscanf.c:301:20
	add.w	r10, r10, #1
.Ltmp144:
	@DEBUG_VALUE: vsscanf:q <- $r10
	.loc	1 301 16 is_stmt 0              @ ../../../components/platform/soc/rt582/rt582_dongle/dongle/src/vsscanf.c:301:16
	strb	r0, [r8], #1
.Ltmp145:
	@DEBUG_VALUE: vsscanf:sarg <- $r8
	@DEBUG_VALUE: vsscanf:width <- [DW_OP_constu 1, DW_OP_minus, DW_OP_stack_value] $r1
	.loc	1 296 7 is_stmt 1               @ ../../../components/platform/soc/rt582/rt582_dongle/dongle/src/vsscanf.c:296:7
	bne	.LBB0_71
.Ltmp146:
.LBB0_73:                               @   in Loop: Header=BB0_2 Depth=1
	@DEBUG_VALUE: vsscanf:rank <- [DW_OP_plus_uconst 20] [$sp+0]
	@DEBUG_VALUE: vsscanf:converted <- $r12
	@DEBUG_VALUE: vsscanf:flags <- $r11
	@DEBUG_VALUE: vsscanf:q <- $r10
	@DEBUG_VALUE: vsscanf:sarg <- $r8
	@DEBUG_VALUE: vsscanf:width <- [DW_OP_constu 1, DW_OP_minus, DW_OP_stack_value] $r1
	@DEBUG_VALUE: vsscanf:matchinv <- [DW_OP_plus_uconst 28] [$sp+0]
	@DEBUG_VALUE: vsscanf:range_start <- [DW_OP_plus_uconst 16] [$sp+0]
	@DEBUG_VALUE: vsscanf:ap <- [DW_OP_plus_uconst 12] [$sp+0]
	@DEBUG_VALUE: vsscanf:state <- 0
	@DEBUG_VALUE: vsscanf:bail <- 0
	@DEBUG_VALUE: vsscanf:bail <- 0
	.loc	1 303 11                        @ ../../../components/platform/soc/rt582/rt582_dongle/dongle/src/vsscanf.c:303:11
	add.w	r12, r12, #1
.Ltmp147:
	.loc	1 0 11 is_stmt 0                @ ../../../components/platform/soc/rt582/rt582_dongle/dongle/src/vsscanf.c:0:11
	b	.LBB0_113
.Ltmp148:
.LBB0_74:                               @   in Loop: Header=BB0_2 Depth=1
	@DEBUG_VALUE: vsscanf:rank <- [DW_OP_plus_uconst 20] [$sp+0]
	@DEBUG_VALUE: vsscanf:converted <- $r12
	@DEBUG_VALUE: vsscanf:flags <- $r11
	@DEBUG_VALUE: vsscanf:q <- $r10
	@DEBUG_VALUE: vsscanf:sarg <- $r8
	@DEBUG_VALUE: vsscanf:width <- [DW_OP_plus_uconst 24] [$sp+0]
	@DEBUG_VALUE: vsscanf:matchinv <- [DW_OP_plus_uconst 28] [$sp+0]
	@DEBUG_VALUE: vsscanf:range_start <- [DW_OP_plus_uconst 16] [$sp+0]
	@DEBUG_VALUE: vsscanf:ap <- [DW_OP_plus_uconst 12] [$sp+0]
	@DEBUG_VALUE: vsscanf:state <- 0
	@DEBUG_VALUE: vsscanf:bail <- 0
	movs	r4, #0
.Ltmp149:
	@DEBUG_VALUE: vsscanf:sign <- 1
	@DEBUG_VALUE: vsscanf:base <- 0
	b	.LBB0_77
.Ltmp150:
.LBB0_75:                               @   in Loop: Header=BB0_2 Depth=1
	@DEBUG_VALUE: vsscanf:rank <- [DW_OP_plus_uconst 20] [$sp+0]
	@DEBUG_VALUE: vsscanf:converted <- $r12
	@DEBUG_VALUE: vsscanf:flags <- $r11
	@DEBUG_VALUE: vsscanf:q <- $r10
	@DEBUG_VALUE: vsscanf:sarg <- $r8
	@DEBUG_VALUE: vsscanf:width <- [DW_OP_plus_uconst 24] [$sp+0]
	@DEBUG_VALUE: vsscanf:matchinv <- [DW_OP_plus_uconst 28] [$sp+0]
	@DEBUG_VALUE: vsscanf:range_start <- [DW_OP_plus_uconst 16] [$sp+0]
	@DEBUG_VALUE: vsscanf:ap <- [DW_OP_plus_uconst 12] [$sp+0]
	@DEBUG_VALUE: vsscanf:state <- 0
	@DEBUG_VALUE: vsscanf:bail <- 0
	.loc	1 226 15 is_stmt 1              @ ../../../components/platform/soc/rt582/rt582_dongle/dongle/src/vsscanf.c:226:15
	ldr	r0, [sp, #8]                    @ 4-byte Reload
.Ltmp151:
	@DEBUG_VALUE: vsscanf:buffer <- $r0
	.loc	1 0 15 is_stmt 0                @ ../../../components/platform/soc/rt582/rt582_dongle/dongle/src/vsscanf.c:0:15
	ldr	r5, [sp, #20]                   @ 4-byte Reload
.Ltmp152:
	@DEBUG_VALUE: vsscanf:rank <- $r5
	@DEBUG_VALUE: vsscanf:rank <- $r5
	.loc	1 226 15                        @ ../../../components/platform/soc/rt582/rt582_dongle/dongle/src/vsscanf.c:226:15
	sub.w	r0, r10, r0
.Ltmp153:
	@DEBUG_VALUE: vsscanf:buffer <- [DW_OP_LLVM_entry_value 1] $r0
	.loc	1 226 12                        @ ../../../components/platform/soc/rt582/rt582_dongle/dongle/src/vsscanf.c:226:12
	asrs	r1, r0, #31
.Ltmp154:
	@DEBUG_VALUE: vsscanf:val <- [DW_OP_LLVM_fragment 0 32] undef
	@DEBUG_VALUE: vsscanf:val <- [DW_OP_LLVM_fragment 32 32] $r1
	.loc	1 248 18 is_stmt 1              @ ../../../components/platform/soc/rt582/rt582_dongle/dongle/src/vsscanf.c:248:18
	and	r2, r11, #1
	b	.LBB0_83
.Ltmp155:
.LBB0_76:                               @   in Loop: Header=BB0_2 Depth=1
	@DEBUG_VALUE: vsscanf:rank <- [DW_OP_plus_uconst 20] [$sp+0]
	@DEBUG_VALUE: vsscanf:converted <- $r12
	@DEBUG_VALUE: vsscanf:flags <- $r11
	@DEBUG_VALUE: vsscanf:q <- $r10
	@DEBUG_VALUE: vsscanf:sarg <- $r8
	@DEBUG_VALUE: vsscanf:width <- [DW_OP_plus_uconst 24] [$sp+0]
	@DEBUG_VALUE: vsscanf:matchinv <- [DW_OP_plus_uconst 28] [$sp+0]
	@DEBUG_VALUE: vsscanf:range_start <- [DW_OP_plus_uconst 16] [$sp+0]
	@DEBUG_VALUE: vsscanf:ap <- [DW_OP_plus_uconst 12] [$sp+0]
	@DEBUG_VALUE: vsscanf:state <- 0
	@DEBUG_VALUE: vsscanf:bail <- 0
	.loc	1 0 18 is_stmt 0                @ ../../../components/platform/soc/rt582/rt582_dongle/dongle/src/vsscanf.c:0:18
	movs	r4, #8
.Ltmp156:
	@DEBUG_VALUE: vsscanf:sign <- 0
	@DEBUG_VALUE: vsscanf:base <- 8
.LBB0_77:                               @   in Loop: Header=BB0_2 Depth=1
	@DEBUG_VALUE: vsscanf:rank <- [DW_OP_plus_uconst 20] [$sp+0]
	@DEBUG_VALUE: vsscanf:converted <- $r12
	@DEBUG_VALUE: vsscanf:flags <- $r11
	@DEBUG_VALUE: vsscanf:q <- $r10
	@DEBUG_VALUE: vsscanf:sarg <- $r8
	@DEBUG_VALUE: vsscanf:width <- [DW_OP_plus_uconst 24] [$sp+0]
	@DEBUG_VALUE: vsscanf:matchinv <- [DW_OP_plus_uconst 28] [$sp+0]
	@DEBUG_VALUE: vsscanf:range_start <- [DW_OP_plus_uconst 16] [$sp+0]
	@DEBUG_VALUE: vsscanf:ap <- [DW_OP_plus_uconst 12] [$sp+0]
	@DEBUG_VALUE: vsscanf:state <- 0
	@DEBUG_VALUE: vsscanf:bail <- 0
	ldr	r5, [sp, #20]                   @ 4-byte Reload
.Ltmp157:
	@DEBUG_VALUE: vsscanf:rank <- $r5
	@DEBUG_VALUE: vsscanf:rank <- $r5
.LBB0_78:                               @   in Loop: Header=BB0_2 Depth=1
	@DEBUG_VALUE: vsscanf:converted <- $r12
	@DEBUG_VALUE: vsscanf:flags <- $r11
	@DEBUG_VALUE: vsscanf:q <- $r10
	@DEBUG_VALUE: vsscanf:sarg <- $r8
	@DEBUG_VALUE: vsscanf:width <- [DW_OP_plus_uconst 24] [$sp+0]
	@DEBUG_VALUE: vsscanf:matchinv <- [DW_OP_plus_uconst 28] [$sp+0]
	@DEBUG_VALUE: vsscanf:range_start <- [DW_OP_plus_uconst 16] [$sp+0]
	@DEBUG_VALUE: vsscanf:ap <- [DW_OP_plus_uconst 12] [$sp+0]
	@DEBUG_VALUE: vsscanf:state <- 0
	@DEBUG_VALUE: vsscanf:bail <- 0
	@DEBUG_VALUE: vsscanf:rank <- $r5
	@DEBUG_VALUE: vsscanf:rank <- $r5
	@DEBUG_VALUE: vsscanf:base <- $r4
	@DEBUG_VALUE: skipspace:p <- $r10
	@DEBUG_LABEL: scan_int
	str.w	r12, [sp, #20]                  @ 4-byte Spill
.Ltmp158:
	@DEBUG_VALUE: vsscanf:converted <- [DW_OP_plus_uconst 20] [$sp+0]
	@DEBUG_VALUE: vsscanf:converted <- [DW_OP_plus_uconst 20] [$sp+0]
	bl	__rt_ctype_table
.Ltmp159:
	ldr	r0, [r0]
	.loc	1 58 2 is_stmt 1                @ ../../../components/platform/soc/rt582/rt582_dongle/dongle/src/vsscanf.c:58:2
	sub.w	r6, r10, #1
.Ltmp160:
	.p2align	2
.LBB0_79:                               @   Parent Loop BB0_2 Depth=1
                                        @ =>  This Inner Loop Header: Depth=2
	@DEBUG_VALUE: vsscanf:converted <- [DW_OP_plus_uconst 20] [$sp+0]
	@DEBUG_VALUE: vsscanf:flags <- $r11
	@DEBUG_VALUE: vsscanf:q <- $r10
	@DEBUG_VALUE: vsscanf:sarg <- $r8
	@DEBUG_VALUE: vsscanf:rank <- $r5
	@DEBUG_VALUE: vsscanf:base <- $r4
	@DEBUG_VALUE: vsscanf:width <- [DW_OP_plus_uconst 24] [$sp+0]
	@DEBUG_VALUE: vsscanf:matchinv <- [DW_OP_plus_uconst 28] [$sp+0]
	@DEBUG_VALUE: vsscanf:range_start <- [DW_OP_plus_uconst 16] [$sp+0]
	@DEBUG_VALUE: vsscanf:ap <- [DW_OP_plus_uconst 12] [$sp+0]
	@DEBUG_VALUE: vsscanf:state <- 0
	@DEBUG_VALUE: vsscanf:bail <- 0
	@DEBUG_VALUE: skipspace:p <- [DW_OP_plus_uconst 1, DW_OP_stack_value] $r6
	.loc	1 58 9 is_stmt 0                @ ../../../components/platform/soc/rt582/rt582_dongle/dongle/src/vsscanf.c:58:9
	ldrb	r1, [r6, #1]!
.Ltmp161:
	ldrb	r2, [r0, r1]
.Ltmp162:
	@DEBUG_VALUE: skipspace:p <- [DW_OP_plus_uconst 2, DW_OP_stack_value] undef
	.loc	1 58 2                          @ ../../../components/platform/soc/rt582/rt582_dongle/dongle/src/vsscanf.c:58:2
	lsls	r2, r2, #31
	bne	.LBB0_79
.Ltmp163:
@ %bb.80:                               @   in Loop: Header=BB0_2 Depth=1
	@DEBUG_VALUE: vsscanf:converted <- [DW_OP_plus_uconst 20] [$sp+0]
	@DEBUG_VALUE: vsscanf:flags <- $r11
	@DEBUG_VALUE: vsscanf:q <- $r10
	@DEBUG_VALUE: vsscanf:sarg <- $r8
	@DEBUG_VALUE: vsscanf:rank <- $r5
	@DEBUG_VALUE: vsscanf:base <- $r4
	@DEBUG_VALUE: vsscanf:width <- [DW_OP_plus_uconst 24] [$sp+0]
	@DEBUG_VALUE: vsscanf:matchinv <- [DW_OP_plus_uconst 28] [$sp+0]
	@DEBUG_VALUE: vsscanf:range_start <- [DW_OP_plus_uconst 16] [$sp+0]
	@DEBUG_VALUE: vsscanf:ap <- [DW_OP_plus_uconst 12] [$sp+0]
	@DEBUG_VALUE: vsscanf:state <- 0
	@DEBUG_VALUE: vsscanf:bail <- 0
	@DEBUG_VALUE: vsscanf:q <- undef
	.loc	1 231 10 is_stmt 1              @ ../../../components/platform/soc/rt582/rt582_dongle/dongle/src/vsscanf.c:231:10
	cmp	r1, #0
	beq.w	.LBB0_126
.Ltmp164:
@ %bb.81:                               @   in Loop: Header=BB0_2 Depth=1
	@DEBUG_VALUE: vsscanf:converted <- [DW_OP_plus_uconst 20] [$sp+0]
	@DEBUG_VALUE: vsscanf:flags <- $r11
	@DEBUG_VALUE: vsscanf:sarg <- $r8
	@DEBUG_VALUE: vsscanf:rank <- $r5
	@DEBUG_VALUE: vsscanf:base <- $r4
	@DEBUG_VALUE: vsscanf:width <- [DW_OP_plus_uconst 24] [$sp+0]
	@DEBUG_VALUE: vsscanf:matchinv <- [DW_OP_plus_uconst 28] [$sp+0]
	@DEBUG_VALUE: vsscanf:range_start <- [DW_OP_plus_uconst 16] [$sp+0]
	@DEBUG_VALUE: vsscanf:ap <- [DW_OP_plus_uconst 12] [$sp+0]
	@DEBUG_VALUE: vsscanf:state <- 0
	@DEBUG_VALUE: vsscanf:bail <- 0
	@DEBUG_VALUE: vsscanf:qq <- [DW_OP_plus_uconst 64, DW_OP_deref] $sp
	.loc	1 236 10                        @ ../../../components/platform/soc/rt582/rt582_dongle/dongle/src/vsscanf.c:236:10
	ldr	r3, [sp, #24]                   @ 4-byte Reload
	mov	r0, r6
	add	r1, sp, #64
	mov	r2, r4
	bl	strntoumax
.Ltmp165:
	.loc	1 238 10                        @ ../../../components/platform/soc/rt582/rt582_dongle/dongle/src/vsscanf.c:238:10
	ldr.w	r10, [sp, #64]
.Ltmp166:
	@DEBUG_VALUE: vsscanf:qq <- $r10
	.loc	1 238 10 is_stmt 0              @ ../../../components/platform/soc/rt582/rt582_dongle/dongle/src/vsscanf.c:238:10
	cmp	r10, r6
.Ltmp167:
	@DEBUG_VALUE: vsscanf:val <- undef
	beq.w	.LBB0_127
.Ltmp168:
@ %bb.82:                               @   in Loop: Header=BB0_2 Depth=1
	@DEBUG_VALUE: vsscanf:converted <- [DW_OP_plus_uconst 20] [$sp+0]
	@DEBUG_VALUE: vsscanf:flags <- $r11
	@DEBUG_VALUE: vsscanf:qq <- $r10
	@DEBUG_VALUE: vsscanf:sarg <- $r8
	@DEBUG_VALUE: vsscanf:rank <- $r5
	@DEBUG_VALUE: vsscanf:base <- $r4
	@DEBUG_VALUE: vsscanf:width <- [DW_OP_plus_uconst 24] [$sp+0]
	@DEBUG_VALUE: vsscanf:matchinv <- [DW_OP_plus_uconst 28] [$sp+0]
	@DEBUG_VALUE: vsscanf:range_start <- [DW_OP_plus_uconst 16] [$sp+0]
	@DEBUG_VALUE: vsscanf:ap <- [DW_OP_plus_uconst 12] [$sp+0]
	@DEBUG_VALUE: vsscanf:state <- 0
	@DEBUG_VALUE: vsscanf:bail <- 0
	@DEBUG_VALUE: vsscanf:q <- $r10
	.loc	1 243 18 is_stmt 1              @ ../../../components/platform/soc/rt582/rt582_dongle/dongle/src/vsscanf.c:243:18
	and	r2, r11, #1
	ldr.w	r12, [sp, #20]                  @ 4-byte Reload
.Ltmp169:
	@DEBUG_VALUE: vsscanf:converted <- $r12
	@DEBUG_VALUE: vsscanf:converted <- $r12
	.loc	1 243 10 is_stmt 0              @ ../../../components/platform/soc/rt582/rt582_dongle/dongle/src/vsscanf.c:243:10
	eor	r3, r2, #1
	add	r12, r3
.Ltmp170:
	.loc	1 0 10                          @ ../../../components/platform/soc/rt582/rt582_dongle/dongle/src/vsscanf.c:0:10
	mov.w	lr, #1
.Ltmp171:
.LBB0_83:                               @   in Loop: Header=BB0_2 Depth=1
	@DEBUG_VALUE: vsscanf:flags <- $r11
	@DEBUG_VALUE: vsscanf:q <- $r10
	@DEBUG_VALUE: vsscanf:sarg <- $r8
	@DEBUG_VALUE: vsscanf:rank <- $r5
	@DEBUG_VALUE: vsscanf:width <- [DW_OP_plus_uconst 24] [$sp+0]
	@DEBUG_VALUE: vsscanf:matchinv <- [DW_OP_plus_uconst 28] [$sp+0]
	@DEBUG_VALUE: vsscanf:range_start <- [DW_OP_plus_uconst 16] [$sp+0]
	@DEBUG_VALUE: vsscanf:ap <- [DW_OP_plus_uconst 12] [$sp+0]
	@DEBUG_VALUE: vsscanf:state <- 0
	@DEBUG_VALUE: vsscanf:bail <- 0
	ldr	r4, [sp, #16]                   @ 4-byte Reload
	@DEBUG_VALUE: vsscanf:q <- $r10
	@DEBUG_VALUE: vsscanf:rank <- $r5
.Ltmp172:
	@DEBUG_VALUE: vsscanf:converted <- $r12
	@DEBUG_VALUE: vsscanf:val <- [DW_OP_LLVM_fragment 32 32] $r1
	@DEBUG_VALUE: vsscanf:val <- [DW_OP_LLVM_fragment 0 32] $r0
	@DEBUG_LABEL: set_integer
	.loc	1 248 10 is_stmt 1              @ ../../../components/platform/soc/rt582/rt582_dongle/dongle/src/vsscanf.c:248:10
	str	r4, [sp, #16]                   @ 4-byte Spill
	cbz	r2, .LBB0_86
.Ltmp173:
.LBB0_84:                               @   in Loop: Header=BB0_2 Depth=1
	@DEBUG_VALUE: vsscanf:converted <- $r12
	@DEBUG_VALUE: vsscanf:flags <- $r11
	@DEBUG_VALUE: vsscanf:q <- $r10
	@DEBUG_VALUE: vsscanf:sarg <- $r8
	@DEBUG_VALUE: vsscanf:rank <- $r5
	@DEBUG_VALUE: vsscanf:val <- [DW_OP_LLVM_fragment 0 32] $r0
	@DEBUG_VALUE: vsscanf:width <- [DW_OP_plus_uconst 24] [$sp+0]
	@DEBUG_VALUE: vsscanf:matchinv <- [DW_OP_plus_uconst 28] [$sp+0]
	@DEBUG_VALUE: vsscanf:range_start <- [DW_OP_plus_uconst 16] [$sp+0]
	@DEBUG_VALUE: vsscanf:ap <- [DW_OP_plus_uconst 12] [$sp+0]
	@DEBUG_VALUE: vsscanf:state <- 0
	@DEBUG_VALUE: vsscanf:bail <- 0
	.loc	1 0 10 is_stmt 0                @ ../../../components/platform/soc/rt582/rt582_dongle/dongle/src/vsscanf.c:0:10
	str	r5, [sp, #20]                   @ 4-byte Spill
.Ltmp174:
	@DEBUG_VALUE: vsscanf:rank <- [DW_OP_plus_uconst 20] [$sp+0]
	@DEBUG_VALUE: vsscanf:rank <- [DW_OP_plus_uconst 20] [$sp+0]
.LBB0_85:                               @   in Loop: Header=BB0_2 Depth=1
	@DEBUG_VALUE: vsscanf:converted <- $r12
	@DEBUG_VALUE: vsscanf:flags <- $r11
	@DEBUG_VALUE: vsscanf:q <- $r10
	@DEBUG_VALUE: vsscanf:sarg <- $r8
	@DEBUG_VALUE: vsscanf:width <- [DW_OP_plus_uconst 24] [$sp+0]
	@DEBUG_VALUE: vsscanf:matchinv <- [DW_OP_plus_uconst 28] [$sp+0]
	@DEBUG_VALUE: vsscanf:range_start <- [DW_OP_plus_uconst 16] [$sp+0]
	@DEBUG_VALUE: vsscanf:ap <- [DW_OP_plus_uconst 12] [$sp+0]
	@DEBUG_VALUE: vsscanf:state <- 0
	@DEBUG_VALUE: vsscanf:bail <- 0
	movs	r5, #0
	b	.LBB0_7
.Ltmp175:
.LBB0_86:                               @   in Loop: Header=BB0_2 Depth=1
	@DEBUG_VALUE: vsscanf:converted <- $r12
	@DEBUG_VALUE: vsscanf:flags <- $r11
	@DEBUG_VALUE: vsscanf:q <- $r10
	@DEBUG_VALUE: vsscanf:sarg <- $r8
	@DEBUG_VALUE: vsscanf:rank <- $r5
	@DEBUG_VALUE: vsscanf:val <- [DW_OP_LLVM_fragment 32 32] $r1
	@DEBUG_VALUE: vsscanf:val <- [DW_OP_LLVM_fragment 0 32] $r0
	@DEBUG_VALUE: vsscanf:width <- [DW_OP_plus_uconst 24] [$sp+0]
	@DEBUG_VALUE: vsscanf:matchinv <- [DW_OP_plus_uconst 28] [$sp+0]
	@DEBUG_VALUE: vsscanf:range_start <- [DW_OP_plus_uconst 16] [$sp+0]
	@DEBUG_VALUE: vsscanf:ap <- [DW_OP_plus_uconst 12] [$sp+0]
	@DEBUG_VALUE: vsscanf:state <- 0
	@DEBUG_VALUE: vsscanf:bail <- 0
	.loc	1 249 7 is_stmt 1               @ ../../../components/platform/soc/rt582/rt582_dongle/dongle/src/vsscanf.c:249:7
	adds	r2, r5, #2
	cmp	r2, #4
	bhi	.LBB0_90
.Ltmp176:
@ %bb.87:                               @   in Loop: Header=BB0_2 Depth=1
	@DEBUG_VALUE: vsscanf:converted <- $r12
	@DEBUG_VALUE: vsscanf:flags <- $r11
	@DEBUG_VALUE: vsscanf:q <- $r10
	@DEBUG_VALUE: vsscanf:sarg <- $r8
	@DEBUG_VALUE: vsscanf:rank <- $r5
	@DEBUG_VALUE: vsscanf:val <- [DW_OP_LLVM_fragment 32 32] $r1
	@DEBUG_VALUE: vsscanf:val <- [DW_OP_LLVM_fragment 0 32] $r0
	@DEBUG_VALUE: vsscanf:width <- [DW_OP_plus_uconst 24] [$sp+0]
	@DEBUG_VALUE: vsscanf:matchinv <- [DW_OP_plus_uconst 28] [$sp+0]
	@DEBUG_VALUE: vsscanf:range_start <- [DW_OP_plus_uconst 16] [$sp+0]
	@DEBUG_VALUE: vsscanf:ap <- [DW_OP_plus_uconst 12] [$sp+0]
	@DEBUG_VALUE: vsscanf:state <- 0
	@DEBUG_VALUE: vsscanf:bail <- 0
	.loc	1 0 7 is_stmt 0                 @ ../../../components/platform/soc/rt582/rt582_dongle/dongle/src/vsscanf.c:0:7
.LCPI0_3:
	tbb	[pc, r2]
.Ltmp177:
@ %bb.88:
.LJTI0_3:
	.byte	(.LBB0_89-(.LCPI0_3+4))/2
	.byte	(.LBB0_99-(.LCPI0_3+4))/2
	.byte	(.LBB0_100-(.LCPI0_3+4))/2
	.byte	(.LBB0_101-(.LCPI0_3+4))/2
	.byte	(.LBB0_102-(.LCPI0_3+4))/2
	.p2align	1
.LBB0_89:                               @   in Loop: Header=BB0_2 Depth=1
.Ltmp178:
	@DEBUG_VALUE: vsscanf:converted <- $r12
	@DEBUG_VALUE: vsscanf:flags <- $r11
	@DEBUG_VALUE: vsscanf:q <- $r10
	@DEBUG_VALUE: vsscanf:sarg <- $r8
	@DEBUG_VALUE: vsscanf:rank <- $r5
	@DEBUG_VALUE: vsscanf:val <- [DW_OP_LLVM_fragment 32 32] $r1
	@DEBUG_VALUE: vsscanf:val <- [DW_OP_LLVM_fragment 0 32] $r0
	@DEBUG_VALUE: vsscanf:width <- [DW_OP_plus_uconst 24] [$sp+0]
	@DEBUG_VALUE: vsscanf:matchinv <- [DW_OP_plus_uconst 28] [$sp+0]
	@DEBUG_VALUE: vsscanf:range_start <- [DW_OP_plus_uconst 16] [$sp+0]
	@DEBUG_VALUE: vsscanf:ap <- [DW_OP_plus_uconst 12] [$sp+0]
	@DEBUG_VALUE: vsscanf:state <- 0
	@DEBUG_VALUE: vsscanf:bail <- 0
	.loc	1 251 9 is_stmt 1               @ ../../../components/platform/soc/rt582/rt582_dongle/dongle/src/vsscanf.c:251:9
	ldr	r2, [sp, #12]                   @ 4-byte Reload
	movs	r5, #0
.Ltmp179:
	ldr	r1, [r2], #4
.Ltmp180:
	@DEBUG_VALUE: vsscanf:ap <- $r2
	.loc	1 253 9                         @ ../../../components/platform/soc/rt582/rt582_dongle/dongle/src/vsscanf.c:253:9
	strb	r0, [r1]
	mvn	r0, #1
.Ltmp181:
	str	r2, [sp, #12]                   @ 4-byte Spill
.Ltmp182:
	@DEBUG_VALUE: vsscanf:ap <- [DW_OP_plus_uconst 12] [$sp+0]
	@DEBUG_VALUE: vsscanf:ap <- [DW_OP_plus_uconst 12] [$sp+0]
	@DEBUG_VALUE: vsscanf:ap <- [DW_OP_plus_uconst 12] [$sp+0]
	.loc	1 0 9 is_stmt 0                 @ ../../../components/platform/soc/rt582/rt582_dongle/dongle/src/vsscanf.c:0:9
	b	.LBB0_103
.Ltmp183:
.LBB0_90:                               @   in Loop: Header=BB0_2 Depth=1
	@DEBUG_VALUE: vsscanf:converted <- $r12
	@DEBUG_VALUE: vsscanf:flags <- $r11
	@DEBUG_VALUE: vsscanf:q <- $r10
	@DEBUG_VALUE: vsscanf:sarg <- $r8
	@DEBUG_VALUE: vsscanf:rank <- $r5
	@DEBUG_VALUE: vsscanf:val <- [DW_OP_LLVM_fragment 32 32] $r1
	@DEBUG_VALUE: vsscanf:val <- [DW_OP_LLVM_fragment 0 32] $r0
	@DEBUG_VALUE: vsscanf:width <- [DW_OP_plus_uconst 24] [$sp+0]
	@DEBUG_VALUE: vsscanf:matchinv <- [DW_OP_plus_uconst 28] [$sp+0]
	@DEBUG_VALUE: vsscanf:range_start <- [DW_OP_plus_uconst 16] [$sp+0]
	@DEBUG_VALUE: vsscanf:ap <- [DW_OP_plus_uconst 12] [$sp+0]
	@DEBUG_VALUE: vsscanf:state <- 0
	@DEBUG_VALUE: vsscanf:bail <- 0
	.loc	1 249 7 is_stmt 1               @ ../../../components/platform/soc/rt582/rt582_dongle/dongle/src/vsscanf.c:249:7
	mvn	r1, #-2147483648
.Ltmp184:
	cmp	r5, r1
	bne	.LBB0_84
.Ltmp185:
@ %bb.91:                               @   in Loop: Header=BB0_2 Depth=1
	@DEBUG_VALUE: vsscanf:converted <- $r12
	@DEBUG_VALUE: vsscanf:flags <- $r11
	@DEBUG_VALUE: vsscanf:q <- $r10
	@DEBUG_VALUE: vsscanf:sarg <- $r8
	@DEBUG_VALUE: vsscanf:rank <- $r5
	@DEBUG_VALUE: vsscanf:val <- [DW_OP_LLVM_fragment 0 32] $r0
	@DEBUG_VALUE: vsscanf:width <- [DW_OP_plus_uconst 24] [$sp+0]
	@DEBUG_VALUE: vsscanf:matchinv <- [DW_OP_plus_uconst 28] [$sp+0]
	@DEBUG_VALUE: vsscanf:range_start <- [DW_OP_plus_uconst 16] [$sp+0]
	@DEBUG_VALUE: vsscanf:ap <- [DW_OP_plus_uconst 12] [$sp+0]
	@DEBUG_VALUE: vsscanf:state <- 0
	@DEBUG_VALUE: vsscanf:bail <- 0
	.loc	1 276 9                         @ ../../../components/platform/soc/rt582/rt582_dongle/dongle/src/vsscanf.c:276:9
	ldr	r2, [sp, #12]                   @ 4-byte Reload
	movs	r5, #0
.Ltmp186:
	ldr	r1, [r2], #4
.Ltmp187:
	@DEBUG_VALUE: vsscanf:ap <- $r2
	.loc	1 276 29 is_stmt 0              @ ../../../components/platform/soc/rt582/rt582_dongle/dongle/src/vsscanf.c:276:29
	str	r2, [sp, #12]                   @ 4-byte Spill
.Ltmp188:
	@DEBUG_VALUE: vsscanf:ap <- [DW_OP_plus_uconst 12] [$sp+0]
	@DEBUG_VALUE: vsscanf:ap <- [DW_OP_plus_uconst 12] [$sp+0]
	@DEBUG_VALUE: vsscanf:ap <- [DW_OP_plus_uconst 12] [$sp+0]
	str	r0, [r1]
	mvn	r0, #-2147483648
.Ltmp189:
	.loc	1 0 29                          @ ../../../components/platform/soc/rt582/rt582_dongle/dongle/src/vsscanf.c:0:29
	b	.LBB0_103
.Ltmp190:
.LBB0_92:                               @   in Loop: Header=BB0_2 Depth=1
	@DEBUG_VALUE: vsscanf:rank <- [DW_OP_plus_uconst 20] [$sp+0]
	@DEBUG_VALUE: vsscanf:converted <- $r12
	@DEBUG_VALUE: vsscanf:flags <- $r11
	@DEBUG_VALUE: vsscanf:q <- $r10
	@DEBUG_VALUE: vsscanf:sarg <- $r8
	@DEBUG_VALUE: vsscanf:width <- [DW_OP_plus_uconst 24] [$sp+0]
	@DEBUG_VALUE: vsscanf:matchinv <- [DW_OP_plus_uconst 28] [$sp+0]
	@DEBUG_VALUE: vsscanf:range_start <- [DW_OP_plus_uconst 16] [$sp+0]
	@DEBUG_VALUE: vsscanf:ap <- [DW_OP_plus_uconst 12] [$sp+0]
	@DEBUG_VALUE: vsscanf:state <- 0
	@DEBUG_VALUE: vsscanf:bail <- 0
	@DEBUG_VALUE: vsscanf:uc <- 1
	.loc	1 310 10 is_stmt 1              @ ../../../components/platform/soc/rt582/rt582_dongle/dongle/src/vsscanf.c:310:10
	lsls.w	r0, r11, #31
	bne	.LBB0_107
.Ltmp191:
@ %bb.93:                               @   in Loop: Header=BB0_2 Depth=1
	@DEBUG_VALUE: vsscanf:rank <- [DW_OP_plus_uconst 20] [$sp+0]
	@DEBUG_VALUE: vsscanf:converted <- $r12
	@DEBUG_VALUE: vsscanf:flags <- $r11
	@DEBUG_VALUE: vsscanf:q <- $r10
	@DEBUG_VALUE: vsscanf:sarg <- $r8
	@DEBUG_VALUE: vsscanf:width <- [DW_OP_plus_uconst 24] [$sp+0]
	@DEBUG_VALUE: vsscanf:matchinv <- [DW_OP_plus_uconst 28] [$sp+0]
	@DEBUG_VALUE: vsscanf:range_start <- [DW_OP_plus_uconst 16] [$sp+0]
	@DEBUG_VALUE: vsscanf:ap <- [DW_OP_plus_uconst 12] [$sp+0]
	@DEBUG_VALUE: vsscanf:uc <- 1
	@DEBUG_VALUE: vsscanf:state <- 0
	@DEBUG_VALUE: vsscanf:bail <- 0
	.loc	1 317 19                        @ ../../../components/platform/soc/rt582/rt582_dongle/dongle/src/vsscanf.c:317:19
	ldr	r0, [sp, #12]                   @ 4-byte Reload
	ldr	r8, [r0], #4
.Ltmp192:
	@DEBUG_VALUE: sp <- $r8
	@DEBUG_VALUE: vsscanf:uc <- undef
	@DEBUG_VALUE: vsscanf:sarg <- $r8
	@DEBUG_VALUE: vsscanf:width <- [DW_OP_plus_uconst 24, DW_OP_deref_size 4, DW_OP_constu 1, DW_OP_minus, DW_OP_stack_value] $sp
	@DEBUG_VALUE: vsscanf:q <- $r10
	@DEBUG_VALUE: vsscanf:ap <- $r0
	.loc	1 318 22                        @ ../../../components/platform/soc/rt582/rt582_dongle/dongle/src/vsscanf.c:318:22
	str	r0, [sp, #12]                   @ 4-byte Spill
.Ltmp193:
	@DEBUG_VALUE: vsscanf:ap <- [DW_OP_plus_uconst 12] [$sp+0]
	@DEBUG_VALUE: vsscanf:ap <- [DW_OP_plus_uconst 12] [$sp+0]
	@DEBUG_VALUE: vsscanf:ap <- [DW_OP_plus_uconst 12] [$sp+0]
	.loc	1 0 22 is_stmt 0                @ ../../../components/platform/soc/rt582/rt582_dongle/dongle/src/vsscanf.c:0:22
	ldr	r0, [sp, #24]                   @ 4-byte Reload
.Ltmp194:
	@DEBUG_VALUE: vsscanf:width <- [DW_OP_constu 1, DW_OP_minus, DW_OP_stack_value] $r0
	@DEBUG_VALUE: vsscanf:width <- [DW_OP_constu 1, DW_OP_minus, DW_OP_stack_value] $r0
	.loc	1 318 22                        @ ../../../components/platform/soc/rt582/rt582_dongle/dongle/src/vsscanf.c:318:22
	cmp	r0, #0
	beq	.LBB0_113
.Ltmp195:
@ %bb.94:                               @   in Loop: Header=BB0_2 Depth=1
	@DEBUG_VALUE: vsscanf:rank <- [DW_OP_plus_uconst 20] [$sp+0]
	@DEBUG_VALUE: vsscanf:converted <- $r12
	@DEBUG_VALUE: vsscanf:flags <- $r11
	@DEBUG_VALUE: vsscanf:q <- $r10
	@DEBUG_VALUE: sp <- $r8
	@DEBUG_VALUE: vsscanf:sarg <- $r8
	@DEBUG_VALUE: vsscanf:width <- [DW_OP_constu 1, DW_OP_minus, DW_OP_stack_value] $r0
	@DEBUG_VALUE: vsscanf:matchinv <- [DW_OP_plus_uconst 28] [$sp+0]
	@DEBUG_VALUE: vsscanf:range_start <- [DW_OP_plus_uconst 16] [$sp+0]
	@DEBUG_VALUE: vsscanf:ap <- [DW_OP_plus_uconst 12] [$sp+0]
	@DEBUG_VALUE: vsscanf:state <- 0
	@DEBUG_VALUE: vsscanf:bail <- 0
	.loc	1 0 22                          @ ../../../components/platform/soc/rt582/rt582_dongle/dongle/src/vsscanf.c:0:22
	mov	r5, r12
.Ltmp196:
	@DEBUG_VALUE: vsscanf:converted <- $r5
	@DEBUG_VALUE: vsscanf:converted <- $r5
	.loc	1 318 7                         @ ../../../components/platform/soc/rt582/rt582_dongle/dongle/src/vsscanf.c:318:7
	subs	r0, #1
.Ltmp197:
	.loc	1 0 7                           @ ../../../components/platform/soc/rt582/rt582_dongle/dongle/src/vsscanf.c:0:7
	movs	r4, #0
	str	r0, [sp, #24]                   @ 4-byte Spill
.Ltmp198:
.LBB0_95:                               @   Parent Loop BB0_2 Depth=1
                                        @ =>  This Inner Loop Header: Depth=2
	@DEBUG_VALUE: vsscanf:rank <- [DW_OP_plus_uconst 20] [$sp+0]
	@DEBUG_VALUE: vsscanf:flags <- $r11
	@DEBUG_VALUE: vsscanf:sarg <- $r8
	@DEBUG_VALUE: vsscanf:converted <- $r5
	@DEBUG_VALUE: vsscanf:matchinv <- [DW_OP_plus_uconst 28] [$sp+0]
	@DEBUG_VALUE: vsscanf:range_start <- [DW_OP_plus_uconst 16] [$sp+0]
	@DEBUG_VALUE: vsscanf:ap <- [DW_OP_plus_uconst 12] [$sp+0]
	@DEBUG_VALUE: vsscanf:state <- 0
	@DEBUG_VALUE: vsscanf:bail <- 0
	@DEBUG_VALUE: vsscanf:q <- undef
	@DEBUG_VALUE: sp <- undef
	.loc	1 318 31                        @ ../../../components/platform/soc/rt582/rt582_dongle/dongle/src/vsscanf.c:318:31
	ldrb.w	r6, [r10, r4]
.Ltmp199:
	@DEBUG_VALUE: vsscanf:uc <- undef
	.loc	1 318 35                        @ ../../../components/platform/soc/rt582/rt582_dongle/dongle/src/vsscanf.c:318:35
	cmp	r6, #0
	beq.w	.LBB0_130
.Ltmp200:
@ %bb.96:                               @   in Loop: Header=BB0_95 Depth=2
	@DEBUG_VALUE: vsscanf:rank <- [DW_OP_plus_uconst 20] [$sp+0]
	@DEBUG_VALUE: vsscanf:flags <- $r11
	@DEBUG_VALUE: vsscanf:sarg <- $r8
	@DEBUG_VALUE: vsscanf:converted <- $r5
	@DEBUG_VALUE: vsscanf:matchinv <- [DW_OP_plus_uconst 28] [$sp+0]
	@DEBUG_VALUE: vsscanf:range_start <- [DW_OP_plus_uconst 16] [$sp+0]
	@DEBUG_VALUE: vsscanf:ap <- [DW_OP_plus_uconst 12] [$sp+0]
	@DEBUG_VALUE: vsscanf:state <- 0
	@DEBUG_VALUE: vsscanf:bail <- 0
	.loc	1 319 15 is_stmt 1              @ ../../../components/platform/soc/rt582/rt582_dongle/dongle/src/vsscanf.c:319:15
	bl	__rt_ctype_table
.Ltmp201:
	ldr	r0, [r0]
	ldrb	r0, [r0, r6]
	.loc	1 318 7                         @ ../../../components/platform/soc/rt582/rt582_dongle/dongle/src/vsscanf.c:318:7
	lsls	r0, r0, #31
	bne	.LBB0_117
.Ltmp202:
@ %bb.97:                               @   in Loop: Header=BB0_95 Depth=2
	@DEBUG_VALUE: vsscanf:rank <- [DW_OP_plus_uconst 20] [$sp+0]
	@DEBUG_VALUE: vsscanf:flags <- $r11
	@DEBUG_VALUE: vsscanf:sarg <- $r8
	@DEBUG_VALUE: vsscanf:converted <- $r5
	@DEBUG_VALUE: vsscanf:matchinv <- [DW_OP_plus_uconst 28] [$sp+0]
	@DEBUG_VALUE: vsscanf:range_start <- [DW_OP_plus_uconst 16] [$sp+0]
	@DEBUG_VALUE: vsscanf:ap <- [DW_OP_plus_uconst 12] [$sp+0]
	@DEBUG_VALUE: vsscanf:state <- 0
	@DEBUG_VALUE: vsscanf:bail <- 0
	@DEBUG_VALUE: sp <- [DW_OP_plus_uconst 1, DW_OP_stack_value] undef
	.loc	1 0 7 is_stmt 0                 @ ../../../components/platform/soc/rt582/rt582_dongle/dongle/src/vsscanf.c:0:7
	ldr	r0, [sp, #24]                   @ 4-byte Reload
.Ltmp203:
	@DEBUG_VALUE: vsscanf:width <- [DW_OP_constu 1, DW_OP_minus, DW_OP_stack_value] $r0
	.loc	1 320 14 is_stmt 1              @ ../../../components/platform/soc/rt582/rt582_dongle/dongle/src/vsscanf.c:320:14
	strb.w	r6, [r8, r4]
.Ltmp204:
	@DEBUG_VALUE: vsscanf:uc <- undef
	@DEBUG_VALUE: vsscanf:width <- [DW_OP_plus_uconst 24, DW_OP_deref_size 4, DW_OP_constu 1, DW_OP_minus, DW_OP_stack_value] $sp
	@DEBUG_VALUE: vsscanf:q <- [DW_OP_plus_uconst 1, DW_OP_stack_value] undef
	.loc	1 318 19                        @ ../../../components/platform/soc/rt582/rt582_dongle/dongle/src/vsscanf.c:318:19
	subs	r0, #1
	str	r0, [sp, #24]                   @ 4-byte Spill
	.loc	1 318 22 is_stmt 0              @ ../../../components/platform/soc/rt582/rt582_dongle/dongle/src/vsscanf.c:318:22
	adds	r0, #1
	.loc	1 318 19                        @ ../../../components/platform/soc/rt582/rt582_dongle/dongle/src/vsscanf.c:318:19
	add.w	r4, r4, #1
	mov.w	lr, #1
	.loc	1 318 22                        @ ../../../components/platform/soc/rt582/rt582_dongle/dongle/src/vsscanf.c:318:22
	bne	.LBB0_95
.Ltmp205:
@ %bb.98:                               @   in Loop: Header=BB0_2 Depth=1
	@DEBUG_VALUE: vsscanf:rank <- [DW_OP_plus_uconst 20] [$sp+0]
	@DEBUG_VALUE: vsscanf:flags <- $r11
	@DEBUG_VALUE: vsscanf:sarg <- $r8
	@DEBUG_VALUE: vsscanf:converted <- $r5
	@DEBUG_VALUE: vsscanf:width <- [DW_OP_plus_uconst 24, DW_OP_deref_size 4, DW_OP_constu 1, DW_OP_minus, DW_OP_stack_value] $sp
	@DEBUG_VALUE: vsscanf:matchinv <- [DW_OP_plus_uconst 28] [$sp+0]
	@DEBUG_VALUE: vsscanf:range_start <- [DW_OP_plus_uconst 16] [$sp+0]
	@DEBUG_VALUE: vsscanf:ap <- [DW_OP_plus_uconst 12] [$sp+0]
	@DEBUG_VALUE: vsscanf:state <- 0
	@DEBUG_VALUE: vsscanf:bail <- 0
	.loc	1 0 22                          @ ../../../components/platform/soc/rt582/rt582_dongle/dongle/src/vsscanf.c:0:22
	mov.w	r0, #-1
.Ltmp206:
	.loc	1 323 16 is_stmt 1              @ ../../../components/platform/soc/rt582/rt582_dongle/dongle/src/vsscanf.c:323:16
	add.w	r1, r8, r4
	add	r10, r4
	str	r0, [sp, #24]                   @ 4-byte Spill
	b	.LBB0_118
.Ltmp207:
.LBB0_99:                               @   in Loop: Header=BB0_2 Depth=1
	@DEBUG_VALUE: vsscanf:converted <- $r12
	@DEBUG_VALUE: vsscanf:flags <- $r11
	@DEBUG_VALUE: vsscanf:q <- $r10
	@DEBUG_VALUE: vsscanf:sarg <- $r8
	@DEBUG_VALUE: vsscanf:rank <- $r5
	@DEBUG_VALUE: vsscanf:val <- [DW_OP_LLVM_fragment 32 32] $r1
	@DEBUG_VALUE: vsscanf:val <- [DW_OP_LLVM_fragment 0 32] $r0
	@DEBUG_VALUE: vsscanf:width <- [DW_OP_plus_uconst 24] [$sp+0]
	@DEBUG_VALUE: vsscanf:matchinv <- [DW_OP_plus_uconst 28] [$sp+0]
	@DEBUG_VALUE: vsscanf:range_start <- [DW_OP_plus_uconst 16] [$sp+0]
	@DEBUG_VALUE: vsscanf:ap <- [DW_OP_plus_uconst 12] [$sp+0]
	@DEBUG_VALUE: vsscanf:state <- 0
	@DEBUG_VALUE: vsscanf:bail <- 0
	.loc	1 256 9                         @ ../../../components/platform/soc/rt582/rt582_dongle/dongle/src/vsscanf.c:256:9
	ldr	r2, [sp, #12]                   @ 4-byte Reload
	movs	r5, #0
.Ltmp208:
	ldr	r1, [r2], #4
.Ltmp209:
	@DEBUG_VALUE: vsscanf:ap <- $r2
	.loc	1 258 12                        @ ../../../components/platform/soc/rt582/rt582_dongle/dongle/src/vsscanf.c:258:12
	str	r2, [sp, #12]                   @ 4-byte Spill
.Ltmp210:
	@DEBUG_VALUE: vsscanf:ap <- [DW_OP_plus_uconst 12] [$sp+0]
	@DEBUG_VALUE: vsscanf:ap <- [DW_OP_plus_uconst 12] [$sp+0]
	@DEBUG_VALUE: vsscanf:ap <- [DW_OP_plus_uconst 12] [$sp+0]
	strh	r0, [r1]
	mov.w	r0, #-1
.Ltmp211:
	.loc	1 0 12 is_stmt 0                @ ../../../components/platform/soc/rt582/rt582_dongle/dongle/src/vsscanf.c:0:12
	b	.LBB0_103
.Ltmp212:
.LBB0_100:                              @   in Loop: Header=BB0_2 Depth=1
	@DEBUG_VALUE: vsscanf:converted <- $r12
	@DEBUG_VALUE: vsscanf:flags <- $r11
	@DEBUG_VALUE: vsscanf:q <- $r10
	@DEBUG_VALUE: vsscanf:sarg <- $r8
	@DEBUG_VALUE: vsscanf:rank <- $r5
	@DEBUG_VALUE: vsscanf:val <- [DW_OP_LLVM_fragment 32 32] $r1
	@DEBUG_VALUE: vsscanf:val <- [DW_OP_LLVM_fragment 0 32] $r0
	@DEBUG_VALUE: vsscanf:width <- [DW_OP_plus_uconst 24] [$sp+0]
	@DEBUG_VALUE: vsscanf:matchinv <- [DW_OP_plus_uconst 28] [$sp+0]
	@DEBUG_VALUE: vsscanf:range_start <- [DW_OP_plus_uconst 16] [$sp+0]
	@DEBUG_VALUE: vsscanf:ap <- [DW_OP_plus_uconst 12] [$sp+0]
	@DEBUG_VALUE: vsscanf:state <- 0
	@DEBUG_VALUE: vsscanf:bail <- 0
	.loc	1 261 9 is_stmt 1               @ ../../../components/platform/soc/rt582/rt582_dongle/dongle/src/vsscanf.c:261:9
	ldr	r2, [sp, #12]                   @ 4-byte Reload
	ldr	r1, [r2], #4
.Ltmp213:
	@DEBUG_VALUE: vsscanf:ap <- $r2
	.loc	1 263 12                        @ ../../../components/platform/soc/rt582/rt582_dongle/dongle/src/vsscanf.c:263:12
	str	r0, [r1]
	movs	r0, #0
.Ltmp214:
	str	r2, [sp, #12]                   @ 4-byte Spill
.Ltmp215:
	@DEBUG_VALUE: vsscanf:ap <- [DW_OP_plus_uconst 12] [$sp+0]
	@DEBUG_VALUE: vsscanf:ap <- [DW_OP_plus_uconst 12] [$sp+0]
	@DEBUG_VALUE: vsscanf:ap <- [DW_OP_plus_uconst 12] [$sp+0]
	.loc	1 0 0 is_stmt 0                 @ ../../../components/platform/soc/rt582/rt582_dongle/dongle/src/vsscanf.c:0:0
	str	r0, [sp, #20]                   @ 4-byte Spill
	b	.LBB0_85
.Ltmp216:
.LBB0_101:                              @   in Loop: Header=BB0_2 Depth=1
	@DEBUG_VALUE: vsscanf:converted <- $r12
	@DEBUG_VALUE: vsscanf:flags <- $r11
	@DEBUG_VALUE: vsscanf:q <- $r10
	@DEBUG_VALUE: vsscanf:sarg <- $r8
	@DEBUG_VALUE: vsscanf:rank <- $r5
	@DEBUG_VALUE: vsscanf:val <- [DW_OP_LLVM_fragment 32 32] $r1
	@DEBUG_VALUE: vsscanf:val <- [DW_OP_LLVM_fragment 0 32] $r0
	@DEBUG_VALUE: vsscanf:width <- [DW_OP_plus_uconst 24] [$sp+0]
	@DEBUG_VALUE: vsscanf:matchinv <- [DW_OP_plus_uconst 28] [$sp+0]
	@DEBUG_VALUE: vsscanf:range_start <- [DW_OP_plus_uconst 16] [$sp+0]
	@DEBUG_VALUE: vsscanf:ap <- [DW_OP_plus_uconst 12] [$sp+0]
	@DEBUG_VALUE: vsscanf:state <- 0
	@DEBUG_VALUE: vsscanf:bail <- 0
	.loc	1 266 9 is_stmt 1               @ ../../../components/platform/soc/rt582/rt582_dongle/dongle/src/vsscanf.c:266:9
	ldr	r2, [sp, #12]                   @ 4-byte Reload
	movs	r5, #0
.Ltmp217:
	ldr	r1, [r2], #4
.Ltmp218:
	@DEBUG_VALUE: vsscanf:ap <- $r2
	.loc	1 268 9                         @ ../../../components/platform/soc/rt582/rt582_dongle/dongle/src/vsscanf.c:268:9
	str	r2, [sp, #12]                   @ 4-byte Spill
.Ltmp219:
	@DEBUG_VALUE: vsscanf:ap <- [DW_OP_plus_uconst 12] [$sp+0]
	@DEBUG_VALUE: vsscanf:ap <- [DW_OP_plus_uconst 12] [$sp+0]
	@DEBUG_VALUE: vsscanf:ap <- [DW_OP_plus_uconst 12] [$sp+0]
	str	r0, [r1]
	movs	r0, #1
.Ltmp220:
	.loc	1 0 9 is_stmt 0                 @ ../../../components/platform/soc/rt582/rt582_dongle/dongle/src/vsscanf.c:0:9
	b	.LBB0_103
.Ltmp221:
.LBB0_102:                              @   in Loop: Header=BB0_2 Depth=1
	@DEBUG_VALUE: vsscanf:converted <- $r12
	@DEBUG_VALUE: vsscanf:flags <- $r11
	@DEBUG_VALUE: vsscanf:q <- $r10
	@DEBUG_VALUE: vsscanf:sarg <- $r8
	@DEBUG_VALUE: vsscanf:rank <- $r5
	@DEBUG_VALUE: vsscanf:val <- [DW_OP_LLVM_fragment 32 32] $r1
	@DEBUG_VALUE: vsscanf:val <- [DW_OP_LLVM_fragment 0 32] $r0
	@DEBUG_VALUE: vsscanf:width <- [DW_OP_plus_uconst 24] [$sp+0]
	@DEBUG_VALUE: vsscanf:matchinv <- [DW_OP_plus_uconst 28] [$sp+0]
	@DEBUG_VALUE: vsscanf:range_start <- [DW_OP_plus_uconst 16] [$sp+0]
	@DEBUG_VALUE: vsscanf:ap <- [DW_OP_plus_uconst 12] [$sp+0]
	@DEBUG_VALUE: vsscanf:state <- 0
	@DEBUG_VALUE: vsscanf:bail <- 0
	.loc	1 271 9 is_stmt 1               @ ../../../components/platform/soc/rt582/rt582_dongle/dongle/src/vsscanf.c:271:9
	ldr	r3, [sp, #12]                   @ 4-byte Reload
	movs	r5, #0
.Ltmp222:
	ldr	r2, [r3], #4
.Ltmp223:
	@DEBUG_VALUE: vsscanf:ap <- $r3
	.loc	1 273 17                        @ ../../../components/platform/soc/rt582/rt582_dongle/dongle/src/vsscanf.c:273:17
	str	r3, [sp, #12]                   @ 4-byte Spill
.Ltmp224:
	@DEBUG_VALUE: vsscanf:ap <- [DW_OP_plus_uconst 12] [$sp+0]
	@DEBUG_VALUE: vsscanf:ap <- [DW_OP_plus_uconst 12] [$sp+0]
	@DEBUG_VALUE: vsscanf:ap <- [DW_OP_plus_uconst 12] [$sp+0]
	strd	r0, r1, [r2]
	movs	r0, #2
.Ltmp225:
.LBB0_103:                              @   in Loop: Header=BB0_2 Depth=1
	@DEBUG_VALUE: vsscanf:converted <- $r12
	@DEBUG_VALUE: vsscanf:flags <- $r11
	@DEBUG_VALUE: vsscanf:q <- $r10
	@DEBUG_VALUE: vsscanf:sarg <- $r8
	@DEBUG_VALUE: vsscanf:width <- [DW_OP_plus_uconst 24] [$sp+0]
	@DEBUG_VALUE: vsscanf:matchinv <- [DW_OP_plus_uconst 28] [$sp+0]
	@DEBUG_VALUE: vsscanf:range_start <- [DW_OP_plus_uconst 16] [$sp+0]
	@DEBUG_VALUE: vsscanf:ap <- [DW_OP_plus_uconst 12] [$sp+0]
	@DEBUG_VALUE: vsscanf:state <- 0
	@DEBUG_VALUE: vsscanf:bail <- 0
	.loc	1 0 0 is_stmt 0                 @ ../../../components/platform/soc/rt582/rt582_dongle/dongle/src/vsscanf.c:0:0
	str	r0, [sp, #20]                   @ 4-byte Spill
	b	.LBB0_7
.Ltmp226:
.LBB0_104:                              @   in Loop: Header=BB0_2 Depth=1
	@DEBUG_VALUE: vsscanf:rank <- [DW_OP_plus_uconst 20] [$sp+0]
	@DEBUG_VALUE: vsscanf:converted <- $r12
	@DEBUG_VALUE: vsscanf:flags <- $r11
	@DEBUG_VALUE: vsscanf:q <- $r10
	@DEBUG_VALUE: vsscanf:sarg <- $r8
	@DEBUG_VALUE: vsscanf:width <- $r1
	@DEBUG_VALUE: vsscanf:matchinv <- [DW_OP_plus_uconst 28] [$sp+0]
	@DEBUG_VALUE: vsscanf:range_start <- [DW_OP_plus_uconst 16] [$sp+0]
	@DEBUG_VALUE: vsscanf:ap <- [DW_OP_plus_uconst 12] [$sp+0]
	@DEBUG_VALUE: vsscanf:state <- 0
	@DEBUG_VALUE: vsscanf:bail <- 0
	.loc	1 288 7 is_stmt 1               @ ../../../components/platform/soc/rt582/rt582_dongle/dongle/src/vsscanf.c:288:7
	adds	r0, r1, #1
.Ltmp227:
.LBB0_105:                              @   Parent Loop BB0_2 Depth=1
                                        @ =>  This Inner Loop Header: Depth=2
	@DEBUG_VALUE: vsscanf:rank <- [DW_OP_plus_uconst 20] [$sp+0]
	@DEBUG_VALUE: vsscanf:converted <- $r12
	@DEBUG_VALUE: vsscanf:flags <- $r11
	@DEBUG_VALUE: vsscanf:q <- $r10
	@DEBUG_VALUE: vsscanf:sarg <- $r8
	@DEBUG_VALUE: vsscanf:matchinv <- [DW_OP_plus_uconst 28] [$sp+0]
	@DEBUG_VALUE: vsscanf:range_start <- [DW_OP_plus_uconst 16] [$sp+0]
	@DEBUG_VALUE: vsscanf:ap <- [DW_OP_plus_uconst 12] [$sp+0]
	@DEBUG_VALUE: vsscanf:state <- 0
	@DEBUG_VALUE: vsscanf:bail <- 0
	@DEBUG_VALUE: vsscanf:width <- [DW_OP_constu 1, DW_OP_minus, DW_OP_constu 1, DW_OP_minus, DW_OP_stack_value] $r0
	subs	r0, #1
.Ltmp228:
	beq	.LBB0_113
.Ltmp229:
@ %bb.106:                              @   in Loop: Header=BB0_105 Depth=2
	@DEBUG_VALUE: vsscanf:rank <- [DW_OP_plus_uconst 20] [$sp+0]
	@DEBUG_VALUE: vsscanf:converted <- $r12
	@DEBUG_VALUE: vsscanf:flags <- $r11
	@DEBUG_VALUE: vsscanf:q <- $r10
	@DEBUG_VALUE: vsscanf:sarg <- $r8
	@DEBUG_VALUE: vsscanf:matchinv <- [DW_OP_plus_uconst 28] [$sp+0]
	@DEBUG_VALUE: vsscanf:range_start <- [DW_OP_plus_uconst 16] [$sp+0]
	@DEBUG_VALUE: vsscanf:ap <- [DW_OP_plus_uconst 12] [$sp+0]
	@DEBUG_VALUE: vsscanf:state <- 0
	@DEBUG_VALUE: vsscanf:bail <- 0
	@DEBUG_VALUE: vsscanf:width <- [DW_OP_constu 2, DW_OP_minus, DW_OP_stack_value] $r0
	.loc	1 289 13                        @ ../../../components/platform/soc/rt582/rt582_dongle/dongle/src/vsscanf.c:289:13
	ldrb.w	r1, [r10]
	movs	r2, #1
.Ltmp230:
	.loc	1 289 12 is_stmt 0              @ ../../../components/platform/soc/rt582/rt582_dongle/dongle/src/vsscanf.c:289:12
	cmp	r1, #0
	bne	.LBB0_105
	b	.LBB0_129
.Ltmp231:
.LBB0_107:                              @   in Loop: Header=BB0_2 Depth=1
	@DEBUG_VALUE: vsscanf:rank <- [DW_OP_plus_uconst 20] [$sp+0]
	@DEBUG_VALUE: vsscanf:converted <- $r12
	@DEBUG_VALUE: vsscanf:flags <- $r11
	@DEBUG_VALUE: vsscanf:q <- $r10
	@DEBUG_VALUE: vsscanf:sarg <- $r8
	@DEBUG_VALUE: vsscanf:width <- [DW_OP_plus_uconst 24] [$sp+0]
	@DEBUG_VALUE: vsscanf:matchinv <- [DW_OP_plus_uconst 28] [$sp+0]
	@DEBUG_VALUE: vsscanf:range_start <- [DW_OP_plus_uconst 16] [$sp+0]
	@DEBUG_VALUE: vsscanf:ap <- [DW_OP_plus_uconst 12] [$sp+0]
	@DEBUG_VALUE: vsscanf:uc <- 1
	@DEBUG_VALUE: vsscanf:state <- 0
	@DEBUG_VALUE: vsscanf:bail <- 0
	@DEBUG_VALUE: vsscanf:q <- $r10
	@DEBUG_VALUE: vsscanf:width <- [DW_OP_plus_uconst 24, DW_OP_deref_size 4, DW_OP_constu 1, DW_OP_minus, DW_OP_stack_value] $sp
	@DEBUG_VALUE: vsscanf:uc <- undef
	.loc	1 0 12                          @ ../../../components/platform/soc/rt582/rt582_dongle/dongle/src/vsscanf.c:0:12
	ldr	r0, [sp, #24]                   @ 4-byte Reload
.Ltmp232:
	@DEBUG_VALUE: vsscanf:width <- [DW_OP_constu 1, DW_OP_minus, DW_OP_stack_value] $r0
	.loc	1 311 22 is_stmt 1              @ ../../../components/platform/soc/rt582/rt582_dongle/dongle/src/vsscanf.c:311:22
	cbz	r0, .LBB0_113
.Ltmp233:
@ %bb.108:                              @   in Loop: Header=BB0_2 Depth=1
	@DEBUG_VALUE: vsscanf:rank <- [DW_OP_plus_uconst 20] [$sp+0]
	@DEBUG_VALUE: vsscanf:converted <- $r12
	@DEBUG_VALUE: vsscanf:flags <- $r11
	@DEBUG_VALUE: vsscanf:q <- $r10
	@DEBUG_VALUE: vsscanf:sarg <- $r8
	@DEBUG_VALUE: vsscanf:width <- [DW_OP_constu 1, DW_OP_minus, DW_OP_stack_value] $r0
	@DEBUG_VALUE: vsscanf:matchinv <- [DW_OP_plus_uconst 28] [$sp+0]
	@DEBUG_VALUE: vsscanf:range_start <- [DW_OP_plus_uconst 16] [$sp+0]
	@DEBUG_VALUE: vsscanf:ap <- [DW_OP_plus_uconst 12] [$sp+0]
	@DEBUG_VALUE: vsscanf:state <- 0
	@DEBUG_VALUE: vsscanf:bail <- 0
	.loc	1 311 7 is_stmt 0               @ ../../../components/platform/soc/rt582/rt582_dongle/dongle/src/vsscanf.c:311:7
	add.w	r1, r10, r0
	subs	r0, #1
.Ltmp234:
	str	r1, [sp]                        @ 4-byte Spill
	str	r0, [sp, #24]                   @ 4-byte Spill
	str.w	r11, [sp, #4]                   @ 4-byte Spill
.Ltmp235:
	@DEBUG_VALUE: vsscanf:flags <- [DW_OP_plus_uconst 4] [$sp+0]
	@DEBUG_VALUE: vsscanf:flags <- [DW_OP_plus_uconst 4] [$sp+0]
.LBB0_109:                              @   Parent Loop BB0_2 Depth=1
                                        @ =>  This Inner Loop Header: Depth=2
	@DEBUG_VALUE: vsscanf:rank <- [DW_OP_plus_uconst 20] [$sp+0]
	@DEBUG_VALUE: vsscanf:q <- $r10
	@DEBUG_VALUE: vsscanf:sarg <- $r8
	@DEBUG_VALUE: vsscanf:matchinv <- [DW_OP_plus_uconst 28] [$sp+0]
	@DEBUG_VALUE: vsscanf:range_start <- [DW_OP_plus_uconst 16] [$sp+0]
	@DEBUG_VALUE: vsscanf:ap <- [DW_OP_plus_uconst 12] [$sp+0]
	@DEBUG_VALUE: vsscanf:state <- 0
	@DEBUG_VALUE: vsscanf:bail <- 0
	@DEBUG_VALUE: vsscanf:q <- $r10
	.loc	1 311 31                        @ ../../../components/platform/soc/rt582/rt582_dongle/dongle/src/vsscanf.c:311:31
	ldrb.w	r6, [r10]
.Ltmp236:
	@DEBUG_VALUE: vsscanf:uc <- undef
	.loc	1 311 35                        @ ../../../components/platform/soc/rt582/rt582_dongle/dongle/src/vsscanf.c:311:35
	cmp	r6, #0
	beq	.LBB0_125
.Ltmp237:
@ %bb.110:                              @   in Loop: Header=BB0_109 Depth=2
	@DEBUG_VALUE: vsscanf:rank <- [DW_OP_plus_uconst 20] [$sp+0]
	@DEBUG_VALUE: vsscanf:q <- $r10
	@DEBUG_VALUE: vsscanf:sarg <- $r8
	@DEBUG_VALUE: vsscanf:matchinv <- [DW_OP_plus_uconst 28] [$sp+0]
	@DEBUG_VALUE: vsscanf:range_start <- [DW_OP_plus_uconst 16] [$sp+0]
	@DEBUG_VALUE: vsscanf:ap <- [DW_OP_plus_uconst 12] [$sp+0]
	@DEBUG_VALUE: vsscanf:state <- 0
	@DEBUG_VALUE: vsscanf:bail <- 0
	.loc	1 0 35                          @ ../../../components/platform/soc/rt582/rt582_dongle/dongle/src/vsscanf.c:0:35
	mov	r4, r12
.Ltmp238:
	@DEBUG_VALUE: vsscanf:converted <- $r4
	.loc	1 312 15 is_stmt 1              @ ../../../components/platform/soc/rt582/rt582_dongle/dongle/src/vsscanf.c:312:15
	bl	__rt_ctype_table
.Ltmp239:
	ldr	r0, [r0]
	ldrb	r0, [r0, r6]
	.loc	1 311 7                         @ ../../../components/platform/soc/rt582/rt582_dongle/dongle/src/vsscanf.c:311:7
	lsls	r0, r0, #31
	bne	.LBB0_119
.Ltmp240:
@ %bb.111:                              @   in Loop: Header=BB0_109 Depth=2
	@DEBUG_VALUE: vsscanf:rank <- [DW_OP_plus_uconst 20] [$sp+0]
	@DEBUG_VALUE: vsscanf:q <- $r10
	@DEBUG_VALUE: vsscanf:sarg <- $r8
	@DEBUG_VALUE: vsscanf:matchinv <- [DW_OP_plus_uconst 28] [$sp+0]
	@DEBUG_VALUE: vsscanf:range_start <- [DW_OP_plus_uconst 16] [$sp+0]
	@DEBUG_VALUE: vsscanf:ap <- [DW_OP_plus_uconst 12] [$sp+0]
	@DEBUG_VALUE: vsscanf:state <- 0
	@DEBUG_VALUE: vsscanf:bail <- 0
	.loc	1 0 7 is_stmt 0                 @ ../../../components/platform/soc/rt582/rt582_dongle/dongle/src/vsscanf.c:0:7
	ldr	r0, [sp, #24]                   @ 4-byte Reload
.Ltmp241:
	@DEBUG_VALUE: vsscanf:width <- [DW_OP_constu 1, DW_OP_minus, DW_OP_stack_value] $r0
	ldr.w	r11, [sp, #4]                   @ 4-byte Reload
.Ltmp242:
	@DEBUG_VALUE: vsscanf:flags <- $r11
	.loc	1 311 19                        @ ../../../components/platform/soc/rt582/rt582_dongle/dongle/src/vsscanf.c:311:19
	subs	r0, #1
.Ltmp243:
	.loc	1 313 9 is_stmt 1               @ ../../../components/platform/soc/rt582/rt582_dongle/dongle/src/vsscanf.c:313:9
	add.w	r10, r10, #1
.Ltmp244:
	@DEBUG_VALUE: vsscanf:uc <- undef
	@DEBUG_VALUE: vsscanf:width <- [DW_OP_plus_uconst 24, DW_OP_deref_size 4, DW_OP_constu 1, DW_OP_minus, DW_OP_stack_value] $sp
	@DEBUG_VALUE: vsscanf:q <- $r10
	.loc	1 0 9 is_stmt 0                 @ ../../../components/platform/soc/rt582/rt582_dongle/dongle/src/vsscanf.c:0:9
	str	r0, [sp, #24]                   @ 4-byte Spill
.Ltmp245:
	.loc	1 311 22 is_stmt 1              @ ../../../components/platform/soc/rt582/rt582_dongle/dongle/src/vsscanf.c:311:22
	adds	r0, #1
	mov.w	r5, #0
	mov.w	lr, #1
	mov	r12, r4
	bne	.LBB0_109
.Ltmp246:
@ %bb.112:                              @   in Loop: Header=BB0_2 Depth=1
	@DEBUG_VALUE: vsscanf:rank <- [DW_OP_plus_uconst 20] [$sp+0]
	@DEBUG_VALUE: vsscanf:q <- $r10
	@DEBUG_VALUE: vsscanf:sarg <- $r8
	@DEBUG_VALUE: vsscanf:width <- [DW_OP_plus_uconst 24, DW_OP_deref_size 4, DW_OP_constu 1, DW_OP_minus, DW_OP_stack_value] $sp
	@DEBUG_VALUE: vsscanf:matchinv <- [DW_OP_plus_uconst 28] [$sp+0]
	@DEBUG_VALUE: vsscanf:range_start <- [DW_OP_plus_uconst 16] [$sp+0]
	@DEBUG_VALUE: vsscanf:ap <- [DW_OP_plus_uconst 12] [$sp+0]
	@DEBUG_VALUE: vsscanf:state <- 0
	@DEBUG_VALUE: vsscanf:bail <- 0
	.loc	1 0 0 is_stmt 0                 @ ../../../components/platform/soc/rt582/rt582_dongle/dongle/src/vsscanf.c:0:0
	ldr.w	r10, [sp]                       @ 4-byte Reload
.Ltmp247:
	b	.LBB0_114
.Ltmp248:
.LBB0_113:                              @   in Loop: Header=BB0_2 Depth=1
	@DEBUG_VALUE: vsscanf:rank <- [DW_OP_plus_uconst 20] [$sp+0]
	@DEBUG_VALUE: vsscanf:flags <- $r11
	@DEBUG_VALUE: vsscanf:q <- $r10
	@DEBUG_VALUE: vsscanf:sarg <- $r8
	@DEBUG_VALUE: vsscanf:matchinv <- [DW_OP_plus_uconst 28] [$sp+0]
	@DEBUG_VALUE: vsscanf:range_start <- [DW_OP_plus_uconst 16] [$sp+0]
	@DEBUG_VALUE: vsscanf:ap <- [DW_OP_plus_uconst 12] [$sp+0]
	@DEBUG_VALUE: vsscanf:state <- 0
	@DEBUG_VALUE: vsscanf:bail <- 0
	movs	r5, #0
.Ltmp249:
.LBB0_114:                              @   in Loop: Header=BB0_2 Depth=1
	@DEBUG_VALUE: vsscanf:rank <- [DW_OP_plus_uconst 20] [$sp+0]
	@DEBUG_VALUE: vsscanf:sarg <- $r8
	@DEBUG_VALUE: vsscanf:matchinv <- [DW_OP_plus_uconst 28] [$sp+0]
	@DEBUG_VALUE: vsscanf:range_start <- [DW_OP_plus_uconst 16] [$sp+0]
	@DEBUG_VALUE: vsscanf:ap <- [DW_OP_plus_uconst 12] [$sp+0]
	@DEBUG_VALUE: vsscanf:state <- 0
	@DEBUG_VALUE: vsscanf:bail <- 0
	mov.w	r0, #-1
	str	r0, [sp, #24]                   @ 4-byte Spill
	b	.LBB0_7
.Ltmp250:
.LBB0_115:                              @   in Loop: Header=BB0_2 Depth=1
	@DEBUG_VALUE: vsscanf:rank <- [DW_OP_plus_uconst 20] [$sp+0]
	@DEBUG_VALUE: vsscanf:flags <- $r11
	@DEBUG_VALUE: vsscanf:q <- $r10
	@DEBUG_VALUE: vsscanf:sarg <- $r8
	@DEBUG_VALUE: vsscanf:converted <- $r6
	@DEBUG_VALUE: vsscanf:width <- [DW_OP_plus_uconst 24] [$sp+0]
	@DEBUG_VALUE: vsscanf:matchinv <- [DW_OP_plus_uconst 28] [$sp+0]
	@DEBUG_VALUE: vsscanf:range_start <- [DW_OP_plus_uconst 16] [$sp+0]
	@DEBUG_VALUE: vsscanf:ap <- [DW_OP_plus_uconst 12] [$sp+0]
	@DEBUG_VALUE: vsscanf:state <- 0
	@DEBUG_VALUE: vsscanf:bail <- 0
	mov.w	r8, #0
.Ltmp251:
.LBB0_116:                              @   in Loop: Header=BB0_2 Depth=1
	@DEBUG_VALUE: vsscanf:rank <- [DW_OP_plus_uconst 20] [$sp+0]
	@DEBUG_VALUE: vsscanf:flags <- $r11
	@DEBUG_VALUE: vsscanf:q <- $r10
	@DEBUG_VALUE: vsscanf:converted <- $r6
	@DEBUG_VALUE: vsscanf:width <- [DW_OP_plus_uconst 24] [$sp+0]
	@DEBUG_VALUE: vsscanf:matchinv <- [DW_OP_plus_uconst 28] [$sp+0]
	@DEBUG_VALUE: vsscanf:range_start <- [DW_OP_plus_uconst 16] [$sp+0]
	@DEBUG_VALUE: vsscanf:ap <- [DW_OP_plus_uconst 12] [$sp+0]
	@DEBUG_VALUE: vsscanf:state <- 0
	@DEBUG_VALUE: vsscanf:bail <- 0
	@DEBUG_VALUE: vsscanf:ap <- [DW_OP_plus_uconst 12] [$sp+0]
	@DEBUG_VALUE: vsscanf:state <- 4
	@DEBUG_VALUE: vsscanf:sarg <- $r8
	@DEBUG_VALUE: vsscanf:matchinv <- 0
	.loc	1 338 6 is_stmt 1               @ ../../../components/platform/soc/rt582/rt582_dongle/dongle/src/vsscanf.c:338:6
	mov	r0, r7
	movs	r1, #32
	bl	__aeabi_memclr4
.Ltmp252:
	.loc	1 0 0 is_stmt 0                 @ ../../../components/platform/soc/rt582/rt582_dongle/dongle/src/vsscanf.c:0:0
	movs	r0, #0
	movs	r2, #0
	movs	r5, #4
	str	r0, [sp, #28]                   @ 4-byte Spill
	mov.w	lr, #1
	mov	r12, r6
	b	.LBB0_59
.Ltmp253:
.LBB0_117:                              @   in Loop: Header=BB0_2 Depth=1
	@DEBUG_VALUE: vsscanf:rank <- [DW_OP_plus_uconst 20] [$sp+0]
	@DEBUG_VALUE: vsscanf:flags <- $r11
	@DEBUG_VALUE: vsscanf:sarg <- $r8
	@DEBUG_VALUE: vsscanf:converted <- $r5
	@DEBUG_VALUE: vsscanf:matchinv <- [DW_OP_plus_uconst 28] [$sp+0]
	@DEBUG_VALUE: vsscanf:range_start <- [DW_OP_plus_uconst 16] [$sp+0]
	@DEBUG_VALUE: vsscanf:ap <- [DW_OP_plus_uconst 12] [$sp+0]
	@DEBUG_VALUE: vsscanf:state <- 0
	@DEBUG_VALUE: vsscanf:bail <- 0
	.loc	1 318 7 is_stmt 1               @ ../../../components/platform/soc/rt582/rt582_dongle/dongle/src/vsscanf.c:318:7
	add.w	r1, r8, r4
	add	r10, r4
	mov.w	lr, #1
.Ltmp254:
.LBB0_118:                              @   in Loop: Header=BB0_2 Depth=1
	@DEBUG_VALUE: vsscanf:rank <- [DW_OP_plus_uconst 20] [$sp+0]
	@DEBUG_VALUE: vsscanf:flags <- $r11
	@DEBUG_VALUE: vsscanf:sarg <- $r8
	@DEBUG_VALUE: vsscanf:converted <- $r5
	@DEBUG_VALUE: vsscanf:matchinv <- [DW_OP_plus_uconst 28] [$sp+0]
	@DEBUG_VALUE: vsscanf:range_start <- [DW_OP_plus_uconst 16] [$sp+0]
	@DEBUG_VALUE: vsscanf:ap <- [DW_OP_plus_uconst 12] [$sp+0]
	@DEBUG_VALUE: vsscanf:state <- 0
	@DEBUG_VALUE: vsscanf:bail <- 0
	.loc	1 0 7 is_stmt 0                 @ ../../../components/platform/soc/rt582/rt582_dongle/dongle/src/vsscanf.c:0:7
	mov	r12, r5
.Ltmp255:
	@DEBUG_VALUE: vsscanf:q <- $r10
	@DEBUG_VALUE: vsscanf:width <- [DW_OP_plus_uconst 24] [$sp+0]
	@DEBUG_VALUE: vsscanf:uc <- undef
	movs	r5, #0
.Ltmp256:
	.loc	1 323 11 is_stmt 1              @ ../../../components/platform/soc/rt582/rt582_dongle/dongle/src/vsscanf.c:323:11
	cmp	r8, r1
.Ltmp257:
	.loc	1 325 12                        @ ../../../components/platform/soc/rt582/rt582_dongle/dongle/src/vsscanf.c:325:12
	itt	ne
	strbne	r5, [r1]
	.loc	1 326 17                        @ ../../../components/platform/soc/rt582/rt582_dongle/dongle/src/vsscanf.c:326:17
	addne.w	r12, r12, #1
	@DEBUG_VALUE: vsscanf:uc <- undef
.Ltmp258:
	@DEBUG_VALUE: vsscanf:converted <- undef
	@DEBUG_VALUE: vsscanf:sarg <- $r8
	@DEBUG_VALUE: vsscanf:width <- [DW_OP_plus_uconst 24] [$sp+0]
	@DEBUG_VALUE: vsscanf:q <- $r10
	@DEBUG_VALUE: vsscanf:ap <- [DW_OP_plus_uconst 12] [$sp+0]
	.loc	1 0 17 is_stmt 0                @ ../../../components/platform/soc/rt582/rt582_dongle/dongle/src/vsscanf.c:0:17
	b	.LBB0_7
.Ltmp259:
.LBB0_119:                              @   in Loop: Header=BB0_2 Depth=1
	@DEBUG_VALUE: vsscanf:rank <- [DW_OP_plus_uconst 20] [$sp+0]
	@DEBUG_VALUE: vsscanf:q <- $r10
	@DEBUG_VALUE: vsscanf:sarg <- $r8
	@DEBUG_VALUE: vsscanf:matchinv <- [DW_OP_plus_uconst 28] [$sp+0]
	@DEBUG_VALUE: vsscanf:range_start <- [DW_OP_plus_uconst 16] [$sp+0]
	@DEBUG_VALUE: vsscanf:ap <- [DW_OP_plus_uconst 12] [$sp+0]
	@DEBUG_VALUE: vsscanf:state <- 0
	@DEBUG_VALUE: vsscanf:bail <- 0
	ldr.w	r11, [sp, #4]                   @ 4-byte Reload
.Ltmp260:
	@DEBUG_VALUE: vsscanf:flags <- $r11
	movs	r5, #0
	movs	r2, #0
	mov.w	lr, #1
	mov	r12, r4
	b	.LBB0_59
.Ltmp261:
.LBB0_120:
	@DEBUG_VALUE: vsscanf:ch <- $r6
	@DEBUG_VALUE: vsscanf:p <- [DW_OP_plus_uconst 1, DW_OP_stack_value] $r1
	@DEBUG_VALUE: vsscanf:format <- $r1
	@DEBUG_VALUE: vsscanf:buffer <- $r0
	@DEBUG_VALUE: vsscanf:val <- 0
	@DEBUG_VALUE: vsscanf:rank <- 0
	@DEBUG_VALUE: vsscanf:width <- -1
	@DEBUG_VALUE: vsscanf:flags <- 0
	@DEBUG_VALUE: vsscanf:state <- 0
	@DEBUG_VALUE: vsscanf:sarg <- 0
	@DEBUG_VALUE: vsscanf:bail <- 0
	@DEBUG_VALUE: vsscanf:converted <- 0
	@DEBUG_VALUE: vsscanf:matchinv <- 0
	@DEBUG_VALUE: vsscanf:range_start <- 0
	movs	r2, #0
	.loc	1 99 6 is_stmt 1                @ ../../../components/platform/soc/rt582/rt582_dongle/dongle/src/vsscanf.c:99:6
	mov.w	r12, #0
	b	.LBB0_129
.Ltmp262:
.LBB0_121:
	@DEBUG_VALUE: vsscanf:converted <- $r12
	@DEBUG_VALUE: vsscanf:flags <- $r11
	@DEBUG_VALUE: vsscanf:q <- $r10
	@DEBUG_VALUE: vsscanf:sarg <- $r8
	@DEBUG_VALUE: vsscanf:state <- $r5
	@DEBUG_VALUE: vsscanf:uc <- $r1
	@DEBUG_VALUE: vsscanf:rank <- [DW_OP_plus_uconst 20] [$sp+0]
	@DEBUG_VALUE: vsscanf:width <- [DW_OP_plus_uconst 24] [$sp+0]
	@DEBUG_VALUE: vsscanf:matchinv <- [DW_OP_plus_uconst 28] [$sp+0]
	@DEBUG_VALUE: vsscanf:range_start <- [DW_OP_plus_uconst 16] [$sp+0]
	@DEBUG_VALUE: vsscanf:ap <- [DW_OP_plus_uconst 12] [$sp+0]
	@DEBUG_VALUE: vsscanf:bail <- 0
	.loc	1 0 6 is_stmt 0                 @ ../../../components/platform/soc/rt582/rt582_dongle/dongle/src/vsscanf.c:0:6
	clz	r0, r1
	lsrs	r0, r0, #5
.Ltmp263:
	@DEBUG_VALUE: vsscanf:qq <- undef
	@DEBUG_VALUE: vsscanf:uc <- undef
	.loc	1 399 16 is_stmt 1              @ ../../../components/platform/soc/rt582/rt582_dongle/dongle/src/vsscanf.c:399:16
	cmp.w	r8, #0
	beq	.LBB0_124
.Ltmp264:
@ %bb.122:
	@DEBUG_VALUE: vsscanf:converted <- $r12
	@DEBUG_VALUE: vsscanf:flags <- $r11
	@DEBUG_VALUE: vsscanf:q <- $r10
	@DEBUG_VALUE: vsscanf:sarg <- $r8
	@DEBUG_VALUE: vsscanf:state <- $r5
	@DEBUG_VALUE: vsscanf:rank <- [DW_OP_plus_uconst 20] [$sp+0]
	@DEBUG_VALUE: vsscanf:width <- [DW_OP_plus_uconst 24] [$sp+0]
	@DEBUG_VALUE: vsscanf:matchinv <- [DW_OP_plus_uconst 28] [$sp+0]
	@DEBUG_VALUE: vsscanf:range_start <- [DW_OP_plus_uconst 16] [$sp+0]
	@DEBUG_VALUE: vsscanf:ap <- [DW_OP_plus_uconst 12] [$sp+0]
	@DEBUG_VALUE: vsscanf:bail <- 0
	.loc	1 0 0 is_stmt 0                 @ ../../../components/platform/soc/rt582/rt582_dongle/dongle/src/vsscanf.c:0:0
	ldr	r1, [sp, #64]
.Ltmp265:
	@DEBUG_VALUE: vsscanf:qq <- $r1
	.loc	1 399 16                        @ ../../../components/platform/soc/rt582/rt582_dongle/dongle/src/vsscanf.c:399:16
	cmp	r10, r1
	beq	.LBB0_124
.Ltmp266:
@ %bb.123:
	@DEBUG_VALUE: vsscanf:converted <- $r12
	@DEBUG_VALUE: vsscanf:flags <- $r11
	@DEBUG_VALUE: vsscanf:q <- $r10
	@DEBUG_VALUE: vsscanf:sarg <- $r8
	@DEBUG_VALUE: vsscanf:state <- $r5
	@DEBUG_VALUE: vsscanf:qq <- $r1
	@DEBUG_VALUE: vsscanf:rank <- [DW_OP_plus_uconst 20] [$sp+0]
	@DEBUG_VALUE: vsscanf:width <- [DW_OP_plus_uconst 24] [$sp+0]
	@DEBUG_VALUE: vsscanf:matchinv <- [DW_OP_plus_uconst 28] [$sp+0]
	@DEBUG_VALUE: vsscanf:range_start <- [DW_OP_plus_uconst 16] [$sp+0]
	@DEBUG_VALUE: vsscanf:ap <- [DW_OP_plus_uconst 12] [$sp+0]
	@DEBUG_VALUE: vsscanf:bail <- 0
	.loc	1 0 16                          @ ../../../components/platform/soc/rt582/rt582_dongle/dongle/src/vsscanf.c:0:16
	movs	r0, #0
.Ltmp267:
	.loc	1 400 11 is_stmt 1              @ ../../../components/platform/soc/rt582/rt582_dongle/dongle/src/vsscanf.c:400:11
	strb.w	r0, [r8]
	.loc	1 401 14                        @ ../../../components/platform/soc/rt582/rt582_dongle/dongle/src/vsscanf.c:401:14
	add.w	r12, r12, #1
.Ltmp268:
	@DEBUG_VALUE: vsscanf:converted <- $r12
	@DEBUG_VALUE: vsscanf:bail <- 2
	.loc	1 0 14 is_stmt 0                @ ../../../components/platform/soc/rt582/rt582_dongle/dongle/src/vsscanf.c:0:14
	b	.LBB0_125
.Ltmp269:
.LBB0_124:
	@DEBUG_VALUE: vsscanf:converted <- $r12
	@DEBUG_VALUE: vsscanf:flags <- $r11
	@DEBUG_VALUE: vsscanf:q <- $r10
	@DEBUG_VALUE: vsscanf:sarg <- $r8
	@DEBUG_VALUE: vsscanf:state <- $r5
	@DEBUG_VALUE: vsscanf:rank <- [DW_OP_plus_uconst 20] [$sp+0]
	@DEBUG_VALUE: vsscanf:width <- [DW_OP_plus_uconst 24] [$sp+0]
	@DEBUG_VALUE: vsscanf:matchinv <- [DW_OP_plus_uconst 28] [$sp+0]
	@DEBUG_VALUE: vsscanf:range_start <- [DW_OP_plus_uconst 16] [$sp+0]
	@DEBUG_VALUE: vsscanf:ap <- [DW_OP_plus_uconst 12] [$sp+0]
	@DEBUG_VALUE: vsscanf:bail <- 0
	@DEBUG_VALUE: vsscanf:bail <- 2
	@DEBUG_VALUE: vsscanf:converted <- $r12
	.loc	1 405 8 is_stmt 1               @ ../../../components/platform/soc/rt582/rt582_dongle/dongle/src/vsscanf.c:405:8
	cbz	r0, .LBB0_128
.Ltmp270:
.LBB0_125:
	@DEBUG_VALUE: vsscanf:sarg <- $r8
	@DEBUG_VALUE: vsscanf:matchinv <- [DW_OP_plus_uconst 28] [$sp+0]
	@DEBUG_VALUE: vsscanf:range_start <- [DW_OP_plus_uconst 16] [$sp+0]
	@DEBUG_VALUE: vsscanf:ap <- [DW_OP_plus_uconst 12] [$sp+0]
	.loc	1 0 8 is_stmt 0                 @ ../../../components/platform/soc/rt582/rt582_dongle/dongle/src/vsscanf.c:0:8
	movs	r2, #1
	b	.LBB0_129
.Ltmp271:
.LBB0_126:
	@DEBUG_VALUE: vsscanf:converted <- [DW_OP_plus_uconst 20] [$sp+0]
	@DEBUG_VALUE: vsscanf:flags <- $r11
	@DEBUG_VALUE: vsscanf:sarg <- $r8
	@DEBUG_VALUE: vsscanf:rank <- $r5
	@DEBUG_VALUE: vsscanf:base <- $r4
	@DEBUG_VALUE: vsscanf:width <- [DW_OP_plus_uconst 24] [$sp+0]
	@DEBUG_VALUE: vsscanf:matchinv <- [DW_OP_plus_uconst 28] [$sp+0]
	@DEBUG_VALUE: vsscanf:range_start <- [DW_OP_plus_uconst 16] [$sp+0]
	@DEBUG_VALUE: vsscanf:ap <- [DW_OP_plus_uconst 12] [$sp+0]
	@DEBUG_VALUE: vsscanf:state <- 0
	@DEBUG_VALUE: vsscanf:bail <- 0
	ldr.w	r12, [sp, #20]                  @ 4-byte Reload
.Ltmp272:
	@DEBUG_VALUE: vsscanf:converted <- $r12
	@DEBUG_VALUE: vsscanf:converted <- $r12
	b	.LBB0_125
.Ltmp273:
.LBB0_127:
	@DEBUG_VALUE: vsscanf:converted <- [DW_OP_plus_uconst 20] [$sp+0]
	@DEBUG_VALUE: vsscanf:flags <- $r11
	@DEBUG_VALUE: vsscanf:qq <- $r10
	@DEBUG_VALUE: vsscanf:sarg <- $r8
	@DEBUG_VALUE: vsscanf:rank <- $r5
	@DEBUG_VALUE: vsscanf:base <- $r4
	@DEBUG_VALUE: vsscanf:width <- [DW_OP_plus_uconst 24] [$sp+0]
	@DEBUG_VALUE: vsscanf:matchinv <- [DW_OP_plus_uconst 28] [$sp+0]
	@DEBUG_VALUE: vsscanf:range_start <- [DW_OP_plus_uconst 16] [$sp+0]
	@DEBUG_VALUE: vsscanf:ap <- [DW_OP_plus_uconst 12] [$sp+0]
	@DEBUG_VALUE: vsscanf:state <- 0
	@DEBUG_VALUE: vsscanf:bail <- 0
	ldr.w	r12, [sp, #20]                  @ 4-byte Reload
.Ltmp274:
	@DEBUG_VALUE: vsscanf:converted <- $r12
	@DEBUG_VALUE: vsscanf:converted <- $r12
.LBB0_128:
	@DEBUG_VALUE: vsscanf:converted <- $r12
	@DEBUG_VALUE: vsscanf:flags <- $r11
	@DEBUG_VALUE: vsscanf:sarg <- $r8
	@DEBUG_VALUE: vsscanf:width <- [DW_OP_plus_uconst 24] [$sp+0]
	@DEBUG_VALUE: vsscanf:matchinv <- [DW_OP_plus_uconst 28] [$sp+0]
	@DEBUG_VALUE: vsscanf:range_start <- [DW_OP_plus_uconst 16] [$sp+0]
	@DEBUG_VALUE: vsscanf:ap <- [DW_OP_plus_uconst 12] [$sp+0]
	movs	r2, #2
.Ltmp275:
.LBB0_129:
	.loc	1 411 11 is_stmt 1              @ ../../../components/platform/soc/rt582/rt582_dongle/dongle/src/vsscanf.c:411:11
	eor	r0, r2, #1
	.loc	1 411 23 is_stmt 0              @ ../../../components/platform/soc/rt582/rt582_dongle/dongle/src/vsscanf.c:411:23
	orrs.w	r0, r0, r12
	it	eq
	moveq.w	r12, #-1
.Ltmp276:
	@DEBUG_VALUE: vsscanf:converted <- $r12
	.loc	1 414 2 is_stmt 1               @ ../../../components/platform/soc/rt582/rt582_dongle/dongle/src/vsscanf.c:414:2
	mov	r0, r12
	add	sp, #68
	pop.w	{r4, r5, r6, r7, r8, r9, r10, r11, pc}
.Ltmp277:
.LBB0_130:
	@DEBUG_VALUE: vsscanf:rank <- [DW_OP_plus_uconst 20] [$sp+0]
	@DEBUG_VALUE: vsscanf:flags <- $r11
	@DEBUG_VALUE: vsscanf:sarg <- $r8
	@DEBUG_VALUE: vsscanf:converted <- $r5
	@DEBUG_VALUE: vsscanf:matchinv <- [DW_OP_plus_uconst 28] [$sp+0]
	@DEBUG_VALUE: vsscanf:range_start <- [DW_OP_plus_uconst 16] [$sp+0]
	@DEBUG_VALUE: vsscanf:ap <- [DW_OP_plus_uconst 12] [$sp+0]
	@DEBUG_VALUE: vsscanf:state <- 0
	@DEBUG_VALUE: vsscanf:bail <- 0
	@DEBUG_VALUE: vsscanf:uc <- undef
	.loc	1 323 11                        @ ../../../components/platform/soc/rt582/rt582_dongle/dongle/src/vsscanf.c:323:11
	cbz	r4, .LBB0_132
.Ltmp278:
@ %bb.131:
	@DEBUG_VALUE: vsscanf:rank <- [DW_OP_plus_uconst 20] [$sp+0]
	@DEBUG_VALUE: vsscanf:flags <- $r11
	@DEBUG_VALUE: vsscanf:sarg <- $r8
	@DEBUG_VALUE: vsscanf:converted <- $r5
	@DEBUG_VALUE: vsscanf:matchinv <- [DW_OP_plus_uconst 28] [$sp+0]
	@DEBUG_VALUE: vsscanf:range_start <- [DW_OP_plus_uconst 16] [$sp+0]
	@DEBUG_VALUE: vsscanf:ap <- [DW_OP_plus_uconst 12] [$sp+0]
	@DEBUG_VALUE: vsscanf:state <- 0
	@DEBUG_VALUE: vsscanf:bail <- 0
	.loc	1 0 11 is_stmt 0                @ ../../../components/platform/soc/rt582/rt582_dongle/dongle/src/vsscanf.c:0:11
	movs	r0, #0
	mov	r12, r5
.Ltmp279:
	.loc	1 325 12 is_stmt 1              @ ../../../components/platform/soc/rt582/rt582_dongle/dongle/src/vsscanf.c:325:12
	strb.w	r0, [r8, r4]
	.loc	1 326 17                        @ ../../../components/platform/soc/rt582/rt582_dongle/dongle/src/vsscanf.c:326:17
	add.w	r12, r5, #1
	b	.LBB0_125
.Ltmp280:
.LBB0_132:
	@DEBUG_VALUE: vsscanf:rank <- [DW_OP_plus_uconst 20] [$sp+0]
	@DEBUG_VALUE: vsscanf:flags <- $r11
	@DEBUG_VALUE: vsscanf:sarg <- $r8
	@DEBUG_VALUE: vsscanf:converted <- $r5
	@DEBUG_VALUE: vsscanf:matchinv <- [DW_OP_plus_uconst 28] [$sp+0]
	@DEBUG_VALUE: vsscanf:range_start <- [DW_OP_plus_uconst 16] [$sp+0]
	@DEBUG_VALUE: vsscanf:ap <- [DW_OP_plus_uconst 12] [$sp+0]
	@DEBUG_VALUE: vsscanf:state <- 0
	@DEBUG_VALUE: vsscanf:bail <- 0
	.loc	1 0 17 is_stmt 0                @ ../../../components/platform/soc/rt582/rt582_dongle/dongle/src/vsscanf.c:0:17
	movs	r2, #1
	mov	r12, r5
	b	.LBB0_129
.Lfunc_end0:
	.size	vsscanf, .Lfunc_end0-vsscanf
	.cfi_endproc
	.cantunwind
	.fnend
                                        @ -- End function
	.file	3 "C:\\Keil_v5\\ARM\\ARMCLANG\\Bin\\..\\include" "stdarg.h"
	.section	".note.GNU-stack","",%progbits
	.eabi_attribute	30, 3	@ Tag_ABI_optimization_goals
	.ARM_attribute	16, 1	@ Tag_AV_eba